
/home/zjian_zhang/Dplus_Z/project/realtek_amebaDplus_va0_example/GCC-RELEASE/project_km4/asdk/image/target_rom_ns.axf:     file format elf32-littlearm


Disassembly of section .rom.text:

0001e000 <rtl_crypto_aes_cbc_init-0xc00>:
	...

0001ec00 <rtl_crypto_aes_cbc_init>:
   1ec00:	4b11      	ldr	r3, [pc, #68]	; (1ec48 <rtl_crypto_aes_cbc_init+0x48>)
   1ec02:	b570      	push	{r4, r5, r6, lr}
   1ec04:	781b      	ldrb	r3, [r3, #0]
   1ec06:	4604      	mov	r4, r0
   1ec08:	460d      	mov	r5, r1
   1ec0a:	2b01      	cmp	r3, #1
   1ec0c:	d10d      	bne.n	1ec2a <rtl_crypto_aes_cbc_init+0x2a>
   1ec0e:	b1bc      	cbz	r4, 1ec40 <rtl_crypto_aes_cbc_init+0x40>
   1ec10:	07a3      	lsls	r3, r4, #30
   1ec12:	d112      	bne.n	1ec3a <rtl_crypto_aes_cbc_init+0x3a>
   1ec14:	2d20      	cmp	r5, #32
   1ec16:	d80d      	bhi.n	1ec34 <rtl_crypto_aes_cbc_init+0x34>
   1ec18:	4622      	mov	r2, r4
   1ec1a:	4c0c      	ldr	r4, [pc, #48]	; (1ec4c <rtl_crypto_aes_cbc_init+0x4c>)
   1ec1c:	462b      	mov	r3, r5
   1ec1e:	2121      	movs	r1, #33	; 0x21
   1ec20:	46a4      	mov	ip, r4
   1ec22:	4809      	ldr	r0, [pc, #36]	; (1ec48 <rtl_crypto_aes_cbc_init+0x48>)
   1ec24:	e8bd 4070 	ldmia.w	sp!, {r4, r5, r6, lr}
   1ec28:	4760      	bx	ip
   1ec2a:	2126      	movs	r1, #38	; 0x26
   1ec2c:	4808      	ldr	r0, [pc, #32]	; (1ec50 <rtl_crypto_aes_cbc_init+0x50>)
   1ec2e:	f000 fac3 	bl	1f1b8 <io_assert_failed>
   1ec32:	e7ec      	b.n	1ec0e <rtl_crypto_aes_cbc_init+0xe>
   1ec34:	f06f 0006 	mvn.w	r0, #6
   1ec38:	bd70      	pop	{r4, r5, r6, pc}
   1ec3a:	f06f 0005 	mvn.w	r0, #5
   1ec3e:	bd70      	pop	{r4, r5, r6, pc}
   1ec40:	f06f 0003 	mvn.w	r0, #3
   1ec44:	bd70      	pop	{r4, r5, r6, pc}
   1ec46:	bf00      	nop
   1ec48:	20004200 	.word	0x20004200
   1ec4c:	00020b71 	.word	0x00020b71
   1ec50:	00043268 	.word	0x00043268

0001ec54 <rtl_crypto_aes_cbc_encrypt>:
   1ec54:	b530      	push	{r4, r5, lr}
   1ec56:	b087      	sub	sp, #28
   1ec58:	461d      	mov	r5, r3
   1ec5a:	9b0a      	ldr	r3, [sp, #40]	; 0x28
   1ec5c:	b1c2      	cbz	r2, 1ec90 <rtl_crypto_aes_cbc_encrypt+0x3c>
   1ec5e:	0794      	lsls	r4, r2, #30
   1ec60:	d119      	bne.n	1ec96 <rtl_crypto_aes_cbc_encrypt+0x42>
   1ec62:	2d10      	cmp	r5, #16
   1ec64:	d111      	bne.n	1ec8a <rtl_crypto_aes_cbc_encrypt+0x36>
   1ec66:	b198      	cbz	r0, 1ec90 <rtl_crypto_aes_cbc_encrypt+0x3c>
   1ec68:	fab3 f483 	clz	r4, r3
   1ec6c:	0964      	lsrs	r4, r4, #5
   1ec6e:	b17b      	cbz	r3, 1ec90 <rtl_crypto_aes_cbc_encrypt+0x3c>
   1ec70:	9303      	str	r3, [sp, #12]
   1ec72:	4613      	mov	r3, r2
   1ec74:	9404      	str	r4, [sp, #16]
   1ec76:	460a      	mov	r2, r1
   1ec78:	9500      	str	r5, [sp, #0]
   1ec7a:	4601      	mov	r1, r0
   1ec7c:	4807      	ldr	r0, [pc, #28]	; (1ec9c <rtl_crypto_aes_cbc_encrypt+0x48>)
   1ec7e:	e9cd 4401 	strd	r4, r4, [sp, #4]
   1ec82:	4c07      	ldr	r4, [pc, #28]	; (1eca0 <rtl_crypto_aes_cbc_encrypt+0x4c>)
   1ec84:	47a0      	blx	r4
   1ec86:	b007      	add	sp, #28
   1ec88:	bd30      	pop	{r4, r5, pc}
   1ec8a:	f06f 0008 	mvn.w	r0, #8
   1ec8e:	e7fa      	b.n	1ec86 <rtl_crypto_aes_cbc_encrypt+0x32>
   1ec90:	f06f 0003 	mvn.w	r0, #3
   1ec94:	e7f7      	b.n	1ec86 <rtl_crypto_aes_cbc_encrypt+0x32>
   1ec96:	f06f 0005 	mvn.w	r0, #5
   1ec9a:	e7f4      	b.n	1ec86 <rtl_crypto_aes_cbc_encrypt+0x32>
   1ec9c:	20004200 	.word	0x20004200
   1eca0:	00020b91 	.word	0x00020b91

0001eca4 <rtl_crypto_aes_cbc_decrypt>:
   1eca4:	b530      	push	{r4, r5, lr}
   1eca6:	b087      	sub	sp, #28
   1eca8:	461d      	mov	r5, r3
   1ecaa:	9b0a      	ldr	r3, [sp, #40]	; 0x28
   1ecac:	b1c2      	cbz	r2, 1ece0 <rtl_crypto_aes_cbc_decrypt+0x3c>
   1ecae:	0794      	lsls	r4, r2, #30
   1ecb0:	d119      	bne.n	1ece6 <rtl_crypto_aes_cbc_decrypt+0x42>
   1ecb2:	2d10      	cmp	r5, #16
   1ecb4:	d111      	bne.n	1ecda <rtl_crypto_aes_cbc_decrypt+0x36>
   1ecb6:	b198      	cbz	r0, 1ece0 <rtl_crypto_aes_cbc_decrypt+0x3c>
   1ecb8:	fab3 f483 	clz	r4, r3
   1ecbc:	0964      	lsrs	r4, r4, #5
   1ecbe:	b17b      	cbz	r3, 1ece0 <rtl_crypto_aes_cbc_decrypt+0x3c>
   1ecc0:	9303      	str	r3, [sp, #12]
   1ecc2:	4613      	mov	r3, r2
   1ecc4:	9404      	str	r4, [sp, #16]
   1ecc6:	460a      	mov	r2, r1
   1ecc8:	9500      	str	r5, [sp, #0]
   1ecca:	4601      	mov	r1, r0
   1eccc:	4807      	ldr	r0, [pc, #28]	; (1ecec <rtl_crypto_aes_cbc_decrypt+0x48>)
   1ecce:	e9cd 4401 	strd	r4, r4, [sp, #4]
   1ecd2:	4c07      	ldr	r4, [pc, #28]	; (1ecf0 <rtl_crypto_aes_cbc_decrypt+0x4c>)
   1ecd4:	47a0      	blx	r4
   1ecd6:	b007      	add	sp, #28
   1ecd8:	bd30      	pop	{r4, r5, pc}
   1ecda:	f06f 0008 	mvn.w	r0, #8
   1ecde:	e7fa      	b.n	1ecd6 <rtl_crypto_aes_cbc_decrypt+0x32>
   1ece0:	f06f 0003 	mvn.w	r0, #3
   1ece4:	e7f7      	b.n	1ecd6 <rtl_crypto_aes_cbc_decrypt+0x32>
   1ece6:	f06f 0005 	mvn.w	r0, #5
   1ecea:	e7f4      	b.n	1ecd6 <rtl_crypto_aes_cbc_decrypt+0x32>
   1ecec:	20004200 	.word	0x20004200
   1ecf0:	00020bc5 	.word	0x00020bc5

0001ecf4 <rtl_crypto_aes_ecb_init>:
   1ecf4:	4b11      	ldr	r3, [pc, #68]	; (1ed3c <rtl_crypto_aes_ecb_init+0x48>)
   1ecf6:	b570      	push	{r4, r5, r6, lr}
   1ecf8:	781b      	ldrb	r3, [r3, #0]
   1ecfa:	4604      	mov	r4, r0
   1ecfc:	460d      	mov	r5, r1
   1ecfe:	2b01      	cmp	r3, #1
   1ed00:	d10d      	bne.n	1ed1e <rtl_crypto_aes_ecb_init+0x2a>
   1ed02:	b1bc      	cbz	r4, 1ed34 <rtl_crypto_aes_ecb_init+0x40>
   1ed04:	07a3      	lsls	r3, r4, #30
   1ed06:	d112      	bne.n	1ed2e <rtl_crypto_aes_ecb_init+0x3a>
   1ed08:	2d20      	cmp	r5, #32
   1ed0a:	d80d      	bhi.n	1ed28 <rtl_crypto_aes_ecb_init+0x34>
   1ed0c:	4622      	mov	r2, r4
   1ed0e:	4c0c      	ldr	r4, [pc, #48]	; (1ed40 <rtl_crypto_aes_ecb_init+0x4c>)
   1ed10:	462b      	mov	r3, r5
   1ed12:	2120      	movs	r1, #32
   1ed14:	46a4      	mov	ip, r4
   1ed16:	4809      	ldr	r0, [pc, #36]	; (1ed3c <rtl_crypto_aes_ecb_init+0x48>)
   1ed18:	e8bd 4070 	ldmia.w	sp!, {r4, r5, r6, lr}
   1ed1c:	4760      	bx	ip
   1ed1e:	218b      	movs	r1, #139	; 0x8b
   1ed20:	4808      	ldr	r0, [pc, #32]	; (1ed44 <rtl_crypto_aes_ecb_init+0x50>)
   1ed22:	f000 fa49 	bl	1f1b8 <io_assert_failed>
   1ed26:	e7ec      	b.n	1ed02 <rtl_crypto_aes_ecb_init+0xe>
   1ed28:	f06f 0006 	mvn.w	r0, #6
   1ed2c:	bd70      	pop	{r4, r5, r6, pc}
   1ed2e:	f06f 0005 	mvn.w	r0, #5
   1ed32:	bd70      	pop	{r4, r5, r6, pc}
   1ed34:	f06f 0003 	mvn.w	r0, #3
   1ed38:	bd70      	pop	{r4, r5, r6, pc}
   1ed3a:	bf00      	nop
   1ed3c:	20004200 	.word	0x20004200
   1ed40:	00020b71 	.word	0x00020b71
   1ed44:	00043280 	.word	0x00043280

0001ed48 <rtl_crypto_aes_ecb_encrypt>:
   1ed48:	b570      	push	{r4, r5, r6, lr}
   1ed4a:	b086      	sub	sp, #24
   1ed4c:	9e0a      	ldr	r6, [sp, #40]	; 0x28
   1ed4e:	b188      	cbz	r0, 1ed74 <rtl_crypto_aes_ecb_encrypt+0x2c>
   1ed50:	fab6 f486 	clz	r4, r6
   1ed54:	0964      	lsrs	r4, r4, #5
   1ed56:	b16e      	cbz	r6, 1ed74 <rtl_crypto_aes_ecb_encrypt+0x2c>
   1ed58:	461d      	mov	r5, r3
   1ed5a:	9404      	str	r4, [sp, #16]
   1ed5c:	4613      	mov	r3, r2
   1ed5e:	9603      	str	r6, [sp, #12]
   1ed60:	460a      	mov	r2, r1
   1ed62:	9500      	str	r5, [sp, #0]
   1ed64:	4601      	mov	r1, r0
   1ed66:	4805      	ldr	r0, [pc, #20]	; (1ed7c <rtl_crypto_aes_ecb_encrypt+0x34>)
   1ed68:	e9cd 4401 	strd	r4, r4, [sp, #4]
   1ed6c:	4c04      	ldr	r4, [pc, #16]	; (1ed80 <rtl_crypto_aes_ecb_encrypt+0x38>)
   1ed6e:	47a0      	blx	r4
   1ed70:	b006      	add	sp, #24
   1ed72:	bd70      	pop	{r4, r5, r6, pc}
   1ed74:	f06f 0003 	mvn.w	r0, #3
   1ed78:	e7fa      	b.n	1ed70 <rtl_crypto_aes_ecb_encrypt+0x28>
   1ed7a:	bf00      	nop
   1ed7c:	20004200 	.word	0x20004200
   1ed80:	00020b91 	.word	0x00020b91

0001ed84 <rtl_crypto_aes_ecb_decrypt>:
   1ed84:	b570      	push	{r4, r5, r6, lr}
   1ed86:	b086      	sub	sp, #24
   1ed88:	9e0a      	ldr	r6, [sp, #40]	; 0x28
   1ed8a:	b188      	cbz	r0, 1edb0 <rtl_crypto_aes_ecb_decrypt+0x2c>
   1ed8c:	fab6 f486 	clz	r4, r6
   1ed90:	0964      	lsrs	r4, r4, #5
   1ed92:	b16e      	cbz	r6, 1edb0 <rtl_crypto_aes_ecb_decrypt+0x2c>
   1ed94:	461d      	mov	r5, r3
   1ed96:	9404      	str	r4, [sp, #16]
   1ed98:	4613      	mov	r3, r2
   1ed9a:	9603      	str	r6, [sp, #12]
   1ed9c:	460a      	mov	r2, r1
   1ed9e:	9500      	str	r5, [sp, #0]
   1eda0:	4601      	mov	r1, r0
   1eda2:	4805      	ldr	r0, [pc, #20]	; (1edb8 <rtl_crypto_aes_ecb_decrypt+0x34>)
   1eda4:	e9cd 4401 	strd	r4, r4, [sp, #4]
   1eda8:	4c04      	ldr	r4, [pc, #16]	; (1edbc <rtl_crypto_aes_ecb_decrypt+0x38>)
   1edaa:	47a0      	blx	r4
   1edac:	b006      	add	sp, #24
   1edae:	bd70      	pop	{r4, r5, r6, pc}
   1edb0:	f06f 0003 	mvn.w	r0, #3
   1edb4:	e7fa      	b.n	1edac <rtl_crypto_aes_ecb_decrypt+0x28>
   1edb6:	bf00      	nop
   1edb8:	20004200 	.word	0x20004200
   1edbc:	00020bc5 	.word	0x00020bc5

0001edc0 <rtl_crypto_aes_ctr_init>:
   1edc0:	4b11      	ldr	r3, [pc, #68]	; (1ee08 <rtl_crypto_aes_ctr_init+0x48>)
   1edc2:	b570      	push	{r4, r5, r6, lr}
   1edc4:	781b      	ldrb	r3, [r3, #0]
   1edc6:	4604      	mov	r4, r0
   1edc8:	460d      	mov	r5, r1
   1edca:	2b01      	cmp	r3, #1
   1edcc:	d10d      	bne.n	1edea <rtl_crypto_aes_ctr_init+0x2a>
   1edce:	b1bc      	cbz	r4, 1ee00 <rtl_crypto_aes_ctr_init+0x40>
   1edd0:	07a3      	lsls	r3, r4, #30
   1edd2:	d112      	bne.n	1edfa <rtl_crypto_aes_ctr_init+0x3a>
   1edd4:	2d20      	cmp	r5, #32
   1edd6:	d80d      	bhi.n	1edf4 <rtl_crypto_aes_ctr_init+0x34>
   1edd8:	4622      	mov	r2, r4
   1edda:	4c0c      	ldr	r4, [pc, #48]	; (1ee0c <rtl_crypto_aes_ctr_init+0x4c>)
   1eddc:	462b      	mov	r3, r5
   1edde:	2124      	movs	r1, #36	; 0x24
   1ede0:	46a4      	mov	ip, r4
   1ede2:	4809      	ldr	r0, [pc, #36]	; (1ee08 <rtl_crypto_aes_ctr_init+0x48>)
   1ede4:	e8bd 4070 	ldmia.w	sp!, {r4, r5, r6, lr}
   1ede8:	4760      	bx	ip
   1edea:	21de      	movs	r1, #222	; 0xde
   1edec:	4808      	ldr	r0, [pc, #32]	; (1ee10 <rtl_crypto_aes_ctr_init+0x50>)
   1edee:	f000 f9e3 	bl	1f1b8 <io_assert_failed>
   1edf2:	e7ec      	b.n	1edce <rtl_crypto_aes_ctr_init+0xe>
   1edf4:	f06f 0006 	mvn.w	r0, #6
   1edf8:	bd70      	pop	{r4, r5, r6, pc}
   1edfa:	f06f 0005 	mvn.w	r0, #5
   1edfe:	bd70      	pop	{r4, r5, r6, pc}
   1ee00:	f06f 0003 	mvn.w	r0, #3
   1ee04:	bd70      	pop	{r4, r5, r6, pc}
   1ee06:	bf00      	nop
   1ee08:	20004200 	.word	0x20004200
   1ee0c:	00020b71 	.word	0x00020b71
   1ee10:	00043298 	.word	0x00043298

0001ee14 <rtl_crypto_aes_ctr_encrypt>:
   1ee14:	b530      	push	{r4, r5, lr}
   1ee16:	b087      	sub	sp, #28
   1ee18:	461d      	mov	r5, r3
   1ee1a:	9b0a      	ldr	r3, [sp, #40]	; 0x28
   1ee1c:	b19a      	cbz	r2, 1ee46 <rtl_crypto_aes_ctr_encrypt+0x32>
   1ee1e:	0794      	lsls	r4, r2, #30
   1ee20:	d114      	bne.n	1ee4c <rtl_crypto_aes_ctr_encrypt+0x38>
   1ee22:	b180      	cbz	r0, 1ee46 <rtl_crypto_aes_ctr_encrypt+0x32>
   1ee24:	fab3 f483 	clz	r4, r3
   1ee28:	0964      	lsrs	r4, r4, #5
   1ee2a:	b163      	cbz	r3, 1ee46 <rtl_crypto_aes_ctr_encrypt+0x32>
   1ee2c:	9303      	str	r3, [sp, #12]
   1ee2e:	4613      	mov	r3, r2
   1ee30:	9404      	str	r4, [sp, #16]
   1ee32:	460a      	mov	r2, r1
   1ee34:	9500      	str	r5, [sp, #0]
   1ee36:	4601      	mov	r1, r0
   1ee38:	4806      	ldr	r0, [pc, #24]	; (1ee54 <rtl_crypto_aes_ctr_encrypt+0x40>)
   1ee3a:	e9cd 4401 	strd	r4, r4, [sp, #4]
   1ee3e:	4c06      	ldr	r4, [pc, #24]	; (1ee58 <rtl_crypto_aes_ctr_encrypt+0x44>)
   1ee40:	47a0      	blx	r4
   1ee42:	b007      	add	sp, #28
   1ee44:	bd30      	pop	{r4, r5, pc}
   1ee46:	f06f 0003 	mvn.w	r0, #3
   1ee4a:	e7fa      	b.n	1ee42 <rtl_crypto_aes_ctr_encrypt+0x2e>
   1ee4c:	f06f 0005 	mvn.w	r0, #5
   1ee50:	e7f7      	b.n	1ee42 <rtl_crypto_aes_ctr_encrypt+0x2e>
   1ee52:	bf00      	nop
   1ee54:	20004200 	.word	0x20004200
   1ee58:	00020b91 	.word	0x00020b91

0001ee5c <rtl_crypto_aes_ctr_decrypt>:
   1ee5c:	b530      	push	{r4, r5, lr}
   1ee5e:	b087      	sub	sp, #28
   1ee60:	461d      	mov	r5, r3
   1ee62:	9b0a      	ldr	r3, [sp, #40]	; 0x28
   1ee64:	b19a      	cbz	r2, 1ee8e <rtl_crypto_aes_ctr_decrypt+0x32>
   1ee66:	0794      	lsls	r4, r2, #30
   1ee68:	d114      	bne.n	1ee94 <rtl_crypto_aes_ctr_decrypt+0x38>
   1ee6a:	b180      	cbz	r0, 1ee8e <rtl_crypto_aes_ctr_decrypt+0x32>
   1ee6c:	fab3 f483 	clz	r4, r3
   1ee70:	0964      	lsrs	r4, r4, #5
   1ee72:	b163      	cbz	r3, 1ee8e <rtl_crypto_aes_ctr_decrypt+0x32>
   1ee74:	9303      	str	r3, [sp, #12]
   1ee76:	4613      	mov	r3, r2
   1ee78:	9404      	str	r4, [sp, #16]
   1ee7a:	460a      	mov	r2, r1
   1ee7c:	9500      	str	r5, [sp, #0]
   1ee7e:	4601      	mov	r1, r0
   1ee80:	4806      	ldr	r0, [pc, #24]	; (1ee9c <rtl_crypto_aes_ctr_decrypt+0x40>)
   1ee82:	e9cd 4401 	strd	r4, r4, [sp, #4]
   1ee86:	4c06      	ldr	r4, [pc, #24]	; (1eea0 <rtl_crypto_aes_ctr_decrypt+0x44>)
   1ee88:	47a0      	blx	r4
   1ee8a:	b007      	add	sp, #28
   1ee8c:	bd30      	pop	{r4, r5, pc}
   1ee8e:	f06f 0003 	mvn.w	r0, #3
   1ee92:	e7fa      	b.n	1ee8a <rtl_crypto_aes_ctr_decrypt+0x2e>
   1ee94:	f06f 0005 	mvn.w	r0, #5
   1ee98:	e7f7      	b.n	1ee8a <rtl_crypto_aes_ctr_decrypt+0x2e>
   1ee9a:	bf00      	nop
   1ee9c:	20004200 	.word	0x20004200
   1eea0:	00020bc5 	.word	0x00020bc5

0001eea4 <rtl_crypto_aes_cfb_init>:
   1eea4:	4b11      	ldr	r3, [pc, #68]	; (1eeec <rtl_crypto_aes_cfb_init+0x48>)
   1eea6:	b570      	push	{r4, r5, r6, lr}
   1eea8:	781b      	ldrb	r3, [r3, #0]
   1eeaa:	4604      	mov	r4, r0
   1eeac:	460d      	mov	r5, r1
   1eeae:	2b01      	cmp	r3, #1
   1eeb0:	d10d      	bne.n	1eece <rtl_crypto_aes_cfb_init+0x2a>
   1eeb2:	b1c4      	cbz	r4, 1eee6 <rtl_crypto_aes_cfb_init+0x42>
   1eeb4:	07a3      	lsls	r3, r4, #30
   1eeb6:	d113      	bne.n	1eee0 <rtl_crypto_aes_cfb_init+0x3c>
   1eeb8:	2d20      	cmp	r5, #32
   1eeba:	d80e      	bhi.n	1eeda <rtl_crypto_aes_cfb_init+0x36>
   1eebc:	4622      	mov	r2, r4
   1eebe:	4c0c      	ldr	r4, [pc, #48]	; (1eef0 <rtl_crypto_aes_cfb_init+0x4c>)
   1eec0:	462b      	mov	r3, r5
   1eec2:	2122      	movs	r1, #34	; 0x22
   1eec4:	46a4      	mov	ip, r4
   1eec6:	4809      	ldr	r0, [pc, #36]	; (1eeec <rtl_crypto_aes_cfb_init+0x48>)
   1eec8:	e8bd 4070 	ldmia.w	sp!, {r4, r5, r6, lr}
   1eecc:	4760      	bx	ip
   1eece:	f44f 719e 	mov.w	r1, #316	; 0x13c
   1eed2:	4808      	ldr	r0, [pc, #32]	; (1eef4 <rtl_crypto_aes_cfb_init+0x50>)
   1eed4:	f000 f970 	bl	1f1b8 <io_assert_failed>
   1eed8:	e7eb      	b.n	1eeb2 <rtl_crypto_aes_cfb_init+0xe>
   1eeda:	f06f 0006 	mvn.w	r0, #6
   1eede:	bd70      	pop	{r4, r5, r6, pc}
   1eee0:	f06f 0005 	mvn.w	r0, #5
   1eee4:	bd70      	pop	{r4, r5, r6, pc}
   1eee6:	f06f 0003 	mvn.w	r0, #3
   1eeea:	bd70      	pop	{r4, r5, r6, pc}
   1eeec:	20004200 	.word	0x20004200
   1eef0:	00020b71 	.word	0x00020b71
   1eef4:	000432b0 	.word	0x000432b0

0001eef8 <rtl_crypto_aes_cfb_encrypt>:
   1eef8:	b530      	push	{r4, r5, lr}
   1eefa:	b087      	sub	sp, #28
   1eefc:	461d      	mov	r5, r3
   1eefe:	9b0a      	ldr	r3, [sp, #40]	; 0x28
   1ef00:	b19a      	cbz	r2, 1ef2a <rtl_crypto_aes_cfb_encrypt+0x32>
   1ef02:	0794      	lsls	r4, r2, #30
   1ef04:	d114      	bne.n	1ef30 <rtl_crypto_aes_cfb_encrypt+0x38>
   1ef06:	b180      	cbz	r0, 1ef2a <rtl_crypto_aes_cfb_encrypt+0x32>
   1ef08:	fab3 f483 	clz	r4, r3
   1ef0c:	0964      	lsrs	r4, r4, #5
   1ef0e:	b163      	cbz	r3, 1ef2a <rtl_crypto_aes_cfb_encrypt+0x32>
   1ef10:	9303      	str	r3, [sp, #12]
   1ef12:	4613      	mov	r3, r2
   1ef14:	9404      	str	r4, [sp, #16]
   1ef16:	460a      	mov	r2, r1
   1ef18:	9500      	str	r5, [sp, #0]
   1ef1a:	4601      	mov	r1, r0
   1ef1c:	4806      	ldr	r0, [pc, #24]	; (1ef38 <rtl_crypto_aes_cfb_encrypt+0x40>)
   1ef1e:	e9cd 4401 	strd	r4, r4, [sp, #4]
   1ef22:	4c06      	ldr	r4, [pc, #24]	; (1ef3c <rtl_crypto_aes_cfb_encrypt+0x44>)
   1ef24:	47a0      	blx	r4
   1ef26:	b007      	add	sp, #28
   1ef28:	bd30      	pop	{r4, r5, pc}
   1ef2a:	f06f 0003 	mvn.w	r0, #3
   1ef2e:	e7fa      	b.n	1ef26 <rtl_crypto_aes_cfb_encrypt+0x2e>
   1ef30:	f06f 0005 	mvn.w	r0, #5
   1ef34:	e7f7      	b.n	1ef26 <rtl_crypto_aes_cfb_encrypt+0x2e>
   1ef36:	bf00      	nop
   1ef38:	20004200 	.word	0x20004200
   1ef3c:	00020b91 	.word	0x00020b91

0001ef40 <rtl_crypto_aes_cfb_decrypt>:
   1ef40:	b530      	push	{r4, r5, lr}
   1ef42:	b087      	sub	sp, #28
   1ef44:	461d      	mov	r5, r3
   1ef46:	9b0a      	ldr	r3, [sp, #40]	; 0x28
   1ef48:	b19a      	cbz	r2, 1ef72 <rtl_crypto_aes_cfb_decrypt+0x32>
   1ef4a:	0794      	lsls	r4, r2, #30
   1ef4c:	d114      	bne.n	1ef78 <rtl_crypto_aes_cfb_decrypt+0x38>
   1ef4e:	b180      	cbz	r0, 1ef72 <rtl_crypto_aes_cfb_decrypt+0x32>
   1ef50:	fab3 f483 	clz	r4, r3
   1ef54:	0964      	lsrs	r4, r4, #5
   1ef56:	b163      	cbz	r3, 1ef72 <rtl_crypto_aes_cfb_decrypt+0x32>
   1ef58:	9303      	str	r3, [sp, #12]
   1ef5a:	4613      	mov	r3, r2
   1ef5c:	9404      	str	r4, [sp, #16]
   1ef5e:	460a      	mov	r2, r1
   1ef60:	9500      	str	r5, [sp, #0]
   1ef62:	4601      	mov	r1, r0
   1ef64:	4806      	ldr	r0, [pc, #24]	; (1ef80 <rtl_crypto_aes_cfb_decrypt+0x40>)
   1ef66:	e9cd 4401 	strd	r4, r4, [sp, #4]
   1ef6a:	4c06      	ldr	r4, [pc, #24]	; (1ef84 <rtl_crypto_aes_cfb_decrypt+0x44>)
   1ef6c:	47a0      	blx	r4
   1ef6e:	b007      	add	sp, #28
   1ef70:	bd30      	pop	{r4, r5, pc}
   1ef72:	f06f 0003 	mvn.w	r0, #3
   1ef76:	e7fa      	b.n	1ef6e <rtl_crypto_aes_cfb_decrypt+0x2e>
   1ef78:	f06f 0005 	mvn.w	r0, #5
   1ef7c:	e7f7      	b.n	1ef6e <rtl_crypto_aes_cfb_decrypt+0x2e>
   1ef7e:	bf00      	nop
   1ef80:	20004200 	.word	0x20004200
   1ef84:	00020bc5 	.word	0x00020bc5

0001ef88 <rtl_crypto_aes_ofb_init>:
   1ef88:	4b11      	ldr	r3, [pc, #68]	; (1efd0 <rtl_crypto_aes_ofb_init+0x48>)
   1ef8a:	b570      	push	{r4, r5, r6, lr}
   1ef8c:	781b      	ldrb	r3, [r3, #0]
   1ef8e:	4604      	mov	r4, r0
   1ef90:	460d      	mov	r5, r1
   1ef92:	2b01      	cmp	r3, #1
   1ef94:	d10d      	bne.n	1efb2 <rtl_crypto_aes_ofb_init+0x2a>
   1ef96:	b1c4      	cbz	r4, 1efca <rtl_crypto_aes_ofb_init+0x42>
   1ef98:	07a3      	lsls	r3, r4, #30
   1ef9a:	d113      	bne.n	1efc4 <rtl_crypto_aes_ofb_init+0x3c>
   1ef9c:	2d20      	cmp	r5, #32
   1ef9e:	d80e      	bhi.n	1efbe <rtl_crypto_aes_ofb_init+0x36>
   1efa0:	4622      	mov	r2, r4
   1efa2:	4c0c      	ldr	r4, [pc, #48]	; (1efd4 <rtl_crypto_aes_ofb_init+0x4c>)
   1efa4:	462b      	mov	r3, r5
   1efa6:	2123      	movs	r1, #35	; 0x23
   1efa8:	46a4      	mov	ip, r4
   1efaa:	4809      	ldr	r0, [pc, #36]	; (1efd0 <rtl_crypto_aes_ofb_init+0x48>)
   1efac:	e8bd 4070 	ldmia.w	sp!, {r4, r5, r6, lr}
   1efb0:	4760      	bx	ip
   1efb2:	f44f 71cd 	mov.w	r1, #410	; 0x19a
   1efb6:	4808      	ldr	r0, [pc, #32]	; (1efd8 <rtl_crypto_aes_ofb_init+0x50>)
   1efb8:	f000 f8fe 	bl	1f1b8 <io_assert_failed>
   1efbc:	e7eb      	b.n	1ef96 <rtl_crypto_aes_ofb_init+0xe>
   1efbe:	f06f 0006 	mvn.w	r0, #6
   1efc2:	bd70      	pop	{r4, r5, r6, pc}
   1efc4:	f06f 0005 	mvn.w	r0, #5
   1efc8:	bd70      	pop	{r4, r5, r6, pc}
   1efca:	f06f 0003 	mvn.w	r0, #3
   1efce:	bd70      	pop	{r4, r5, r6, pc}
   1efd0:	20004200 	.word	0x20004200
   1efd4:	00020b71 	.word	0x00020b71
   1efd8:	000432c8 	.word	0x000432c8

0001efdc <rtl_crypto_aes_ofb_encrypt>:
   1efdc:	b530      	push	{r4, r5, lr}
   1efde:	b087      	sub	sp, #28
   1efe0:	461d      	mov	r5, r3
   1efe2:	9b0a      	ldr	r3, [sp, #40]	; 0x28
   1efe4:	b19a      	cbz	r2, 1f00e <rtl_crypto_aes_ofb_encrypt+0x32>
   1efe6:	0794      	lsls	r4, r2, #30
   1efe8:	d114      	bne.n	1f014 <rtl_crypto_aes_ofb_encrypt+0x38>
   1efea:	b180      	cbz	r0, 1f00e <rtl_crypto_aes_ofb_encrypt+0x32>
   1efec:	fab3 f483 	clz	r4, r3
   1eff0:	0964      	lsrs	r4, r4, #5
   1eff2:	b163      	cbz	r3, 1f00e <rtl_crypto_aes_ofb_encrypt+0x32>
   1eff4:	9303      	str	r3, [sp, #12]
   1eff6:	4613      	mov	r3, r2
   1eff8:	9404      	str	r4, [sp, #16]
   1effa:	460a      	mov	r2, r1
   1effc:	9500      	str	r5, [sp, #0]
   1effe:	4601      	mov	r1, r0
   1f000:	4806      	ldr	r0, [pc, #24]	; (1f01c <rtl_crypto_aes_ofb_encrypt+0x40>)
   1f002:	e9cd 4401 	strd	r4, r4, [sp, #4]
   1f006:	4c06      	ldr	r4, [pc, #24]	; (1f020 <rtl_crypto_aes_ofb_encrypt+0x44>)
   1f008:	47a0      	blx	r4
   1f00a:	b007      	add	sp, #28
   1f00c:	bd30      	pop	{r4, r5, pc}
   1f00e:	f06f 0003 	mvn.w	r0, #3
   1f012:	e7fa      	b.n	1f00a <rtl_crypto_aes_ofb_encrypt+0x2e>
   1f014:	f06f 0005 	mvn.w	r0, #5
   1f018:	e7f7      	b.n	1f00a <rtl_crypto_aes_ofb_encrypt+0x2e>
   1f01a:	bf00      	nop
   1f01c:	20004200 	.word	0x20004200
   1f020:	00020b91 	.word	0x00020b91

0001f024 <rtl_crypto_aes_ofb_decrypt>:
   1f024:	b530      	push	{r4, r5, lr}
   1f026:	b087      	sub	sp, #28
   1f028:	461d      	mov	r5, r3
   1f02a:	9b0a      	ldr	r3, [sp, #40]	; 0x28
   1f02c:	b19a      	cbz	r2, 1f056 <rtl_crypto_aes_ofb_decrypt+0x32>
   1f02e:	0794      	lsls	r4, r2, #30
   1f030:	d114      	bne.n	1f05c <rtl_crypto_aes_ofb_decrypt+0x38>
   1f032:	b180      	cbz	r0, 1f056 <rtl_crypto_aes_ofb_decrypt+0x32>
   1f034:	fab3 f483 	clz	r4, r3
   1f038:	0964      	lsrs	r4, r4, #5
   1f03a:	b163      	cbz	r3, 1f056 <rtl_crypto_aes_ofb_decrypt+0x32>
   1f03c:	9303      	str	r3, [sp, #12]
   1f03e:	4613      	mov	r3, r2
   1f040:	9404      	str	r4, [sp, #16]
   1f042:	460a      	mov	r2, r1
   1f044:	9500      	str	r5, [sp, #0]
   1f046:	4601      	mov	r1, r0
   1f048:	4806      	ldr	r0, [pc, #24]	; (1f064 <rtl_crypto_aes_ofb_decrypt+0x40>)
   1f04a:	e9cd 4401 	strd	r4, r4, [sp, #4]
   1f04e:	4c06      	ldr	r4, [pc, #24]	; (1f068 <rtl_crypto_aes_ofb_decrypt+0x44>)
   1f050:	47a0      	blx	r4
   1f052:	b007      	add	sp, #28
   1f054:	bd30      	pop	{r4, r5, pc}
   1f056:	f06f 0003 	mvn.w	r0, #3
   1f05a:	e7fa      	b.n	1f052 <rtl_crypto_aes_ofb_decrypt+0x2e>
   1f05c:	f06f 0005 	mvn.w	r0, #5
   1f060:	e7f7      	b.n	1f052 <rtl_crypto_aes_ofb_decrypt+0x2e>
   1f062:	bf00      	nop
   1f064:	20004200 	.word	0x20004200
   1f068:	00020bc5 	.word	0x00020bc5

0001f06c <rtl_crypto_aes_gcm_init>:
   1f06c:	4b11      	ldr	r3, [pc, #68]	; (1f0b4 <rtl_crypto_aes_gcm_init+0x48>)
   1f06e:	b570      	push	{r4, r5, r6, lr}
   1f070:	781b      	ldrb	r3, [r3, #0]
   1f072:	4604      	mov	r4, r0
   1f074:	460d      	mov	r5, r1
   1f076:	2b01      	cmp	r3, #1
   1f078:	d10d      	bne.n	1f096 <rtl_crypto_aes_gcm_init+0x2a>
   1f07a:	b1c4      	cbz	r4, 1f0ae <rtl_crypto_aes_gcm_init+0x42>
   1f07c:	07a3      	lsls	r3, r4, #30
   1f07e:	d113      	bne.n	1f0a8 <rtl_crypto_aes_gcm_init+0x3c>
   1f080:	2d20      	cmp	r5, #32
   1f082:	d80e      	bhi.n	1f0a2 <rtl_crypto_aes_gcm_init+0x36>
   1f084:	4622      	mov	r2, r4
   1f086:	4c0c      	ldr	r4, [pc, #48]	; (1f0b8 <rtl_crypto_aes_gcm_init+0x4c>)
   1f088:	462b      	mov	r3, r5
   1f08a:	2128      	movs	r1, #40	; 0x28
   1f08c:	46a4      	mov	ip, r4
   1f08e:	4809      	ldr	r0, [pc, #36]	; (1f0b4 <rtl_crypto_aes_gcm_init+0x48>)
   1f090:	e8bd 4070 	ldmia.w	sp!, {r4, r5, r6, lr}
   1f094:	4760      	bx	ip
   1f096:	f44f 71fc 	mov.w	r1, #504	; 0x1f8
   1f09a:	4808      	ldr	r0, [pc, #32]	; (1f0bc <rtl_crypto_aes_gcm_init+0x50>)
   1f09c:	f000 f88c 	bl	1f1b8 <io_assert_failed>
   1f0a0:	e7eb      	b.n	1f07a <rtl_crypto_aes_gcm_init+0xe>
   1f0a2:	f06f 0006 	mvn.w	r0, #6
   1f0a6:	bd70      	pop	{r4, r5, r6, pc}
   1f0a8:	f06f 0005 	mvn.w	r0, #5
   1f0ac:	bd70      	pop	{r4, r5, r6, pc}
   1f0ae:	f06f 0003 	mvn.w	r0, #3
   1f0b2:	bd70      	pop	{r4, r5, r6, pc}
   1f0b4:	20004200 	.word	0x20004200
   1f0b8:	00020b71 	.word	0x00020b71
   1f0bc:	000432e0 	.word	0x000432e0

0001f0c0 <rtl_crypto_aes_gcm_encrypt>:
   1f0c0:	e92d 43f0 	stmdb	sp!, {r4, r5, r6, r7, r8, r9, lr}
   1f0c4:	b087      	sub	sp, #28
   1f0c6:	e9dd 970f 	ldrd	r9, r7, [sp, #60]	; 0x3c
   1f0ca:	b33a      	cbz	r2, 1f11c <rtl_crypto_aes_gcm_encrypt+0x5c>
   1f0cc:	460e      	mov	r6, r1
   1f0ce:	4611      	mov	r1, r2
   1f0d0:	078a      	lsls	r2, r1, #30
   1f0d2:	d126      	bne.n	1f122 <rtl_crypto_aes_gcm_encrypt+0x62>
   1f0d4:	4604      	mov	r4, r0
   1f0d6:	b308      	cbz	r0, 1f11c <rtl_crypto_aes_gcm_encrypt+0x5c>
   1f0d8:	461d      	mov	r5, r3
   1f0da:	07ab      	lsls	r3, r5, #30
   1f0dc:	d121      	bne.n	1f122 <rtl_crypto_aes_gcm_encrypt+0x62>
   1f0de:	f1b9 0f00 	cmp.w	r9, #0
   1f0e2:	d01b      	beq.n	1f11c <rtl_crypto_aes_gcm_encrypt+0x5c>
   1f0e4:	b1d7      	cbz	r7, 1f11c <rtl_crypto_aes_gcm_encrypt+0x5c>
   1f0e6:	220c      	movs	r2, #12
   1f0e8:	f8df 804c 	ldr.w	r8, [pc, #76]	; 1f138 <rtl_crypto_aes_gcm_encrypt+0x78>
   1f0ec:	480e      	ldr	r0, [pc, #56]	; (1f128 <rtl_crypto_aes_gcm_encrypt+0x68>)
   1f0ee:	47c0      	blx	r8
   1f0f0:	2204      	movs	r2, #4
   1f0f2:	490e      	ldr	r1, [pc, #56]	; (1f12c <rtl_crypto_aes_gcm_encrypt+0x6c>)
   1f0f4:	480e      	ldr	r0, [pc, #56]	; (1f130 <rtl_crypto_aes_gcm_encrypt+0x70>)
   1f0f6:	47c0      	blx	r8
   1f0f8:	2010      	movs	r0, #16
   1f0fa:	4b0b      	ldr	r3, [pc, #44]	; (1f128 <rtl_crypto_aes_gcm_encrypt+0x68>)
   1f0fc:	4621      	mov	r1, r4
   1f0fe:	9000      	str	r0, [sp, #0]
   1f100:	4632      	mov	r2, r6
   1f102:	980e      	ldr	r0, [sp, #56]	; 0x38
   1f104:	4c0b      	ldr	r4, [pc, #44]	; (1f134 <rtl_crypto_aes_gcm_encrypt+0x74>)
   1f106:	9704      	str	r7, [sp, #16]
   1f108:	f8cd 900c 	str.w	r9, [sp, #12]
   1f10c:	e9cd 5001 	strd	r5, r0, [sp, #4]
   1f110:	f5a3 70b4 	sub.w	r0, r3, #360	; 0x168
   1f114:	47a0      	blx	r4
   1f116:	b007      	add	sp, #28
   1f118:	e8bd 83f0 	ldmia.w	sp!, {r4, r5, r6, r7, r8, r9, pc}
   1f11c:	f06f 0003 	mvn.w	r0, #3
   1f120:	e7f9      	b.n	1f116 <rtl_crypto_aes_gcm_encrypt+0x56>
   1f122:	f06f 0005 	mvn.w	r0, #5
   1f126:	e7f6      	b.n	1f116 <rtl_crypto_aes_gcm_encrypt+0x56>
   1f128:	20004368 	.word	0x20004368
   1f12c:	00042020 	.word	0x00042020
   1f130:	20004374 	.word	0x20004374
   1f134:	00020b91 	.word	0x00020b91
   1f138:	000270e1 	.word	0x000270e1

0001f13c <rtl_crypto_aes_gcm_decrypt>:
   1f13c:	e92d 43f0 	stmdb	sp!, {r4, r5, r6, r7, r8, r9, lr}
   1f140:	b087      	sub	sp, #28
   1f142:	e9dd 970f 	ldrd	r9, r7, [sp, #60]	; 0x3c
   1f146:	b33a      	cbz	r2, 1f198 <rtl_crypto_aes_gcm_decrypt+0x5c>
   1f148:	460e      	mov	r6, r1
   1f14a:	4611      	mov	r1, r2
   1f14c:	078a      	lsls	r2, r1, #30
   1f14e:	d126      	bne.n	1f19e <rtl_crypto_aes_gcm_decrypt+0x62>
   1f150:	4604      	mov	r4, r0
   1f152:	b308      	cbz	r0, 1f198 <rtl_crypto_aes_gcm_decrypt+0x5c>
   1f154:	461d      	mov	r5, r3
   1f156:	07ab      	lsls	r3, r5, #30
   1f158:	d121      	bne.n	1f19e <rtl_crypto_aes_gcm_decrypt+0x62>
   1f15a:	f1b9 0f00 	cmp.w	r9, #0
   1f15e:	d01b      	beq.n	1f198 <rtl_crypto_aes_gcm_decrypt+0x5c>
   1f160:	b1d7      	cbz	r7, 1f198 <rtl_crypto_aes_gcm_decrypt+0x5c>
   1f162:	220c      	movs	r2, #12
   1f164:	f8df 804c 	ldr.w	r8, [pc, #76]	; 1f1b4 <rtl_crypto_aes_gcm_decrypt+0x78>
   1f168:	480e      	ldr	r0, [pc, #56]	; (1f1a4 <rtl_crypto_aes_gcm_decrypt+0x68>)
   1f16a:	47c0      	blx	r8
   1f16c:	2204      	movs	r2, #4
   1f16e:	490e      	ldr	r1, [pc, #56]	; (1f1a8 <rtl_crypto_aes_gcm_decrypt+0x6c>)
   1f170:	480e      	ldr	r0, [pc, #56]	; (1f1ac <rtl_crypto_aes_gcm_decrypt+0x70>)
   1f172:	47c0      	blx	r8
   1f174:	2010      	movs	r0, #16
   1f176:	4b0b      	ldr	r3, [pc, #44]	; (1f1a4 <rtl_crypto_aes_gcm_decrypt+0x68>)
   1f178:	4621      	mov	r1, r4
   1f17a:	9000      	str	r0, [sp, #0]
   1f17c:	4632      	mov	r2, r6
   1f17e:	980e      	ldr	r0, [sp, #56]	; 0x38
   1f180:	4c0b      	ldr	r4, [pc, #44]	; (1f1b0 <rtl_crypto_aes_gcm_decrypt+0x74>)
   1f182:	9704      	str	r7, [sp, #16]
   1f184:	f8cd 900c 	str.w	r9, [sp, #12]
   1f188:	e9cd 5001 	strd	r5, r0, [sp, #4]
   1f18c:	f5a3 70b4 	sub.w	r0, r3, #360	; 0x168
   1f190:	47a0      	blx	r4
   1f192:	b007      	add	sp, #28
   1f194:	e8bd 83f0 	ldmia.w	sp!, {r4, r5, r6, r7, r8, r9, pc}
   1f198:	f06f 0003 	mvn.w	r0, #3
   1f19c:	e7f9      	b.n	1f192 <rtl_crypto_aes_gcm_decrypt+0x56>
   1f19e:	f06f 0005 	mvn.w	r0, #5
   1f1a2:	e7f6      	b.n	1f192 <rtl_crypto_aes_gcm_decrypt+0x56>
   1f1a4:	20004368 	.word	0x20004368
   1f1a8:	00042020 	.word	0x00042020
   1f1ac:	20004374 	.word	0x20004374
   1f1b0:	00020bc5 	.word	0x00020bc5
   1f1b4:	000270e1 	.word	0x000270e1

0001f1b8 <io_assert_failed>:
   1f1b8:	b508      	push	{r3, lr}
   1f1ba:	4b05      	ldr	r3, [pc, #20]	; (1f1d0 <io_assert_failed+0x18>)
   1f1bc:	681b      	ldr	r3, [r3, #0]
   1f1be:	039b      	lsls	r3, r3, #14
   1f1c0:	d400      	bmi.n	1f1c4 <io_assert_failed+0xc>
   1f1c2:	e7fe      	b.n	1f1c2 <io_assert_failed+0xa>
   1f1c4:	460a      	mov	r2, r1
   1f1c6:	4601      	mov	r1, r0
   1f1c8:	4802      	ldr	r0, [pc, #8]	; (1f1d4 <io_assert_failed+0x1c>)
   1f1ca:	f007 fa09 	bl	265e0 <DiagPrintf>
   1f1ce:	e7f8      	b.n	1f1c2 <io_assert_failed+0xa>
   1f1d0:	20004004 	.word	0x20004004
   1f1d4:	000432f8 	.word	0x000432f8

0001f1d8 <BKUP_Write>:
   1f1d8:	2803      	cmp	r0, #3
   1f1da:	b538      	push	{r3, r4, r5, lr}
   1f1dc:	4604      	mov	r4, r0
   1f1de:	460d      	mov	r5, r1
   1f1e0:	d803      	bhi.n	1f1ea <BKUP_Write+0x12>
   1f1e2:	00a4      	lsls	r4, r4, #2
   1f1e4:	4b05      	ldr	r3, [pc, #20]	; (1f1fc <BKUP_Write+0x24>)
   1f1e6:	511d      	str	r5, [r3, r4]
   1f1e8:	bd38      	pop	{r3, r4, r5, pc}
   1f1ea:	211f      	movs	r1, #31
   1f1ec:	4804      	ldr	r0, [pc, #16]	; (1f200 <BKUP_Write+0x28>)
   1f1ee:	f7ff ffe3 	bl	1f1b8 <io_assert_failed>
   1f1f2:	4b02      	ldr	r3, [pc, #8]	; (1f1fc <BKUP_Write+0x24>)
   1f1f4:	00a4      	lsls	r4, r4, #2
   1f1f6:	511d      	str	r5, [r3, r4]
   1f1f8:	bd38      	pop	{r3, r4, r5, pc}
   1f1fa:	bf00      	nop
   1f1fc:	410080e0 	.word	0x410080e0
   1f200:	00043330 	.word	0x00043330

0001f204 <BKUP_Read>:
   1f204:	2803      	cmp	r0, #3
   1f206:	b510      	push	{r4, lr}
   1f208:	4604      	mov	r4, r0
   1f20a:	d803      	bhi.n	1f214 <BKUP_Read+0x10>
   1f20c:	00a4      	lsls	r4, r4, #2
   1f20e:	4b05      	ldr	r3, [pc, #20]	; (1f224 <BKUP_Read+0x20>)
   1f210:	5918      	ldr	r0, [r3, r4]
   1f212:	bd10      	pop	{r4, pc}
   1f214:	212e      	movs	r1, #46	; 0x2e
   1f216:	4804      	ldr	r0, [pc, #16]	; (1f228 <BKUP_Read+0x24>)
   1f218:	f7ff ffce 	bl	1f1b8 <io_assert_failed>
   1f21c:	4b01      	ldr	r3, [pc, #4]	; (1f224 <BKUP_Read+0x20>)
   1f21e:	00a4      	lsls	r4, r4, #2
   1f220:	5918      	ldr	r0, [r3, r4]
   1f222:	bd10      	pop	{r4, pc}
   1f224:	410080e0 	.word	0x410080e0
   1f228:	0004333c 	.word	0x0004333c

0001f22c <BKUP_Set>:
   1f22c:	2803      	cmp	r0, #3
   1f22e:	b538      	push	{r3, r4, r5, lr}
   1f230:	4604      	mov	r4, r0
   1f232:	460d      	mov	r5, r1
   1f234:	d805      	bhi.n	1f242 <BKUP_Set+0x16>
   1f236:	00a4      	lsls	r4, r4, #2
   1f238:	4b04      	ldr	r3, [pc, #16]	; (1f24c <BKUP_Set+0x20>)
   1f23a:	591a      	ldr	r2, [r3, r4]
   1f23c:	432a      	orrs	r2, r5
   1f23e:	511a      	str	r2, [r3, r4]
   1f240:	bd38      	pop	{r3, r4, r5, pc}
   1f242:	213e      	movs	r1, #62	; 0x3e
   1f244:	4802      	ldr	r0, [pc, #8]	; (1f250 <BKUP_Set+0x24>)
   1f246:	f7ff ffb7 	bl	1f1b8 <io_assert_failed>
   1f24a:	e7f4      	b.n	1f236 <BKUP_Set+0xa>
   1f24c:	410080e0 	.word	0x410080e0
   1f250:	00043348 	.word	0x00043348

0001f254 <BKUP_Clear>:
   1f254:	2803      	cmp	r0, #3
   1f256:	b538      	push	{r3, r4, r5, lr}
   1f258:	4604      	mov	r4, r0
   1f25a:	460d      	mov	r5, r1
   1f25c:	d806      	bhi.n	1f26c <BKUP_Clear+0x18>
   1f25e:	00a4      	lsls	r4, r4, #2
   1f260:	4b05      	ldr	r3, [pc, #20]	; (1f278 <BKUP_Clear+0x24>)
   1f262:	591a      	ldr	r2, [r3, r4]
   1f264:	ea22 0205 	bic.w	r2, r2, r5
   1f268:	511a      	str	r2, [r3, r4]
   1f26a:	bd38      	pop	{r3, r4, r5, pc}
   1f26c:	214e      	movs	r1, #78	; 0x4e
   1f26e:	4803      	ldr	r0, [pc, #12]	; (1f27c <BKUP_Clear+0x28>)
   1f270:	f7ff ffa2 	bl	1f1b8 <io_assert_failed>
   1f274:	e7f3      	b.n	1f25e <BKUP_Clear+0xa>
   1f276:	bf00      	nop
   1f278:	410080e0 	.word	0x410080e0
   1f27c:	00043354 	.word	0x00043354

0001f280 <EFUSE_GetPackageInfo>:
   1f280:	b500      	push	{lr}
   1f282:	b083      	sub	sp, #12
   1f284:	4b06      	ldr	r3, [pc, #24]	; (1f2a0 <EFUSE_GetPackageInfo+0x20>)
   1f286:	f240 70ff 	movw	r0, #2047	; 0x7ff
   1f28a:	f10d 0107 	add.w	r1, sp, #7
   1f28e:	4798      	blx	r3
   1f290:	f89d 0007 	ldrb.w	r0, [sp, #7]
   1f294:	f000 001f 	and.w	r0, r0, #31
   1f298:	b003      	add	sp, #12
   1f29a:	f85d fb04 	ldr.w	pc, [sp], #4
   1f29e:	bf00      	nop
   1f2a0:	00022c91 	.word	0x00022c91

0001f2a4 <EFUSE_GetBDNum>:
   1f2a4:	b500      	push	{lr}
   1f2a6:	b083      	sub	sp, #12
   1f2a8:	4b05      	ldr	r3, [pc, #20]	; (1f2c0 <EFUSE_GetBDNum+0x1c>)
   1f2aa:	f240 70ff 	movw	r0, #2047	; 0x7ff
   1f2ae:	f10d 0107 	add.w	r1, sp, #7
   1f2b2:	4798      	blx	r3
   1f2b4:	f89d 0007 	ldrb.w	r0, [sp, #7]
   1f2b8:	0940      	lsrs	r0, r0, #5
   1f2ba:	b003      	add	sp, #12
   1f2bc:	f85d fb04 	ldr.w	pc, [sp], #4
   1f2c0:	00022c91 	.word	0x00022c91

0001f2c4 <EFUSE_GetChipVersion>:
   1f2c4:	b500      	push	{lr}
   1f2c6:	b083      	sub	sp, #12
   1f2c8:	4b06      	ldr	r3, [pc, #24]	; (1f2e4 <EFUSE_GetChipVersion+0x20>)
   1f2ca:	f44f 60fe 	mov.w	r0, #2032	; 0x7f0
   1f2ce:	f10d 0107 	add.w	r1, sp, #7
   1f2d2:	4798      	blx	r3
   1f2d4:	f89d 0007 	ldrb.w	r0, [sp, #7]
   1f2d8:	f000 001f 	and.w	r0, r0, #31
   1f2dc:	b003      	add	sp, #12
   1f2de:	f85d fb04 	ldr.w	pc, [sp], #4
   1f2e2:	bf00      	nop
   1f2e4:	00022c91 	.word	0x00022c91

0001f2e8 <EFUSE_GetESFlag>:
   1f2e8:	b500      	push	{lr}
   1f2ea:	b083      	sub	sp, #12
   1f2ec:	4b06      	ldr	r3, [pc, #24]	; (1f308 <EFUSE_GetESFlag+0x20>)
   1f2ee:	f44f 60fe 	mov.w	r0, #2032	; 0x7f0
   1f2f2:	f10d 0107 	add.w	r1, sp, #7
   1f2f6:	4798      	blx	r3
   1f2f8:	f89d 0007 	ldrb.w	r0, [sp, #7]
   1f2fc:	f3c0 1040 	ubfx	r0, r0, #5, #1
   1f300:	b003      	add	sp, #12
   1f302:	f85d fb04 	ldr.w	pc, [sp], #4
   1f306:	bf00      	nop
   1f308:	00022c91 	.word	0x00022c91

0001f30c <EFUSE_GetUUID>:
   1f30c:	b5f0      	push	{r4, r5, r6, r7, lr}
   1f30e:	f240 74f4 	movw	r4, #2036	; 0x7f4
   1f312:	b083      	sub	sp, #12
   1f314:	4d0d      	ldr	r5, [pc, #52]	; (1f34c <EFUSE_GetUUID+0x40>)
   1f316:	4606      	mov	r6, r0
   1f318:	f2ad 73f4 	subw	r3, sp, #2036	; 0x7f4
   1f31c:	4620      	mov	r0, r4
   1f31e:	1919      	adds	r1, r3, r4
   1f320:	3401      	adds	r4, #1
   1f322:	47a8      	blx	r5
   1f324:	f5b4 6fff 	cmp.w	r4, #2040	; 0x7f8
   1f328:	d1f6      	bne.n	1f318 <EFUSE_GetUUID+0xc>
   1f32a:	f240 77fc 	movw	r7, #2044	; 0x7fc
   1f32e:	f2ad 73f4 	subw	r3, sp, #2036	; 0x7f4
   1f332:	4620      	mov	r0, r4
   1f334:	1919      	adds	r1, r3, r4
   1f336:	3401      	adds	r4, #1
   1f338:	47a8      	blx	r5
   1f33a:	42bc      	cmp	r4, r7
   1f33c:	d1f7      	bne.n	1f32e <EFUSE_GetUUID+0x22>
   1f33e:	e9dd 2300 	ldrd	r2, r3, [sp]
   1f342:	e9c6 2300 	strd	r2, r3, [r6]
   1f346:	b003      	add	sp, #12
   1f348:	bdf0      	pop	{r4, r5, r6, r7, pc}
   1f34a:	bf00      	nop
   1f34c:	00022c91 	.word	0x00022c91

0001f350 <EFUSE_Get_Info>:
   1f350:	b530      	push	{r4, r5, lr}
   1f352:	b083      	sub	sp, #12
   1f354:	4604      	mov	r4, r0
   1f356:	4d21      	ldr	r5, [pc, #132]	; (1f3dc <EFUSE_Get_Info+0x8c>)
   1f358:	f240 70fc 	movw	r0, #2044	; 0x7fc
   1f35c:	a901      	add	r1, sp, #4
   1f35e:	47a8      	blx	r5
   1f360:	f10d 0105 	add.w	r1, sp, #5
   1f364:	f240 70fd 	movw	r0, #2045	; 0x7fd
   1f368:	47a8      	blx	r5
   1f36a:	2c07      	cmp	r4, #7
   1f36c:	d833      	bhi.n	1f3d6 <EFUSE_Get_Info+0x86>
   1f36e:	e8df f004 	tbb	[pc, r4]
   1f372:	0f09      	.short	0x0f09
   1f374:	26201b15 	.word	0x26201b15
   1f378:	042c      	.short	0x042c
   1f37a:	f89d 0005 	ldrb.w	r0, [sp, #5]
   1f37e:	0980      	lsrs	r0, r0, #6
   1f380:	b003      	add	sp, #12
   1f382:	bd30      	pop	{r4, r5, pc}
   1f384:	f89d 0004 	ldrb.w	r0, [sp, #4]
   1f388:	f000 0003 	and.w	r0, r0, #3
   1f38c:	b003      	add	sp, #12
   1f38e:	bd30      	pop	{r4, r5, pc}
   1f390:	f89d 0004 	ldrb.w	r0, [sp, #4]
   1f394:	f3c0 0081 	ubfx	r0, r0, #2, #2
   1f398:	b003      	add	sp, #12
   1f39a:	bd30      	pop	{r4, r5, pc}
   1f39c:	f89d 0004 	ldrb.w	r0, [sp, #4]
   1f3a0:	f3c0 1001 	ubfx	r0, r0, #4, #2
   1f3a4:	b003      	add	sp, #12
   1f3a6:	bd30      	pop	{r4, r5, pc}
   1f3a8:	f89d 0004 	ldrb.w	r0, [sp, #4]
   1f3ac:	0980      	lsrs	r0, r0, #6
   1f3ae:	b003      	add	sp, #12
   1f3b0:	bd30      	pop	{r4, r5, pc}
   1f3b2:	f89d 0005 	ldrb.w	r0, [sp, #5]
   1f3b6:	f000 0003 	and.w	r0, r0, #3
   1f3ba:	b003      	add	sp, #12
   1f3bc:	bd30      	pop	{r4, r5, pc}
   1f3be:	f89d 0005 	ldrb.w	r0, [sp, #5]
   1f3c2:	f3c0 0081 	ubfx	r0, r0, #2, #2
   1f3c6:	b003      	add	sp, #12
   1f3c8:	bd30      	pop	{r4, r5, pc}
   1f3ca:	f89d 0005 	ldrb.w	r0, [sp, #5]
   1f3ce:	f3c0 1001 	ubfx	r0, r0, #4, #2
   1f3d2:	b003      	add	sp, #12
   1f3d4:	bd30      	pop	{r4, r5, pc}
   1f3d6:	2000      	movs	r0, #0
   1f3d8:	e7d2      	b.n	1f380 <EFUSE_Get_Info+0x30>
   1f3da:	bf00      	nop
   1f3dc:	00022c91 	.word	0x00022c91

0001f3e0 <XTAL_ClkGet>:
   1f3e0:	4b04      	ldr	r3, [pc, #16]	; (1f3f4 <XTAL_ClkGet+0x14>)
   1f3e2:	4a05      	ldr	r2, [pc, #20]	; (1f3f8 <XTAL_ClkGet+0x18>)
   1f3e4:	f8d3 321c 	ldr.w	r3, [r3, #540]	; 0x21c
   1f3e8:	f003 030f 	and.w	r3, r3, #15
   1f3ec:	f852 0023 	ldr.w	r0, [r2, r3, lsl #2]
   1f3f0:	4770      	bx	lr
   1f3f2:	bf00      	nop
   1f3f4:	41008000 	.word	0x41008000
   1f3f8:	00042024 	.word	0x00042024

0001f3fc <PLL_ClkGet>:
   1f3fc:	4a0d      	ldr	r2, [pc, #52]	; (1f434 <PLL_ClkGet+0x38>)
   1f3fe:	490e      	ldr	r1, [pc, #56]	; (1f438 <PLL_ClkGet+0x3c>)
   1f400:	b570      	push	{r4, r5, r6, lr}
   1f402:	6c54      	ldr	r4, [r2, #68]	; 0x44
   1f404:	6cd5      	ldr	r5, [r2, #76]	; 0x4c
   1f406:	6cd6      	ldr	r6, [r2, #76]	; 0x4c
   1f408:	4788      	blx	r1
   1f40a:	08c3      	lsrs	r3, r0, #3
   1f40c:	f3c4 1445 	ubfx	r4, r4, #5, #6
   1f410:	f3c6 4602 	ubfx	r6, r6, #16, #3
   1f414:	0ced      	lsrs	r5, r5, #19
   1f416:	0c01      	lsrs	r1, r0, #16
   1f418:	3402      	adds	r4, #2
   1f41a:	fb06 f303 	mul.w	r3, r6, r3
   1f41e:	b282      	uxth	r2, r0
   1f420:	fb05 3301 	mla	r3, r5, r1, r3
   1f424:	fb05 f202 	mul.w	r2, r5, r2
   1f428:	fb00 3004 	mla	r0, r0, r4, r3
   1f42c:	eb00 4012 	add.w	r0, r0, r2, lsr #16
   1f430:	bd70      	pop	{r4, r5, r6, pc}
   1f432:	bf00      	nop
   1f434:	41008400 	.word	0x41008400
   1f438:	0001f3e1 	.word	0x0001f3e1

0001f43c <_CPU_ClkSet>:
   1f43c:	b570      	push	{r4, r5, r6, lr}
   1f43e:	4b39      	ldr	r3, [pc, #228]	; (1f524 <_CPU_ClkSet+0xe8>)
   1f440:	4604      	mov	r4, r0
   1f442:	4798      	blx	r3
   1f444:	4b38      	ldr	r3, [pc, #224]	; (1f528 <_CPU_ClkSet+0xec>)
   1f446:	4605      	mov	r5, r0
   1f448:	4798      	blx	r3
   1f44a:	4b38      	ldr	r3, [pc, #224]	; (1f52c <_CPU_ClkSet+0xf0>)
   1f44c:	f8d3 2228 	ldr.w	r2, [r3, #552]	; 0x228
   1f450:	f8d3 1218 	ldr.w	r1, [r3, #536]	; 0x218
   1f454:	f3c2 1281 	ubfx	r2, r2, #6, #2
   1f458:	2a01      	cmp	r2, #1
   1f45a:	d027      	beq.n	1f4ac <_CPU_ClkSet+0x70>
   1f45c:	4a34      	ldr	r2, [pc, #208]	; (1f530 <_CPU_ClkSet+0xf4>)
   1f45e:	4294      	cmp	r4, r2
   1f460:	d01b      	beq.n	1f49a <_CPU_ClkSet+0x5e>
   1f462:	42a0      	cmp	r0, r4
   1f464:	d042      	beq.n	1f4ec <_CPU_ClkSet+0xb0>
   1f466:	fbb5 f2f4 	udiv	r2, r5, r4
   1f46a:	fb04 5112 	mls	r1, r4, r2, r5
   1f46e:	bb21      	cbnz	r1, 1f4ba <_CPU_ClkSet+0x7e>
   1f470:	3a01      	subs	r2, #1
   1f472:	f002 010f 	and.w	r1, r2, #15
   1f476:	f032 020f 	bics.w	r2, r2, #15
   1f47a:	d11e      	bne.n	1f4ba <_CPU_ClkSet+0x7e>
   1f47c:	f8d3 2220 	ldr.w	r2, [r3, #544]	; 0x220
   1f480:	f022 02f0 	bic.w	r2, r2, #240	; 0xf0
   1f484:	ea42 1201 	orr.w	r2, r2, r1, lsl #4
   1f488:	f8c3 2220 	str.w	r2, [r3, #544]	; 0x220
   1f48c:	f8d3 2218 	ldr.w	r2, [r3, #536]	; 0x218
   1f490:	f042 0203 	orr.w	r2, r2, #3
   1f494:	f8c3 2218 	str.w	r2, [r3, #536]	; 0x218
   1f498:	e003      	b.n	1f4a2 <_CPU_ClkSet+0x66>
   1f49a:	f021 0103 	bic.w	r1, r1, #3
   1f49e:	f8c3 1218 	str.w	r1, [r3, #536]	; 0x218
   1f4a2:	4620      	mov	r0, r4
   1f4a4:	4b23      	ldr	r3, [pc, #140]	; (1f534 <_CPU_ClkSet+0xf8>)
   1f4a6:	e8bd 4070 	ldmia.w	sp!, {r4, r5, r6, lr}
   1f4aa:	4718      	bx	r3
   1f4ac:	42a0      	cmp	r0, r4
   1f4ae:	d028      	beq.n	1f502 <_CPU_ClkSet+0xc6>
   1f4b0:	fbb5 f2f4 	udiv	r2, r5, r4
   1f4b4:	fb04 5112 	mls	r1, r4, r2, r5
   1f4b8:	b121      	cbz	r1, 1f4c4 <_CPU_ClkSet+0x88>
   1f4ba:	4b1f      	ldr	r3, [pc, #124]	; (1f538 <_CPU_ClkSet+0xfc>)
   1f4bc:	681b      	ldr	r3, [r3, #0]
   1f4be:	039b      	lsls	r3, r3, #14
   1f4c0:	d428      	bmi.n	1f514 <_CPU_ClkSet+0xd8>
   1f4c2:	bd70      	pop	{r4, r5, r6, pc}
   1f4c4:	3a01      	subs	r2, #1
   1f4c6:	f002 0107 	and.w	r1, r2, #7
   1f4ca:	f032 0207 	bics.w	r2, r2, #7
   1f4ce:	d1f4      	bne.n	1f4ba <_CPU_ClkSet+0x7e>
   1f4d0:	f8d3 2220 	ldr.w	r2, [r3, #544]	; 0x220
   1f4d4:	f022 0207 	bic.w	r2, r2, #7
   1f4d8:	430a      	orrs	r2, r1
   1f4da:	f8c3 2220 	str.w	r2, [r3, #544]	; 0x220
   1f4de:	f8d3 2218 	ldr.w	r2, [r3, #536]	; 0x218
   1f4e2:	f042 0204 	orr.w	r2, r2, #4
   1f4e6:	f8c3 2218 	str.w	r2, [r3, #536]	; 0x218
   1f4ea:	e7da      	b.n	1f4a2 <_CPU_ClkSet+0x66>
   1f4ec:	f021 0103 	bic.w	r1, r1, #3
   1f4f0:	4620      	mov	r0, r4
   1f4f2:	f041 0101 	orr.w	r1, r1, #1
   1f4f6:	e8bd 4070 	ldmia.w	sp!, {r4, r5, r6, lr}
   1f4fa:	f8c3 1218 	str.w	r1, [r3, #536]	; 0x218
   1f4fe:	4b0d      	ldr	r3, [pc, #52]	; (1f534 <_CPU_ClkSet+0xf8>)
   1f500:	4718      	bx	r3
   1f502:	f021 0104 	bic.w	r1, r1, #4
   1f506:	4620      	mov	r0, r4
   1f508:	f8c3 1218 	str.w	r1, [r3, #536]	; 0x218
   1f50c:	4b09      	ldr	r3, [pc, #36]	; (1f534 <_CPU_ClkSet+0xf8>)
   1f50e:	e8bd 4070 	ldmia.w	sp!, {r4, r5, r6, lr}
   1f512:	4718      	bx	r3
   1f514:	462a      	mov	r2, r5
   1f516:	4621      	mov	r1, r4
   1f518:	4808      	ldr	r0, [pc, #32]	; (1f53c <_CPU_ClkSet+0x100>)
   1f51a:	e8bd 4070 	ldmia.w	sp!, {r4, r5, r6, lr}
   1f51e:	f007 b85f 	b.w	265e0 <DiagPrintf>
   1f522:	bf00      	nop
   1f524:	0001f3fd 	.word	0x0001f3fd
   1f528:	0001f3e1 	.word	0x0001f3e1
   1f52c:	41008000 	.word	0x41008000
   1f530:	003d0900 	.word	0x003d0900
   1f534:	00020c91 	.word	0x00020c91
   1f538:	20004004 	.word	0x20004004
   1f53c:	00043360 	.word	0x00043360

0001f540 <CPU_ClkGet>:
   1f540:	b5f8      	push	{r3, r4, r5, r6, r7, lr}
   1f542:	4c1b      	ldr	r4, [pc, #108]	; (1f5b0 <CPU_ClkGet+0x70>)
   1f544:	4b1b      	ldr	r3, [pc, #108]	; (1f5b4 <CPU_ClkGet+0x74>)
   1f546:	f8d4 6218 	ldr.w	r6, [r4, #536]	; 0x218
   1f54a:	f8d4 5228 	ldr.w	r5, [r4, #552]	; 0x228
   1f54e:	4798      	blx	r3
   1f550:	2801      	cmp	r0, #1
   1f552:	f3c5 1581 	ubfx	r5, r5, #6, #2
   1f556:	d10b      	bne.n	1f570 <CPU_ClkGet+0x30>
   1f558:	f8d4 02b4 	ldr.w	r0, [r4, #692]	; 0x2b4
   1f55c:	2d01      	cmp	r5, #1
   1f55e:	4b16      	ldr	r3, [pc, #88]	; (1f5b8 <CPU_ClkGet+0x78>)
   1f560:	bf0c      	ite	eq
   1f562:	f3c0 4007 	ubfxeq	r0, r0, #16, #8
   1f566:	0e00      	lsrne	r0, r0, #24
   1f568:	fb03 f000 	mul.w	r0, r3, r0
   1f56c:	b1a0      	cbz	r0, 1f598 <CPU_ClkGet+0x58>
   1f56e:	bdf8      	pop	{r3, r4, r5, r6, r7, pc}
   1f570:	4b12      	ldr	r3, [pc, #72]	; (1f5bc <CPU_ClkGet+0x7c>)
   1f572:	4798      	blx	r3
   1f574:	4b12      	ldr	r3, [pc, #72]	; (1f5c0 <CPU_ClkGet+0x80>)
   1f576:	4607      	mov	r7, r0
   1f578:	4798      	blx	r3
   1f57a:	2d01      	cmp	r5, #1
   1f57c:	f8d4 2220 	ldr.w	r2, [r4, #544]	; 0x220
   1f580:	d00c      	beq.n	1f59c <CPU_ClkGet+0x5c>
   1f582:	f016 0303 	ands.w	r3, r6, #3
   1f586:	d011      	beq.n	1f5ac <CPU_ClkGet+0x6c>
   1f588:	2b01      	cmp	r3, #1
   1f58a:	d0f0      	beq.n	1f56e <CPU_ClkGet+0x2e>
   1f58c:	f3c2 1003 	ubfx	r0, r2, #4, #4
   1f590:	3001      	adds	r0, #1
   1f592:	fbb7 f0f0 	udiv	r0, r7, r0
   1f596:	bdf8      	pop	{r3, r4, r5, r6, r7, pc}
   1f598:	480a      	ldr	r0, [pc, #40]	; (1f5c4 <CPU_ClkGet+0x84>)
   1f59a:	bdf8      	pop	{r3, r4, r5, r6, r7, pc}
   1f59c:	0773      	lsls	r3, r6, #29
   1f59e:	d5e6      	bpl.n	1f56e <CPU_ClkGet+0x2e>
   1f5a0:	f002 0007 	and.w	r0, r2, #7
   1f5a4:	3001      	adds	r0, #1
   1f5a6:	fbb7 f0f0 	udiv	r0, r7, r0
   1f5aa:	bdf8      	pop	{r3, r4, r5, r6, r7, pc}
   1f5ac:	4806      	ldr	r0, [pc, #24]	; (1f5c8 <CPU_ClkGet+0x88>)
   1f5ae:	bdf8      	pop	{r3, r4, r5, r6, r7, pc}
   1f5b0:	41008000 	.word	0x41008000
   1f5b4:	00024aa5 	.word	0x00024aa5
   1f5b8:	000f4240 	.word	0x000f4240
   1f5bc:	0001f3fd 	.word	0x0001f3fd
   1f5c0:	0001f3e1 	.word	0x0001f3e1
   1f5c4:	02625a00 	.word	0x02625a00
   1f5c8:	003d0900 	.word	0x003d0900

0001f5cc <_CPU_ClkSrcSet>:
   1f5cc:	4b11      	ldr	r3, [pc, #68]	; (1f614 <_CPU_ClkSrcSet+0x48>)
   1f5ce:	f8d3 2218 	ldr.w	r2, [r3, #536]	; 0x218
   1f5d2:	f8d3 1228 	ldr.w	r1, [r3, #552]	; 0x228
   1f5d6:	f011 0fc0 	tst.w	r1, #192	; 0xc0
   1f5da:	f3c1 1c81 	ubfx	ip, r1, #6, #2
   1f5de:	b510      	push	{r4, lr}
   1f5e0:	d10c      	bne.n	1f5fc <_CPU_ClkSrcSet+0x30>
   1f5e2:	f022 0203 	bic.w	r2, r2, #3
   1f5e6:	f000 0003 	and.w	r0, r0, #3
   1f5ea:	4310      	orrs	r0, r2
   1f5ec:	f8c3 0218 	str.w	r0, [r3, #536]	; 0x218
   1f5f0:	4b09      	ldr	r3, [pc, #36]	; (1f618 <_CPU_ClkSrcSet+0x4c>)
   1f5f2:	4798      	blx	r3
   1f5f4:	4b09      	ldr	r3, [pc, #36]	; (1f61c <_CPU_ClkSrcSet+0x50>)
   1f5f6:	e8bd 4010 	ldmia.w	sp!, {r4, lr}
   1f5fa:	4718      	bx	r3
   1f5fc:	f1bc 0f01 	cmp.w	ip, #1
   1f600:	d1f6      	bne.n	1f5f0 <_CPU_ClkSrcSet+0x24>
   1f602:	0080      	lsls	r0, r0, #2
   1f604:	f022 0204 	bic.w	r2, r2, #4
   1f608:	f000 0004 	and.w	r0, r0, #4
   1f60c:	4310      	orrs	r0, r2
   1f60e:	f8c3 0218 	str.w	r0, [r3, #536]	; 0x218
   1f612:	e7ed      	b.n	1f5f0 <_CPU_ClkSrcSet+0x24>
   1f614:	41008000 	.word	0x41008000
   1f618:	0001f541 	.word	0x0001f541
   1f61c:	00020c91 	.word	0x00020c91

0001f620 <CRYPTO_MemDump>:
   1f620:	2800      	cmp	r0, #0
   1f622:	d076      	beq.n	1f712 <CRYPTO_MemDump+0xf2>
   1f624:	e92d 4ff0 	stmdb	sp!, {r4, r5, r6, r7, r8, r9, sl, fp, lr}
   1f628:	460e      	mov	r6, r1
   1f62a:	b083      	sub	sp, #12
   1f62c:	b339      	cbz	r1, 1f67e <CRYPTO_MemDump+0x5e>
   1f62e:	4f39      	ldr	r7, [pc, #228]	; (1f714 <CRYPTO_MemDump+0xf4>)
   1f630:	4682      	mov	sl, r0
   1f632:	6838      	ldr	r0, [r7, #0]
   1f634:	2a00      	cmp	r2, #0
   1f636:	d03d      	beq.n	1f6b4 <CRYPTO_MemDump+0x94>
   1f638:	f410 3000 	ands.w	r0, r0, #131072	; 0x20000
   1f63c:	d135      	bne.n	1f6aa <CRYPTO_MemDump+0x8a>
   1f63e:	f006 030f 	and.w	r3, r6, #15
   1f642:	0936      	lsrs	r6, r6, #4
   1f644:	f04f 0b00 	mov.w	fp, #0
   1f648:	f8df 90e0 	ldr.w	r9, [pc, #224]	; 1f72c <CRYPTO_MemDump+0x10c>
   1f64c:	f106 0801 	add.w	r8, r6, #1
   1f650:	9301      	str	r3, [sp, #4]
   1f652:	45b3      	cmp	fp, r6
   1f654:	d043      	beq.n	1f6de <CRYPTO_MemDump+0xbe>
   1f656:	2510      	movs	r5, #16
   1f658:	2800      	cmp	r0, #0
   1f65a:	d145      	bne.n	1f6e8 <CRYPTO_MemDump+0xc8>
   1f65c:	2400      	movs	r4, #0
   1f65e:	2c08      	cmp	r4, #8
   1f660:	d010      	beq.n	1f684 <CRYPTO_MemDump+0x64>
   1f662:	b9c8      	cbnz	r0, 1f698 <CRYPTO_MemDump+0x78>
   1f664:	3401      	adds	r4, #1
   1f666:	42a5      	cmp	r5, r4
   1f668:	d1f9      	bne.n	1f65e <CRYPTO_MemDump+0x3e>
   1f66a:	2c10      	cmp	r4, #16
   1f66c:	d125      	bne.n	1f6ba <CRYPTO_MemDump+0x9a>
   1f66e:	f10b 0b01 	add.w	fp, fp, #1
   1f672:	f10a 0a10 	add.w	sl, sl, #16
   1f676:	45d8      	cmp	r8, fp
   1f678:	dceb      	bgt.n	1f652 <CRYPTO_MemDump+0x32>
   1f67a:	2800      	cmp	r0, #0
   1f67c:	d13c      	bne.n	1f6f8 <CRYPTO_MemDump+0xd8>
   1f67e:	b003      	add	sp, #12
   1f680:	e8bd 8ff0 	ldmia.w	sp!, {r4, r5, r6, r7, r8, r9, sl, fp, pc}
   1f684:	2800      	cmp	r0, #0
   1f686:	d0ed      	beq.n	1f664 <CRYPTO_MemDump+0x44>
   1f688:	4823      	ldr	r0, [pc, #140]	; (1f718 <CRYPTO_MemDump+0xf8>)
   1f68a:	f006 ffa9 	bl	265e0 <DiagPrintf>
   1f68e:	6838      	ldr	r0, [r7, #0]
   1f690:	f400 3000 	and.w	r0, r0, #131072	; 0x20000
   1f694:	2800      	cmp	r0, #0
   1f696:	d0e5      	beq.n	1f664 <CRYPTO_MemDump+0x44>
   1f698:	f81a 1004 	ldrb.w	r1, [sl, r4]
   1f69c:	4648      	mov	r0, r9
   1f69e:	f006 ff9f 	bl	265e0 <DiagPrintf>
   1f6a2:	6838      	ldr	r0, [r7, #0]
   1f6a4:	f400 3000 	and.w	r0, r0, #131072	; 0x20000
   1f6a8:	e7dc      	b.n	1f664 <CRYPTO_MemDump+0x44>
   1f6aa:	4611      	mov	r1, r2
   1f6ac:	481b      	ldr	r0, [pc, #108]	; (1f71c <CRYPTO_MemDump+0xfc>)
   1f6ae:	f006 ff97 	bl	265e0 <DiagPrintf>
   1f6b2:	6838      	ldr	r0, [r7, #0]
   1f6b4:	f400 3000 	and.w	r0, r0, #131072	; 0x20000
   1f6b8:	e7c1      	b.n	1f63e <CRYPTO_MemDump+0x1e>
   1f6ba:	2c07      	cmp	r4, #7
   1f6bc:	dc00      	bgt.n	1f6c0 <CRYPTO_MemDump+0xa0>
   1f6be:	bb08      	cbnz	r0, 1f704 <CRYPTO_MemDump+0xe4>
   1f6c0:	f1c4 0410 	rsb	r4, r4, #16
   1f6c4:	4d16      	ldr	r5, [pc, #88]	; (1f720 <CRYPTO_MemDump+0x100>)
   1f6c6:	b918      	cbnz	r0, 1f6d0 <CRYPTO_MemDump+0xb0>
   1f6c8:	3c01      	subs	r4, #1
   1f6ca:	d0d0      	beq.n	1f66e <CRYPTO_MemDump+0x4e>
   1f6cc:	2800      	cmp	r0, #0
   1f6ce:	d0fb      	beq.n	1f6c8 <CRYPTO_MemDump+0xa8>
   1f6d0:	4628      	mov	r0, r5
   1f6d2:	f006 ff85 	bl	265e0 <DiagPrintf>
   1f6d6:	6838      	ldr	r0, [r7, #0]
   1f6d8:	f400 3000 	and.w	r0, r0, #131072	; 0x20000
   1f6dc:	e7f4      	b.n	1f6c8 <CRYPTO_MemDump+0xa8>
   1f6de:	9d01      	ldr	r5, [sp, #4]
   1f6e0:	2d00      	cmp	r5, #0
   1f6e2:	d0ca      	beq.n	1f67a <CRYPTO_MemDump+0x5a>
   1f6e4:	2800      	cmp	r0, #0
   1f6e6:	d0b9      	beq.n	1f65c <CRYPTO_MemDump+0x3c>
   1f6e8:	4651      	mov	r1, sl
   1f6ea:	480e      	ldr	r0, [pc, #56]	; (1f724 <CRYPTO_MemDump+0x104>)
   1f6ec:	f006 ff78 	bl	265e0 <DiagPrintf>
   1f6f0:	6838      	ldr	r0, [r7, #0]
   1f6f2:	f400 3000 	and.w	r0, r0, #131072	; 0x20000
   1f6f6:	e7b1      	b.n	1f65c <CRYPTO_MemDump+0x3c>
   1f6f8:	480b      	ldr	r0, [pc, #44]	; (1f728 <CRYPTO_MemDump+0x108>)
   1f6fa:	b003      	add	sp, #12
   1f6fc:	e8bd 4ff0 	ldmia.w	sp!, {r4, r5, r6, r7, r8, r9, sl, fp, lr}
   1f700:	f006 bf6e 	b.w	265e0 <DiagPrintf>
   1f704:	4804      	ldr	r0, [pc, #16]	; (1f718 <CRYPTO_MemDump+0xf8>)
   1f706:	f006 ff6b 	bl	265e0 <DiagPrintf>
   1f70a:	6838      	ldr	r0, [r7, #0]
   1f70c:	f400 3000 	and.w	r0, r0, #131072	; 0x20000
   1f710:	e7d6      	b.n	1f6c0 <CRYPTO_MemDump+0xa0>
   1f712:	4770      	bx	lr
   1f714:	20004004 	.word	0x20004004
   1f718:	0004339c 	.word	0x0004339c
   1f71c:	0004338c 	.word	0x0004338c
   1f720:	000433a8 	.word	0x000433a8
   1f724:	00043390 	.word	0x00043390
   1f728:	000433b0 	.word	0x000433b0
   1f72c:	000433a0 	.word	0x000433a0

0001f730 <CRYPTO_SetSrcDesc>:
   1f730:	b570      	push	{r4, r5, r6, lr}
   1f732:	4606      	mov	r6, r0
   1f734:	460d      	mov	r5, r1
   1f736:	b9ca      	cbnz	r2, 1f76c <CRYPTO_SetSrcDesc+0x3c>
   1f738:	4a19      	ldr	r2, [pc, #100]	; (1f7a0 <CRYPTO_SetSrcDesc+0x70>)
   1f73a:	4b1a      	ldr	r3, [pc, #104]	; (1f7a4 <CRYPTO_SetSrcDesc+0x74>)
   1f73c:	e843 f300 	tt	r3, r3
   1f740:	f413 0f80 	tst.w	r3, #4194304	; 0x400000
   1f744:	4c18      	ldr	r4, [pc, #96]	; (1f7a8 <CRYPTO_SetSrcDesc+0x78>)
   1f746:	bf18      	it	ne
   1f748:	4614      	movne	r4, r2
   1f74a:	f44f 1c80 	mov.w	ip, #1048576	; 0x100000
   1f74e:	e002      	b.n	1f756 <CRYPTO_SetSrcDesc+0x26>
   1f750:	f1bc 0c01 	subs.w	ip, ip, #1
   1f754:	d01a      	beq.n	1f78c <CRYPTO_SetSrcDesc+0x5c>
   1f756:	6823      	ldr	r3, [r4, #0]
   1f758:	b2db      	uxtb	r3, r3
   1f75a:	2b00      	cmp	r3, #0
   1f75c:	d0f8      	beq.n	1f750 <CRYPTO_SetSrcDesc+0x20>
   1f75e:	4b13      	ldr	r3, [pc, #76]	; (1f7ac <CRYPTO_SetSrcDesc+0x7c>)
   1f760:	689b      	ldr	r3, [r3, #8]
   1f762:	049a      	lsls	r2, r3, #18
   1f764:	d40c      	bmi.n	1f780 <CRYPTO_SetSrcDesc+0x50>
   1f766:	6066      	str	r6, [r4, #4]
   1f768:	60a5      	str	r5, [r4, #8]
   1f76a:	bd70      	pop	{r4, r5, r6, pc}
   1f76c:	4a10      	ldr	r2, [pc, #64]	; (1f7b0 <CRYPTO_SetSrcDesc+0x80>)
   1f76e:	4b0d      	ldr	r3, [pc, #52]	; (1f7a4 <CRYPTO_SetSrcDesc+0x74>)
   1f770:	e843 f300 	tt	r3, r3
   1f774:	f413 0f80 	tst.w	r3, #4194304	; 0x400000
   1f778:	4c0e      	ldr	r4, [pc, #56]	; (1f7b4 <CRYPTO_SetSrcDesc+0x84>)
   1f77a:	bf18      	it	ne
   1f77c:	4614      	movne	r4, r2
   1f77e:	e7e4      	b.n	1f74a <CRYPTO_SetSrcDesc+0x1a>
   1f780:	462a      	mov	r2, r5
   1f782:	4631      	mov	r1, r6
   1f784:	480c      	ldr	r0, [pc, #48]	; (1f7b8 <CRYPTO_SetSrcDesc+0x88>)
   1f786:	f006 ff2b 	bl	265e0 <DiagPrintf>
   1f78a:	e7ec      	b.n	1f766 <CRYPTO_SetSrcDesc+0x36>
   1f78c:	4b07      	ldr	r3, [pc, #28]	; (1f7ac <CRYPTO_SetSrcDesc+0x7c>)
   1f78e:	681b      	ldr	r3, [r3, #0]
   1f790:	049b      	lsls	r3, r3, #18
   1f792:	d5ea      	bpl.n	1f76a <CRYPTO_SetSrcDesc+0x3a>
   1f794:	4809      	ldr	r0, [pc, #36]	; (1f7bc <CRYPTO_SetSrcDesc+0x8c>)
   1f796:	e8bd 4070 	ldmia.w	sp!, {r4, r5, r6, lr}
   1f79a:	f006 bf21 	b.w	265e0 <DiagPrintf>
   1f79e:	bf00      	nop
   1f7a0:	50100000 	.word	0x50100000
   1f7a4:	000265e1 	.word	0x000265e1
   1f7a8:	40100000 	.word	0x40100000
   1f7ac:	20004004 	.word	0x20004004
   1f7b0:	50108000 	.word	0x50108000
   1f7b4:	40108000 	.word	0x40108000
   1f7b8:	000433b4 	.word	0x000433b4
   1f7bc:	000433e8 	.word	0x000433e8

0001f7c0 <CRYPTO_SetDstDesc>:
   1f7c0:	b570      	push	{r4, r5, r6, lr}
   1f7c2:	4606      	mov	r6, r0
   1f7c4:	460d      	mov	r5, r1
   1f7c6:	b9fa      	cbnz	r2, 1f808 <CRYPTO_SetDstDesc+0x48>
   1f7c8:	4a18      	ldr	r2, [pc, #96]	; (1f82c <CRYPTO_SetDstDesc+0x6c>)
   1f7ca:	4b19      	ldr	r3, [pc, #100]	; (1f830 <CRYPTO_SetDstDesc+0x70>)
   1f7cc:	e843 f300 	tt	r3, r3
   1f7d0:	f413 0f80 	tst.w	r3, #4194304	; 0x400000
   1f7d4:	4c17      	ldr	r4, [pc, #92]	; (1f834 <CRYPTO_SetDstDesc+0x74>)
   1f7d6:	bf18      	it	ne
   1f7d8:	4614      	movne	r4, r2
   1f7da:	f504 5480 	add.w	r4, r4, #4096	; 0x1000
   1f7de:	6823      	ldr	r3, [r4, #0]
   1f7e0:	b2db      	uxtb	r3, r3
   1f7e2:	b133      	cbz	r3, 1f7f2 <CRYPTO_SetDstDesc+0x32>
   1f7e4:	4b14      	ldr	r3, [pc, #80]	; (1f838 <CRYPTO_SetDstDesc+0x78>)
   1f7e6:	689b      	ldr	r3, [r3, #8]
   1f7e8:	049a      	lsls	r2, r3, #18
   1f7ea:	d417      	bmi.n	1f81c <CRYPTO_SetDstDesc+0x5c>
   1f7ec:	6066      	str	r6, [r4, #4]
   1f7ee:	60a5      	str	r5, [r4, #8]
   1f7f0:	bd70      	pop	{r4, r5, r6, pc}
   1f7f2:	4b11      	ldr	r3, [pc, #68]	; (1f838 <CRYPTO_SetDstDesc+0x78>)
   1f7f4:	681b      	ldr	r3, [r3, #0]
   1f7f6:	049b      	lsls	r3, r3, #18
   1f7f8:	d5fa      	bpl.n	1f7f0 <CRYPTO_SetDstDesc+0x30>
   1f7fa:	6821      	ldr	r1, [r4, #0]
   1f7fc:	480f      	ldr	r0, [pc, #60]	; (1f83c <CRYPTO_SetDstDesc+0x7c>)
   1f7fe:	b2c9      	uxtb	r1, r1
   1f800:	e8bd 4070 	ldmia.w	sp!, {r4, r5, r6, lr}
   1f804:	f006 beec 	b.w	265e0 <DiagPrintf>
   1f808:	4a0d      	ldr	r2, [pc, #52]	; (1f840 <CRYPTO_SetDstDesc+0x80>)
   1f80a:	4b09      	ldr	r3, [pc, #36]	; (1f830 <CRYPTO_SetDstDesc+0x70>)
   1f80c:	e843 f300 	tt	r3, r3
   1f810:	f413 0f80 	tst.w	r3, #4194304	; 0x400000
   1f814:	4c0b      	ldr	r4, [pc, #44]	; (1f844 <CRYPTO_SetDstDesc+0x84>)
   1f816:	bf18      	it	ne
   1f818:	4614      	movne	r4, r2
   1f81a:	e7de      	b.n	1f7da <CRYPTO_SetDstDesc+0x1a>
   1f81c:	462a      	mov	r2, r5
   1f81e:	4631      	mov	r1, r6
   1f820:	4809      	ldr	r0, [pc, #36]	; (1f848 <CRYPTO_SetDstDesc+0x88>)
   1f822:	f006 fedd 	bl	265e0 <DiagPrintf>
   1f826:	6066      	str	r6, [r4, #4]
   1f828:	60a5      	str	r5, [r4, #8]
   1f82a:	e7e1      	b.n	1f7f0 <CRYPTO_SetDstDesc+0x30>
   1f82c:	50100000 	.word	0x50100000
   1f830:	000265e1 	.word	0x000265e1
   1f834:	40100000 	.word	0x40100000
   1f838:	20004004 	.word	0x20004004
   1f83c:	00043454 	.word	0x00043454
   1f840:	50108000 	.word	0x50108000
   1f844:	40108000 	.word	0x40108000
   1f848:	00043420 	.word	0x00043420

0001f84c <CRYPTO_CleanCmdOk>:
   1f84c:	b9a0      	cbnz	r0, 1f878 <CRYPTO_CleanCmdOk+0x2c>
   1f84e:	490f      	ldr	r1, [pc, #60]	; (1f88c <CRYPTO_CleanCmdOk+0x40>)
   1f850:	4a0f      	ldr	r2, [pc, #60]	; (1f890 <CRYPTO_CleanCmdOk+0x44>)
   1f852:	e842 f200 	tt	r2, r2
   1f856:	f412 0f80 	tst.w	r2, #4194304	; 0x400000
   1f85a:	4b0e      	ldr	r3, [pc, #56]	; (1f894 <CRYPTO_CleanCmdOk+0x48>)
   1f85c:	bf18      	it	ne
   1f85e:	460b      	movne	r3, r1
   1f860:	691a      	ldr	r2, [r3, #16]
   1f862:	6919      	ldr	r1, [r3, #16]
   1f864:	0212      	lsls	r2, r2, #8
   1f866:	f402 027f 	and.w	r2, r2, #16711680	; 0xff0000
   1f86a:	430a      	orrs	r2, r1
   1f86c:	611a      	str	r2, [r3, #16]
   1f86e:	691a      	ldr	r2, [r3, #16]
   1f870:	f042 0210 	orr.w	r2, r2, #16
   1f874:	611a      	str	r2, [r3, #16]
   1f876:	4770      	bx	lr
   1f878:	4907      	ldr	r1, [pc, #28]	; (1f898 <CRYPTO_CleanCmdOk+0x4c>)
   1f87a:	4a05      	ldr	r2, [pc, #20]	; (1f890 <CRYPTO_CleanCmdOk+0x44>)
   1f87c:	e842 f200 	tt	r2, r2
   1f880:	f412 0f80 	tst.w	r2, #4194304	; 0x400000
   1f884:	4b05      	ldr	r3, [pc, #20]	; (1f89c <CRYPTO_CleanCmdOk+0x50>)
   1f886:	bf18      	it	ne
   1f888:	460b      	movne	r3, r1
   1f88a:	e7e9      	b.n	1f860 <CRYPTO_CleanCmdOk+0x14>
   1f88c:	50100000 	.word	0x50100000
   1f890:	000265e1 	.word	0x000265e1
   1f894:	40100000 	.word	0x40100000
   1f898:	50108000 	.word	0x50108000
   1f89c:	40108000 	.word	0x40108000

0001f8a0 <CRYPTO_ClearAllINT>:
   1f8a0:	b508      	push	{r3, lr}
   1f8a2:	b970      	cbnz	r0, 1f8c2 <CRYPTO_ClearAllINT+0x22>
   1f8a4:	490c      	ldr	r1, [pc, #48]	; (1f8d8 <CRYPTO_ClearAllINT+0x38>)
   1f8a6:	4a0d      	ldr	r2, [pc, #52]	; (1f8dc <CRYPTO_ClearAllINT+0x3c>)
   1f8a8:	e842 f200 	tt	r2, r2
   1f8ac:	f412 0f80 	tst.w	r2, #4194304	; 0x400000
   1f8b0:	4b0b      	ldr	r3, [pc, #44]	; (1f8e0 <CRYPTO_ClearAllINT+0x40>)
   1f8b2:	bf18      	it	ne
   1f8b4:	460b      	movne	r3, r1
   1f8b6:	f64f 71ff 	movw	r1, #65535	; 0xffff
   1f8ba:	4a0a      	ldr	r2, [pc, #40]	; (1f8e4 <CRYPTO_ClearAllINT+0x44>)
   1f8bc:	61d9      	str	r1, [r3, #28]
   1f8be:	4790      	blx	r2
   1f8c0:	bd08      	pop	{r3, pc}
   1f8c2:	4909      	ldr	r1, [pc, #36]	; (1f8e8 <CRYPTO_ClearAllINT+0x48>)
   1f8c4:	4a05      	ldr	r2, [pc, #20]	; (1f8dc <CRYPTO_ClearAllINT+0x3c>)
   1f8c6:	e842 f200 	tt	r2, r2
   1f8ca:	f412 0f80 	tst.w	r2, #4194304	; 0x400000
   1f8ce:	4b07      	ldr	r3, [pc, #28]	; (1f8ec <CRYPTO_ClearAllINT+0x4c>)
   1f8d0:	bf18      	it	ne
   1f8d2:	460b      	movne	r3, r1
   1f8d4:	e7ef      	b.n	1f8b6 <CRYPTO_ClearAllINT+0x16>
   1f8d6:	bf00      	nop
   1f8d8:	50100000 	.word	0x50100000
   1f8dc:	000265e1 	.word	0x000265e1
   1f8e0:	40100000 	.word	0x40100000
   1f8e4:	0001f84d 	.word	0x0001f84d
   1f8e8:	50108000 	.word	0x50108000
   1f8ec:	40108000 	.word	0x40108000

0001f8f0 <CRYPTO_SetCmdBuf>:
   1f8f0:	b5f8      	push	{r3, r4, r5, r6, r7, lr}
   1f8f2:	4604      	mov	r4, r0
   1f8f4:	4ba2      	ldr	r3, [pc, #648]	; (1fb80 <CRYPTO_SetCmdBuf+0x290>)
   1f8f6:	460d      	mov	r5, r1
   1f8f8:	2220      	movs	r2, #32
   1f8fa:	2100      	movs	r1, #0
   1f8fc:	f500 70c4 	add.w	r0, r0, #392	; 0x188
   1f900:	6ce7      	ldr	r7, [r4, #76]	; 0x4c
   1f902:	6d66      	ldr	r6, [r4, #84]	; 0x54
   1f904:	4798      	blx	r3
   1f906:	68e3      	ldr	r3, [r4, #12]
   1f908:	3301      	adds	r3, #1
   1f90a:	d06d      	beq.n	1f9e8 <CRYPTO_SetCmdBuf+0xf8>
   1f90c:	1e2b      	subs	r3, r5, #0
   1f90e:	f894 518a 	ldrb.w	r5, [r4, #394]	; 0x18a
   1f912:	f894 202c 	ldrb.w	r2, [r4, #44]	; 0x2c
   1f916:	bf18      	it	ne
   1f918:	2301      	movne	r3, #1
   1f91a:	f025 057c 	bic.w	r5, r5, #124	; 0x7c
   1f91e:	2a01      	cmp	r2, #1
   1f920:	ea4f 1383 	mov.w	r3, r3, lsl #6
   1f924:	f043 0304 	orr.w	r3, r3, #4
   1f928:	ea43 0305 	orr.w	r3, r3, r5
   1f92c:	f884 318a 	strb.w	r3, [r4, #394]	; 0x18a
   1f930:	d04d      	beq.n	1f9ce <CRYPTO_SetCmdBuf+0xde>
   1f932:	7c63      	ldrb	r3, [r4, #17]
   1f934:	7c22      	ldrb	r2, [r4, #16]
   1f936:	b303      	cbz	r3, 1f97a <CRYPTO_SetCmdBuf+0x8a>
   1f938:	f894 318f 	ldrb.w	r3, [r4, #399]	; 0x18f
   1f93c:	f063 0355 	orn	r3, r3, #85	; 0x55
   1f940:	f884 318f 	strb.w	r3, [r4, #399]	; 0x18f
   1f944:	2a00      	cmp	r2, #0
   1f946:	f000 8099 	beq.w	1fa7c <CRYPTO_SetCmdBuf+0x18c>
   1f94a:	f894 3189 	ldrb.w	r3, [r4, #393]	; 0x189
   1f94e:	f894 202d 	ldrb.w	r2, [r4, #45]	; 0x2d
   1f952:	f043 0320 	orr.w	r3, r3, #32
   1f956:	2a01      	cmp	r2, #1
   1f958:	f884 3189 	strb.w	r3, [r4, #393]	; 0x189
   1f95c:	f000 80e0 	beq.w	1fb20 <CRYPTO_SetCmdBuf+0x230>
   1f960:	09b6      	lsrs	r6, r6, #6
   1f962:	f8a4 6192 	strh.w	r6, [r4, #402]	; 0x192
   1f966:	f894 318a 	ldrb.w	r3, [r4, #394]	; 0x18a
   1f96a:	f003 037d 	and.w	r3, r3, #125	; 0x7d
   1f96e:	f884 318a 	strb.w	r3, [r4, #394]	; 0x18a
   1f972:	2340      	movs	r3, #64	; 0x40
   1f974:	f884 318b 	strb.w	r3, [r4, #395]	; 0x18b
   1f978:	bdf8      	pop	{r3, r4, r5, r6, r7, pc}
   1f97a:	7ca3      	ldrb	r3, [r4, #18]
   1f97c:	2b00      	cmp	r3, #0
   1f97e:	d173      	bne.n	1fa68 <CRYPTO_SetCmdBuf+0x178>
   1f980:	7d23      	ldrb	r3, [r4, #20]
   1f982:	2b00      	cmp	r3, #0
   1f984:	d0de      	beq.n	1f944 <CRYPTO_SetCmdBuf+0x54>
   1f986:	2b1c      	cmp	r3, #28
   1f988:	f000 80dc 	beq.w	1fb44 <CRYPTO_SetCmdBuf+0x254>
   1f98c:	2b20      	cmp	r3, #32
   1f98e:	f000 8095 	beq.w	1fabc <CRYPTO_SetCmdBuf+0x1cc>
   1f992:	2b30      	cmp	r3, #48	; 0x30
   1f994:	f000 809d 	beq.w	1fad2 <CRYPTO_SetCmdBuf+0x1e2>
   1f998:	2b40      	cmp	r3, #64	; 0x40
   1f99a:	d1d3      	bne.n	1f944 <CRYPTO_SetCmdBuf+0x54>
   1f99c:	f8d4 3188 	ldr.w	r3, [r4, #392]	; 0x188
   1f9a0:	2105      	movs	r1, #5
   1f9a2:	f361 3390 	bfi	r3, r1, #14, #3
   1f9a6:	f8c4 3188 	str.w	r3, [r4, #392]	; 0x188
   1f9aa:	2a00      	cmp	r2, #0
   1f9ac:	f000 809b 	beq.w	1fae6 <CRYPTO_SetCmdBuf+0x1f6>
   1f9b0:	f894 3189 	ldrb.w	r3, [r4, #393]	; 0x189
   1f9b4:	f894 202d 	ldrb.w	r2, [r4, #45]	; 0x2d
   1f9b8:	f043 0320 	orr.w	r3, r3, #32
   1f9bc:	2a01      	cmp	r2, #1
   1f9be:	f884 3189 	strb.w	r3, [r4, #393]	; 0x189
   1f9c2:	f000 80ca 	beq.w	1fb5a <CRYPTO_SetCmdBuf+0x26a>
   1f9c6:	09f6      	lsrs	r6, r6, #7
   1f9c8:	f8a4 6192 	strh.w	r6, [r4, #402]	; 0x192
   1f9cc:	e7cb      	b.n	1f966 <CRYPTO_SetCmdBuf+0x76>
   1f9ce:	b2db      	uxtb	r3, r3
   1f9d0:	2200      	movs	r2, #0
   1f9d2:	f043 0320 	orr.w	r3, r3, #32
   1f9d6:	f884 202c 	strb.w	r2, [r4, #44]	; 0x2c
   1f9da:	7c22      	ldrb	r2, [r4, #16]
   1f9dc:	f884 318a 	strb.w	r3, [r4, #394]	; 0x18a
   1f9e0:	7c63      	ldrb	r3, [r4, #17]
   1f9e2:	2b00      	cmp	r3, #0
   1f9e4:	d0c9      	beq.n	1f97a <CRYPTO_SetCmdBuf+0x8a>
   1f9e6:	e7a7      	b.n	1f938 <CRYPTO_SetCmdBuf+0x48>
   1f9e8:	f894 2188 	ldrb.w	r2, [r4, #392]	; 0x188
   1f9ec:	6863      	ldr	r3, [r4, #4]
   1f9ee:	f363 0203 	bfi	r2, r3, #0, #4
   1f9f2:	f884 2188 	strb.w	r2, [r4, #392]	; 0x188
   1f9f6:	7a22      	ldrb	r2, [r4, #8]
   1f9f8:	b34a      	cbz	r2, 1fa4e <CRYPTO_SetCmdBuf+0x15e>
   1f9fa:	f894 2188 	ldrb.w	r2, [r4, #392]	; 0x188
   1f9fe:	f36f 1205 	bfc	r2, #4, #2
   1fa02:	f884 2188 	strb.w	r2, [r4, #392]	; 0x188
   1fa06:	6c62      	ldr	r2, [r4, #68]	; 0x44
   1fa08:	2a18      	cmp	r2, #24
   1fa0a:	d072      	beq.n	1faf2 <CRYPTO_SetCmdBuf+0x202>
   1fa0c:	2a20      	cmp	r2, #32
   1fa0e:	d078      	beq.n	1fb02 <CRYPTO_SetCmdBuf+0x212>
   1fa10:	2a10      	cmp	r2, #16
   1fa12:	d07e      	beq.n	1fb12 <CRYPTO_SetCmdBuf+0x222>
   1fa14:	f894 218c 	ldrb.w	r2, [r4, #396]	; 0x18c
   1fa18:	360f      	adds	r6, #15
   1fa1a:	f003 030f 	and.w	r3, r3, #15
   1fa1e:	69a1      	ldr	r1, [r4, #24]
   1fa20:	0936      	lsrs	r6, r6, #4
   1fa22:	f361 1207 	bfi	r2, r1, #4, #4
   1fa26:	2b08      	cmp	r3, #8
   1fa28:	f8a4 6192 	strh.w	r6, [r4, #402]	; 0x192
   1fa2c:	f884 218c 	strb.w	r2, [r4, #396]	; 0x18c
   1fa30:	d10d      	bne.n	1fa4e <CRYPTO_SetCmdBuf+0x15e>
   1fa32:	370f      	adds	r7, #15
   1fa34:	f894 3191 	ldrb.w	r3, [r4, #401]	; 0x191
   1fa38:	b2d2      	uxtb	r2, r2
   1fa3a:	69e1      	ldr	r1, [r4, #28]
   1fa3c:	093f      	lsrs	r7, r7, #4
   1fa3e:	f361 0203 	bfi	r2, r1, #0, #4
   1fa42:	f367 0305 	bfi	r3, r7, #0, #6
   1fa46:	f884 218c 	strb.w	r2, [r4, #396]	; 0x18c
   1fa4a:	f884 3191 	strb.w	r3, [r4, #401]	; 0x191
   1fa4e:	7a63      	ldrb	r3, [r4, #9]
   1fa50:	2b00      	cmp	r3, #0
   1fa52:	d18e      	bne.n	1f972 <CRYPTO_SetCmdBuf+0x82>
   1fa54:	f894 3188 	ldrb.w	r3, [r4, #392]	; 0x188
   1fa58:	f043 0380 	orr.w	r3, r3, #128	; 0x80
   1fa5c:	f884 3188 	strb.w	r3, [r4, #392]	; 0x188
   1fa60:	2340      	movs	r3, #64	; 0x40
   1fa62:	f884 318b 	strb.w	r3, [r4, #395]	; 0x18b
   1fa66:	bdf8      	pop	{r3, r4, r5, r6, r7, pc}
   1fa68:	f8d4 3188 	ldr.w	r3, [r4, #392]	; 0x188
   1fa6c:	2101      	movs	r1, #1
   1fa6e:	f361 3390 	bfi	r3, r1, #14, #3
   1fa72:	f8c4 3188 	str.w	r3, [r4, #392]	; 0x188
   1fa76:	2a00      	cmp	r2, #0
   1fa78:	f47f af67 	bne.w	1f94a <CRYPTO_SetCmdBuf+0x5a>
   1fa7c:	f894 302d 	ldrb.w	r3, [r4, #45]	; 0x2d
   1fa80:	2b01      	cmp	r3, #1
   1fa82:	f47f af6d 	bne.w	1f960 <CRYPTO_SetCmdBuf+0x70>
   1fa86:	f894 218c 	ldrb.w	r2, [r4, #396]	; 0x18c
   1fa8a:	360f      	adds	r6, #15
   1fa8c:	69a1      	ldr	r1, [r4, #24]
   1fa8e:	6b23      	ldr	r3, [r4, #48]	; 0x30
   1fa90:	0936      	lsrs	r6, r6, #4
   1fa92:	f361 1207 	bfi	r2, r1, #4, #4
   1fa96:	00db      	lsls	r3, r3, #3
   1fa98:	f8a4 6192 	strh.w	r6, [r4, #402]	; 0x192
   1fa9c:	f884 218c 	strb.w	r2, [r4, #396]	; 0x18c
   1faa0:	f8c4 3194 	str.w	r3, [r4, #404]	; 0x194
   1faa4:	f894 318a 	ldrb.w	r3, [r4, #394]	; 0x18a
   1faa8:	f003 037d 	and.w	r3, r3, #125	; 0x7d
   1faac:	f043 0302 	orr.w	r3, r3, #2
   1fab0:	f884 318a 	strb.w	r3, [r4, #394]	; 0x18a
   1fab4:	2340      	movs	r3, #64	; 0x40
   1fab6:	f884 318b 	strb.w	r3, [r4, #395]	; 0x18b
   1faba:	bdf8      	pop	{r3, r4, r5, r6, r7, pc}
   1fabc:	f8d4 3188 	ldr.w	r3, [r4, #392]	; 0x188
   1fac0:	2103      	movs	r1, #3
   1fac2:	f361 3390 	bfi	r3, r1, #14, #3
   1fac6:	f8c4 3188 	str.w	r3, [r4, #392]	; 0x188
   1faca:	2a00      	cmp	r2, #0
   1facc:	f47f af3d 	bne.w	1f94a <CRYPTO_SetCmdBuf+0x5a>
   1fad0:	e7d4      	b.n	1fa7c <CRYPTO_SetCmdBuf+0x18c>
   1fad2:	f8d4 3188 	ldr.w	r3, [r4, #392]	; 0x188
   1fad6:	2104      	movs	r1, #4
   1fad8:	f361 3390 	bfi	r3, r1, #14, #3
   1fadc:	f8c4 3188 	str.w	r3, [r4, #392]	; 0x188
   1fae0:	2a00      	cmp	r2, #0
   1fae2:	f47f af65 	bne.w	1f9b0 <CRYPTO_SetCmdBuf+0xc0>
   1fae6:	f894 302d 	ldrb.w	r3, [r4, #45]	; 0x2d
   1faea:	2b01      	cmp	r3, #1
   1faec:	f47f af6b 	bne.w	1f9c6 <CRYPTO_SetCmdBuf+0xd6>
   1faf0:	e7c9      	b.n	1fa86 <CRYPTO_SetCmdBuf+0x196>
   1faf2:	f894 2189 	ldrb.w	r2, [r4, #393]	; 0x189
   1faf6:	2101      	movs	r1, #1
   1faf8:	f361 0201 	bfi	r2, r1, #0, #2
   1fafc:	f884 2189 	strb.w	r2, [r4, #393]	; 0x189
   1fb00:	e788      	b.n	1fa14 <CRYPTO_SetCmdBuf+0x124>
   1fb02:	f894 2189 	ldrb.w	r2, [r4, #393]	; 0x189
   1fb06:	2102      	movs	r1, #2
   1fb08:	f361 0201 	bfi	r2, r1, #0, #2
   1fb0c:	f884 2189 	strb.w	r2, [r4, #393]	; 0x189
   1fb10:	e780      	b.n	1fa14 <CRYPTO_SetCmdBuf+0x124>
   1fb12:	f894 2189 	ldrb.w	r2, [r4, #393]	; 0x189
   1fb16:	f36f 0201 	bfc	r2, #0, #2
   1fb1a:	f884 2189 	strb.w	r2, [r4, #393]	; 0x189
   1fb1e:	e779      	b.n	1fa14 <CRYPTO_SetCmdBuf+0x124>
   1fb20:	6b23      	ldr	r3, [r4, #48]	; 0x30
   1fb22:	360f      	adds	r6, #15
   1fb24:	f894 218c 	ldrb.w	r2, [r4, #396]	; 0x18c
   1fb28:	69a1      	ldr	r1, [r4, #24]
   1fb2a:	00db      	lsls	r3, r3, #3
   1fb2c:	0936      	lsrs	r6, r6, #4
   1fb2e:	f361 1207 	bfi	r2, r1, #4, #4
   1fb32:	f503 7300 	add.w	r3, r3, #512	; 0x200
   1fb36:	f8a4 6192 	strh.w	r6, [r4, #402]	; 0x192
   1fb3a:	f884 218c 	strb.w	r2, [r4, #396]	; 0x18c
   1fb3e:	f8c4 3194 	str.w	r3, [r4, #404]	; 0x194
   1fb42:	e7af      	b.n	1faa4 <CRYPTO_SetCmdBuf+0x1b4>
   1fb44:	f8d4 3188 	ldr.w	r3, [r4, #392]	; 0x188
   1fb48:	2102      	movs	r1, #2
   1fb4a:	f361 3390 	bfi	r3, r1, #14, #3
   1fb4e:	f8c4 3188 	str.w	r3, [r4, #392]	; 0x188
   1fb52:	2a00      	cmp	r2, #0
   1fb54:	f47f aef9 	bne.w	1f94a <CRYPTO_SetCmdBuf+0x5a>
   1fb58:	e790      	b.n	1fa7c <CRYPTO_SetCmdBuf+0x18c>
   1fb5a:	6b23      	ldr	r3, [r4, #48]	; 0x30
   1fb5c:	360f      	adds	r6, #15
   1fb5e:	f894 218c 	ldrb.w	r2, [r4, #396]	; 0x18c
   1fb62:	69a1      	ldr	r1, [r4, #24]
   1fb64:	00db      	lsls	r3, r3, #3
   1fb66:	0936      	lsrs	r6, r6, #4
   1fb68:	f361 1207 	bfi	r2, r1, #4, #4
   1fb6c:	f503 6380 	add.w	r3, r3, #1024	; 0x400
   1fb70:	f8a4 6192 	strh.w	r6, [r4, #402]	; 0x192
   1fb74:	f884 218c 	strb.w	r2, [r4, #396]	; 0x18c
   1fb78:	f8c4 3194 	str.w	r3, [r4, #404]	; 0x194
   1fb7c:	e792      	b.n	1faa4 <CRYPTO_SetCmdBuf+0x1b4>
   1fb7e:	bf00      	nop
   1fb80:	000272a9 	.word	0x000272a9

0001fb84 <CRYPTO_SrcDescKeyIv>:
   1fb84:	e92d 4ff0 	stmdb	sp!, {r4, r5, r6, r7, r8, r9, sl, fp, lr}
   1fb88:	461d      	mov	r5, r3
   1fb8a:	f890 302d 	ldrb.w	r3, [r0, #45]	; 0x2d
   1fb8e:	b083      	sub	sp, #12
   1fb90:	f04f 0b00 	mov.w	fp, #0
   1fb94:	3b00      	subs	r3, #0
   1fb96:	460e      	mov	r6, r1
   1fb98:	4629      	mov	r1, r5
   1fb9a:	4604      	mov	r4, r0
   1fb9c:	bf18      	it	ne
   1fb9e:	2301      	movne	r3, #1
   1fba0:	4617      	mov	r7, r2
   1fba2:	f8dd 8030 	ldr.w	r8, [sp, #48]	; 0x30
   1fba6:	f504 7ac4 	add.w	sl, r4, #392	; 0x188
   1fbaa:	019b      	lsls	r3, r3, #6
   1fbac:	f443 43c6 	orr.w	r3, r3, #25344	; 0x6300
   1fbb0:	f363 4b1f 	bfi	fp, r3, #16, #16
   1fbb4:	f7ff fe9c 	bl	1f8f0 <CRYPTO_SetCmdBuf>
   1fbb8:	4bb2      	ldr	r3, [pc, #712]	; (1fe84 <CRYPTO_SrcDescKeyIv+0x300>)
   1fbba:	695b      	ldr	r3, [r3, #20]
   1fbbc:	03d8      	lsls	r0, r3, #15
   1fbbe:	d513      	bpl.n	1fbe8 <CRYPTO_SrcDescKeyIv+0x64>
   1fbc0:	f01a 011f 	ands.w	r1, sl, #31
   1fbc4:	f040 80c0 	bne.w	1fd48 <CRYPTO_SrcDescKeyIv+0x1c4>
   1fbc8:	4653      	mov	r3, sl
   1fbca:	2120      	movs	r1, #32
   1fbcc:	f3bf 8f4f 	dsb	sy
   1fbd0:	48ac      	ldr	r0, [pc, #688]	; (1fe84 <CRYPTO_SrcDescKeyIv+0x300>)
   1fbd2:	4419      	add	r1, r3
   1fbd4:	f8c0 3270 	str.w	r3, [r0, #624]	; 0x270
   1fbd8:	3320      	adds	r3, #32
   1fbda:	1aca      	subs	r2, r1, r3
   1fbdc:	2a00      	cmp	r2, #0
   1fbde:	dcf9      	bgt.n	1fbd4 <CRYPTO_SrcDescKeyIv+0x50>
   1fbe0:	f3bf 8f4f 	dsb	sy
   1fbe4:	f3bf 8f6f 	isb	sy
   1fbe8:	f8df 92b8 	ldr.w	r9, [pc, #696]	; 1fea4 <CRYPTO_SrcDescKeyIv+0x320>
   1fbec:	f8d9 3008 	ldr.w	r3, [r9, #8]
   1fbf0:	0499      	lsls	r1, r3, #18
   1fbf2:	f100 810d 	bmi.w	1fe10 <CRYPTO_SrcDescKeyIv+0x28c>
   1fbf6:	4651      	mov	r1, sl
   1fbf8:	4658      	mov	r0, fp
   1fbfa:	4642      	mov	r2, r8
   1fbfc:	f7ff fd98 	bl	1f730 <CRYPTO_SetSrcDesc>
   1fc00:	6863      	ldr	r3, [r4, #4]
   1fc02:	3301      	adds	r3, #1
   1fc04:	d037      	beq.n	1fc76 <CRYPTO_SrcDescKeyIv+0xf2>
   1fc06:	489f      	ldr	r0, [pc, #636]	; (1fe84 <CRYPTO_SrcDescKeyIv+0x300>)
   1fc08:	2100      	movs	r1, #0
   1fc0a:	6c63      	ldr	r3, [r4, #68]	; 0x44
   1fc0c:	6942      	ldr	r2, [r0, #20]
   1fc0e:	f3c3 0b83 	ubfx	fp, r3, #2, #4
   1fc12:	f8d4 a048 	ldr.w	sl, [r4, #72]	; 0x48
   1fc16:	03d2      	lsls	r2, r2, #15
   1fc18:	f04b 4bc0 	orr.w	fp, fp, #1610612736	; 0x60000000
   1fc1c:	d521      	bpl.n	1fc62 <CRYPTO_SrcDescKeyIv+0xde>
   1fc1e:	ea0a 0203 	and.w	r2, sl, r3
   1fc22:	3201      	adds	r2, #1
   1fc24:	f000 8142 	beq.w	1feac <CRYPTO_SrcDescKeyIv+0x328>
   1fc28:	f01a 021f 	ands.w	r2, sl, #31
   1fc2c:	f040 811e 	bne.w	1fe6c <CRYPTO_SrcDescKeyIv+0x2e8>
   1fc30:	461a      	mov	r2, r3
   1fc32:	4651      	mov	r1, sl
   1fc34:	f3bf 8f4f 	dsb	sy
   1fc38:	2a00      	cmp	r2, #0
   1fc3a:	dd0e      	ble.n	1fc5a <CRYPTO_SrcDescKeyIv+0xd6>
   1fc3c:	1e50      	subs	r0, r2, #1
   1fc3e:	f101 0220 	add.w	r2, r1, #32
   1fc42:	f8df c240 	ldr.w	ip, [pc, #576]	; 1fe84 <CRYPTO_SrcDescKeyIv+0x300>
   1fc46:	f020 001f 	bic.w	r0, r0, #31
   1fc4a:	4410      	add	r0, r2
   1fc4c:	4282      	cmp	r2, r0
   1fc4e:	f8cc 1270 	str.w	r1, [ip, #624]	; 0x270
   1fc52:	4611      	mov	r1, r2
   1fc54:	f102 0220 	add.w	r2, r2, #32
   1fc58:	d1f8      	bne.n	1fc4c <CRYPTO_SrcDescKeyIv+0xc8>
   1fc5a:	f3bf 8f4f 	dsb	sy
   1fc5e:	f3bf 8f6f 	isb	sy
   1fc62:	f8d9 2008 	ldr.w	r2, [r9, #8]
   1fc66:	0492      	lsls	r2, r2, #18
   1fc68:	f100 80c0 	bmi.w	1fdec <CRYPTO_SrcDescKeyIv+0x268>
   1fc6c:	4651      	mov	r1, sl
   1fc6e:	4658      	mov	r0, fp
   1fc70:	4642      	mov	r2, r8
   1fc72:	f7ff fd5d 	bl	1f730 <CRYPTO_SetSrcDesc>
   1fc76:	b3b6      	cbz	r6, 1fce6 <CRYPTO_SrcDescKeyIv+0x162>
   1fc78:	b3af      	cbz	r7, 1fce6 <CRYPTO_SrcDescKeyIv+0x162>
   1fc7a:	4982      	ldr	r1, [pc, #520]	; (1fe84 <CRYPTO_SrcDescKeyIv+0x300>)
   1fc7c:	ea4f 0a87 	mov.w	sl, r7, lsl #2
   1fc80:	2200      	movs	r2, #0
   1fc82:	694b      	ldr	r3, [r1, #20]
   1fc84:	f00a 0af0 	and.w	sl, sl, #240	; 0xf0
   1fc88:	03d8      	lsls	r0, r3, #15
   1fc8a:	f04a 4ac0 	orr.w	sl, sl, #1610612736	; 0x60000000
   1fc8e:	d520      	bpl.n	1fcd2 <CRYPTO_SrcDescKeyIv+0x14e>
   1fc90:	ea06 0307 	and.w	r3, r6, r7
   1fc94:	3301      	adds	r3, #1
   1fc96:	f000 813a 	beq.w	1ff0e <CRYPTO_SrcDescKeyIv+0x38a>
   1fc9a:	f016 031f 	ands.w	r3, r6, #31
   1fc9e:	f040 80e9 	bne.w	1fe74 <CRYPTO_SrcDescKeyIv+0x2f0>
   1fca2:	463b      	mov	r3, r7
   1fca4:	4632      	mov	r2, r6
   1fca6:	f3bf 8f4f 	dsb	sy
   1fcaa:	2b00      	cmp	r3, #0
   1fcac:	dd0d      	ble.n	1fcca <CRYPTO_SrcDescKeyIv+0x146>
   1fcae:	1e59      	subs	r1, r3, #1
   1fcb0:	f102 0320 	add.w	r3, r2, #32
   1fcb4:	4873      	ldr	r0, [pc, #460]	; (1fe84 <CRYPTO_SrcDescKeyIv+0x300>)
   1fcb6:	f021 011f 	bic.w	r1, r1, #31
   1fcba:	4419      	add	r1, r3
   1fcbc:	428b      	cmp	r3, r1
   1fcbe:	f8c0 2270 	str.w	r2, [r0, #624]	; 0x270
   1fcc2:	461a      	mov	r2, r3
   1fcc4:	f103 0320 	add.w	r3, r3, #32
   1fcc8:	d1f8      	bne.n	1fcbc <CRYPTO_SrcDescKeyIv+0x138>
   1fcca:	f3bf 8f4f 	dsb	sy
   1fcce:	f3bf 8f6f 	isb	sy
   1fcd2:	f8d9 3008 	ldr.w	r3, [r9, #8]
   1fcd6:	049a      	lsls	r2, r3, #18
   1fcd8:	f100 80ab 	bmi.w	1fe32 <CRYPTO_SrcDescKeyIv+0x2ae>
   1fcdc:	4631      	mov	r1, r6
   1fcde:	4650      	mov	r0, sl
   1fce0:	4642      	mov	r2, r8
   1fce2:	f7ff fd25 	bl	1f730 <CRYPTO_SetSrcDesc>
   1fce6:	7c23      	ldrb	r3, [r4, #16]
   1fce8:	b333      	cbz	r3, 1fd38 <CRYPTO_SrcDescKeyIv+0x1b4>
   1fcea:	4b66      	ldr	r3, [pc, #408]	; (1fe84 <CRYPTO_SrcDescKeyIv+0x300>)
   1fcec:	f104 0664 	add.w	r6, r4, #100	; 0x64
   1fcf0:	f8df b1b4 	ldr.w	fp, [pc, #436]	; 1fea8 <CRYPTO_SrcDescKeyIv+0x324>
   1fcf4:	695b      	ldr	r3, [r3, #20]
   1fcf6:	03db      	lsls	r3, r3, #15
   1fcf8:	d514      	bpl.n	1fd24 <CRYPTO_SrcDescKeyIv+0x1a0>
   1fcfa:	f016 011f 	ands.w	r1, r6, #31
   1fcfe:	f040 8093 	bne.w	1fe28 <CRYPTO_SrcDescKeyIv+0x2a4>
   1fd02:	4633      	mov	r3, r6
   1fd04:	f44f 7182 	mov.w	r1, #260	; 0x104
   1fd08:	f3bf 8f4f 	dsb	sy
   1fd0c:	485d      	ldr	r0, [pc, #372]	; (1fe84 <CRYPTO_SrcDescKeyIv+0x300>)
   1fd0e:	4419      	add	r1, r3
   1fd10:	f8c0 3270 	str.w	r3, [r0, #624]	; 0x270
   1fd14:	3320      	adds	r3, #32
   1fd16:	1aca      	subs	r2, r1, r3
   1fd18:	2a00      	cmp	r2, #0
   1fd1a:	dcf9      	bgt.n	1fd10 <CRYPTO_SrcDescKeyIv+0x18c>
   1fd1c:	f3bf 8f4f 	dsb	sy
   1fd20:	f3bf 8f6f 	isb	sy
   1fd24:	f8d9 3008 	ldr.w	r3, [r9, #8]
   1fd28:	049f      	lsls	r7, r3, #18
   1fd2a:	f100 808e 	bmi.w	1fe4a <CRYPTO_SrcDescKeyIv+0x2c6>
   1fd2e:	4631      	mov	r1, r6
   1fd30:	4658      	mov	r0, fp
   1fd32:	4642      	mov	r2, r8
   1fd34:	f7ff fcfc 	bl	1f730 <CRYPTO_SetSrcDesc>
   1fd38:	b11d      	cbz	r5, 1fd42 <CRYPTO_SrcDescKeyIv+0x1be>
   1fd3a:	f895 3062 	ldrb.w	r3, [r5, #98]	; 0x62
   1fd3e:	2b01      	cmp	r3, #1
   1fd40:	d006      	beq.n	1fd50 <CRYPTO_SrcDescKeyIv+0x1cc>
   1fd42:	b003      	add	sp, #12
   1fd44:	e8bd 8ff0 	ldmia.w	sp!, {r4, r5, r6, r7, r8, r9, sl, fp, pc}
   1fd48:	3120      	adds	r1, #32
   1fd4a:	f02a 031f 	bic.w	r3, sl, #31
   1fd4e:	e73d      	b.n	1fbcc <CRYPTO_SrcDescKeyIv+0x48>
   1fd50:	6aa0      	ldr	r0, [r4, #40]	; 0x28
   1fd52:	281c      	cmp	r0, #28
   1fd54:	f000 8092 	beq.w	1fe7c <CRYPTO_SrcDescKeyIv+0x2f8>
   1fd58:	2830      	cmp	r0, #48	; 0x30
   1fd5a:	f000 80fd 	beq.w	1ff58 <CRYPTO_SrcDescKeyIv+0x3d4>
   1fd5e:	0881      	lsrs	r1, r0, #2
   1fd60:	f3c0 0785 	ubfx	r7, r0, #2, #6
   1fd64:	f895 3063 	ldrb.w	r3, [r5, #99]	; 0x63
   1fd68:	2b01      	cmp	r3, #1
   1fd6a:	f000 80f1 	beq.w	1ff50 <CRYPTO_SrcDescKeyIv+0x3cc>
   1fd6e:	78ab      	ldrb	r3, [r5, #2]
   1fd70:	2b01      	cmp	r3, #1
   1fd72:	d00a      	beq.n	1fd8a <CRYPTO_SrcDescKeyIv+0x206>
   1fd74:	b149      	cbz	r1, 1fd8a <CRYPTO_SrcDescKeyIv+0x206>
   1fd76:	f105 031c 	add.w	r3, r5, #28
   1fd7a:	eb03 0181 	add.w	r1, r3, r1, lsl #2
   1fd7e:	f853 2f04 	ldr.w	r2, [r3, #4]!
   1fd82:	ba12      	rev	r2, r2
   1fd84:	428b      	cmp	r3, r1
   1fd86:	601a      	str	r2, [r3, #0]
   1fd88:	d1f9      	bne.n	1fd7e <CRYPTO_SrcDescKeyIv+0x1fa>
   1fd8a:	4c3e      	ldr	r4, [pc, #248]	; (1fe84 <CRYPTO_SrcDescKeyIv+0x300>)
   1fd8c:	f105 0120 	add.w	r1, r5, #32
   1fd90:	6963      	ldr	r3, [r4, #20]
   1fd92:	03dd      	lsls	r5, r3, #15
   1fd94:	d521      	bpl.n	1fdda <CRYPTO_SrcDescKeyIv+0x256>
   1fd96:	ea01 0300 	and.w	r3, r1, r0
   1fd9a:	3301      	adds	r3, #1
   1fd9c:	f000 80e0 	beq.w	1ff60 <CRYPTO_SrcDescKeyIv+0x3dc>
   1fda0:	f011 031f 	ands.w	r3, r1, #31
   1fda4:	f000 80fb 	beq.w	1ff9e <CRYPTO_SrcDescKeyIv+0x41a>
   1fda8:	4418      	add	r0, r3
   1fdaa:	f021 031f 	bic.w	r3, r1, #31
   1fdae:	f3bf 8f4f 	dsb	sy
   1fdb2:	2800      	cmp	r0, #0
   1fdb4:	dd0d      	ble.n	1fdd2 <CRYPTO_SrcDescKeyIv+0x24e>
   1fdb6:	3801      	subs	r0, #1
   1fdb8:	f103 0220 	add.w	r2, r3, #32
   1fdbc:	4c31      	ldr	r4, [pc, #196]	; (1fe84 <CRYPTO_SrcDescKeyIv+0x300>)
   1fdbe:	f020 001f 	bic.w	r0, r0, #31
   1fdc2:	4410      	add	r0, r2
   1fdc4:	4290      	cmp	r0, r2
   1fdc6:	f8c4 3270 	str.w	r3, [r4, #624]	; 0x270
   1fdca:	4613      	mov	r3, r2
   1fdcc:	f102 0220 	add.w	r2, r2, #32
   1fdd0:	d1f8      	bne.n	1fdc4 <CRYPTO_SrcDescKeyIv+0x240>
   1fdd2:	f3bf 8f4f 	dsb	sy
   1fdd6:	f3bf 8f6f 	isb	sy
   1fdda:	f447 40c0 	orr.w	r0, r7, #24576	; 0x6000
   1fdde:	4642      	mov	r2, r8
   1fde0:	0400      	lsls	r0, r0, #16
   1fde2:	f7ff fca5 	bl	1f730 <CRYPTO_SetSrcDesc>
   1fde6:	b003      	add	sp, #12
   1fde8:	e8bd 8ff0 	ldmia.w	sp!, {r4, r5, r6, r7, r8, r9, sl, fp, pc}
   1fdec:	4652      	mov	r2, sl
   1fdee:	4926      	ldr	r1, [pc, #152]	; (1fe88 <CRYPTO_SrcDescKeyIv+0x304>)
   1fdf0:	4826      	ldr	r0, [pc, #152]	; (1fe8c <CRYPTO_SrcDescKeyIv+0x308>)
   1fdf2:	9301      	str	r3, [sp, #4]
   1fdf4:	f006 fbf4 	bl	265e0 <DiagPrintf>
   1fdf8:	9b01      	ldr	r3, [sp, #4]
   1fdfa:	4650      	mov	r0, sl
   1fdfc:	4a24      	ldr	r2, [pc, #144]	; (1fe90 <CRYPTO_SrcDescKeyIv+0x30c>)
   1fdfe:	4619      	mov	r1, r3
   1fe00:	4b24      	ldr	r3, [pc, #144]	; (1fe94 <CRYPTO_SrcDescKeyIv+0x310>)
   1fe02:	4798      	blx	r3
   1fe04:	4651      	mov	r1, sl
   1fe06:	4658      	mov	r0, fp
   1fe08:	4642      	mov	r2, r8
   1fe0a:	f7ff fc91 	bl	1f730 <CRYPTO_SetSrcDesc>
   1fe0e:	e732      	b.n	1fc76 <CRYPTO_SrcDescKeyIv+0xf2>
   1fe10:	4652      	mov	r2, sl
   1fe12:	491d      	ldr	r1, [pc, #116]	; (1fe88 <CRYPTO_SrcDescKeyIv+0x304>)
   1fe14:	2320      	movs	r3, #32
   1fe16:	481d      	ldr	r0, [pc, #116]	; (1fe8c <CRYPTO_SrcDescKeyIv+0x308>)
   1fe18:	f006 fbe2 	bl	265e0 <DiagPrintf>
   1fe1c:	4a1e      	ldr	r2, [pc, #120]	; (1fe98 <CRYPTO_SrcDescKeyIv+0x314>)
   1fe1e:	2120      	movs	r1, #32
   1fe20:	4650      	mov	r0, sl
   1fe22:	4b1c      	ldr	r3, [pc, #112]	; (1fe94 <CRYPTO_SrcDescKeyIv+0x310>)
   1fe24:	4798      	blx	r3
   1fe26:	e6e6      	b.n	1fbf6 <CRYPTO_SrcDescKeyIv+0x72>
   1fe28:	f501 7182 	add.w	r1, r1, #260	; 0x104
   1fe2c:	f026 031f 	bic.w	r3, r6, #31
   1fe30:	e76a      	b.n	1fd08 <CRYPTO_SrcDescKeyIv+0x184>
   1fe32:	4632      	mov	r2, r6
   1fe34:	463b      	mov	r3, r7
   1fe36:	4914      	ldr	r1, [pc, #80]	; (1fe88 <CRYPTO_SrcDescKeyIv+0x304>)
   1fe38:	4814      	ldr	r0, [pc, #80]	; (1fe8c <CRYPTO_SrcDescKeyIv+0x308>)
   1fe3a:	f006 fbd1 	bl	265e0 <DiagPrintf>
   1fe3e:	4639      	mov	r1, r7
   1fe40:	4a16      	ldr	r2, [pc, #88]	; (1fe9c <CRYPTO_SrcDescKeyIv+0x318>)
   1fe42:	4630      	mov	r0, r6
   1fe44:	4b13      	ldr	r3, [pc, #76]	; (1fe94 <CRYPTO_SrcDescKeyIv+0x310>)
   1fe46:	4798      	blx	r3
   1fe48:	e748      	b.n	1fcdc <CRYPTO_SrcDescKeyIv+0x158>
   1fe4a:	4632      	mov	r2, r6
   1fe4c:	490e      	ldr	r1, [pc, #56]	; (1fe88 <CRYPTO_SrcDescKeyIv+0x304>)
   1fe4e:	2380      	movs	r3, #128	; 0x80
   1fe50:	480e      	ldr	r0, [pc, #56]	; (1fe8c <CRYPTO_SrcDescKeyIv+0x308>)
   1fe52:	f006 fbc5 	bl	265e0 <DiagPrintf>
   1fe56:	4630      	mov	r0, r6
   1fe58:	4a11      	ldr	r2, [pc, #68]	; (1fea0 <CRYPTO_SrcDescKeyIv+0x31c>)
   1fe5a:	2180      	movs	r1, #128	; 0x80
   1fe5c:	4b0d      	ldr	r3, [pc, #52]	; (1fe94 <CRYPTO_SrcDescKeyIv+0x310>)
   1fe5e:	4798      	blx	r3
   1fe60:	4631      	mov	r1, r6
   1fe62:	4658      	mov	r0, fp
   1fe64:	4642      	mov	r2, r8
   1fe66:	f7ff fc63 	bl	1f730 <CRYPTO_SetSrcDesc>
   1fe6a:	e765      	b.n	1fd38 <CRYPTO_SrcDescKeyIv+0x1b4>
   1fe6c:	441a      	add	r2, r3
   1fe6e:	f02a 011f 	bic.w	r1, sl, #31
   1fe72:	e6df      	b.n	1fc34 <CRYPTO_SrcDescKeyIv+0xb0>
   1fe74:	443b      	add	r3, r7
   1fe76:	f026 021f 	bic.w	r2, r6, #31
   1fe7a:	e714      	b.n	1fca6 <CRYPTO_SrcDescKeyIv+0x122>
   1fe7c:	2108      	movs	r1, #8
   1fe7e:	2020      	movs	r0, #32
   1fe80:	460f      	mov	r7, r1
   1fe82:	e76f      	b.n	1fd64 <CRYPTO_SrcDescKeyIv+0x1e0>
   1fe84:	e000ed00 	.word	0xe000ed00
   1fe88:	00043494 	.word	0x00043494
   1fe8c:	000434ac 	.word	0x000434ac
   1fe90:	000434ec 	.word	0x000434ec
   1fe94:	0001f621 	.word	0x0001f621
   1fe98:	000434d8 	.word	0x000434d8
   1fe9c:	000434f4 	.word	0x000434f4
   1fea0:	000434fc 	.word	0x000434fc
   1fea4:	20004004 	.word	0x20004004
   1fea8:	60004000 	.word	0x60004000
   1feac:	f8c0 1084 	str.w	r1, [r0, #132]	; 0x84
   1feb0:	f3bf 8f4f 	dsb	sy
   1feb4:	f8d0 2080 	ldr.w	r2, [r0, #128]	; 0x80
   1feb8:	f8cd 8030 	str.w	r8, [sp, #48]	; 0x30
   1febc:	46a8      	mov	r8, r5
   1febe:	f3c2 3e4e 	ubfx	lr, r2, #13, #15
   1fec2:	f3c2 02c9 	ubfx	r2, r2, #3, #10
   1fec6:	4625      	mov	r5, r4
   1fec8:	461c      	mov	r4, r3
   1feca:	ea4f 1e4e 	mov.w	lr, lr, lsl #5
   1fece:	4613      	mov	r3, r2
   1fed0:	f643 7ce0 	movw	ip, #16352	; 0x3fe0
   1fed4:	461a      	mov	r2, r3
   1fed6:	ea0e 0c0c 	and.w	ip, lr, ip
   1feda:	ea4c 7182 	orr.w	r1, ip, r2, lsl #30
   1fede:	3a01      	subs	r2, #1
   1fee0:	f8c0 1274 	str.w	r1, [r0, #628]	; 0x274
   1fee4:	d2f9      	bcs.n	1feda <CRYPTO_SrcDescKeyIv+0x356>
   1fee6:	f1ae 0e20 	sub.w	lr, lr, #32
   1feea:	f11e 0f20 	cmn.w	lr, #32
   1feee:	d1ef      	bne.n	1fed0 <CRYPTO_SrcDescKeyIv+0x34c>
   1fef0:	4623      	mov	r3, r4
   1fef2:	462c      	mov	r4, r5
   1fef4:	4645      	mov	r5, r8
   1fef6:	f8dd 8030 	ldr.w	r8, [sp, #48]	; 0x30
   1fefa:	f3bf 8f4f 	dsb	sy
   1fefe:	f3bf 8f6f 	isb	sy
   1ff02:	f8d9 2008 	ldr.w	r2, [r9, #8]
   1ff06:	0492      	lsls	r2, r2, #18
   1ff08:	f57f aeb0 	bpl.w	1fc6c <CRYPTO_SrcDescKeyIv+0xe8>
   1ff0c:	e76e      	b.n	1fdec <CRYPTO_SrcDescKeyIv+0x268>
   1ff0e:	f8c1 2084 	str.w	r2, [r1, #132]	; 0x84
   1ff12:	f3bf 8f4f 	dsb	sy
   1ff16:	f8d1 3080 	ldr.w	r3, [r1, #128]	; 0x80
   1ff1a:	f643 7be0 	movw	fp, #16352	; 0x3fe0
   1ff1e:	f3c3 3c4e 	ubfx	ip, r3, #13, #15
   1ff22:	f3c3 0ec9 	ubfx	lr, r3, #3, #10
   1ff26:	ea4f 1c4c 	mov.w	ip, ip, lsl #5
   1ff2a:	ea0c 000b 	and.w	r0, ip, fp
   1ff2e:	4673      	mov	r3, lr
   1ff30:	ea40 7283 	orr.w	r2, r0, r3, lsl #30
   1ff34:	3b01      	subs	r3, #1
   1ff36:	f8c1 2274 	str.w	r2, [r1, #628]	; 0x274
   1ff3a:	d2f9      	bcs.n	1ff30 <CRYPTO_SrcDescKeyIv+0x3ac>
   1ff3c:	f1ac 0c20 	sub.w	ip, ip, #32
   1ff40:	f11c 0f20 	cmn.w	ip, #32
   1ff44:	d1f1      	bne.n	1ff2a <CRYPTO_SrcDescKeyIv+0x3a6>
   1ff46:	f3bf 8f4f 	dsb	sy
   1ff4a:	f3bf 8f6f 	isb	sy
   1ff4e:	e6c0      	b.n	1fcd2 <CRYPTO_SrcDescKeyIv+0x14e>
   1ff50:	2300      	movs	r3, #0
   1ff52:	f885 3063 	strb.w	r3, [r5, #99]	; 0x63
   1ff56:	e718      	b.n	1fd8a <CRYPTO_SrcDescKeyIv+0x206>
   1ff58:	2110      	movs	r1, #16
   1ff5a:	2040      	movs	r0, #64	; 0x40
   1ff5c:	460f      	mov	r7, r1
   1ff5e:	e701      	b.n	1fd64 <CRYPTO_SrcDescKeyIv+0x1e0>
   1ff60:	2300      	movs	r3, #0
   1ff62:	f8c4 3084 	str.w	r3, [r4, #132]	; 0x84
   1ff66:	f3bf 8f4f 	dsb	sy
   1ff6a:	f8d4 3080 	ldr.w	r3, [r4, #128]	; 0x80
   1ff6e:	f643 75e0 	movw	r5, #16352	; 0x3fe0
   1ff72:	f3c3 3c4e 	ubfx	ip, r3, #13, #15
   1ff76:	f3c3 03c9 	ubfx	r3, r3, #3, #10
   1ff7a:	ea4f 1c4c 	mov.w	ip, ip, lsl #5
   1ff7e:	ea0c 0605 	and.w	r6, ip, r5
   1ff82:	461a      	mov	r2, r3
   1ff84:	ea46 7082 	orr.w	r0, r6, r2, lsl #30
   1ff88:	3a01      	subs	r2, #1
   1ff8a:	f8c4 0274 	str.w	r0, [r4, #628]	; 0x274
   1ff8e:	1c50      	adds	r0, r2, #1
   1ff90:	d1f8      	bne.n	1ff84 <CRYPTO_SrcDescKeyIv+0x400>
   1ff92:	f1ac 0c20 	sub.w	ip, ip, #32
   1ff96:	f11c 0f20 	cmn.w	ip, #32
   1ff9a:	d1f0      	bne.n	1ff7e <CRYPTO_SrcDescKeyIv+0x3fa>
   1ff9c:	e719      	b.n	1fdd2 <CRYPTO_SrcDescKeyIv+0x24e>
   1ff9e:	460b      	mov	r3, r1
   1ffa0:	e705      	b.n	1fdae <CRYPTO_SrcDescKeyIv+0x22a>
   1ffa2:	bf00      	nop

0001ffa4 <CRYPTO_Reset>:
   1ffa4:	b410      	push	{r4}
   1ffa6:	4a0d      	ldr	r2, [pc, #52]	; (1ffdc <CRYPTO_Reset+0x38>)
   1ffa8:	2001      	movs	r0, #1
   1ffaa:	e842 f200 	tt	r2, r2
   1ffae:	4c0c      	ldr	r4, [pc, #48]	; (1ffe0 <CRYPTO_Reset+0x3c>)
   1ffb0:	f412 0f80 	tst.w	r2, #4194304	; 0x400000
   1ffb4:	4b0b      	ldr	r3, [pc, #44]	; (1ffe4 <CRYPTO_Reset+0x40>)
   1ffb6:	f44f 1280 	mov.w	r2, #1048576	; 0x100000
   1ffba:	bf18      	it	ne
   1ffbc:	4623      	movne	r3, r4
   1ffbe:	490a      	ldr	r1, [pc, #40]	; (1ffe8 <CRYPTO_Reset+0x44>)
   1ffc0:	f85d 4b04 	ldr.w	r4, [sp], #4
   1ffc4:	6118      	str	r0, [r3, #16]
   1ffc6:	631a      	str	r2, [r3, #48]	; 0x30
   1ffc8:	6b1a      	ldr	r2, [r3, #48]	; 0x30
   1ffca:	f042 0206 	orr.w	r2, r2, #6
   1ffce:	631a      	str	r2, [r3, #48]	; 0x30
   1ffd0:	6b1a      	ldr	r2, [r3, #48]	; 0x30
   1ffd2:	f442 62c2 	orr.w	r2, r2, #1552	; 0x610
   1ffd6:	631a      	str	r2, [r3, #48]	; 0x30
   1ffd8:	6199      	str	r1, [r3, #24]
   1ffda:	4770      	bx	lr
   1ffdc:	000265e1 	.word	0x000265e1
   1ffe0:	50100000 	.word	0x50100000
   1ffe4:	40100000 	.word	0x40100000
   1ffe8:	01010000 	.word	0x01010000

0001ffec <CRYPTO_SHA_Reset>:
   1ffec:	b410      	push	{r4}
   1ffee:	4a0d      	ldr	r2, [pc, #52]	; (20024 <CRYPTO_SHA_Reset+0x38>)
   1fff0:	2001      	movs	r0, #1
   1fff2:	e842 f200 	tt	r2, r2
   1fff6:	4c0c      	ldr	r4, [pc, #48]	; (20028 <CRYPTO_SHA_Reset+0x3c>)
   1fff8:	f412 0f80 	tst.w	r2, #4194304	; 0x400000
   1fffc:	4b0b      	ldr	r3, [pc, #44]	; (2002c <CRYPTO_SHA_Reset+0x40>)
   1fffe:	f44f 1280 	mov.w	r2, #1048576	; 0x100000
   20002:	bf18      	it	ne
   20004:	4623      	movne	r3, r4
   20006:	490a      	ldr	r1, [pc, #40]	; (20030 <CRYPTO_SHA_Reset+0x44>)
   20008:	f85d 4b04 	ldr.w	r4, [sp], #4
   2000c:	6118      	str	r0, [r3, #16]
   2000e:	631a      	str	r2, [r3, #48]	; 0x30
   20010:	6b1a      	ldr	r2, [r3, #48]	; 0x30
   20012:	f042 0206 	orr.w	r2, r2, #6
   20016:	631a      	str	r2, [r3, #48]	; 0x30
   20018:	6b1a      	ldr	r2, [r3, #48]	; 0x30
   2001a:	f442 62c2 	orr.w	r2, r2, #1552	; 0x610
   2001e:	631a      	str	r2, [r3, #48]	; 0x30
   20020:	6199      	str	r1, [r3, #24]
   20022:	4770      	bx	lr
   20024:	000265e1 	.word	0x000265e1
   20028:	50108000 	.word	0x50108000
   2002c:	40108000 	.word	0x40108000
   20030:	01010000 	.word	0x01010000

00020034 <CRYPTO_SetSecurityModeAD>:
   20034:	e92d 43f8 	stmdb	sp!, {r3, r4, r5, r6, r7, r8, r9, lr}
   20038:	460d      	mov	r5, r1
   2003a:	4616      	mov	r6, r2
   2003c:	4699      	mov	r9, r3
   2003e:	4604      	mov	r4, r0
   20040:	e9dd 8709 	ldrd	r8, r7, [sp, #36]	; 0x24
   20044:	2800      	cmp	r0, #0
   20046:	f000 80a7 	beq.w	20198 <CRYPTO_SetSecurityModeAD+0x164>
   2004a:	7823      	ldrb	r3, [r4, #0]
   2004c:	2b01      	cmp	r3, #1
   2004e:	d004      	beq.n	2005a <CRYPTO_SetSecurityModeAD+0x26>
   20050:	f44f 711f 	mov.w	r1, #636	; 0x27c
   20054:	485e      	ldr	r0, [pc, #376]	; (201d0 <CRYPTO_SetSecurityModeAD+0x19c>)
   20056:	f7ff f8af 	bl	1f1b8 <io_assert_failed>
   2005a:	2300      	movs	r3, #0
   2005c:	1c69      	adds	r1, r5, #1
   2005e:	6065      	str	r5, [r4, #4]
   20060:	8123      	strh	r3, [r4, #8]
   20062:	d008      	beq.n	20076 <CRYPTO_SetSecurityModeAD+0x42>
   20064:	f005 0330 	and.w	r3, r5, #48	; 0x30
   20068:	2b20      	cmp	r3, #32
   2006a:	d078      	beq.n	2015e <CRYPTO_SetSecurityModeAD+0x12a>
   2006c:	f085 0580 	eor.w	r5, r5, #128	; 0x80
   20070:	f3c5 15c0 	ubfx	r5, r5, #7, #1
   20074:	7265      	strb	r5, [r4, #9]
   20076:	1c72      	adds	r2, r6, #1
   20078:	60e6      	str	r6, [r4, #12]
   2007a:	d07f      	beq.n	2017c <CRYPTO_SetSecurityModeAD+0x148>
   2007c:	f006 0303 	and.w	r3, r6, #3
   20080:	f3c6 0280 	ubfx	r2, r6, #2, #1
   20084:	7422      	strb	r2, [r4, #16]
   20086:	f1a3 0202 	sub.w	r2, r3, #2
   2008a:	2b01      	cmp	r3, #1
   2008c:	fab2 f282 	clz	r2, r2
   20090:	ea4f 1252 	mov.w	r2, r2, lsr #5
   20094:	7462      	strb	r2, [r4, #17]
   20096:	fab3 f283 	clz	r2, r3
   2009a:	ea4f 1252 	mov.w	r2, r2, lsr #5
   2009e:	74a2      	strb	r2, [r4, #18]
   200a0:	bf0c      	ite	eq
   200a2:	2201      	moveq	r2, #1
   200a4:	2200      	movne	r2, #0
   200a6:	74e2      	strb	r2, [r4, #19]
   200a8:	d13e      	bne.n	20128 <CRYPTO_SetSecurityModeAD+0xf4>
   200aa:	f006 03f0 	and.w	r3, r6, #240	; 0xf0
   200ae:	2b40      	cmp	r3, #64	; 0x40
   200b0:	d07f      	beq.n	201b2 <CRYPTO_SetSecurityModeAD+0x17e>
   200b2:	d869      	bhi.n	20188 <CRYPTO_SetSecurityModeAD+0x154>
   200b4:	2b10      	cmp	r3, #16
   200b6:	d06c      	beq.n	20192 <CRYPTO_SetSecurityModeAD+0x15e>
   200b8:	2b20      	cmp	r3, #32
   200ba:	d173      	bne.n	201a4 <CRYPTO_SetSecurityModeAD+0x170>
   200bc:	7523      	strb	r3, [r4, #20]
   200be:	62a3      	str	r3, [r4, #40]	; 0x28
   200c0:	9b08      	ldr	r3, [sp, #32]
   200c2:	6227      	str	r7, [r4, #32]
   200c4:	e9c4 3911 	strd	r3, r9, [r4, #68]	; 0x44
   200c8:	2f00      	cmp	r7, #0
   200ca:	d038      	beq.n	2013e <CRYPTO_SetSecurityModeAD+0x10a>
   200cc:	7d23      	ldrb	r3, [r4, #20]
   200ce:	f104 0064 	add.w	r0, r4, #100	; 0x64
   200d2:	2b30      	cmp	r3, #48	; 0x30
   200d4:	65e0      	str	r0, [r4, #92]	; 0x5c
   200d6:	d045      	beq.n	20164 <CRYPTO_SetSecurityModeAD+0x130>
   200d8:	2b40      	cmp	r3, #64	; 0x40
   200da:	d043      	beq.n	20164 <CRYPTO_SetSecurityModeAD+0x130>
   200dc:	f104 03a4 	add.w	r3, r4, #164	; 0xa4
   200e0:	2240      	movs	r2, #64	; 0x40
   200e2:	2136      	movs	r1, #54	; 0x36
   200e4:	4d3b      	ldr	r5, [pc, #236]	; (201d4 <CRYPTO_SetSecurityModeAD+0x1a0>)
   200e6:	6623      	str	r3, [r4, #96]	; 0x60
   200e8:	47a8      	blx	r5
   200ea:	2240      	movs	r2, #64	; 0x40
   200ec:	215c      	movs	r1, #92	; 0x5c
   200ee:	6e20      	ldr	r0, [r4, #96]	; 0x60
   200f0:	47a8      	blx	r5
   200f2:	4b39      	ldr	r3, [pc, #228]	; (201d8 <CRYPTO_SetSecurityModeAD+0x1a4>)
   200f4:	681d      	ldr	r5, [r3, #0]
   200f6:	bb25      	cbnz	r5, 20142 <CRYPTO_SetSecurityModeAD+0x10e>
   200f8:	f1b8 0f00 	cmp.w	r8, #0
   200fc:	d061      	beq.n	201c2 <CRYPTO_SetSecurityModeAD+0x18e>
   200fe:	f8c4 8024 	str.w	r8, [r4, #36]	; 0x24
   20102:	e001      	b.n	20108 <CRYPTO_SetSecurityModeAD+0xd4>
   20104:	f8d4 8024 	ldr.w	r8, [r4, #36]	; 0x24
   20108:	6de2      	ldr	r2, [r4, #92]	; 0x5c
   2010a:	f818 3005 	ldrb.w	r3, [r8, r5]
   2010e:	5d51      	ldrb	r1, [r2, r5]
   20110:	404b      	eors	r3, r1
   20112:	5553      	strb	r3, [r2, r5]
   20114:	6e22      	ldr	r2, [r4, #96]	; 0x60
   20116:	6a63      	ldr	r3, [r4, #36]	; 0x24
   20118:	5d51      	ldrb	r1, [r2, r5]
   2011a:	5d5b      	ldrb	r3, [r3, r5]
   2011c:	404b      	eors	r3, r1
   2011e:	5553      	strb	r3, [r2, r5]
   20120:	3501      	adds	r5, #1
   20122:	42af      	cmp	r7, r5
   20124:	d1ee      	bne.n	20104 <CRYPTO_SetSecurityModeAD+0xd0>
   20126:	e00c      	b.n	20142 <CRYPTO_SetSecurityModeAD+0x10e>
   20128:	2200      	movs	r2, #0
   2012a:	7522      	strb	r2, [r4, #20]
   2012c:	b993      	cbnz	r3, 20154 <CRYPTO_SetSecurityModeAD+0x120>
   2012e:	2314      	movs	r3, #20
   20130:	6227      	str	r7, [r4, #32]
   20132:	62a3      	str	r3, [r4, #40]	; 0x28
   20134:	9b08      	ldr	r3, [sp, #32]
   20136:	e9c4 3911 	strd	r3, r9, [r4, #68]	; 0x44
   2013a:	2f00      	cmp	r7, #0
   2013c:	d1c6      	bne.n	200cc <CRYPTO_SetSecurityModeAD+0x98>
   2013e:	e9c4 7717 	strd	r7, r7, [r4, #92]	; 0x5c
   20142:	3601      	adds	r6, #1
   20144:	d003      	beq.n	2014e <CRYPTO_SetSecurityModeAD+0x11a>
   20146:	2201      	movs	r2, #1
   20148:	2300      	movs	r3, #0
   2014a:	85a2      	strh	r2, [r4, #44]	; 0x2c
   2014c:	6323      	str	r3, [r4, #48]	; 0x30
   2014e:	2000      	movs	r0, #0
   20150:	e8bd 83f8 	ldmia.w	sp!, {r3, r4, r5, r6, r7, r8, r9, pc}
   20154:	2b02      	cmp	r3, #2
   20156:	d114      	bne.n	20182 <CRYPTO_SetSecurityModeAD+0x14e>
   20158:	2310      	movs	r3, #16
   2015a:	62a3      	str	r3, [r4, #40]	; 0x28
   2015c:	e7b0      	b.n	200c0 <CRYPTO_SetSecurityModeAD+0x8c>
   2015e:	2301      	movs	r3, #1
   20160:	7223      	strb	r3, [r4, #8]
   20162:	e783      	b.n	2006c <CRYPTO_SetSecurityModeAD+0x38>
   20164:	f104 03e4 	add.w	r3, r4, #228	; 0xe4
   20168:	2280      	movs	r2, #128	; 0x80
   2016a:	2136      	movs	r1, #54	; 0x36
   2016c:	4d19      	ldr	r5, [pc, #100]	; (201d4 <CRYPTO_SetSecurityModeAD+0x1a0>)
   2016e:	6623      	str	r3, [r4, #96]	; 0x60
   20170:	47a8      	blx	r5
   20172:	2280      	movs	r2, #128	; 0x80
   20174:	215c      	movs	r1, #92	; 0x5c
   20176:	6e20      	ldr	r0, [r4, #96]	; 0x60
   20178:	47a8      	blx	r5
   2017a:	e7ba      	b.n	200f2 <CRYPTO_SetSecurityModeAD+0xbe>
   2017c:	2300      	movs	r3, #0
   2017e:	6123      	str	r3, [r4, #16]
   20180:	7523      	strb	r3, [r4, #20]
   20182:	2300      	movs	r3, #0
   20184:	62a3      	str	r3, [r4, #40]	; 0x28
   20186:	e79b      	b.n	200c0 <CRYPTO_SetSecurityModeAD+0x8c>
   20188:	2b80      	cmp	r3, #128	; 0x80
   2018a:	d10b      	bne.n	201a4 <CRYPTO_SetSecurityModeAD+0x170>
   2018c:	2340      	movs	r3, #64	; 0x40
   2018e:	7523      	strb	r3, [r4, #20]
   20190:	e795      	b.n	200be <CRYPTO_SetSecurityModeAD+0x8a>
   20192:	231c      	movs	r3, #28
   20194:	7523      	strb	r3, [r4, #20]
   20196:	e7f5      	b.n	20184 <CRYPTO_SetSecurityModeAD+0x150>
   20198:	f240 217b 	movw	r1, #635	; 0x27b
   2019c:	480c      	ldr	r0, [pc, #48]	; (201d0 <CRYPTO_SetSecurityModeAD+0x19c>)
   2019e:	f7ff f80b 	bl	1f1b8 <io_assert_failed>
   201a2:	e752      	b.n	2004a <CRYPTO_SetSecurityModeAD+0x16>
   201a4:	4b0d      	ldr	r3, [pc, #52]	; (201dc <CRYPTO_SetSecurityModeAD+0x1a8>)
   201a6:	681b      	ldr	r3, [r3, #0]
   201a8:	049b      	lsls	r3, r3, #18
   201aa:	d405      	bmi.n	201b8 <CRYPTO_SetSecurityModeAD+0x184>
   201ac:	2300      	movs	r3, #0
   201ae:	7523      	strb	r3, [r4, #20]
   201b0:	e7e8      	b.n	20184 <CRYPTO_SetSecurityModeAD+0x150>
   201b2:	2330      	movs	r3, #48	; 0x30
   201b4:	7523      	strb	r3, [r4, #20]
   201b6:	e7e5      	b.n	20184 <CRYPTO_SetSecurityModeAD+0x150>
   201b8:	4631      	mov	r1, r6
   201ba:	4809      	ldr	r0, [pc, #36]	; (201e0 <CRYPTO_SetSecurityModeAD+0x1ac>)
   201bc:	f006 fa10 	bl	265e0 <DiagPrintf>
   201c0:	e7f4      	b.n	201ac <CRYPTO_SetSecurityModeAD+0x178>
   201c2:	f240 21d7 	movw	r1, #727	; 0x2d7
   201c6:	4802      	ldr	r0, [pc, #8]	; (201d0 <CRYPTO_SetSecurityModeAD+0x19c>)
   201c8:	f7fe fff6 	bl	1f1b8 <io_assert_failed>
   201cc:	e797      	b.n	200fe <CRYPTO_SetSecurityModeAD+0xca>
   201ce:	bf00      	nop
   201d0:	000435e8 	.word	0x000435e8
   201d4:	000272a9 	.word	0x000272a9
   201d8:	200041e0 	.word	0x200041e0
   201dc:	20004004 	.word	0x20004004
   201e0:	00043504 	.word	0x00043504

000201e4 <CRYPTO_Init>:
   201e4:	2800      	cmp	r0, #0
   201e6:	4a06      	ldr	r2, [pc, #24]	; (20200 <CRYPTO_Init+0x1c>)
   201e8:	4b06      	ldr	r3, [pc, #24]	; (20204 <CRYPTO_Init+0x20>)
   201ea:	b510      	push	{r4, lr}
   201ec:	4604      	mov	r4, r0
   201ee:	bf14      	ite	ne
   201f0:	4604      	movne	r4, r0
   201f2:	4614      	moveq	r4, r2
   201f4:	4620      	mov	r0, r4
   201f6:	4798      	blx	r3
   201f8:	2301      	movs	r3, #1
   201fa:	2000      	movs	r0, #0
   201fc:	8023      	strh	r3, [r4, #0]
   201fe:	bd10      	pop	{r4, pc}
   20200:	20004200 	.word	0x20004200
   20204:	0001ffa5 	.word	0x0001ffa5

00020208 <CRYPTO_SHA_Init>:
   20208:	2800      	cmp	r0, #0
   2020a:	4a06      	ldr	r2, [pc, #24]	; (20224 <CRYPTO_SHA_Init+0x1c>)
   2020c:	4b06      	ldr	r3, [pc, #24]	; (20228 <CRYPTO_SHA_Init+0x20>)
   2020e:	b510      	push	{r4, lr}
   20210:	4604      	mov	r4, r0
   20212:	bf14      	ite	ne
   20214:	4604      	movne	r4, r0
   20216:	4614      	moveq	r4, r2
   20218:	4620      	mov	r0, r4
   2021a:	4798      	blx	r3
   2021c:	2301      	movs	r3, #1
   2021e:	2000      	movs	r0, #0
   20220:	8023      	strh	r3, [r4, #0]
   20222:	bd10      	pop	{r4, pc}
   20224:	20004440 	.word	0x20004440
   20228:	0001ffed 	.word	0x0001ffed

0002022c <CRYPTO_OTPKey_Init>:
   2022c:	b510      	push	{r4, lr}
   2022e:	4b12      	ldr	r3, [pc, #72]	; (20278 <CRYPTO_OTPKey_Init+0x4c>)
   20230:	4c12      	ldr	r4, [pc, #72]	; (2027c <CRYPTO_OTPKey_Init+0x50>)
   20232:	e843 f300 	tt	r3, r3
   20236:	f413 0f80 	tst.w	r3, #4194304	; 0x400000
   2023a:	4a11      	ldr	r2, [pc, #68]	; (20280 <CRYPTO_OTPKey_Init+0x54>)
   2023c:	bf18      	it	ne
   2023e:	4622      	movne	r2, r4
   20240:	2901      	cmp	r1, #1
   20242:	d003      	beq.n	2024c <CRYPTO_OTPKey_Init+0x20>
   20244:	2300      	movs	r3, #0
   20246:	4618      	mov	r0, r3
   20248:	6353      	str	r3, [r2, #52]	; 0x34
   2024a:	bd10      	pop	{r4, pc}
   2024c:	2803      	cmp	r0, #3
   2024e:	d805      	bhi.n	2025c <CRYPTO_OTPKey_Init+0x30>
   20250:	0743      	lsls	r3, r0, #29
   20252:	2000      	movs	r0, #0
   20254:	f043 4300 	orr.w	r3, r3, #2147483648	; 0x80000000
   20258:	6353      	str	r3, [r2, #52]	; 0x34
   2025a:	bd10      	pop	{r4, pc}
   2025c:	4b09      	ldr	r3, [pc, #36]	; (20284 <CRYPTO_OTPKey_Init+0x58>)
   2025e:	681b      	ldr	r3, [r3, #0]
   20260:	039b      	lsls	r3, r3, #14
   20262:	d402      	bmi.n	2026a <CRYPTO_OTPKey_Init+0x3e>
   20264:	f04f 30ff 	mov.w	r0, #4294967295	; 0xffffffff
   20268:	bd10      	pop	{r4, pc}
   2026a:	4807      	ldr	r0, [pc, #28]	; (20288 <CRYPTO_OTPKey_Init+0x5c>)
   2026c:	f006 f9b8 	bl	265e0 <DiagPrintf>
   20270:	f04f 30ff 	mov.w	r0, #4294967295	; 0xffffffff
   20274:	bd10      	pop	{r4, pc}
   20276:	bf00      	nop
   20278:	000265e1 	.word	0x000265e1
   2027c:	50100000 	.word	0x50100000
   20280:	40100000 	.word	0x40100000
   20284:	20004004 	.word	0x20004004
   20288:	00043540 	.word	0x00043540

0002028c <CRYPTO_OTPKey_SHA_Init>:
   2028c:	b510      	push	{r4, lr}
   2028e:	4b16      	ldr	r3, [pc, #88]	; (202e8 <CRYPTO_OTPKey_SHA_Init+0x5c>)
   20290:	4c16      	ldr	r4, [pc, #88]	; (202ec <CRYPTO_OTPKey_SHA_Init+0x60>)
   20292:	e843 f300 	tt	r3, r3
   20296:	f413 0f80 	tst.w	r3, #4194304	; 0x400000
   2029a:	4a15      	ldr	r2, [pc, #84]	; (202f0 <CRYPTO_OTPKey_SHA_Init+0x64>)
   2029c:	bf18      	it	ne
   2029e:	4622      	movne	r2, r4
   202a0:	2901      	cmp	r1, #1
   202a2:	d005      	beq.n	202b0 <CRYPTO_OTPKey_SHA_Init+0x24>
   202a4:	2300      	movs	r3, #0
   202a6:	4913      	ldr	r1, [pc, #76]	; (202f4 <CRYPTO_OTPKey_SHA_Init+0x68>)
   202a8:	4618      	mov	r0, r3
   202aa:	600b      	str	r3, [r1, #0]
   202ac:	6353      	str	r3, [r2, #52]	; 0x34
   202ae:	bd10      	pop	{r4, pc}
   202b0:	4b10      	ldr	r3, [pc, #64]	; (202f4 <CRYPTO_OTPKey_SHA_Init+0x68>)
   202b2:	6019      	str	r1, [r3, #0]
   202b4:	b168      	cbz	r0, 202d2 <CRYPTO_OTPKey_SHA_Init+0x46>
   202b6:	2801      	cmp	r0, #1
   202b8:	d006      	beq.n	202c8 <CRYPTO_OTPKey_SHA_Init+0x3c>
   202ba:	4b0f      	ldr	r3, [pc, #60]	; (202f8 <CRYPTO_OTPKey_SHA_Init+0x6c>)
   202bc:	681b      	ldr	r3, [r3, #0]
   202be:	039b      	lsls	r3, r3, #14
   202c0:	d40b      	bmi.n	202da <CRYPTO_OTPKey_SHA_Init+0x4e>
   202c2:	f04f 30ff 	mov.w	r0, #4294967295	; 0xffffffff
   202c6:	bd10      	pop	{r4, pc}
   202c8:	f04f 4360 	mov.w	r3, #3758096384	; 0xe0000000
   202cc:	2000      	movs	r0, #0
   202ce:	6353      	str	r3, [r2, #52]	; 0x34
   202d0:	bd10      	pop	{r4, pc}
   202d2:	f04f 4300 	mov.w	r3, #2147483648	; 0x80000000
   202d6:	6353      	str	r3, [r2, #52]	; 0x34
   202d8:	bd10      	pop	{r4, pc}
   202da:	4808      	ldr	r0, [pc, #32]	; (202fc <CRYPTO_OTPKey_SHA_Init+0x70>)
   202dc:	f006 f980 	bl	265e0 <DiagPrintf>
   202e0:	f04f 30ff 	mov.w	r0, #4294967295	; 0xffffffff
   202e4:	bd10      	pop	{r4, pc}
   202e6:	bf00      	nop
   202e8:	000265e1 	.word	0x000265e1
   202ec:	50108000 	.word	0x50108000
   202f0:	40108000 	.word	0x40108000
   202f4:	200041e0 	.word	0x200041e0
   202f8:	20004004 	.word	0x20004004
   202fc:	00043540 	.word	0x00043540

00020300 <CRYPTO_ProcessAD>:
   20300:	e92d 4ff0 	stmdb	sp!, {r4, r5, r6, r7, r8, r9, sl, fp, lr}
   20304:	4698      	mov	r8, r3
   20306:	b087      	sub	sp, #28
   20308:	7a03      	ldrb	r3, [r0, #8]
   2030a:	4683      	mov	fp, r0
   2030c:	460f      	mov	r7, r1
   2030e:	4616      	mov	r6, r2
   20310:	f8dd a054 	ldr.w	sl, [sp, #84]	; 0x54
   20314:	2b00      	cmp	r3, #0
   20316:	f000 80eb 	beq.w	204f0 <CRYPTO_ProcessAD+0x1f0>
   2031a:	4b7f      	ldr	r3, [pc, #508]	; (20518 <CRYPTO_ProcessAD+0x218>)
   2031c:	f04f 0900 	mov.w	r9, #0
   20320:	e843 f300 	tt	r3, r3
   20324:	f413 0f80 	tst.w	r3, #4194304	; 0x400000
   20328:	4b7c      	ldr	r3, [pc, #496]	; (2051c <CRYPTO_ProcessAD+0x21c>)
   2032a:	4d7d      	ldr	r5, [pc, #500]	; (20520 <CRYPTO_ProcessAD+0x220>)
   2032c:	bf18      	it	ne
   2032e:	461d      	movne	r5, r3
   20330:	2f00      	cmp	r7, #0
   20332:	f000 80eb 	beq.w	2050c <CRYPTO_ProcessAD+0x20c>
   20336:	f89b 3000 	ldrb.w	r3, [fp]
   2033a:	2b01      	cmp	r3, #1
   2033c:	d004      	beq.n	20348 <CRYPTO_ProcessAD+0x48>
   2033e:	f240 3183 	movw	r1, #899	; 0x383
   20342:	4878      	ldr	r0, [pc, #480]	; (20524 <CRYPTO_ProcessAD+0x224>)
   20344:	f7fe ff38 	bl	1f1b8 <io_assert_failed>
   20348:	4b77      	ldr	r3, [pc, #476]	; (20528 <CRYPTO_ProcessAD+0x228>)
   2034a:	4648      	mov	r0, r9
   2034c:	4798      	blx	r3
   2034e:	9b12      	ldr	r3, [sp, #72]	; 0x48
   20350:	f8cb 6054 	str.w	r6, [fp, #84]	; 0x54
   20354:	f8cb 304c 	str.w	r3, [fp, #76]	; 0x4c
   20358:	f006 030f 	and.w	r3, r6, #15
   2035c:	f8cb 3018 	str.w	r3, [fp, #24]
   20360:	425b      	negs	r3, r3
   20362:	f003 030f 	and.w	r3, r3, #15
   20366:	f8cb 3058 	str.w	r3, [fp, #88]	; 0x58
   2036a:	9b12      	ldr	r3, [sp, #72]	; 0x48
   2036c:	f003 030f 	and.w	r3, r3, #15
   20370:	f8cb 301c 	str.w	r3, [fp, #28]
   20374:	425b      	negs	r3, r3
   20376:	f003 030f 	and.w	r3, r3, #15
   2037a:	f8cb 3050 	str.w	r3, [fp, #80]	; 0x50
   2037e:	f8db 300c 	ldr.w	r3, [fp, #12]
   20382:	3301      	adds	r3, #1
   20384:	f000 81bb 	beq.w	206fe <CRYPTO_ProcessAD+0x3fe>
   20388:	f8db 3030 	ldr.w	r3, [fp, #48]	; 0x30
   2038c:	f8db 4028 	ldr.w	r4, [fp, #40]	; 0x28
   20390:	4433      	add	r3, r6
   20392:	f8cb 3030 	str.w	r3, [fp, #48]	; 0x30
   20396:	f1ba 0f00 	cmp.w	sl, #0
   2039a:	d002      	beq.n	203a2 <CRYPTO_ProcessAD+0xa2>
   2039c:	f8da 3074 	ldr.w	r3, [sl, #116]	; 0x74
   203a0:	b113      	cbz	r3, 203a8 <CRYPTO_ProcessAD+0xa8>
   203a2:	2301      	movs	r3, #1
   203a4:	f88b 302d 	strb.w	r3, [fp, #45]	; 0x2d
   203a8:	9b13      	ldr	r3, [sp, #76]	; 0x4c
   203aa:	2b00      	cmp	r3, #0
   203ac:	d03c      	beq.n	20428 <CRYPTO_ProcessAD+0x128>
   203ae:	9b13      	ldr	r3, [sp, #76]	; 0x4c
   203b0:	f013 031f 	ands.w	r3, r3, #31
   203b4:	9302      	str	r3, [sp, #8]
   203b6:	f040 8223 	bne.w	20800 <CRYPTO_ProcessAD+0x500>
   203ba:	f1ba 0f00 	cmp.w	sl, #0
   203be:	d004      	beq.n	203ca <CRYPTO_ProcessAD+0xca>
   203c0:	f89a 3062 	ldrb.w	r3, [sl, #98]	; 0x62
   203c4:	2b01      	cmp	r3, #1
   203c6:	f000 82fd 	beq.w	209c4 <CRYPTO_ProcessAD+0x6c4>
   203ca:	2370      	movs	r3, #112	; 0x70
   203cc:	2000      	movs	r0, #0
   203ce:	f363 601f 	bfi	r0, r3, #24, #8
   203d2:	4b56      	ldr	r3, [pc, #344]	; (2052c <CRYPTO_ProcessAD+0x22c>)
   203d4:	695a      	ldr	r2, [r3, #20]
   203d6:	f364 0007 	bfi	r0, r4, #0, #8
   203da:	03d2      	lsls	r2, r2, #15
   203dc:	d520      	bpl.n	20420 <CRYPTO_ProcessAD+0x120>
   203de:	9a13      	ldr	r2, [sp, #76]	; 0x4c
   203e0:	4022      	ands	r2, r4
   203e2:	3201      	adds	r2, #1
   203e4:	f000 821c 	beq.w	20820 <CRYPTO_ProcessAD+0x520>
   203e8:	9b02      	ldr	r3, [sp, #8]
   203ea:	2b00      	cmp	r3, #0
   203ec:	f040 823e 	bne.w	2086c <CRYPTO_ProcessAD+0x56c>
   203f0:	9a13      	ldr	r2, [sp, #76]	; 0x4c
   203f2:	f3bf 8f4f 	dsb	sy
   203f6:	2c00      	cmp	r4, #0
   203f8:	f340 822f 	ble.w	2085a <CRYPTO_ProcessAD+0x55a>
   203fc:	1e61      	subs	r1, r4, #1
   203fe:	f102 0320 	add.w	r3, r2, #32
   20402:	4c4a      	ldr	r4, [pc, #296]	; (2052c <CRYPTO_ProcessAD+0x22c>)
   20404:	f021 011f 	bic.w	r1, r1, #31
   20408:	4419      	add	r1, r3
   2040a:	4299      	cmp	r1, r3
   2040c:	f8c4 2270 	str.w	r2, [r4, #624]	; 0x270
   20410:	461a      	mov	r2, r3
   20412:	f103 0320 	add.w	r3, r3, #32
   20416:	d1f8      	bne.n	2040a <CRYPTO_ProcessAD+0x10a>
   20418:	f3bf 8f4f 	dsb	sy
   2041c:	f3bf 8f6f 	isb	sy
   20420:	9913      	ldr	r1, [sp, #76]	; 0x4c
   20422:	464a      	mov	r2, r9
   20424:	f7ff f9cc 	bl	1f7c0 <CRYPTO_SetDstDesc>
   20428:	4653      	mov	r3, sl
   2042a:	4641      	mov	r1, r8
   2042c:	9a10      	ldr	r2, [sp, #64]	; 0x40
   2042e:	4658      	mov	r0, fp
   20430:	f8cd 9000 	str.w	r9, [sp]
   20434:	f04f 4480 	mov.w	r4, #1073741824	; 0x40000000
   20438:	f7ff fba4 	bl	1fb84 <CRYPTO_SrcDescKeyIv>
   2043c:	9b11      	ldr	r3, [sp, #68]	; 0x44
   2043e:	2b00      	cmp	r3, #0
   20440:	f000 81db 	beq.w	207fa <CRYPTO_ProcessAD+0x4fa>
   20444:	4939      	ldr	r1, [pc, #228]	; (2052c <CRYPTO_ProcessAD+0x22c>)
   20446:	694b      	ldr	r3, [r1, #20]
   20448:	03db      	lsls	r3, r3, #15
   2044a:	d522      	bpl.n	20492 <CRYPTO_ProcessAD+0x192>
   2044c:	e9dd 3211 	ldrd	r3, r2, [sp, #68]	; 0x44
   20450:	4013      	ands	r3, r2
   20452:	9a11      	ldr	r2, [sp, #68]	; 0x44
   20454:	3301      	adds	r3, #1
   20456:	f000 826e 	beq.w	20936 <CRYPTO_ProcessAD+0x636>
   2045a:	9b11      	ldr	r3, [sp, #68]	; 0x44
   2045c:	f013 031f 	ands.w	r3, r3, #31
   20460:	f040 81d8 	bne.w	20814 <CRYPTO_ProcessAD+0x514>
   20464:	9b12      	ldr	r3, [sp, #72]	; 0x48
   20466:	f3bf 8f4f 	dsb	sy
   2046a:	2b00      	cmp	r3, #0
   2046c:	dd0d      	ble.n	2048a <CRYPTO_ProcessAD+0x18a>
   2046e:	1e59      	subs	r1, r3, #1
   20470:	f102 0320 	add.w	r3, r2, #32
   20474:	482d      	ldr	r0, [pc, #180]	; (2052c <CRYPTO_ProcessAD+0x22c>)
   20476:	f021 011f 	bic.w	r1, r1, #31
   2047a:	4419      	add	r1, r3
   2047c:	4299      	cmp	r1, r3
   2047e:	f8c0 2270 	str.w	r2, [r0, #624]	; 0x270
   20482:	461a      	mov	r2, r3
   20484:	f103 0320 	add.w	r3, r3, #32
   20488:	d1f8      	bne.n	2047c <CRYPTO_ProcessAD+0x17c>
   2048a:	f3bf 8f4f 	dsb	sy
   2048e:	f3bf 8f6f 	isb	sy
   20492:	9b12      	ldr	r3, [sp, #72]	; 0x48
   20494:	2b10      	cmp	r3, #16
   20496:	f240 812b 	bls.w	206f0 <CRYPTO_ProcessAD+0x3f0>
   2049a:	f8dd 8044 	ldr.w	r8, [sp, #68]	; 0x44
   2049e:	9a12      	ldr	r2, [sp, #72]	; 0x48
   204a0:	4643      	mov	r3, r8
   204a2:	f8df a0a4 	ldr.w	sl, [pc, #164]	; 20548 <CRYPTO_ProcessAD+0x248>
   204a6:	4413      	add	r3, r2
   204a8:	e9cd 5602 	strd	r5, r6, [sp, #8]
   204ac:	461d      	mov	r5, r3
   204ae:	e00c      	b.n	204ca <CRYPTO_ProcessAD+0x1ca>
   204b0:	4641      	mov	r1, r8
   204b2:	f108 0810 	add.w	r8, r8, #16
   204b6:	4620      	mov	r0, r4
   204b8:	464a      	mov	r2, r9
   204ba:	f7ff f939 	bl	1f730 <CRYPTO_SetSrcDesc>
   204be:	eba5 0308 	sub.w	r3, r5, r8
   204c2:	f04f 4480 	mov.w	r4, #1073741824	; 0x40000000
   204c6:	2b10      	cmp	r3, #16
   204c8:	d940      	bls.n	2054c <CRYPTO_ProcessAD+0x24c>
   204ca:	f8da 2008 	ldr.w	r2, [sl, #8]
   204ce:	2610      	movs	r6, #16
   204d0:	0490      	lsls	r0, r2, #18
   204d2:	f366 240c 	bfi	r4, r6, #8, #5
   204d6:	d5eb      	bpl.n	204b0 <CRYPTO_ProcessAD+0x1b0>
   204d8:	4633      	mov	r3, r6
   204da:	4642      	mov	r2, r8
   204dc:	4914      	ldr	r1, [pc, #80]	; (20530 <CRYPTO_ProcessAD+0x230>)
   204de:	4815      	ldr	r0, [pc, #84]	; (20534 <CRYPTO_ProcessAD+0x234>)
   204e0:	f006 f87e 	bl	265e0 <DiagPrintf>
   204e4:	4a14      	ldr	r2, [pc, #80]	; (20538 <CRYPTO_ProcessAD+0x238>)
   204e6:	4631      	mov	r1, r6
   204e8:	4640      	mov	r0, r8
   204ea:	4b14      	ldr	r3, [pc, #80]	; (2053c <CRYPTO_ProcessAD+0x23c>)
   204ec:	4798      	blx	r3
   204ee:	e7df      	b.n	204b0 <CRYPTO_ProcessAD+0x1b0>
   204f0:	4a13      	ldr	r2, [pc, #76]	; (20540 <CRYPTO_ProcessAD+0x240>)
   204f2:	f04f 0901 	mov.w	r9, #1
   204f6:	4b08      	ldr	r3, [pc, #32]	; (20518 <CRYPTO_ProcessAD+0x218>)
   204f8:	e843 f300 	tt	r3, r3
   204fc:	f413 0f80 	tst.w	r3, #4194304	; 0x400000
   20500:	4d10      	ldr	r5, [pc, #64]	; (20544 <CRYPTO_ProcessAD+0x244>)
   20502:	bf18      	it	ne
   20504:	4615      	movne	r5, r2
   20506:	2f00      	cmp	r7, #0
   20508:	f47f af15 	bne.w	20336 <CRYPTO_ProcessAD+0x36>
   2050c:	f44f 7160 	mov.w	r1, #896	; 0x380
   20510:	4804      	ldr	r0, [pc, #16]	; (20524 <CRYPTO_ProcessAD+0x224>)
   20512:	f7fe fe51 	bl	1f1b8 <io_assert_failed>
   20516:	e70e      	b.n	20336 <CRYPTO_ProcessAD+0x36>
   20518:	000265e1 	.word	0x000265e1
   2051c:	50100000 	.word	0x50100000
   20520:	40100000 	.word	0x40100000
   20524:	00043604 	.word	0x00043604
   20528:	0001f8a1 	.word	0x0001f8a1
   2052c:	e000ed00 	.word	0xe000ed00
   20530:	00043494 	.word	0x00043494
   20534:	000434ac 	.word	0x000434ac
   20538:	00043554 	.word	0x00043554
   2053c:	0001f621 	.word	0x0001f621
   20540:	50108000 	.word	0x50108000
   20544:	40108000 	.word	0x40108000
   20548:	20004004 	.word	0x20004004
   2054c:	9b12      	ldr	r3, [sp, #72]	; 0x48
   2054e:	9a12      	ldr	r2, [sp, #72]	; 0x48
   20550:	3b11      	subs	r3, #17
   20552:	3a10      	subs	r2, #16
   20554:	091b      	lsrs	r3, r3, #4
   20556:	ebc3 7103 	rsb	r1, r3, r3, lsl #28
   2055a:	3301      	adds	r3, #1
   2055c:	eb02 1201 	add.w	r2, r2, r1, lsl #4
   20560:	9212      	str	r2, [sp, #72]	; 0x48
   20562:	9a11      	ldr	r2, [sp, #68]	; 0x44
   20564:	e9dd 5602 	ldrd	r5, r6, [sp, #8]
   20568:	eb02 1303 	add.w	r3, r2, r3, lsl #4
   2056c:	9311      	str	r3, [sp, #68]	; 0x44
   2056e:	9b12      	ldr	r3, [sp, #72]	; 0x48
   20570:	f363 240c 	bfi	r4, r3, #8, #5
   20574:	f8da 3008 	ldr.w	r3, [sl, #8]
   20578:	0499      	lsls	r1, r3, #18
   2057a:	f100 8209 	bmi.w	20990 <CRYPTO_ProcessAD+0x690>
   2057e:	4620      	mov	r0, r4
   20580:	9911      	ldr	r1, [sp, #68]	; 0x44
   20582:	464a      	mov	r2, r9
   20584:	f04f 4480 	mov.w	r4, #1073741824	; 0x40000000
   20588:	f7ff f8d2 	bl	1f730 <CRYPTO_SetSrcDesc>
   2058c:	f8db 3050 	ldr.w	r3, [fp, #80]	; 0x50
   20590:	b1fb      	cbz	r3, 205d2 <CRYPTO_ProcessAD+0x2d2>
   20592:	f363 240c 	bfi	r4, r3, #8, #5
   20596:	4bbc      	ldr	r3, [pc, #752]	; (20888 <CRYPTO_ProcessAD+0x588>)
   20598:	f8df 82f8 	ldr.w	r8, [pc, #760]	; 20894 <CRYPTO_ProcessAD+0x594>
   2059c:	695a      	ldr	r2, [r3, #20]
   2059e:	03d2      	lsls	r2, r2, #15
   205a0:	d50b      	bpl.n	205ba <CRYPTO_ProcessAD+0x2ba>
   205a2:	f3bf 8f4f 	dsb	sy
   205a6:	f108 0220 	add.w	r2, r8, #32
   205aa:	f8c3 8270 	str.w	r8, [r3, #624]	; 0x270
   205ae:	f8c3 2270 	str.w	r2, [r3, #624]	; 0x270
   205b2:	f3bf 8f4f 	dsb	sy
   205b6:	f3bf 8f6f 	isb	sy
   205ba:	f8da 3008 	ldr.w	r3, [sl, #8]
   205be:	049b      	lsls	r3, r3, #18
   205c0:	f100 81f2 	bmi.w	209a8 <CRYPTO_ProcessAD+0x6a8>
   205c4:	4620      	mov	r0, r4
   205c6:	4641      	mov	r1, r8
   205c8:	464a      	mov	r2, r9
   205ca:	f04f 4480 	mov.w	r4, #1073741824	; 0x40000000
   205ce:	f7ff f8af 	bl	1f730 <CRYPTO_SetSrcDesc>
   205d2:	b327      	cbz	r7, 2061e <CRYPTO_ProcessAD+0x31e>
   205d4:	49ac      	ldr	r1, [pc, #688]	; (20888 <CRYPTO_ProcessAD+0x588>)
   205d6:	694b      	ldr	r3, [r1, #20]
   205d8:	03d8      	lsls	r0, r3, #15
   205da:	d520      	bpl.n	2061e <CRYPTO_ProcessAD+0x31e>
   205dc:	ea07 0306 	and.w	r3, r7, r6
   205e0:	3301      	adds	r3, #1
   205e2:	f000 8186 	beq.w	208f2 <CRYPTO_ProcessAD+0x5f2>
   205e6:	f017 031f 	ands.w	r3, r7, #31
   205ea:	f040 810f 	bne.w	2080c <CRYPTO_ProcessAD+0x50c>
   205ee:	4633      	mov	r3, r6
   205f0:	463a      	mov	r2, r7
   205f2:	f3bf 8f4f 	dsb	sy
   205f6:	2b00      	cmp	r3, #0
   205f8:	dd0d      	ble.n	20616 <CRYPTO_ProcessAD+0x316>
   205fa:	1e59      	subs	r1, r3, #1
   205fc:	f102 0320 	add.w	r3, r2, #32
   20600:	48a1      	ldr	r0, [pc, #644]	; (20888 <CRYPTO_ProcessAD+0x588>)
   20602:	f021 011f 	bic.w	r1, r1, #31
   20606:	4419      	add	r1, r3
   20608:	428b      	cmp	r3, r1
   2060a:	f8c0 2270 	str.w	r2, [r0, #624]	; 0x270
   2060e:	461a      	mov	r2, r3
   20610:	f103 0320 	add.w	r3, r3, #32
   20614:	d1f8      	bne.n	20608 <CRYPTO_ProcessAD+0x308>
   20616:	f3bf 8f4f 	dsb	sy
   2061a:	f3bf 8f6f 	isb	sy
   2061e:	f643 78f0 	movw	r8, #16368	; 0x3ff0
   20622:	4546      	cmp	r6, r8
   20624:	d90e      	bls.n	20644 <CRYPTO_ProcessAD+0x344>
   20626:	4620      	mov	r0, r4
   20628:	eba6 0608 	sub.w	r6, r6, r8
   2062c:	f368 309b 	bfi	r0, r8, #14, #14
   20630:	4639      	mov	r1, r7
   20632:	464a      	mov	r2, r9
   20634:	f7ff f87c 	bl	1f730 <CRYPTO_SetSrcDesc>
   20638:	4546      	cmp	r6, r8
   2063a:	4447      	add	r7, r8
   2063c:	f04f 4080 	mov.w	r0, #1073741824	; 0x40000000
   20640:	d8f2      	bhi.n	20628 <CRYPTO_ProcessAD+0x328>
   20642:	4604      	mov	r4, r0
   20644:	f8db 3058 	ldr.w	r3, [fp, #88]	; 0x58
   20648:	2b00      	cmp	r3, #0
   2064a:	d04f      	beq.n	206ec <CRYPTO_ProcessAD+0x3ec>
   2064c:	f3c4 7400 	ubfx	r4, r4, #28, #1
   20650:	03b3      	lsls	r3, r6, #14
   20652:	488e      	ldr	r0, [pc, #568]	; (2088c <CRYPTO_ProcessAD+0x58c>)
   20654:	4639      	mov	r1, r7
   20656:	464a      	mov	r2, r9
   20658:	ea43 7404 	orr.w	r4, r3, r4, lsl #28
   2065c:	4020      	ands	r0, r4
   2065e:	f040 4080 	orr.w	r0, r0, #1073741824	; 0x40000000
   20662:	f7ff f865 	bl	1f730 <CRYPTO_SetSrcDesc>
   20666:	f8da 3008 	ldr.w	r3, [sl, #8]
   2066a:	0499      	lsls	r1, r3, #18
   2066c:	f100 80b9 	bmi.w	207e2 <CRYPTO_ProcessAD+0x4e2>
   20670:	f8db 3058 	ldr.w	r3, [fp, #88]	; 0x58
   20674:	b1fb      	cbz	r3, 206b6 <CRYPTO_ProcessAD+0x3b6>
   20676:	4c86      	ldr	r4, [pc, #536]	; (20890 <CRYPTO_ProcessAD+0x590>)
   20678:	4e86      	ldr	r6, [pc, #536]	; (20894 <CRYPTO_ProcessAD+0x594>)
   2067a:	ea04 3483 	and.w	r4, r4, r3, lsl #14
   2067e:	4b82      	ldr	r3, [pc, #520]	; (20888 <CRYPTO_ProcessAD+0x588>)
   20680:	695a      	ldr	r2, [r3, #20]
   20682:	f044 44a0 	orr.w	r4, r4, #1342177280	; 0x50000000
   20686:	03d2      	lsls	r2, r2, #15
   20688:	d50b      	bpl.n	206a2 <CRYPTO_ProcessAD+0x3a2>
   2068a:	f3bf 8f4f 	dsb	sy
   2068e:	f106 0220 	add.w	r2, r6, #32
   20692:	f8c3 6270 	str.w	r6, [r3, #624]	; 0x270
   20696:	f8c3 2270 	str.w	r2, [r3, #624]	; 0x270
   2069a:	f3bf 8f4f 	dsb	sy
   2069e:	f3bf 8f6f 	isb	sy
   206a2:	f8da 3008 	ldr.w	r3, [sl, #8]
   206a6:	049f      	lsls	r7, r3, #18
   206a8:	f100 8115 	bmi.w	208d6 <CRYPTO_ProcessAD+0x5d6>
   206ac:	464a      	mov	r2, r9
   206ae:	4631      	mov	r1, r6
   206b0:	4620      	mov	r0, r4
   206b2:	f7ff f83d 	bl	1f730 <CRYPTO_SetSrcDesc>
   206b6:	4b78      	ldr	r3, [pc, #480]	; (20898 <CRYPTO_ProcessAD+0x598>)
   206b8:	e002      	b.n	206c0 <CRYPTO_ProcessAD+0x3c0>
   206ba:	3b01      	subs	r3, #1
   206bc:	f000 815d 	beq.w	2097a <CRYPTO_ProcessAD+0x67a>
   206c0:	6928      	ldr	r0, [r5, #16]
   206c2:	f010 0008 	ands.w	r0, r0, #8
   206c6:	d102      	bne.n	206ce <CRYPTO_ProcessAD+0x3ce>
   206c8:	692a      	ldr	r2, [r5, #16]
   206ca:	06d4      	lsls	r4, r2, #27
   206cc:	d40b      	bmi.n	206e6 <CRYPTO_ProcessAD+0x3e6>
   206ce:	69ea      	ldr	r2, [r5, #28]
   206d0:	9205      	str	r2, [sp, #20]
   206d2:	9a05      	ldr	r2, [sp, #20]
   206d4:	2a00      	cmp	r2, #0
   206d6:	d0f0      	beq.n	206ba <CRYPTO_ProcessAD+0x3ba>
   206d8:	f8da 3000 	ldr.w	r3, [sl]
   206dc:	0499      	lsls	r1, r3, #18
   206de:	f100 80f1 	bmi.w	208c4 <CRYPTO_ProcessAD+0x5c4>
   206e2:	f04f 30ff 	mov.w	r0, #4294967295	; 0xffffffff
   206e6:	b007      	add	sp, #28
   206e8:	e8bd 8ff0 	ldmia.w	sp!, {r4, r5, r6, r7, r8, r9, sl, fp, pc}
   206ec:	2401      	movs	r4, #1
   206ee:	e7af      	b.n	20650 <CRYPTO_ProcessAD+0x350>
   206f0:	9b12      	ldr	r3, [sp, #72]	; 0x48
   206f2:	f8df a1c0 	ldr.w	sl, [pc, #448]	; 208b4 <CRYPTO_ProcessAD+0x5b4>
   206f6:	2b00      	cmp	r3, #0
   206f8:	f43f af48 	beq.w	2058c <CRYPTO_ProcessAD+0x28c>
   206fc:	e737      	b.n	2056e <CRYPTO_ProcessAD+0x26e>
   206fe:	9b13      	ldr	r3, [sp, #76]	; 0x4c
   20700:	2b00      	cmp	r3, #0
   20702:	d040      	beq.n	20786 <CRYPTO_ProcessAD+0x486>
   20704:	9b13      	ldr	r3, [sp, #76]	; 0x4c
   20706:	f013 041f 	ands.w	r4, r3, #31
   2070a:	f040 80b4 	bne.w	20876 <CRYPTO_ProcessAD+0x576>
   2070e:	4632      	mov	r2, r6
   20710:	9b14      	ldr	r3, [sp, #80]	; 0x50
   20712:	2000      	movs	r0, #0
   20714:	fab3 f383 	clz	r3, r3
   20718:	f362 0017 	bfi	r0, r2, #0, #24
   2071c:	095b      	lsrs	r3, r3, #5
   2071e:	f3c0 6107 	ubfx	r1, r0, #24, #8
   20722:	011b      	lsls	r3, r3, #4
   20724:	f021 0178 	bic.w	r1, r1, #120	; 0x78
   20728:	f043 0368 	orr.w	r3, r3, #104	; 0x68
   2072c:	430b      	orrs	r3, r1
   2072e:	4956      	ldr	r1, [pc, #344]	; (20888 <CRYPTO_ProcessAD+0x588>)
   20730:	f363 601f 	bfi	r0, r3, #24, #8
   20734:	694b      	ldr	r3, [r1, #20]
   20736:	03db      	lsls	r3, r3, #15
   20738:	d521      	bpl.n	2077e <CRYPTO_ProcessAD+0x47e>
   2073a:	9b13      	ldr	r3, [sp, #76]	; 0x4c
   2073c:	4013      	ands	r3, r2
   2073e:	3301      	adds	r3, #1
   20740:	f000 8159 	beq.w	209f6 <CRYPTO_ProcessAD+0x6f6>
   20744:	2c00      	cmp	r4, #0
   20746:	f000 8174 	beq.w	20a32 <CRYPTO_ProcessAD+0x732>
   2074a:	9b13      	ldr	r3, [sp, #76]	; 0x4c
   2074c:	4422      	add	r2, r4
   2074e:	f023 011f 	bic.w	r1, r3, #31
   20752:	f3bf 8f4f 	dsb	sy
   20756:	2a00      	cmp	r2, #0
   20758:	dd0d      	ble.n	20776 <CRYPTO_ProcessAD+0x476>
   2075a:	3a01      	subs	r2, #1
   2075c:	f101 0320 	add.w	r3, r1, #32
   20760:	4c49      	ldr	r4, [pc, #292]	; (20888 <CRYPTO_ProcessAD+0x588>)
   20762:	f022 021f 	bic.w	r2, r2, #31
   20766:	441a      	add	r2, r3
   20768:	4293      	cmp	r3, r2
   2076a:	f8c4 1270 	str.w	r1, [r4, #624]	; 0x270
   2076e:	4619      	mov	r1, r3
   20770:	f103 0320 	add.w	r3, r3, #32
   20774:	d1f8      	bne.n	20768 <CRYPTO_ProcessAD+0x468>
   20776:	f3bf 8f4f 	dsb	sy
   2077a:	f3bf 8f6f 	isb	sy
   2077e:	464a      	mov	r2, r9
   20780:	9913      	ldr	r1, [sp, #76]	; 0x4c
   20782:	f7ff f81d 	bl	1f7c0 <CRYPTO_SetDstDesc>
   20786:	9b14      	ldr	r3, [sp, #80]	; 0x50
   20788:	2b00      	cmp	r3, #0
   2078a:	f43f ae4d 	beq.w	20428 <CRYPTO_ProcessAD+0x128>
   2078e:	f013 041f 	ands.w	r4, r3, #31
   20792:	f040 8091 	bne.w	208b8 <CRYPTO_ProcessAD+0x5b8>
   20796:	9b13      	ldr	r3, [sp, #76]	; 0x4c
   20798:	4a3b      	ldr	r2, [pc, #236]	; (20888 <CRYPTO_ProcessAD+0x588>)
   2079a:	fab3 f383 	clz	r3, r3
   2079e:	483f      	ldr	r0, [pc, #252]	; (2089c <CRYPTO_ProcessAD+0x59c>)
   207a0:	6952      	ldr	r2, [r2, #20]
   207a2:	095b      	lsrs	r3, r3, #5
   207a4:	03d2      	lsls	r2, r2, #15
   207a6:	f363 705d 	bfi	r0, r3, #29, #1
   207aa:	d515      	bpl.n	207d8 <CRYPTO_ProcessAD+0x4d8>
   207ac:	2c00      	cmp	r4, #0
   207ae:	f000 811f 	beq.w	209f0 <CRYPTO_ProcessAD+0x6f0>
   207b2:	9b14      	ldr	r3, [sp, #80]	; 0x50
   207b4:	f104 0110 	add.w	r1, r4, #16
   207b8:	f023 031f 	bic.w	r3, r3, #31
   207bc:	f3bf 8f4f 	dsb	sy
   207c0:	4c31      	ldr	r4, [pc, #196]	; (20888 <CRYPTO_ProcessAD+0x588>)
   207c2:	4419      	add	r1, r3
   207c4:	f8c4 3270 	str.w	r3, [r4, #624]	; 0x270
   207c8:	3320      	adds	r3, #32
   207ca:	1aca      	subs	r2, r1, r3
   207cc:	2a00      	cmp	r2, #0
   207ce:	dcf9      	bgt.n	207c4 <CRYPTO_ProcessAD+0x4c4>
   207d0:	f3bf 8f4f 	dsb	sy
   207d4:	f3bf 8f6f 	isb	sy
   207d8:	9914      	ldr	r1, [sp, #80]	; 0x50
   207da:	464a      	mov	r2, r9
   207dc:	f7fe fff0 	bl	1f7c0 <CRYPTO_SetDstDesc>
   207e0:	e622      	b.n	20428 <CRYPTO_ProcessAD+0x128>
   207e2:	463a      	mov	r2, r7
   207e4:	4633      	mov	r3, r6
   207e6:	492e      	ldr	r1, [pc, #184]	; (208a0 <CRYPTO_ProcessAD+0x5a0>)
   207e8:	482e      	ldr	r0, [pc, #184]	; (208a4 <CRYPTO_ProcessAD+0x5a4>)
   207ea:	f005 fef9 	bl	265e0 <DiagPrintf>
   207ee:	4631      	mov	r1, r6
   207f0:	4638      	mov	r0, r7
   207f2:	4a2d      	ldr	r2, [pc, #180]	; (208a8 <CRYPTO_ProcessAD+0x5a8>)
   207f4:	4b2d      	ldr	r3, [pc, #180]	; (208ac <CRYPTO_ProcessAD+0x5ac>)
   207f6:	4798      	blx	r3
   207f8:	e73a      	b.n	20670 <CRYPTO_ProcessAD+0x370>
   207fa:	f8df a0b8 	ldr.w	sl, [pc, #184]	; 208b4 <CRYPTO_ProcessAD+0x5b4>
   207fe:	e6e8      	b.n	205d2 <CRYPTO_ProcessAD+0x2d2>
   20800:	f240 31b3 	movw	r1, #947	; 0x3b3
   20804:	482a      	ldr	r0, [pc, #168]	; (208b0 <CRYPTO_ProcessAD+0x5b0>)
   20806:	f7fe fcd7 	bl	1f1b8 <io_assert_failed>
   2080a:	e5d6      	b.n	203ba <CRYPTO_ProcessAD+0xba>
   2080c:	4433      	add	r3, r6
   2080e:	f027 021f 	bic.w	r2, r7, #31
   20812:	e6ee      	b.n	205f2 <CRYPTO_ProcessAD+0x2f2>
   20814:	9a12      	ldr	r2, [sp, #72]	; 0x48
   20816:	4413      	add	r3, r2
   20818:	9a11      	ldr	r2, [sp, #68]	; 0x44
   2081a:	f022 021f 	bic.w	r2, r2, #31
   2081e:	e622      	b.n	20466 <CRYPTO_ProcessAD+0x166>
   20820:	2200      	movs	r2, #0
   20822:	f8c3 2084 	str.w	r2, [r3, #132]	; 0x84
   20826:	f3bf 8f4f 	dsb	sy
   2082a:	f8d3 2080 	ldr.w	r2, [r3, #128]	; 0x80
   2082e:	f3c2 3c4e 	ubfx	ip, r2, #13, #15
   20832:	f3c2 0ec9 	ubfx	lr, r2, #3, #10
   20836:	ea4f 1c4c 	mov.w	ip, ip, lsl #5
   2083a:	f643 74e0 	movw	r4, #16352	; 0x3fe0
   2083e:	4672      	mov	r2, lr
   20840:	ea0c 0404 	and.w	r4, ip, r4
   20844:	ea44 7182 	orr.w	r1, r4, r2, lsl #30
   20848:	3a01      	subs	r2, #1
   2084a:	f8c3 1274 	str.w	r1, [r3, #628]	; 0x274
   2084e:	d2f9      	bcs.n	20844 <CRYPTO_ProcessAD+0x544>
   20850:	f1ac 0c20 	sub.w	ip, ip, #32
   20854:	f11c 0f20 	cmn.w	ip, #32
   20858:	d1ef      	bne.n	2083a <CRYPTO_ProcessAD+0x53a>
   2085a:	f3bf 8f4f 	dsb	sy
   2085e:	f3bf 8f6f 	isb	sy
   20862:	9913      	ldr	r1, [sp, #76]	; 0x4c
   20864:	464a      	mov	r2, r9
   20866:	f7fe ffab 	bl	1f7c0 <CRYPTO_SetDstDesc>
   2086a:	e5dd      	b.n	20428 <CRYPTO_ProcessAD+0x128>
   2086c:	441c      	add	r4, r3
   2086e:	9b13      	ldr	r3, [sp, #76]	; 0x4c
   20870:	f023 021f 	bic.w	r2, r3, #31
   20874:	e5bd      	b.n	203f2 <CRYPTO_ProcessAD+0xf2>
   20876:	f44f 7172 	mov.w	r1, #968	; 0x3c8
   2087a:	480d      	ldr	r0, [pc, #52]	; (208b0 <CRYPTO_ProcessAD+0x5b0>)
   2087c:	f7fe fc9c 	bl	1f1b8 <io_assert_failed>
   20880:	f8db 2054 	ldr.w	r2, [fp, #84]	; 0x54
   20884:	e744      	b.n	20710 <CRYPTO_ProcessAD+0x410>
   20886:	bf00      	nop
   20888:	e000ed00 	.word	0xe000ed00
   2088c:	1fffc000 	.word	0x1fffc000
   20890:	0fffc000 	.word	0x0fffc000
   20894:	20004680 	.word	0x20004680
   20898:	000f4240 	.word	0x000f4240
   2089c:	50000010 	.word	0x50000010
   208a0:	00043494 	.word	0x00043494
   208a4:	000434ac 	.word	0x000434ac
   208a8:	0004356c 	.word	0x0004356c
   208ac:	0001f621 	.word	0x0001f621
   208b0:	00043604 	.word	0x00043604
   208b4:	20004004 	.word	0x20004004
   208b8:	f240 31d6 	movw	r1, #982	; 0x3d6
   208bc:	485f      	ldr	r0, [pc, #380]	; (20a3c <CRYPTO_ProcessAD+0x73c>)
   208be:	f7fe fc7b 	bl	1f1b8 <io_assert_failed>
   208c2:	e768      	b.n	20796 <CRYPTO_ProcessAD+0x496>
   208c4:	9905      	ldr	r1, [sp, #20]
   208c6:	485e      	ldr	r0, [pc, #376]	; (20a40 <CRYPTO_ProcessAD+0x740>)
   208c8:	f005 fe8a 	bl	265e0 <DiagPrintf>
   208cc:	f04f 30ff 	mov.w	r0, #4294967295	; 0xffffffff
   208d0:	b007      	add	sp, #28
   208d2:	e8bd 8ff0 	ldmia.w	sp!, {r4, r5, r6, r7, r8, r9, sl, fp, pc}
   208d6:	f3c4 378d 	ubfx	r7, r4, #14, #14
   208da:	4a5a      	ldr	r2, [pc, #360]	; (20a44 <CRYPTO_ProcessAD+0x744>)
   208dc:	495a      	ldr	r1, [pc, #360]	; (20a48 <CRYPTO_ProcessAD+0x748>)
   208de:	463b      	mov	r3, r7
   208e0:	485a      	ldr	r0, [pc, #360]	; (20a4c <CRYPTO_ProcessAD+0x74c>)
   208e2:	f005 fe7d 	bl	265e0 <DiagPrintf>
   208e6:	4639      	mov	r1, r7
   208e8:	4a59      	ldr	r2, [pc, #356]	; (20a50 <CRYPTO_ProcessAD+0x750>)
   208ea:	4856      	ldr	r0, [pc, #344]	; (20a44 <CRYPTO_ProcessAD+0x744>)
   208ec:	4b59      	ldr	r3, [pc, #356]	; (20a54 <CRYPTO_ProcessAD+0x754>)
   208ee:	4798      	blx	r3
   208f0:	e6dc      	b.n	206ac <CRYPTO_ProcessAD+0x3ac>
   208f2:	2300      	movs	r3, #0
   208f4:	f8c1 3084 	str.w	r3, [r1, #132]	; 0x84
   208f8:	f3bf 8f4f 	dsb	sy
   208fc:	f8d1 3080 	ldr.w	r3, [r1, #128]	; 0x80
   20900:	f643 78e0 	movw	r8, #16352	; 0x3fe0
   20904:	f3c3 3c4e 	ubfx	ip, r3, #13, #15
   20908:	f3c3 0ec9 	ubfx	lr, r3, #3, #10
   2090c:	ea4f 1c4c 	mov.w	ip, ip, lsl #5
   20910:	ea0c 0008 	and.w	r0, ip, r8
   20914:	4673      	mov	r3, lr
   20916:	ea40 7283 	orr.w	r2, r0, r3, lsl #30
   2091a:	3b01      	subs	r3, #1
   2091c:	f8c1 2274 	str.w	r2, [r1, #628]	; 0x274
   20920:	d2f9      	bcs.n	20916 <CRYPTO_ProcessAD+0x616>
   20922:	f1ac 0c20 	sub.w	ip, ip, #32
   20926:	f11c 0f20 	cmn.w	ip, #32
   2092a:	d1f1      	bne.n	20910 <CRYPTO_ProcessAD+0x610>
   2092c:	f3bf 8f4f 	dsb	sy
   20930:	f3bf 8f6f 	isb	sy
   20934:	e673      	b.n	2061e <CRYPTO_ProcessAD+0x31e>
   20936:	2300      	movs	r3, #0
   20938:	f8c1 3084 	str.w	r3, [r1, #132]	; 0x84
   2093c:	f3bf 8f4f 	dsb	sy
   20940:	f8d1 3080 	ldr.w	r3, [r1, #128]	; 0x80
   20944:	f643 78e0 	movw	r8, #16352	; 0x3fe0
   20948:	f3c3 3c4e 	ubfx	ip, r3, #13, #15
   2094c:	f3c3 0ec9 	ubfx	lr, r3, #3, #10
   20950:	ea4f 1c4c 	mov.w	ip, ip, lsl #5
   20954:	ea0c 0008 	and.w	r0, ip, r8
   20958:	4673      	mov	r3, lr
   2095a:	ea40 7283 	orr.w	r2, r0, r3, lsl #30
   2095e:	3b01      	subs	r3, #1
   20960:	f8c1 2274 	str.w	r2, [r1, #628]	; 0x274
   20964:	d2f9      	bcs.n	2095a <CRYPTO_ProcessAD+0x65a>
   20966:	f1ac 0c20 	sub.w	ip, ip, #32
   2096a:	f11c 0f20 	cmn.w	ip, #32
   2096e:	d1f1      	bne.n	20954 <CRYPTO_ProcessAD+0x654>
   20970:	f3bf 8f4f 	dsb	sy
   20974:	f3bf 8f6f 	isb	sy
   20978:	e58b      	b.n	20492 <CRYPTO_ProcessAD+0x192>
   2097a:	f8da 3000 	ldr.w	r3, [sl]
   2097e:	049a      	lsls	r2, r3, #18
   20980:	f57f aeaf 	bpl.w	206e2 <CRYPTO_ProcessAD+0x3e2>
   20984:	4834      	ldr	r0, [pc, #208]	; (20a58 <CRYPTO_ProcessAD+0x758>)
   20986:	f005 fe2b 	bl	265e0 <DiagPrintf>
   2098a:	f04f 30ff 	mov.w	r0, #4294967295	; 0xffffffff
   2098e:	e6aa      	b.n	206e6 <CRYPTO_ProcessAD+0x3e6>
   20990:	9a11      	ldr	r2, [sp, #68]	; 0x44
   20992:	9b12      	ldr	r3, [sp, #72]	; 0x48
   20994:	492c      	ldr	r1, [pc, #176]	; (20a48 <CRYPTO_ProcessAD+0x748>)
   20996:	482d      	ldr	r0, [pc, #180]	; (20a4c <CRYPTO_ProcessAD+0x74c>)
   20998:	f005 fe22 	bl	265e0 <DiagPrintf>
   2099c:	9912      	ldr	r1, [sp, #72]	; 0x48
   2099e:	4a2f      	ldr	r2, [pc, #188]	; (20a5c <CRYPTO_ProcessAD+0x75c>)
   209a0:	9811      	ldr	r0, [sp, #68]	; 0x44
   209a2:	4b2c      	ldr	r3, [pc, #176]	; (20a54 <CRYPTO_ProcessAD+0x754>)
   209a4:	4798      	blx	r3
   209a6:	e5ea      	b.n	2057e <CRYPTO_ProcessAD+0x27e>
   209a8:	f8db 3050 	ldr.w	r3, [fp, #80]	; 0x50
   209ac:	4a25      	ldr	r2, [pc, #148]	; (20a44 <CRYPTO_ProcessAD+0x744>)
   209ae:	4926      	ldr	r1, [pc, #152]	; (20a48 <CRYPTO_ProcessAD+0x748>)
   209b0:	4826      	ldr	r0, [pc, #152]	; (20a4c <CRYPTO_ProcessAD+0x74c>)
   209b2:	f005 fe15 	bl	265e0 <DiagPrintf>
   209b6:	4a2a      	ldr	r2, [pc, #168]	; (20a60 <CRYPTO_ProcessAD+0x760>)
   209b8:	f8db 1050 	ldr.w	r1, [fp, #80]	; 0x50
   209bc:	4821      	ldr	r0, [pc, #132]	; (20a44 <CRYPTO_ProcessAD+0x744>)
   209be:	4b25      	ldr	r3, [pc, #148]	; (20a54 <CRYPTO_ProcessAD+0x754>)
   209c0:	4798      	blx	r3
   209c2:	e5ff      	b.n	205c4 <CRYPTO_ProcessAD+0x2c4>
   209c4:	f8da 3074 	ldr.w	r3, [sl, #116]	; 0x74
   209c8:	2b01      	cmp	r3, #1
   209ca:	f43f acfe 	beq.w	203ca <CRYPTO_ProcessAD+0xca>
   209ce:	2c1c      	cmp	r4, #28
   209d0:	d031      	beq.n	20a36 <CRYPTO_ProcessAD+0x736>
   209d2:	2c30      	cmp	r4, #48	; 0x30
   209d4:	f47f acf9 	bne.w	203ca <CRYPTO_ProcessAD+0xca>
   209d8:	2440      	movs	r4, #64	; 0x40
   209da:	4622      	mov	r2, r4
   209dc:	4b21      	ldr	r3, [pc, #132]	; (20a64 <CRYPTO_ProcessAD+0x764>)
   209de:	f04f 40e0 	mov.w	r0, #1879048192	; 0x70000000
   209e2:	695b      	ldr	r3, [r3, #20]
   209e4:	f362 0007 	bfi	r0, r2, #0, #8
   209e8:	03db      	lsls	r3, r3, #15
   209ea:	f53f acfd 	bmi.w	203e8 <CRYPTO_ProcessAD+0xe8>
   209ee:	e517      	b.n	20420 <CRYPTO_ProcessAD+0x120>
   209f0:	9b14      	ldr	r3, [sp, #80]	; 0x50
   209f2:	2110      	movs	r1, #16
   209f4:	e6e2      	b.n	207bc <CRYPTO_ProcessAD+0x4bc>
   209f6:	2300      	movs	r3, #0
   209f8:	f8c1 3084 	str.w	r3, [r1, #132]	; 0x84
   209fc:	f3bf 8f4f 	dsb	sy
   20a00:	f8d1 3080 	ldr.w	r3, [r1, #128]	; 0x80
   20a04:	f3c3 3c4e 	ubfx	ip, r3, #13, #15
   20a08:	f3c3 0ec9 	ubfx	lr, r3, #3, #10
   20a0c:	ea4f 1c4c 	mov.w	ip, ip, lsl #5
   20a10:	f643 74e0 	movw	r4, #16352	; 0x3fe0
   20a14:	4673      	mov	r3, lr
   20a16:	ea0c 0404 	and.w	r4, ip, r4
   20a1a:	ea44 7283 	orr.w	r2, r4, r3, lsl #30
   20a1e:	3b01      	subs	r3, #1
   20a20:	f8c1 2274 	str.w	r2, [r1, #628]	; 0x274
   20a24:	d2f9      	bcs.n	20a1a <CRYPTO_ProcessAD+0x71a>
   20a26:	f1ac 0c20 	sub.w	ip, ip, #32
   20a2a:	f11c 0f20 	cmn.w	ip, #32
   20a2e:	d1ef      	bne.n	20a10 <CRYPTO_ProcessAD+0x710>
   20a30:	e6a1      	b.n	20776 <CRYPTO_ProcessAD+0x476>
   20a32:	9913      	ldr	r1, [sp, #76]	; 0x4c
   20a34:	e68d      	b.n	20752 <CRYPTO_ProcessAD+0x452>
   20a36:	2420      	movs	r4, #32
   20a38:	4622      	mov	r2, r4
   20a3a:	e7cf      	b.n	209dc <CRYPTO_ProcessAD+0x6dc>
   20a3c:	00043604 	.word	0x00043604
   20a40:	00043588 	.word	0x00043588
   20a44:	20004680 	.word	0x20004680
   20a48:	00043494 	.word	0x00043494
   20a4c:	000434ac 	.word	0x000434ac
   20a50:	00043578 	.word	0x00043578
   20a54:	0001f621 	.word	0x0001f621
   20a58:	000435bc 	.word	0x000435bc
   20a5c:	00043554 	.word	0x00043554
   20a60:	0004355c 	.word	0x0004355c
   20a64:	e000ed00 	.word	0xe000ed00

00020a68 <CRYPTO_SendSeqBuf>:
   20a68:	e92d 4ff0 	stmdb	sp!, {r4, r5, r6, r7, r8, r9, sl, fp, lr}
   20a6c:	f891 3061 	ldrb.w	r3, [r1, #97]	; 0x61
   20a70:	b089      	sub	sp, #36	; 0x24
   20a72:	4c3b      	ldr	r4, [pc, #236]	; (20b60 <CRYPTO_SendSeqBuf+0xf8>)
   20a74:	4688      	mov	r8, r1
   20a76:	2b30      	cmp	r3, #48	; 0x30
   20a78:	4681      	mov	r9, r0
   20a7a:	f8d4 729c 	ldr.w	r7, [r4, #668]	; 0x29c
   20a7e:	f894 52a0 	ldrb.w	r5, [r4, #672]	; 0x2a0
   20a82:	d01b      	beq.n	20abc <CRYPTO_SendSeqBuf+0x54>
   20a84:	2b40      	cmp	r3, #64	; 0x40
   20a86:	d019      	beq.n	20abc <CRYPTO_SendSeqBuf+0x54>
   20a88:	2340      	movs	r3, #64	; 0x40
   20a8a:	9307      	str	r3, [sp, #28]
   20a8c:	9b07      	ldr	r3, [sp, #28]
   20a8e:	f505 70d4 	add.w	r0, r5, #424	; 0x1a8
   20a92:	f8df a0d8 	ldr.w	sl, [pc, #216]	; 20b6c <CRYPTO_SendSeqBuf+0x104>
   20a96:	1b5d      	subs	r5, r3, r5
   20a98:	f8d4 1298 	ldr.w	r1, [r4, #664]	; 0x298
   20a9c:	4450      	add	r0, sl
   20a9e:	42af      	cmp	r7, r5
   20aa0:	da0f      	bge.n	20ac2 <CRYPTO_SendSeqBuf+0x5a>
   20aa2:	463a      	mov	r2, r7
   20aa4:	4b2f      	ldr	r3, [pc, #188]	; (20b64 <CRYPTO_SendSeqBuf+0xfc>)
   20aa6:	4798      	blx	r3
   20aa8:	f894 22a0 	ldrb.w	r2, [r4, #672]	; 0x2a0
   20aac:	2300      	movs	r3, #0
   20aae:	4417      	add	r7, r2
   20ab0:	f884 72a0 	strb.w	r7, [r4, #672]	; 0x2a0
   20ab4:	4618      	mov	r0, r3
   20ab6:	b009      	add	sp, #36	; 0x24
   20ab8:	e8bd 8ff0 	ldmia.w	sp!, {r4, r5, r6, r7, r8, r9, sl, fp, pc}
   20abc:	2380      	movs	r3, #128	; 0x80
   20abe:	9307      	str	r3, [sp, #28]
   20ac0:	e7e4      	b.n	20a8c <CRYPTO_SendSeqBuf+0x24>
   20ac2:	462a      	mov	r2, r5
   20ac4:	4b27      	ldr	r3, [pc, #156]	; (20b64 <CRYPTO_SendSeqBuf+0xfc>)
   20ac6:	4798      	blx	r3
   20ac8:	f50a 7bd4 	add.w	fp, sl, #424	; 0x1a8
   20acc:	2300      	movs	r3, #0
   20ace:	9a07      	ldr	r2, [sp, #28]
   20ad0:	4650      	mov	r0, sl
   20ad2:	4659      	mov	r1, fp
   20ad4:	9304      	str	r3, [sp, #16]
   20ad6:	9300      	str	r3, [sp, #0]
   20ad8:	4e23      	ldr	r6, [pc, #140]	; (20b68 <CRYPTO_SendSeqBuf+0x100>)
   20ada:	f8cd 8014 	str.w	r8, [sp, #20]
   20ade:	f8cd 900c 	str.w	r9, [sp, #12]
   20ae2:	e9cd 3301 	strd	r3, r3, [sp, #4]
   20ae6:	47b0      	blx	r6
   20ae8:	4603      	mov	r3, r0
   20aea:	2800      	cmp	r0, #0
   20aec:	d1e2      	bne.n	20ab4 <CRYPTO_SendSeqBuf+0x4c>
   20aee:	9a07      	ldr	r2, [sp, #28]
   20af0:	1b7f      	subs	r7, r7, r5
   20af2:	f8d4 1298 	ldr.w	r1, [r4, #664]	; 0x298
   20af6:	1e56      	subs	r6, r2, #1
   20af8:	f884 02a0 	strb.w	r0, [r4, #672]	; 0x2a0
   20afc:	4429      	add	r1, r5
   20afe:	f8c4 729c 	str.w	r7, [r4, #668]	; 0x29c
   20b02:	ea27 0506 	bic.w	r5, r7, r6
   20b06:	403e      	ands	r6, r7
   20b08:	f8c4 1298 	str.w	r1, [r4, #664]	; 0x298
   20b0c:	2d00      	cmp	r5, #0
   20b0e:	dc06      	bgt.n	20b1e <CRYPTO_SendSeqBuf+0xb6>
   20b10:	b9de      	cbnz	r6, 20b4a <CRYPTO_SendSeqBuf+0xe2>
   20b12:	4618      	mov	r0, r3
   20b14:	f884 62a0 	strb.w	r6, [r4, #672]	; 0x2a0
   20b18:	b009      	add	sp, #36	; 0x24
   20b1a:	e8bd 8ff0 	ldmia.w	sp!, {r4, r5, r6, r7, r8, r9, sl, fp, pc}
   20b1e:	4650      	mov	r0, sl
   20b20:	462a      	mov	r2, r5
   20b22:	4f11      	ldr	r7, [pc, #68]	; (20b68 <CRYPTO_SendSeqBuf+0x100>)
   20b24:	f8cd 8014 	str.w	r8, [sp, #20]
   20b28:	f8cd 900c 	str.w	r9, [sp, #12]
   20b2c:	9304      	str	r3, [sp, #16]
   20b2e:	9300      	str	r3, [sp, #0]
   20b30:	9307      	str	r3, [sp, #28]
   20b32:	e9cd 3301 	strd	r3, r3, [sp, #4]
   20b36:	47b8      	blx	r7
   20b38:	b980      	cbnz	r0, 20b5c <CRYPTO_SendSeqBuf+0xf4>
   20b3a:	f8d4 2298 	ldr.w	r2, [r4, #664]	; 0x298
   20b3e:	9b07      	ldr	r3, [sp, #28]
   20b40:	442a      	add	r2, r5
   20b42:	f8c4 2298 	str.w	r2, [r4, #664]	; 0x298
   20b46:	2e00      	cmp	r6, #0
   20b48:	d0e3      	beq.n	20b12 <CRYPTO_SendSeqBuf+0xaa>
   20b4a:	9307      	str	r3, [sp, #28]
   20b4c:	4658      	mov	r0, fp
   20b4e:	4b05      	ldr	r3, [pc, #20]	; (20b64 <CRYPTO_SendSeqBuf+0xfc>)
   20b50:	4632      	mov	r2, r6
   20b52:	f8d4 1298 	ldr.w	r1, [r4, #664]	; 0x298
   20b56:	4798      	blx	r3
   20b58:	9b07      	ldr	r3, [sp, #28]
   20b5a:	e7da      	b.n	20b12 <CRYPTO_SendSeqBuf+0xaa>
   20b5c:	4603      	mov	r3, r0
   20b5e:	e7a9      	b.n	20ab4 <CRYPTO_SendSeqBuf+0x4c>
   20b60:	200041e0 	.word	0x200041e0
   20b64:	000270e1 	.word	0x000270e1
   20b68:	00020301 	.word	0x00020301
   20b6c:	20004440 	.word	0x20004440

00020b70 <CRYPTO_CipherInit>:
   20b70:	b530      	push	{r4, r5, lr}
   20b72:	2400      	movs	r4, #0
   20b74:	b085      	sub	sp, #20
   20b76:	461d      	mov	r5, r3
   20b78:	4613      	mov	r3, r2
   20b7a:	f04f 32ff 	mov.w	r2, #4294967295	; 0xffffffff
   20b7e:	9500      	str	r5, [sp, #0]
   20b80:	e9cd 4401 	strd	r4, r4, [sp, #4]
   20b84:	4c01      	ldr	r4, [pc, #4]	; (20b8c <CRYPTO_CipherInit+0x1c>)
   20b86:	47a0      	blx	r4
   20b88:	b005      	add	sp, #20
   20b8a:	bd30      	pop	{r4, r5, pc}
   20b8c:	00020035 	.word	0x00020035

00020b90 <CRYPTO_CipherEncryptAD>:
   20b90:	b530      	push	{r4, r5, lr}
   20b92:	2400      	movs	r4, #0
   20b94:	b087      	sub	sp, #28
   20b96:	7244      	strb	r4, [r0, #9]
   20b98:	9405      	str	r4, [sp, #20]
   20b9a:	6844      	ldr	r4, [r0, #4]
   20b9c:	9d0b      	ldr	r5, [sp, #44]	; 0x2c
   20b9e:	f044 0480 	orr.w	r4, r4, #128	; 0x80
   20ba2:	6044      	str	r4, [r0, #4]
   20ba4:	9501      	str	r5, [sp, #4]
   20ba6:	9d0c      	ldr	r5, [sp, #48]	; 0x30
   20ba8:	9c0a      	ldr	r4, [sp, #40]	; 0x28
   20baa:	9502      	str	r5, [sp, #8]
   20bac:	9d0d      	ldr	r5, [sp, #52]	; 0x34
   20bae:	9400      	str	r4, [sp, #0]
   20bb0:	9503      	str	r5, [sp, #12]
   20bb2:	9d0e      	ldr	r5, [sp, #56]	; 0x38
   20bb4:	4c02      	ldr	r4, [pc, #8]	; (20bc0 <CRYPTO_CipherEncryptAD+0x30>)
   20bb6:	9504      	str	r5, [sp, #16]
   20bb8:	47a0      	blx	r4
   20bba:	b007      	add	sp, #28
   20bbc:	bd30      	pop	{r4, r5, pc}
   20bbe:	bf00      	nop
   20bc0:	00020301 	.word	0x00020301

00020bc4 <CRYPTO_CipherDecryptAD>:
   20bc4:	b510      	push	{r4, lr}
   20bc6:	b086      	sub	sp, #24
   20bc8:	9c08      	ldr	r4, [sp, #32]
   20bca:	9400      	str	r4, [sp, #0]
   20bcc:	6844      	ldr	r4, [r0, #4]
   20bce:	f084 0480 	eor.w	r4, r4, #128	; 0x80
   20bd2:	6044      	str	r4, [r0, #4]
   20bd4:	9c09      	ldr	r4, [sp, #36]	; 0x24
   20bd6:	9401      	str	r4, [sp, #4]
   20bd8:	9c0a      	ldr	r4, [sp, #40]	; 0x28
   20bda:	9402      	str	r4, [sp, #8]
   20bdc:	9c0b      	ldr	r4, [sp, #44]	; 0x2c
   20bde:	9403      	str	r4, [sp, #12]
   20be0:	9c0c      	ldr	r4, [sp, #48]	; 0x30
   20be2:	9404      	str	r4, [sp, #16]
   20be4:	2401      	movs	r4, #1
   20be6:	7244      	strb	r4, [r0, #9]
   20be8:	2400      	movs	r4, #0
   20bea:	9405      	str	r4, [sp, #20]
   20bec:	4c01      	ldr	r4, [pc, #4]	; (20bf4 <CRYPTO_CipherDecryptAD+0x30>)
   20bee:	47a0      	blx	r4
   20bf0:	b006      	add	sp, #24
   20bf2:	bd10      	pop	{r4, pc}
   20bf4:	00020301 	.word	0x00020301

00020bf8 <DelayNop>:
   20bf8:	f1a0 0001 	sub.w	r0, r0, #1
   20bfc:	2800      	cmp	r0, #0
   20bfe:	bf00      	nop
   20c00:	d1fa      	bne.n	20bf8 <DelayNop>
   20c02:	4770      	bx	lr

00020c04 <DelayUs>:
   20c04:	491a      	ldr	r1, [pc, #104]	; (20c70 <DelayUs+0x6c>)
   20c06:	2206      	movs	r2, #6
   20c08:	4b1a      	ldr	r3, [pc, #104]	; (20c74 <DelayUs+0x70>)
   20c0a:	b510      	push	{r4, lr}
   20c0c:	681b      	ldr	r3, [r3, #0]
   20c0e:	b084      	sub	sp, #16
   20c10:	f8d1 4228 	ldr.w	r4, [r1, #552]	; 0x228
   20c14:	9200      	str	r2, [sp, #0]
   20c16:	f3c4 1181 	ubfx	r1, r4, #6, #2
   20c1a:	9201      	str	r2, [sp, #4]
   20c1c:	b9e3      	cbnz	r3, 20c58 <DelayUs+0x54>
   20c1e:	f3c4 2401 	ubfx	r4, r4, #8, #2
   20c22:	2228      	movs	r2, #40	; 0x28
   20c24:	23c8      	movs	r3, #200	; 0xc8
   20c26:	2c01      	cmp	r4, #1
   20c28:	e9cd 2302 	strd	r2, r3, [sp, #8]
   20c2c:	d01e      	beq.n	20c6c <DelayUs+0x68>
   20c2e:	ab04      	add	r3, sp, #16
   20c30:	eb03 0381 	add.w	r3, r3, r1, lsl #2
   20c34:	0089      	lsls	r1, r1, #2
   20c36:	f853 2c08 	ldr.w	r2, [r3, #-8]
   20c3a:	f101 0310 	add.w	r3, r1, #16
   20c3e:	fb02 f000 	mul.w	r0, r2, r0
   20c42:	eb0d 0103 	add.w	r1, sp, r3
   20c46:	f851 3c10 	ldr.w	r3, [r1, #-16]
   20c4a:	fbb0 f0f3 	udiv	r0, r0, r3
   20c4e:	b108      	cbz	r0, 20c54 <DelayUs+0x50>
   20c50:	4b09      	ldr	r3, [pc, #36]	; (20c78 <DelayUs+0x74>)
   20c52:	4798      	blx	r3
   20c54:	b004      	add	sp, #16
   20c56:	bd10      	pop	{r4, pc}
   20c58:	aa04      	add	r2, sp, #16
   20c5a:	fb00 f303 	mul.w	r3, r0, r3
   20c5e:	eb02 0181 	add.w	r1, r2, r1, lsl #2
   20c62:	f851 0c10 	ldr.w	r0, [r1, #-16]
   20c66:	fbb3 f0f0 	udiv	r0, r3, r0
   20c6a:	e7f0      	b.n	20c4e <DelayUs+0x4a>
   20c6c:	0089      	lsls	r1, r1, #2
   20c6e:	e7e4      	b.n	20c3a <DelayUs+0x36>
   20c70:	41008000 	.word	0x41008000
   20c74:	200046dc 	.word	0x200046dc
   20c78:	00020bf9 	.word	0x00020bf9

00020c7c <DelayMs>:
   20c7c:	f44f 727a 	mov.w	r2, #1000	; 0x3e8
   20c80:	b508      	push	{r3, lr}
   20c82:	fb02 f000 	mul.w	r0, r2, r0
   20c86:	4b01      	ldr	r3, [pc, #4]	; (20c8c <DelayMs+0x10>)
   20c88:	4798      	blx	r3
   20c8a:	bd08      	pop	{r3, pc}
   20c8c:	00020c05 	.word	0x00020c05

00020c90 <DelayClkUpdate>:
   20c90:	4a03      	ldr	r2, [pc, #12]	; (20ca0 <DelayClkUpdate+0x10>)
   20c92:	4b04      	ldr	r3, [pc, #16]	; (20ca4 <DelayClkUpdate+0x14>)
   20c94:	fba2 2000 	umull	r2, r0, r2, r0
   20c98:	0c80      	lsrs	r0, r0, #18
   20c9a:	6018      	str	r0, [r3, #0]
   20c9c:	4770      	bx	lr
   20c9e:	bf00      	nop
   20ca0:	431bde83 	.word	0x431bde83
   20ca4:	200046dc 	.word	0x200046dc

00020ca8 <FLASH_UserMode_Enter>:
   20ca8:	4a04      	ldr	r2, [pc, #16]	; (20cbc <FLASH_UserMode_Enter+0x14>)
   20caa:	6813      	ldr	r3, [r2, #0]
   20cac:	f043 4300 	orr.w	r3, r3, #2147483648	; 0x80000000
   20cb0:	6013      	str	r3, [r2, #0]
   20cb2:	6813      	ldr	r3, [r2, #0]
   20cb4:	2b00      	cmp	r3, #0
   20cb6:	dafc      	bge.n	20cb2 <FLASH_UserMode_Enter+0xa>
   20cb8:	4770      	bx	lr
   20cba:	bf00      	nop
   20cbc:	40128000 	.word	0x40128000

00020cc0 <FLASH_UserMode_Exit>:
   20cc0:	4a02      	ldr	r2, [pc, #8]	; (20ccc <FLASH_UserMode_Exit+0xc>)
   20cc2:	6813      	ldr	r3, [r2, #0]
   20cc4:	f023 4300 	bic.w	r3, r3, #2147483648	; 0x80000000
   20cc8:	6013      	str	r3, [r2, #0]
   20cca:	4770      	bx	lr
   20ccc:	40128000 	.word	0x40128000

00020cd0 <FLASH_Config>:
   20cd0:	2300      	movs	r3, #0
   20cd2:	2201      	movs	r2, #1
   20cd4:	6083      	str	r3, [r0, #8]
   20cd6:	b430      	push	{r4, r5}
   20cd8:	794d      	ldrb	r5, [r1, #5]
   20cda:	6bcc      	ldr	r4, [r1, #60]	; 0x3c
   20cdc:	6145      	str	r5, [r0, #20]
   20cde:	6102      	str	r2, [r0, #16]
   20ce0:	6a0a      	ldr	r2, [r1, #32]
   20ce2:	f8c0 40e0 	str.w	r4, [r0, #224]	; 0xe0
   20ce6:	f8c0 20e8 	str.w	r2, [r0, #232]	; 0xe8
   20cea:	69cc      	ldr	r4, [r1, #28]
   20cec:	6a8a      	ldr	r2, [r1, #40]	; 0x28
   20cee:	f8c0 40e4 	str.w	r4, [r0, #228]	; 0xe4
   20cf2:	f8c0 20f0 	str.w	r2, [r0, #240]	; 0xf0
   20cf6:	6a4a      	ldr	r2, [r1, #36]	; 0x24
   20cf8:	f8c0 20ec 	str.w	r2, [r0, #236]	; 0xec
   20cfc:	f8c0 30f4 	str.w	r3, [r0, #244]	; 0xf4
   20d00:	f8c0 3108 	str.w	r3, [r0, #264]	; 0x108
   20d04:	f8c0 30f8 	str.w	r3, [r0, #248]	; 0xf8
   20d08:	f8c0 30fc 	str.w	r3, [r0, #252]	; 0xfc
   20d0c:	f8c0 3100 	str.w	r3, [r0, #256]	; 0x100
   20d10:	f8c0 3104 	str.w	r3, [r0, #260]	; 0x104
   20d14:	f8d0 3110 	ldr.w	r3, [r0, #272]	; 0x110
   20d18:	f043 0301 	orr.w	r3, r3, #1
   20d1c:	f8c0 3110 	str.w	r3, [r0, #272]	; 0x110
   20d20:	f8d0 3110 	ldr.w	r3, [r0, #272]	; 0x110
   20d24:	f023 0306 	bic.w	r3, r3, #6
   20d28:	f8c0 3110 	str.w	r3, [r0, #272]	; 0x110
   20d2c:	f891 3054 	ldrb.w	r3, [r1, #84]	; 0x54
   20d30:	f8d0 211c 	ldr.w	r2, [r0, #284]	; 0x11c
   20d34:	041b      	lsls	r3, r3, #16
   20d36:	f422 2c70 	bic.w	ip, r2, #983040	; 0xf0000
   20d3a:	f403 2270 	and.w	r2, r3, #983040	; 0xf0000
   20d3e:	ea4c 0302 	orr.w	r3, ip, r2
   20d42:	f8c0 311c 	str.w	r3, [r0, #284]	; 0x11c
   20d46:	f8d0 3118 	ldr.w	r3, [r0, #280]	; 0x118
   20d4a:	f423 2373 	bic.w	r3, r3, #995328	; 0xf3000
   20d4e:	4313      	orrs	r3, r2
   20d50:	f443 5380 	orr.w	r3, r3, #4096	; 0x1000
   20d54:	f8c0 3118 	str.w	r3, [r0, #280]	; 0x118
   20d58:	f891 304b 	ldrb.w	r3, [r1, #75]	; 0x4b
   20d5c:	f8c0 312c 	str.w	r3, [r0, #300]	; 0x12c
   20d60:	bc30      	pop	{r4, r5}
   20d62:	4770      	bx	lr

00020d64 <FLASH_SetSpiMode>:
   20d64:	188b      	adds	r3, r1, r2
   20d66:	b570      	push	{r4, r5, r6, lr}
   20d68:	f891 e005 	ldrb.w	lr, [r1, #5]
   20d6c:	f893 c04e 	ldrb.w	ip, [r3, #78]	; 0x4e
   20d70:	2300      	movs	r3, #0
   20d72:	4d3c      	ldr	r5, [pc, #240]	; (20e64 <FLASH_SetSpiMode+0x100>)
   20d74:	6083      	str	r3, [r0, #8]
   20d76:	fb1c fc0e 	smulbb	ip, ip, lr
   20d7a:	f891 304d 	ldrb.w	r3, [r1, #77]	; 0x4d
   20d7e:	f8d0 411c 	ldr.w	r4, [r0, #284]	; 0x11c
   20d82:	ea4f 0c4c 	mov.w	ip, ip, lsl #1
   20d86:	031b      	lsls	r3, r3, #12
   20d88:	402c      	ands	r4, r5
   20d8a:	fa1f fc8c 	uxth.w	ip, ip
   20d8e:	b29b      	uxth	r3, r3
   20d90:	4323      	orrs	r3, r4
   20d92:	f3cc 040b 	ubfx	r4, ip, #0, #12
   20d96:	4323      	orrs	r3, r4
   20d98:	b2a4      	uxth	r4, r4
   20d9a:	f8c0 311c 	str.w	r3, [r0, #284]	; 0x11c
   20d9e:	f891 6055 	ldrb.w	r6, [r1, #85]	; 0x55
   20da2:	b11e      	cbz	r6, 20dac <FLASH_SetSpiMode+0x48>
   20da4:	2a04      	cmp	r2, #4
   20da6:	d016      	beq.n	20dd6 <FLASH_SetSpiMode+0x72>
   20da8:	2a02      	cmp	r2, #2
   20daa:	d039      	beq.n	20e20 <FLASH_SetSpiMode+0xbc>
   20dac:	f8d0 5118 	ldr.w	r5, [r0, #280]	; 0x118
   20db0:	3a01      	subs	r2, #1
   20db2:	4b2d      	ldr	r3, [pc, #180]	; (20e68 <FLASH_SetSpiMode+0x104>)
   20db4:	402b      	ands	r3, r5
   20db6:	431c      	orrs	r4, r3
   20db8:	4b2a      	ldr	r3, [pc, #168]	; (20e64 <FLASH_SetSpiMode+0x100>)
   20dba:	f8c0 4118 	str.w	r4, [r0, #280]	; 0x118
   20dbe:	6804      	ldr	r4, [r0, #0]
   20dc0:	f8d0 5120 	ldr.w	r5, [r0, #288]	; 0x120
   20dc4:	f424 147c 	bic.w	r4, r4, #4128768	; 0x3f0000
   20dc8:	402b      	ands	r3, r5
   20dca:	2a03      	cmp	r2, #3
   20dcc:	d847      	bhi.n	20e5e <FLASH_SetSpiMode+0xfa>
   20dce:	e8df f002 	tbb	[pc, r2]
   20dd2:	383f      	.short	0x383f
   20dd4:	1320      	.short	0x1320
   20dd6:	f8d0 4118 	ldr.w	r4, [r0, #280]	; 0x118
   20dda:	ebac 038e 	sub.w	r3, ip, lr, lsl #2
   20dde:	4a22      	ldr	r2, [pc, #136]	; (20e68 <FLASH_SetSpiMode+0x104>)
   20de0:	f3c3 030b 	ubfx	r3, r3, #0, #12
   20de4:	4022      	ands	r2, r4
   20de6:	4313      	orrs	r3, r2
   20de8:	f8c0 3118 	str.w	r3, [r0, #280]	; 0x118
   20dec:	6804      	ldr	r4, [r0, #0]
   20dee:	f8d0 3120 	ldr.w	r3, [r0, #288]	; 0x120
   20df2:	f424 147c 	bic.w	r4, r4, #4128768	; 0x3f0000
   20df6:	402b      	ands	r3, r5
   20df8:	6b8a      	ldr	r2, [r1, #56]	; 0x38
   20dfa:	f444 2420 	orr.w	r4, r4, #655360	; 0xa0000
   20dfe:	4313      	orrs	r3, r2
   20e00:	22eb      	movs	r2, #235	; 0xeb
   20e02:	608a      	str	r2, [r1, #8]
   20e04:	b10e      	cbz	r6, 20e0a <FLASH_SetSpiMode+0xa6>
   20e06:	f443 5300 	orr.w	r3, r3, #8192	; 0x2000
   20e0a:	f8c0 3120 	str.w	r3, [r0, #288]	; 0x120
   20e0e:	6004      	str	r4, [r0, #0]
   20e10:	bd70      	pop	{r4, r5, r6, pc}
   20e12:	6b4a      	ldr	r2, [r1, #52]	; 0x34
   20e14:	f444 2400 	orr.w	r4, r4, #524288	; 0x80000
   20e18:	4313      	orrs	r3, r2
   20e1a:	226b      	movs	r2, #107	; 0x6b
   20e1c:	608a      	str	r2, [r1, #8]
   20e1e:	e7f1      	b.n	20e04 <FLASH_SetSpiMode+0xa0>
   20e20:	f8d0 4118 	ldr.w	r4, [r0, #280]	; 0x118
   20e24:	ebac 03ce 	sub.w	r3, ip, lr, lsl #3
   20e28:	4a0f      	ldr	r2, [pc, #60]	; (20e68 <FLASH_SetSpiMode+0x104>)
   20e2a:	f3c3 030b 	ubfx	r3, r3, #0, #12
   20e2e:	4022      	ands	r2, r4
   20e30:	4313      	orrs	r3, r2
   20e32:	f8c0 3118 	str.w	r3, [r0, #280]	; 0x118
   20e36:	6804      	ldr	r4, [r0, #0]
   20e38:	f8d0 3120 	ldr.w	r3, [r0, #288]	; 0x120
   20e3c:	f424 147c 	bic.w	r4, r4, #4128768	; 0x3f0000
   20e40:	402b      	ands	r3, r5
   20e42:	6b0a      	ldr	r2, [r1, #48]	; 0x30
   20e44:	f444 24a0 	orr.w	r4, r4, #327680	; 0x50000
   20e48:	4313      	orrs	r3, r2
   20e4a:	22bb      	movs	r2, #187	; 0xbb
   20e4c:	608a      	str	r2, [r1, #8]
   20e4e:	e7d9      	b.n	20e04 <FLASH_SetSpiMode+0xa0>
   20e50:	6aca      	ldr	r2, [r1, #44]	; 0x2c
   20e52:	f444 2480 	orr.w	r4, r4, #262144	; 0x40000
   20e56:	4313      	orrs	r3, r2
   20e58:	223b      	movs	r2, #59	; 0x3b
   20e5a:	608a      	str	r2, [r1, #8]
   20e5c:	e7d2      	b.n	20e04 <FLASH_SetSpiMode+0xa0>
   20e5e:	2203      	movs	r2, #3
   20e60:	608a      	str	r2, [r1, #8]
   20e62:	e7cf      	b.n	20e04 <FLASH_SetSpiMode+0xa0>
   20e64:	ffff0000 	.word	0xffff0000
   20e68:	fffff000 	.word	0xfffff000

00020e6c <FLASH_RxCmd_InUserMode>:
   20e6c:	b5f8      	push	{r3, r4, r5, r6, r7, lr}
   20e6e:	4c1b      	ldr	r4, [pc, #108]	; (20edc <FLASH_RxCmd_InUserMode+0x70>)
   20e70:	460d      	mov	r5, r1
   20e72:	4617      	mov	r7, r2
   20e74:	4606      	mov	r6, r0
   20e76:	2200      	movs	r2, #0
   20e78:	4919      	ldr	r1, [pc, #100]	; (20ee0 <FLASH_RxCmd_InUserMode+0x74>)
   20e7a:	4620      	mov	r0, r4
   20e7c:	f7ff ff72 	bl	20d64 <FLASH_SetSpiMode>
   20e80:	f8d4 3118 	ldr.w	r3, [r4, #280]	; 0x118
   20e84:	1e7a      	subs	r2, r7, #1
   20e86:	f423 2370 	bic.w	r3, r3, #983040	; 0xf0000
   20e8a:	1951      	adds	r1, r2, r5
   20e8c:	f8c4 3118 	str.w	r3, [r4, #280]	; 0x118
   20e90:	f025 437f 	bic.w	r3, r5, #4278190080	; 0xff000000
   20e94:	6063      	str	r3, [r4, #4]
   20e96:	2300      	movs	r3, #0
   20e98:	f8c4 3130 	str.w	r3, [r4, #304]	; 0x130
   20e9c:	4b11      	ldr	r3, [pc, #68]	; (20ee4 <FLASH_RxCmd_InUserMode+0x78>)
   20e9e:	6820      	ldr	r0, [r4, #0]
   20ea0:	4003      	ands	r3, r0
   20ea2:	f443 7340 	orr.w	r3, r3, #768	; 0x300
   20ea6:	6023      	str	r3, [r4, #0]
   20ea8:	2301      	movs	r3, #1
   20eaa:	f884 6060 	strb.w	r6, [r4, #96]	; 0x60
   20eae:	60a3      	str	r3, [r4, #8]
   20eb0:	e002      	b.n	20eb8 <FLASH_RxCmd_InUserMode+0x4c>
   20eb2:	6aa3      	ldr	r3, [r4, #40]	; 0x28
   20eb4:	071b      	lsls	r3, r3, #28
   20eb6:	d40b      	bmi.n	20ed0 <FLASH_RxCmd_InUserMode+0x64>
   20eb8:	428a      	cmp	r2, r1
   20eba:	d1fa      	bne.n	20eb2 <FLASH_RxCmd_InUserMode+0x46>
   20ebc:	2004      	movs	r0, #4
   20ebe:	f000 f821 	bl	20f04 <FLASH_WaitBusy_InUserMode>
   20ec2:	4907      	ldr	r1, [pc, #28]	; (20ee0 <FLASH_RxCmd_InUserMode+0x74>)
   20ec4:	4805      	ldr	r0, [pc, #20]	; (20edc <FLASH_RxCmd_InUserMode+0x70>)
   20ec6:	790a      	ldrb	r2, [r1, #4]
   20ec8:	e8bd 40f8 	ldmia.w	sp!, {r3, r4, r5, r6, r7, lr}
   20ecc:	f7ff bf4a 	b.w	20d64 <FLASH_SetSpiMode>
   20ed0:	f894 3060 	ldrb.w	r3, [r4, #96]	; 0x60
   20ed4:	f802 3f01 	strb.w	r3, [r2, #1]!
   20ed8:	e7ee      	b.n	20eb8 <FLASH_RxCmd_InUserMode+0x4c>
   20eda:	bf00      	nop
   20edc:	40128000 	.word	0x40128000
   20ee0:	20004014 	.word	0x20004014
   20ee4:	fff0fcff 	.word	0xfff0fcff

00020ee8 <FLASH_RxCmd>:
   20ee8:	b500      	push	{lr}
   20eea:	b083      	sub	sp, #12
   20eec:	9201      	str	r2, [sp, #4]
   20eee:	f7ff fedb 	bl	20ca8 <FLASH_UserMode_Enter>
   20ef2:	9a01      	ldr	r2, [sp, #4]
   20ef4:	f7ff ffba 	bl	20e6c <FLASH_RxCmd_InUserMode>
   20ef8:	b003      	add	sp, #12
   20efa:	f85d eb04 	ldr.w	lr, [sp], #4
   20efe:	f7ff bedf 	b.w	20cc0 <FLASH_UserMode_Exit>
   20f02:	bf00      	nop

00020f04 <FLASH_WaitBusy_InUserMode>:
   20f04:	2200      	movs	r2, #0
   20f06:	b570      	push	{r4, r5, r6, lr}
   20f08:	4613      	mov	r3, r2
   20f0a:	b082      	sub	sp, #8
   20f0c:	4e1d      	ldr	r6, [pc, #116]	; (20f84 <FLASH_WaitBusy_InUserMode+0x80>)
   20f0e:	4604      	mov	r4, r0
   20f10:	4d1d      	ldr	r5, [pc, #116]	; (20f88 <FLASH_WaitBusy_InUserMode+0x84>)
   20f12:	f88d 2007 	strb.w	r2, [sp, #7]
   20f16:	b934      	cbnz	r4, 20f26 <FLASH_WaitBusy_InUserMode+0x22>
   20f18:	6aab      	ldr	r3, [r5, #40]	; 0x28
   20f1a:	f003 0301 	and.w	r3, r3, #1
   20f1e:	2b00      	cmp	r3, #0
   20f20:	d1f9      	bne.n	20f16 <FLASH_WaitBusy_InUserMode+0x12>
   20f22:	b002      	add	sp, #8
   20f24:	bd70      	pop	{r4, r5, r6, pc}
   20f26:	2c04      	cmp	r4, #4
   20f28:	d017      	beq.n	20f5a <FLASH_WaitBusy_InUserMode+0x56>
   20f2a:	2c01      	cmp	r4, #1
   20f2c:	d01b      	beq.n	20f66 <FLASH_WaitBusy_InUserMode+0x62>
   20f2e:	2c03      	cmp	r4, #3
   20f30:	d1f5      	bne.n	20f1e <FLASH_WaitBusy_InUserMode+0x1a>
   20f32:	f10d 0207 	add.w	r2, sp, #7
   20f36:	2101      	movs	r1, #1
   20f38:	f896 0042 	ldrb.w	r0, [r6, #66]	; 0x42
   20f3c:	f7ff ff96 	bl	20e6c <FLASH_RxCmd_InUserMode>
   20f40:	f89d 3007 	ldrb.w	r3, [sp, #7]
   20f44:	6972      	ldr	r2, [r6, #20]
   20f46:	4213      	tst	r3, r2
   20f48:	d0f3      	beq.n	20f32 <FLASH_WaitBusy_InUserMode+0x2e>
   20f4a:	6932      	ldr	r2, [r6, #16]
   20f4c:	4213      	tst	r3, r2
   20f4e:	bf14      	ite	ne
   20f50:	2301      	movne	r3, #1
   20f52:	2300      	moveq	r3, #0
   20f54:	2b00      	cmp	r3, #0
   20f56:	d1de      	bne.n	20f16 <FLASH_WaitBusy_InUserMode+0x12>
   20f58:	e7e3      	b.n	20f22 <FLASH_WaitBusy_InUserMode+0x1e>
   20f5a:	68ab      	ldr	r3, [r5, #8]
   20f5c:	f003 0301 	and.w	r3, r3, #1
   20f60:	2b00      	cmp	r3, #0
   20f62:	d1d8      	bne.n	20f16 <FLASH_WaitBusy_InUserMode+0x12>
   20f64:	e7dd      	b.n	20f22 <FLASH_WaitBusy_InUserMode+0x1e>
   20f66:	f10d 0207 	add.w	r2, sp, #7
   20f6a:	4621      	mov	r1, r4
   20f6c:	f896 0042 	ldrb.w	r0, [r6, #66]	; 0x42
   20f70:	f7ff ff7c 	bl	20e6c <FLASH_RxCmd_InUserMode>
   20f74:	f89d 3007 	ldrb.w	r3, [sp, #7]
   20f78:	6932      	ldr	r2, [r6, #16]
   20f7a:	4013      	ands	r3, r2
   20f7c:	2b00      	cmp	r3, #0
   20f7e:	d1ca      	bne.n	20f16 <FLASH_WaitBusy_InUserMode+0x12>
   20f80:	e7cf      	b.n	20f22 <FLASH_WaitBusy_InUserMode+0x1e>
   20f82:	bf00      	nop
   20f84:	20004014 	.word	0x20004014
   20f88:	40128000 	.word	0x40128000

00020f8c <FLASH_RxData>:
   20f8c:	b5f8      	push	{r3, r4, r5, r6, r7, lr}
   20f8e:	4616      	mov	r6, r2
   20f90:	461f      	mov	r7, r3
   20f92:	4d46      	ldr	r5, [pc, #280]	; (210ac <FLASH_RxData+0x120>)
   20f94:	b900      	cbnz	r0, 20f98 <FLASH_RxData+0xc>
   20f96:	7a28      	ldrb	r0, [r5, #8]
   20f98:	f7ff fe86 	bl	20ca8 <FLASH_UserMode_Enter>
   20f9c:	4b44      	ldr	r3, [pc, #272]	; (210b0 <FLASH_RxData+0x124>)
   20f9e:	f026 427f 	bic.w	r2, r6, #4278190080	; 0xff000000
   20fa2:	f04f 0c00 	mov.w	ip, #0
   20fa6:	681c      	ldr	r4, [r3, #0]
   20fa8:	f444 7440 	orr.w	r4, r4, #768	; 0x300
   20fac:	601c      	str	r4, [r3, #0]
   20fae:	605a      	str	r2, [r3, #4]
   20fb0:	f8c3 c130 	str.w	ip, [r3, #304]	; 0x130
   20fb4:	f8d3 3118 	ldr.w	r3, [r3, #280]	; 0x118
   20fb8:	f895 4055 	ldrb.w	r4, [r5, #85]	; 0x55
   20fbc:	f423 2370 	bic.w	r3, r3, #983040	; 0xf0000
   20fc0:	f895 5054 	ldrb.w	r5, [r5, #84]	; 0x54
   20fc4:	2c00      	cmp	r4, #0
   20fc6:	d06c      	beq.n	210a2 <FLASH_RxData+0x116>
   20fc8:	1c6a      	adds	r2, r5, #1
   20fca:	0412      	lsls	r2, r2, #16
   20fcc:	f402 2270 	and.w	r2, r2, #983040	; 0xf0000
   20fd0:	4313      	orrs	r3, r2
   20fd2:	4a37      	ldr	r2, [pc, #220]	; (210b0 <FLASH_RxData+0x124>)
   20fd4:	2d04      	cmp	r5, #4
   20fd6:	f8c2 3118 	str.w	r3, [r2, #280]	; 0x118
   20fda:	f04f 0301 	mov.w	r3, #1
   20fde:	6113      	str	r3, [r2, #16]
   20fe0:	f882 0060 	strb.w	r0, [r2, #96]	; 0x60
   20fe4:	d102      	bne.n	20fec <FLASH_RxData+0x60>
   20fe6:	0e0b      	lsrs	r3, r1, #24
   20fe8:	f882 3060 	strb.w	r3, [r2, #96]	; 0x60
   20fec:	f3c1 4207 	ubfx	r2, r1, #16, #8
   20ff0:	4b2f      	ldr	r3, [pc, #188]	; (210b0 <FLASH_RxData+0x124>)
   20ff2:	f883 2060 	strb.w	r2, [r3, #96]	; 0x60
   20ff6:	f3c1 2207 	ubfx	r2, r1, #8, #8
   20ffa:	b2c9      	uxtb	r1, r1
   20ffc:	f883 2060 	strb.w	r2, [r3, #96]	; 0x60
   21000:	f883 1060 	strb.w	r1, [r3, #96]	; 0x60
   21004:	b114      	cbz	r4, 2100c <FLASH_RxData+0x80>
   21006:	2200      	movs	r2, #0
   21008:	f883 2060 	strb.w	r2, [r3, #96]	; 0x60
   2100c:	4828      	ldr	r0, [pc, #160]	; (210b0 <FLASH_RxData+0x124>)
   2100e:	2301      	movs	r3, #1
   21010:	f017 0403 	ands.w	r4, r7, #3
   21014:	6083      	str	r3, [r0, #8]
   21016:	d131      	bne.n	2107c <FLASH_RxData+0xf0>
   21018:	463a      	mov	r2, r7
   2101a:	f8df e094 	ldr.w	lr, [pc, #148]	; 210b0 <FLASH_RxData+0x124>
   2101e:	42b4      	cmp	r4, r6
   21020:	d216      	bcs.n	21050 <FLASH_RxData+0xc4>
   21022:	f8de 3024 	ldr.w	r3, [lr, #36]	; 0x24
   21026:	f013 0f3c 	tst.w	r3, #60	; 0x3c
   2102a:	f3c3 0583 	ubfx	r5, r3, #2, #4
   2102e:	d00c      	beq.n	2104a <FLASH_RxData+0xbe>
   21030:	00ad      	lsls	r5, r5, #2
   21032:	1f11      	subs	r1, r2, #4
   21034:	f1a5 0c04 	sub.w	ip, r5, #4
   21038:	4494      	add	ip, r2
   2103a:	f8de 0060 	ldr.w	r0, [lr, #96]	; 0x60
   2103e:	f841 0f04 	str.w	r0, [r1, #4]!
   21042:	458c      	cmp	ip, r1
   21044:	d1f9      	bne.n	2103a <FLASH_RxData+0xae>
   21046:	442a      	add	r2, r5
   21048:	442c      	add	r4, r5
   2104a:	1b33      	subs	r3, r6, r4
   2104c:	2b03      	cmp	r3, #3
   2104e:	d8e6      	bhi.n	2101e <FLASH_RxData+0x92>
   21050:	1e63      	subs	r3, r4, #1
   21052:	4a17      	ldr	r2, [pc, #92]	; (210b0 <FLASH_RxData+0x124>)
   21054:	441f      	add	r7, r3
   21056:	e002      	b.n	2105e <FLASH_RxData+0xd2>
   21058:	6a93      	ldr	r3, [r2, #40]	; 0x28
   2105a:	071b      	lsls	r3, r3, #28
   2105c:	d408      	bmi.n	21070 <FLASH_RxData+0xe4>
   2105e:	42b4      	cmp	r4, r6
   21060:	d3fa      	bcc.n	21058 <FLASH_RxData+0xcc>
   21062:	2004      	movs	r0, #4
   21064:	f7ff ff4e 	bl	20f04 <FLASH_WaitBusy_InUserMode>
   21068:	e8bd 40f8 	ldmia.w	sp!, {r3, r4, r5, r6, r7, lr}
   2106c:	f7ff be28 	b.w	20cc0 <FLASH_UserMode_Exit>
   21070:	f892 3060 	ldrb.w	r3, [r2, #96]	; 0x60
   21074:	3401      	adds	r4, #1
   21076:	f807 3f01 	strb.w	r3, [r7, #1]!
   2107a:	e7f0      	b.n	2105e <FLASH_RxData+0xd2>
   2107c:	2300      	movs	r3, #0
   2107e:	f1c4 0404 	rsb	r4, r4, #4
   21082:	463a      	mov	r2, r7
   21084:	e009      	b.n	2109a <FLASH_RxData+0x10e>
   21086:	6a81      	ldr	r1, [r0, #40]	; 0x28
   21088:	0709      	lsls	r1, r1, #28
   2108a:	d504      	bpl.n	21096 <FLASH_RxData+0x10a>
   2108c:	f890 1060 	ldrb.w	r1, [r0, #96]	; 0x60
   21090:	3301      	adds	r3, #1
   21092:	7011      	strb	r1, [r2, #0]
   21094:	18fa      	adds	r2, r7, r3
   21096:	429c      	cmp	r4, r3
   21098:	d0bf      	beq.n	2101a <FLASH_RxData+0x8e>
   2109a:	42b3      	cmp	r3, r6
   2109c:	d3f3      	bcc.n	21086 <FLASH_RxData+0xfa>
   2109e:	461c      	mov	r4, r3
   210a0:	e7d6      	b.n	21050 <FLASH_RxData+0xc4>
   210a2:	042a      	lsls	r2, r5, #16
   210a4:	f402 2270 	and.w	r2, r2, #983040	; 0xf0000
   210a8:	4313      	orrs	r3, r2
   210aa:	e792      	b.n	20fd2 <FLASH_RxData+0x46>
   210ac:	20004014 	.word	0x20004014
   210b0:	40128000 	.word	0x40128000

000210b4 <FLASH_TxCmd_InUserMode>:
   210b4:	b5f8      	push	{r3, r4, r5, r6, r7, lr}
   210b6:	4b13      	ldr	r3, [pc, #76]	; (21104 <FLASH_TxCmd_InUserMode+0x50>)
   210b8:	4c13      	ldr	r4, [pc, #76]	; (21108 <FLASH_TxCmd_InUserMode+0x54>)
   210ba:	f8d3 5118 	ldr.w	r5, [r3, #280]	; 0x118
   210be:	681e      	ldr	r6, [r3, #0]
   210c0:	681f      	ldr	r7, [r3, #0]
   210c2:	403c      	ands	r4, r7
   210c4:	601c      	str	r4, [r3, #0]
   210c6:	f8d3 4118 	ldr.w	r4, [r3, #280]	; 0x118
   210ca:	f424 2470 	bic.w	r4, r4, #983040	; 0xf0000
   210ce:	f8c3 4118 	str.w	r4, [r3, #280]	; 0x118
   210d2:	2400      	movs	r4, #0
   210d4:	605c      	str	r4, [r3, #4]
   210d6:	f8c3 1130 	str.w	r1, [r3, #304]	; 0x130
   210da:	f883 0060 	strb.w	r0, [r3, #96]	; 0x60
   210de:	b131      	cbz	r1, 210ee <FLASH_TxCmd_InUserMode+0x3a>
   210e0:	1850      	adds	r0, r2, r1
   210e2:	f812 1b01 	ldrb.w	r1, [r2], #1
   210e6:	4282      	cmp	r2, r0
   210e8:	f883 1060 	strb.w	r1, [r3, #96]	; 0x60
   210ec:	d1f9      	bne.n	210e2 <FLASH_TxCmd_InUserMode+0x2e>
   210ee:	4c05      	ldr	r4, [pc, #20]	; (21104 <FLASH_TxCmd_InUserMode+0x50>)
   210f0:	2301      	movs	r3, #1
   210f2:	2004      	movs	r0, #4
   210f4:	60a3      	str	r3, [r4, #8]
   210f6:	f7ff ff05 	bl	20f04 <FLASH_WaitBusy_InUserMode>
   210fa:	f8c4 5118 	str.w	r5, [r4, #280]	; 0x118
   210fe:	6026      	str	r6, [r4, #0]
   21100:	bdf8      	pop	{r3, r4, r5, r6, r7, pc}
   21102:	bf00      	nop
   21104:	40128000 	.word	0x40128000
   21108:	ffc0fcff 	.word	0xffc0fcff

0002110c <FLASH_WriteEn_InUserMode>:
   2110c:	b508      	push	{r3, lr}
   2110e:	2001      	movs	r0, #1
   21110:	f7ff fef8 	bl	20f04 <FLASH_WaitBusy_InUserMode>
   21114:	4b05      	ldr	r3, [pc, #20]	; (2112c <FLASH_WriteEn_InUserMode+0x20>)
   21116:	2200      	movs	r2, #0
   21118:	f893 0040 	ldrb.w	r0, [r3, #64]	; 0x40
   2111c:	4611      	mov	r1, r2
   2111e:	f7ff ffc9 	bl	210b4 <FLASH_TxCmd_InUserMode>
   21122:	2003      	movs	r0, #3
   21124:	e8bd 4008 	ldmia.w	sp!, {r3, lr}
   21128:	f7ff beec 	b.w	20f04 <FLASH_WaitBusy_InUserMode>
   2112c:	20004014 	.word	0x20004014

00021130 <FLASH_TxData>:
   21130:	e92d 43f8 	stmdb	sp!, {r3, r4, r5, r6, r7, r8, r9, lr}
   21134:	fa5f f980 	uxtb.w	r9, r0
   21138:	4680      	mov	r8, r0
   2113a:	460d      	mov	r5, r1
   2113c:	4616      	mov	r6, r2
   2113e:	eb09 0301 	add.w	r3, r9, r1
   21142:	f5b3 7f80 	cmp.w	r3, #256	; 0x100
   21146:	f200 8088 	bhi.w	2125a <FLASH_TxData+0x12a>
   2114a:	f7ff fdad 	bl	20ca8 <FLASH_UserMode_Enter>
   2114e:	f7ff ffdd 	bl	2110c <FLASH_WriteEn_InUserMode>
   21152:	4b46      	ldr	r3, [pc, #280]	; (2126c <FLASH_TxData+0x13c>)
   21154:	4946      	ldr	r1, [pc, #280]	; (21270 <FLASH_TxData+0x140>)
   21156:	681f      	ldr	r7, [r3, #0]
   21158:	f891 0054 	ldrb.w	r0, [r1, #84]	; 0x54
   2115c:	4a45      	ldr	r2, [pc, #276]	; (21274 <FLASH_TxData+0x144>)
   2115e:	6819      	ldr	r1, [r3, #0]
   21160:	2804      	cmp	r0, #4
   21162:	ea02 0201 	and.w	r2, r2, r1
   21166:	601a      	str	r2, [r3, #0]
   21168:	ea4f 4200 	mov.w	r2, r0, lsl #16
   2116c:	f8d3 1118 	ldr.w	r1, [r3, #280]	; 0x118
   21170:	f402 2270 	and.w	r2, r2, #983040	; 0xf0000
   21174:	f421 2170 	bic.w	r1, r1, #983040	; 0xf0000
   21178:	ea42 0201 	orr.w	r2, r2, r1
   2117c:	f8c3 2118 	str.w	r2, [r3, #280]	; 0x118
   21180:	f04f 0200 	mov.w	r2, #0
   21184:	605a      	str	r2, [r3, #4]
   21186:	f025 427f 	bic.w	r2, r5, #4278190080	; 0xff000000
   2118a:	f8c3 2130 	str.w	r2, [r3, #304]	; 0x130
   2118e:	f04f 0202 	mov.w	r2, #2
   21192:	f883 2060 	strb.w	r2, [r3, #96]	; 0x60
   21196:	d103      	bne.n	211a0 <FLASH_TxData+0x70>
   21198:	ea4f 6218 	mov.w	r2, r8, lsr #24
   2119c:	f883 2060 	strb.w	r2, [r3, #96]	; 0x60
   211a0:	4c32      	ldr	r4, [pc, #200]	; (2126c <FLASH_TxData+0x13c>)
   211a2:	f3c8 4307 	ubfx	r3, r8, #16, #8
   211a6:	f016 0103 	ands.w	r1, r6, #3
   211aa:	f3c8 2807 	ubfx	r8, r8, #8, #8
   211ae:	f884 3060 	strb.w	r3, [r4, #96]	; 0x60
   211b2:	4632      	mov	r2, r6
   211b4:	f884 8060 	strb.w	r8, [r4, #96]	; 0x60
   211b8:	f884 9060 	strb.w	r9, [r4, #96]	; 0x60
   211bc:	d13b      	bne.n	21236 <FLASH_TxData+0x106>
   211be:	46b4      	mov	ip, r6
   211c0:	4a2a      	ldr	r2, [pc, #168]	; (2126c <FLASH_TxData+0x13c>)
   211c2:	2301      	movs	r3, #1
   211c4:	6093      	str	r3, [r2, #8]
   211c6:	42a9      	cmp	r1, r5
   211c8:	d21a      	bcs.n	21200 <FLASH_TxData+0xd0>
   211ca:	6a10      	ldr	r0, [r2, #32]
   211cc:	1a6b      	subs	r3, r5, r1
   211ce:	f000 003f 	and.w	r0, r0, #63	; 0x3f
   211d2:	f1c0 0020 	rsb	r0, r0, #32
   211d6:	4298      	cmp	r0, r3
   211d8:	bf28      	it	cs
   211da:	4618      	movcs	r0, r3
   211dc:	0880      	lsrs	r0, r0, #2
   211de:	d00d      	beq.n	211fc <FLASH_TxData+0xcc>
   211e0:	f1ac 0304 	sub.w	r3, ip, #4
   211e4:	ea4f 0e80 	mov.w	lr, r0, lsl #2
   211e8:	eb03 0080 	add.w	r0, r3, r0, lsl #2
   211ec:	f853 4f04 	ldr.w	r4, [r3, #4]!
   211f0:	4298      	cmp	r0, r3
   211f2:	6614      	str	r4, [r2, #96]	; 0x60
   211f4:	d1fa      	bne.n	211ec <FLASH_TxData+0xbc>
   211f6:	4471      	add	r1, lr
   211f8:	44f4      	add	ip, lr
   211fa:	1a6b      	subs	r3, r5, r1
   211fc:	2b03      	cmp	r3, #3
   211fe:	d8e2      	bhi.n	211c6 <FLASH_TxData+0x96>
   21200:	1e4b      	subs	r3, r1, #1
   21202:	4a1a      	ldr	r2, [pc, #104]	; (2126c <FLASH_TxData+0x13c>)
   21204:	441e      	add	r6, r3
   21206:	e002      	b.n	2120e <FLASH_TxData+0xde>
   21208:	6a93      	ldr	r3, [r2, #40]	; 0x28
   2120a:	079b      	lsls	r3, r3, #30
   2120c:	d40d      	bmi.n	2122a <FLASH_TxData+0xfa>
   2120e:	42a9      	cmp	r1, r5
   21210:	d3fa      	bcc.n	21208 <FLASH_TxData+0xd8>
   21212:	2004      	movs	r0, #4
   21214:	f7ff fe76 	bl	20f04 <FLASH_WaitBusy_InUserMode>
   21218:	4b14      	ldr	r3, [pc, #80]	; (2126c <FLASH_TxData+0x13c>)
   2121a:	2001      	movs	r0, #1
   2121c:	601f      	str	r7, [r3, #0]
   2121e:	f7ff fe71 	bl	20f04 <FLASH_WaitBusy_InUserMode>
   21222:	e8bd 43f8 	ldmia.w	sp!, {r3, r4, r5, r6, r7, r8, r9, lr}
   21226:	f7ff bd4b 	b.w	20cc0 <FLASH_UserMode_Exit>
   2122a:	f816 3f01 	ldrb.w	r3, [r6, #1]!
   2122e:	3101      	adds	r1, #1
   21230:	f882 3060 	strb.w	r3, [r2, #96]	; 0x60
   21234:	e7eb      	b.n	2120e <FLASH_TxData+0xde>
   21236:	f1c1 0104 	rsb	r1, r1, #4
   2123a:	2300      	movs	r3, #0
   2123c:	e006      	b.n	2124c <FLASH_TxData+0x11c>
   2123e:	7810      	ldrb	r0, [r2, #0]
   21240:	4299      	cmp	r1, r3
   21242:	f10c 0201 	add.w	r2, ip, #1
   21246:	f884 0060 	strb.w	r0, [r4, #96]	; 0x60
   2124a:	d00c      	beq.n	21266 <FLASH_TxData+0x136>
   2124c:	42ab      	cmp	r3, r5
   2124e:	4694      	mov	ip, r2
   21250:	f103 0301 	add.w	r3, r3, #1
   21254:	d1f3      	bne.n	2123e <FLASH_TxData+0x10e>
   21256:	4629      	mov	r1, r5
   21258:	e7b2      	b.n	211c0 <FLASH_TxData+0x90>
   2125a:	f44f 71c3 	mov.w	r1, #390	; 0x186
   2125e:	4806      	ldr	r0, [pc, #24]	; (21278 <FLASH_TxData+0x148>)
   21260:	f7fd ffaa 	bl	1f1b8 <io_assert_failed>
   21264:	e771      	b.n	2114a <FLASH_TxData+0x1a>
   21266:	eb06 0c01 	add.w	ip, r6, r1
   2126a:	e7a9      	b.n	211c0 <FLASH_TxData+0x90>
   2126c:	40128000 	.word	0x40128000
   21270:	20004014 	.word	0x20004014
   21274:	ffc0fcff 	.word	0xffc0fcff
   21278:	00043618 	.word	0x00043618

0002127c <FLASH_SetStatus>:
   2127c:	b510      	push	{r4, lr}
   2127e:	460c      	mov	r4, r1
   21280:	b082      	sub	sp, #8
   21282:	9001      	str	r0, [sp, #4]
   21284:	9200      	str	r2, [sp, #0]
   21286:	f7ff fd0f 	bl	20ca8 <FLASH_UserMode_Enter>
   2128a:	f7ff ff3f 	bl	2110c <FLASH_WriteEn_InUserMode>
   2128e:	b2e1      	uxtb	r1, r4
   21290:	e9dd 2000 	ldrd	r2, r0, [sp]
   21294:	f7ff ff0e 	bl	210b4 <FLASH_TxCmd_InUserMode>
   21298:	2001      	movs	r0, #1
   2129a:	f7ff fe33 	bl	20f04 <FLASH_WaitBusy_InUserMode>
   2129e:	b002      	add	sp, #8
   212a0:	e8bd 4010 	ldmia.w	sp!, {r4, lr}
   212a4:	f7ff bd0c 	b.w	20cc0 <FLASH_UserMode_Exit>

000212a8 <FLASH_Erase>:
   212a8:	2802      	cmp	r0, #2
   212aa:	b5f0      	push	{r4, r5, r6, r7, lr}
   212ac:	4605      	mov	r5, r0
   212ae:	b083      	sub	sp, #12
   212b0:	460c      	mov	r4, r1
   212b2:	d82f      	bhi.n	21314 <FLASH_Erase+0x6c>
   212b4:	4f21      	ldr	r7, [pc, #132]	; (2133c <FLASH_Erase+0x94>)
   212b6:	f3c4 4107 	ubfx	r1, r4, #16, #8
   212ba:	f3c4 2207 	ubfx	r2, r4, #8, #8
   212be:	b2e3      	uxtb	r3, r4
   212c0:	f897 6054 	ldrb.w	r6, [r7, #84]	; 0x54
   212c4:	2e04      	cmp	r6, #4
   212c6:	d016      	beq.n	212f6 <FLASH_Erase+0x4e>
   212c8:	f88d 1004 	strb.w	r1, [sp, #4]
   212cc:	2603      	movs	r6, #3
   212ce:	f88d 2005 	strb.w	r2, [sp, #5]
   212d2:	f88d 3006 	strb.w	r3, [sp, #6]
   212d6:	f7ff fce7 	bl	20ca8 <FLASH_UserMode_Enter>
   212da:	f7ff ff17 	bl	2110c <FLASH_WriteEn_InUserMode>
   212de:	b195      	cbz	r5, 21306 <FLASH_Erase+0x5e>
   212e0:	2d01      	cmp	r5, #1
   212e2:	d024      	beq.n	2132e <FLASH_Erase+0x86>
   212e4:	2d02      	cmp	r5, #2
   212e6:	d01b      	beq.n	21320 <FLASH_Erase+0x78>
   212e8:	2001      	movs	r0, #1
   212ea:	f7ff fe0b 	bl	20f04 <FLASH_WaitBusy_InUserMode>
   212ee:	f7ff fce7 	bl	20cc0 <FLASH_UserMode_Exit>
   212f2:	b003      	add	sp, #12
   212f4:	bdf0      	pop	{r4, r5, r6, r7, pc}
   212f6:	ba24      	rev	r4, r4
   212f8:	9401      	str	r4, [sp, #4]
   212fa:	f7ff fcd5 	bl	20ca8 <FLASH_UserMode_Enter>
   212fe:	f7ff ff05 	bl	2110c <FLASH_WriteEn_InUserMode>
   21302:	2d00      	cmp	r5, #0
   21304:	d1ec      	bne.n	212e0 <FLASH_Erase+0x38>
   21306:	462a      	mov	r2, r5
   21308:	4629      	mov	r1, r5
   2130a:	f897 0046 	ldrb.w	r0, [r7, #70]	; 0x46
   2130e:	f7ff fed1 	bl	210b4 <FLASH_TxCmd_InUserMode>
   21312:	e7e9      	b.n	212e8 <FLASH_Erase+0x40>
   21314:	f240 2136 	movw	r1, #566	; 0x236
   21318:	4809      	ldr	r0, [pc, #36]	; (21340 <FLASH_Erase+0x98>)
   2131a:	f7fd ff4d 	bl	1f1b8 <io_assert_failed>
   2131e:	e7c9      	b.n	212b4 <FLASH_Erase+0xc>
   21320:	aa01      	add	r2, sp, #4
   21322:	4631      	mov	r1, r6
   21324:	f897 0048 	ldrb.w	r0, [r7, #72]	; 0x48
   21328:	f7ff fec4 	bl	210b4 <FLASH_TxCmd_InUserMode>
   2132c:	e7dc      	b.n	212e8 <FLASH_Erase+0x40>
   2132e:	aa01      	add	r2, sp, #4
   21330:	4631      	mov	r1, r6
   21332:	f897 0047 	ldrb.w	r0, [r7, #71]	; 0x47
   21336:	f7ff febd 	bl	210b4 <FLASH_TxCmd_InUserMode>
   2133a:	e7d5      	b.n	212e8 <FLASH_Erase+0x40>
   2133c:	20004014 	.word	0x20004014
   21340:	00043628 	.word	0x00043628

00021344 <FLASH_Addr4ByteEn>:
   21344:	b508      	push	{r3, lr}
   21346:	f7ff fcaf 	bl	20ca8 <FLASH_UserMode_Enter>
   2134a:	f7ff fedf 	bl	2110c <FLASH_WriteEn_InUserMode>
   2134e:	2200      	movs	r2, #0
   21350:	20b7      	movs	r0, #183	; 0xb7
   21352:	4611      	mov	r1, r2
   21354:	f7ff feae 	bl	210b4 <FLASH_TxCmd_InUserMode>
   21358:	2001      	movs	r0, #1
   2135a:	f7ff fdd3 	bl	20f04 <FLASH_WaitBusy_InUserMode>
   2135e:	e8bd 4008 	ldmia.w	sp!, {r3, lr}
   21362:	f7ff bcad 	b.w	20cc0 <FLASH_UserMode_Exit>
   21366:	bf00      	nop

00021368 <FLASH_Addr4ByteDis>:
   21368:	b508      	push	{r3, lr}
   2136a:	f7ff fc9d 	bl	20ca8 <FLASH_UserMode_Enter>
   2136e:	f7ff fecd 	bl	2110c <FLASH_WriteEn_InUserMode>
   21372:	2200      	movs	r2, #0
   21374:	20e9      	movs	r0, #233	; 0xe9
   21376:	4611      	mov	r1, r2
   21378:	f7ff fe9c 	bl	210b4 <FLASH_TxCmd_InUserMode>
   2137c:	2001      	movs	r0, #1
   2137e:	f7ff fdc1 	bl	20f04 <FLASH_WaitBusy_InUserMode>
   21382:	e8bd 4008 	ldmia.w	sp!, {r3, lr}
   21386:	f7ff bc9b 	b.w	20cc0 <FLASH_UserMode_Exit>
   2138a:	bf00      	nop

0002138c <FLASH_DeepPowerDown>:
   2138c:	b510      	push	{r4, lr}
   2138e:	4b14      	ldr	r3, [pc, #80]	; (213e0 <FLASH_DeepPowerDown+0x54>)
   21390:	4604      	mov	r4, r0
   21392:	4798      	blx	r3
   21394:	b318      	cbz	r0, 213de <FLASH_DeepPowerDown+0x52>
   21396:	2c01      	cmp	r4, #1
   21398:	d012      	beq.n	213c0 <FLASH_DeepPowerDown+0x34>
   2139a:	f7ff fc85 	bl	20ca8 <FLASH_UserMode_Enter>
   2139e:	2200      	movs	r2, #0
   213a0:	4b10      	ldr	r3, [pc, #64]	; (213e4 <FLASH_DeepPowerDown+0x58>)
   213a2:	4611      	mov	r1, r2
   213a4:	f893 0049 	ldrb.w	r0, [r3, #73]	; 0x49
   213a8:	f7ff fe84 	bl	210b4 <FLASH_TxCmd_InUserMode>
   213ac:	2064      	movs	r0, #100	; 0x64
   213ae:	4b0e      	ldr	r3, [pc, #56]	; (213e8 <FLASH_DeepPowerDown+0x5c>)
   213b0:	4798      	blx	r3
   213b2:	2001      	movs	r0, #1
   213b4:	f7ff fda6 	bl	20f04 <FLASH_WaitBusy_InUserMode>
   213b8:	e8bd 4010 	ldmia.w	sp!, {r4, lr}
   213bc:	f7ff bc80 	b.w	20cc0 <FLASH_UserMode_Exit>
   213c0:	f7ff fc72 	bl	20ca8 <FLASH_UserMode_Enter>
   213c4:	f7ff fea2 	bl	2110c <FLASH_WriteEn_InUserMode>
   213c8:	4b06      	ldr	r3, [pc, #24]	; (213e4 <FLASH_DeepPowerDown+0x58>)
   213ca:	2200      	movs	r2, #0
   213cc:	f893 004a 	ldrb.w	r0, [r3, #74]	; 0x4a
   213d0:	4611      	mov	r1, r2
   213d2:	f7ff fe6f 	bl	210b4 <FLASH_TxCmd_InUserMode>
   213d6:	e8bd 4010 	ldmia.w	sp!, {r4, lr}
   213da:	f7ff bc71 	b.w	20cc0 <FLASH_UserMode_Exit>
   213de:	bd10      	pop	{r4, pc}
   213e0:	00024b9d 	.word	0x00024b9d
   213e4:	20004014 	.word	0x20004014
   213e8:	00020c05 	.word	0x00020c05

000213ec <FLASH_SetStatusBits>:
   213ec:	b5f0      	push	{r4, r5, r6, r7, lr}
   213ee:	4c34      	ldr	r4, [pc, #208]	; (214c0 <FLASH_SetStatusBits+0xd4>)
   213f0:	b083      	sub	sp, #12
   213f2:	460e      	mov	r6, r1
   213f4:	f7ff fc58 	bl	20ca8 <FLASH_UserMode_Enter>
   213f8:	4605      	mov	r5, r0
   213fa:	aa01      	add	r2, sp, #4
   213fc:	0a07      	lsrs	r7, r0, #8
   213fe:	2101      	movs	r1, #1
   21400:	f894 0042 	ldrb.w	r0, [r4, #66]	; 0x42
   21404:	f7ff fd32 	bl	20e6c <FLASH_RxCmd_InUserMode>
   21408:	2e01      	cmp	r6, #1
   2140a:	f89d 0004 	ldrb.w	r0, [sp, #4]
   2140e:	d042      	beq.n	21496 <FLASH_SetStatusBits+0xaa>
   21410:	ea20 0505 	bic.w	r5, r0, r5
   21414:	69a3      	ldr	r3, [r4, #24]
   21416:	f88d 5004 	strb.w	r5, [sp, #4]
   2141a:	bb6b      	cbnz	r3, 21478 <FLASH_SetStatusBits+0x8c>
   2141c:	2501      	movs	r5, #1
   2141e:	f894 3045 	ldrb.w	r3, [r4, #69]	; 0x45
   21422:	b973      	cbnz	r3, 21442 <FLASH_SetStatusBits+0x56>
   21424:	f7ff fe72 	bl	2110c <FLASH_WriteEn_InUserMode>
   21428:	aa01      	add	r2, sp, #4
   2142a:	4629      	mov	r1, r5
   2142c:	f894 0044 	ldrb.w	r0, [r4, #68]	; 0x44
   21430:	f7ff fe40 	bl	210b4 <FLASH_TxCmd_InUserMode>
   21434:	2001      	movs	r0, #1
   21436:	f7ff fd65 	bl	20f04 <FLASH_WaitBusy_InUserMode>
   2143a:	f7ff fc41 	bl	20cc0 <FLASH_UserMode_Exit>
   2143e:	b003      	add	sp, #12
   21440:	bdf0      	pop	{r4, r5, r6, r7, pc}
   21442:	f7ff fe63 	bl	2110c <FLASH_WriteEn_InUserMode>
   21446:	aa01      	add	r2, sp, #4
   21448:	2101      	movs	r1, #1
   2144a:	f894 0044 	ldrb.w	r0, [r4, #68]	; 0x44
   2144e:	f7ff fe31 	bl	210b4 <FLASH_TxCmd_InUserMode>
   21452:	2001      	movs	r0, #1
   21454:	f7ff fd56 	bl	20f04 <FLASH_WaitBusy_InUserMode>
   21458:	f7ff fe58 	bl	2110c <FLASH_WriteEn_InUserMode>
   2145c:	f10d 0205 	add.w	r2, sp, #5
   21460:	f894 0045 	ldrb.w	r0, [r4, #69]	; 0x45
   21464:	2101      	movs	r1, #1
   21466:	f7ff fe25 	bl	210b4 <FLASH_TxCmd_InUserMode>
   2146a:	2001      	movs	r0, #1
   2146c:	f7ff fd4a 	bl	20f04 <FLASH_WaitBusy_InUserMode>
   21470:	f7ff fc26 	bl	20cc0 <FLASH_UserMode_Exit>
   21474:	b003      	add	sp, #12
   21476:	bdf0      	pop	{r4, r5, r6, r7, pc}
   21478:	f10d 0205 	add.w	r2, sp, #5
   2147c:	2101      	movs	r1, #1
   2147e:	f894 0043 	ldrb.w	r0, [r4, #67]	; 0x43
   21482:	2502      	movs	r5, #2
   21484:	f7ff fcf2 	bl	20e6c <FLASH_RxCmd_InUserMode>
   21488:	f89d 3005 	ldrb.w	r3, [sp, #5]
   2148c:	ea23 0707 	bic.w	r7, r3, r7
   21490:	f88d 7005 	strb.w	r7, [sp, #5]
   21494:	e7c3      	b.n	2141e <FLASH_SetStatusBits+0x32>
   21496:	4305      	orrs	r5, r0
   21498:	69a3      	ldr	r3, [r4, #24]
   2149a:	f88d 5004 	strb.w	r5, [sp, #4]
   2149e:	2b00      	cmp	r3, #0
   214a0:	d0bc      	beq.n	2141c <FLASH_SetStatusBits+0x30>
   214a2:	f10d 0205 	add.w	r2, sp, #5
   214a6:	4631      	mov	r1, r6
   214a8:	f894 0043 	ldrb.w	r0, [r4, #67]	; 0x43
   214ac:	2502      	movs	r5, #2
   214ae:	f7ff fcdd 	bl	20e6c <FLASH_RxCmd_InUserMode>
   214b2:	f89d 3005 	ldrb.w	r3, [sp, #5]
   214b6:	431f      	orrs	r7, r3
   214b8:	f88d 7005 	strb.w	r7, [sp, #5]
   214bc:	e7af      	b.n	2141e <FLASH_SetStatusBits+0x32>
   214be:	bf00      	nop
   214c0:	20004014 	.word	0x20004014

000214c4 <FLASH_StructInit_Micron>:
   214c4:	2103      	movs	r1, #3
   214c6:	2300      	movs	r3, #0
   214c8:	2201      	movs	r2, #1
   214ca:	6001      	str	r1, [r0, #0]
   214cc:	f8a0 1054 	strh.w	r1, [r0, #84]	; 0x54
   214d0:	2102      	movs	r1, #2
   214d2:	7142      	strb	r2, [r0, #5]
   214d4:	f880 304d 	strb.w	r3, [r0, #77]	; 0x4d
   214d8:	60c3      	str	r3, [r0, #12]
   214da:	6102      	str	r2, [r0, #16]
   214dc:	22bb      	movs	r2, #187	; 0xbb
   214de:	62c1      	str	r1, [r0, #44]	; 0x2c
   214e0:	63c2      	str	r2, [r0, #60]	; 0x3c
   214e2:	b410      	push	{r4}
   214e4:	f44f 64a0 	mov.w	r4, #1280	; 0x500
   214e8:	f8a0 404e 	strh.w	r4, [r0, #78]	; 0x4e
   214ec:	4c0c      	ldr	r4, [pc, #48]	; (21520 <FLASH_StructInit_Micron+0x5c>)
   214ee:	e9c0 1305 	strd	r1, r3, [r0, #20]
   214f2:	6504      	str	r4, [r0, #80]	; 0x50
   214f4:	236b      	movs	r3, #107	; 0x6b
   214f6:	243b      	movs	r4, #59	; 0x3b
   214f8:	2108      	movs	r1, #8
   214fa:	6243      	str	r3, [r0, #36]	; 0x24
   214fc:	23eb      	movs	r3, #235	; 0xeb
   214fe:	e9c0 4207 	strd	r4, r2, [r0, #28]
   21502:	2404      	movs	r4, #4
   21504:	4a07      	ldr	r2, [pc, #28]	; (21524 <FLASH_StructInit_Micron+0x60>)
   21506:	6283      	str	r3, [r0, #40]	; 0x28
   21508:	4b07      	ldr	r3, [pc, #28]	; (21528 <FLASH_StructInit_Micron+0x64>)
   2150a:	e9c0 410c 	strd	r4, r1, [r0, #48]	; 0x30
   2150e:	2410      	movs	r4, #16
   21510:	4906      	ldr	r1, [pc, #24]	; (2152c <FLASH_StructInit_Micron+0x68>)
   21512:	6483      	str	r3, [r0, #72]	; 0x48
   21514:	6384      	str	r4, [r0, #56]	; 0x38
   21516:	f85d 4b04 	ldr.w	r4, [sp], #4
   2151a:	e9c0 1210 	strd	r1, r2, [r0, #64]	; 0x40
   2151e:	4770      	bx	lr
   21520:	00090905 	.word	0x00090905
   21524:	d8c70001 	.word	0xd8c70001
   21528:	00b9ab20 	.word	0x00b9ab20
   2152c:	00059f06 	.word	0x00059f06

00021530 <FLASH_StructInit_MXIC>:
   21530:	b430      	push	{r4, r5}
   21532:	f44f 6400 	mov.w	r4, #2048	; 0x800
   21536:	2301      	movs	r3, #1
   21538:	2200      	movs	r2, #0
   2153a:	2102      	movs	r1, #2
   2153c:	f8a0 404e 	strh.w	r4, [r0, #78]	; 0x4e
   21540:	253b      	movs	r5, #59	; 0x3b
   21542:	4c12      	ldr	r4, [pc, #72]	; (2158c <FLASH_StructInit_MXIC+0x5c>)
   21544:	6003      	str	r3, [r0, #0]
   21546:	6504      	str	r4, [r0, #80]	; 0x50
   21548:	2403      	movs	r4, #3
   2154a:	7143      	strb	r3, [r0, #5]
   2154c:	f8a0 4054 	strh.w	r4, [r0, #84]	; 0x54
   21550:	2440      	movs	r4, #64	; 0x40
   21552:	f880 204d 	strb.w	r2, [r0, #77]	; 0x4d
   21556:	6103      	str	r3, [r0, #16]
   21558:	23bb      	movs	r3, #187	; 0xbb
   2155a:	6141      	str	r1, [r0, #20]
   2155c:	62c1      	str	r1, [r0, #44]	; 0x2c
   2155e:	2104      	movs	r1, #4
   21560:	6182      	str	r2, [r0, #24]
   21562:	2210      	movs	r2, #16
   21564:	60c4      	str	r4, [r0, #12]
   21566:	2408      	movs	r4, #8
   21568:	6203      	str	r3, [r0, #32]
   2156a:	6301      	str	r1, [r0, #48]	; 0x30
   2156c:	63c3      	str	r3, [r0, #60]	; 0x3c
   2156e:	4908      	ldr	r1, [pc, #32]	; (21590 <FLASH_StructInit_MXIC+0x60>)
   21570:	4b08      	ldr	r3, [pc, #32]	; (21594 <FLASH_StructInit_MXIC+0x64>)
   21572:	61c5      	str	r5, [r0, #28]
   21574:	6483      	str	r3, [r0, #72]	; 0x48
   21576:	23eb      	movs	r3, #235	; 0xeb
   21578:	e9c0 420d 	strd	r4, r2, [r0, #52]	; 0x34
   2157c:	4a06      	ldr	r2, [pc, #24]	; (21598 <FLASH_StructInit_MXIC+0x68>)
   2157e:	e9c0 1210 	strd	r1, r2, [r0, #64]	; 0x40
   21582:	226b      	movs	r2, #107	; 0x6b
   21584:	bc30      	pop	{r4, r5}
   21586:	e9c0 2309 	strd	r2, r3, [r0, #36]	; 0x24
   2158a:	4770      	bx	lr
   2158c:	00060804 	.word	0x00060804
   21590:	00059f06 	.word	0x00059f06
   21594:	00b9ab20 	.word	0x00b9ab20
   21598:	d8600001 	.word	0xd8600001

0002159c <FLASH_StructInit_GD>:
   2159c:	2301      	movs	r3, #1
   2159e:	2102      	movs	r1, #2
   215a0:	22bb      	movs	r2, #187	; 0xbb
   215a2:	f04f 0c00 	mov.w	ip, #0
   215a6:	7143      	strb	r3, [r0, #5]
   215a8:	6183      	str	r3, [r0, #24]
   215aa:	63c2      	str	r2, [r0, #60]	; 0x3c
   215ac:	f880 c04d 	strb.w	ip, [r0, #77]	; 0x4d
   215b0:	b410      	push	{r4}
   215b2:	e9c0 3104 	strd	r3, r1, [r0, #16]
   215b6:	2405      	movs	r4, #5
   215b8:	f44f 6300 	mov.w	r3, #2048	; 0x800
   215bc:	6004      	str	r4, [r0, #0]
   215be:	243b      	movs	r4, #59	; 0x3b
   215c0:	f8a0 304e 	strh.w	r3, [r0, #78]	; 0x4e
   215c4:	4b0e      	ldr	r3, [pc, #56]	; (21600 <FLASH_StructInit_GD+0x64>)
   215c6:	e9c0 4207 	strd	r4, r2, [r0, #28]
   215ca:	6503      	str	r3, [r0, #80]	; 0x50
   215cc:	246b      	movs	r4, #107	; 0x6b
   215ce:	2303      	movs	r3, #3
   215d0:	4a0c      	ldr	r2, [pc, #48]	; (21604 <FLASH_StructInit_GD+0x68>)
   215d2:	6244      	str	r4, [r0, #36]	; 0x24
   215d4:	24eb      	movs	r4, #235	; 0xeb
   215d6:	f8a0 3054 	strh.w	r3, [r0, #84]	; 0x54
   215da:	f44f 7300 	mov.w	r3, #512	; 0x200
   215de:	6284      	str	r4, [r0, #40]	; 0x28
   215e0:	2404      	movs	r4, #4
   215e2:	60c3      	str	r3, [r0, #12]
   215e4:	4b08      	ldr	r3, [pc, #32]	; (21608 <FLASH_StructInit_GD+0x6c>)
   215e6:	e9c0 140b 	strd	r1, r4, [r0, #44]	; 0x2c
   215ea:	6403      	str	r3, [r0, #64]	; 0x40
   215ec:	2408      	movs	r4, #8
   215ee:	2110      	movs	r1, #16
   215f0:	4b06      	ldr	r3, [pc, #24]	; (2160c <FLASH_StructInit_GD+0x70>)
   215f2:	e9c0 410d 	strd	r4, r1, [r0, #52]	; 0x34
   215f6:	e9c0 2311 	strd	r2, r3, [r0, #68]	; 0x44
   215fa:	f85d 4b04 	ldr.w	r4, [sp], #4
   215fe:	4770      	bx	lr
   21600:	00060804 	.word	0x00060804
   21604:	d8600001 	.word	0xd8600001
   21608:	35059f06 	.word	0x35059f06
   2160c:	00b9ab20 	.word	0x00b9ab20

00021610 <FLASH_StructInit>:
   21610:	b430      	push	{r4, r5}
   21612:	2400      	movs	r4, #0
   21614:	2302      	movs	r3, #2
   21616:	2201      	movs	r2, #1
   21618:	21bb      	movs	r1, #187	; 0xbb
   2161a:	f880 404d 	strb.w	r4, [r0, #77]	; 0x4d
   2161e:	f44f 6400 	mov.w	r4, #2048	; 0x800
   21622:	7142      	strb	r2, [r0, #5]
   21624:	f8a0 404e 	strh.w	r4, [r0, #78]	; 0x4e
   21628:	243b      	movs	r4, #59	; 0x3b
   2162a:	6182      	str	r2, [r0, #24]
   2162c:	6003      	str	r3, [r0, #0]
   2162e:	61c4      	str	r4, [r0, #28]
   21630:	246b      	movs	r4, #107	; 0x6b
   21632:	62c3      	str	r3, [r0, #44]	; 0x2c
   21634:	4d0e      	ldr	r5, [pc, #56]	; (21670 <FLASH_StructInit+0x60>)
   21636:	e9c0 2304 	strd	r2, r3, [r0, #16]
   2163a:	2203      	movs	r2, #3
   2163c:	2304      	movs	r3, #4
   2163e:	6505      	str	r5, [r0, #80]	; 0x50
   21640:	f8a0 2054 	strh.w	r2, [r0, #84]	; 0x54
   21644:	f44f 7200 	mov.w	r2, #512	; 0x200
   21648:	6303      	str	r3, [r0, #48]	; 0x30
   2164a:	2310      	movs	r3, #16
   2164c:	60c2      	str	r2, [r0, #12]
   2164e:	2208      	movs	r2, #8
   21650:	e9c0 1408 	strd	r1, r4, [r0, #32]
   21654:	24eb      	movs	r4, #235	; 0xeb
   21656:	e9c0 230d 	strd	r2, r3, [r0, #52]	; 0x34
   2165a:	6284      	str	r4, [r0, #40]	; 0x28
   2165c:	4a05      	ldr	r2, [pc, #20]	; (21674 <FLASH_StructInit+0x64>)
   2165e:	4c06      	ldr	r4, [pc, #24]	; (21678 <FLASH_StructInit+0x68>)
   21660:	4b06      	ldr	r3, [pc, #24]	; (2167c <FLASH_StructInit+0x6c>)
   21662:	e9c0 140f 	strd	r1, r4, [r0, #60]	; 0x3c
   21666:	e9c0 2311 	strd	r2, r3, [r0, #68]	; 0x44
   2166a:	bc30      	pop	{r4, r5}
   2166c:	4770      	bx	lr
   2166e:	bf00      	nop
   21670:	00060804 	.word	0x00060804
   21674:	d8600001 	.word	0xd8600001
   21678:	35059f06 	.word	0x35059f06
   2167c:	00b9ab20 	.word	0x00b9ab20

00021680 <FLASH_Init>:
   21680:	b510      	push	{r4, lr}
   21682:	4604      	mov	r4, r0
   21684:	4904      	ldr	r1, [pc, #16]	; (21698 <FLASH_Init+0x18>)
   21686:	4805      	ldr	r0, [pc, #20]	; (2169c <FLASH_Init+0x1c>)
   21688:	f7ff fb22 	bl	20cd0 <FLASH_Config>
   2168c:	4622      	mov	r2, r4
   2168e:	710c      	strb	r4, [r1, #4]
   21690:	f7ff fb68 	bl	20d64 <FLASH_SetSpiMode>
   21694:	2001      	movs	r0, #1
   21696:	bd10      	pop	{r4, pc}
   21698:	20004014 	.word	0x20004014
   2169c:	40128000 	.word	0x40128000

000216a0 <FLASH_Wait_Boot_Finish>:
   216a0:	b570      	push	{r4, r5, r6, lr}
   216a2:	f240 6472 	movw	r4, #1650	; 0x672
   216a6:	4d05      	ldr	r5, [pc, #20]	; (216bc <FLASH_Wait_Boot_Finish+0x1c>)
   216a8:	4e05      	ldr	r6, [pc, #20]	; (216c0 <FLASH_Wait_Boot_Finish+0x20>)
   216aa:	e002      	b.n	216b2 <FLASH_Wait_Boot_Finish+0x12>
   216ac:	47b0      	blx	r6
   216ae:	3c01      	subs	r4, #1
   216b0:	d003      	beq.n	216ba <FLASH_Wait_Boot_Finish+0x1a>
   216b2:	6aab      	ldr	r3, [r5, #40]	; 0x28
   216b4:	2001      	movs	r0, #1
   216b6:	061b      	lsls	r3, r3, #24
   216b8:	d5f8      	bpl.n	216ac <FLASH_Wait_Boot_Finish+0xc>
   216ba:	bd70      	pop	{r4, r5, r6, pc}
   216bc:	40128000 	.word	0x40128000
   216c0:	00020c05 	.word	0x00020c05

000216c4 <GPIO_INTMode>:
   216c4:	b530      	push	{r4, r5, lr}
   216c6:	4c1e      	ldr	r4, [pc, #120]	; (21740 <GPIO_INTMode+0x7c>)
   216c8:	468e      	mov	lr, r1
   216ca:	e844 fc00 	tt	ip, r4
   216ce:	f41c 0f80 	tst.w	ip, #4194304	; 0x400000
   216d2:	f000 011f 	and.w	r1, r0, #31
   216d6:	4c1b      	ldr	r4, [pc, #108]	; (21744 <GPIO_INTMode+0x80>)
   216d8:	f3c0 1041 	ubfx	r0, r0, #5, #2
   216dc:	d00d      	beq.n	216fa <GPIO_INTMode+0x36>
   216de:	f854 5020 	ldr.w	r5, [r4, r0, lsl #2]
   216e2:	2001      	movs	r0, #1
   216e4:	f1be 0f01 	cmp.w	lr, #1
   216e8:	fa00 f001 	lsl.w	r0, r0, r1
   216ec:	ea6f 0400 	mvn.w	r4, r0
   216f0:	d007      	beq.n	21702 <GPIO_INTMode+0x3e>
   216f2:	6b28      	ldr	r0, [r5, #48]	; 0x30
   216f4:	4020      	ands	r0, r4
   216f6:	6328      	str	r0, [r5, #48]	; 0x30
   216f8:	bd30      	pop	{r4, r5, pc}
   216fa:	eb04 0080 	add.w	r0, r4, r0, lsl #2
   216fe:	6885      	ldr	r5, [r0, #8]
   21700:	e7ef      	b.n	216e2 <GPIO_INTMode+0x1e>
   21702:	2a02      	cmp	r2, #2
   21704:	d018      	beq.n	21738 <GPIO_INTMode+0x74>
   21706:	408a      	lsls	r2, r1
   21708:	fa03 f101 	lsl.w	r1, r3, r1
   2170c:	6eab      	ldr	r3, [r5, #104]	; 0x68
   2170e:	4023      	ands	r3, r4
   21710:	66ab      	str	r3, [r5, #104]	; 0x68
   21712:	6bab      	ldr	r3, [r5, #56]	; 0x38
   21714:	4023      	ands	r3, r4
   21716:	4313      	orrs	r3, r2
   21718:	63ab      	str	r3, [r5, #56]	; 0x38
   2171a:	6beb      	ldr	r3, [r5, #60]	; 0x3c
   2171c:	4023      	ands	r3, r4
   2171e:	430b      	orrs	r3, r1
   21720:	63eb      	str	r3, [r5, #60]	; 0x3c
   21722:	6cab      	ldr	r3, [r5, #72]	; 0x48
   21724:	401c      	ands	r4, r3
   21726:	9b03      	ldr	r3, [sp, #12]
   21728:	2b01      	cmp	r3, #1
   2172a:	bf08      	it	eq
   2172c:	4304      	orreq	r4, r0
   2172e:	64ac      	str	r4, [r5, #72]	; 0x48
   21730:	6b2b      	ldr	r3, [r5, #48]	; 0x30
   21732:	4318      	orrs	r0, r3
   21734:	6328      	str	r0, [r5, #48]	; 0x30
   21736:	bd30      	pop	{r4, r5, pc}
   21738:	6eab      	ldr	r3, [r5, #104]	; 0x68
   2173a:	4303      	orrs	r3, r0
   2173c:	66ab      	str	r3, [r5, #104]	; 0x68
   2173e:	e7f0      	b.n	21722 <GPIO_INTMode+0x5e>
   21740:	000265e1 	.word	0x000265e1
   21744:	0004206c 	.word	0x0004206c

00021748 <GPIO_INTConfig>:
   21748:	4b0e      	ldr	r3, [pc, #56]	; (21784 <GPIO_INTConfig+0x3c>)
   2174a:	f000 0c1f 	and.w	ip, r0, #31
   2174e:	e843 f300 	tt	r3, r3
   21752:	f413 0f80 	tst.w	r3, #4194304	; 0x400000
   21756:	f3c0 1041 	ubfx	r0, r0, #5, #2
   2175a:	4b0b      	ldr	r3, [pc, #44]	; (21788 <GPIO_INTConfig+0x40>)
   2175c:	d00a      	beq.n	21774 <GPIO_INTConfig+0x2c>
   2175e:	f853 2020 	ldr.w	r2, [r3, r0, lsl #2]
   21762:	2301      	movs	r3, #1
   21764:	fa03 f30c 	lsl.w	r3, r3, ip
   21768:	64d3      	str	r3, [r2, #76]	; 0x4c
   2176a:	6b50      	ldr	r0, [r2, #52]	; 0x34
   2176c:	b931      	cbnz	r1, 2177c <GPIO_INTConfig+0x34>
   2176e:	4303      	orrs	r3, r0
   21770:	6353      	str	r3, [r2, #52]	; 0x34
   21772:	4770      	bx	lr
   21774:	eb03 0080 	add.w	r0, r3, r0, lsl #2
   21778:	6882      	ldr	r2, [r0, #8]
   2177a:	e7f2      	b.n	21762 <GPIO_INTConfig+0x1a>
   2177c:	ea20 0303 	bic.w	r3, r0, r3
   21780:	6353      	str	r3, [r2, #52]	; 0x34
   21782:	4770      	bx	lr
   21784:	000265e1 	.word	0x000265e1
   21788:	0004206c 	.word	0x0004206c

0002178c <GPIO_INTHandler>:
   2178c:	e92d 43f8 	stmdb	sp!, {r3, r4, r5, r6, r7, r8, r9, lr}
   21790:	4b26      	ldr	r3, [pc, #152]	; (2182c <GPIO_INTHandler+0xa0>)
   21792:	6d06      	ldr	r6, [r0, #80]	; 0x50
   21794:	4298      	cmp	r0, r3
   21796:	6c05      	ldr	r5, [r0, #64]	; 0x40
   21798:	64c5      	str	r5, [r0, #76]	; 0x4c
   2179a:	d00d      	beq.n	217b8 <GPIO_INTHandler+0x2c>
   2179c:	f103 5380 	add.w	r3, r3, #268435456	; 0x10000000
   217a0:	4298      	cmp	r0, r3
   217a2:	d009      	beq.n	217b8 <GPIO_INTHandler+0x2c>
   217a4:	4b22      	ldr	r3, [pc, #136]	; (21830 <GPIO_INTHandler+0xa4>)
   217a6:	4298      	cmp	r0, r3
   217a8:	d023      	beq.n	217f2 <GPIO_INTHandler+0x66>
   217aa:	f103 5380 	add.w	r3, r3, #268435456	; 0x10000000
   217ae:	4298      	cmp	r0, r3
   217b0:	d01f      	beq.n	217f2 <GPIO_INTHandler+0x66>
   217b2:	2000      	movs	r0, #0
   217b4:	e8bd 83f8 	ldmia.w	sp!, {r3, r4, r5, r6, r7, r8, r9, pc}
   217b8:	f8df 8080 	ldr.w	r8, [pc, #128]	; 2183c <GPIO_INTHandler+0xb0>
   217bc:	2400      	movs	r4, #0
   217be:	2701      	movs	r7, #1
   217c0:	f108 0980 	add.w	r9, r8, #128	; 0x80
   217c4:	fa07 f304 	lsl.w	r3, r7, r4
   217c8:	422b      	tst	r3, r5
   217ca:	d00c      	beq.n	217e6 <GPIO_INTHandler+0x5a>
   217cc:	f858 2024 	ldr.w	r2, [r8, r4, lsl #2]
   217d0:	0420      	lsls	r0, r4, #16
   217d2:	b142      	cbz	r2, 217e6 <GPIO_INTHandler+0x5a>
   217d4:	4233      	tst	r3, r6
   217d6:	f040 0102 	orr.w	r1, r0, #2
   217da:	bf18      	it	ne
   217dc:	f040 0101 	orrne.w	r1, r0, #1
   217e0:	f859 0024 	ldr.w	r0, [r9, r4, lsl #2]
   217e4:	4790      	blx	r2
   217e6:	3401      	adds	r4, #1
   217e8:	2c20      	cmp	r4, #32
   217ea:	d1eb      	bne.n	217c4 <GPIO_INTHandler+0x38>
   217ec:	2000      	movs	r0, #0
   217ee:	e8bd 83f8 	ldmia.w	sp!, {r3, r4, r5, r6, r7, r8, r9, pc}
   217f2:	4f10      	ldr	r7, [pc, #64]	; (21834 <GPIO_INTHandler+0xa8>)
   217f4:	2400      	movs	r4, #0
   217f6:	f8df 9048 	ldr.w	r9, [pc, #72]	; 21840 <GPIO_INTHandler+0xb4>
   217fa:	f107 0880 	add.w	r8, r7, #128	; 0x80
   217fe:	2301      	movs	r3, #1
   21800:	40a3      	lsls	r3, r4
   21802:	422b      	tst	r3, r5
   21804:	d00c      	beq.n	21820 <GPIO_INTHandler+0x94>
   21806:	f857 2024 	ldr.w	r2, [r7, r4, lsl #2]
   2180a:	0420      	lsls	r0, r4, #16
   2180c:	b142      	cbz	r2, 21820 <GPIO_INTHandler+0x94>
   2180e:	4233      	tst	r3, r6
   21810:	4909      	ldr	r1, [pc, #36]	; (21838 <GPIO_INTHandler+0xac>)
   21812:	bf0c      	ite	eq
   21814:	ea40 0109 	orreq.w	r1, r0, r9
   21818:	4301      	orrne	r1, r0
   2181a:	f858 0024 	ldr.w	r0, [r8, r4, lsl #2]
   2181e:	4790      	blx	r2
   21820:	3401      	adds	r4, #1
   21822:	2c20      	cmp	r4, #32
   21824:	d1eb      	bne.n	217fe <GPIO_INTHandler+0x72>
   21826:	2000      	movs	r0, #0
   21828:	e8bd 83f8 	ldmia.w	sp!, {r3, r4, r5, r6, r7, r8, r9, pc}
   2182c:	41010000 	.word	0x41010000
   21830:	41010400 	.word	0x41010400
   21834:	200047e0 	.word	0x200047e0
   21838:	00200001 	.word	0x00200001
   2183c:	200046e0 	.word	0x200046e0
   21840:	00200002 	.word	0x00200002

00021844 <GPIO_Direction>:
   21844:	4b10      	ldr	r3, [pc, #64]	; (21888 <GPIO_Direction+0x44>)
   21846:	f000 0c1f 	and.w	ip, r0, #31
   2184a:	e843 f300 	tt	r3, r3
   2184e:	f413 0f80 	tst.w	r3, #4194304	; 0x400000
   21852:	f3c0 1041 	ubfx	r0, r0, #5, #2
   21856:	4b0d      	ldr	r3, [pc, #52]	; (2188c <GPIO_Direction+0x48>)
   21858:	d00a      	beq.n	21870 <GPIO_Direction+0x2c>
   2185a:	f853 2020 	ldr.w	r2, [r3, r0, lsl #2]
   2185e:	2301      	movs	r3, #1
   21860:	fa03 f30c 	lsl.w	r3, r3, ip
   21864:	b961      	cbnz	r1, 21880 <GPIO_Direction+0x3c>
   21866:	6851      	ldr	r1, [r2, #4]
   21868:	ea21 0303 	bic.w	r3, r1, r3
   2186c:	6053      	str	r3, [r2, #4]
   2186e:	4770      	bx	lr
   21870:	eb03 0080 	add.w	r0, r3, r0, lsl #2
   21874:	2301      	movs	r3, #1
   21876:	6882      	ldr	r2, [r0, #8]
   21878:	fa03 f30c 	lsl.w	r3, r3, ip
   2187c:	2900      	cmp	r1, #0
   2187e:	d0f2      	beq.n	21866 <GPIO_Direction+0x22>
   21880:	6851      	ldr	r1, [r2, #4]
   21882:	430b      	orrs	r3, r1
   21884:	6053      	str	r3, [r2, #4]
   21886:	4770      	bx	lr
   21888:	000265e1 	.word	0x000265e1
   2188c:	0004206c 	.word	0x0004206c

00021890 <GPIO_Init>:
   21890:	6803      	ldr	r3, [r0, #0]
   21892:	2b02      	cmp	r3, #2
   21894:	b530      	push	{r4, r5, lr}
   21896:	4604      	mov	r4, r0
   21898:	b083      	sub	sp, #12
   2189a:	d821      	bhi.n	218e0 <GPIO_Init+0x50>
   2189c:	4b1b      	ldr	r3, [pc, #108]	; (2190c <GPIO_Init+0x7c>)
   2189e:	2100      	movs	r1, #0
   218a0:	7d20      	ldrb	r0, [r4, #20]
   218a2:	4798      	blx	r3
   218a4:	6823      	ldr	r3, [r4, #0]
   218a6:	2b02      	cmp	r3, #2
   218a8:	d00c      	beq.n	218c4 <GPIO_Init+0x34>
   218aa:	2300      	movs	r3, #0
   218ac:	4d18      	ldr	r5, [pc, #96]	; (21910 <GPIO_Init+0x80>)
   218ae:	4619      	mov	r1, r3
   218b0:	9300      	str	r3, [sp, #0]
   218b2:	461a      	mov	r2, r3
   218b4:	6960      	ldr	r0, [r4, #20]
   218b6:	47a8      	blx	r5
   218b8:	6821      	ldr	r1, [r4, #0]
   218ba:	2901      	cmp	r1, #1
   218bc:	d020      	beq.n	21900 <GPIO_Init+0x70>
   218be:	b1a9      	cbz	r1, 218ec <GPIO_Init+0x5c>
   218c0:	b003      	add	sp, #12
   218c2:	bd30      	pop	{r4, r5, pc}
   218c4:	6960      	ldr	r0, [r4, #20]
   218c6:	2100      	movs	r1, #0
   218c8:	4b12      	ldr	r3, [pc, #72]	; (21914 <GPIO_Init+0x84>)
   218ca:	4798      	blx	r3
   218cc:	68a2      	ldr	r2, [r4, #8]
   218ce:	6960      	ldr	r0, [r4, #20]
   218d0:	2101      	movs	r1, #1
   218d2:	e9d4 3503 	ldrd	r3, r5, [r4, #12]
   218d6:	4c0e      	ldr	r4, [pc, #56]	; (21910 <GPIO_Init+0x80>)
   218d8:	9500      	str	r5, [sp, #0]
   218da:	47a0      	blx	r4
   218dc:	b003      	add	sp, #12
   218de:	bd30      	pop	{r4, r5, pc}
   218e0:	f240 1103 	movw	r1, #259	; 0x103
   218e4:	480c      	ldr	r0, [pc, #48]	; (21918 <GPIO_Init+0x88>)
   218e6:	f7fd fc67 	bl	1f1b8 <io_assert_failed>
   218ea:	e7d7      	b.n	2189c <GPIO_Init+0xc>
   218ec:	6960      	ldr	r0, [r4, #20]
   218ee:	4b09      	ldr	r3, [pc, #36]	; (21914 <GPIO_Init+0x84>)
   218f0:	4798      	blx	r3
   218f2:	7921      	ldrb	r1, [r4, #4]
   218f4:	7d20      	ldrb	r0, [r4, #20]
   218f6:	4b09      	ldr	r3, [pc, #36]	; (2191c <GPIO_Init+0x8c>)
   218f8:	b003      	add	sp, #12
   218fa:	e8bd 4030 	ldmia.w	sp!, {r4, r5, lr}
   218fe:	4718      	bx	r3
   21900:	6960      	ldr	r0, [r4, #20]
   21902:	4b04      	ldr	r3, [pc, #16]	; (21914 <GPIO_Init+0x84>)
   21904:	4798      	blx	r3
   21906:	b003      	add	sp, #12
   21908:	bd30      	pop	{r4, r5, pc}
   2190a:	bf00      	nop
   2190c:	00023769 	.word	0x00023769
   21910:	000216c5 	.word	0x000216c5
   21914:	00021845 	.word	0x00021845
   21918:	00043634 	.word	0x00043634
   2191c:	00023575 	.word	0x00023575

00021920 <GPIO_DeInit>:
   21920:	b5f8      	push	{r3, r4, r5, r6, r7, lr}
   21922:	4a18      	ldr	r2, [pc, #96]	; (21984 <GPIO_DeInit+0x64>)
   21924:	4603      	mov	r3, r0
   21926:	e842 f200 	tt	r2, r2
   2192a:	0252      	lsls	r2, r2, #9
   2192c:	f3c0 1741 	ubfx	r7, r0, #5, #2
   21930:	f003 061f 	and.w	r6, r3, #31
   21934:	b2c0      	uxtb	r0, r0
   21936:	4b14      	ldr	r3, [pc, #80]	; (21988 <GPIO_DeInit+0x68>)
   21938:	d520      	bpl.n	2197c <GPIO_DeInit+0x5c>
   2193a:	f853 4027 	ldr.w	r4, [r3, r7, lsl #2]
   2193e:	2501      	movs	r5, #1
   21940:	6863      	ldr	r3, [r4, #4]
   21942:	2100      	movs	r1, #0
   21944:	40b5      	lsls	r5, r6
   21946:	ea23 0305 	bic.w	r3, r3, r5
   2194a:	6063      	str	r3, [r4, #4]
   2194c:	4b0f      	ldr	r3, [pc, #60]	; (2198c <GPIO_DeInit+0x6c>)
   2194e:	4798      	blx	r3
   21950:	6b22      	ldr	r2, [r4, #48]	; 0x30
   21952:	43eb      	mvns	r3, r5
   21954:	4013      	ands	r3, r2
   21956:	6323      	str	r3, [r4, #48]	; 0x30
   21958:	4b0d      	ldr	r3, [pc, #52]	; (21990 <GPIO_DeInit+0x70>)
   2195a:	64e5      	str	r5, [r4, #76]	; 0x4c
   2195c:	b937      	cbnz	r7, 2196c <GPIO_DeInit+0x4c>
   2195e:	eb03 0286 	add.w	r2, r3, r6, lsl #2
   21962:	f843 7026 	str.w	r7, [r3, r6, lsl #2]
   21966:	f8c2 7080 	str.w	r7, [r2, #128]	; 0x80
   2196a:	bdf8      	pop	{r3, r4, r5, r6, r7, pc}
   2196c:	2200      	movs	r2, #0
   2196e:	eb03 0386 	add.w	r3, r3, r6, lsl #2
   21972:	f8c3 2100 	str.w	r2, [r3, #256]	; 0x100
   21976:	f8c3 2180 	str.w	r2, [r3, #384]	; 0x180
   2197a:	bdf8      	pop	{r3, r4, r5, r6, r7, pc}
   2197c:	eb03 0387 	add.w	r3, r3, r7, lsl #2
   21980:	689c      	ldr	r4, [r3, #8]
   21982:	e7dc      	b.n	2193e <GPIO_DeInit+0x1e>
   21984:	000265e1 	.word	0x000265e1
   21988:	0004206c 	.word	0x0004206c
   2198c:	00023575 	.word	0x00023575
   21990:	200046e0 	.word	0x200046e0

00021994 <GPIO_ReadDataBit>:
   21994:	4a0b      	ldr	r2, [pc, #44]	; (219c4 <GPIO_ReadDataBit+0x30>)
   21996:	f000 011f 	and.w	r1, r0, #31
   2199a:	e842 f200 	tt	r2, r2
   2199e:	0252      	lsls	r2, r2, #9
   219a0:	f3c0 1041 	ubfx	r0, r0, #5, #2
   219a4:	4b08      	ldr	r3, [pc, #32]	; (219c8 <GPIO_ReadDataBit+0x34>)
   219a6:	d509      	bpl.n	219bc <GPIO_ReadDataBit+0x28>
   219a8:	f853 2020 	ldr.w	r2, [r3, r0, lsl #2]
   219ac:	2301      	movs	r3, #1
   219ae:	6d12      	ldr	r2, [r2, #80]	; 0x50
   219b0:	408b      	lsls	r3, r1
   219b2:	4213      	tst	r3, r2
   219b4:	bf14      	ite	ne
   219b6:	2001      	movne	r0, #1
   219b8:	2000      	moveq	r0, #0
   219ba:	4770      	bx	lr
   219bc:	eb03 0080 	add.w	r0, r3, r0, lsl #2
   219c0:	6882      	ldr	r2, [r0, #8]
   219c2:	e7f3      	b.n	219ac <GPIO_ReadDataBit+0x18>
   219c4:	000265e1 	.word	0x000265e1
   219c8:	0004206c 	.word	0x0004206c

000219cc <GPIO_WriteBit>:
   219cc:	4b10      	ldr	r3, [pc, #64]	; (21a10 <GPIO_WriteBit+0x44>)
   219ce:	f000 0c1f 	and.w	ip, r0, #31
   219d2:	e843 f300 	tt	r3, r3
   219d6:	f413 0f80 	tst.w	r3, #4194304	; 0x400000
   219da:	f3c0 1041 	ubfx	r0, r0, #5, #2
   219de:	4b0d      	ldr	r3, [pc, #52]	; (21a14 <GPIO_WriteBit+0x48>)
   219e0:	d00a      	beq.n	219f8 <GPIO_WriteBit+0x2c>
   219e2:	f853 0020 	ldr.w	r0, [r3, r0, lsl #2]
   219e6:	2201      	movs	r2, #1
   219e8:	6803      	ldr	r3, [r0, #0]
   219ea:	fa02 f20c 	lsl.w	r2, r2, ip
   219ee:	b961      	cbnz	r1, 21a0a <GPIO_WriteBit+0x3e>
   219f0:	ea23 0302 	bic.w	r3, r3, r2
   219f4:	6003      	str	r3, [r0, #0]
   219f6:	4770      	bx	lr
   219f8:	eb03 0080 	add.w	r0, r3, r0, lsl #2
   219fc:	2201      	movs	r2, #1
   219fe:	6880      	ldr	r0, [r0, #8]
   21a00:	fa02 f20c 	lsl.w	r2, r2, ip
   21a04:	6803      	ldr	r3, [r0, #0]
   21a06:	2900      	cmp	r1, #0
   21a08:	d0f2      	beq.n	219f0 <GPIO_WriteBit+0x24>
   21a0a:	4313      	orrs	r3, r2
   21a0c:	6003      	str	r3, [r0, #0]
   21a0e:	4770      	bx	lr
   21a10:	000265e1 	.word	0x000265e1
   21a14:	0004206c 	.word	0x0004206c

00021a18 <GPIO_PortDirection>:
   21a18:	2801      	cmp	r0, #1
   21a1a:	b570      	push	{r4, r5, r6, lr}
   21a1c:	4604      	mov	r4, r0
   21a1e:	460d      	mov	r5, r1
   21a20:	4616      	mov	r6, r2
   21a22:	d904      	bls.n	21a2e <GPIO_PortDirection+0x16>
   21a24:	f44f 71d1 	mov.w	r1, #418	; 0x1a2
   21a28:	480d      	ldr	r0, [pc, #52]	; (21a60 <GPIO_PortDirection+0x48>)
   21a2a:	f7fd fbc5 	bl	1f1b8 <io_assert_failed>
   21a2e:	4b0d      	ldr	r3, [pc, #52]	; (21a64 <GPIO_PortDirection+0x4c>)
   21a30:	e843 f300 	tt	r3, r3
   21a34:	025b      	lsls	r3, r3, #9
   21a36:	d508      	bpl.n	21a4a <GPIO_PortDirection+0x32>
   21a38:	4b0b      	ldr	r3, [pc, #44]	; (21a68 <GPIO_PortDirection+0x50>)
   21a3a:	f853 2024 	ldr.w	r2, [r3, r4, lsl #2]
   21a3e:	6853      	ldr	r3, [r2, #4]
   21a40:	b956      	cbnz	r6, 21a58 <GPIO_PortDirection+0x40>
   21a42:	ea23 0305 	bic.w	r3, r3, r5
   21a46:	6053      	str	r3, [r2, #4]
   21a48:	bd70      	pop	{r4, r5, r6, pc}
   21a4a:	4807      	ldr	r0, [pc, #28]	; (21a68 <GPIO_PortDirection+0x50>)
   21a4c:	eb00 0484 	add.w	r4, r0, r4, lsl #2
   21a50:	68a2      	ldr	r2, [r4, #8]
   21a52:	6853      	ldr	r3, [r2, #4]
   21a54:	2e00      	cmp	r6, #0
   21a56:	d0f4      	beq.n	21a42 <GPIO_PortDirection+0x2a>
   21a58:	432b      	orrs	r3, r5
   21a5a:	6053      	str	r3, [r2, #4]
   21a5c:	bd70      	pop	{r4, r5, r6, pc}
   21a5e:	bf00      	nop
   21a60:	00043640 	.word	0x00043640
   21a64:	000265e1 	.word	0x000265e1
   21a68:	0004206c 	.word	0x0004206c

00021a6c <GPIO_PortRead>:
   21a6c:	2801      	cmp	r0, #1
   21a6e:	b538      	push	{r3, r4, r5, lr}
   21a70:	4604      	mov	r4, r0
   21a72:	460d      	mov	r5, r1
   21a74:	d904      	bls.n	21a80 <GPIO_PortRead+0x14>
   21a76:	f44f 71e3 	mov.w	r1, #454	; 0x1c6
   21a7a:	480a      	ldr	r0, [pc, #40]	; (21aa4 <GPIO_PortRead+0x38>)
   21a7c:	f7fd fb9c 	bl	1f1b8 <io_assert_failed>
   21a80:	4b09      	ldr	r3, [pc, #36]	; (21aa8 <GPIO_PortRead+0x3c>)
   21a82:	e843 f300 	tt	r3, r3
   21a86:	025b      	lsls	r3, r3, #9
   21a88:	d505      	bpl.n	21a96 <GPIO_PortRead+0x2a>
   21a8a:	4b08      	ldr	r3, [pc, #32]	; (21aac <GPIO_PortRead+0x40>)
   21a8c:	f853 3024 	ldr.w	r3, [r3, r4, lsl #2]
   21a90:	6d18      	ldr	r0, [r3, #80]	; 0x50
   21a92:	4028      	ands	r0, r5
   21a94:	bd38      	pop	{r3, r4, r5, pc}
   21a96:	4805      	ldr	r0, [pc, #20]	; (21aac <GPIO_PortRead+0x40>)
   21a98:	eb00 0484 	add.w	r4, r0, r4, lsl #2
   21a9c:	68a3      	ldr	r3, [r4, #8]
   21a9e:	6d18      	ldr	r0, [r3, #80]	; 0x50
   21aa0:	4028      	ands	r0, r5
   21aa2:	bd38      	pop	{r3, r4, r5, pc}
   21aa4:	00043654 	.word	0x00043654
   21aa8:	000265e1 	.word	0x000265e1
   21aac:	0004206c 	.word	0x0004206c

00021ab0 <GPIO_PortWrite>:
   21ab0:	2801      	cmp	r0, #1
   21ab2:	b570      	push	{r4, r5, r6, lr}
   21ab4:	4605      	mov	r5, r0
   21ab6:	460e      	mov	r6, r1
   21ab8:	4614      	mov	r4, r2
   21aba:	d904      	bls.n	21ac6 <GPIO_PortWrite+0x16>
   21abc:	f240 11e5 	movw	r1, #485	; 0x1e5
   21ac0:	480b      	ldr	r0, [pc, #44]	; (21af0 <GPIO_PortWrite+0x40>)
   21ac2:	f7fd fb79 	bl	1f1b8 <io_assert_failed>
   21ac6:	4b0b      	ldr	r3, [pc, #44]	; (21af4 <GPIO_PortWrite+0x44>)
   21ac8:	e843 f300 	tt	r3, r3
   21acc:	025b      	lsls	r3, r3, #9
   21ace:	d50a      	bpl.n	21ae6 <GPIO_PortWrite+0x36>
   21ad0:	4b09      	ldr	r3, [pc, #36]	; (21af8 <GPIO_PortWrite+0x48>)
   21ad2:	f853 3025 	ldr.w	r3, [r3, r5, lsl #2]
   21ad6:	6819      	ldr	r1, [r3, #0]
   21ad8:	ea81 0204 	eor.w	r2, r1, r4
   21adc:	ea02 0406 	and.w	r4, r2, r6
   21ae0:	404c      	eors	r4, r1
   21ae2:	601c      	str	r4, [r3, #0]
   21ae4:	bd70      	pop	{r4, r5, r6, pc}
   21ae6:	4804      	ldr	r0, [pc, #16]	; (21af8 <GPIO_PortWrite+0x48>)
   21ae8:	eb00 0585 	add.w	r5, r0, r5, lsl #2
   21aec:	68ab      	ldr	r3, [r5, #8]
   21aee:	e7f2      	b.n	21ad6 <GPIO_PortWrite+0x26>
   21af0:	00043664 	.word	0x00043664
   21af4:	000265e1 	.word	0x000265e1
   21af8:	0004206c 	.word	0x0004206c

00021afc <GPIO_DebounceClock>:
   21afc:	2801      	cmp	r0, #1
   21afe:	b510      	push	{r4, lr}
   21b00:	460c      	mov	r4, r1
   21b02:	d80c      	bhi.n	21b1e <GPIO_DebounceClock+0x22>
   21b04:	4b0f      	ldr	r3, [pc, #60]	; (21b44 <GPIO_DebounceClock+0x48>)
   21b06:	f8d3 32a4 	ldr.w	r3, [r3, #676]	; 0x2a4
   21b0a:	b980      	cbnz	r0, 21b2e <GPIO_DebounceClock+0x32>
   21b0c:	f023 037f 	bic.w	r3, r3, #127	; 0x7f
   21b10:	f001 047f 	and.w	r4, r1, #127	; 0x7f
   21b14:	431c      	orrs	r4, r3
   21b16:	4b0b      	ldr	r3, [pc, #44]	; (21b44 <GPIO_DebounceClock+0x48>)
   21b18:	f8c3 42a4 	str.w	r4, [r3, #676]	; 0x2a4
   21b1c:	bd10      	pop	{r4, pc}
   21b1e:	f240 2105 	movw	r1, #517	; 0x205
   21b22:	4809      	ldr	r0, [pc, #36]	; (21b48 <GPIO_DebounceClock+0x4c>)
   21b24:	f7fd fb48 	bl	1f1b8 <io_assert_failed>
   21b28:	4b06      	ldr	r3, [pc, #24]	; (21b44 <GPIO_DebounceClock+0x48>)
   21b2a:	f8d3 32a4 	ldr.w	r3, [r3, #676]	; 0x2a4
   21b2e:	0224      	lsls	r4, r4, #8
   21b30:	f423 43fe 	bic.w	r3, r3, #32512	; 0x7f00
   21b34:	f404 44fe 	and.w	r4, r4, #32512	; 0x7f00
   21b38:	431c      	orrs	r4, r3
   21b3a:	4b02      	ldr	r3, [pc, #8]	; (21b44 <GPIO_DebounceClock+0x48>)
   21b3c:	f8c3 42a4 	str.w	r4, [r3, #676]	; 0x2a4
   21b40:	bd10      	pop	{r4, pc}
   21b42:	bf00      	nop
   21b44:	41008000 	.word	0x41008000
   21b48:	00043674 	.word	0x00043674

00021b4c <GPIO_LevelSync>:
   21b4c:	2801      	cmp	r0, #1
   21b4e:	b538      	push	{r3, r4, r5, lr}
   21b50:	4604      	mov	r4, r0
   21b52:	460d      	mov	r5, r1
   21b54:	d904      	bls.n	21b60 <GPIO_LevelSync+0x14>
   21b56:	f240 2125 	movw	r1, #549	; 0x225
   21b5a:	480c      	ldr	r0, [pc, #48]	; (21b8c <GPIO_LevelSync+0x40>)
   21b5c:	f7fd fb2c 	bl	1f1b8 <io_assert_failed>
   21b60:	4b0b      	ldr	r3, [pc, #44]	; (21b90 <GPIO_LevelSync+0x44>)
   21b62:	e843 f300 	tt	r3, r3
   21b66:	025b      	lsls	r3, r3, #9
   21b68:	d507      	bpl.n	21b7a <GPIO_LevelSync+0x2e>
   21b6a:	4b0a      	ldr	r3, [pc, #40]	; (21b94 <GPIO_LevelSync+0x48>)
   21b6c:	2d01      	cmp	r5, #1
   21b6e:	f853 3024 	ldr.w	r3, [r3, r4, lsl #2]
   21b72:	d008      	beq.n	21b86 <GPIO_LevelSync+0x3a>
   21b74:	2200      	movs	r2, #0
   21b76:	661a      	str	r2, [r3, #96]	; 0x60
   21b78:	bd38      	pop	{r3, r4, r5, pc}
   21b7a:	4806      	ldr	r0, [pc, #24]	; (21b94 <GPIO_LevelSync+0x48>)
   21b7c:	2d01      	cmp	r5, #1
   21b7e:	eb00 0484 	add.w	r4, r0, r4, lsl #2
   21b82:	68a3      	ldr	r3, [r4, #8]
   21b84:	d1f6      	bne.n	21b74 <GPIO_LevelSync+0x28>
   21b86:	661d      	str	r5, [r3, #96]	; 0x60
   21b88:	bd38      	pop	{r3, r4, r5, pc}
   21b8a:	bf00      	nop
   21b8c:	00043688 	.word	0x00043688
   21b90:	000265e1 	.word	0x000265e1
   21b94:	0004206c 	.word	0x0004206c

00021b98 <GPIO_UserRegIrq>:
   21b98:	f010 0f60 	tst.w	r0, #96	; 0x60
   21b9c:	f000 0c1f 	and.w	ip, r0, #31
   21ba0:	4b07      	ldr	r3, [pc, #28]	; (21bc0 <GPIO_UserRegIrq+0x28>)
   21ba2:	d106      	bne.n	21bb2 <GPIO_UserRegIrq+0x1a>
   21ba4:	eb03 008c 	add.w	r0, r3, ip, lsl #2
   21ba8:	f843 102c 	str.w	r1, [r3, ip, lsl #2]
   21bac:	f8c0 2080 	str.w	r2, [r0, #128]	; 0x80
   21bb0:	4770      	bx	lr
   21bb2:	eb03 038c 	add.w	r3, r3, ip, lsl #2
   21bb6:	f8c3 1100 	str.w	r1, [r3, #256]	; 0x100
   21bba:	f8c3 2180 	str.w	r2, [r3, #384]	; 0x180
   21bbe:	4770      	bx	lr
   21bc0:	200046e0 	.word	0x200046e0

00021bc4 <GPIO_ODInit>:
   21bc4:	b538      	push	{r3, r4, r5, lr}
   21bc6:	460d      	mov	r5, r1
   21bc8:	4b07      	ldr	r3, [pc, #28]	; (21be8 <GPIO_ODInit+0x24>)
   21bca:	2100      	movs	r1, #0
   21bcc:	4604      	mov	r4, r0
   21bce:	4798      	blx	r3
   21bd0:	2d01      	cmp	r5, #1
   21bd2:	4620      	mov	r0, r4
   21bd4:	4b05      	ldr	r3, [pc, #20]	; (21bec <GPIO_ODInit+0x28>)
   21bd6:	bf0c      	ite	eq
   21bd8:	2102      	moveq	r1, #2
   21bda:	2100      	movne	r1, #0
   21bdc:	4798      	blx	r3
   21bde:	2100      	movs	r1, #0
   21be0:	4620      	mov	r0, r4
   21be2:	4b03      	ldr	r3, [pc, #12]	; (21bf0 <GPIO_ODInit+0x2c>)
   21be4:	4798      	blx	r3
   21be6:	bd38      	pop	{r3, r4, r5, pc}
   21be8:	00021845 	.word	0x00021845
   21bec:	00023575 	.word	0x00023575
   21bf0:	000219cd 	.word	0x000219cd

00021bf4 <GPIO_ODWriteBit>:
   21bf4:	b508      	push	{r3, lr}
   21bf6:	b919      	cbnz	r1, 21c00 <GPIO_ODWriteBit+0xc>
   21bf8:	2101      	movs	r1, #1
   21bfa:	4b03      	ldr	r3, [pc, #12]	; (21c08 <GPIO_ODWriteBit+0x14>)
   21bfc:	4798      	blx	r3
   21bfe:	bd08      	pop	{r3, pc}
   21c00:	2100      	movs	r1, #0
   21c02:	4b01      	ldr	r3, [pc, #4]	; (21c08 <GPIO_ODWriteBit+0x14>)
   21c04:	4798      	blx	r3
   21c06:	bd08      	pop	{r3, pc}
   21c08:	00021845 	.word	0x00021845

00021c0c <LOGUART_StructInit>:
   21c0c:	2300      	movs	r3, #0
   21c0e:	2201      	movs	r2, #1
   21c10:	2107      	movs	r1, #7
   21c12:	6183      	str	r3, [r0, #24]
   21c14:	b410      	push	{r4}
   21c16:	e9c0 3200 	strd	r3, r2, [r0]
   21c1a:	2440      	movs	r4, #64	; 0x40
   21c1c:	e9c0 3302 	strd	r3, r3, [r0, #8]
   21c20:	e9c0 3304 	strd	r3, r3, [r0, #16]
   21c24:	e9c0 3207 	strd	r3, r2, [r0, #28]
   21c28:	e9c0 320a 	strd	r3, r2, [r0, #40]	; 0x28
   21c2c:	e9c0 330c 	strd	r3, r3, [r0, #48]	; 0x30
   21c30:	e9c0 330e 	strd	r3, r3, [r0, #56]	; 0x38
   21c34:	23ff      	movs	r3, #255	; 0xff
   21c36:	6244      	str	r4, [r0, #36]	; 0x24
   21c38:	f85d 4b04 	ldr.w	r4, [sp], #4
   21c3c:	6483      	str	r3, [r0, #72]	; 0x48
   21c3e:	e9c0 1210 	strd	r1, r2, [r0, #64]	; 0x40
   21c42:	4770      	bx	lr

00021c44 <LOGUART_SetBaud>:
   21c44:	b530      	push	{r4, r5, lr}
   21c46:	b085      	sub	sp, #20
   21c48:	4604      	mov	r4, r0
   21c4a:	4b1f      	ldr	r3, [pc, #124]	; (21cc8 <LOGUART_SetBaud+0x84>)
   21c4c:	9101      	str	r1, [sp, #4]
   21c4e:	4798      	blx	r3
   21c50:	4d1e      	ldr	r5, [pc, #120]	; (21ccc <LOGUART_SetBaud+0x88>)
   21c52:	ab03      	add	r3, sp, #12
   21c54:	aa02      	add	r2, sp, #8
   21c56:	9901      	ldr	r1, [sp, #4]
   21c58:	47a8      	blx	r5
   21c5a:	68e0      	ldr	r0, [r4, #12]
   21c5c:	9b02      	ldr	r3, [sp, #8]
   21c5e:	f040 0080 	orr.w	r0, r0, #128	; 0x80
   21c62:	4a1b      	ldr	r2, [pc, #108]	; (21cd0 <LOGUART_SetBaud+0x8c>)
   21c64:	491b      	ldr	r1, [pc, #108]	; (21cd4 <LOGUART_SetBaud+0x90>)
   21c66:	60e0      	str	r0, [r4, #12]
   21c68:	69e0      	ldr	r0, [r4, #28]
   21c6a:	ea01 1103 	and.w	r1, r1, r3, lsl #4
   21c6e:	9d03      	ldr	r5, [sp, #12]
   21c70:	f040 0080 	orr.w	r0, r0, #128	; 0x80
   21c74:	61e0      	str	r0, [r4, #28]
   21c76:	6a20      	ldr	r0, [r4, #32]
   21c78:	4002      	ands	r2, r0
   21c7a:	4817      	ldr	r0, [pc, #92]	; (21cd8 <LOGUART_SetBaud+0x94>)
   21c7c:	4311      	orrs	r1, r2
   21c7e:	4a17      	ldr	r2, [pc, #92]	; (21cdc <LOGUART_SetBaud+0x98>)
   21c80:	ea00 4005 	and.w	r0, r0, r5, lsl #16
   21c84:	6221      	str	r1, [r4, #32]
   21c86:	69e1      	ldr	r1, [r4, #28]
   21c88:	400a      	ands	r2, r1
   21c8a:	4915      	ldr	r1, [pc, #84]	; (21ce0 <LOGUART_SetBaud+0x9c>)
   21c8c:	4310      	orrs	r0, r2
   21c8e:	61e0      	str	r0, [r4, #28]
   21c90:	68e2      	ldr	r2, [r4, #12]
   21c92:	4814      	ldr	r0, [pc, #80]	; (21ce4 <LOGUART_SetBaud+0xa0>)
   21c94:	f022 0280 	bic.w	r2, r2, #128	; 0x80
   21c98:	60e2      	str	r2, [r4, #12]
   21c9a:	6ca2      	ldr	r2, [r4, #72]	; 0x48
   21c9c:	4011      	ands	r1, r2
   21c9e:	4319      	orrs	r1, r3
   21ca0:	64a1      	str	r1, [r4, #72]	; 0x48
   21ca2:	6c62      	ldr	r2, [r4, #68]	; 0x44
   21ca4:	4910      	ldr	r1, [pc, #64]	; (21ce8 <LOGUART_SetBaud+0xa4>)
   21ca6:	4010      	ands	r0, r2
   21ca8:	4a10      	ldr	r2, [pc, #64]	; (21cec <LOGUART_SetBaud+0xa8>)
   21caa:	ea02 2243 	and.w	r2, r2, r3, lsl #9
   21cae:	4302      	orrs	r2, r0
   21cb0:	6462      	str	r2, [r4, #68]	; 0x44
   21cb2:	6c23      	ldr	r3, [r4, #64]	; 0x40
   21cb4:	4019      	ands	r1, r3
   21cb6:	f643 73f8 	movw	r3, #16376	; 0x3ff8
   21cba:	ea03 03c5 	and.w	r3, r3, r5, lsl #3
   21cbe:	430b      	orrs	r3, r1
   21cc0:	6423      	str	r3, [r4, #64]	; 0x40
   21cc2:	b005      	add	sp, #20
   21cc4:	bd30      	pop	{r4, r5, pc}
   21cc6:	bf00      	nop
   21cc8:	0001f3e1 	.word	0x0001f3e1
   21ccc:	000251dd 	.word	0x000251dd
   21cd0:	ff00000f 	.word	0xff00000f
   21cd4:	00fffff0 	.word	0x00fffff0
   21cd8:	07ff0000 	.word	0x07ff0000
   21cdc:	f800ffff 	.word	0xf800ffff
   21ce0:	fff00000 	.word	0xfff00000
   21ce4:	e00001ff 	.word	0xe00001ff
   21ce8:	ffffc007 	.word	0xffffc007
   21cec:	1ffffe00 	.word	0x1ffffe00

00021cf0 <LOGUART_RxCmd>:
   21cf0:	6c03      	ldr	r3, [r0, #64]	; 0x40
   21cf2:	b119      	cbz	r1, 21cfc <LOGUART_RxCmd+0xc>
   21cf4:	f043 0304 	orr.w	r3, r3, #4
   21cf8:	6403      	str	r3, [r0, #64]	; 0x40
   21cfa:	4770      	bx	lr
   21cfc:	f023 0304 	bic.w	r3, r3, #4
   21d00:	6403      	str	r3, [r0, #64]	; 0x40
   21d02:	4770      	bx	lr

00021d04 <LOGUART_INTCoreConfig>:
   21d04:	6f83      	ldr	r3, [r0, #120]	; 0x78
   21d06:	b112      	cbz	r2, 21d0e <LOGUART_INTCoreConfig+0xa>
   21d08:	4319      	orrs	r1, r3
   21d0a:	6781      	str	r1, [r0, #120]	; 0x78
   21d0c:	4770      	bx	lr
   21d0e:	ea23 0101 	bic.w	r1, r3, r1
   21d12:	6781      	str	r1, [r0, #120]	; 0x78
   21d14:	4770      	bx	lr
   21d16:	bf00      	nop

00021d18 <LOGUART_AGGCmd>:
   21d18:	6d83      	ldr	r3, [r0, #88]	; 0x58
   21d1a:	b119      	cbz	r1, 21d24 <LOGUART_AGGCmd+0xc>
   21d1c:	f043 6380 	orr.w	r3, r3, #67108864	; 0x4000000
   21d20:	6583      	str	r3, [r0, #88]	; 0x58
   21d22:	4770      	bx	lr
   21d24:	f023 6380 	bic.w	r3, r3, #67108864	; 0x4000000
   21d28:	6583      	str	r3, [r0, #88]	; 0x58
   21d2a:	4770      	bx	lr

00021d2c <LOGUART_AGGPathCmd>:
   21d2c:	1e4b      	subs	r3, r1, #1
   21d2e:	2b04      	cmp	r3, #4
   21d30:	b510      	push	{r4, lr}
   21d32:	4604      	mov	r4, r0
   21d34:	d807      	bhi.n	21d46 <LOGUART_AGGPathCmd+0x1a>
   21d36:	3902      	subs	r1, #2
   21d38:	6d83      	ldr	r3, [r0, #88]	; 0x58
   21d3a:	2903      	cmp	r1, #3
   21d3c:	d82b      	bhi.n	21d96 <LOGUART_AGGPathCmd+0x6a>
   21d3e:	e8df f001 	tbb	[pc, r1]
   21d42:	1a16      	.short	0x1a16
   21d44:	120e      	.short	0x120e
   21d46:	f44f 71ad 	mov.w	r1, #346	; 0x15a
   21d4a:	4816      	ldr	r0, [pc, #88]	; (21da4 <LOGUART_AGGPathCmd+0x78>)
   21d4c:	f7fd fa34 	bl	1f1b8 <io_assert_failed>
   21d50:	6da3      	ldr	r3, [r4, #88]	; 0x58
   21d52:	65a3      	str	r3, [r4, #88]	; 0x58
   21d54:	2001      	movs	r0, #1
   21d56:	4a14      	ldr	r2, [pc, #80]	; (21da8 <LOGUART_AGGPathCmd+0x7c>)
   21d58:	e8bd 4010 	ldmia.w	sp!, {r4, lr}
   21d5c:	4710      	bx	r2
   21d5e:	b172      	cbz	r2, 21d7e <LOGUART_AGGPathCmd+0x52>
   21d60:	f043 4380 	orr.w	r3, r3, #1073741824	; 0x40000000
   21d64:	e7f5      	b.n	21d52 <LOGUART_AGGPathCmd+0x26>
   21d66:	b16a      	cbz	r2, 21d84 <LOGUART_AGGPathCmd+0x58>
   21d68:	f043 4300 	orr.w	r3, r3, #2147483648	; 0x80000000
   21d6c:	e7f1      	b.n	21d52 <LOGUART_AGGPathCmd+0x26>
   21d6e:	b162      	cbz	r2, 21d8a <LOGUART_AGGPathCmd+0x5e>
   21d70:	f043 5380 	orr.w	r3, r3, #268435456	; 0x10000000
   21d74:	e7ed      	b.n	21d52 <LOGUART_AGGPathCmd+0x26>
   21d76:	b15a      	cbz	r2, 21d90 <LOGUART_AGGPathCmd+0x64>
   21d78:	f043 5300 	orr.w	r3, r3, #536870912	; 0x20000000
   21d7c:	e7e9      	b.n	21d52 <LOGUART_AGGPathCmd+0x26>
   21d7e:	f023 4380 	bic.w	r3, r3, #1073741824	; 0x40000000
   21d82:	e7e6      	b.n	21d52 <LOGUART_AGGPathCmd+0x26>
   21d84:	f023 4300 	bic.w	r3, r3, #2147483648	; 0x80000000
   21d88:	e7e3      	b.n	21d52 <LOGUART_AGGPathCmd+0x26>
   21d8a:	f023 5380 	bic.w	r3, r3, #268435456	; 0x10000000
   21d8e:	e7e0      	b.n	21d52 <LOGUART_AGGPathCmd+0x26>
   21d90:	f023 5300 	bic.w	r3, r3, #536870912	; 0x20000000
   21d94:	e7dd      	b.n	21d52 <LOGUART_AGGPathCmd+0x26>
   21d96:	b112      	cbz	r2, 21d9e <LOGUART_AGGPathCmd+0x72>
   21d98:	f043 6300 	orr.w	r3, r3, #134217728	; 0x8000000
   21d9c:	e7d9      	b.n	21d52 <LOGUART_AGGPathCmd+0x26>
   21d9e:	f023 6300 	bic.w	r3, r3, #134217728	; 0x8000000
   21da2:	e7d6      	b.n	21d52 <LOGUART_AGGPathCmd+0x26>
   21da4:	00043698 	.word	0x00043698
   21da8:	00020c05 	.word	0x00020c05

00021dac <LOGUART_AGGSetTimeOut>:
   21dac:	4b04      	ldr	r3, [pc, #16]	; (21dc0 <LOGUART_AGGSetTimeOut+0x14>)
   21dae:	4a05      	ldr	r2, [pc, #20]	; (21dc4 <LOGUART_AGGSetTimeOut+0x18>)
   21db0:	ea03 3101 	and.w	r1, r3, r1, lsl #12
   21db4:	6d83      	ldr	r3, [r0, #88]	; 0x58
   21db6:	401a      	ands	r2, r3
   21db8:	4311      	orrs	r1, r2
   21dba:	6581      	str	r1, [r0, #88]	; 0x58
   21dbc:	4770      	bx	lr
   21dbe:	bf00      	nop
   21dc0:	03fff000 	.word	0x03fff000
   21dc4:	fc000fff 	.word	0xfc000fff

00021dc8 <LOGUART_AGGSetThreshold>:
   21dc8:	2907      	cmp	r1, #7
   21dca:	b538      	push	{r3, r4, r5, lr}
   21dcc:	460c      	mov	r4, r1
   21dce:	4605      	mov	r5, r0
   21dd0:	d808      	bhi.n	21de4 <LOGUART_AGGSetThreshold+0x1c>
   21dd2:	6dab      	ldr	r3, [r5, #88]	; 0x58
   21dd4:	0224      	lsls	r4, r4, #8
   21dd6:	f423 6370 	bic.w	r3, r3, #3840	; 0xf00
   21dda:	f404 6470 	and.w	r4, r4, #3840	; 0xf00
   21dde:	431c      	orrs	r4, r3
   21de0:	65ac      	str	r4, [r5, #88]	; 0x58
   21de2:	bd38      	pop	{r3, r4, r5, pc}
   21de4:	f44f 71d8 	mov.w	r1, #432	; 0x1b0
   21de8:	4801      	ldr	r0, [pc, #4]	; (21df0 <LOGUART_AGGSetThreshold+0x28>)
   21dea:	f7fd f9e5 	bl	1f1b8 <io_assert_failed>
   21dee:	e7f0      	b.n	21dd2 <LOGUART_AGGSetThreshold+0xa>
   21df0:	000436ac 	.word	0x000436ac

00021df4 <LOGUART_AGGSetSyncPattern>:
   21df4:	6d83      	ldr	r3, [r0, #88]	; 0x58
   21df6:	b2c9      	uxtb	r1, r1
   21df8:	f023 03ff 	bic.w	r3, r3, #255	; 0xff
   21dfc:	4319      	orrs	r1, r3
   21dfe:	6581      	str	r1, [r0, #88]	; 0x58
   21e00:	4770      	bx	lr
   21e02:	bf00      	nop

00021e04 <LOGUART_AGGPathAllCmd>:
   21e04:	4603      	mov	r3, r0
   21e06:	6d82      	ldr	r2, [r0, #88]	; 0x58
   21e08:	b129      	cbz	r1, 21e16 <LOGUART_AGGPathAllCmd+0x12>
   21e0a:	f042 4278 	orr.w	r2, r2, #4160749568	; 0xf8000000
   21e0e:	2001      	movs	r0, #1
   21e10:	4904      	ldr	r1, [pc, #16]	; (21e24 <LOGUART_AGGPathAllCmd+0x20>)
   21e12:	659a      	str	r2, [r3, #88]	; 0x58
   21e14:	4708      	bx	r1
   21e16:	f022 4278 	bic.w	r2, r2, #4160749568	; 0xf8000000
   21e1a:	2001      	movs	r0, #1
   21e1c:	4901      	ldr	r1, [pc, #4]	; (21e24 <LOGUART_AGGPathAllCmd+0x20>)
   21e1e:	659a      	str	r2, [r3, #88]	; 0x58
   21e20:	4708      	bx	r1
   21e22:	bf00      	nop
   21e24:	00020c05 	.word	0x00020c05

00021e28 <LOGUART_WaitTx>:
   21e28:	4a0b      	ldr	r2, [pc, #44]	; (21e58 <LOGUART_WaitTx+0x30>)
   21e2a:	2300      	movs	r3, #0
   21e2c:	480b      	ldr	r0, [pc, #44]	; (21e5c <LOGUART_WaitTx+0x34>)
   21e2e:	f8d2 2228 	ldr.w	r2, [r2, #552]	; 0x228
   21e32:	f3c2 1281 	ubfx	r2, r2, #6, #2
   21e36:	eb02 0282 	add.w	r2, r2, r2, lsl #2
   21e3a:	eb00 0082 	add.w	r0, r0, r2, lsl #2
   21e3e:	b430      	push	{r4, r5}
   21e40:	4d07      	ldr	r5, [pc, #28]	; (21e60 <LOGUART_WaitTx+0x38>)
   21e42:	68c4      	ldr	r4, [r0, #12]
   21e44:	e003      	b.n	21e4e <LOGUART_WaitTx+0x26>
   21e46:	6969      	ldr	r1, [r5, #20]
   21e48:	6842      	ldr	r2, [r0, #4]
   21e4a:	4211      	tst	r1, r2
   21e4c:	d102      	bne.n	21e54 <LOGUART_WaitTx+0x2c>
   21e4e:	3301      	adds	r3, #1
   21e50:	429c      	cmp	r4, r3
   21e52:	d8f8      	bhi.n	21e46 <LOGUART_WaitTx+0x1e>
   21e54:	bc30      	pop	{r4, r5}
   21e56:	4770      	bx	lr
   21e58:	41008000 	.word	0x41008000
   21e5c:	0004207c 	.word	0x0004207c
   21e60:	4100f000 	.word	0x4100f000

00021e64 <LOGUART_PutChar>:
   21e64:	b538      	push	{r3, r4, r5, lr}
   21e66:	4b0e      	ldr	r3, [pc, #56]	; (21ea0 <LOGUART_PutChar+0x3c>)
   21e68:	4a0e      	ldr	r2, [pc, #56]	; (21ea4 <LOGUART_PutChar+0x40>)
   21e6a:	681b      	ldr	r3, [r3, #0]
   21e6c:	f8d2 4228 	ldr.w	r4, [r2, #552]	; 0x228
   21e70:	2b01      	cmp	r3, #1
   21e72:	d00f      	beq.n	21e94 <LOGUART_PutChar+0x30>
   21e74:	4605      	mov	r5, r0
   21e76:	f7ff ffd7 	bl	21e28 <LOGUART_WaitTx>
   21e7a:	f3c4 1381 	ubfx	r3, r4, #6, #2
   21e7e:	4a0a      	ldr	r2, [pc, #40]	; (21ea8 <LOGUART_PutChar+0x44>)
   21e80:	4c0a      	ldr	r4, [pc, #40]	; (21eac <LOGUART_PutChar+0x48>)
   21e82:	2d0a      	cmp	r5, #10
   21e84:	eb03 0383 	add.w	r3, r3, r3, lsl #2
   21e88:	f852 3023 	ldr.w	r3, [r2, r3, lsl #2]
   21e8c:	eb04 0483 	add.w	r4, r4, r3, lsl #2
   21e90:	65e5      	str	r5, [r4, #92]	; 0x5c
   21e92:	d000      	beq.n	21e96 <LOGUART_PutChar+0x32>
   21e94:	bd38      	pop	{r3, r4, r5, pc}
   21e96:	f7ff ffc7 	bl	21e28 <LOGUART_WaitTx>
   21e9a:	230d      	movs	r3, #13
   21e9c:	65e3      	str	r3, [r4, #92]	; 0x5c
   21e9e:	bd38      	pop	{r3, r4, r5, pc}
   21ea0:	20004000 	.word	0x20004000
   21ea4:	41008000 	.word	0x41008000
   21ea8:	0004207c 	.word	0x0004207c
   21eac:	4100f000 	.word	0x4100f000

00021eb0 <LOGUART_GetChar>:
   21eb0:	b130      	cbz	r0, 21ec0 <LOGUART_GetChar+0x10>
   21eb2:	4a05      	ldr	r2, [pc, #20]	; (21ec8 <LOGUART_GetChar+0x18>)
   21eb4:	6953      	ldr	r3, [r2, #20]
   21eb6:	07db      	lsls	r3, r3, #31
   21eb8:	d5fc      	bpl.n	21eb4 <LOGUART_GetChar+0x4>
   21eba:	6a50      	ldr	r0, [r2, #36]	; 0x24
   21ebc:	b2c0      	uxtb	r0, r0
   21ebe:	4770      	bx	lr
   21ec0:	4b01      	ldr	r3, [pc, #4]	; (21ec8 <LOGUART_GetChar+0x18>)
   21ec2:	6a58      	ldr	r0, [r3, #36]	; 0x24
   21ec4:	b2c0      	uxtb	r0, r0
   21ec6:	4770      	bx	lr
   21ec8:	4100f000 	.word	0x4100f000

00021ecc <LOGUART_Readable>:
   21ecc:	4b02      	ldr	r3, [pc, #8]	; (21ed8 <LOGUART_Readable+0xc>)
   21ece:	6958      	ldr	r0, [r3, #20]
   21ed0:	f000 0001 	and.w	r0, r0, #1
   21ed4:	4770      	bx	lr
   21ed6:	bf00      	nop
   21ed8:	4100f000 	.word	0x4100f000

00021edc <LOGUART_GetRxCount>:
   21edc:	4b01      	ldr	r3, [pc, #4]	; (21ee4 <LOGUART_GetRxCount+0x8>)
   21ede:	6958      	ldr	r0, [r3, #20]
   21ee0:	0e00      	lsrs	r0, r0, #24
   21ee2:	4770      	bx	lr
   21ee4:	4100f000 	.word	0x4100f000

00021ee8 <LOGUART_GetIMR>:
   21ee8:	4b01      	ldr	r3, [pc, #4]	; (21ef0 <LOGUART_GetIMR+0x8>)
   21eea:	6858      	ldr	r0, [r3, #4]
   21eec:	4770      	bx	lr
   21eee:	bf00      	nop
   21ef0:	4100f000 	.word	0x4100f000

00021ef4 <LOGUART_SetIMR>:
   21ef4:	4b01      	ldr	r3, [pc, #4]	; (21efc <LOGUART_SetIMR+0x8>)
   21ef6:	6058      	str	r0, [r3, #4]
   21ef8:	4770      	bx	lr
   21efa:	bf00      	nop
   21efc:	4100f000 	.word	0x4100f000

00021f00 <LOGUART_INTConfig>:
   21f00:	6843      	ldr	r3, [r0, #4]
   21f02:	2a01      	cmp	r2, #1
   21f04:	bf0c      	ite	eq
   21f06:	4319      	orreq	r1, r3
   21f08:	ea23 0101 	bicne.w	r1, r3, r1
   21f0c:	6041      	str	r1, [r0, #4]
   21f0e:	4770      	bx	lr

00021f10 <LOGUART_INTClear>:
   21f10:	6f43      	ldr	r3, [r0, #116]	; 0x74
   21f12:	4319      	orrs	r1, r3
   21f14:	6741      	str	r1, [r0, #116]	; 0x74
   21f16:	4770      	bx	lr

00021f18 <LOGUART_GetStatus>:
   21f18:	6940      	ldr	r0, [r0, #20]
   21f1a:	4770      	bx	lr

00021f1c <LOGUART_ClearRxFifo>:
   21f1c:	6d42      	ldr	r2, [r0, #84]	; 0x54
   21f1e:	2305      	movs	r3, #5
   21f20:	f042 0202 	orr.w	r2, r2, #2
   21f24:	6542      	str	r2, [r0, #84]	; 0x54
   21f26:	6942      	ldr	r2, [r0, #20]
   21f28:	07d2      	lsls	r2, r2, #31
   21f2a:	d503      	bpl.n	21f34 <LOGUART_ClearRxFifo+0x18>
   21f2c:	3b01      	subs	r3, #1
   21f2e:	d1fa      	bne.n	21f26 <LOGUART_ClearRxFifo+0xa>
   21f30:	4618      	mov	r0, r3
   21f32:	4770      	bx	lr
   21f34:	2301      	movs	r3, #1
   21f36:	4618      	mov	r0, r3
   21f38:	4770      	bx	lr
   21f3a:	bf00      	nop

00021f3c <_LOGUART_Init>:
   21f3c:	b538      	push	{r3, r4, r5, lr}
   21f3e:	69cb      	ldr	r3, [r1, #28]
   21f40:	460c      	mov	r4, r1
   21f42:	4605      	mov	r5, r0
   21f44:	f033 03c0 	bics.w	r3, r3, #192	; 0xc0
   21f48:	f040 8095 	bne.w	22076 <_LOGUART_Init+0x13a>
   21f4c:	6a23      	ldr	r3, [r4, #32]
   21f4e:	2b01      	cmp	r3, #1
   21f50:	d903      	bls.n	21f5a <_LOGUART_Init+0x1e>
   21f52:	214c      	movs	r1, #76	; 0x4c
   21f54:	484a      	ldr	r0, [pc, #296]	; (22080 <_LOGUART_Init+0x144>)
   21f56:	f7fd f92f 	bl	1f1b8 <io_assert_failed>
   21f5a:	6c23      	ldr	r3, [r4, #64]	; 0x40
   21f5c:	2b07      	cmp	r3, #7
   21f5e:	f200 8085 	bhi.w	2206c <_LOGUART_Init+0x130>
   21f62:	6c2b      	ldr	r3, [r5, #64]	; 0x40
   21f64:	4628      	mov	r0, r5
   21f66:	4a47      	ldr	r2, [pc, #284]	; (22084 <_LOGUART_Init+0x148>)
   21f68:	f023 0304 	bic.w	r3, r3, #4
   21f6c:	642b      	str	r3, [r5, #64]	; 0x40
   21f6e:	4790      	blx	r2
   21f70:	2300      	movs	r3, #0
   21f72:	e9d4 0107 	ldrd	r0, r1, [r4, #28]
   21f76:	606b      	str	r3, [r5, #4]
   21f78:	69ea      	ldr	r2, [r5, #28]
   21f7a:	f042 0280 	orr.w	r2, r2, #128	; 0x80
   21f7e:	61ea      	str	r2, [r5, #28]
   21f80:	6d6b      	ldr	r3, [r5, #84]	; 0x54
   21f82:	69a2      	ldr	r2, [r4, #24]
   21f84:	f023 03c1 	bic.w	r3, r3, #193	; 0xc1
   21f88:	2a01      	cmp	r2, #1
   21f8a:	ea43 0300 	orr.w	r3, r3, r0
   21f8e:	ea43 0301 	orr.w	r3, r3, r1
   21f92:	656b      	str	r3, [r5, #84]	; 0x54
   21f94:	692b      	ldr	r3, [r5, #16]
   21f96:	bf0c      	ite	eq
   21f98:	f043 0321 	orreq.w	r3, r3, #33	; 0x21
   21f9c:	f023 0321 	bicne.w	r3, r3, #33	; 0x21
   21fa0:	612b      	str	r3, [r5, #16]
   21fa2:	6922      	ldr	r2, [r4, #16]
   21fa4:	6861      	ldr	r1, [r4, #4]
   21fa6:	0112      	lsls	r2, r2, #4
   21fa8:	e9d4 3002 	ldrd	r3, r0, [r4, #8]
   21fac:	f002 0210 	and.w	r2, r2, #16
   21fb0:	009b      	lsls	r3, r3, #2
   21fb2:	00c0      	lsls	r0, r0, #3
   21fb4:	f003 0304 	and.w	r3, r3, #4
   21fb8:	f000 0008 	and.w	r0, r0, #8
   21fbc:	4303      	orrs	r3, r0
   21fbe:	430b      	orrs	r3, r1
   21fc0:	6821      	ldr	r1, [r4, #0]
   21fc2:	4313      	orrs	r3, r2
   21fc4:	6962      	ldr	r2, [r4, #20]
   21fc6:	0152      	lsls	r2, r2, #5
   21fc8:	f002 0220 	and.w	r2, r2, #32
   21fcc:	4313      	orrs	r3, r2
   21fce:	60eb      	str	r3, [r5, #12]
   21fd0:	6d6b      	ldr	r3, [r5, #84]	; 0x54
   21fd2:	2900      	cmp	r1, #0
   21fd4:	d034      	beq.n	22040 <_LOGUART_Init+0x104>
   21fd6:	f043 0308 	orr.w	r3, r3, #8
   21fda:	656b      	str	r3, [r5, #84]	; 0x54
   21fdc:	6c2b      	ldr	r3, [r5, #64]	; 0x40
   21fde:	e9d4 1209 	ldrd	r1, r2, [r4, #36]	; 0x24
   21fe2:	b29b      	uxth	r3, r3
   21fe4:	ea43 4301 	orr.w	r3, r3, r1, lsl #16
   21fe8:	642b      	str	r3, [r5, #64]	; 0x40
   21fea:	6dab      	ldr	r3, [r5, #88]	; 0x58
   21fec:	2a00      	cmp	r2, #0
   21fee:	d03a      	beq.n	22066 <_LOGUART_Init+0x12a>
   21ff0:	f043 6380 	orr.w	r3, r3, #67108864	; 0x4000000
   21ff4:	6ae2      	ldr	r2, [r4, #44]	; 0x2c
   21ff6:	b39a      	cbz	r2, 22060 <_LOGUART_Init+0x124>
   21ff8:	f043 6300 	orr.w	r3, r3, #134217728	; 0x8000000
   21ffc:	6b22      	ldr	r2, [r4, #48]	; 0x30
   21ffe:	b362      	cbz	r2, 2205a <_LOGUART_Init+0x11e>
   22000:	f043 5380 	orr.w	r3, r3, #268435456	; 0x10000000
   22004:	6b62      	ldr	r2, [r4, #52]	; 0x34
   22006:	b32a      	cbz	r2, 22054 <_LOGUART_Init+0x118>
   22008:	f043 5300 	orr.w	r3, r3, #536870912	; 0x20000000
   2200c:	6ba2      	ldr	r2, [r4, #56]	; 0x38
   2200e:	b1f2      	cbz	r2, 2204e <_LOGUART_Init+0x112>
   22010:	f043 4380 	orr.w	r3, r3, #1073741824	; 0x40000000
   22014:	6be2      	ldr	r2, [r4, #60]	; 0x3c
   22016:	b1ba      	cbz	r2, 22048 <_LOGUART_Init+0x10c>
   22018:	f043 4300 	orr.w	r3, r3, #2147483648	; 0x80000000
   2201c:	6c61      	ldr	r1, [r4, #68]	; 0x44
   2201e:	4a1a      	ldr	r2, [pc, #104]	; (22088 <_LOGUART_Init+0x14c>)
   22020:	6ca0      	ldr	r0, [r4, #72]	; 0x48
   22022:	ea02 3101 	and.w	r1, r2, r1, lsl #12
   22026:	4a19      	ldr	r2, [pc, #100]	; (2208c <_LOGUART_Init+0x150>)
   22028:	401a      	ands	r2, r3
   2202a:	6c23      	ldr	r3, [r4, #64]	; 0x40
   2202c:	021b      	lsls	r3, r3, #8
   2202e:	430a      	orrs	r2, r1
   22030:	f403 6370 	and.w	r3, r3, #3840	; 0xf00
   22034:	4313      	orrs	r3, r2
   22036:	f023 03ff 	bic.w	r3, r3, #255	; 0xff
   2203a:	4303      	orrs	r3, r0
   2203c:	65ab      	str	r3, [r5, #88]	; 0x58
   2203e:	bd38      	pop	{r3, r4, r5, pc}
   22040:	f023 0308 	bic.w	r3, r3, #8
   22044:	656b      	str	r3, [r5, #84]	; 0x54
   22046:	e7c9      	b.n	21fdc <_LOGUART_Init+0xa0>
   22048:	f023 4300 	bic.w	r3, r3, #2147483648	; 0x80000000
   2204c:	e7e6      	b.n	2201c <_LOGUART_Init+0xe0>
   2204e:	f023 4380 	bic.w	r3, r3, #1073741824	; 0x40000000
   22052:	e7df      	b.n	22014 <_LOGUART_Init+0xd8>
   22054:	f023 5300 	bic.w	r3, r3, #536870912	; 0x20000000
   22058:	e7d8      	b.n	2200c <_LOGUART_Init+0xd0>
   2205a:	f023 5380 	bic.w	r3, r3, #268435456	; 0x10000000
   2205e:	e7d1      	b.n	22004 <_LOGUART_Init+0xc8>
   22060:	f023 6300 	bic.w	r3, r3, #134217728	; 0x8000000
   22064:	e7ca      	b.n	21ffc <_LOGUART_Init+0xc0>
   22066:	f023 6380 	bic.w	r3, r3, #67108864	; 0x4000000
   2206a:	e7c3      	b.n	21ff4 <_LOGUART_Init+0xb8>
   2206c:	214d      	movs	r1, #77	; 0x4d
   2206e:	4804      	ldr	r0, [pc, #16]	; (22080 <_LOGUART_Init+0x144>)
   22070:	f7fd f8a2 	bl	1f1b8 <io_assert_failed>
   22074:	e775      	b.n	21f62 <_LOGUART_Init+0x26>
   22076:	214b      	movs	r1, #75	; 0x4b
   22078:	4801      	ldr	r0, [pc, #4]	; (22080 <_LOGUART_Init+0x144>)
   2207a:	f7fd f89d 	bl	1f1b8 <io_assert_failed>
   2207e:	e765      	b.n	21f4c <_LOGUART_Init+0x10>
   22080:	000436c4 	.word	0x000436c4
   22084:	00021f1d 	.word	0x00021f1d
   22088:	03fff000 	.word	0x03fff000
   2208c:	fc0000ff 	.word	0xfc0000ff

00022090 <LOGUART_Init>:
   22090:	4601      	mov	r1, r0
   22092:	4810      	ldr	r0, [pc, #64]	; (220d4 <LOGUART_Init+0x44>)
   22094:	b508      	push	{r3, lr}
   22096:	f7ff ff51 	bl	21f3c <_LOGUART_Init>
   2209a:	4b0f      	ldr	r3, [pc, #60]	; (220d8 <LOGUART_Init+0x48>)
   2209c:	4798      	blx	r3
   2209e:	2802      	cmp	r0, #2
   220a0:	d013      	beq.n	220ca <LOGUART_Init+0x3a>
   220a2:	4b0e      	ldr	r3, [pc, #56]	; (220dc <LOGUART_Init+0x4c>)
   220a4:	4798      	blx	r3
   220a6:	2801      	cmp	r0, #1
   220a8:	4b0d      	ldr	r3, [pc, #52]	; (220e0 <LOGUART_Init+0x50>)
   220aa:	bf0c      	ite	eq
   220ac:	f44f 31e1 	moveq.w	r1, #115200	; 0x1c200
   220b0:	490c      	ldrne	r1, [pc, #48]	; (220e4 <LOGUART_Init+0x54>)
   220b2:	4808      	ldr	r0, [pc, #32]	; (220d4 <LOGUART_Init+0x44>)
   220b4:	4798      	blx	r3
   220b6:	2201      	movs	r2, #1
   220b8:	4806      	ldr	r0, [pc, #24]	; (220d4 <LOGUART_Init+0x44>)
   220ba:	4b0b      	ldr	r3, [pc, #44]	; (220e8 <LOGUART_Init+0x58>)
   220bc:	4611      	mov	r1, r2
   220be:	4798      	blx	r3
   220c0:	2101      	movs	r1, #1
   220c2:	4804      	ldr	r0, [pc, #16]	; (220d4 <LOGUART_Init+0x44>)
   220c4:	4b09      	ldr	r3, [pc, #36]	; (220ec <LOGUART_Init+0x5c>)
   220c6:	4798      	blx	r3
   220c8:	bd08      	pop	{r3, pc}
   220ca:	4909      	ldr	r1, [pc, #36]	; (220f0 <LOGUART_Init+0x60>)
   220cc:	4801      	ldr	r0, [pc, #4]	; (220d4 <LOGUART_Init+0x44>)
   220ce:	4b04      	ldr	r3, [pc, #16]	; (220e0 <LOGUART_Init+0x50>)
   220d0:	4798      	blx	r3
   220d2:	e7f0      	b.n	220b6 <LOGUART_Init+0x26>
   220d4:	4100f000 	.word	0x4100f000
   220d8:	00024aa5 	.word	0x00024aa5
   220dc:	00024b15 	.word	0x00024b15
   220e0:	00021c45 	.word	0x00021c45
   220e4:	0016e360 	.word	0x0016e360
   220e8:	00021f01 	.word	0x00021f01
   220ec:	00021cf1 	.word	0x00021cf1
   220f0:	004c4b40 	.word	0x004c4b40

000220f4 <LOGUART_WaitBusy>:
   220f4:	4b0b      	ldr	r3, [pc, #44]	; (22124 <LOGUART_WaitBusy+0x30>)
   220f6:	f8d3 3228 	ldr.w	r3, [r3, #552]	; 0x228
   220fa:	f3c3 1381 	ubfx	r3, r3, #6, #2
   220fe:	b570      	push	{r4, r5, r6, lr}
   22100:	eb03 0383 	add.w	r3, r3, r3, lsl #2
   22104:	4c08      	ldr	r4, [pc, #32]	; (22128 <LOGUART_WaitBusy+0x34>)
   22106:	4d09      	ldr	r5, [pc, #36]	; (2212c <LOGUART_WaitBusy+0x38>)
   22108:	eb04 0483 	add.w	r4, r4, r3, lsl #2
   2210c:	696a      	ldr	r2, [r5, #20]
   2210e:	68a3      	ldr	r3, [r4, #8]
   22110:	421a      	tst	r2, r3
   22112:	d106      	bne.n	22122 <LOGUART_WaitBusy+0x2e>
   22114:	4e06      	ldr	r6, [pc, #24]	; (22130 <LOGUART_WaitBusy+0x3c>)
   22116:	200a      	movs	r0, #10
   22118:	47b0      	blx	r6
   2211a:	696a      	ldr	r2, [r5, #20]
   2211c:	68a3      	ldr	r3, [r4, #8]
   2211e:	421a      	tst	r2, r3
   22120:	d0f9      	beq.n	22116 <LOGUART_WaitBusy+0x22>
   22122:	bd70      	pop	{r4, r5, r6, pc}
   22124:	41008000 	.word	0x41008000
   22128:	0004207c 	.word	0x0004207c
   2212c:	4100f000 	.word	0x4100f000
   22130:	00020c05 	.word	0x00020c05

00022134 <LOGUART_WaitTxComplete>:
   22134:	b5f8      	push	{r3, r4, r5, r6, r7, lr}
   22136:	4c07      	ldr	r4, [pc, #28]	; (22154 <LOGUART_WaitTxComplete+0x20>)
   22138:	4d07      	ldr	r5, [pc, #28]	; (22158 <LOGUART_WaitTxComplete+0x24>)
   2213a:	6963      	ldr	r3, [r4, #20]
   2213c:	4e07      	ldr	r6, [pc, #28]	; (2215c <LOGUART_WaitTxComplete+0x28>)
   2213e:	402b      	ands	r3, r5
   22140:	42b3      	cmp	r3, r6
   22142:	d006      	beq.n	22152 <LOGUART_WaitTxComplete+0x1e>
   22144:	4f06      	ldr	r7, [pc, #24]	; (22160 <LOGUART_WaitTxComplete+0x2c>)
   22146:	200a      	movs	r0, #10
   22148:	47b8      	blx	r7
   2214a:	6963      	ldr	r3, [r4, #20]
   2214c:	402b      	ands	r3, r5
   2214e:	42b3      	cmp	r3, r6
   22150:	d1f9      	bne.n	22146 <LOGUART_WaitTxComplete+0x12>
   22152:	bdf8      	pop	{r3, r4, r5, r6, r7, pc}
   22154:	4100f000 	.word	0x4100f000
   22158:	000f0140 	.word	0x000f0140
   2215c:	000f0040 	.word	0x000f0040
   22160:	00020c05 	.word	0x00020c05

00022164 <LOGUART_BT_SendData>:
   22164:	b1a1      	cbz	r1, 22190 <LOGUART_BT_SendData+0x2c>
   22166:	eb00 0c01 	add.w	ip, r0, r1
   2216a:	2300      	movs	r3, #0
   2216c:	4909      	ldr	r1, [pc, #36]	; (22194 <LOGUART_BT_SendData+0x30>)
   2216e:	b410      	push	{r4}
   22170:	4c09      	ldr	r4, [pc, #36]	; (22198 <LOGUART_BT_SendData+0x34>)
   22172:	e002      	b.n	2217a <LOGUART_BT_SendData+0x16>
   22174:	694a      	ldr	r2, [r1, #20]
   22176:	0252      	lsls	r2, r2, #9
   22178:	d402      	bmi.n	22180 <LOGUART_BT_SendData+0x1c>
   2217a:	3301      	adds	r3, #1
   2217c:	42a3      	cmp	r3, r4
   2217e:	d9f9      	bls.n	22174 <LOGUART_BT_SendData+0x10>
   22180:	f810 2b01 	ldrb.w	r2, [r0], #1
   22184:	4584      	cmp	ip, r0
   22186:	664a      	str	r2, [r1, #100]	; 0x64
   22188:	d1f7      	bne.n	2217a <LOGUART_BT_SendData+0x16>
   2218a:	f85d 4b04 	ldr.w	r4, [sp], #4
   2218e:	4770      	bx	lr
   22190:	4770      	bx	lr
   22192:	bf00      	nop
   22194:	4100f000 	.word	0x4100f000
   22198:	000bee32 	.word	0x000bee32

0002219c <LOGUART_Relay_StructInit>:
   2219c:	2300      	movs	r3, #0
   2219e:	2201      	movs	r2, #1
   221a0:	e9c0 3302 	strd	r3, r3, [r0, #8]
   221a4:	e9c0 2300 	strd	r2, r3, [r0]
   221a8:	e9c0 3204 	strd	r3, r2, [r0, #16]
   221ac:	4770      	bx	lr
   221ae:	bf00      	nop

000221b0 <LOGUART_Relay_SetFormat>:
   221b0:	b410      	push	{r4}
   221b2:	e9d1 3401 	ldrd	r3, r4, [r1, #4]
   221b6:	4a11      	ldr	r2, [pc, #68]	; (221fc <LOGUART_Relay_SetFormat+0x4c>)
   221b8:	009b      	lsls	r3, r3, #2
   221ba:	00e4      	lsls	r4, r4, #3
   221bc:	f003 0304 	and.w	r3, r3, #4
   221c0:	f004 0408 	and.w	r4, r4, #8
   221c4:	4323      	orrs	r3, r4
   221c6:	680c      	ldr	r4, [r1, #0]
   221c8:	4323      	orrs	r3, r4
   221ca:	68cc      	ldr	r4, [r1, #12]
   221cc:	0124      	lsls	r4, r4, #4
   221ce:	f004 0410 	and.w	r4, r4, #16
   221d2:	4323      	orrs	r3, r4
   221d4:	e9d1 4104 	ldrd	r4, r1, [r1, #16]
   221d8:	ea4f 1c44 	mov.w	ip, r4, lsl #5
   221dc:	f85d 4b04 	ldr.w	r4, [sp], #4
   221e0:	0309      	lsls	r1, r1, #12
   221e2:	f00c 0c20 	and.w	ip, ip, #32
   221e6:	f401 5180 	and.w	r1, r1, #4096	; 0x1000
   221ea:	ea43 030c 	orr.w	r3, r3, ip
   221ee:	66c3      	str	r3, [r0, #108]	; 0x6c
   221f0:	6d43      	ldr	r3, [r0, #84]	; 0x54
   221f2:	401a      	ands	r2, r3
   221f4:	430a      	orrs	r2, r1
   221f6:	6542      	str	r2, [r0, #84]	; 0x54
   221f8:	4770      	bx	lr
   221fa:	bf00      	nop
   221fc:	ffffeffd 	.word	0xffffeffd

00022200 <LOGUART_Relay_SetBaud>:
   22200:	b530      	push	{r4, r5, lr}
   22202:	b085      	sub	sp, #20
   22204:	4604      	mov	r4, r0
   22206:	4b11      	ldr	r3, [pc, #68]	; (2224c <LOGUART_Relay_SetBaud+0x4c>)
   22208:	9101      	str	r1, [sp, #4]
   2220a:	4798      	blx	r3
   2220c:	4d10      	ldr	r5, [pc, #64]	; (22250 <LOGUART_Relay_SetBaud+0x50>)
   2220e:	ab03      	add	r3, sp, #12
   22210:	aa02      	add	r2, sp, #8
   22212:	9901      	ldr	r1, [sp, #4]
   22214:	47a8      	blx	r5
   22216:	6ee0      	ldr	r0, [r4, #108]	; 0x6c
   22218:	9d02      	ldr	r5, [sp, #8]
   2221a:	f643 73f8 	movw	r3, #16376	; 0x3ff8
   2221e:	f040 0080 	orr.w	r0, r0, #128	; 0x80
   22222:	490c      	ldr	r1, [pc, #48]	; (22254 <LOGUART_Relay_SetBaud+0x54>)
   22224:	ea03 03c5 	and.w	r3, r3, r5, lsl #3
   22228:	66e0      	str	r0, [r4, #108]	; 0x6c
   2222a:	6ee2      	ldr	r2, [r4, #108]	; 0x6c
   2222c:	f3c2 020b 	ubfx	r2, r2, #0, #12
   22230:	ea42 3205 	orr.w	r2, r2, r5, lsl #12
   22234:	66e2      	str	r2, [r4, #108]	; 0x6c
   22236:	6f22      	ldr	r2, [r4, #112]	; 0x70
   22238:	4011      	ands	r1, r2
   2223a:	430b      	orrs	r3, r1
   2223c:	6723      	str	r3, [r4, #112]	; 0x70
   2223e:	6ee3      	ldr	r3, [r4, #108]	; 0x6c
   22240:	f023 0380 	bic.w	r3, r3, #128	; 0x80
   22244:	66e3      	str	r3, [r4, #108]	; 0x6c
   22246:	b005      	add	sp, #20
   22248:	bd30      	pop	{r4, r5, pc}
   2224a:	bf00      	nop
   2224c:	0001f3e1 	.word	0x0001f3e1
   22250:	000251dd 	.word	0x000251dd
   22254:	ffffc007 	.word	0xffffc007

00022258 <LOGUART_Relay_ClearRxFifo>:
   22258:	6d42      	ldr	r2, [r0, #84]	; 0x54
   2225a:	2305      	movs	r3, #5
   2225c:	f022 0202 	bic.w	r2, r2, #2
   22260:	f442 5200 	orr.w	r2, r2, #8192	; 0x2000
   22264:	6542      	str	r2, [r0, #84]	; 0x54
   22266:	6942      	ldr	r2, [r0, #20]
   22268:	05d2      	lsls	r2, r2, #23
   2226a:	d503      	bpl.n	22274 <LOGUART_Relay_ClearRxFifo+0x1c>
   2226c:	3b01      	subs	r3, #1
   2226e:	d1fa      	bne.n	22266 <LOGUART_Relay_ClearRxFifo+0xe>
   22270:	4618      	mov	r0, r3
   22272:	4770      	bx	lr
   22274:	2301      	movs	r3, #1
   22276:	4618      	mov	r0, r3
   22278:	4770      	bx	lr
   2227a:	bf00      	nop

0002227c <LOGUART_Relay_RxCmd>:
   2227c:	6f03      	ldr	r3, [r0, #112]	; 0x70
   2227e:	b119      	cbz	r1, 22288 <LOGUART_Relay_RxCmd+0xc>
   22280:	f043 0304 	orr.w	r3, r3, #4
   22284:	6703      	str	r3, [r0, #112]	; 0x70
   22286:	4770      	bx	lr
   22288:	f023 0304 	bic.w	r3, r3, #4
   2228c:	6703      	str	r3, [r0, #112]	; 0x70
   2228e:	4770      	bx	lr

00022290 <LOGUART_MonitorParaConfig>:
   22290:	1e4b      	subs	r3, r1, #1
   22292:	2b7e      	cmp	r3, #126	; 0x7e
   22294:	b570      	push	{r4, r5, r6, lr}
   22296:	460c      	mov	r4, r1
   22298:	4605      	mov	r5, r0
   2229a:	4616      	mov	r6, r2
   2229c:	d813      	bhi.n	222c6 <LOGUART_MonitorParaConfig+0x36>
   2229e:	6c2b      	ldr	r3, [r5, #64]	; 0x40
   222a0:	0064      	lsls	r4, r4, #1
   222a2:	f023 0304 	bic.w	r3, r3, #4
   222a6:	f404 74ff 	and.w	r4, r4, #510	; 0x1fe
   222aa:	642b      	str	r3, [r5, #64]	; 0x40
   222ac:	6c6b      	ldr	r3, [r5, #68]	; 0x44
   222ae:	f423 73ff 	bic.w	r3, r3, #510	; 0x1fe
   222b2:	431c      	orrs	r4, r3
   222b4:	b11e      	cbz	r6, 222be <LOGUART_MonitorParaConfig+0x2e>
   222b6:	f044 5400 	orr.w	r4, r4, #536870912	; 0x20000000
   222ba:	646c      	str	r4, [r5, #68]	; 0x44
   222bc:	bd70      	pop	{r4, r5, r6, pc}
   222be:	f024 5400 	bic.w	r4, r4, #536870912	; 0x20000000
   222c2:	646c      	str	r4, [r5, #68]	; 0x44
   222c4:	bd70      	pop	{r4, r5, r6, pc}
   222c6:	f44f 7168 	mov.w	r1, #928	; 0x3a0
   222ca:	4802      	ldr	r0, [pc, #8]	; (222d4 <LOGUART_MonitorParaConfig+0x44>)
   222cc:	f7fc ff74 	bl	1f1b8 <io_assert_failed>
   222d0:	e7e5      	b.n	2229e <LOGUART_MonitorParaConfig+0xe>
   222d2:	bf00      	nop
   222d4:	000436d4 	.word	0x000436d4

000222d8 <LOGUART_LPBaudSet>:
   222d8:	b570      	push	{r4, r5, r6, lr}
   222da:	4b21      	ldr	r3, [pc, #132]	; (22360 <LOGUART_LPBaudSet+0x88>)
   222dc:	4616      	mov	r6, r2
   222de:	1e4a      	subs	r2, r1, #1
   222e0:	460d      	mov	r5, r1
   222e2:	4604      	mov	r4, r0
   222e4:	429a      	cmp	r2, r3
   222e6:	d834      	bhi.n	22352 <LOGUART_LPBaudSet+0x7a>
   222e8:	68e0      	ldr	r0, [r4, #12]
   222ea:	491e      	ldr	r1, [pc, #120]	; (22364 <LOGUART_LPBaudSet+0x8c>)
   222ec:	f040 0080 	orr.w	r0, r0, #128	; 0x80
   222f0:	4b1d      	ldr	r3, [pc, #116]	; (22368 <LOGUART_LPBaudSet+0x90>)
   222f2:	fbb6 f2f5 	udiv	r2, r6, r5
   222f6:	60e0      	str	r0, [r4, #12]
   222f8:	fb05 6612 	mls	r6, r5, r2, r6
   222fc:	69e0      	ldr	r0, [r4, #28]
   222fe:	3501      	adds	r5, #1
   22300:	f040 0080 	orr.w	r0, r0, #128	; 0x80
   22304:	ebb6 0f55 	cmp.w	r6, r5, lsr #1
   22308:	61e0      	str	r0, [r4, #28]
   2230a:	bf28      	it	cs
   2230c:	3201      	addcs	r2, #1
   2230e:	6a20      	ldr	r0, [r4, #32]
   22310:	ea03 1302 	and.w	r3, r3, r2, lsl #4
   22314:	4001      	ands	r1, r0
   22316:	4815      	ldr	r0, [pc, #84]	; (2236c <LOGUART_LPBaudSet+0x94>)
   22318:	430b      	orrs	r3, r1
   2231a:	4915      	ldr	r1, [pc, #84]	; (22370 <LOGUART_LPBaudSet+0x98>)
   2231c:	6223      	str	r3, [r4, #32]
   2231e:	69e3      	ldr	r3, [r4, #28]
   22320:	4018      	ands	r0, r3
   22322:	f3c2 0313 	ubfx	r3, r2, #0, #20
   22326:	61e0      	str	r0, [r4, #28]
   22328:	68e0      	ldr	r0, [r4, #12]
   2232a:	f020 0080 	bic.w	r0, r0, #128	; 0x80
   2232e:	60e0      	str	r0, [r4, #12]
   22330:	6ca0      	ldr	r0, [r4, #72]	; 0x48
   22332:	4001      	ands	r1, r0
   22334:	480f      	ldr	r0, [pc, #60]	; (22374 <LOGUART_LPBaudSet+0x9c>)
   22336:	430b      	orrs	r3, r1
   22338:	490f      	ldr	r1, [pc, #60]	; (22378 <LOGUART_LPBaudSet+0xa0>)
   2233a:	64a3      	str	r3, [r4, #72]	; 0x48
   2233c:	6c63      	ldr	r3, [r4, #68]	; 0x44
   2233e:	4018      	ands	r0, r3
   22340:	4b0e      	ldr	r3, [pc, #56]	; (2237c <LOGUART_LPBaudSet+0xa4>)
   22342:	ea03 2342 	and.w	r3, r3, r2, lsl #9
   22346:	4303      	orrs	r3, r0
   22348:	6463      	str	r3, [r4, #68]	; 0x44
   2234a:	6c23      	ldr	r3, [r4, #64]	; 0x40
   2234c:	4019      	ands	r1, r3
   2234e:	6421      	str	r1, [r4, #64]	; 0x40
   22350:	bd70      	pop	{r4, r5, r6, pc}
   22352:	f44f 7172 	mov.w	r1, #968	; 0x3c8
   22356:	480a      	ldr	r0, [pc, #40]	; (22380 <LOGUART_LPBaudSet+0xa8>)
   22358:	f7fc ff2e 	bl	1f1b8 <io_assert_failed>
   2235c:	e7c4      	b.n	222e8 <LOGUART_LPBaudSet+0x10>
   2235e:	bf00      	nop
   22360:	0007a11f 	.word	0x0007a11f
   22364:	ff00000f 	.word	0xff00000f
   22368:	00fffff0 	.word	0x00fffff0
   2236c:	f800ffff 	.word	0xf800ffff
   22370:	fff00000 	.word	0xfff00000
   22374:	e00001ff 	.word	0xe00001ff
   22378:	ffffc007 	.word	0xffffc007
   2237c:	1ffffe00 	.word	0x1ffffe00
   22380:	000436f0 	.word	0x000436f0

00022384 <LOGUART_Relay_LPSetBaud>:
   22384:	b570      	push	{r4, r5, r6, lr}
   22386:	4b14      	ldr	r3, [pc, #80]	; (223d8 <LOGUART_Relay_LPSetBaud+0x54>)
   22388:	4616      	mov	r6, r2
   2238a:	1e4a      	subs	r2, r1, #1
   2238c:	460d      	mov	r5, r1
   2238e:	4604      	mov	r4, r0
   22390:	429a      	cmp	r2, r3
   22392:	d81b      	bhi.n	223cc <LOGUART_Relay_LPSetBaud+0x48>
   22394:	6ee3      	ldr	r3, [r4, #108]	; 0x6c
   22396:	4a11      	ldr	r2, [pc, #68]	; (223dc <LOGUART_Relay_LPSetBaud+0x58>)
   22398:	f043 0380 	orr.w	r3, r3, #128	; 0x80
   2239c:	fbb6 f1f5 	udiv	r1, r6, r5
   223a0:	fb05 6611 	mls	r6, r5, r1, r6
   223a4:	3501      	adds	r5, #1
   223a6:	66e3      	str	r3, [r4, #108]	; 0x6c
   223a8:	ebb6 0f55 	cmp.w	r6, r5, lsr #1
   223ac:	6ee3      	ldr	r3, [r4, #108]	; 0x6c
   223ae:	bf28      	it	cs
   223b0:	3101      	addcs	r1, #1
   223b2:	f3c3 030b 	ubfx	r3, r3, #0, #12
   223b6:	ea43 3301 	orr.w	r3, r3, r1, lsl #12
   223ba:	66e3      	str	r3, [r4, #108]	; 0x6c
   223bc:	6f23      	ldr	r3, [r4, #112]	; 0x70
   223be:	401a      	ands	r2, r3
   223c0:	6722      	str	r2, [r4, #112]	; 0x70
   223c2:	6ee3      	ldr	r3, [r4, #108]	; 0x6c
   223c4:	f023 0380 	bic.w	r3, r3, #128	; 0x80
   223c8:	66e3      	str	r3, [r4, #108]	; 0x6c
   223ca:	bd70      	pop	{r4, r5, r6, pc}
   223cc:	f240 4107 	movw	r1, #1031	; 0x407
   223d0:	4803      	ldr	r0, [pc, #12]	; (223e0 <LOGUART_Relay_LPSetBaud+0x5c>)
   223d2:	f7fc fef1 	bl	1f1b8 <io_assert_failed>
   223d6:	e7dd      	b.n	22394 <LOGUART_Relay_LPSetBaud+0x10>
   223d8:	0007a11f 	.word	0x0007a11f
   223dc:	ffffc007 	.word	0xffffc007
   223e0:	00043704 	.word	0x00043704

000223e4 <LOGUART_RxMonitorCmd>:
   223e4:	6c43      	ldr	r3, [r0, #68]	; 0x44
   223e6:	b119      	cbz	r1, 223f0 <LOGUART_RxMonitorCmd+0xc>
   223e8:	f043 0301 	orr.w	r3, r3, #1
   223ec:	6443      	str	r3, [r0, #68]	; 0x44
   223ee:	4770      	bx	lr
   223f0:	f023 0301 	bic.w	r3, r3, #1
   223f4:	6443      	str	r3, [r0, #68]	; 0x44
   223f6:	4770      	bx	lr

000223f8 <LOGUART_RxMonBaudCtrlRegGet>:
   223f8:	6c40      	ldr	r0, [r0, #68]	; 0x44
   223fa:	4770      	bx	lr

000223fc <LOGUART_RxMonitorSatusGet>:
   223fc:	6c80      	ldr	r0, [r0, #72]	; 0x48
   223fe:	4770      	bx	lr

00022400 <LOGUART_DiagInit>:
   22400:	4918      	ldr	r1, [pc, #96]	; (22464 <LOGUART_DiagInit+0x64>)
   22402:	2201      	movs	r2, #1
   22404:	4b18      	ldr	r3, [pc, #96]	; (22468 <LOGUART_DiagInit+0x68>)
   22406:	b530      	push	{r4, r5, lr}
   22408:	4604      	mov	r4, r0
   2240a:	b095      	sub	sp, #84	; 0x54
   2240c:	4608      	mov	r0, r1
   2240e:	f8d3 5228 	ldr.w	r5, [r3, #552]	; 0x228
   22412:	4b16      	ldr	r3, [pc, #88]	; (2246c <LOGUART_DiagInit+0x6c>)
   22414:	4798      	blx	r3
   22416:	2101      	movs	r1, #1
   22418:	2000      	movs	r0, #0
   2241a:	4b15      	ldr	r3, [pc, #84]	; (22470 <LOGUART_DiagInit+0x70>)
   2241c:	4798      	blx	r3
   2241e:	a801      	add	r0, sp, #4
   22420:	4b14      	ldr	r3, [pc, #80]	; (22474 <LOGUART_DiagInit+0x74>)
   22422:	4798      	blx	r3
   22424:	a801      	add	r0, sp, #4
   22426:	f7ff fe33 	bl	22090 <LOGUART_Init>
   2242a:	2c01      	cmp	r4, #1
   2242c:	d001      	beq.n	22432 <LOGUART_DiagInit+0x32>
   2242e:	b015      	add	sp, #84	; 0x54
   22430:	bd30      	pop	{r4, r5, pc}
   22432:	f3c5 1581 	ubfx	r5, r5, #6, #2
   22436:	4910      	ldr	r1, [pc, #64]	; (22478 <LOGUART_DiagInit+0x78>)
   22438:	2200      	movs	r2, #0
   2243a:	2304      	movs	r3, #4
   2243c:	eb05 0585 	add.w	r5, r5, r5, lsl #2
   22440:	4c0e      	ldr	r4, [pc, #56]	; (2247c <LOGUART_DiagInit+0x7c>)
   22442:	480f      	ldr	r0, [pc, #60]	; (22480 <LOGUART_DiagInit+0x80>)
   22444:	eb01 0585 	add.w	r5, r1, r5, lsl #2
   22448:	9200      	str	r2, [sp, #0]
   2244a:	6929      	ldr	r1, [r5, #16]
   2244c:	47a0      	blx	r4
   2244e:	6928      	ldr	r0, [r5, #16]
   22450:	4b0c      	ldr	r3, [pc, #48]	; (22484 <LOGUART_DiagInit+0x84>)
   22452:	4798      	blx	r3
   22454:	4668      	mov	r0, sp
   22456:	4b0c      	ldr	r3, [pc, #48]	; (22488 <LOGUART_DiagInit+0x88>)
   22458:	4798      	blx	r3
   2245a:	9900      	ldr	r1, [sp, #0]
   2245c:	4b0b      	ldr	r3, [pc, #44]	; (2248c <LOGUART_DiagInit+0x8c>)
   2245e:	4798      	blx	r3
   22460:	b015      	add	sp, #84	; 0x54
   22462:	bd30      	pop	{r4, r5, pc}
   22464:	40000020 	.word	0x40000020
   22468:	41008000 	.word	0x41008000
   2246c:	000238d9 	.word	0x000238d9
   22470:	00023791 	.word	0x00023791
   22474:	00021c0d 	.word	0x00021c0d
   22478:	0004207c 	.word	0x0004207c
   2247c:	00025ff5 	.word	0x00025ff5
   22480:	00026ccd 	.word	0x00026ccd
   22484:	00025ecd 	.word	0x00025ecd
   22488:	00026a39 	.word	0x00026a39
   2248c:	00026d91 	.word	0x00026d91

00022490 <md_hash_save>:
   22490:	2800      	cmp	r0, #0
   22492:	d035      	beq.n	22500 <md_hash_save+0x70>
   22494:	f100 0277 	add.w	r2, r0, #119	; 0x77
   22498:	2300      	movs	r3, #0
   2249a:	b410      	push	{r4}
   2249c:	4c19      	ldr	r4, [pc, #100]	; (22504 <md_hash_save+0x74>)
   2249e:	7821      	ldrb	r1, [r4, #0]
   224a0:	7001      	strb	r1, [r0, #0]
   224a2:	7861      	ldrb	r1, [r4, #1]
   224a4:	7041      	strb	r1, [r0, #1]
   224a6:	6aa1      	ldr	r1, [r4, #40]	; 0x28
   224a8:	6641      	str	r1, [r0, #100]	; 0x64
   224aa:	f894 1040 	ldrb.w	r1, [r4, #64]	; 0x40
   224ae:	f880 106f 	strb.w	r1, [r0, #111]	; 0x6f
   224b2:	8da1      	ldrh	r1, [r4, #44]	; 0x2c
   224b4:	f8a0 106c 	strh.w	r1, [r0, #108]	; 0x6c
   224b8:	6b21      	ldr	r1, [r4, #48]	; 0x30
   224ba:	6701      	str	r1, [r0, #112]	; 0x70
   224bc:	f894 1034 	ldrb.w	r1, [r4, #52]	; 0x34
   224c0:	f880 106e 	strb.w	r1, [r0, #110]	; 0x6e
   224c4:	7c61      	ldrb	r1, [r4, #17]
   224c6:	7081      	strb	r1, [r0, #2]
   224c8:	7ca1      	ldrb	r1, [r4, #18]
   224ca:	70c1      	strb	r1, [r0, #3]
   224cc:	7ce1      	ldrb	r1, [r4, #19]
   224ce:	f880 1060 	strb.w	r1, [r0, #96]	; 0x60
   224d2:	7d21      	ldrb	r1, [r4, #20]
   224d4:	f880 1061 	strb.w	r1, [r0, #97]	; 0x61
   224d8:	68e1      	ldr	r1, [r4, #12]
   224da:	6681      	str	r1, [r0, #104]	; 0x68
   224dc:	7c21      	ldrb	r1, [r4, #16]
   224de:	f880 10f8 	strb.w	r1, [r0, #248]	; 0xf8
   224e2:	18e1      	adds	r1, r4, r3
   224e4:	3301      	adds	r3, #1
   224e6:	f891 11a8 	ldrb.w	r1, [r1, #424]	; 0x1a8
   224ea:	2b40      	cmp	r3, #64	; 0x40
   224ec:	f802 1f01 	strb.w	r1, [r2, #1]!
   224f0:	d1f7      	bne.n	224e2 <md_hash_save+0x52>
   224f2:	2280      	movs	r2, #128	; 0x80
   224f4:	4904      	ldr	r1, [pc, #16]	; (22508 <md_hash_save+0x78>)
   224f6:	30f9      	adds	r0, #249	; 0xf9
   224f8:	4b04      	ldr	r3, [pc, #16]	; (2250c <md_hash_save+0x7c>)
   224fa:	f85d 4b04 	ldr.w	r4, [sp], #4
   224fe:	4718      	bx	r3
   22500:	4770      	bx	lr
   22502:	bf00      	nop
   22504:	20004440 	.word	0x20004440
   22508:	200044a4 	.word	0x200044a4
   2250c:	000270e1 	.word	0x000270e1

00022510 <md_hash_restore>:
   22510:	2800      	cmp	r0, #0
   22512:	d03d      	beq.n	22590 <md_hash_restore+0x80>
   22514:	491f      	ldr	r1, [pc, #124]	; (22594 <md_hash_restore+0x84>)
   22516:	6f02      	ldr	r2, [r0, #112]	; 0x70
   22518:	b530      	push	{r4, r5, lr}
   2251a:	7803      	ldrb	r3, [r0, #0]
   2251c:	f890 e06f 	ldrb.w	lr, [r0, #111]	; 0x6f
   22520:	f8b0 c06c 	ldrh.w	ip, [r0, #108]	; 0x6c
   22524:	6e45      	ldr	r5, [r0, #100]	; 0x64
   22526:	700b      	strb	r3, [r1, #0]
   22528:	f890 306e 	ldrb.w	r3, [r0, #110]	; 0x6e
   2252c:	7844      	ldrb	r4, [r0, #1]
   2252e:	f881 e040 	strb.w	lr, [r1, #64]	; 0x40
   22532:	f06f 0e76 	mvn.w	lr, #118	; 0x76
   22536:	f881 3034 	strb.w	r3, [r1, #52]	; 0x34
   2253a:	628d      	str	r5, [r1, #40]	; 0x28
   2253c:	ebae 0e00 	sub.w	lr, lr, r0
   22540:	f890 3060 	ldrb.w	r3, [r0, #96]	; 0x60
   22544:	f8a1 c02c 	strh.w	ip, [r1, #44]	; 0x2c
   22548:	630a      	str	r2, [r1, #48]	; 0x30
   2254a:	7882      	ldrb	r2, [r0, #2]
   2254c:	704c      	strb	r4, [r1, #1]
   2254e:	f100 04b7 	add.w	r4, r0, #183	; 0xb7
   22552:	744a      	strb	r2, [r1, #17]
   22554:	78c2      	ldrb	r2, [r0, #3]
   22556:	74cb      	strb	r3, [r1, #19]
   22558:	f890 3061 	ldrb.w	r3, [r0, #97]	; 0x61
   2255c:	748a      	strb	r2, [r1, #18]
   2255e:	750b      	strb	r3, [r1, #20]
   22560:	f890 30f8 	ldrb.w	r3, [r0, #248]	; 0xf8
   22564:	6e82      	ldr	r2, [r0, #104]	; 0x68
   22566:	740b      	strb	r3, [r1, #16]
   22568:	f100 0377 	add.w	r3, r0, #119	; 0x77
   2256c:	60ca      	str	r2, [r1, #12]
   2256e:	eb0e 0203 	add.w	r2, lr, r3
   22572:	f813 cf01 	ldrb.w	ip, [r3, #1]!
   22576:	440a      	add	r2, r1
   22578:	42a3      	cmp	r3, r4
   2257a:	f882 c1a8 	strb.w	ip, [r2, #424]	; 0x1a8
   2257e:	d1f6      	bne.n	2256e <md_hash_restore+0x5e>
   22580:	f100 01f9 	add.w	r1, r0, #249	; 0xf9
   22584:	2280      	movs	r2, #128	; 0x80
   22586:	4804      	ldr	r0, [pc, #16]	; (22598 <md_hash_restore+0x88>)
   22588:	4b04      	ldr	r3, [pc, #16]	; (2259c <md_hash_restore+0x8c>)
   2258a:	e8bd 4030 	ldmia.w	sp!, {r4, r5, lr}
   2258e:	4718      	bx	r3
   22590:	4770      	bx	lr
   22592:	bf00      	nop
   22594:	20004440 	.word	0x20004440
   22598:	200044a4 	.word	0x200044a4
   2259c:	000270e1 	.word	0x000270e1

000225a0 <rtl_crypto_md5_init>:
   225a0:	b570      	push	{r4, r5, r6, lr}
   225a2:	4d15      	ldr	r5, [pc, #84]	; (225f8 <rtl_crypto_md5_init+0x58>)
   225a4:	b084      	sub	sp, #16
   225a6:	4604      	mov	r4, r0
   225a8:	782b      	ldrb	r3, [r5, #0]
   225aa:	2b01      	cmp	r3, #1
   225ac:	d003      	beq.n	225b6 <rtl_crypto_md5_init+0x16>
   225ae:	2172      	movs	r1, #114	; 0x72
   225b0:	4812      	ldr	r0, [pc, #72]	; (225fc <rtl_crypto_md5_init+0x5c>)
   225b2:	f7fc fe01 	bl	1f1b8 <io_assert_failed>
   225b6:	2300      	movs	r3, #0
   225b8:	2202      	movs	r2, #2
   225ba:	f04f 31ff 	mov.w	r1, #4294967295	; 0xffffffff
   225be:	480e      	ldr	r0, [pc, #56]	; (225f8 <rtl_crypto_md5_init+0x58>)
   225c0:	9300      	str	r3, [sp, #0]
   225c2:	e9cd 3301 	strd	r3, r3, [sp, #4]
   225c6:	f885 3034 	strb.w	r3, [r5, #52]	; 0x34
   225ca:	f885 3040 	strb.w	r3, [r5, #64]	; 0x40
   225ce:	4d0c      	ldr	r5, [pc, #48]	; (22600 <rtl_crypto_md5_init+0x60>)
   225d0:	47a8      	blx	r5
   225d2:	4606      	mov	r6, r0
   225d4:	b16c      	cbz	r4, 225f2 <rtl_crypto_md5_init+0x52>
   225d6:	4b0b      	ldr	r3, [pc, #44]	; (22604 <rtl_crypto_md5_init+0x64>)
   225d8:	4620      	mov	r0, r4
   225da:	490b      	ldr	r1, [pc, #44]	; (22608 <rtl_crypto_md5_init+0x68>)
   225dc:	4a0b      	ldr	r2, [pc, #44]	; (2260c <rtl_crypto_md5_init+0x6c>)
   225de:	4d0c      	ldr	r5, [pc, #48]	; (22610 <rtl_crypto_md5_init+0x70>)
   225e0:	e9c4 230a 	strd	r2, r3, [r4, #40]	; 0x28
   225e4:	e9c4 5108 	strd	r5, r1, [r4, #32]
   225e8:	f7ff ff52 	bl	22490 <md_hash_save>
   225ec:	2301      	movs	r3, #1
   225ee:	f884 3063 	strb.w	r3, [r4, #99]	; 0x63
   225f2:	4630      	mov	r0, r6
   225f4:	b004      	add	sp, #16
   225f6:	bd70      	pop	{r4, r5, r6, pc}
   225f8:	20004440 	.word	0x20004440
   225fc:	0004371c 	.word	0x0004371c
   22600:	00020035 	.word	0x00020035
   22604:	10325476 	.word	0x10325476
   22608:	efcdab89 	.word	0xefcdab89
   2260c:	98badcfe 	.word	0x98badcfe
   22610:	67452301 	.word	0x67452301

00022614 <rtl_crypto_md5_process>:
   22614:	b570      	push	{r4, r5, r6, lr}
   22616:	460d      	mov	r5, r1
   22618:	b086      	sub	sp, #24
   2261a:	4604      	mov	r4, r0
   2261c:	4616      	mov	r6, r2
