
/home/zjian_zhang/Dplus_Z/project/realtek_amebaDplus_va0_example/GCC-RELEASE/project_km4/asdk/image/target_stdlib.axf:     file format elf32-littlearm


Disassembly of section .rom.stdlib.text:

00033000 <stdlib_entry_table>:
   33000:	89 37 03 00 c1 35 03 00                             .7...5..

00033008 <test_strcat>:
   33008:	b580      	push	{r7, lr}
   3300a:	b086      	sub	sp, #24
   3300c:	af00      	add	r7, sp, #0
   3300e:	f247 4373 	movw	r3, #29811	; 0x7473
   33012:	607b      	str	r3, [r7, #4]
   33014:	f107 0308 	add.w	r3, r7, #8
   33018:	2200      	movs	r2, #0
   3301a:	601a      	str	r2, [r3, #0]
   3301c:	605a      	str	r2, [r3, #4]
   3301e:	609a      	str	r2, [r3, #8]
   33020:	60da      	str	r2, [r3, #12]
   33022:	4b0b      	ldr	r3, [pc, #44]	; (33050 <test_strcat+0x48>)
   33024:	603b      	str	r3, [r7, #0]
   33026:	1d3b      	adds	r3, r7, #4
   33028:	4619      	mov	r1, r3
   3302a:	480a      	ldr	r0, [pc, #40]	; (33054 <test_strcat+0x4c>)
   3302c:	f000 fbe2 	bl	337f4 <printf>
   33030:	463a      	mov	r2, r7
   33032:	1d3b      	adds	r3, r7, #4
   33034:	4611      	mov	r1, r2
   33036:	4618      	mov	r0, r3
   33038:	f000 fdbd 	bl	33bb6 <strcat>
   3303c:	4603      	mov	r3, r0
   3303e:	4619      	mov	r1, r3
   33040:	4805      	ldr	r0, [pc, #20]	; (33058 <test_strcat+0x50>)
   33042:	f000 fbd7 	bl	337f4 <printf>
   33046:	bf00      	nop
   33048:	3718      	adds	r7, #24
   3304a:	46bd      	mov	sp, r7
   3304c:	bd80      	pop	{r7, pc}
   3304e:	bf00      	nop
   33050:	00297473 	.word	0x00297473
   33054:	00040394 	.word	0x00040394
   33058:	0004039c 	.word	0x0004039c

0003305c <test_strchr>:
   3305c:	b580      	push	{r7, lr}
   3305e:	b082      	sub	sp, #8
   33060:	af00      	add	r7, sp, #0
   33062:	4b07      	ldr	r3, [pc, #28]	; (33080 <test_strchr+0x24>)
   33064:	607b      	str	r3, [r7, #4]
   33066:	2135      	movs	r1, #53	; 0x35
   33068:	6878      	ldr	r0, [r7, #4]
   3306a:	f000 fdbd 	bl	33be8 <strchr>
   3306e:	6038      	str	r0, [r7, #0]
   33070:	6838      	ldr	r0, [r7, #0]
   33072:	f000 fc5f 	bl	33934 <puts>
   33076:	bf00      	nop
   33078:	3708      	adds	r7, #8
   3307a:	46bd      	mov	sp, r7
   3307c:	bd80      	pop	{r7, pc}
   3307e:	bf00      	nop
   33080:	000403a4 	.word	0x000403a4

00033084 <test_strcpy>:
   33084:	b580      	push	{r7, lr}
   33086:	b088      	sub	sp, #32
   33088:	af00      	add	r7, sp, #0
   3308a:	f247 4373 	movw	r3, #29811	; 0x7473
   3308e:	60fb      	str	r3, [r7, #12]
   33090:	f107 0310 	add.w	r3, r7, #16
   33094:	2200      	movs	r2, #0
   33096:	601a      	str	r2, [r3, #0]
   33098:	605a      	str	r2, [r3, #4]
   3309a:	609a      	str	r2, [r3, #8]
   3309c:	60da      	str	r2, [r3, #12]
   3309e:	4a0e      	ldr	r2, [pc, #56]	; (330d8 <test_strcpy+0x54>)
   330a0:	1d3b      	adds	r3, r7, #4
   330a2:	e892 0003 	ldmia.w	r2, {r0, r1}
   330a6:	6018      	str	r0, [r3, #0]
   330a8:	3304      	adds	r3, #4
   330aa:	8019      	strh	r1, [r3, #0]
   330ac:	f107 030c 	add.w	r3, r7, #12
   330b0:	4619      	mov	r1, r3
   330b2:	480a      	ldr	r0, [pc, #40]	; (330dc <test_strcpy+0x58>)
   330b4:	f000 fb9e 	bl	337f4 <printf>
   330b8:	1d3a      	adds	r2, r7, #4
   330ba:	f107 030c 	add.w	r3, r7, #12
   330be:	4611      	mov	r1, r2
   330c0:	4618      	mov	r0, r3
   330c2:	f000 fdd7 	bl	33c74 <strcpy>
   330c6:	4603      	mov	r3, r0
   330c8:	4619      	mov	r1, r3
   330ca:	4805      	ldr	r0, [pc, #20]	; (330e0 <test_strcpy+0x5c>)
   330cc:	f000 fb92 	bl	337f4 <printf>
   330d0:	bf00      	nop
   330d2:	3720      	adds	r7, #32
   330d4:	46bd      	mov	sp, r7
   330d6:	bd80      	pop	{r7, pc}
   330d8:	000403b0 	.word	0x000403b0
   330dc:	00040394 	.word	0x00040394
   330e0:	000403a8 	.word	0x000403a8

000330e4 <test_strncat>:
   330e4:	b580      	push	{r7, lr}
   330e6:	b08c      	sub	sp, #48	; 0x30
   330e8:	af00      	add	r7, sp, #0
   330ea:	2373      	movs	r3, #115	; 0x73
   330ec:	613b      	str	r3, [r7, #16]
   330ee:	f107 0314 	add.w	r3, r7, #20
   330f2:	2200      	movs	r2, #0
   330f4:	601a      	str	r2, [r3, #0]
   330f6:	605a      	str	r2, [r3, #4]
   330f8:	609a      	str	r2, [r3, #8]
   330fa:	60da      	str	r2, [r3, #12]
   330fc:	611a      	str	r2, [r3, #16]
   330fe:	615a      	str	r2, [r3, #20]
   33100:	831a      	strh	r2, [r3, #24]
   33102:	4a0d      	ldr	r2, [pc, #52]	; (33138 <test_strncat+0x54>)
   33104:	1d3b      	adds	r3, r7, #4
   33106:	ca07      	ldmia	r2, {r0, r1, r2}
   33108:	c303      	stmia	r3!, {r0, r1}
   3310a:	801a      	strh	r2, [r3, #0]
   3310c:	f107 0310 	add.w	r3, r7, #16
   33110:	4619      	mov	r1, r3
   33112:	480a      	ldr	r0, [pc, #40]	; (3313c <test_strncat+0x58>)
   33114:	f000 fb6e 	bl	337f4 <printf>
   33118:	1d39      	adds	r1, r7, #4
   3311a:	f107 0310 	add.w	r3, r7, #16
   3311e:	220a      	movs	r2, #10
   33120:	4618      	mov	r0, r3
   33122:	f000 fe33 	bl	33d8c <strncat>
   33126:	4603      	mov	r3, r0
   33128:	4619      	mov	r1, r3
   3312a:	4805      	ldr	r0, [pc, #20]	; (33140 <test_strncat+0x5c>)
   3312c:	f000 fb62 	bl	337f4 <printf>
   33130:	bf00      	nop
   33132:	3730      	adds	r7, #48	; 0x30
   33134:	46bd      	mov	sp, r7
   33136:	bd80      	pop	{r7, pc}
   33138:	000403b8 	.word	0x000403b8
   3313c:	00040394 	.word	0x00040394
   33140:	0004039c 	.word	0x0004039c

00033144 <test_strncmp>:
   33144:	b580      	push	{r7, lr}
   33146:	b082      	sub	sp, #8
   33148:	af00      	add	r7, sp, #0
   3314a:	4b09      	ldr	r3, [pc, #36]	; (33170 <test_strncmp+0x2c>)
   3314c:	607b      	str	r3, [r7, #4]
   3314e:	4b09      	ldr	r3, [pc, #36]	; (33174 <test_strncmp+0x30>)
   33150:	603b      	str	r3, [r7, #0]
   33152:	2206      	movs	r2, #6
   33154:	6839      	ldr	r1, [r7, #0]
   33156:	6878      	ldr	r0, [r7, #4]
   33158:	f000 fe39 	bl	33dce <strncmp>
   3315c:	4603      	mov	r3, r0
   3315e:	4619      	mov	r1, r3
   33160:	4805      	ldr	r0, [pc, #20]	; (33178 <test_strncmp+0x34>)
   33162:	f000 fb47 	bl	337f4 <printf>
   33166:	bf00      	nop
   33168:	3708      	adds	r7, #8
   3316a:	46bd      	mov	sp, r7
   3316c:	bd80      	pop	{r7, pc}
   3316e:	bf00      	nop
   33170:	000403c4 	.word	0x000403c4
   33174:	000403c8 	.word	0x000403c8
   33178:	000403cc 	.word	0x000403cc

0003317c <test_strncpy>:
   3317c:	b580      	push	{r7, lr}
   3317e:	b086      	sub	sp, #24
   33180:	af00      	add	r7, sp, #0
   33182:	f243 1373 	movw	r3, #12659	; 0x3173
   33186:	607b      	str	r3, [r7, #4]
   33188:	f107 0308 	add.w	r3, r7, #8
   3318c:	2200      	movs	r2, #0
   3318e:	601a      	str	r2, [r3, #0]
   33190:	605a      	str	r2, [r3, #4]
   33192:	609a      	str	r2, [r3, #8]
   33194:	60da      	str	r2, [r3, #12]
   33196:	4a0e      	ldr	r2, [pc, #56]	; (331d0 <test_strncpy+0x54>)
   33198:	463b      	mov	r3, r7
   3319a:	6812      	ldr	r2, [r2, #0]
   3319c:	4611      	mov	r1, r2
   3319e:	8019      	strh	r1, [r3, #0]
   331a0:	3302      	adds	r3, #2
   331a2:	0c12      	lsrs	r2, r2, #16
   331a4:	701a      	strb	r2, [r3, #0]
   331a6:	1d3b      	adds	r3, r7, #4
   331a8:	4619      	mov	r1, r3
   331aa:	480a      	ldr	r0, [pc, #40]	; (331d4 <test_strncpy+0x58>)
   331ac:	f000 fb22 	bl	337f4 <printf>
   331b0:	4639      	mov	r1, r7
   331b2:	1d3b      	adds	r3, r7, #4
   331b4:	2209      	movs	r2, #9
   331b6:	4618      	mov	r0, r3
   331b8:	f000 fe37 	bl	33e2a <strncpy>
   331bc:	4603      	mov	r3, r0
   331be:	4619      	mov	r1, r3
   331c0:	4805      	ldr	r0, [pc, #20]	; (331d8 <test_strncpy+0x5c>)
   331c2:	f000 fb17 	bl	337f4 <printf>
   331c6:	bf00      	nop
   331c8:	3718      	adds	r7, #24
   331ca:	46bd      	mov	sp, r7
   331cc:	bd80      	pop	{r7, pc}
   331ce:	bf00      	nop
   331d0:	000403e0 	.word	0x000403e0
   331d4:	00040394 	.word	0x00040394
   331d8:	0004039c 	.word	0x0004039c

000331dc <test_strsep>:
   331dc:	b580      	push	{r7, lr}
   331de:	b086      	sub	sp, #24
   331e0:	af00      	add	r7, sp, #0
   331e2:	4a10      	ldr	r2, [pc, #64]	; (33224 <test_strsep+0x48>)
   331e4:	f107 0308 	add.w	r3, r7, #8
   331e8:	e892 0003 	ldmia.w	r2, {r0, r1}
   331ec:	6018      	str	r0, [r3, #0]
   331ee:	3304      	adds	r3, #4
   331f0:	8019      	strh	r1, [r3, #0]
   331f2:	4b0d      	ldr	r3, [pc, #52]	; (33228 <test_strsep+0x4c>)
   331f4:	617b      	str	r3, [r7, #20]
   331f6:	f107 0308 	add.w	r3, r7, #8
   331fa:	607b      	str	r3, [r7, #4]
   331fc:	e003      	b.n	33206 <test_strsep+0x2a>
   331fe:	6939      	ldr	r1, [r7, #16]
   33200:	480a      	ldr	r0, [pc, #40]	; (3322c <test_strsep+0x50>)
   33202:	f000 faf7 	bl	337f4 <printf>
   33206:	1d3b      	adds	r3, r7, #4
   33208:	6979      	ldr	r1, [r7, #20]
   3320a:	4618      	mov	r0, r3
   3320c:	f000 fe51 	bl	33eb2 <strsep>
   33210:	6138      	str	r0, [r7, #16]
   33212:	693b      	ldr	r3, [r7, #16]
   33214:	2b00      	cmp	r3, #0
   33216:	d1f2      	bne.n	331fe <test_strsep+0x22>
   33218:	bf00      	nop
   3321a:	bf00      	nop
   3321c:	3718      	adds	r7, #24
   3321e:	46bd      	mov	sp, r7
   33220:	bd80      	pop	{r7, pc}
   33222:	bf00      	nop
   33224:	000403ec 	.word	0x000403ec
   33228:	000403e4 	.word	0x000403e4
   3322c:	000403e8 	.word	0x000403e8

00033230 <test_strstr>:
   33230:	b580      	push	{r7, lr}
   33232:	b082      	sub	sp, #8
   33234:	af00      	add	r7, sp, #0
   33236:	4b07      	ldr	r3, [pc, #28]	; (33254 <test_strstr+0x24>)
   33238:	607b      	str	r3, [r7, #4]
   3323a:	4907      	ldr	r1, [pc, #28]	; (33258 <test_strstr+0x28>)
   3323c:	6878      	ldr	r0, [r7, #4]
   3323e:	f000 ff4a 	bl	340d6 <strstr>
   33242:	6038      	str	r0, [r7, #0]
   33244:	6838      	ldr	r0, [r7, #0]
   33246:	f000 fb75 	bl	33934 <puts>
   3324a:	bf00      	nop
   3324c:	3708      	adds	r7, #8
   3324e:	46bd      	mov	sp, r7
   33250:	bd80      	pop	{r7, pc}
   33252:	bf00      	nop
   33254:	000403a4 	.word	0x000403a4
   33258:	000403f4 	.word	0x000403f4

0003325c <test_strtok>:
   3325c:	b580      	push	{r7, lr}
   3325e:	b084      	sub	sp, #16
   33260:	af00      	add	r7, sp, #0
   33262:	4a12      	ldr	r2, [pc, #72]	; (332ac <test_strtok+0x50>)
   33264:	463b      	mov	r3, r7
   33266:	e892 0003 	ldmia.w	r2, {r0, r1}
   3326a:	6018      	str	r0, [r3, #0]
   3326c:	3304      	adds	r3, #4
   3326e:	8019      	strh	r1, [r3, #0]
   33270:	4b0f      	ldr	r3, [pc, #60]	; (332b0 <test_strtok+0x54>)
   33272:	60fb      	str	r3, [r7, #12]
   33274:	463b      	mov	r3, r7
   33276:	68f9      	ldr	r1, [r7, #12]
   33278:	4618      	mov	r0, r3
   3327a:	f000 ffcb 	bl	34214 <strtok>
   3327e:	4603      	mov	r3, r0
   33280:	4619      	mov	r1, r3
   33282:	480c      	ldr	r0, [pc, #48]	; (332b4 <test_strtok+0x58>)
   33284:	f000 fab6 	bl	337f4 <printf>
   33288:	e003      	b.n	33292 <test_strtok+0x36>
   3328a:	68b9      	ldr	r1, [r7, #8]
   3328c:	4809      	ldr	r0, [pc, #36]	; (332b4 <test_strtok+0x58>)
   3328e:	f000 fab1 	bl	337f4 <printf>
   33292:	68f9      	ldr	r1, [r7, #12]
   33294:	2000      	movs	r0, #0
   33296:	f000 ffbd 	bl	34214 <strtok>
   3329a:	60b8      	str	r0, [r7, #8]
   3329c:	68bb      	ldr	r3, [r7, #8]
   3329e:	2b00      	cmp	r3, #0
   332a0:	d1f3      	bne.n	3328a <test_strtok+0x2e>
   332a2:	bf00      	nop
   332a4:	bf00      	nop
   332a6:	3710      	adds	r7, #16
   332a8:	46bd      	mov	sp, r7
   332aa:	bd80      	pop	{r7, pc}
   332ac:	000403f8 	.word	0x000403f8
   332b0:	000403e4 	.word	0x000403e4
   332b4:	000403e8 	.word	0x000403e8

000332b8 <test_strpbrk>:
   332b8:	b580      	push	{r7, lr}
   332ba:	b084      	sub	sp, #16
   332bc:	af00      	add	r7, sp, #0
   332be:	4a15      	ldr	r2, [pc, #84]	; (33314 <test_strpbrk+0x5c>)
   332c0:	f107 0308 	add.w	r3, r7, #8
   332c4:	6812      	ldr	r2, [r2, #0]
   332c6:	4611      	mov	r1, r2
   332c8:	8019      	strh	r1, [r3, #0]
   332ca:	3302      	adds	r3, #2
   332cc:	0c12      	lsrs	r2, r2, #16
   332ce:	701a      	strb	r2, [r3, #0]
   332d0:	4a11      	ldr	r2, [pc, #68]	; (33318 <test_strpbrk+0x60>)
   332d2:	1d3b      	adds	r3, r7, #4
   332d4:	6812      	ldr	r2, [r2, #0]
   332d6:	4611      	mov	r1, r2
   332d8:	8019      	strh	r1, [r3, #0]
   332da:	3302      	adds	r3, #2
   332dc:	0c12      	lsrs	r2, r2, #16
   332de:	701a      	strb	r2, [r3, #0]
   332e0:	1d3a      	adds	r2, r7, #4
   332e2:	f107 0308 	add.w	r3, r7, #8
   332e6:	4611      	mov	r1, r2
   332e8:	4618      	mov	r0, r3
   332ea:	f000 fdc8 	bl	33e7e <strpbrk>
   332ee:	60f8      	str	r0, [r7, #12]
   332f0:	68fb      	ldr	r3, [r7, #12]
   332f2:	2b00      	cmp	r3, #0
   332f4:	d006      	beq.n	33304 <test_strpbrk+0x4c>
   332f6:	68fb      	ldr	r3, [r7, #12]
   332f8:	781b      	ldrb	r3, [r3, #0]
   332fa:	4619      	mov	r1, r3
   332fc:	4807      	ldr	r0, [pc, #28]	; (3331c <test_strpbrk+0x64>)
   332fe:	f000 fa79 	bl	337f4 <printf>
   33302:	e002      	b.n	3330a <test_strpbrk+0x52>
   33304:	4806      	ldr	r0, [pc, #24]	; (33320 <test_strpbrk+0x68>)
   33306:	f000 fb15 	bl	33934 <puts>
   3330a:	bf00      	nop
   3330c:	3710      	adds	r7, #16
   3330e:	46bd      	mov	sp, r7
   33310:	bd80      	pop	{r7, pc}
   33312:	bf00      	nop
   33314:	0004040c 	.word	0x0004040c
   33318:	00040410 	.word	0x00040410
   3331c:	00040400 	.word	0x00040400
   33320:	00040408 	.word	0x00040408

00033324 <test_stratoi>:
   33324:	b580      	push	{r7, lr}
   33326:	b082      	sub	sp, #8
   33328:	af00      	add	r7, sp, #0
   3332a:	4a0b      	ldr	r2, [pc, #44]	; (33358 <test_stratoi+0x34>)
   3332c:	463b      	mov	r3, r7
   3332e:	6812      	ldr	r2, [r2, #0]
   33330:	4611      	mov	r1, r2
   33332:	8019      	strh	r1, [r3, #0]
   33334:	3302      	adds	r3, #2
   33336:	0c12      	lsrs	r2, r2, #16
   33338:	701a      	strb	r2, [r3, #0]
   3333a:	463b      	mov	r3, r7
   3333c:	4618      	mov	r0, r3
   3333e:	f000 fa43 	bl	337c8 <atoi>
   33342:	4603      	mov	r3, r0
   33344:	607b      	str	r3, [r7, #4]
   33346:	687b      	ldr	r3, [r7, #4]
   33348:	4619      	mov	r1, r3
   3334a:	4804      	ldr	r0, [pc, #16]	; (3335c <test_stratoi+0x38>)
   3334c:	f000 fa52 	bl	337f4 <printf>
   33350:	bf00      	nop
   33352:	3708      	adds	r7, #8
   33354:	46bd      	mov	sp, r7
   33356:	bd80      	pop	{r7, pc}
   33358:	0004040c 	.word	0x0004040c
   3335c:	00040414 	.word	0x00040414

00033360 <test_strtol>:
   33360:	b580      	push	{r7, lr}
   33362:	b08a      	sub	sp, #40	; 0x28
   33364:	af00      	add	r7, sp, #0
   33366:	4a14      	ldr	r2, [pc, #80]	; (333b8 <test_strtol+0x58>)
   33368:	1d3b      	adds	r3, r7, #4
   3336a:	e892 0003 	ldmia.w	r2, {r0, r1}
   3336e:	6018      	str	r0, [r3, #0]
   33370:	3304      	adds	r3, #4
   33372:	8019      	strh	r1, [r3, #0]
   33374:	3302      	adds	r3, #2
   33376:	0c0a      	lsrs	r2, r1, #16
   33378:	701a      	strb	r2, [r3, #0]
   3337a:	f107 030b 	add.w	r3, r7, #11
   3337e:	2200      	movs	r2, #0
   33380:	601a      	str	r2, [r3, #0]
   33382:	605a      	str	r2, [r3, #4]
   33384:	609a      	str	r2, [r3, #8]
   33386:	60da      	str	r2, [r3, #12]
   33388:	611a      	str	r2, [r3, #16]
   3338a:	f8c3 2013 	str.w	r2, [r3, #19]
   3338e:	4639      	mov	r1, r7
   33390:	1d3b      	adds	r3, r7, #4
   33392:	220a      	movs	r2, #10
   33394:	4618      	mov	r0, r3
   33396:	f000 fffd 	bl	34394 <strtol>
   3339a:	6278      	str	r0, [r7, #36]	; 0x24
   3339c:	6a79      	ldr	r1, [r7, #36]	; 0x24
   3339e:	4807      	ldr	r0, [pc, #28]	; (333bc <test_strtol+0x5c>)
   333a0:	f000 fa28 	bl	337f4 <printf>
   333a4:	683b      	ldr	r3, [r7, #0]
   333a6:	4619      	mov	r1, r3
   333a8:	4805      	ldr	r0, [pc, #20]	; (333c0 <test_strtol+0x60>)
   333aa:	f000 fa23 	bl	337f4 <printf>
   333ae:	bf00      	nop
   333b0:	3728      	adds	r7, #40	; 0x28
   333b2:	46bd      	mov	sp, r7
   333b4:	bd80      	pop	{r7, pc}
   333b6:	bf00      	nop
   333b8:	00040438 	.word	0x00040438
   333bc:	00040420 	.word	0x00040420
   333c0:	0004042c 	.word	0x0004042c

000333c4 <_write>:
   333c4:	b580      	push	{r7, lr}
   333c6:	b086      	sub	sp, #24
   333c8:	af00      	add	r7, sp, #0
   333ca:	60f8      	str	r0, [r7, #12]
   333cc:	60b9      	str	r1, [r7, #8]
   333ce:	607a      	str	r2, [r7, #4]
   333d0:	2300      	movs	r3, #0
   333d2:	617b      	str	r3, [r7, #20]
   333d4:	4b15      	ldr	r3, [pc, #84]	; (3342c <_write+0x68>)
   333d6:	613b      	str	r3, [r7, #16]
   333d8:	68fb      	ldr	r3, [r7, #12]
   333da:	2b01      	cmp	r3, #1
   333dc:	d005      	beq.n	333ea <_write+0x26>
   333de:	68fb      	ldr	r3, [r7, #12]
   333e0:	2b02      	cmp	r3, #2
   333e2:	d002      	beq.n	333ea <_write+0x26>
   333e4:	f04f 33ff 	mov.w	r3, #4294967295	; 0xffffffff
   333e8:	e01c      	b.n	33424 <_write+0x60>
   333ea:	4b11      	ldr	r3, [pc, #68]	; (33430 <_write+0x6c>)
   333ec:	681b      	ldr	r3, [r3, #0]
   333ee:	2b00      	cmp	r3, #0
   333f0:	d014      	beq.n	3341c <_write+0x58>
   333f2:	4b0f      	ldr	r3, [pc, #60]	; (33430 <_write+0x6c>)
   333f4:	681b      	ldr	r3, [r3, #0]
   333f6:	6879      	ldr	r1, [r7, #4]
   333f8:	68b8      	ldr	r0, [r7, #8]
   333fa:	4798      	blx	r3
   333fc:	6178      	str	r0, [r7, #20]
   333fe:	e010      	b.n	33422 <_write+0x5e>
   33400:	693b      	ldr	r3, [r7, #16]
   33402:	685a      	ldr	r2, [r3, #4]
   33404:	68bb      	ldr	r3, [r7, #8]
   33406:	1c59      	adds	r1, r3, #1
   33408:	60b9      	str	r1, [r7, #8]
   3340a:	781b      	ldrb	r3, [r3, #0]
   3340c:	4618      	mov	r0, r3
   3340e:	4790      	blx	r2
   33410:	697b      	ldr	r3, [r7, #20]
   33412:	3301      	adds	r3, #1
   33414:	617b      	str	r3, [r7, #20]
   33416:	687b      	ldr	r3, [r7, #4]
   33418:	3b01      	subs	r3, #1
   3341a:	607b      	str	r3, [r7, #4]
   3341c:	687b      	ldr	r3, [r7, #4]
   3341e:	2b00      	cmp	r3, #0
   33420:	dcee      	bgt.n	33400 <_write+0x3c>
   33422:	697b      	ldr	r3, [r7, #20]
   33424:	4618      	mov	r0, r3
   33426:	3718      	adds	r7, #24
   33428:	46bd      	mov	sp, r7
   3342a:	bd80      	pop	{r7, pc}
   3342c:	00042000 	.word	0x00042000
   33430:	200069c0 	.word	0x200069c0

00033434 <_read>:
   33434:	b580      	push	{r7, lr}
   33436:	b088      	sub	sp, #32
   33438:	af00      	add	r7, sp, #0
   3343a:	60f8      	str	r0, [r7, #12]
   3343c:	60b9      	str	r1, [r7, #8]
   3343e:	607a      	str	r2, [r7, #4]
   33440:	2300      	movs	r3, #0
   33442:	61fb      	str	r3, [r7, #28]
   33444:	4b1b      	ldr	r3, [pc, #108]	; (334b4 <_read+0x80>)
   33446:	61bb      	str	r3, [r7, #24]
   33448:	68fb      	ldr	r3, [r7, #12]
   3344a:	2b00      	cmp	r3, #0
   3344c:	d002      	beq.n	33454 <_read+0x20>
   3344e:	f04f 33ff 	mov.w	r3, #4294967295	; 0xffffffff
   33452:	e02a      	b.n	334aa <_read+0x76>
   33454:	4b18      	ldr	r3, [pc, #96]	; (334b8 <_read+0x84>)
   33456:	685b      	ldr	r3, [r3, #4]
   33458:	2b00      	cmp	r3, #0
   3345a:	d022      	beq.n	334a2 <_read+0x6e>
   3345c:	4b16      	ldr	r3, [pc, #88]	; (334b8 <_read+0x84>)
   3345e:	685b      	ldr	r3, [r3, #4]
   33460:	6879      	ldr	r1, [r7, #4]
   33462:	68b8      	ldr	r0, [r7, #8]
   33464:	4798      	blx	r3
   33466:	61f8      	str	r0, [r7, #28]
   33468:	e01e      	b.n	334a8 <_read+0x74>
   3346a:	69bb      	ldr	r3, [r7, #24]
   3346c:	689b      	ldr	r3, [r3, #8]
   3346e:	2001      	movs	r0, #1
   33470:	4798      	blx	r3
   33472:	4603      	mov	r3, r0
   33474:	617b      	str	r3, [r7, #20]
   33476:	697b      	ldr	r3, [r7, #20]
   33478:	2b00      	cmp	r3, #0
   3347a:	db02      	blt.n	33482 <_read+0x4e>
   3347c:	697b      	ldr	r3, [r7, #20]
   3347e:	2b0d      	cmp	r3, #13
   33480:	d103      	bne.n	3348a <_read+0x56>
   33482:	68bb      	ldr	r3, [r7, #8]
   33484:	2200      	movs	r2, #0
   33486:	701a      	strb	r2, [r3, #0]
   33488:	e00e      	b.n	334a8 <_read+0x74>
   3348a:	68bb      	ldr	r3, [r7, #8]
   3348c:	1c5a      	adds	r2, r3, #1
   3348e:	60ba      	str	r2, [r7, #8]
   33490:	697a      	ldr	r2, [r7, #20]
   33492:	b2d2      	uxtb	r2, r2
   33494:	701a      	strb	r2, [r3, #0]
   33496:	69fb      	ldr	r3, [r7, #28]
   33498:	3301      	adds	r3, #1
   3349a:	61fb      	str	r3, [r7, #28]
   3349c:	687b      	ldr	r3, [r7, #4]
   3349e:	3b01      	subs	r3, #1
   334a0:	607b      	str	r3, [r7, #4]
   334a2:	687b      	ldr	r3, [r7, #4]
   334a4:	2b00      	cmp	r3, #0
   334a6:	dce0      	bgt.n	3346a <_read+0x36>
   334a8:	69fb      	ldr	r3, [r7, #28]
   334aa:	4618      	mov	r0, r3
   334ac:	3720      	adds	r7, #32
   334ae:	46bd      	mov	sp, r7
   334b0:	bd80      	pop	{r7, pc}
   334b2:	bf00      	nop
   334b4:	00042000 	.word	0x00042000
   334b8:	200069c0 	.word	0x200069c0

000334bc <rtl_string_test>:
   334bc:	b508      	push	{r3, lr}
   334be:	f7ff fda3 	bl	33008 <test_strcat>
   334c2:	f7ff fdcb 	bl	3305c <test_strchr>
   334c6:	f7ff fddd 	bl	33084 <test_strcpy>
   334ca:	f7ff fe0b 	bl	330e4 <test_strncat>
   334ce:	f7ff fe39 	bl	33144 <test_strncmp>
   334d2:	f7ff fe53 	bl	3317c <test_strncpy>
   334d6:	f7ff fe81 	bl	331dc <test_strsep>
   334da:	f7ff fea9 	bl	33230 <test_strstr>
   334de:	f7ff febd 	bl	3325c <test_strtok>
   334e2:	f7ff fee9 	bl	332b8 <test_strpbrk>
   334e6:	f7ff ff1d 	bl	33324 <test_stratoi>
   334ea:	f7ff ff39 	bl	33360 <test_strtol>
   334ee:	2000      	movs	r0, #0
   334f0:	bd08      	pop	{r3, pc}
   334f2:	bf00      	nop

000334f4 <stdlib_vsnprintf_call>:
   334f4:	b40f      	push	{r0, r1, r2, r3}
   334f6:	b500      	push	{lr}
   334f8:	b085      	sub	sp, #20
   334fa:	2106      	movs	r1, #6
   334fc:	ab06      	add	r3, sp, #24
   334fe:	a802      	add	r0, sp, #8
   33500:	f853 2b04 	ldr.w	r2, [r3], #4
   33504:	9301      	str	r3, [sp, #4]
   33506:	f004 fd66 	bl	37fd6 <vsnprintf>
   3350a:	b005      	add	sp, #20
   3350c:	f85d eb04 	ldr.w	lr, [sp], #4
   33510:	b004      	add	sp, #16
   33512:	4770      	bx	lr

00033514 <stdlib_printf_call>:
   33514:	e92d 4170 	stmdb	sp!, {r4, r5, r6, r8, lr}
   33518:	4d14      	ldr	r5, [pc, #80]	; (3356c <stdlib_printf_call+0x58>)
   3351a:	4606      	mov	r6, r0
   3351c:	b087      	sub	sp, #28
   3351e:	2400      	movs	r4, #0
   33520:	4628      	mov	r0, r5
   33522:	4688      	mov	r8, r1
   33524:	f000 fa06 	bl	33934 <puts>
   33528:	4631      	mov	r1, r6
   3352a:	f105 0010 	add.w	r0, r5, #16
   3352e:	f000 f961 	bl	337f4 <printf>
   33532:	2078      	movs	r0, #120	; 0x78
   33534:	f000 f973 	bl	3381e <putchar>
   33538:	4622      	mov	r2, r4
   3353a:	f105 0114 	add.w	r1, r5, #20
   3353e:	4623      	mov	r3, r4
   33540:	4640      	mov	r0, r8
   33542:	e9cd 4402 	strd	r4, r4, [sp, #8]
   33546:	e9cd 4400 	strd	r4, r4, [sp]
   3354a:	f000 fa79 	bl	33a40 <sprintf>
   3354e:	4633      	mov	r3, r6
   33550:	f105 0230 	add.w	r2, r5, #48	; 0x30
   33554:	2106      	movs	r1, #6
   33556:	a804      	add	r0, sp, #16
   33558:	f000 fa23 	bl	339a2 <snprintf>
   3355c:	4621      	mov	r1, r4
   3355e:	f105 0038 	add.w	r0, r5, #56	; 0x38
   33562:	f7ff ffc7 	bl	334f4 <stdlib_vsnprintf_call>
   33566:	b007      	add	sp, #28
   33568:	e8bd 8170 	ldmia.w	sp!, {r4, r5, r6, r8, pc}
   3356c:	00040458 	.word	0x00040458

00033570 <stdlib_scanf_call>:
   33570:	b530      	push	{r4, r5, lr}
   33572:	b093      	sub	sp, #76	; 0x4c
   33574:	2000      	movs	r0, #0
   33576:	4c11      	ldr	r4, [pc, #68]	; (335bc <stdlib_scanf_call+0x4c>)
   33578:	ad0b      	add	r5, sp, #44	; 0x2c
   3357a:	ab04      	add	r3, sp, #16
   3357c:	f10d 020f 	add.w	r2, sp, #15
   33580:	f104 0140 	add.w	r1, r4, #64	; 0x40
   33584:	f88d 000f 	strb.w	r0, [sp, #15]
   33588:	900a      	str	r0, [sp, #40]	; 0x28
   3358a:	9011      	str	r0, [sp, #68]	; 0x44
   3358c:	9500      	str	r5, [sp, #0]
   3358e:	e9cd 0004 	strd	r0, r0, [sp, #16]
   33592:	e9cd 000b 	strd	r0, r0, [sp, #44]	; 0x2c
   33596:	e9cd 0006 	strd	r0, r0, [sp, #24]
   3359a:	e9cd 0008 	strd	r0, r0, [sp, #32]
   3359e:	e9cd 000d 	strd	r0, r0, [sp, #52]	; 0x34
   335a2:	e9cd 000f 	strd	r0, r0, [sp, #60]	; 0x3c
   335a6:	f104 0050 	add.w	r0, r4, #80	; 0x50
   335aa:	f000 fa69 	bl	33a80 <sscanf>
   335ae:	4601      	mov	r1, r0
   335b0:	f104 0074 	add.w	r0, r4, #116	; 0x74
   335b4:	f000 f91e 	bl	337f4 <printf>
   335b8:	b013      	add	sp, #76	; 0x4c
   335ba:	bd30      	pop	{r4, r5, pc}
   335bc:	00040458 	.word	0x00040458

000335c0 <stdlib_test>:
   335c0:	2100      	movs	r1, #0
   335c2:	b508      	push	{r3, lr}
   335c4:	4608      	mov	r0, r1
   335c6:	f7ff ffa5 	bl	33514 <stdlib_printf_call>
   335ca:	f7ff ffd1 	bl	33570 <stdlib_scanf_call>
   335ce:	f7ff fd1b 	bl	33008 <test_strcat>
   335d2:	f7ff fd43 	bl	3305c <test_strchr>
   335d6:	f7ff fd55 	bl	33084 <test_strcpy>
   335da:	f7ff fd83 	bl	330e4 <test_strncat>
   335de:	f7ff fdb1 	bl	33144 <test_strncmp>
   335e2:	f7ff fdcb 	bl	3317c <test_strncpy>
   335e6:	f7ff fdf9 	bl	331dc <test_strsep>
   335ea:	f7ff fe21 	bl	33230 <test_strstr>
   335ee:	f7ff fe35 	bl	3325c <test_strtok>
   335f2:	f7ff fe61 	bl	332b8 <test_strpbrk>
   335f6:	f7ff fe95 	bl	33324 <test_stratoi>
   335fa:	e8bd 4008 	ldmia.w	sp!, {r3, lr}
   335fe:	f7ff beaf 	b.w	33360 <test_strtol>
   33602:	bf00      	nop

00033604 <stdlib_memset>:
   33604:	b570      	push	{r4, r5, r6, lr}
   33606:	0786      	lsls	r6, r0, #30
   33608:	d048      	beq.n	3369c <stdlib_memset+0x98>
   3360a:	1e54      	subs	r4, r2, #1
   3360c:	2a00      	cmp	r2, #0
   3360e:	d03f      	beq.n	33690 <stdlib_memset+0x8c>
   33610:	b2ca      	uxtb	r2, r1
   33612:	4603      	mov	r3, r0
   33614:	e001      	b.n	3361a <stdlib_memset+0x16>
   33616:	3c01      	subs	r4, #1
   33618:	d33a      	bcc.n	33690 <stdlib_memset+0x8c>
   3361a:	f803 2b01 	strb.w	r2, [r3], #1
   3361e:	079d      	lsls	r5, r3, #30
   33620:	d1f9      	bne.n	33616 <stdlib_memset+0x12>
   33622:	2c03      	cmp	r4, #3
   33624:	d92d      	bls.n	33682 <stdlib_memset+0x7e>
   33626:	b2cd      	uxtb	r5, r1
   33628:	2c0f      	cmp	r4, #15
   3362a:	ea45 2505 	orr.w	r5, r5, r5, lsl #8
   3362e:	ea45 4505 	orr.w	r5, r5, r5, lsl #16
   33632:	d936      	bls.n	336a2 <stdlib_memset+0x9e>
   33634:	f1a4 0c10 	sub.w	ip, r4, #16
   33638:	f103 0e20 	add.w	lr, r3, #32
   3363c:	f103 0210 	add.w	r2, r3, #16
   33640:	f02c 060f 	bic.w	r6, ip, #15
   33644:	ea4f 1c1c 	mov.w	ip, ip, lsr #4
   33648:	44b6      	add	lr, r6
   3364a:	e942 5504 	strd	r5, r5, [r2, #-16]
   3364e:	e942 5502 	strd	r5, r5, [r2, #-8]
   33652:	3210      	adds	r2, #16
   33654:	4572      	cmp	r2, lr
   33656:	d1f8      	bne.n	3364a <stdlib_memset+0x46>
   33658:	f10c 0201 	add.w	r2, ip, #1
   3365c:	f014 0f0c 	tst.w	r4, #12
   33660:	f004 0c0f 	and.w	ip, r4, #15
   33664:	eb03 1202 	add.w	r2, r3, r2, lsl #4
   33668:	d013      	beq.n	33692 <stdlib_memset+0x8e>
   3366a:	f1ac 0304 	sub.w	r3, ip, #4
   3366e:	f023 0303 	bic.w	r3, r3, #3
   33672:	3304      	adds	r3, #4
   33674:	4413      	add	r3, r2
   33676:	f842 5b04 	str.w	r5, [r2], #4
   3367a:	4293      	cmp	r3, r2
   3367c:	d1fb      	bne.n	33676 <stdlib_memset+0x72>
   3367e:	f00c 0403 	and.w	r4, ip, #3
   33682:	b12c      	cbz	r4, 33690 <stdlib_memset+0x8c>
   33684:	b2ca      	uxtb	r2, r1
   33686:	441c      	add	r4, r3
   33688:	f803 2b01 	strb.w	r2, [r3], #1
   3368c:	429c      	cmp	r4, r3
   3368e:	d1fb      	bne.n	33688 <stdlib_memset+0x84>
   33690:	bd70      	pop	{r4, r5, r6, pc}
   33692:	4664      	mov	r4, ip
   33694:	4613      	mov	r3, r2
   33696:	2c00      	cmp	r4, #0
   33698:	d1f4      	bne.n	33684 <stdlib_memset+0x80>
   3369a:	e7f9      	b.n	33690 <stdlib_memset+0x8c>
   3369c:	4603      	mov	r3, r0
   3369e:	4614      	mov	r4, r2
   336a0:	e7bf      	b.n	33622 <stdlib_memset+0x1e>
   336a2:	461a      	mov	r2, r3
   336a4:	46a4      	mov	ip, r4
   336a6:	e7e0      	b.n	3366a <stdlib_memset+0x66>

000336a8 <stdlib_memcpy>:
   336a8:	2a03      	cmp	r2, #3
   336aa:	d954      	bls.n	33756 <stdlib_memcpy+0xae>
   336ac:	ea40 0301 	orr.w	r3, r0, r1
   336b0:	079b      	lsls	r3, r3, #30
   336b2:	d15f      	bne.n	33774 <stdlib_memcpy+0xcc>
   336b4:	2a0f      	cmp	r2, #15
   336b6:	b570      	push	{r4, r5, r6, lr}
   336b8:	d962      	bls.n	33780 <stdlib_memcpy+0xd8>
   336ba:	f1a2 0310 	sub.w	r3, r2, #16
   336be:	f101 0c20 	add.w	ip, r1, #32
   336c2:	f101 0e10 	add.w	lr, r1, #16
   336c6:	f100 0410 	add.w	r4, r0, #16
   336ca:	f023 050f 	bic.w	r5, r3, #15
   336ce:	44ac      	add	ip, r5
   336d0:	091d      	lsrs	r5, r3, #4
   336d2:	f85e 3c10 	ldr.w	r3, [lr, #-16]
   336d6:	f10e 0e10 	add.w	lr, lr, #16
   336da:	3410      	adds	r4, #16
   336dc:	f844 3c20 	str.w	r3, [r4, #-32]
   336e0:	45e6      	cmp	lr, ip
   336e2:	f85e 3c1c 	ldr.w	r3, [lr, #-28]
   336e6:	f844 3c1c 	str.w	r3, [r4, #-28]
   336ea:	f85e 3c18 	ldr.w	r3, [lr, #-24]
   336ee:	f844 3c18 	str.w	r3, [r4, #-24]
   336f2:	f85e 3c14 	ldr.w	r3, [lr, #-20]
   336f6:	f844 3c14 	str.w	r3, [r4, #-20]
   336fa:	d1ea      	bne.n	336d2 <stdlib_memcpy+0x2a>
   336fc:	1c6b      	adds	r3, r5, #1
   336fe:	f012 0f0c 	tst.w	r2, #12
   33702:	f002 0c0f 	and.w	ip, r2, #15
   33706:	eb01 1103 	add.w	r1, r1, r3, lsl #4
   3370a:	eb00 1303 	add.w	r3, r0, r3, lsl #4
   3370e:	d035      	beq.n	3377c <stdlib_memcpy+0xd4>
   33710:	f1ac 0404 	sub.w	r4, ip, #4
   33714:	1f1a      	subs	r2, r3, #4
   33716:	460d      	mov	r5, r1
   33718:	f024 0e03 	bic.w	lr, r4, #3
   3371c:	08a4      	lsrs	r4, r4, #2
   3371e:	449e      	add	lr, r3
   33720:	f855 6b04 	ldr.w	r6, [r5], #4
   33724:	f842 6f04 	str.w	r6, [r2, #4]!
   33728:	4572      	cmp	r2, lr
   3372a:	d1f9      	bne.n	33720 <stdlib_memcpy+0x78>
   3372c:	3401      	adds	r4, #1
   3372e:	f00c 0203 	and.w	r2, ip, #3
   33732:	eb03 0384 	add.w	r3, r3, r4, lsl #2
   33736:	eb01 0184 	add.w	r1, r1, r4, lsl #2
   3373a:	f102 3cff 	add.w	ip, r2, #4294967295	; 0xffffffff
   3373e:	b14a      	cbz	r2, 33754 <stdlib_memcpy+0xac>
   33740:	f10c 0c01 	add.w	ip, ip, #1
   33744:	3b01      	subs	r3, #1
   33746:	448c      	add	ip, r1
   33748:	f811 2b01 	ldrb.w	r2, [r1], #1
   3374c:	4561      	cmp	r1, ip
   3374e:	f803 2f01 	strb.w	r2, [r3, #1]!
   33752:	d1f9      	bne.n	33748 <stdlib_memcpy+0xa0>
   33754:	bd70      	pop	{r4, r5, r6, pc}
   33756:	4603      	mov	r3, r0
   33758:	f102 3cff 	add.w	ip, r2, #4294967295	; 0xffffffff
   3375c:	b14a      	cbz	r2, 33772 <stdlib_memcpy+0xca>
   3375e:	f10c 0c01 	add.w	ip, ip, #1
   33762:	3b01      	subs	r3, #1
   33764:	448c      	add	ip, r1
   33766:	f811 2b01 	ldrb.w	r2, [r1], #1
   3376a:	4561      	cmp	r1, ip
   3376c:	f803 2f01 	strb.w	r2, [r3, #1]!
   33770:	d1f9      	bne.n	33766 <stdlib_memcpy+0xbe>
   33772:	4770      	bx	lr
   33774:	f102 3cff 	add.w	ip, r2, #4294967295	; 0xffffffff
   33778:	4603      	mov	r3, r0
   3377a:	e7f0      	b.n	3375e <stdlib_memcpy+0xb6>
   3377c:	4662      	mov	r2, ip
   3377e:	e7dc      	b.n	3373a <stdlib_memcpy+0x92>
   33780:	4603      	mov	r3, r0
   33782:	4694      	mov	ip, r2
   33784:	e7c4      	b.n	33710 <stdlib_memcpy+0x68>
   33786:	bf00      	nop

00033788 <stdlib_init>:
   33788:	4807      	ldr	r0, [pc, #28]	; (337a8 <stdlib_init+0x20>)
   3378a:	2100      	movs	r1, #0
   3378c:	4a07      	ldr	r2, [pc, #28]	; (337ac <stdlib_init+0x24>)
   3378e:	b508      	push	{r3, lr}
   33790:	1a12      	subs	r2, r2, r0
   33792:	f7ff ff37 	bl	33604 <stdlib_memset>
   33796:	4806      	ldr	r0, [pc, #24]	; (337b0 <stdlib_init+0x28>)
   33798:	4a06      	ldr	r2, [pc, #24]	; (337b4 <stdlib_init+0x2c>)
   3379a:	4907      	ldr	r1, [pc, #28]	; (337b8 <stdlib_init+0x30>)
   3379c:	1a12      	subs	r2, r2, r0
   3379e:	e8bd 4008 	ldmia.w	sp!, {r3, lr}
   337a2:	f7ff bf81 	b.w	336a8 <stdlib_memcpy>
   337a6:	bf00      	nop
   337a8:	200069c0 	.word	0x200069c0
   337ac:	20006a14 	.word	0x20006a14
   337b0:	20006000 	.word	0x20006000
   337b4:	200069ae 	.word	0x200069ae
   337b8:	00040a40 	.word	0x00040a40

000337bc <stdlib_loguart_relocation>:
   337bc:	4b01      	ldr	r3, [pc, #4]	; (337c4 <stdlib_loguart_relocation+0x8>)
   337be:	e9c3 1000 	strd	r1, r0, [r3]
   337c2:	4770      	bx	lr
   337c4:	200069c0 	.word	0x200069c0

000337c8 <atoi>:
   337c8:	220a      	movs	r2, #10
   337ca:	2100      	movs	r1, #0
   337cc:	f000 bde2 	b.w	34394 <strtol>

000337d0 <_atoi_r>:
   337d0:	230a      	movs	r3, #10
   337d2:	2200      	movs	r2, #0
   337d4:	f000 bdd4 	b.w	34380 <_strtol_r>

000337d8 <_printf_r>:
   337d8:	b40e      	push	{r1, r2, r3}
   337da:	b503      	push	{r0, r1, lr}
   337dc:	ab03      	add	r3, sp, #12
   337de:	6881      	ldr	r1, [r0, #8]
   337e0:	f853 2b04 	ldr.w	r2, [r3], #4
   337e4:	9301      	str	r3, [sp, #4]
   337e6:	f003 f94f 	bl	36a88 <_vfprintf_r>
   337ea:	b002      	add	sp, #8
   337ec:	f85d eb04 	ldr.w	lr, [sp], #4
   337f0:	b003      	add	sp, #12
   337f2:	4770      	bx	lr

000337f4 <printf>:
   337f4:	b40f      	push	{r0, r1, r2, r3}
   337f6:	b507      	push	{r0, r1, r2, lr}
   337f8:	4906      	ldr	r1, [pc, #24]	; (33814 <printf+0x20>)
   337fa:	ab04      	add	r3, sp, #16
   337fc:	6808      	ldr	r0, [r1, #0]
   337fe:	f853 2b04 	ldr.w	r2, [r3], #4
   33802:	6881      	ldr	r1, [r0, #8]
   33804:	9301      	str	r3, [sp, #4]
   33806:	f003 f93f 	bl	36a88 <_vfprintf_r>
   3380a:	b003      	add	sp, #12
   3380c:	f85d eb04 	ldr.w	lr, [sp], #4
   33810:	b004      	add	sp, #16
   33812:	4770      	bx	lr
   33814:	20006000 	.word	0x20006000

00033818 <_putchar_r>:
   33818:	6882      	ldr	r2, [r0, #8]
   3381a:	f000 b809 	b.w	33830 <_putc_r>

0003381e <putchar>:
   3381e:	4b03      	ldr	r3, [pc, #12]	; (3382c <putchar+0xe>)
   33820:	4601      	mov	r1, r0
   33822:	6818      	ldr	r0, [r3, #0]
   33824:	6882      	ldr	r2, [r0, #8]
   33826:	f000 b803 	b.w	33830 <_putc_r>
   3382a:	bf00      	nop
   3382c:	20006000 	.word	0x20006000

00033830 <_putc_r>:
   33830:	b570      	push	{r4, r5, r6, lr}
   33832:	460d      	mov	r5, r1
   33834:	4614      	mov	r4, r2
   33836:	4606      	mov	r6, r0
   33838:	b118      	cbz	r0, 33842 <_putc_r+0x12>
   3383a:	6b83      	ldr	r3, [r0, #56]	; 0x38
   3383c:	b90b      	cbnz	r3, 33842 <_putc_r+0x12>
   3383e:	f005 fc49 	bl	390d4 <__sinit>
   33842:	6e63      	ldr	r3, [r4, #100]	; 0x64
   33844:	07d8      	lsls	r0, r3, #31
   33846:	d405      	bmi.n	33854 <_putc_r+0x24>
   33848:	89a3      	ldrh	r3, [r4, #12]
   3384a:	0599      	lsls	r1, r3, #22
   3384c:	d402      	bmi.n	33854 <_putc_r+0x24>
   3384e:	6da0      	ldr	r0, [r4, #88]	; 0x58
   33850:	f005 ffa9 	bl	397a6 <__retarget_lock_acquire_recursive>
   33854:	68a3      	ldr	r3, [r4, #8]
   33856:	3b01      	subs	r3, #1
   33858:	2b00      	cmp	r3, #0
   3385a:	60a3      	str	r3, [r4, #8]
   3385c:	da05      	bge.n	3386a <_putc_r+0x3a>
   3385e:	69a2      	ldr	r2, [r4, #24]
   33860:	4293      	cmp	r3, r2
   33862:	db12      	blt.n	3388a <_putc_r+0x5a>
   33864:	b2eb      	uxtb	r3, r5
   33866:	2b0a      	cmp	r3, #10
   33868:	d00f      	beq.n	3388a <_putc_r+0x5a>
   3386a:	6823      	ldr	r3, [r4, #0]
   3386c:	1c5a      	adds	r2, r3, #1
   3386e:	6022      	str	r2, [r4, #0]
   33870:	701d      	strb	r5, [r3, #0]
   33872:	b2ed      	uxtb	r5, r5
   33874:	6e63      	ldr	r3, [r4, #100]	; 0x64
   33876:	07da      	lsls	r2, r3, #31
   33878:	d405      	bmi.n	33886 <_putc_r+0x56>
   3387a:	89a3      	ldrh	r3, [r4, #12]
   3387c:	059b      	lsls	r3, r3, #22
   3387e:	d402      	bmi.n	33886 <_putc_r+0x56>
   33880:	6da0      	ldr	r0, [r4, #88]	; 0x58
   33882:	f005 ff96 	bl	397b2 <__retarget_lock_release_recursive>
   33886:	4628      	mov	r0, r5
   33888:	bd70      	pop	{r4, r5, r6, pc}
   3388a:	4629      	mov	r1, r5
   3388c:	4622      	mov	r2, r4
   3388e:	4630      	mov	r0, r6
   33890:	f004 fbb0 	bl	37ff4 <__swbuf_r>
   33894:	4605      	mov	r5, r0
   33896:	e7ed      	b.n	33874 <_putc_r+0x44>

00033898 <putc>:
   33898:	4b02      	ldr	r3, [pc, #8]	; (338a4 <putc+0xc>)
   3389a:	460a      	mov	r2, r1
   3389c:	4601      	mov	r1, r0
   3389e:	6818      	ldr	r0, [r3, #0]
   338a0:	f7ff bfc6 	b.w	33830 <_putc_r>
   338a4:	20006000 	.word	0x20006000

000338a8 <_puts_r>:
   338a8:	b530      	push	{r4, r5, lr}
   338aa:	4605      	mov	r5, r0
   338ac:	b089      	sub	sp, #36	; 0x24
   338ae:	4608      	mov	r0, r1
   338b0:	460c      	mov	r4, r1
   338b2:	f000 fa3d 	bl	33d30 <strlen>
   338b6:	4b1e      	ldr	r3, [pc, #120]	; (33930 <_puts_r+0x88>)
   338b8:	9306      	str	r3, [sp, #24]
   338ba:	2301      	movs	r3, #1
   338bc:	e9cd 4004 	strd	r4, r0, [sp, #16]
   338c0:	9307      	str	r3, [sp, #28]
   338c2:	4418      	add	r0, r3
   338c4:	ab04      	add	r3, sp, #16
   338c6:	68ac      	ldr	r4, [r5, #8]
   338c8:	9003      	str	r0, [sp, #12]
   338ca:	9301      	str	r3, [sp, #4]
   338cc:	2302      	movs	r3, #2
   338ce:	9302      	str	r3, [sp, #8]
   338d0:	6bab      	ldr	r3, [r5, #56]	; 0x38
   338d2:	b913      	cbnz	r3, 338da <_puts_r+0x32>
   338d4:	4628      	mov	r0, r5
   338d6:	f005 fbfd 	bl	390d4 <__sinit>
   338da:	6e63      	ldr	r3, [r4, #100]	; 0x64
   338dc:	07db      	lsls	r3, r3, #31
   338de:	d405      	bmi.n	338ec <_puts_r+0x44>
   338e0:	89a3      	ldrh	r3, [r4, #12]
   338e2:	0598      	lsls	r0, r3, #22
   338e4:	d402      	bmi.n	338ec <_puts_r+0x44>
   338e6:	6da0      	ldr	r0, [r4, #88]	; 0x58
   338e8:	f005 ff5d 	bl	397a6 <__retarget_lock_acquire_recursive>
   338ec:	f9b4 300c 	ldrsh.w	r3, [r4, #12]
   338f0:	0499      	lsls	r1, r3, #18
   338f2:	d406      	bmi.n	33902 <_puts_r+0x5a>
   338f4:	f443 5300 	orr.w	r3, r3, #8192	; 0x2000
   338f8:	81a3      	strh	r3, [r4, #12]
   338fa:	6e63      	ldr	r3, [r4, #100]	; 0x64
   338fc:	f423 5300 	bic.w	r3, r3, #8192	; 0x2000
   33900:	6663      	str	r3, [r4, #100]	; 0x64
   33902:	4628      	mov	r0, r5
   33904:	aa01      	add	r2, sp, #4
   33906:	4621      	mov	r1, r4
   33908:	f005 fd86 	bl	39418 <__sfvwrite_r>
   3390c:	6e63      	ldr	r3, [r4, #100]	; 0x64
   3390e:	2800      	cmp	r0, #0
   33910:	bf14      	ite	ne
   33912:	f04f 35ff 	movne.w	r5, #4294967295	; 0xffffffff
   33916:	250a      	moveq	r5, #10
   33918:	07da      	lsls	r2, r3, #31
   3391a:	d405      	bmi.n	33928 <_puts_r+0x80>
   3391c:	89a3      	ldrh	r3, [r4, #12]
   3391e:	059b      	lsls	r3, r3, #22
   33920:	d402      	bmi.n	33928 <_puts_r+0x80>
   33922:	6da0      	ldr	r0, [r4, #88]	; 0x58
   33924:	f005 ff45 	bl	397b2 <__retarget_lock_release_recursive>
   33928:	4628      	mov	r0, r5
   3392a:	b009      	add	sp, #36	; 0x24
   3392c:	bd30      	pop	{r4, r5, pc}
   3392e:	bf00      	nop
   33930:	0004099c 	.word	0x0004099c

00033934 <puts>:
   33934:	4b02      	ldr	r3, [pc, #8]	; (33940 <puts+0xc>)
   33936:	4601      	mov	r1, r0
   33938:	6818      	ldr	r0, [r3, #0]
   3393a:	f7ff bfb5 	b.w	338a8 <_puts_r>
   3393e:	bf00      	nop
   33940:	20006000 	.word	0x20006000

00033944 <_snprintf_r>:
   33944:	b408      	push	{r3}
   33946:	b530      	push	{r4, r5, lr}
   33948:	1e14      	subs	r4, r2, #0
   3394a:	b09c      	sub	sp, #112	; 0x70
   3394c:	4605      	mov	r5, r0
   3394e:	da08      	bge.n	33962 <_snprintf_r+0x1e>
   33950:	238b      	movs	r3, #139	; 0x8b
   33952:	6003      	str	r3, [r0, #0]
   33954:	f04f 30ff 	mov.w	r0, #4294967295	; 0xffffffff
   33958:	b01c      	add	sp, #112	; 0x70
   3395a:	e8bd 4030 	ldmia.w	sp!, {r4, r5, lr}
   3395e:	b001      	add	sp, #4
   33960:	4770      	bx	lr
   33962:	f44f 7302 	mov.w	r3, #520	; 0x208
   33966:	9102      	str	r1, [sp, #8]
   33968:	9106      	str	r1, [sp, #24]
   3396a:	a902      	add	r1, sp, #8
   3396c:	f8ad 3014 	strh.w	r3, [sp, #20]
   33970:	bf14      	ite	ne
   33972:	f104 33ff 	addne.w	r3, r4, #4294967295	; 0xffffffff
   33976:	4623      	moveq	r3, r4
   33978:	9a1f      	ldr	r2, [sp, #124]	; 0x7c
   3397a:	9304      	str	r3, [sp, #16]
   3397c:	9307      	str	r3, [sp, #28]
   3397e:	f64f 73ff 	movw	r3, #65535	; 0xffff
   33982:	f8ad 3016 	strh.w	r3, [sp, #22]
   33986:	ab20      	add	r3, sp, #128	; 0x80
   33988:	9301      	str	r3, [sp, #4]
   3398a:	f000 fd0d 	bl	343a8 <_svfprintf_r>
   3398e:	1c43      	adds	r3, r0, #1
   33990:	bfbc      	itt	lt
   33992:	238b      	movlt	r3, #139	; 0x8b
   33994:	602b      	strlt	r3, [r5, #0]
   33996:	2c00      	cmp	r4, #0
   33998:	d0de      	beq.n	33958 <_snprintf_r+0x14>
   3399a:	9b02      	ldr	r3, [sp, #8]
   3399c:	2200      	movs	r2, #0
   3399e:	701a      	strb	r2, [r3, #0]
   339a0:	e7da      	b.n	33958 <_snprintf_r+0x14>

000339a2 <snprintf>:
   339a2:	b40c      	push	{r2, r3}
   339a4:	4b17      	ldr	r3, [pc, #92]	; (33a04 <snprintf+0x62>)
   339a6:	b530      	push	{r4, r5, lr}
   339a8:	1e0c      	subs	r4, r1, #0
   339aa:	b09d      	sub	sp, #116	; 0x74
   339ac:	681d      	ldr	r5, [r3, #0]
   339ae:	da08      	bge.n	339c2 <snprintf+0x20>
   339b0:	238b      	movs	r3, #139	; 0x8b
   339b2:	f04f 30ff 	mov.w	r0, #4294967295	; 0xffffffff
   339b6:	602b      	str	r3, [r5, #0]
   339b8:	b01d      	add	sp, #116	; 0x74
   339ba:	e8bd 4030 	ldmia.w	sp!, {r4, r5, lr}
   339be:	b002      	add	sp, #8
   339c0:	4770      	bx	lr
   339c2:	f44f 7302 	mov.w	r3, #520	; 0x208
   339c6:	9002      	str	r0, [sp, #8]
   339c8:	9006      	str	r0, [sp, #24]
   339ca:	a902      	add	r1, sp, #8
   339cc:	f8ad 3014 	strh.w	r3, [sp, #20]
   339d0:	bf14      	ite	ne
   339d2:	f104 33ff 	addne.w	r3, r4, #4294967295	; 0xffffffff
   339d6:	4623      	moveq	r3, r4
   339d8:	9a20      	ldr	r2, [sp, #128]	; 0x80
   339da:	4628      	mov	r0, r5
   339dc:	9304      	str	r3, [sp, #16]
   339de:	9307      	str	r3, [sp, #28]
   339e0:	f64f 73ff 	movw	r3, #65535	; 0xffff
   339e4:	f8ad 3016 	strh.w	r3, [sp, #22]
   339e8:	ab21      	add	r3, sp, #132	; 0x84
   339ea:	9301      	str	r3, [sp, #4]
   339ec:	f000 fcdc 	bl	343a8 <_svfprintf_r>
   339f0:	1c43      	adds	r3, r0, #1
   339f2:	bfbc      	itt	lt
   339f4:	238b      	movlt	r3, #139	; 0x8b
   339f6:	602b      	strlt	r3, [r5, #0]
   339f8:	2c00      	cmp	r4, #0
   339fa:	d0dd      	beq.n	339b8 <snprintf+0x16>
   339fc:	9b02      	ldr	r3, [sp, #8]
   339fe:	2200      	movs	r2, #0
   33a00:	701a      	strb	r2, [r3, #0]
   33a02:	e7d9      	b.n	339b8 <snprintf+0x16>
   33a04:	20006000 	.word	0x20006000

00033a08 <_sprintf_r>:
   33a08:	b40c      	push	{r2, r3}
   33a0a:	b500      	push	{lr}
   33a0c:	b09d      	sub	sp, #116	; 0x74
   33a0e:	9102      	str	r1, [sp, #8]
   33a10:	ab1e      	add	r3, sp, #120	; 0x78
   33a12:	9106      	str	r1, [sp, #24]
   33a14:	f06f 4100 	mvn.w	r1, #2147483648	; 0x80000000
   33a18:	f853 2b04 	ldr.w	r2, [r3], #4
   33a1c:	9107      	str	r1, [sp, #28]
   33a1e:	9104      	str	r1, [sp, #16]
   33a20:	4906      	ldr	r1, [pc, #24]	; (33a3c <_sprintf_r+0x34>)
   33a22:	9301      	str	r3, [sp, #4]
   33a24:	9105      	str	r1, [sp, #20]
   33a26:	a902      	add	r1, sp, #8
   33a28:	f000 fcbe 	bl	343a8 <_svfprintf_r>
   33a2c:	9b02      	ldr	r3, [sp, #8]
   33a2e:	2200      	movs	r2, #0
   33a30:	701a      	strb	r2, [r3, #0]
   33a32:	b01d      	add	sp, #116	; 0x74
   33a34:	f85d eb04 	ldr.w	lr, [sp], #4
   33a38:	b002      	add	sp, #8
   33a3a:	4770      	bx	lr
   33a3c:	ffff0208 	.word	0xffff0208

00033a40 <sprintf>:
   33a40:	b40e      	push	{r1, r2, r3}
   33a42:	b500      	push	{lr}
   33a44:	b09c      	sub	sp, #112	; 0x70
   33a46:	f06f 4100 	mvn.w	r1, #2147483648	; 0x80000000
   33a4a:	ab1d      	add	r3, sp, #116	; 0x74
   33a4c:	9002      	str	r0, [sp, #8]
   33a4e:	9006      	str	r0, [sp, #24]
   33a50:	9107      	str	r1, [sp, #28]
   33a52:	9104      	str	r1, [sp, #16]
   33a54:	4808      	ldr	r0, [pc, #32]	; (33a78 <sprintf+0x38>)
   33a56:	4909      	ldr	r1, [pc, #36]	; (33a7c <sprintf+0x3c>)
   33a58:	f853 2b04 	ldr.w	r2, [r3], #4
   33a5c:	9105      	str	r1, [sp, #20]
   33a5e:	a902      	add	r1, sp, #8
   33a60:	6800      	ldr	r0, [r0, #0]
   33a62:	9301      	str	r3, [sp, #4]
   33a64:	f000 fca0 	bl	343a8 <_svfprintf_r>
   33a68:	9b02      	ldr	r3, [sp, #8]
   33a6a:	2200      	movs	r2, #0
   33a6c:	701a      	strb	r2, [r3, #0]
   33a6e:	b01c      	add	sp, #112	; 0x70
   33a70:	f85d eb04 	ldr.w	lr, [sp], #4
   33a74:	b003      	add	sp, #12
   33a76:	4770      	bx	lr
   33a78:	20006000 	.word	0x20006000
   33a7c:	ffff0208 	.word	0xffff0208

00033a80 <sscanf>:
   33a80:	b40e      	push	{r1, r2, r3}
   33a82:	b510      	push	{r4, lr}
   33a84:	b09f      	sub	sp, #124	; 0x7c
   33a86:	f44f 7101 	mov.w	r1, #516	; 0x204
   33a8a:	ac21      	add	r4, sp, #132	; 0x84
   33a8c:	f8ad 101c 	strh.w	r1, [sp, #28]
   33a90:	9004      	str	r0, [sp, #16]
   33a92:	f854 2b04 	ldr.w	r2, [r4], #4
   33a96:	9008      	str	r0, [sp, #32]
   33a98:	9201      	str	r2, [sp, #4]
   33a9a:	f000 f949 	bl	33d30 <strlen>
   33a9e:	4b0c      	ldr	r3, [pc, #48]	; (33ad0 <sscanf+0x50>)
   33aa0:	a904      	add	r1, sp, #16
   33aa2:	9005      	str	r0, [sp, #20]
   33aa4:	930c      	str	r3, [sp, #48]	; 0x30
   33aa6:	2300      	movs	r3, #0
   33aa8:	9009      	str	r0, [sp, #36]	; 0x24
   33aaa:	9310      	str	r3, [sp, #64]	; 0x40
   33aac:	9315      	str	r3, [sp, #84]	; 0x54
   33aae:	f64f 73ff 	movw	r3, #65535	; 0xffff
   33ab2:	4808      	ldr	r0, [pc, #32]	; (33ad4 <sscanf+0x54>)
   33ab4:	f8ad 301e 	strh.w	r3, [sp, #30]
   33ab8:	4623      	mov	r3, r4
   33aba:	9a01      	ldr	r2, [sp, #4]
   33abc:	6800      	ldr	r0, [r0, #0]
   33abe:	9403      	str	r4, [sp, #12]
   33ac0:	f001 fe50 	bl	35764 <__ssvfscanf_r>
   33ac4:	b01f      	add	sp, #124	; 0x7c
   33ac6:	e8bd 4010 	ldmia.w	sp!, {r4, lr}
   33aca:	b003      	add	sp, #12
   33acc:	4770      	bx	lr
   33ace:	bf00      	nop
   33ad0:	00033b4f 	.word	0x00033b4f
   33ad4:	20006000 	.word	0x20006000

00033ad8 <_sscanf_r>:
   33ad8:	b40c      	push	{r2, r3}
   33ada:	b530      	push	{r4, r5, lr}
   33adc:	b09f      	sub	sp, #124	; 0x7c
   33ade:	f44f 7301 	mov.w	r3, #516	; 0x204
   33ae2:	4605      	mov	r5, r0
   33ae4:	4608      	mov	r0, r1
   33ae6:	ac22      	add	r4, sp, #136	; 0x88
   33ae8:	f8ad 301c 	strh.w	r3, [sp, #28]
   33aec:	9104      	str	r1, [sp, #16]
   33aee:	f854 2b04 	ldr.w	r2, [r4], #4
   33af2:	9108      	str	r1, [sp, #32]
   33af4:	9201      	str	r2, [sp, #4]
   33af6:	f000 f91b 	bl	33d30 <strlen>
   33afa:	4b0b      	ldr	r3, [pc, #44]	; (33b28 <_sscanf_r+0x50>)
   33afc:	a904      	add	r1, sp, #16
   33afe:	9a01      	ldr	r2, [sp, #4]
   33b00:	930c      	str	r3, [sp, #48]	; 0x30
   33b02:	2300      	movs	r3, #0
   33b04:	9005      	str	r0, [sp, #20]
   33b06:	9310      	str	r3, [sp, #64]	; 0x40
   33b08:	9315      	str	r3, [sp, #84]	; 0x54
   33b0a:	f64f 73ff 	movw	r3, #65535	; 0xffff
   33b0e:	9009      	str	r0, [sp, #36]	; 0x24
   33b10:	4628      	mov	r0, r5
   33b12:	f8ad 301e 	strh.w	r3, [sp, #30]
   33b16:	4623      	mov	r3, r4
   33b18:	9403      	str	r4, [sp, #12]
   33b1a:	f001 fe23 	bl	35764 <__ssvfscanf_r>
   33b1e:	b01f      	add	sp, #124	; 0x7c
   33b20:	e8bd 4030 	ldmia.w	sp!, {r4, r5, lr}
   33b24:	b002      	add	sp, #8
   33b26:	4770      	bx	lr
   33b28:	00033b4f 	.word	0x00033b4f

00033b2c <__sread>:
   33b2c:	b510      	push	{r4, lr}
   33b2e:	460c      	mov	r4, r1
   33b30:	f9b1 100e 	ldrsh.w	r1, [r1, #14]
   33b34:	f006 ff32 	bl	3a99c <_read_r>
   33b38:	2800      	cmp	r0, #0
   33b3a:	bfab      	itete	ge
   33b3c:	6d23      	ldrge	r3, [r4, #80]	; 0x50
   33b3e:	89a3      	ldrhlt	r3, [r4, #12]
   33b40:	181b      	addge	r3, r3, r0
   33b42:	f423 5380 	biclt.w	r3, r3, #4096	; 0x1000
   33b46:	bfac      	ite	ge
   33b48:	6523      	strge	r3, [r4, #80]	; 0x50
   33b4a:	81a3      	strhlt	r3, [r4, #12]
   33b4c:	bd10      	pop	{r4, pc}

00033b4e <__seofread>:
   33b4e:	2000      	movs	r0, #0
   33b50:	4770      	bx	lr

00033b52 <__swrite>:
   33b52:	e92d 41f0 	stmdb	sp!, {r4, r5, r6, r7, r8, lr}
   33b56:	461f      	mov	r7, r3
   33b58:	898b      	ldrh	r3, [r1, #12]
   33b5a:	4605      	mov	r5, r0
   33b5c:	460c      	mov	r4, r1
   33b5e:	05db      	lsls	r3, r3, #23
   33b60:	4616      	mov	r6, r2
   33b62:	d505      	bpl.n	33b70 <__swrite+0x1e>
   33b64:	2302      	movs	r3, #2
   33b66:	2200      	movs	r2, #0
   33b68:	f9b1 100e 	ldrsh.w	r1, [r1, #14]
   33b6c:	f005 fe22 	bl	397b4 <_lseek_r>
   33b70:	89a3      	ldrh	r3, [r4, #12]
   33b72:	4632      	mov	r2, r6
   33b74:	f9b4 100e 	ldrsh.w	r1, [r4, #14]
   33b78:	4628      	mov	r0, r5
   33b7a:	f423 5380 	bic.w	r3, r3, #4096	; 0x1000
   33b7e:	81a3      	strh	r3, [r4, #12]
   33b80:	463b      	mov	r3, r7
   33b82:	e8bd 41f0 	ldmia.w	sp!, {r4, r5, r6, r7, r8, lr}
   33b86:	f004 ba87 	b.w	38098 <_write_r>

00033b8a <__sseek>:
   33b8a:	b510      	push	{r4, lr}
   33b8c:	460c      	mov	r4, r1
   33b8e:	f9b1 100e 	ldrsh.w	r1, [r1, #14]
   33b92:	f005 fe0f 	bl	397b4 <_lseek_r>
   33b96:	1c43      	adds	r3, r0, #1
   33b98:	89a3      	ldrh	r3, [r4, #12]
   33b9a:	bf15      	itete	ne
   33b9c:	6520      	strne	r0, [r4, #80]	; 0x50
   33b9e:	f423 5380 	biceq.w	r3, r3, #4096	; 0x1000
   33ba2:	f443 5380 	orrne.w	r3, r3, #4096	; 0x1000
   33ba6:	81a3      	strheq	r3, [r4, #12]
   33ba8:	bf18      	it	ne
   33baa:	81a3      	strhne	r3, [r4, #12]
   33bac:	bd10      	pop	{r4, pc}

00033bae <__sclose>:
   33bae:	f9b1 100e 	ldrsh.w	r1, [r1, #14]
   33bb2:	f004 badb 	b.w	3816c <_close_r>

00033bb6 <strcat>:
   33bb6:	b538      	push	{r3, r4, r5, lr}
   33bb8:	0783      	lsls	r3, r0, #30
   33bba:	4604      	mov	r4, r0
   33bbc:	d009      	beq.n	33bd2 <strcat+0x1c>
   33bbe:	4603      	mov	r3, r0
   33bc0:	4618      	mov	r0, r3
   33bc2:	3301      	adds	r3, #1
   33bc4:	7802      	ldrb	r2, [r0, #0]
   33bc6:	2a00      	cmp	r2, #0
   33bc8:	d1fa      	bne.n	33bc0 <strcat+0xa>
   33bca:	f000 f853 	bl	33c74 <strcpy>
   33bce:	4620      	mov	r0, r4
   33bd0:	bd38      	pop	{r3, r4, r5, pc}
   33bd2:	4603      	mov	r3, r0
   33bd4:	f850 5b04 	ldr.w	r5, [r0], #4
   33bd8:	f1a5 3201 	sub.w	r2, r5, #16843009	; 0x1010101
   33bdc:	ea22 0205 	bic.w	r2, r2, r5
   33be0:	f012 3f80 	tst.w	r2, #2155905152	; 0x80808080
   33be4:	d0f5      	beq.n	33bd2 <strcat+0x1c>
   33be6:	e7eb      	b.n	33bc0 <strcat+0xa>

00033be8 <strchr>:
   33be8:	f011 01ff 	ands.w	r1, r1, #255	; 0xff
   33bec:	4603      	mov	r3, r0
   33bee:	b5f0      	push	{r4, r5, r6, r7, lr}
   33bf0:	d11c      	bne.n	33c2c <strchr+0x44>
   33bf2:	0799      	lsls	r1, r3, #30
   33bf4:	4618      	mov	r0, r3
   33bf6:	d10f      	bne.n	33c18 <strchr+0x30>
   33bf8:	6818      	ldr	r0, [r3, #0]
   33bfa:	461a      	mov	r2, r3
   33bfc:	3304      	adds	r3, #4
   33bfe:	f1a0 3101 	sub.w	r1, r0, #16843009	; 0x1010101
   33c02:	ea21 0100 	bic.w	r1, r1, r0
   33c06:	f011 3f80 	tst.w	r1, #2155905152	; 0x80808080
   33c0a:	d0f5      	beq.n	33bf8 <strchr+0x10>
   33c0c:	4610      	mov	r0, r2
   33c0e:	3201      	adds	r2, #1
   33c10:	7803      	ldrb	r3, [r0, #0]
   33c12:	2b00      	cmp	r3, #0
   33c14:	d1fa      	bne.n	33c0c <strchr+0x24>
   33c16:	e003      	b.n	33c20 <strchr+0x38>
   33c18:	7802      	ldrb	r2, [r0, #0]
   33c1a:	3301      	adds	r3, #1
   33c1c:	2a00      	cmp	r2, #0
   33c1e:	d1e8      	bne.n	33bf2 <strchr+0xa>
   33c20:	bdf0      	pop	{r4, r5, r6, r7, pc}
   33c22:	f813 2b01 	ldrb.w	r2, [r3], #1
   33c26:	b302      	cbz	r2, 33c6a <strchr+0x82>
   33c28:	428a      	cmp	r2, r1
   33c2a:	d0f9      	beq.n	33c20 <strchr+0x38>
   33c2c:	079a      	lsls	r2, r3, #30
   33c2e:	4618      	mov	r0, r3
   33c30:	d1f7      	bne.n	33c22 <strchr+0x3a>
   33c32:	ea41 2201 	orr.w	r2, r1, r1, lsl #8
   33c36:	ea42 4002 	orr.w	r0, r2, r2, lsl #16
   33c3a:	681e      	ldr	r6, [r3, #0]
   33c3c:	461c      	mov	r4, r3
   33c3e:	3304      	adds	r3, #4
   33c40:	ea86 0700 	eor.w	r7, r6, r0
   33c44:	f1a6 3201 	sub.w	r2, r6, #16843009	; 0x1010101
   33c48:	f1a7 3501 	sub.w	r5, r7, #16843009	; 0x1010101
   33c4c:	ea22 0206 	bic.w	r2, r2, r6
   33c50:	ea25 0507 	bic.w	r5, r5, r7
   33c54:	432a      	orrs	r2, r5
   33c56:	f012 3f80 	tst.w	r2, #2155905152	; 0x80808080
   33c5a:	d0ee      	beq.n	33c3a <strchr+0x52>
   33c5c:	4620      	mov	r0, r4
   33c5e:	f814 3b01 	ldrb.w	r3, [r4], #1
   33c62:	b123      	cbz	r3, 33c6e <strchr+0x86>
   33c64:	428b      	cmp	r3, r1
   33c66:	d1f9      	bne.n	33c5c <strchr+0x74>
   33c68:	e7da      	b.n	33c20 <strchr+0x38>
   33c6a:	4610      	mov	r0, r2
   33c6c:	e7d8      	b.n	33c20 <strchr+0x38>
   33c6e:	4618      	mov	r0, r3
   33c70:	e7d6      	b.n	33c20 <strchr+0x38>
	...

00033c74 <strcpy>:
   33c74:	ea80 0201 	eor.w	r2, r0, r1
   33c78:	4684      	mov	ip, r0
   33c7a:	f012 0f03 	tst.w	r2, #3
   33c7e:	d14f      	bne.n	33d20 <strcpy+0xac>
   33c80:	f011 0f03 	tst.w	r1, #3
   33c84:	d132      	bne.n	33cec <strcpy+0x78>
   33c86:	f84d 4d04 	str.w	r4, [sp, #-4]!
   33c8a:	f011 0f04 	tst.w	r1, #4
   33c8e:	f851 3b04 	ldr.w	r3, [r1], #4
   33c92:	d00b      	beq.n	33cac <strcpy+0x38>
   33c94:	f1a3 3201 	sub.w	r2, r3, #16843009	; 0x1010101
   33c98:	439a      	bics	r2, r3
   33c9a:	f012 3f80 	tst.w	r2, #2155905152	; 0x80808080
   33c9e:	bf04      	itt	eq
   33ca0:	f84c 3b04 	streq.w	r3, [ip], #4
   33ca4:	f851 3b04 	ldreq.w	r3, [r1], #4
   33ca8:	d116      	bne.n	33cd8 <strcpy+0x64>
   33caa:	bf00      	nop
   33cac:	f851 4b04 	ldr.w	r4, [r1], #4
   33cb0:	f1a3 3201 	sub.w	r2, r3, #16843009	; 0x1010101
   33cb4:	439a      	bics	r2, r3
   33cb6:	f012 3f80 	tst.w	r2, #2155905152	; 0x80808080
   33cba:	f1a4 3201 	sub.w	r2, r4, #16843009	; 0x1010101
   33cbe:	d10b      	bne.n	33cd8 <strcpy+0x64>
   33cc0:	f84c 3b04 	str.w	r3, [ip], #4
   33cc4:	43a2      	bics	r2, r4
   33cc6:	f012 3f80 	tst.w	r2, #2155905152	; 0x80808080
   33cca:	bf04      	itt	eq
   33ccc:	f851 3b04 	ldreq.w	r3, [r1], #4
   33cd0:	f84c 4b04 	streq.w	r4, [ip], #4
   33cd4:	d0ea      	beq.n	33cac <strcpy+0x38>
   33cd6:	4623      	mov	r3, r4
   33cd8:	f80c 3b01 	strb.w	r3, [ip], #1
   33cdc:	f013 0fff 	tst.w	r3, #255	; 0xff
   33ce0:	ea4f 2333 	mov.w	r3, r3, ror #8
   33ce4:	d1f8      	bne.n	33cd8 <strcpy+0x64>
   33ce6:	f85d 4b04 	ldr.w	r4, [sp], #4
   33cea:	4770      	bx	lr
   33cec:	f011 0f01 	tst.w	r1, #1
   33cf0:	d006      	beq.n	33d00 <strcpy+0x8c>
   33cf2:	f811 2b01 	ldrb.w	r2, [r1], #1
   33cf6:	f80c 2b01 	strb.w	r2, [ip], #1
   33cfa:	2a00      	cmp	r2, #0
   33cfc:	bf08      	it	eq
   33cfe:	4770      	bxeq	lr
   33d00:	f011 0f02 	tst.w	r1, #2
   33d04:	d0bf      	beq.n	33c86 <strcpy+0x12>
   33d06:	f831 2b02 	ldrh.w	r2, [r1], #2
   33d0a:	f012 0fff 	tst.w	r2, #255	; 0xff
   33d0e:	bf16      	itet	ne
   33d10:	f82c 2b02 	strhne.w	r2, [ip], #2
   33d14:	f88c 2000 	strbeq.w	r2, [ip]
   33d18:	f412 4f7f 	tstne.w	r2, #65280	; 0xff00
   33d1c:	d1b3      	bne.n	33c86 <strcpy+0x12>
   33d1e:	4770      	bx	lr
   33d20:	f811 2b01 	ldrb.w	r2, [r1], #1
   33d24:	f80c 2b01 	strb.w	r2, [ip], #1
   33d28:	2a00      	cmp	r2, #0
   33d2a:	d1f9      	bne.n	33d20 <strcpy+0xac>
   33d2c:	4770      	bx	lr
   33d2e:	bf00      	nop

00033d30 <strlen>:
   33d30:	f020 0103 	bic.w	r1, r0, #3
   33d34:	f010 0003 	ands.w	r0, r0, #3
   33d38:	f1c0 0000 	rsb	r0, r0, #0
   33d3c:	f851 3b04 	ldr.w	r3, [r1], #4
   33d40:	f100 0c04 	add.w	ip, r0, #4
   33d44:	ea4f 0ccc 	mov.w	ip, ip, lsl #3
   33d48:	f06f 0200 	mvn.w	r2, #0
   33d4c:	bf1c      	itt	ne
   33d4e:	fa22 f20c 	lsrne.w	r2, r2, ip
   33d52:	4313      	orrne	r3, r2
   33d54:	f04f 0c01 	mov.w	ip, #1
   33d58:	ea4c 2c0c 	orr.w	ip, ip, ip, lsl #8
   33d5c:	ea4c 4c0c 	orr.w	ip, ip, ip, lsl #16
   33d60:	eba3 020c 	sub.w	r2, r3, ip
   33d64:	ea22 0203 	bic.w	r2, r2, r3
   33d68:	ea12 12cc 	ands.w	r2, r2, ip, lsl #7
   33d6c:	bf04      	itt	eq
   33d6e:	f851 3b04 	ldreq.w	r3, [r1], #4
   33d72:	3004      	addeq	r0, #4
   33d74:	d0f4      	beq.n	33d60 <strlen+0x30>
   33d76:	f1c2 0100 	rsb	r1, r2, #0
   33d7a:	ea02 0201 	and.w	r2, r2, r1
   33d7e:	fab2 f282 	clz	r2, r2
   33d82:	f1c2 021f 	rsb	r2, r2, #31
   33d86:	eb00 00d2 	add.w	r0, r0, r2, lsr #3
   33d8a:	4770      	bx	lr

00033d8c <strncat>:
   33d8c:	0783      	lsls	r3, r0, #30
   33d8e:	b570      	push	{r4, r5, r6, lr}
   33d90:	4605      	mov	r5, r0
   33d92:	d00d      	beq.n	33db0 <strncat+0x24>
   33d94:	4603      	mov	r3, r0
   33d96:	781d      	ldrb	r5, [r3, #0]
   33d98:	461c      	mov	r4, r3
   33d9a:	3301      	adds	r3, #1
   33d9c:	2d00      	cmp	r5, #0
   33d9e:	d1fa      	bne.n	33d96 <strncat+0xa>
   33da0:	3a01      	subs	r2, #1
   33da2:	d304      	bcc.n	33dae <strncat+0x22>
   33da4:	f811 3b01 	ldrb.w	r3, [r1], #1
   33da8:	f804 3b01 	strb.w	r3, [r4], #1
   33dac:	b95b      	cbnz	r3, 33dc6 <strncat+0x3a>
   33dae:	bd70      	pop	{r4, r5, r6, pc}
   33db0:	462b      	mov	r3, r5
   33db2:	f855 6b04 	ldr.w	r6, [r5], #4
   33db6:	f1a6 3401 	sub.w	r4, r6, #16843009	; 0x1010101
   33dba:	ea24 0406 	bic.w	r4, r4, r6
   33dbe:	f014 3f80 	tst.w	r4, #2155905152	; 0x80808080
   33dc2:	d0f5      	beq.n	33db0 <strncat+0x24>
   33dc4:	e7e7      	b.n	33d96 <strncat+0xa>
   33dc6:	2a00      	cmp	r2, #0
   33dc8:	d1ea      	bne.n	33da0 <strncat+0x14>
   33dca:	7022      	strb	r2, [r4, #0]
   33dcc:	e7e8      	b.n	33da0 <strncat+0x14>

00033dce <strncmp>:
   33dce:	b570      	push	{r4, r5, r6, lr}
   33dd0:	b33a      	cbz	r2, 33e22 <strncmp+0x54>
   33dd2:	ea40 0301 	orr.w	r3, r0, r1
   33dd6:	4605      	mov	r5, r0
   33dd8:	460c      	mov	r4, r1
   33dda:	079b      	lsls	r3, r3, #30
   33ddc:	d012      	beq.n	33e04 <strncmp+0x36>
   33dde:	3901      	subs	r1, #1
   33de0:	1884      	adds	r4, r0, r2
   33de2:	f810 2b01 	ldrb.w	r2, [r0], #1
   33de6:	f811 3f01 	ldrb.w	r3, [r1, #1]!
   33dea:	429a      	cmp	r2, r3
   33dec:	d015      	beq.n	33e1a <strncmp+0x4c>
   33dee:	1ad2      	subs	r2, r2, r3
   33df0:	e017      	b.n	33e22 <strncmp+0x54>
   33df2:	3a04      	subs	r2, #4
   33df4:	d015      	beq.n	33e22 <strncmp+0x54>
   33df6:	f1a3 3101 	sub.w	r1, r3, #16843009	; 0x1010101
   33dfa:	ea21 0303 	bic.w	r3, r1, r3
   33dfe:	f013 3f80 	tst.w	r3, #2155905152	; 0x80808080
   33e02:	d110      	bne.n	33e26 <strncmp+0x58>
   33e04:	2a03      	cmp	r2, #3
   33e06:	4621      	mov	r1, r4
   33e08:	4628      	mov	r0, r5
   33e0a:	d9e8      	bls.n	33dde <strncmp+0x10>
   33e0c:	f855 3b04 	ldr.w	r3, [r5], #4
   33e10:	3404      	adds	r4, #4
   33e12:	680e      	ldr	r6, [r1, #0]
   33e14:	42b3      	cmp	r3, r6
   33e16:	d0ec      	beq.n	33df2 <strncmp+0x24>
   33e18:	e7e1      	b.n	33dde <strncmp+0x10>
   33e1a:	42a0      	cmp	r0, r4
   33e1c:	d003      	beq.n	33e26 <strncmp+0x58>
   33e1e:	2a00      	cmp	r2, #0
   33e20:	d1df      	bne.n	33de2 <strncmp+0x14>
   33e22:	4610      	mov	r0, r2
   33e24:	bd70      	pop	{r4, r5, r6, pc}
   33e26:	2200      	movs	r2, #0
   33e28:	e7fb      	b.n	33e22 <strncmp+0x54>

00033e2a <strncpy>:
   33e2a:	ea40 0301 	orr.w	r3, r0, r1
   33e2e:	f013 0f03 	tst.w	r3, #3
   33e32:	4603      	mov	r3, r0
   33e34:	b570      	push	{r4, r5, r6, lr}
   33e36:	460c      	mov	r4, r1
   33e38:	d101      	bne.n	33e3e <strncpy+0x14>
   33e3a:	2a03      	cmp	r2, #3
   33e3c:	d80d      	bhi.n	33e5a <strncpy+0x30>
   33e3e:	3901      	subs	r1, #1
   33e40:	b132      	cbz	r2, 33e50 <strncpy+0x26>
   33e42:	f811 4f01 	ldrb.w	r4, [r1, #1]!
   33e46:	3a01      	subs	r2, #1
   33e48:	f803 4b01 	strb.w	r4, [r3], #1
   33e4c:	2c00      	cmp	r4, #0
   33e4e:	d1f7      	bne.n	33e40 <strncpy+0x16>
   33e50:	441a      	add	r2, r3
   33e52:	2100      	movs	r1, #0
   33e54:	429a      	cmp	r2, r3
   33e56:	d10f      	bne.n	33e78 <strncpy+0x4e>
   33e58:	bd70      	pop	{r4, r5, r6, pc}
   33e5a:	4621      	mov	r1, r4
   33e5c:	f854 6b04 	ldr.w	r6, [r4], #4
   33e60:	f1a6 3501 	sub.w	r5, r6, #16843009	; 0x1010101
   33e64:	ea25 0506 	bic.w	r5, r5, r6
   33e68:	f015 3f80 	tst.w	r5, #2155905152	; 0x80808080
   33e6c:	d1e7      	bne.n	33e3e <strncpy+0x14>
   33e6e:	3a04      	subs	r2, #4
   33e70:	4621      	mov	r1, r4
   33e72:	f843 6b04 	str.w	r6, [r3], #4
   33e76:	e7e0      	b.n	33e3a <strncpy+0x10>
   33e78:	f803 1b01 	strb.w	r1, [r3], #1
   33e7c:	e7ea      	b.n	33e54 <strncpy+0x2a>

00033e7e <strpbrk>:
   33e7e:	b570      	push	{r4, r5, r6, lr}
   33e80:	7803      	ldrb	r3, [r0, #0]
   33e82:	b1a3      	cbz	r3, 33eae <strpbrk+0x30>
   33e84:	4603      	mov	r3, r0
   33e86:	460c      	mov	r4, r1
   33e88:	4618      	mov	r0, r3
   33e8a:	f813 5b01 	ldrb.w	r5, [r3], #1
   33e8e:	b14d      	cbz	r5, 33ea4 <strpbrk+0x26>
   33e90:	460a      	mov	r2, r1
   33e92:	e001      	b.n	33e98 <strpbrk+0x1a>
   33e94:	42ae      	cmp	r6, r5
   33e96:	d009      	beq.n	33eac <strpbrk+0x2e>
   33e98:	4614      	mov	r4, r2
   33e9a:	f812 6b01 	ldrb.w	r6, [r2], #1
   33e9e:	2e00      	cmp	r6, #0
   33ea0:	d1f8      	bne.n	33e94 <strpbrk+0x16>
   33ea2:	e7f1      	b.n	33e88 <strpbrk+0xa>
   33ea4:	7823      	ldrb	r3, [r4, #0]
   33ea6:	2b00      	cmp	r3, #0
   33ea8:	bf08      	it	eq
   33eaa:	2000      	moveq	r0, #0
   33eac:	bd70      	pop	{r4, r5, r6, pc}
   33eae:	4618      	mov	r0, r3
   33eb0:	e7fc      	b.n	33eac <strpbrk+0x2e>

00033eb2 <strsep>:
   33eb2:	4602      	mov	r2, r0
   33eb4:	2300      	movs	r3, #0
   33eb6:	6800      	ldr	r0, [r0, #0]
   33eb8:	f000 b9b4 	b.w	34224 <__strtok_r>

00033ebc <two_way_long_needle>:
   33ebc:	e92d 4ff0 	stmdb	sp!, {r4, r5, r6, r7, r8, r9, sl, fp, lr}
   33ec0:	f04f 0801 	mov.w	r8, #1
   33ec4:	4689      	mov	r9, r1
   33ec6:	461f      	mov	r7, r3
   33ec8:	f2ad 4d14 	subw	sp, sp, #1044	; 0x414
   33ecc:	4682      	mov	sl, r0
   33ece:	4616      	mov	r6, r2
   33ed0:	4643      	mov	r3, r8
   33ed2:	2100      	movs	r1, #0
   33ed4:	f04f 35ff 	mov.w	r5, #4294967295	; 0xffffffff
   33ed8:	185a      	adds	r2, r3, r1
   33eda:	4297      	cmp	r7, r2
   33edc:	d83b      	bhi.n	33f56 <two_way_long_needle+0x9a>
   33ede:	2101      	movs	r1, #1
   33ee0:	2400      	movs	r4, #0
   33ee2:	f04f 32ff 	mov.w	r2, #4294967295	; 0xffffffff
   33ee6:	460b      	mov	r3, r1
   33ee8:	1918      	adds	r0, r3, r4
   33eea:	4287      	cmp	r7, r0
   33eec:	d849      	bhi.n	33f82 <two_way_long_needle+0xc6>
   33eee:	3201      	adds	r2, #1
   33ef0:	3501      	adds	r5, #1
   33ef2:	2300      	movs	r3, #0
   33ef4:	42aa      	cmp	r2, r5
   33ef6:	bf24      	itt	cs
   33ef8:	4615      	movcs	r5, r2
   33efa:	4688      	movcs	r8, r1
   33efc:	aa04      	add	r2, sp, #16
   33efe:	3301      	adds	r3, #1
   33f00:	f842 7b04 	str.w	r7, [r2], #4
   33f04:	f5b3 7f80 	cmp.w	r3, #256	; 0x100
   33f08:	d1f9      	bne.n	33efe <two_way_long_needle+0x42>
   33f0a:	1e7b      	subs	r3, r7, #1
   33f0c:	4632      	mov	r2, r6
   33f0e:	9301      	str	r3, [sp, #4]
   33f10:	1c59      	adds	r1, r3, #1
   33f12:	d14d      	bne.n	33fb0 <two_way_long_needle+0xf4>
   33f14:	462a      	mov	r2, r5
   33f16:	eb06 0108 	add.w	r1, r6, r8
   33f1a:	4630      	mov	r0, r6
   33f1c:	f005 ff75 	bl	39e0a <memcmp>
   33f20:	2800      	cmp	r0, #0
   33f22:	d070      	beq.n	34006 <two_way_long_needle+0x14a>
   33f24:	eba7 0b05 	sub.w	fp, r7, r5
   33f28:	f04f 0800 	mov.w	r8, #0
   33f2c:	f1c5 0201 	rsb	r2, r5, #1
   33f30:	f447 6100 	orr.w	r1, r7, #2048	; 0x800
   33f34:	45ab      	cmp	fp, r5
   33f36:	bf38      	it	cc
   33f38:	46ab      	movcc	fp, r5
   33f3a:	f10b 0b01 	add.w	fp, fp, #1
   33f3e:	eb0a 0408 	add.w	r4, sl, r8
   33f42:	9b01      	ldr	r3, [sp, #4]
   33f44:	a804      	add	r0, sp, #16
   33f46:	5ce3      	ldrb	r3, [r4, r3]
   33f48:	f850 3023 	ldr.w	r3, [r0, r3, lsl #2]
   33f4c:	2b00      	cmp	r3, #0
   33f4e:	f000 8097 	beq.w	34080 <two_way_long_needle+0x1c4>
   33f52:	4498      	add	r8, r3
   33f54:	e0ab      	b.n	340ae <two_way_long_needle+0x1f2>
   33f56:	1970      	adds	r0, r6, r5
   33f58:	5cb4      	ldrb	r4, [r6, r2]
   33f5a:	5cc0      	ldrb	r0, [r0, r3]
   33f5c:	4284      	cmp	r4, r0
   33f5e:	d203      	bcs.n	33f68 <two_way_long_needle+0xac>
   33f60:	eba2 0805 	sub.w	r8, r2, r5
   33f64:	2301      	movs	r3, #1
   33f66:	e004      	b.n	33f72 <two_way_long_needle+0xb6>
   33f68:	d105      	bne.n	33f76 <two_way_long_needle+0xba>
   33f6a:	4543      	cmp	r3, r8
   33f6c:	d0fa      	beq.n	33f64 <two_way_long_needle+0xa8>
   33f6e:	3301      	adds	r3, #1
   33f70:	460a      	mov	r2, r1
   33f72:	4611      	mov	r1, r2
   33f74:	e7b0      	b.n	33ed8 <two_way_long_needle+0x1c>
   33f76:	f04f 0801 	mov.w	r8, #1
   33f7a:	1c4a      	adds	r2, r1, #1
   33f7c:	460d      	mov	r5, r1
   33f7e:	4643      	mov	r3, r8
   33f80:	e7f7      	b.n	33f72 <two_way_long_needle+0xb6>
   33f82:	eb06 0c02 	add.w	ip, r6, r2
   33f86:	f816 e000 	ldrb.w	lr, [r6, r0]
   33f8a:	f81c c003 	ldrb.w	ip, [ip, r3]
   33f8e:	45e6      	cmp	lr, ip
   33f90:	d902      	bls.n	33f98 <two_way_long_needle+0xdc>
   33f92:	1a81      	subs	r1, r0, r2
   33f94:	2301      	movs	r3, #1
   33f96:	e004      	b.n	33fa2 <two_way_long_needle+0xe6>
   33f98:	d105      	bne.n	33fa6 <two_way_long_needle+0xea>
   33f9a:	428b      	cmp	r3, r1
   33f9c:	d0fa      	beq.n	33f94 <two_way_long_needle+0xd8>
   33f9e:	3301      	adds	r3, #1
   33fa0:	4620      	mov	r0, r4
   33fa2:	4604      	mov	r4, r0
   33fa4:	e7a0      	b.n	33ee8 <two_way_long_needle+0x2c>
   33fa6:	2101      	movs	r1, #1
   33fa8:	1c60      	adds	r0, r4, #1
   33faa:	4622      	mov	r2, r4
   33fac:	460b      	mov	r3, r1
   33fae:	e7f8      	b.n	33fa2 <two_way_long_needle+0xe6>
   33fb0:	f812 1b01 	ldrb.w	r1, [r2], #1
   33fb4:	a804      	add	r0, sp, #16
   33fb6:	f840 3021 	str.w	r3, [r0, r1, lsl #2]
   33fba:	3b01      	subs	r3, #1
   33fbc:	e7a8      	b.n	33f10 <two_way_long_needle+0x54>
   33fbe:	4658      	mov	r0, fp
   33fc0:	eb0a 0204 	add.w	r2, sl, r4
   33fc4:	9b01      	ldr	r3, [sp, #4]
   33fc6:	a904      	add	r1, sp, #16
   33fc8:	5cd3      	ldrb	r3, [r2, r3]
   33fca:	f851 b023 	ldr.w	fp, [r1, r3, lsl #2]
   33fce:	f1bb 0f00 	cmp.w	fp, #0
   33fd2:	d020      	beq.n	34016 <two_way_long_needle+0x15a>
   33fd4:	b118      	cbz	r0, 33fde <two_way_long_needle+0x122>
   33fd6:	45c3      	cmp	fp, r8
   33fd8:	9b02      	ldr	r3, [sp, #8]
   33fda:	bf38      	it	cc
   33fdc:	469b      	movcc	fp, r3
   33fde:	445c      	add	r4, fp
   33fe0:	f04f 0b00 	mov.w	fp, #0
   33fe4:	eba9 0307 	sub.w	r3, r9, r7
   33fe8:	42a3      	cmp	r3, r4
   33fea:	d2e8      	bcs.n	33fbe <two_way_long_needle+0x102>
   33fec:	eb0a 0009 	add.w	r0, sl, r9
   33ff0:	f447 6100 	orr.w	r1, r7, #2048	; 0x800
   33ff4:	f007 f84c 	bl	3b090 <strnlen>
   33ff8:	4481      	add	r9, r0
   33ffa:	eba9 0307 	sub.w	r3, r9, r7
   33ffe:	42a3      	cmp	r3, r4
   34000:	d2dd      	bcs.n	33fbe <two_way_long_needle+0x102>
   34002:	2000      	movs	r0, #0
   34004:	e029      	b.n	3405a <two_way_long_needle+0x19e>
   34006:	eba7 0308 	sub.w	r3, r7, r8
   3400a:	4604      	mov	r4, r0
   3400c:	9302      	str	r3, [sp, #8]
   3400e:	f1c5 0301 	rsb	r3, r5, #1
   34012:	9303      	str	r3, [sp, #12]
   34014:	e7d4      	b.n	33fc0 <two_way_long_needle+0x104>
   34016:	4285      	cmp	r5, r0
   34018:	462b      	mov	r3, r5
   3401a:	bf38      	it	cc
   3401c:	4603      	movcc	r3, r0
   3401e:	9901      	ldr	r1, [sp, #4]
   34020:	428b      	cmp	r3, r1
   34022:	d22f      	bcs.n	34084 <two_way_long_needle+0x1c8>
   34024:	f816 c003 	ldrb.w	ip, [r6, r3]
   34028:	5cd1      	ldrb	r1, [r2, r3]
   3402a:	458c      	cmp	ip, r1
   3402c:	d003      	beq.n	34036 <two_way_long_needle+0x17a>
   3402e:	9a03      	ldr	r2, [sp, #12]
   34030:	4414      	add	r4, r2
   34032:	441c      	add	r4, r3
   34034:	e7d6      	b.n	33fe4 <two_way_long_needle+0x128>
   34036:	3301      	adds	r3, #1
   34038:	e7f1      	b.n	3401e <two_way_long_needle+0x162>
   3403a:	4673      	mov	r3, lr
   3403c:	4283      	cmp	r3, r0
   3403e:	d907      	bls.n	34050 <two_way_long_needle+0x194>
   34040:	f81b cd01 	ldrb.w	ip, [fp, #-1]!
   34044:	f103 3eff 	add.w	lr, r3, #4294967295	; 0xffffffff
   34048:	f812 1d01 	ldrb.w	r1, [r2, #-1]!
   3404c:	458c      	cmp	ip, r1
   3404e:	d0f4      	beq.n	3403a <two_way_long_needle+0x17e>
   34050:	3001      	adds	r0, #1
   34052:	4298      	cmp	r0, r3
   34054:	d905      	bls.n	34062 <two_way_long_needle+0x1a6>
   34056:	eb0a 0004 	add.w	r0, sl, r4
   3405a:	f20d 4d14 	addw	sp, sp, #1044	; 0x414
   3405e:	e8bd 8ff0 	ldmia.w	sp!, {r4, r5, r6, r7, r8, r9, sl, fp, pc}
   34062:	4444      	add	r4, r8
   34064:	f8dd b008 	ldr.w	fp, [sp, #8]
   34068:	e7bc      	b.n	33fe4 <two_way_long_needle+0x128>
   3406a:	3301      	adds	r3, #1
   3406c:	9801      	ldr	r0, [sp, #4]
   3406e:	4283      	cmp	r3, r0
   34070:	d210      	bcs.n	34094 <two_way_long_needle+0x1d8>
   34072:	f816 c003 	ldrb.w	ip, [r6, r3]
   34076:	5ce0      	ldrb	r0, [r4, r3]
   34078:	4584      	cmp	ip, r0
   3407a:	d0f6      	beq.n	3406a <two_way_long_needle+0x1ae>
   3407c:	4490      	add	r8, r2
   3407e:	e768      	b.n	33f52 <two_way_long_needle+0x96>
   34080:	462b      	mov	r3, r5
   34082:	e7f3      	b.n	3406c <two_way_long_needle+0x1b0>
   34084:	192a      	adds	r2, r5, r4
   34086:	eb06 0b05 	add.w	fp, r6, r5
   3408a:	462b      	mov	r3, r5
   3408c:	4452      	add	r2, sl
   3408e:	e7d5      	b.n	3403c <two_way_long_needle+0x180>
   34090:	4620      	mov	r0, r4
   34092:	e7e2      	b.n	3405a <two_way_long_needle+0x19e>
   34094:	eb05 0308 	add.w	r3, r5, r8
   34098:	1970      	adds	r0, r6, r5
   3409a:	4453      	add	r3, sl
   3409c:	4286      	cmp	r6, r0
   3409e:	d0f7      	beq.n	34090 <two_way_long_needle+0x1d4>
   340a0:	f810 ed01 	ldrb.w	lr, [r0, #-1]!
   340a4:	f813 cd01 	ldrb.w	ip, [r3, #-1]!
   340a8:	45e6      	cmp	lr, ip
   340aa:	d0f7      	beq.n	3409c <two_way_long_needle+0x1e0>
   340ac:	44d8      	add	r8, fp
   340ae:	eba9 0307 	sub.w	r3, r9, r7
   340b2:	4598      	cmp	r8, r3
   340b4:	f67f af43 	bls.w	33f3e <two_way_long_needle+0x82>
   340b8:	eb0a 0009 	add.w	r0, sl, r9
   340bc:	e9cd 1202 	strd	r1, r2, [sp, #8]
   340c0:	f006 ffe6 	bl	3b090 <strnlen>
   340c4:	4481      	add	r9, r0
   340c6:	eba9 0307 	sub.w	r3, r9, r7
   340ca:	4598      	cmp	r8, r3
   340cc:	e9dd 1202 	ldrd	r1, r2, [sp, #8]
   340d0:	f67f af35 	bls.w	33f3e <two_way_long_needle+0x82>
   340d4:	e795      	b.n	34002 <two_way_long_needle+0x146>

000340d6 <strstr>:
   340d6:	e92d 41f0 	stmdb	sp!, {r4, r5, r6, r7, r8, lr}
   340da:	460f      	mov	r7, r1
   340dc:	7809      	ldrb	r1, [r1, #0]
   340de:	b090      	sub	sp, #64	; 0x40
   340e0:	4604      	mov	r4, r0
   340e2:	2900      	cmp	r1, #0
   340e4:	d035      	beq.n	34152 <strstr+0x7c>
   340e6:	787b      	ldrb	r3, [r7, #1]
   340e8:	b923      	cbnz	r3, 340f4 <strstr+0x1e>
   340ea:	b010      	add	sp, #64	; 0x40
   340ec:	e8bd 41f0 	ldmia.w	sp!, {r4, r5, r6, r7, r8, lr}
   340f0:	f7ff bd7a 	b.w	33be8 <strchr>
   340f4:	78ba      	ldrb	r2, [r7, #2]
   340f6:	b972      	cbnz	r2, 34116 <strstr+0x40>
   340f8:	ea43 4101 	orr.w	r1, r3, r1, lsl #16
   340fc:	7800      	ldrb	r0, [r0, #0]
   340fe:	4613      	mov	r3, r2
   34100:	b908      	cbnz	r0, 34106 <strstr+0x30>
   34102:	2400      	movs	r4, #0
   34104:	e025      	b.n	34152 <strstr+0x7c>
   34106:	ea40 4303 	orr.w	r3, r0, r3, lsl #16
   3410a:	1c62      	adds	r2, r4, #1
   3410c:	7860      	ldrb	r0, [r4, #1]
   3410e:	4299      	cmp	r1, r3
   34110:	d07c      	beq.n	3420c <strstr+0x136>
   34112:	4614      	mov	r4, r2
   34114:	e7f4      	b.n	34100 <strstr+0x2a>
   34116:	78f8      	ldrb	r0, [r7, #3]
   34118:	b990      	cbnz	r0, 34140 <strstr+0x6a>
   3411a:	041b      	lsls	r3, r3, #16
   3411c:	ea43 6301 	orr.w	r3, r3, r1, lsl #24
   34120:	ea43 2302 	orr.w	r3, r3, r2, lsl #8
   34124:	7822      	ldrb	r2, [r4, #0]
   34126:	2a00      	cmp	r2, #0
   34128:	d0eb      	beq.n	34102 <strstr+0x2c>
   3412a:	ea42 0100 	orr.w	r1, r2, r0
   3412e:	1c65      	adds	r5, r4, #1
   34130:	7862      	ldrb	r2, [r4, #1]
   34132:	ebb3 2f01 	cmp.w	r3, r1, lsl #8
   34136:	ea4f 2001 	mov.w	r0, r1, lsl #8
   3413a:	d069      	beq.n	34210 <strstr+0x13a>
   3413c:	462c      	mov	r4, r5
   3413e:	e7f2      	b.n	34126 <strstr+0x50>
   34140:	793b      	ldrb	r3, [r7, #4]
   34142:	b993      	cbnz	r3, 3416a <strstr+0x94>
   34144:	683a      	ldr	r2, [r7, #0]
   34146:	7821      	ldrb	r1, [r4, #0]
   34148:	ba12      	rev	r2, r2
   3414a:	b159      	cbz	r1, 34164 <strstr+0x8e>
   3414c:	429a      	cmp	r2, r3
   3414e:	d104      	bne.n	3415a <strstr+0x84>
   34150:	3c04      	subs	r4, #4
   34152:	4620      	mov	r0, r4
   34154:	b010      	add	sp, #64	; 0x40
   34156:	e8bd 81f0 	ldmia.w	sp!, {r4, r5, r6, r7, r8, pc}
   3415a:	ea41 2303 	orr.w	r3, r1, r3, lsl #8
   3415e:	f814 1f01 	ldrb.w	r1, [r4, #1]!
   34162:	e7f2      	b.n	3414a <strstr+0x74>
   34164:	429a      	cmp	r2, r3
   34166:	d1cc      	bne.n	34102 <strstr+0x2c>
   34168:	e7f2      	b.n	34150 <strstr+0x7a>
   3416a:	4638      	mov	r0, r7
   3416c:	f7ff fde0 	bl	33d30 <strlen>
   34170:	4605      	mov	r5, r0
   34172:	f440 7100 	orr.w	r1, r0, #512	; 0x200
   34176:	4620      	mov	r0, r4
   34178:	f006 ff8a 	bl	3b090 <strnlen>
   3417c:	4285      	cmp	r5, r0
   3417e:	4601      	mov	r1, r0
   34180:	d8bf      	bhi.n	34102 <strstr+0x2c>
   34182:	2dfe      	cmp	r5, #254	; 0xfe
   34184:	d83b      	bhi.n	341fe <strstr+0x128>
   34186:	1b40      	subs	r0, r0, r5
   34188:	1c69      	adds	r1, r5, #1
   3418a:	2240      	movs	r2, #64	; 0x40
   3418c:	1826      	adds	r6, r4, r0
   3418e:	4668      	mov	r0, sp
   34190:	f005 ff2e 	bl	39ff0 <memset>
   34194:	1e79      	subs	r1, r7, #1
   34196:	b2eb      	uxtb	r3, r5
   34198:	b9b3      	cbnz	r3, 341c8 <strstr+0xf2>
   3419a:	3c01      	subs	r4, #1
   3419c:	5d63      	ldrb	r3, [r4, r5]
   3419e:	f003 033f 	and.w	r3, r3, #63	; 0x3f
   341a2:	3340      	adds	r3, #64	; 0x40
   341a4:	446b      	add	r3, sp
   341a6:	f813 0c40 	ldrb.w	r0, [r3, #-64]
   341aa:	4404      	add	r4, r0
   341ac:	42b4      	cmp	r4, r6
   341ae:	d916      	bls.n	341de <strstr+0x108>
   341b0:	5d73      	ldrb	r3, [r6, r5]
   341b2:	1970      	adds	r0, r6, r5
   341b4:	2b00      	cmp	r3, #0
   341b6:	d0a4      	beq.n	34102 <strstr+0x2c>
   341b8:	f44f 6100 	mov.w	r1, #2048	; 0x800
   341bc:	f006 ff68 	bl	3b090 <strnlen>
   341c0:	4406      	add	r6, r0
   341c2:	42b4      	cmp	r4, r6
   341c4:	d9e9      	bls.n	3419a <strstr+0xc4>
   341c6:	e79c      	b.n	34102 <strstr+0x2c>
   341c8:	f811 2f01 	ldrb.w	r2, [r1, #1]!
   341cc:	f002 023f 	and.w	r2, r2, #63	; 0x3f
   341d0:	3240      	adds	r2, #64	; 0x40
   341d2:	446a      	add	r2, sp
   341d4:	f802 3c40 	strb.w	r3, [r2, #-64]
   341d8:	3b01      	subs	r3, #1
   341da:	b2db      	uxtb	r3, r3
   341dc:	e7dc      	b.n	34198 <strstr+0xc2>
   341de:	5d63      	ldrb	r3, [r4, r5]
   341e0:	462a      	mov	r2, r5
   341e2:	4639      	mov	r1, r7
   341e4:	4620      	mov	r0, r4
   341e6:	f003 033f 	and.w	r3, r3, #63	; 0x3f
   341ea:	3340      	adds	r3, #64	; 0x40
   341ec:	446b      	add	r3, sp
   341ee:	f813 8c40 	ldrb.w	r8, [r3, #-64]
   341f2:	f005 fe0a 	bl	39e0a <memcmp>
   341f6:	2800      	cmp	r0, #0
   341f8:	d0ab      	beq.n	34152 <strstr+0x7c>
   341fa:	4444      	add	r4, r8
   341fc:	e7d6      	b.n	341ac <strstr+0xd6>
   341fe:	462b      	mov	r3, r5
   34200:	463a      	mov	r2, r7
   34202:	4620      	mov	r0, r4
   34204:	b010      	add	sp, #64	; 0x40
   34206:	e8bd 41f0 	ldmia.w	sp!, {r4, r5, r6, r7, r8, lr}
   3420a:	e657      	b.n	33ebc <two_way_long_needle>
   3420c:	3c01      	subs	r4, #1
   3420e:	e7a0      	b.n	34152 <strstr+0x7c>
   34210:	3c02      	subs	r4, #2
   34212:	e79e      	b.n	34152 <strstr+0x7c>

00034214 <strtok>:
   34214:	4b02      	ldr	r3, [pc, #8]	; (34220 <strtok+0xc>)
   34216:	681a      	ldr	r2, [r3, #0]
   34218:	2301      	movs	r3, #1
   3421a:	325c      	adds	r2, #92	; 0x5c
   3421c:	f000 b802 	b.w	34224 <__strtok_r>
   34220:	20006000 	.word	0x20006000

00034224 <__strtok_r>:
   34224:	b5f0      	push	{r4, r5, r6, r7, lr}
   34226:	b908      	cbnz	r0, 3422c <__strtok_r+0x8>
   34228:	6810      	ldr	r0, [r2, #0]
   3422a:	b188      	cbz	r0, 34250 <__strtok_r+0x2c>
   3422c:	4604      	mov	r4, r0
   3422e:	4620      	mov	r0, r4
   34230:	460f      	mov	r7, r1
   34232:	f814 5b01 	ldrb.w	r5, [r4], #1
   34236:	f817 6b01 	ldrb.w	r6, [r7], #1
   3423a:	b91e      	cbnz	r6, 34244 <__strtok_r+0x20>
   3423c:	b965      	cbnz	r5, 34258 <__strtok_r+0x34>
   3423e:	4628      	mov	r0, r5
   34240:	6015      	str	r5, [r2, #0]
   34242:	e005      	b.n	34250 <__strtok_r+0x2c>
   34244:	42b5      	cmp	r5, r6
   34246:	d1f6      	bne.n	34236 <__strtok_r+0x12>
   34248:	2b00      	cmp	r3, #0
   3424a:	d1f0      	bne.n	3422e <__strtok_r+0xa>
   3424c:	6014      	str	r4, [r2, #0]
   3424e:	7003      	strb	r3, [r0, #0]
   34250:	bdf0      	pop	{r4, r5, r6, r7, pc}
   34252:	461c      	mov	r4, r3
   34254:	e00c      	b.n	34270 <__strtok_r+0x4c>
   34256:	b915      	cbnz	r5, 3425e <__strtok_r+0x3a>
   34258:	f814 3b01 	ldrb.w	r3, [r4], #1
   3425c:	460e      	mov	r6, r1
   3425e:	f816 5b01 	ldrb.w	r5, [r6], #1
   34262:	42ab      	cmp	r3, r5
   34264:	d1f7      	bne.n	34256 <__strtok_r+0x32>
   34266:	2b00      	cmp	r3, #0
   34268:	d0f3      	beq.n	34252 <__strtok_r+0x2e>
   3426a:	2300      	movs	r3, #0
   3426c:	f804 3c01 	strb.w	r3, [r4, #-1]
   34270:	6014      	str	r4, [r2, #0]
   34272:	e7ed      	b.n	34250 <__strtok_r+0x2c>

00034274 <strtok_r>:
   34274:	2301      	movs	r3, #1
   34276:	f7ff bfd5 	b.w	34224 <__strtok_r>
	...

0003427c <_strtol_l.constprop.0>:
   3427c:	2b01      	cmp	r3, #1
   3427e:	e92d 47f0 	stmdb	sp!, {r4, r5, r6, r7, r8, r9, sl, lr}
   34282:	d001      	beq.n	34288 <_strtol_l.constprop.0+0xc>
   34284:	2b24      	cmp	r3, #36	; 0x24
   34286:	d906      	bls.n	34296 <_strtol_l.constprop.0+0x1a>
   34288:	f004 fde0 	bl	38e4c <__errno>
   3428c:	2316      	movs	r3, #22
   3428e:	6003      	str	r3, [r0, #0]
   34290:	2000      	movs	r0, #0
   34292:	e8bd 87f0 	ldmia.w	sp!, {r4, r5, r6, r7, r8, r9, sl, pc}
   34296:	460d      	mov	r5, r1
   34298:	f8df c0e0 	ldr.w	ip, [pc, #224]	; 3437c <_strtol_l.constprop.0+0x100>
   3429c:	462e      	mov	r6, r5
   3429e:	f815 4b01 	ldrb.w	r4, [r5], #1
   342a2:	f814 700c 	ldrb.w	r7, [r4, ip]
   342a6:	f017 0708 	ands.w	r7, r7, #8
   342aa:	d1f7      	bne.n	3429c <_strtol_l.constprop.0+0x20>
   342ac:	2c2d      	cmp	r4, #45	; 0x2d
   342ae:	d132      	bne.n	34316 <_strtol_l.constprop.0+0x9a>
   342b0:	782c      	ldrb	r4, [r5, #0]
   342b2:	2701      	movs	r7, #1
   342b4:	1cb5      	adds	r5, r6, #2
   342b6:	2b00      	cmp	r3, #0
   342b8:	d05b      	beq.n	34372 <_strtol_l.constprop.0+0xf6>
   342ba:	2b10      	cmp	r3, #16
   342bc:	d109      	bne.n	342d2 <_strtol_l.constprop.0+0x56>
   342be:	2c30      	cmp	r4, #48	; 0x30
   342c0:	d107      	bne.n	342d2 <_strtol_l.constprop.0+0x56>
   342c2:	782c      	ldrb	r4, [r5, #0]
   342c4:	f004 04df 	and.w	r4, r4, #223	; 0xdf
   342c8:	2c58      	cmp	r4, #88	; 0x58
   342ca:	d14d      	bne.n	34368 <_strtol_l.constprop.0+0xec>
   342cc:	786c      	ldrb	r4, [r5, #1]
   342ce:	2310      	movs	r3, #16
   342d0:	3502      	adds	r5, #2
   342d2:	f107 4800 	add.w	r8, r7, #2147483648	; 0x80000000
   342d6:	f04f 0c00 	mov.w	ip, #0
   342da:	f108 38ff 	add.w	r8, r8, #4294967295	; 0xffffffff
   342de:	4666      	mov	r6, ip
   342e0:	fbb8 f9f3 	udiv	r9, r8, r3
   342e4:	fb03 8a19 	mls	sl, r3, r9, r8
   342e8:	f1a4 0e30 	sub.w	lr, r4, #48	; 0x30
   342ec:	f1be 0f09 	cmp.w	lr, #9
   342f0:	d816      	bhi.n	34320 <_strtol_l.constprop.0+0xa4>
   342f2:	4674      	mov	r4, lr
   342f4:	42a3      	cmp	r3, r4
   342f6:	dd24      	ble.n	34342 <_strtol_l.constprop.0+0xc6>
   342f8:	f1bc 0f00 	cmp.w	ip, #0
   342fc:	db1e      	blt.n	3433c <_strtol_l.constprop.0+0xc0>
   342fe:	45b1      	cmp	r9, r6
   34300:	d31c      	bcc.n	3433c <_strtol_l.constprop.0+0xc0>
   34302:	d101      	bne.n	34308 <_strtol_l.constprop.0+0x8c>
   34304:	45a2      	cmp	sl, r4
   34306:	db19      	blt.n	3433c <_strtol_l.constprop.0+0xc0>
   34308:	fb06 4603 	mla	r6, r6, r3, r4
   3430c:	f04f 0c01 	mov.w	ip, #1
   34310:	f815 4b01 	ldrb.w	r4, [r5], #1
   34314:	e7e8      	b.n	342e8 <_strtol_l.constprop.0+0x6c>
   34316:	2c2b      	cmp	r4, #43	; 0x2b
   34318:	bf04      	itt	eq
   3431a:	782c      	ldrbeq	r4, [r5, #0]
   3431c:	1cb5      	addeq	r5, r6, #2
   3431e:	e7ca      	b.n	342b6 <_strtol_l.constprop.0+0x3a>
   34320:	f1a4 0e41 	sub.w	lr, r4, #65	; 0x41
   34324:	f1be 0f19 	cmp.w	lr, #25
   34328:	d801      	bhi.n	3432e <_strtol_l.constprop.0+0xb2>
   3432a:	3c37      	subs	r4, #55	; 0x37
   3432c:	e7e2      	b.n	342f4 <_strtol_l.constprop.0+0x78>
   3432e:	f1a4 0e61 	sub.w	lr, r4, #97	; 0x61
   34332:	f1be 0f19 	cmp.w	lr, #25
   34336:	d804      	bhi.n	34342 <_strtol_l.constprop.0+0xc6>
   34338:	3c57      	subs	r4, #87	; 0x57
   3433a:	e7db      	b.n	342f4 <_strtol_l.constprop.0+0x78>
   3433c:	f04f 3cff 	mov.w	ip, #4294967295	; 0xffffffff
   34340:	e7e6      	b.n	34310 <_strtol_l.constprop.0+0x94>
   34342:	f1bc 0f00 	cmp.w	ip, #0
   34346:	da05      	bge.n	34354 <_strtol_l.constprop.0+0xd8>
   34348:	2322      	movs	r3, #34	; 0x22
   3434a:	4646      	mov	r6, r8
   3434c:	6003      	str	r3, [r0, #0]
   3434e:	b942      	cbnz	r2, 34362 <_strtol_l.constprop.0+0xe6>
   34350:	4630      	mov	r0, r6
   34352:	e79e      	b.n	34292 <_strtol_l.constprop.0+0x16>
   34354:	b107      	cbz	r7, 34358 <_strtol_l.constprop.0+0xdc>
   34356:	4276      	negs	r6, r6
   34358:	2a00      	cmp	r2, #0
   3435a:	d0f9      	beq.n	34350 <_strtol_l.constprop.0+0xd4>
   3435c:	f1bc 0f00 	cmp.w	ip, #0
   34360:	d000      	beq.n	34364 <_strtol_l.constprop.0+0xe8>
   34362:	1e69      	subs	r1, r5, #1
   34364:	6011      	str	r1, [r2, #0]
   34366:	e7f3      	b.n	34350 <_strtol_l.constprop.0+0xd4>
   34368:	2430      	movs	r4, #48	; 0x30
   3436a:	2b00      	cmp	r3, #0
   3436c:	d1b1      	bne.n	342d2 <_strtol_l.constprop.0+0x56>
   3436e:	2308      	movs	r3, #8
   34370:	e7af      	b.n	342d2 <_strtol_l.constprop.0+0x56>
   34372:	2c30      	cmp	r4, #48	; 0x30
   34374:	d0a5      	beq.n	342c2 <_strtol_l.constprop.0+0x46>
   34376:	230a      	movs	r3, #10
   34378:	e7ab      	b.n	342d2 <_strtol_l.constprop.0+0x56>
   3437a:	bf00      	nop
   3437c:	0004056b 	.word	0x0004056b

00034380 <_strtol_r>:
   34380:	e77c      	b.n	3427c <_strtol_l.constprop.0>

00034382 <strtol_l>:
   34382:	4613      	mov	r3, r2
   34384:	460a      	mov	r2, r1
   34386:	4601      	mov	r1, r0
   34388:	4801      	ldr	r0, [pc, #4]	; (34390 <strtol_l+0xe>)
   3438a:	6800      	ldr	r0, [r0, #0]
   3438c:	e776      	b.n	3427c <_strtol_l.constprop.0>
   3438e:	bf00      	nop
   34390:	20006000 	.word	0x20006000

00034394 <strtol>:
   34394:	4613      	mov	r3, r2
   34396:	460a      	mov	r2, r1
   34398:	4601      	mov	r1, r0
   3439a:	4801      	ldr	r0, [pc, #4]	; (343a0 <strtol+0xc>)
   3439c:	6800      	ldr	r0, [r0, #0]
   3439e:	e76d      	b.n	3427c <_strtol_l.constprop.0>
   343a0:	20006000 	.word	0x20006000
   343a4:	00000000 	.word	0x00000000

000343a8 <_svfprintf_r>:
   343a8:	e92d 4ff0 	stmdb	sp!, {r4, r5, r6, r7, r8, r9, sl, fp, lr}
   343ac:	ed2d 8b04 	vpush	{d8-d9}
   343b0:	b0cf      	sub	sp, #316	; 0x13c
   343b2:	4688      	mov	r8, r1
   343b4:	4691      	mov	r9, r2
   343b6:	461e      	mov	r6, r3
   343b8:	4682      	mov	sl, r0
   343ba:	f005 f9b9 	bl	39730 <_localeconv_r>
   343be:	6803      	ldr	r3, [r0, #0]
   343c0:	4618      	mov	r0, r3
   343c2:	9313      	str	r3, [sp, #76]	; 0x4c
   343c4:	f7ff fcb4 	bl	33d30 <strlen>
   343c8:	f8b8 300c 	ldrh.w	r3, [r8, #12]
   343cc:	900d      	str	r0, [sp, #52]	; 0x34
   343ce:	0618      	lsls	r0, r3, #24
   343d0:	d51a      	bpl.n	34408 <_svfprintf_r+0x60>
   343d2:	f8d8 3010 	ldr.w	r3, [r8, #16]
   343d6:	b9bb      	cbnz	r3, 34408 <_svfprintf_r+0x60>
   343d8:	2140      	movs	r1, #64	; 0x40
   343da:	4650      	mov	r0, sl
   343dc:	f005 fa70 	bl	398c0 <_malloc_r>
   343e0:	f8c8 0000 	str.w	r0, [r8]
   343e4:	f8c8 0010 	str.w	r0, [r8, #16]
   343e8:	b958      	cbnz	r0, 34402 <_svfprintf_r+0x5a>
   343ea:	230c      	movs	r3, #12
   343ec:	f8ca 3000 	str.w	r3, [sl]
   343f0:	f04f 33ff 	mov.w	r3, #4294967295	; 0xffffffff
   343f4:	930c      	str	r3, [sp, #48]	; 0x30
   343f6:	980c      	ldr	r0, [sp, #48]	; 0x30
   343f8:	b04f      	add	sp, #316	; 0x13c
   343fa:	ecbd 8b04 	vpop	{d8-d9}
   343fe:	e8bd 8ff0 	ldmia.w	sp!, {r4, r5, r6, r7, r8, r9, sl, fp, pc}
   34402:	2340      	movs	r3, #64	; 0x40
   34404:	f8c8 3014 	str.w	r3, [r8, #20]
   34408:	2500      	movs	r5, #0
   3440a:	ac25      	add	r4, sp, #148	; 0x94
   3440c:	ed9f 7b92 	vldr	d7, [pc, #584]	; 34658 <_svfprintf_r+0x2b0>
   34410:	9422      	str	r4, [sp, #136]	; 0x88
   34412:	9505      	str	r5, [sp, #20]
   34414:	950a      	str	r5, [sp, #40]	; 0x28
   34416:	9512      	str	r5, [sp, #72]	; 0x48
   34418:	9514      	str	r5, [sp, #80]	; 0x50
   3441a:	950c      	str	r5, [sp, #48]	; 0x30
   3441c:	e9cd 5523 	strd	r5, r5, [sp, #140]	; 0x8c
   34420:	ed8d 7b0e 	vstr	d7, [sp, #56]	; 0x38
   34424:	e9cd 5515 	strd	r5, r5, [sp, #84]	; 0x54
   34428:	464b      	mov	r3, r9
   3442a:	461d      	mov	r5, r3
   3442c:	f813 2b01 	ldrb.w	r2, [r3], #1
   34430:	b10a      	cbz	r2, 34436 <_svfprintf_r+0x8e>
   34432:	2a25      	cmp	r2, #37	; 0x25
   34434:	d1f9      	bne.n	3442a <_svfprintf_r+0x82>
   34436:	ebb5 0709 	subs.w	r7, r5, r9
   3443a:	d00d      	beq.n	34458 <_svfprintf_r+0xb0>
   3443c:	9b24      	ldr	r3, [sp, #144]	; 0x90
   3443e:	443b      	add	r3, r7
   34440:	9324      	str	r3, [sp, #144]	; 0x90
   34442:	9b23      	ldr	r3, [sp, #140]	; 0x8c
   34444:	3301      	adds	r3, #1
   34446:	2b07      	cmp	r3, #7
   34448:	9323      	str	r3, [sp, #140]	; 0x8c
   3444a:	e9c4 9700 	strd	r9, r7, [r4]
   3444e:	dc79      	bgt.n	34544 <_svfprintf_r+0x19c>
   34450:	3408      	adds	r4, #8
   34452:	9b0c      	ldr	r3, [sp, #48]	; 0x30
   34454:	443b      	add	r3, r7
   34456:	930c      	str	r3, [sp, #48]	; 0x30
   34458:	782b      	ldrb	r3, [r5, #0]
   3445a:	2b00      	cmp	r3, #0
   3445c:	f001 8143 	beq.w	356e6 <_svfprintf_r+0x133e>
   34460:	2300      	movs	r3, #0
   34462:	f04f 32ff 	mov.w	r2, #4294967295	; 0xffffffff
   34466:	3501      	adds	r5, #1
   34468:	270a      	movs	r7, #10
   3446a:	9204      	str	r2, [sp, #16]
   3446c:	469b      	mov	fp, r3
   3446e:	222b      	movs	r2, #43	; 0x2b
   34470:	f88d 306b 	strb.w	r3, [sp, #107]	; 0x6b
   34474:	9310      	str	r3, [sp, #64]	; 0x40
   34476:	462b      	mov	r3, r5
   34478:	f813 1b01 	ldrb.w	r1, [r3], #1
   3447c:	9106      	str	r1, [sp, #24]
   3447e:	930b      	str	r3, [sp, #44]	; 0x2c
   34480:	9b06      	ldr	r3, [sp, #24]
   34482:	3b20      	subs	r3, #32
   34484:	2b5a      	cmp	r3, #90	; 0x5a
   34486:	f200 85ba 	bhi.w	34ffe <_svfprintf_r+0xc56>
   3448a:	e8df f013 	tbh	[pc, r3, lsl #1]
   3448e:	007e      	.short	0x007e
   34490:	05b805b8 	.word	0x05b805b8
   34494:	05b80086 	.word	0x05b80086
   34498:	05b805b8 	.word	0x05b805b8
   3449c:	05b80065 	.word	0x05b80065
   344a0:	008905b8 	.word	0x008905b8
   344a4:	05b80093 	.word	0x05b80093
   344a8:	00960090 	.word	0x00960090
   344ac:	00b305b8 	.word	0x00b305b8
   344b0:	00b600b6 	.word	0x00b600b6
   344b4:	00b600b6 	.word	0x00b600b6
   344b8:	00b600b6 	.word	0x00b600b6
   344bc:	00b600b6 	.word	0x00b600b6
   344c0:	05b800b6 	.word	0x05b800b6
   344c4:	05b805b8 	.word	0x05b805b8
   344c8:	05b805b8 	.word	0x05b805b8
   344cc:	05b805b8 	.word	0x05b805b8
   344d0:	05b8012c 	.word	0x05b8012c
   344d4:	00fc00e9 	.word	0x00fc00e9
   344d8:	012c012c 	.word	0x012c012c
   344dc:	05b8012c 	.word	0x05b8012c
   344e0:	05b805b8 	.word	0x05b805b8
   344e4:	00c605b8 	.word	0x00c605b8
   344e8:	05b805b8 	.word	0x05b805b8
   344ec:	05b80494 	.word	0x05b80494
   344f0:	05b805b8 	.word	0x05b805b8
   344f4:	05b804dd 	.word	0x05b804dd
   344f8:	05b804fe 	.word	0x05b804fe
   344fc:	052005b8 	.word	0x052005b8
   34500:	05b805b8 	.word	0x05b805b8
   34504:	05b805b8 	.word	0x05b805b8
   34508:	05b805b8 	.word	0x05b805b8
   3450c:	05b805b8 	.word	0x05b805b8
   34510:	05b8012c 	.word	0x05b8012c
   34514:	00fe00e9 	.word	0x00fe00e9
   34518:	012c012c 	.word	0x012c012c
   3451c:	00c9012c 	.word	0x00c9012c
   34520:	00dd00fe 	.word	0x00dd00fe
   34524:	00d605b8 	.word	0x00d605b8
   34528:	046f05b8 	.word	0x046f05b8
   3452c:	04cc0496 	.word	0x04cc0496
   34530:	05b800dd 	.word	0x05b800dd
   34534:	007c04dd 	.word	0x007c04dd
   34538:	05b80500 	.word	0x05b80500
   3453c:	053f05b8 	.word	0x053f05b8
   34540:	007c05b8 	.word	0x007c05b8
   34544:	aa22      	add	r2, sp, #136	; 0x88
   34546:	4641      	mov	r1, r8
   34548:	4650      	mov	r0, sl
   3454a:	f007 fe75 	bl	3c238 <__ssprint_r>
   3454e:	2800      	cmp	r0, #0
   34550:	f040 8137 	bne.w	347c2 <_svfprintf_r+0x41a>
   34554:	ac25      	add	r4, sp, #148	; 0x94
   34556:	e77c      	b.n	34452 <_svfprintf_r+0xaa>
   34558:	4650      	mov	r0, sl
   3455a:	f005 f8e9 	bl	39730 <_localeconv_r>
   3455e:	6843      	ldr	r3, [r0, #4]
   34560:	4618      	mov	r0, r3
   34562:	9314      	str	r3, [sp, #80]	; 0x50
   34564:	f7ff fbe4 	bl	33d30 <strlen>
   34568:	9012      	str	r0, [sp, #72]	; 0x48
   3456a:	4650      	mov	r0, sl
   3456c:	f005 f8e0 	bl	39730 <_localeconv_r>
   34570:	6883      	ldr	r3, [r0, #8]
   34572:	222b      	movs	r2, #43	; 0x2b
   34574:	930a      	str	r3, [sp, #40]	; 0x28
   34576:	9b12      	ldr	r3, [sp, #72]	; 0x48
   34578:	b12b      	cbz	r3, 34586 <_svfprintf_r+0x1de>
   3457a:	9b0a      	ldr	r3, [sp, #40]	; 0x28
   3457c:	b11b      	cbz	r3, 34586 <_svfprintf_r+0x1de>
   3457e:	781b      	ldrb	r3, [r3, #0]
   34580:	b10b      	cbz	r3, 34586 <_svfprintf_r+0x1de>
   34582:	f44b 6b80 	orr.w	fp, fp, #1024	; 0x400
   34586:	9d0b      	ldr	r5, [sp, #44]	; 0x2c
   34588:	e775      	b.n	34476 <_svfprintf_r+0xce>
   3458a:	f89d 306b 	ldrb.w	r3, [sp, #107]	; 0x6b
   3458e:	2b00      	cmp	r3, #0
   34590:	d1f9      	bne.n	34586 <_svfprintf_r+0x1de>
   34592:	2320      	movs	r3, #32
   34594:	f88d 306b 	strb.w	r3, [sp, #107]	; 0x6b
   34598:	e7f5      	b.n	34586 <_svfprintf_r+0x1de>
   3459a:	f04b 0b01 	orr.w	fp, fp, #1
   3459e:	e7f2      	b.n	34586 <_svfprintf_r+0x1de>
   345a0:	f856 3b04 	ldr.w	r3, [r6], #4
   345a4:	2b00      	cmp	r3, #0
   345a6:	9310      	str	r3, [sp, #64]	; 0x40
   345a8:	daed      	bge.n	34586 <_svfprintf_r+0x1de>
   345aa:	425b      	negs	r3, r3
   345ac:	9310      	str	r3, [sp, #64]	; 0x40
   345ae:	f04b 0b04 	orr.w	fp, fp, #4
   345b2:	e7e8      	b.n	34586 <_svfprintf_r+0x1de>
   345b4:	f88d 206b 	strb.w	r2, [sp, #107]	; 0x6b
   345b8:	e7e5      	b.n	34586 <_svfprintf_r+0x1de>
   345ba:	9d0b      	ldr	r5, [sp, #44]	; 0x2c
   345bc:	f815 3b01 	ldrb.w	r3, [r5], #1
   345c0:	2b2a      	cmp	r3, #42	; 0x2a
   345c2:	9306      	str	r3, [sp, #24]
   345c4:	d113      	bne.n	345ee <_svfprintf_r+0x246>
   345c6:	f856 0b04 	ldr.w	r0, [r6], #4
   345ca:	950b      	str	r5, [sp, #44]	; 0x2c
   345cc:	ea40 73e0 	orr.w	r3, r0, r0, asr #31
   345d0:	9304      	str	r3, [sp, #16]
   345d2:	e7d8      	b.n	34586 <_svfprintf_r+0x1de>
   345d4:	9904      	ldr	r1, [sp, #16]
   345d6:	fb07 3301 	mla	r3, r7, r1, r3
   345da:	9304      	str	r3, [sp, #16]
   345dc:	f815 3b01 	ldrb.w	r3, [r5], #1
   345e0:	9306      	str	r3, [sp, #24]
   345e2:	9b06      	ldr	r3, [sp, #24]
   345e4:	3b30      	subs	r3, #48	; 0x30
   345e6:	2b09      	cmp	r3, #9
   345e8:	d9f4      	bls.n	345d4 <_svfprintf_r+0x22c>
   345ea:	950b      	str	r5, [sp, #44]	; 0x2c
   345ec:	e748      	b.n	34480 <_svfprintf_r+0xd8>
   345ee:	2300      	movs	r3, #0
   345f0:	9304      	str	r3, [sp, #16]
   345f2:	e7f6      	b.n	345e2 <_svfprintf_r+0x23a>
   345f4:	f04b 0b80 	orr.w	fp, fp, #128	; 0x80
   345f8:	e7c5      	b.n	34586 <_svfprintf_r+0x1de>
   345fa:	2300      	movs	r3, #0
   345fc:	9d0b      	ldr	r5, [sp, #44]	; 0x2c
   345fe:	9310      	str	r3, [sp, #64]	; 0x40
   34600:	9b06      	ldr	r3, [sp, #24]
   34602:	9910      	ldr	r1, [sp, #64]	; 0x40
   34604:	3b30      	subs	r3, #48	; 0x30
   34606:	fb07 3301 	mla	r3, r7, r1, r3
   3460a:	9310      	str	r3, [sp, #64]	; 0x40
   3460c:	f815 3b01 	ldrb.w	r3, [r5], #1
   34610:	9306      	str	r3, [sp, #24]
   34612:	3b30      	subs	r3, #48	; 0x30
   34614:	2b09      	cmp	r3, #9
   34616:	d9f3      	bls.n	34600 <_svfprintf_r+0x258>
   34618:	e7e7      	b.n	345ea <_svfprintf_r+0x242>
   3461a:	f04b 0b08 	orr.w	fp, fp, #8
   3461e:	e7b2      	b.n	34586 <_svfprintf_r+0x1de>
   34620:	9b0b      	ldr	r3, [sp, #44]	; 0x2c
   34622:	781b      	ldrb	r3, [r3, #0]
   34624:	2b68      	cmp	r3, #104	; 0x68
   34626:	bf05      	ittet	eq
   34628:	9b0b      	ldreq	r3, [sp, #44]	; 0x2c
   3462a:	f44b 7b00 	orreq.w	fp, fp, #512	; 0x200
   3462e:	f04b 0b40 	orrne.w	fp, fp, #64	; 0x40
   34632:	3301      	addeq	r3, #1
   34634:	bf08      	it	eq
   34636:	930b      	streq	r3, [sp, #44]	; 0x2c
   34638:	e7a5      	b.n	34586 <_svfprintf_r+0x1de>
   3463a:	9b0b      	ldr	r3, [sp, #44]	; 0x2c
   3463c:	781b      	ldrb	r3, [r3, #0]
   3463e:	2b6c      	cmp	r3, #108	; 0x6c
   34640:	d105      	bne.n	3464e <_svfprintf_r+0x2a6>
   34642:	9b0b      	ldr	r3, [sp, #44]	; 0x2c
   34644:	3301      	adds	r3, #1
   34646:	930b      	str	r3, [sp, #44]	; 0x2c
   34648:	f04b 0b20 	orr.w	fp, fp, #32
   3464c:	e79b      	b.n	34586 <_svfprintf_r+0x1de>
   3464e:	f04b 0b10 	orr.w	fp, fp, #16
   34652:	e798      	b.n	34586 <_svfprintf_r+0x1de>
   34654:	f3af 8000 	nop.w
	...
   34660:	4632      	mov	r2, r6
   34662:	2000      	movs	r0, #0
   34664:	f852 3b04 	ldr.w	r3, [r2], #4
   34668:	f88d 006b 	strb.w	r0, [sp, #107]	; 0x6b
   3466c:	9207      	str	r2, [sp, #28]
   3466e:	f88d 30d4 	strb.w	r3, [sp, #212]	; 0xd4
   34672:	2301      	movs	r3, #1
   34674:	4606      	mov	r6, r0
   34676:	4605      	mov	r5, r0
   34678:	f10d 09d4 	add.w	r9, sp, #212	; 0xd4
   3467c:	9003      	str	r0, [sp, #12]
   3467e:	9304      	str	r3, [sp, #16]
   34680:	e9cd 0008 	strd	r0, r0, [sp, #32]
   34684:	e1b9      	b.n	349fa <_svfprintf_r+0x652>
   34686:	f04b 0b10 	orr.w	fp, fp, #16
   3468a:	f01b 0f20 	tst.w	fp, #32
   3468e:	d012      	beq.n	346b6 <_svfprintf_r+0x30e>
   34690:	1df3      	adds	r3, r6, #7
   34692:	f023 0307 	bic.w	r3, r3, #7
   34696:	461a      	mov	r2, r3
   34698:	685d      	ldr	r5, [r3, #4]
   3469a:	f852 6b08 	ldr.w	r6, [r2], #8
   3469e:	9207      	str	r2, [sp, #28]
   346a0:	2d00      	cmp	r5, #0
   346a2:	da06      	bge.n	346b2 <_svfprintf_r+0x30a>
   346a4:	4276      	negs	r6, r6
   346a6:	f04f 032d 	mov.w	r3, #45	; 0x2d
   346aa:	eb65 0545 	sbc.w	r5, r5, r5, lsl #1
   346ae:	f88d 306b 	strb.w	r3, [sp, #107]	; 0x6b
   346b2:	2301      	movs	r3, #1
   346b4:	e392      	b.n	34ddc <_svfprintf_r+0xa34>
   346b6:	4633      	mov	r3, r6
   346b8:	f01b 0f10 	tst.w	fp, #16
   346bc:	f853 5b04 	ldr.w	r5, [r3], #4
   346c0:	9307      	str	r3, [sp, #28]
   346c2:	d002      	beq.n	346ca <_svfprintf_r+0x322>
   346c4:	462e      	mov	r6, r5
   346c6:	17ed      	asrs	r5, r5, #31
   346c8:	e7ea      	b.n	346a0 <_svfprintf_r+0x2f8>
   346ca:	f01b 0f40 	tst.w	fp, #64	; 0x40
   346ce:	d003      	beq.n	346d8 <_svfprintf_r+0x330>
   346d0:	b22e      	sxth	r6, r5
   346d2:	f345 35c0 	sbfx	r5, r5, #15, #1
   346d6:	e7e3      	b.n	346a0 <_svfprintf_r+0x2f8>
   346d8:	f41b 7f00 	tst.w	fp, #512	; 0x200
   346dc:	d0f2      	beq.n	346c4 <_svfprintf_r+0x31c>
   346de:	b26e      	sxtb	r6, r5
   346e0:	f345 15c0 	sbfx	r5, r5, #7, #1
   346e4:	e7dc      	b.n	346a0 <_svfprintf_r+0x2f8>
   346e6:	3607      	adds	r6, #7
   346e8:	f04f 32ff 	mov.w	r2, #4294967295	; 0xffffffff
   346ec:	f026 0307 	bic.w	r3, r6, #7
   346f0:	ecb3 7b02 	vldmia	r3!, {d7}
   346f4:	ed8d 7b0e 	vstr	d7, [sp, #56]	; 0x38
   346f8:	9307      	str	r3, [sp, #28]
   346fa:	9b0e      	ldr	r3, [sp, #56]	; 0x38
   346fc:	ee09 3a10 	vmov	s18, r3
   34700:	9b0f      	ldr	r3, [sp, #60]	; 0x3c
   34702:	f023 4300 	bic.w	r3, r3, #2147483648	; 0x80000000
   34706:	ee09 3a90 	vmov	s19, r3
   3470a:	4b3a      	ldr	r3, [pc, #232]	; (347f4 <_svfprintf_r+0x44c>)
   3470c:	ec51 0b19 	vmov	r0, r1, d9
   34710:	f00b fbae 	bl	3fe70 <__aeabi_dcmpun>
   34714:	bb10      	cbnz	r0, 3475c <_svfprintf_r+0x3b4>
   34716:	f04f 32ff 	mov.w	r2, #4294967295	; 0xffffffff
   3471a:	4b36      	ldr	r3, [pc, #216]	; (347f4 <_svfprintf_r+0x44c>)
   3471c:	ec51 0b19 	vmov	r0, r1, d9
   34720:	f00b fb88 	bl	3fe34 <__aeabi_dcmple>
   34724:	b9d0      	cbnz	r0, 3475c <_svfprintf_r+0x3b4>
   34726:	2200      	movs	r2, #0
   34728:	2300      	movs	r3, #0
   3472a:	e9dd 010e 	ldrd	r0, r1, [sp, #56]	; 0x38
   3472e:	f00b fb77 	bl	3fe20 <__aeabi_dcmplt>
   34732:	b110      	cbz	r0, 3473a <_svfprintf_r+0x392>
   34734:	232d      	movs	r3, #45	; 0x2d
   34736:	f88d 306b 	strb.w	r3, [sp, #107]	; 0x6b
   3473a:	4a2f      	ldr	r2, [pc, #188]	; (347f8 <_svfprintf_r+0x450>)
   3473c:	482f      	ldr	r0, [pc, #188]	; (347fc <_svfprintf_r+0x454>)
   3473e:	9b06      	ldr	r3, [sp, #24]
   34740:	2100      	movs	r1, #0
   34742:	f02b 0b80 	bic.w	fp, fp, #128	; 0x80
   34746:	2b47      	cmp	r3, #71	; 0x47
   34748:	bfd4      	ite	le
   3474a:	4691      	movle	r9, r2
   3474c:	4681      	movgt	r9, r0
   3474e:	2303      	movs	r3, #3
   34750:	e9cd 1303 	strd	r1, r3, [sp, #12]
   34754:	2600      	movs	r6, #0
   34756:	4633      	mov	r3, r6
   34758:	f000 bffb 	b.w	35752 <_svfprintf_r+0x13aa>
   3475c:	e9dd 230e 	ldrd	r2, r3, [sp, #56]	; 0x38
   34760:	4610      	mov	r0, r2
   34762:	4619      	mov	r1, r3
   34764:	f00b fb84 	bl	3fe70 <__aeabi_dcmpun>
   34768:	b140      	cbz	r0, 3477c <_svfprintf_r+0x3d4>
   3476a:	9b0f      	ldr	r3, [sp, #60]	; 0x3c
   3476c:	4a24      	ldr	r2, [pc, #144]	; (34800 <_svfprintf_r+0x458>)
   3476e:	2b00      	cmp	r3, #0
   34770:	4824      	ldr	r0, [pc, #144]	; (34804 <_svfprintf_r+0x45c>)
   34772:	bfbc      	itt	lt
   34774:	232d      	movlt	r3, #45	; 0x2d
   34776:	f88d 306b 	strblt.w	r3, [sp, #107]	; 0x6b
   3477a:	e7e0      	b.n	3473e <_svfprintf_r+0x396>
   3477c:	9b06      	ldr	r3, [sp, #24]
   3477e:	f023 0320 	bic.w	r3, r3, #32
   34782:	2b41      	cmp	r3, #65	; 0x41
   34784:	9308      	str	r3, [sp, #32]
   34786:	d125      	bne.n	347d4 <_svfprintf_r+0x42c>
   34788:	2330      	movs	r3, #48	; 0x30
   3478a:	f04b 0b02 	orr.w	fp, fp, #2
   3478e:	f88d 306c 	strb.w	r3, [sp, #108]	; 0x6c
   34792:	9b06      	ldr	r3, [sp, #24]
   34794:	2b61      	cmp	r3, #97	; 0x61
   34796:	bf0c      	ite	eq
   34798:	2378      	moveq	r3, #120	; 0x78
   3479a:	2358      	movne	r3, #88	; 0x58
   3479c:	f88d 306d 	strb.w	r3, [sp, #109]	; 0x6d
   347a0:	9b04      	ldr	r3, [sp, #16]
   347a2:	2b63      	cmp	r3, #99	; 0x63
   347a4:	dd30      	ble.n	34808 <_svfprintf_r+0x460>
   347a6:	1c59      	adds	r1, r3, #1
   347a8:	4650      	mov	r0, sl
   347aa:	f005 f889 	bl	398c0 <_malloc_r>
   347ae:	4681      	mov	r9, r0
   347b0:	2800      	cmp	r0, #0
   347b2:	f040 81f9 	bne.w	34ba8 <_svfprintf_r+0x800>
   347b6:	f8b8 300c 	ldrh.w	r3, [r8, #12]
   347ba:	f043 0340 	orr.w	r3, r3, #64	; 0x40
   347be:	f8a8 300c 	strh.w	r3, [r8, #12]
   347c2:	f8b8 300c 	ldrh.w	r3, [r8, #12]
   347c6:	f013 0f40 	tst.w	r3, #64	; 0x40
   347ca:	9b0c      	ldr	r3, [sp, #48]	; 0x30
   347cc:	bf18      	it	ne
   347ce:	f04f 33ff 	movne.w	r3, #4294967295	; 0xffffffff
   347d2:	e60f      	b.n	343f4 <_svfprintf_r+0x4c>
   347d4:	9b04      	ldr	r3, [sp, #16]
   347d6:	3301      	adds	r3, #1
   347d8:	f000 81e8 	beq.w	34bac <_svfprintf_r+0x804>
   347dc:	9b08      	ldr	r3, [sp, #32]
   347de:	2b47      	cmp	r3, #71	; 0x47
   347e0:	f040 81e7 	bne.w	34bb2 <_svfprintf_r+0x80a>
   347e4:	9b04      	ldr	r3, [sp, #16]
   347e6:	2b00      	cmp	r3, #0
   347e8:	f040 81e3 	bne.w	34bb2 <_svfprintf_r+0x80a>
   347ec:	9303      	str	r3, [sp, #12]
   347ee:	2301      	movs	r3, #1
   347f0:	9304      	str	r3, [sp, #16]
   347f2:	e00c      	b.n	3480e <_svfprintf_r+0x466>
   347f4:	7fefffff 	.word	0x7fefffff
   347f8:	000404cf 	.word	0x000404cf
   347fc:	000404d3 	.word	0x000404d3
   34800:	000404d7 	.word	0x000404d7
   34804:	000404db 	.word	0x000404db
   34808:	f10d 09d4 	add.w	r9, sp, #212	; 0xd4
   3480c:	9003      	str	r0, [sp, #12]
   3480e:	f44b 7380 	orr.w	r3, fp, #256	; 0x100
   34812:	9311      	str	r3, [sp, #68]	; 0x44
   34814:	9b0f      	ldr	r3, [sp, #60]	; 0x3c
   34816:	2b00      	cmp	r3, #0
   34818:	f280 81cd 	bge.w	34bb6 <_svfprintf_r+0x80e>
   3481c:	9b0e      	ldr	r3, [sp, #56]	; 0x38
   3481e:	ee08 3a10 	vmov	s16, r3
   34822:	9b0f      	ldr	r3, [sp, #60]	; 0x3c
   34824:	f103 4300 	add.w	r3, r3, #2147483648	; 0x80000000
   34828:	ee08 3a90 	vmov	s17, r3
   3482c:	232d      	movs	r3, #45	; 0x2d
   3482e:	9318      	str	r3, [sp, #96]	; 0x60
   34830:	9b08      	ldr	r3, [sp, #32]
   34832:	2b41      	cmp	r3, #65	; 0x41
   34834:	f040 81dd 	bne.w	34bf2 <_svfprintf_r+0x84a>
   34838:	a81c      	add	r0, sp, #112	; 0x70
   3483a:	eeb0 0a48 	vmov.f32	s0, s16
   3483e:	eef0 0a68 	vmov.f32	s1, s17
   34842:	f006 fb0f 	bl	3ae64 <frexp>
   34846:	2200      	movs	r2, #0
   34848:	f04f 537f 	mov.w	r3, #1069547520	; 0x3fc00000
   3484c:	ec51 0b10 	vmov	r0, r1, d0
   34850:	f00b f874 	bl	3f93c <__aeabi_dmul>
   34854:	2200      	movs	r2, #0
   34856:	2300      	movs	r3, #0
   34858:	4606      	mov	r6, r0
   3485a:	460f      	mov	r7, r1
   3485c:	f00b fad6 	bl	3fe0c <__aeabi_dcmpeq>
   34860:	b108      	cbz	r0, 34866 <_svfprintf_r+0x4be>
   34862:	2301      	movs	r3, #1
   34864:	931c      	str	r3, [sp, #112]	; 0x70
   34866:	4ba5      	ldr	r3, [pc, #660]	; (34afc <_svfprintf_r+0x754>)
   34868:	464d      	mov	r5, r9
   3486a:	4aa5      	ldr	r2, [pc, #660]	; (34b00 <_svfprintf_r+0x758>)
   3486c:	9906      	ldr	r1, [sp, #24]
   3486e:	2961      	cmp	r1, #97	; 0x61
   34870:	bf18      	it	ne
   34872:	461a      	movne	r2, r3
   34874:	9b04      	ldr	r3, [sp, #16]
   34876:	3b01      	subs	r3, #1
   34878:	9217      	str	r2, [sp, #92]	; 0x5c
   3487a:	9305      	str	r3, [sp, #20]
   3487c:	2200      	movs	r2, #0
   3487e:	4ba1      	ldr	r3, [pc, #644]	; (34b04 <_svfprintf_r+0x75c>)
   34880:	4630      	mov	r0, r6
   34882:	4639      	mov	r1, r7
   34884:	f00b f85a 	bl	3f93c <__aeabi_dmul>
   34888:	460f      	mov	r7, r1
   3488a:	4606      	mov	r6, r0
   3488c:	f00b fb06 	bl	3fe9c <__aeabi_d2iz>
   34890:	9019      	str	r0, [sp, #100]	; 0x64
   34892:	f00a ffe9 	bl	3f868 <__aeabi_i2d>
   34896:	4602      	mov	r2, r0
   34898:	460b      	mov	r3, r1
   3489a:	4630      	mov	r0, r6
   3489c:	4639      	mov	r1, r7
   3489e:	f00a fe95 	bl	3f5cc <__aeabi_dsub>
   348a2:	9a19      	ldr	r2, [sp, #100]	; 0x64
   348a4:	9b17      	ldr	r3, [sp, #92]	; 0x5c
   348a6:	4606      	mov	r6, r0
   348a8:	460f      	mov	r7, r1
   348aa:	5c9b      	ldrb	r3, [r3, r2]
   348ac:	f805 3b01 	strb.w	r3, [r5], #1
   348b0:	9b05      	ldr	r3, [sp, #20]
   348b2:	1c5a      	adds	r2, r3, #1
   348b4:	9309      	str	r3, [sp, #36]	; 0x24
   348b6:	d007      	beq.n	348c8 <_svfprintf_r+0x520>
   348b8:	3b01      	subs	r3, #1
   348ba:	2200      	movs	r2, #0
   348bc:	9305      	str	r3, [sp, #20]
   348be:	2300      	movs	r3, #0
   348c0:	f00b faa4 	bl	3fe0c <__aeabi_dcmpeq>
   348c4:	2800      	cmp	r0, #0
   348c6:	d0d9      	beq.n	3487c <_svfprintf_r+0x4d4>
   348c8:	2200      	movs	r2, #0
   348ca:	4b8f      	ldr	r3, [pc, #572]	; (34b08 <_svfprintf_r+0x760>)
   348cc:	4630      	mov	r0, r6
   348ce:	4639      	mov	r1, r7
   348d0:	f00b fac4 	bl	3fe5c <__aeabi_dcmpgt>
   348d4:	b960      	cbnz	r0, 348f0 <_svfprintf_r+0x548>
   348d6:	2200      	movs	r2, #0
   348d8:	4b8b      	ldr	r3, [pc, #556]	; (34b08 <_svfprintf_r+0x760>)
   348da:	4630      	mov	r0, r6
   348dc:	4639      	mov	r1, r7
   348de:	f00b fa95 	bl	3fe0c <__aeabi_dcmpeq>
   348e2:	2800      	cmp	r0, #0
   348e4:	f000 8180 	beq.w	34be8 <_svfprintf_r+0x840>
   348e8:	9b19      	ldr	r3, [sp, #100]	; 0x64
   348ea:	07db      	lsls	r3, r3, #31
   348ec:	f140 817c 	bpl.w	34be8 <_svfprintf_r+0x840>
   348f0:	9b17      	ldr	r3, [sp, #92]	; 0x5c
   348f2:	2030      	movs	r0, #48	; 0x30
   348f4:	9520      	str	r5, [sp, #128]	; 0x80
   348f6:	7bd9      	ldrb	r1, [r3, #15]
   348f8:	9a20      	ldr	r2, [sp, #128]	; 0x80
   348fa:	1e53      	subs	r3, r2, #1
   348fc:	9320      	str	r3, [sp, #128]	; 0x80
   348fe:	f812 3c01 	ldrb.w	r3, [r2, #-1]
   34902:	428b      	cmp	r3, r1
   34904:	f000 815f 	beq.w	34bc6 <_svfprintf_r+0x81e>
   34908:	2b39      	cmp	r3, #57	; 0x39
   3490a:	bf0b      	itete	eq
   3490c:	9b17      	ldreq	r3, [sp, #92]	; 0x5c
   3490e:	3301      	addne	r3, #1
   34910:	7a9b      	ldrbeq	r3, [r3, #10]
   34912:	b2db      	uxtbne	r3, r3
   34914:	f802 3c01 	strb.w	r3, [r2, #-1]
   34918:	eba5 0309 	sub.w	r3, r5, r9
   3491c:	9d1c      	ldr	r5, [sp, #112]	; 0x70
   3491e:	9305      	str	r3, [sp, #20]
   34920:	9b08      	ldr	r3, [sp, #32]
   34922:	2b47      	cmp	r3, #71	; 0x47
   34924:	f040 81ad 	bne.w	34c82 <_svfprintf_r+0x8da>
   34928:	1cef      	adds	r7, r5, #3
   3492a:	db03      	blt.n	34934 <_svfprintf_r+0x58c>
   3492c:	9b04      	ldr	r3, [sp, #16]
   3492e:	42ab      	cmp	r3, r5
   34930:	f280 81d2 	bge.w	34cd8 <_svfprintf_r+0x930>
   34934:	9b06      	ldr	r3, [sp, #24]
   34936:	3b02      	subs	r3, #2
   34938:	9306      	str	r3, [sp, #24]
   3493a:	9906      	ldr	r1, [sp, #24]
   3493c:	1e6b      	subs	r3, r5, #1
   3493e:	f89d 2018 	ldrb.w	r2, [sp, #24]
   34942:	f021 0120 	bic.w	r1, r1, #32
   34946:	931c      	str	r3, [sp, #112]	; 0x70
   34948:	2941      	cmp	r1, #65	; 0x41
   3494a:	bf05      	ittet	eq
   3494c:	320f      	addeq	r2, #15
   3494e:	2101      	moveq	r1, #1
   34950:	2100      	movne	r1, #0
   34952:	b2d2      	uxtbeq	r2, r2
   34954:	2b00      	cmp	r3, #0
   34956:	bfb8      	it	lt
   34958:	f1c5 0301 	rsblt	r3, r5, #1
   3495c:	f88d 2078 	strb.w	r2, [sp, #120]	; 0x78
   34960:	bfb4      	ite	lt
   34962:	222d      	movlt	r2, #45	; 0x2d
   34964:	222b      	movge	r2, #43	; 0x2b
   34966:	2b09      	cmp	r3, #9
   34968:	f88d 2079 	strb.w	r2, [sp, #121]	; 0x79
   3496c:	f340 81a2 	ble.w	34cb4 <_svfprintf_r+0x90c>
   34970:	f10d 0287 	add.w	r2, sp, #135	; 0x87
   34974:	260a      	movs	r6, #10
   34976:	4611      	mov	r1, r2
   34978:	3a01      	subs	r2, #1
   3497a:	fb93 f5f6 	sdiv	r5, r3, r6
   3497e:	fb06 3015 	mls	r0, r6, r5, r3
   34982:	3030      	adds	r0, #48	; 0x30
   34984:	f801 0c01 	strb.w	r0, [r1, #-1]
   34988:	4618      	mov	r0, r3
   3498a:	462b      	mov	r3, r5
   3498c:	2863      	cmp	r0, #99	; 0x63
   3498e:	dcf2      	bgt.n	34976 <_svfprintf_r+0x5ce>
   34990:	3330      	adds	r3, #48	; 0x30
   34992:	1e88      	subs	r0, r1, #2
   34994:	f10d 0587 	add.w	r5, sp, #135	; 0x87
   34998:	f802 3c01 	strb.w	r3, [r2, #-1]
   3499c:	f10d 027a 	add.w	r2, sp, #122	; 0x7a
   349a0:	4603      	mov	r3, r0
   349a2:	42ab      	cmp	r3, r5
   349a4:	f0c0 8181 	bcc.w	34caa <_svfprintf_r+0x902>
   349a8:	f10d 0289 	add.w	r2, sp, #137	; 0x89
   349ac:	f10d 037a 	add.w	r3, sp, #122	; 0x7a
   349b0:	1a52      	subs	r2, r2, r1
   349b2:	42a8      	cmp	r0, r5
   349b4:	bf88      	it	hi
   349b6:	2200      	movhi	r2, #0
   349b8:	441a      	add	r2, r3
   349ba:	ab1e      	add	r3, sp, #120	; 0x78
   349bc:	1ad3      	subs	r3, r2, r3
   349be:	9a05      	ldr	r2, [sp, #20]
   349c0:	9315      	str	r3, [sp, #84]	; 0x54
   349c2:	2a01      	cmp	r2, #1
   349c4:	4413      	add	r3, r2
   349c6:	9304      	str	r3, [sp, #16]
   349c8:	dc02      	bgt.n	349d0 <_svfprintf_r+0x628>
   349ca:	f01b 0f01 	tst.w	fp, #1
   349ce:	d003      	beq.n	349d8 <_svfprintf_r+0x630>
   349d0:	9b04      	ldr	r3, [sp, #16]
   349d2:	9a0d      	ldr	r2, [sp, #52]	; 0x34
   349d4:	4413      	add	r3, r2
   349d6:	9304      	str	r3, [sp, #16]
   349d8:	f42b 6380 	bic.w	r3, fp, #1024	; 0x400
   349dc:	f443 7380 	orr.w	r3, r3, #256	; 0x100
   349e0:	9311      	str	r3, [sp, #68]	; 0x44
   349e2:	2300      	movs	r3, #0
   349e4:	461d      	mov	r5, r3
   349e6:	e9cd 3308 	strd	r3, r3, [sp, #32]
   349ea:	9b18      	ldr	r3, [sp, #96]	; 0x60
   349ec:	b113      	cbz	r3, 349f4 <_svfprintf_r+0x64c>
   349ee:	232d      	movs	r3, #45	; 0x2d
   349f0:	f88d 306b 	strb.w	r3, [sp, #107]	; 0x6b
   349f4:	f8dd b044 	ldr.w	fp, [sp, #68]	; 0x44
   349f8:	2600      	movs	r6, #0
   349fa:	9b04      	ldr	r3, [sp, #16]
   349fc:	42b3      	cmp	r3, r6
   349fe:	bfb8      	it	lt
   34a00:	4633      	movlt	r3, r6
   34a02:	9311      	str	r3, [sp, #68]	; 0x44
   34a04:	f89d 306b 	ldrb.w	r3, [sp, #107]	; 0x6b
   34a08:	b113      	cbz	r3, 34a10 <_svfprintf_r+0x668>
   34a0a:	9b11      	ldr	r3, [sp, #68]	; 0x44
   34a0c:	3301      	adds	r3, #1
   34a0e:	9311      	str	r3, [sp, #68]	; 0x44
   34a10:	f01b 0302 	ands.w	r3, fp, #2
   34a14:	9317      	str	r3, [sp, #92]	; 0x5c
   34a16:	bf1e      	ittt	ne
   34a18:	9b11      	ldrne	r3, [sp, #68]	; 0x44
   34a1a:	3302      	addne	r3, #2
   34a1c:	9311      	strne	r3, [sp, #68]	; 0x44
   34a1e:	f01b 0384 	ands.w	r3, fp, #132	; 0x84
   34a22:	9318      	str	r3, [sp, #96]	; 0x60
   34a24:	d11f      	bne.n	34a66 <_svfprintf_r+0x6be>
   34a26:	e9dd 3210 	ldrd	r3, r2, [sp, #64]	; 0x40
   34a2a:	1a9f      	subs	r7, r3, r2
   34a2c:	2f00      	cmp	r7, #0
   34a2e:	dd1a      	ble.n	34a66 <_svfprintf_r+0x6be>
   34a30:	4836      	ldr	r0, [pc, #216]	; (34b0c <_svfprintf_r+0x764>)
   34a32:	2f10      	cmp	r7, #16
   34a34:	f104 0108 	add.w	r1, r4, #8
   34a38:	6020      	str	r0, [r4, #0]
   34a3a:	e9dd 3223 	ldrd	r3, r2, [sp, #140]	; 0x8c
   34a3e:	f103 0301 	add.w	r3, r3, #1
   34a42:	f300 82eb 	bgt.w	3501c <_svfprintf_r+0xc74>
   34a46:	6067      	str	r7, [r4, #4]
   34a48:	2b07      	cmp	r3, #7
   34a4a:	4417      	add	r7, r2
   34a4c:	e9cd 3723 	strd	r3, r7, [sp, #140]	; 0x8c
   34a50:	f340 82f7 	ble.w	35042 <_svfprintf_r+0xc9a>
   34a54:	aa22      	add	r2, sp, #136	; 0x88
   34a56:	4641      	mov	r1, r8
   34a58:	4650      	mov	r0, sl
   34a5a:	f007 fbed 	bl	3c238 <__ssprint_r>
   34a5e:	2800      	cmp	r0, #0
   34a60:	f040 861f 	bne.w	356a2 <_svfprintf_r+0x12fa>
   34a64:	ac25      	add	r4, sp, #148	; 0x94
   34a66:	f89d 306b 	ldrb.w	r3, [sp, #107]	; 0x6b
   34a6a:	b173      	cbz	r3, 34a8a <_svfprintf_r+0x6e2>
   34a6c:	f10d 036b 	add.w	r3, sp, #107	; 0x6b
   34a70:	6023      	str	r3, [r4, #0]
   34a72:	2301      	movs	r3, #1
   34a74:	6063      	str	r3, [r4, #4]
   34a76:	9b24      	ldr	r3, [sp, #144]	; 0x90
   34a78:	3301      	adds	r3, #1
   34a7a:	9324      	str	r3, [sp, #144]	; 0x90
   34a7c:	9b23      	ldr	r3, [sp, #140]	; 0x8c
   34a7e:	3301      	adds	r3, #1
   34a80:	2b07      	cmp	r3, #7
   34a82:	9323      	str	r3, [sp, #140]	; 0x8c
   34a84:	f300 82df 	bgt.w	35046 <_svfprintf_r+0xc9e>
   34a88:	3408      	adds	r4, #8
   34a8a:	9b17      	ldr	r3, [sp, #92]	; 0x5c
   34a8c:	b16b      	cbz	r3, 34aaa <_svfprintf_r+0x702>
   34a8e:	ab1b      	add	r3, sp, #108	; 0x6c
   34a90:	6023      	str	r3, [r4, #0]
   34a92:	2302      	movs	r3, #2
   34a94:	6063      	str	r3, [r4, #4]
   34a96:	9b24      	ldr	r3, [sp, #144]	; 0x90
   34a98:	3302      	adds	r3, #2
   34a9a:	9324      	str	r3, [sp, #144]	; 0x90
   34a9c:	9b23      	ldr	r3, [sp, #140]	; 0x8c
   34a9e:	3301      	adds	r3, #1
   34aa0:	2b07      	cmp	r3, #7
   34aa2:	9323      	str	r3, [sp, #140]	; 0x8c
   34aa4:	f300 82d9 	bgt.w	3505a <_svfprintf_r+0xcb2>
   34aa8:	3408      	adds	r4, #8
   34aaa:	9b18      	ldr	r3, [sp, #96]	; 0x60
   34aac:	2b80      	cmp	r3, #128	; 0x80
   34aae:	d11f      	bne.n	34af0 <_svfprintf_r+0x748>
   34ab0:	e9dd 3210 	ldrd	r3, r2, [sp, #64]	; 0x40
   34ab4:	1a9f      	subs	r7, r3, r2
   34ab6:	2f00      	cmp	r7, #0
   34ab8:	dd1a      	ble.n	34af0 <_svfprintf_r+0x748>
   34aba:	4815      	ldr	r0, [pc, #84]	; (34b10 <_svfprintf_r+0x768>)
   34abc:	2f10      	cmp	r7, #16
   34abe:	f104 0108 	add.w	r1, r4, #8
   34ac2:	6020      	str	r0, [r4, #0]
   34ac4:	e9dd 3223 	ldrd	r3, r2, [sp, #140]	; 0x8c
   34ac8:	f103 0301 	add.w	r3, r3, #1
   34acc:	f300 82cf 	bgt.w	3506e <_svfprintf_r+0xcc6>
   34ad0:	6067      	str	r7, [r4, #4]
   34ad2:	2b07      	cmp	r3, #7
   34ad4:	4417      	add	r7, r2
   34ad6:	e9cd 3723 	strd	r3, r7, [sp, #140]	; 0x8c
   34ada:	f340 82db 	ble.w	35094 <_svfprintf_r+0xcec>
   34ade:	aa22      	add	r2, sp, #136	; 0x88
   34ae0:	4641      	mov	r1, r8
   34ae2:	4650      	mov	r0, sl
   34ae4:	f007 fba8 	bl	3c238 <__ssprint_r>
   34ae8:	2800      	cmp	r0, #0
   34aea:	f040 85da 	bne.w	356a2 <_svfprintf_r+0x12fa>
   34aee:	ac25      	add	r4, sp, #148	; 0x94
   34af0:	9b04      	ldr	r3, [sp, #16]
   34af2:	1af6      	subs	r6, r6, r3
   34af4:	2e00      	cmp	r6, #0
   34af6:	dd27      	ble.n	34b48 <_svfprintf_r+0x7a0>
   34af8:	4f05      	ldr	r7, [pc, #20]	; (34b10 <_svfprintf_r+0x768>)
   34afa:	e00b      	b.n	34b14 <_svfprintf_r+0x76c>
   34afc:	000404f0 	.word	0x000404f0
   34b00:	000404df 	.word	0x000404df
   34b04:	40300000 	.word	0x40300000
   34b08:	3fe00000 	.word	0x3fe00000
   34b0c:	00040503 	.word	0x00040503
   34b10:	00040513 	.word	0x00040513
   34b14:	2e10      	cmp	r6, #16
   34b16:	f104 0108 	add.w	r1, r4, #8
   34b1a:	6027      	str	r7, [r4, #0]
   34b1c:	e9dd 3223 	ldrd	r3, r2, [sp, #140]	; 0x8c
   34b20:	f103 0301 	add.w	r3, r3, #1
   34b24:	f300 82b8 	bgt.w	35098 <_svfprintf_r+0xcf0>
   34b28:	6066      	str	r6, [r4, #4]
   34b2a:	2b07      	cmp	r3, #7
   34b2c:	4416      	add	r6, r2
   34b2e:	e9cd 3623 	strd	r3, r6, [sp, #140]	; 0x8c
   34b32:	f340 82c4 	ble.w	350be <_svfprintf_r+0xd16>
   34b36:	aa22      	add	r2, sp, #136	; 0x88
   34b38:	4641      	mov	r1, r8
   34b3a:	4650      	mov	r0, sl
   34b3c:	f007 fb7c 	bl	3c238 <__ssprint_r>
   34b40:	2800      	cmp	r0, #0
   34b42:	f040 85ae 	bne.w	356a2 <_svfprintf_r+0x12fa>
   34b46:	ac25      	add	r4, sp, #148	; 0x94
   34b48:	f41b 7f80 	tst.w	fp, #256	; 0x100
   34b4c:	9e24      	ldr	r6, [sp, #144]	; 0x90
   34b4e:	f040 82bd 	bne.w	350cc <_svfprintf_r+0xd24>
   34b52:	9b04      	ldr	r3, [sp, #16]
   34b54:	f8c4 9000 	str.w	r9, [r4]
   34b58:	441e      	add	r6, r3
   34b5a:	6063      	str	r3, [r4, #4]
   34b5c:	9624      	str	r6, [sp, #144]	; 0x90
   34b5e:	9b23      	ldr	r3, [sp, #140]	; 0x8c
   34b60:	3301      	adds	r3, #1
   34b62:	2b07      	cmp	r3, #7
   34b64:	9323      	str	r3, [sp, #140]	; 0x8c
   34b66:	f300 82f6 	bgt.w	35156 <_svfprintf_r+0xdae>
   34b6a:	3408      	adds	r4, #8
   34b6c:	f01b 0f04 	tst.w	fp, #4
   34b70:	f040 8579 	bne.w	35666 <_svfprintf_r+0x12be>
   34b74:	9b0c      	ldr	r3, [sp, #48]	; 0x30
   34b76:	e9dd 2110 	ldrd	r2, r1, [sp, #64]	; 0x40
   34b7a:	428a      	cmp	r2, r1
   34b7c:	bfac      	ite	ge
   34b7e:	189b      	addge	r3, r3, r2
   34b80:	185b      	addlt	r3, r3, r1
   34b82:	930c      	str	r3, [sp, #48]	; 0x30
   34b84:	9b24      	ldr	r3, [sp, #144]	; 0x90
   34b86:	b13b      	cbz	r3, 34b98 <_svfprintf_r+0x7f0>
   34b88:	aa22      	add	r2, sp, #136	; 0x88
   34b8a:	4641      	mov	r1, r8
   34b8c:	4650      	mov	r0, sl
   34b8e:	f007 fb53 	bl	3c238 <__ssprint_r>
   34b92:	2800      	cmp	r0, #0
   34b94:	f040 8585 	bne.w	356a2 <_svfprintf_r+0x12fa>
   34b98:	2300      	movs	r3, #0
   34b9a:	9323      	str	r3, [sp, #140]	; 0x8c
   34b9c:	9b03      	ldr	r3, [sp, #12]
   34b9e:	2b00      	cmp	r3, #0
   34ba0:	f040 859b 	bne.w	356da <_svfprintf_r+0x1332>
   34ba4:	ac25      	add	r4, sp, #148	; 0x94
   34ba6:	e0ec      	b.n	34d82 <_svfprintf_r+0x9da>
   34ba8:	9003      	str	r0, [sp, #12]
   34baa:	e630      	b.n	3480e <_svfprintf_r+0x466>
   34bac:	2306      	movs	r3, #6
   34bae:	9003      	str	r0, [sp, #12]
   34bb0:	e61e      	b.n	347f0 <_svfprintf_r+0x448>
   34bb2:	9003      	str	r0, [sp, #12]
   34bb4:	e62b      	b.n	3480e <_svfprintf_r+0x466>
   34bb6:	ed9d 7b0e 	vldr	d7, [sp, #56]	; 0x38
   34bba:	2300      	movs	r3, #0
   34bbc:	eeb0 8a47 	vmov.f32	s16, s14
   34bc0:	eef0 8a67 	vmov.f32	s17, s15
   34bc4:	e633      	b.n	3482e <_svfprintf_r+0x486>
   34bc6:	f802 0c01 	strb.w	r0, [r2, #-1]
   34bca:	e695      	b.n	348f8 <_svfprintf_r+0x550>
   34bcc:	f803 0b01 	strb.w	r0, [r3], #1
   34bd0:	1aca      	subs	r2, r1, r3
   34bd2:	2a00      	cmp	r2, #0
   34bd4:	dafa      	bge.n	34bcc <_svfprintf_r+0x824>
   34bd6:	9a09      	ldr	r2, [sp, #36]	; 0x24
   34bd8:	9b09      	ldr	r3, [sp, #36]	; 0x24
   34bda:	3201      	adds	r2, #1
   34bdc:	f103 0301 	add.w	r3, r3, #1
   34be0:	bfb8      	it	lt
   34be2:	2300      	movlt	r3, #0
   34be4:	441d      	add	r5, r3
   34be6:	e697      	b.n	34918 <_svfprintf_r+0x570>
   34be8:	9a09      	ldr	r2, [sp, #36]	; 0x24
   34bea:	462b      	mov	r3, r5
   34bec:	2030      	movs	r0, #48	; 0x30
   34bee:	18a9      	adds	r1, r5, r2
   34bf0:	e7ee      	b.n	34bd0 <_svfprintf_r+0x828>
   34bf2:	9b08      	ldr	r3, [sp, #32]
   34bf4:	2b46      	cmp	r3, #70	; 0x46
   34bf6:	d005      	beq.n	34c04 <_svfprintf_r+0x85c>
   34bf8:	2b45      	cmp	r3, #69	; 0x45
   34bfa:	d11b      	bne.n	34c34 <_svfprintf_r+0x88c>
   34bfc:	9b04      	ldr	r3, [sp, #16]
   34bfe:	1c5d      	adds	r5, r3, #1
   34c00:	2102      	movs	r1, #2
   34c02:	e001      	b.n	34c08 <_svfprintf_r+0x860>
   34c04:	9d04      	ldr	r5, [sp, #16]
   34c06:	2103      	movs	r1, #3
   34c08:	ab20      	add	r3, sp, #128	; 0x80
   34c0a:	eeb0 0a48 	vmov.f32	s0, s16
   34c0e:	eef0 0a68 	vmov.f32	s1, s17
   34c12:	462a      	mov	r2, r5
   34c14:	4650      	mov	r0, sl
   34c16:	9301      	str	r3, [sp, #4]
   34c18:	ab1d      	add	r3, sp, #116	; 0x74
   34c1a:	9300      	str	r3, [sp, #0]
   34c1c:	ab1c      	add	r3, sp, #112	; 0x70
   34c1e:	f003 fb48 	bl	382b2 <_dtoa_r>
   34c22:	9b08      	ldr	r3, [sp, #32]
   34c24:	4681      	mov	r9, r0
   34c26:	2b47      	cmp	r3, #71	; 0x47
   34c28:	d106      	bne.n	34c38 <_svfprintf_r+0x890>
   34c2a:	f01b 0f01 	tst.w	fp, #1
   34c2e:	d103      	bne.n	34c38 <_svfprintf_r+0x890>
   34c30:	9d20      	ldr	r5, [sp, #128]	; 0x80
   34c32:	e671      	b.n	34918 <_svfprintf_r+0x570>
   34c34:	9d04      	ldr	r5, [sp, #16]
   34c36:	e7e3      	b.n	34c00 <_svfprintf_r+0x858>
   34c38:	9b08      	ldr	r3, [sp, #32]
   34c3a:	eb09 0605 	add.w	r6, r9, r5
   34c3e:	2b46      	cmp	r3, #70	; 0x46
   34c40:	d10f      	bne.n	34c62 <_svfprintf_r+0x8ba>
   34c42:	f899 3000 	ldrb.w	r3, [r9]
   34c46:	2b30      	cmp	r3, #48	; 0x30
   34c48:	d109      	bne.n	34c5e <_svfprintf_r+0x8b6>
   34c4a:	2200      	movs	r2, #0
   34c4c:	2300      	movs	r3, #0
   34c4e:	ec51 0b18 	vmov	r0, r1, d8
   34c52:	f00b f8db 	bl	3fe0c <__aeabi_dcmpeq>
   34c56:	b910      	cbnz	r0, 34c5e <_svfprintf_r+0x8b6>
   34c58:	f1c5 0501 	rsb	r5, r5, #1
   34c5c:	951c      	str	r5, [sp, #112]	; 0x70
   34c5e:	9b1c      	ldr	r3, [sp, #112]	; 0x70
   34c60:	441e      	add	r6, r3
   34c62:	2200      	movs	r2, #0
   34c64:	2300      	movs	r3, #0
   34c66:	ec51 0b18 	vmov	r0, r1, d8
   34c6a:	f00b f8cf 	bl	3fe0c <__aeabi_dcmpeq>
   34c6e:	b100      	cbz	r0, 34c72 <_svfprintf_r+0x8ca>
   34c70:	9620      	str	r6, [sp, #128]	; 0x80
   34c72:	2230      	movs	r2, #48	; 0x30
   34c74:	9b20      	ldr	r3, [sp, #128]	; 0x80
   34c76:	429e      	cmp	r6, r3
   34c78:	d9da      	bls.n	34c30 <_svfprintf_r+0x888>
   34c7a:	1c59      	adds	r1, r3, #1
   34c7c:	9120      	str	r1, [sp, #128]	; 0x80
   34c7e:	701a      	strb	r2, [r3, #0]
   34c80:	e7f8      	b.n	34c74 <_svfprintf_r+0x8cc>
   34c82:	9b08      	ldr	r3, [sp, #32]
   34c84:	2b46      	cmp	r3, #70	; 0x46
   34c86:	f47f ae58 	bne.w	3493a <_svfprintf_r+0x592>
   34c8a:	f00b 0301 	and.w	r3, fp, #1
   34c8e:	9a04      	ldr	r2, [sp, #16]
   34c90:	2d00      	cmp	r5, #0
   34c92:	ea43 0302 	orr.w	r3, r3, r2
   34c96:	dd1a      	ble.n	34cce <_svfprintf_r+0x926>
   34c98:	2b00      	cmp	r3, #0
   34c9a:	d034      	beq.n	34d06 <_svfprintf_r+0x95e>
   34c9c:	9b0d      	ldr	r3, [sp, #52]	; 0x34
   34c9e:	18eb      	adds	r3, r5, r3
   34ca0:	441a      	add	r2, r3
   34ca2:	9204      	str	r2, [sp, #16]
   34ca4:	2366      	movs	r3, #102	; 0x66
   34ca6:	9306      	str	r3, [sp, #24]
   34ca8:	e033      	b.n	34d12 <_svfprintf_r+0x96a>
   34caa:	f813 6b01 	ldrb.w	r6, [r3], #1
   34cae:	f802 6b01 	strb.w	r6, [r2], #1
   34cb2:	e676      	b.n	349a2 <_svfprintf_r+0x5fa>
   34cb4:	b941      	cbnz	r1, 34cc8 <_svfprintf_r+0x920>
   34cb6:	2230      	movs	r2, #48	; 0x30
   34cb8:	f88d 207a 	strb.w	r2, [sp, #122]	; 0x7a
   34cbc:	f10d 027b 	add.w	r2, sp, #123	; 0x7b
   34cc0:	3330      	adds	r3, #48	; 0x30
   34cc2:	f802 3b01 	strb.w	r3, [r2], #1
   34cc6:	e678      	b.n	349ba <_svfprintf_r+0x612>
   34cc8:	f10d 027a 	add.w	r2, sp, #122	; 0x7a
   34ccc:	e7f8      	b.n	34cc0 <_svfprintf_r+0x918>
   34cce:	b1e3      	cbz	r3, 34d0a <_svfprintf_r+0x962>
   34cd0:	9b0d      	ldr	r3, [sp, #52]	; 0x34
   34cd2:	9a04      	ldr	r2, [sp, #16]
   34cd4:	3301      	adds	r3, #1
   34cd6:	e7e3      	b.n	34ca0 <_svfprintf_r+0x8f8>
   34cd8:	9b05      	ldr	r3, [sp, #20]
   34cda:	429d      	cmp	r5, r3
   34cdc:	db07      	blt.n	34cee <_svfprintf_r+0x946>
   34cde:	f01b 0f01 	tst.w	fp, #1
   34ce2:	d02d      	beq.n	34d40 <_svfprintf_r+0x998>
   34ce4:	9b0d      	ldr	r3, [sp, #52]	; 0x34
   34ce6:	18eb      	adds	r3, r5, r3
   34ce8:	9304      	str	r3, [sp, #16]
   34cea:	2367      	movs	r3, #103	; 0x67
   34cec:	e7db      	b.n	34ca6 <_svfprintf_r+0x8fe>
   34cee:	9b05      	ldr	r3, [sp, #20]
   34cf0:	2d00      	cmp	r5, #0
   34cf2:	9a0d      	ldr	r2, [sp, #52]	; 0x34
   34cf4:	4413      	add	r3, r2
   34cf6:	9304      	str	r3, [sp, #16]
   34cf8:	dcf7      	bgt.n	34cea <_svfprintf_r+0x942>
   34cfa:	9a04      	ldr	r2, [sp, #16]
   34cfc:	f1c5 0301 	rsb	r3, r5, #1
   34d00:	441a      	add	r2, r3
   34d02:	9204      	str	r2, [sp, #16]
   34d04:	e7f1      	b.n	34cea <_svfprintf_r+0x942>
   34d06:	9504      	str	r5, [sp, #16]
   34d08:	e7cc      	b.n	34ca4 <_svfprintf_r+0x8fc>
   34d0a:	2366      	movs	r3, #102	; 0x66
   34d0c:	9306      	str	r3, [sp, #24]
   34d0e:	2301      	movs	r3, #1
   34d10:	9304      	str	r3, [sp, #16]
   34d12:	f41b 6380 	ands.w	r3, fp, #1024	; 0x400
   34d16:	9309      	str	r3, [sp, #36]	; 0x24
   34d18:	d025      	beq.n	34d66 <_svfprintf_r+0x9be>
   34d1a:	2300      	movs	r3, #0
   34d1c:	2d00      	cmp	r5, #0
   34d1e:	e9cd 3308 	strd	r3, r3, [sp, #32]
   34d22:	f77f ae62 	ble.w	349ea <_svfprintf_r+0x642>
   34d26:	9b0a      	ldr	r3, [sp, #40]	; 0x28
   34d28:	781b      	ldrb	r3, [r3, #0]
   34d2a:	2bff      	cmp	r3, #255	; 0xff
   34d2c:	d10a      	bne.n	34d44 <_svfprintf_r+0x99c>
   34d2e:	e9dd 2308 	ldrd	r2, r3, [sp, #32]
   34d32:	9912      	ldr	r1, [sp, #72]	; 0x48
   34d34:	4413      	add	r3, r2
   34d36:	9a04      	ldr	r2, [sp, #16]
   34d38:	fb01 2303 	mla	r3, r1, r3, r2
   34d3c:	9304      	str	r3, [sp, #16]
   34d3e:	e654      	b.n	349ea <_svfprintf_r+0x642>
   34d40:	9504      	str	r5, [sp, #16]
   34d42:	e7d2      	b.n	34cea <_svfprintf_r+0x942>
   34d44:	42ab      	cmp	r3, r5
   34d46:	daf2      	bge.n	34d2e <_svfprintf_r+0x986>
   34d48:	1aed      	subs	r5, r5, r3
   34d4a:	9b0a      	ldr	r3, [sp, #40]	; 0x28
   34d4c:	785b      	ldrb	r3, [r3, #1]
   34d4e:	b133      	cbz	r3, 34d5e <_svfprintf_r+0x9b6>
   34d50:	9b09      	ldr	r3, [sp, #36]	; 0x24
   34d52:	3301      	adds	r3, #1
   34d54:	9309      	str	r3, [sp, #36]	; 0x24
   34d56:	9b0a      	ldr	r3, [sp, #40]	; 0x28
   34d58:	3301      	adds	r3, #1
   34d5a:	930a      	str	r3, [sp, #40]	; 0x28
   34d5c:	e7e3      	b.n	34d26 <_svfprintf_r+0x97e>
   34d5e:	9b08      	ldr	r3, [sp, #32]
   34d60:	3301      	adds	r3, #1
   34d62:	9308      	str	r3, [sp, #32]
   34d64:	e7df      	b.n	34d26 <_svfprintf_r+0x97e>
   34d66:	9b09      	ldr	r3, [sp, #36]	; 0x24
   34d68:	9308      	str	r3, [sp, #32]
   34d6a:	e63e      	b.n	349ea <_svfprintf_r+0x642>
   34d6c:	1d33      	adds	r3, r6, #4
   34d6e:	f01b 0f20 	tst.w	fp, #32
   34d72:	9307      	str	r3, [sp, #28]
   34d74:	d00a      	beq.n	34d8c <_svfprintf_r+0x9e4>
   34d76:	9a0c      	ldr	r2, [sp, #48]	; 0x30
   34d78:	6833      	ldr	r3, [r6, #0]
   34d7a:	17d2      	asrs	r2, r2, #31
   34d7c:	990c      	ldr	r1, [sp, #48]	; 0x30
   34d7e:	e9c3 1200 	strd	r1, r2, [r3]
   34d82:	9e07      	ldr	r6, [sp, #28]
   34d84:	f8dd 902c 	ldr.w	r9, [sp, #44]	; 0x2c
   34d88:	f7ff bb4e 	b.w	34428 <_svfprintf_r+0x80>
   34d8c:	f01b 0f10 	tst.w	fp, #16
   34d90:	d003      	beq.n	34d9a <_svfprintf_r+0x9f2>
   34d92:	6833      	ldr	r3, [r6, #0]
   34d94:	9a0c      	ldr	r2, [sp, #48]	; 0x30
   34d96:	601a      	str	r2, [r3, #0]
   34d98:	e7f3      	b.n	34d82 <_svfprintf_r+0x9da>
   34d9a:	f01b 0f40 	tst.w	fp, #64	; 0x40
   34d9e:	d003      	beq.n	34da8 <_svfprintf_r+0xa00>
   34da0:	6833      	ldr	r3, [r6, #0]
   34da2:	9a0c      	ldr	r2, [sp, #48]	; 0x30
   34da4:	801a      	strh	r2, [r3, #0]
   34da6:	e7ec      	b.n	34d82 <_svfprintf_r+0x9da>
   34da8:	f41b 7f00 	tst.w	fp, #512	; 0x200
   34dac:	d0f1      	beq.n	34d92 <_svfprintf_r+0x9ea>
   34dae:	6833      	ldr	r3, [r6, #0]
   34db0:	9a0c      	ldr	r2, [sp, #48]	; 0x30
   34db2:	701a      	strb	r2, [r3, #0]
   34db4:	e7e5      	b.n	34d82 <_svfprintf_r+0x9da>
   34db6:	f04b 0b10 	orr.w	fp, fp, #16
   34dba:	f01b 0320 	ands.w	r3, fp, #32
   34dbe:	d01f      	beq.n	34e00 <_svfprintf_r+0xa58>
   34dc0:	1df3      	adds	r3, r6, #7
   34dc2:	f023 0307 	bic.w	r3, r3, #7
   34dc6:	461a      	mov	r2, r3
   34dc8:	685d      	ldr	r5, [r3, #4]
   34dca:	f852 6b08 	ldr.w	r6, [r2], #8
   34dce:	9207      	str	r2, [sp, #28]
   34dd0:	f42b 6b80 	bic.w	fp, fp, #1024	; 0x400
   34dd4:	2300      	movs	r3, #0
   34dd6:	2200      	movs	r2, #0
   34dd8:	f88d 206b 	strb.w	r2, [sp, #107]	; 0x6b
   34ddc:	9a04      	ldr	r2, [sp, #16]
   34dde:	3201      	adds	r2, #1
   34de0:	f000 848c 	beq.w	356fc <_svfprintf_r+0x1354>
   34de4:	ea56 0205 	orrs.w	r2, r6, r5
   34de8:	f02b 0780 	bic.w	r7, fp, #128	; 0x80
   34dec:	f040 848b 	bne.w	35706 <_svfprintf_r+0x135e>
   34df0:	9a04      	ldr	r2, [sp, #16]
   34df2:	2a00      	cmp	r2, #0
   34df4:	f000 80f8 	beq.w	34fe8 <_svfprintf_r+0xc40>
   34df8:	2b01      	cmp	r3, #1
   34dfa:	f040 8487 	bne.w	3570c <_svfprintf_r+0x1364>
   34dfe:	e09e      	b.n	34f3e <_svfprintf_r+0xb96>
   34e00:	4632      	mov	r2, r6
   34e02:	f01b 0510 	ands.w	r5, fp, #16
   34e06:	f852 6b04 	ldr.w	r6, [r2], #4
   34e0a:	9207      	str	r2, [sp, #28]
   34e0c:	d001      	beq.n	34e12 <_svfprintf_r+0xa6a>
   34e0e:	461d      	mov	r5, r3
   34e10:	e7de      	b.n	34dd0 <_svfprintf_r+0xa28>
   34e12:	f01b 0340 	ands.w	r3, fp, #64	; 0x40
   34e16:	d001      	beq.n	34e1c <_svfprintf_r+0xa74>
   34e18:	b2b6      	uxth	r6, r6
   34e1a:	e7d9      	b.n	34dd0 <_svfprintf_r+0xa28>
   34e1c:	f41b 7500 	ands.w	r5, fp, #512	; 0x200
   34e20:	d0d6      	beq.n	34dd0 <_svfprintf_r+0xa28>
   34e22:	b2f6      	uxtb	r6, r6
   34e24:	e7f3      	b.n	34e0e <_svfprintf_r+0xa66>
   34e26:	4633      	mov	r3, r6
   34e28:	2278      	movs	r2, #120	; 0x78
   34e2a:	2500      	movs	r5, #0
   34e2c:	f04b 0b02 	orr.w	fp, fp, #2
   34e30:	f853 6b04 	ldr.w	r6, [r3], #4
   34e34:	9206      	str	r2, [sp, #24]
   34e36:	9307      	str	r3, [sp, #28]
   34e38:	f647 0330 	movw	r3, #30768	; 0x7830
   34e3c:	f8ad 306c 	strh.w	r3, [sp, #108]	; 0x6c
   34e40:	4ba0      	ldr	r3, [pc, #640]	; (350c4 <_svfprintf_r+0xd1c>)
   34e42:	9316      	str	r3, [sp, #88]	; 0x58
   34e44:	2302      	movs	r3, #2
   34e46:	e7c6      	b.n	34dd6 <_svfprintf_r+0xa2e>
   34e48:	4633      	mov	r3, r6
   34e4a:	2500      	movs	r5, #0
   34e4c:	f853 9b04 	ldr.w	r9, [r3], #4
   34e50:	f88d 506b 	strb.w	r5, [sp, #107]	; 0x6b
   34e54:	9307      	str	r3, [sp, #28]
   34e56:	9b04      	ldr	r3, [sp, #16]
   34e58:	1c58      	adds	r0, r3, #1
   34e5a:	d010      	beq.n	34e7e <_svfprintf_r+0xad6>
   34e5c:	461a      	mov	r2, r3
   34e5e:	4629      	mov	r1, r5
   34e60:	4648      	mov	r0, r9
   34e62:	f004 ffa1 	bl	39da8 <memchr>
   34e66:	9003      	str	r0, [sp, #12]
   34e68:	2800      	cmp	r0, #0
   34e6a:	f000 80d4 	beq.w	35016 <_svfprintf_r+0xc6e>
   34e6e:	eba0 0309 	sub.w	r3, r0, r9
   34e72:	462e      	mov	r6, r5
   34e74:	e9cd 5303 	strd	r5, r3, [sp, #12]
   34e78:	e9cd 5508 	strd	r5, r5, [sp, #32]
   34e7c:	e5bd      	b.n	349fa <_svfprintf_r+0x652>
   34e7e:	4648      	mov	r0, r9
   34e80:	f7fe ff56 	bl	33d30 <strlen>
   34e84:	e9cd 5003 	strd	r5, r0, [sp, #12]
   34e88:	e464      	b.n	34754 <_svfprintf_r+0x3ac>
   34e8a:	f04b 0b10 	orr.w	fp, fp, #16
   34e8e:	f01b 0320 	ands.w	r3, fp, #32
   34e92:	d009      	beq.n	34ea8 <_svfprintf_r+0xb00>
   34e94:	1df3      	adds	r3, r6, #7
   34e96:	f023 0307 	bic.w	r3, r3, #7
   34e9a:	461a      	mov	r2, r3
   34e9c:	685d      	ldr	r5, [r3, #4]
   34e9e:	f852 6b08 	ldr.w	r6, [r2], #8
   34ea2:	9207      	str	r2, [sp, #28]
   34ea4:	2301      	movs	r3, #1
   34ea6:	e796      	b.n	34dd6 <_svfprintf_r+0xa2e>
   34ea8:	4632      	mov	r2, r6
   34eaa:	f01b 0510 	ands.w	r5, fp, #16
   34eae:	f852 6b04 	ldr.w	r6, [r2], #4
   34eb2:	9207      	str	r2, [sp, #28]
   34eb4:	d001      	beq.n	34eba <_svfprintf_r+0xb12>
   34eb6:	461d      	mov	r5, r3
   34eb8:	e7f4      	b.n	34ea4 <_svfprintf_r+0xafc>
   34eba:	f01b 0340 	ands.w	r3, fp, #64	; 0x40
   34ebe:	d001      	beq.n	34ec4 <_svfprintf_r+0xb1c>
   34ec0:	b2b6      	uxth	r6, r6
   34ec2:	e7ef      	b.n	34ea4 <_svfprintf_r+0xafc>
   34ec4:	f41b 7500 	ands.w	r5, fp, #512	; 0x200
   34ec8:	d0ec      	beq.n	34ea4 <_svfprintf_r+0xafc>
   34eca:	b2f6      	uxtb	r6, r6
   34ecc:	e7f3      	b.n	34eb6 <_svfprintf_r+0xb0e>
   34ece:	4b7e      	ldr	r3, [pc, #504]	; (350c8 <_svfprintf_r+0xd20>)
   34ed0:	9316      	str	r3, [sp, #88]	; 0x58
   34ed2:	f01b 0320 	ands.w	r3, fp, #32
   34ed6:	d01b      	beq.n	34f10 <_svfprintf_r+0xb68>
   34ed8:	1df3      	adds	r3, r6, #7
   34eda:	f023 0307 	bic.w	r3, r3, #7
   34ede:	461a      	mov	r2, r3
   34ee0:	685d      	ldr	r5, [r3, #4]
   34ee2:	f852 6b08 	ldr.w	r6, [r2], #8
   34ee6:	9207      	str	r2, [sp, #28]
   34ee8:	f01b 0f01 	tst.w	fp, #1
   34eec:	d00a      	beq.n	34f04 <_svfprintf_r+0xb5c>
   34eee:	ea56 0305 	orrs.w	r3, r6, r5
   34ef2:	d007      	beq.n	34f04 <_svfprintf_r+0xb5c>
   34ef4:	2330      	movs	r3, #48	; 0x30
   34ef6:	f04b 0b02 	orr.w	fp, fp, #2
   34efa:	f88d 306c 	strb.w	r3, [sp, #108]	; 0x6c
   34efe:	9b06      	ldr	r3, [sp, #24]
   34f00:	f88d 306d 	strb.w	r3, [sp, #109]	; 0x6d
   34f04:	f42b 6b80 	bic.w	fp, fp, #1024	; 0x400
   34f08:	2302      	movs	r3, #2
   34f0a:	e764      	b.n	34dd6 <_svfprintf_r+0xa2e>
   34f0c:	4b6d      	ldr	r3, [pc, #436]	; (350c4 <_svfprintf_r+0xd1c>)
   34f0e:	e7df      	b.n	34ed0 <_svfprintf_r+0xb28>
   34f10:	4632      	mov	r2, r6
   34f12:	f01b 0510 	ands.w	r5, fp, #16
   34f16:	f852 6b04 	ldr.w	r6, [r2], #4
   34f1a:	9207      	str	r2, [sp, #28]
   34f1c:	d001      	beq.n	34f22 <_svfprintf_r+0xb7a>
   34f1e:	461d      	mov	r5, r3
   34f20:	e7e2      	b.n	34ee8 <_svfprintf_r+0xb40>
   34f22:	f01b 0340 	ands.w	r3, fp, #64	; 0x40
   34f26:	d001      	beq.n	34f2c <_svfprintf_r+0xb84>
   34f28:	b2b6      	uxth	r6, r6
   34f2a:	e7dd      	b.n	34ee8 <_svfprintf_r+0xb40>
   34f2c:	f41b 7500 	ands.w	r5, fp, #512	; 0x200
   34f30:	d0da      	beq.n	34ee8 <_svfprintf_r+0xb40>
   34f32:	b2f6      	uxtb	r6, r6
   34f34:	e7f3      	b.n	34f1e <_svfprintf_r+0xb76>
   34f36:	2e0a      	cmp	r6, #10
   34f38:	f175 0300 	sbcs.w	r3, r5, #0
   34f3c:	d205      	bcs.n	34f4a <_svfprintf_r+0xba2>
   34f3e:	3630      	adds	r6, #48	; 0x30
   34f40:	f88d 6137 	strb.w	r6, [sp, #311]	; 0x137
   34f44:	f20d 1937 	addw	r9, sp, #311	; 0x137
   34f48:	e3fb      	b.n	35742 <_svfprintf_r+0x139a>
   34f4a:	2300      	movs	r3, #0
   34f4c:	f50d 7b9c 	add.w	fp, sp, #312	; 0x138
   34f50:	9305      	str	r3, [sp, #20]
   34f52:	f407 6380 	and.w	r3, r7, #1024	; 0x400
   34f56:	9303      	str	r3, [sp, #12]
   34f58:	220a      	movs	r2, #10
   34f5a:	2300      	movs	r3, #0
   34f5c:	4630      	mov	r0, r6
   34f5e:	4629      	mov	r1, r5
   34f60:	f00b f834 	bl	3ffcc <__aeabi_uldivmod>
   34f64:	9b05      	ldr	r3, [sp, #20]
   34f66:	3230      	adds	r2, #48	; 0x30
   34f68:	f10b 39ff 	add.w	r9, fp, #4294967295	; 0xffffffff
   34f6c:	3301      	adds	r3, #1
   34f6e:	f80b 2c01 	strb.w	r2, [fp, #-1]
   34f72:	9305      	str	r3, [sp, #20]
   34f74:	9b03      	ldr	r3, [sp, #12]
   34f76:	b1d3      	cbz	r3, 34fae <_svfprintf_r+0xc06>
   34f78:	9b0a      	ldr	r3, [sp, #40]	; 0x28
   34f7a:	9a05      	ldr	r2, [sp, #20]
   34f7c:	781b      	ldrb	r3, [r3, #0]
   34f7e:	429a      	cmp	r2, r3
   34f80:	d115      	bne.n	34fae <_svfprintf_r+0xc06>
   34f82:	2aff      	cmp	r2, #255	; 0xff
   34f84:	d013      	beq.n	34fae <_svfprintf_r+0xc06>
   34f86:	2e0a      	cmp	r6, #10
   34f88:	f175 0300 	sbcs.w	r3, r5, #0
   34f8c:	d30f      	bcc.n	34fae <_svfprintf_r+0xc06>
   34f8e:	9b12      	ldr	r3, [sp, #72]	; 0x48
   34f90:	9914      	ldr	r1, [sp, #80]	; 0x50
   34f92:	eba9 0903 	sub.w	r9, r9, r3
   34f96:	461a      	mov	r2, r3
   34f98:	4648      	mov	r0, r9
   34f9a:	f7fe ff46 	bl	33e2a <strncpy>
   34f9e:	9b0a      	ldr	r3, [sp, #40]	; 0x28
   34fa0:	785b      	ldrb	r3, [r3, #1]
   34fa2:	b11b      	cbz	r3, 34fac <_svfprintf_r+0xc04>
   34fa4:	9b0a      	ldr	r3, [sp, #40]	; 0x28
   34fa6:	3301      	adds	r3, #1
   34fa8:	930a      	str	r3, [sp, #40]	; 0x28
   34faa:	2300      	movs	r3, #0
   34fac:	9305      	str	r3, [sp, #20]
   34fae:	2300      	movs	r3, #0
   34fb0:	220a      	movs	r2, #10
   34fb2:	4630      	mov	r0, r6
   34fb4:	4629      	mov	r1, r5
   34fb6:	f00b f809 	bl	3ffcc <__aeabi_uldivmod>
   34fba:	2e0a      	cmp	r6, #10
   34fbc:	f175 0300 	sbcs.w	r3, r5, #0
   34fc0:	f0c0 83bf 	bcc.w	35742 <_svfprintf_r+0x139a>
   34fc4:	4606      	mov	r6, r0
   34fc6:	460d      	mov	r5, r1
   34fc8:	46cb      	mov	fp, r9
   34fca:	e7c5      	b.n	34f58 <_svfprintf_r+0xbb0>
   34fcc:	f006 030f 	and.w	r3, r6, #15
   34fd0:	9a16      	ldr	r2, [sp, #88]	; 0x58
   34fd2:	0936      	lsrs	r6, r6, #4
   34fd4:	5cd3      	ldrb	r3, [r2, r3]
   34fd6:	ea46 7605 	orr.w	r6, r6, r5, lsl #28
   34fda:	092d      	lsrs	r5, r5, #4
   34fdc:	f809 3d01 	strb.w	r3, [r9, #-1]!
   34fe0:	ea56 0305 	orrs.w	r3, r6, r5
   34fe4:	d1f2      	bne.n	34fcc <_svfprintf_r+0xc24>
   34fe6:	e3ac      	b.n	35742 <_svfprintf_r+0x139a>
   34fe8:	b933      	cbnz	r3, 34ff8 <_svfprintf_r+0xc50>
   34fea:	f01b 0f01 	tst.w	fp, #1
   34fee:	d003      	beq.n	34ff8 <_svfprintf_r+0xc50>
   34ff0:	2330      	movs	r3, #48	; 0x30
   34ff2:	f88d 3137 	strb.w	r3, [sp, #311]	; 0x137
   34ff6:	e7a5      	b.n	34f44 <_svfprintf_r+0xb9c>
   34ff8:	f50d 799c 	add.w	r9, sp, #312	; 0x138
   34ffc:	e3a1      	b.n	35742 <_svfprintf_r+0x139a>
   34ffe:	9b06      	ldr	r3, [sp, #24]
   35000:	2b00      	cmp	r3, #0
   35002:	f000 8370 	beq.w	356e6 <_svfprintf_r+0x133e>
   35006:	2000      	movs	r0, #0
   35008:	f88d 30d4 	strb.w	r3, [sp, #212]	; 0xd4
   3500c:	9607      	str	r6, [sp, #28]
   3500e:	f88d 006b 	strb.w	r0, [sp, #107]	; 0x6b
   35012:	f7ff bb2e 	b.w	34672 <_svfprintf_r+0x2ca>
   35016:	9e03      	ldr	r6, [sp, #12]
   35018:	f7ff bb9d 	b.w	34756 <_svfprintf_r+0x3ae>
   3501c:	2010      	movs	r0, #16
   3501e:	2b07      	cmp	r3, #7
   35020:	4402      	add	r2, r0
   35022:	6060      	str	r0, [r4, #4]
   35024:	e9cd 3223 	strd	r3, r2, [sp, #140]	; 0x8c
   35028:	dd08      	ble.n	3503c <_svfprintf_r+0xc94>
   3502a:	aa22      	add	r2, sp, #136	; 0x88
   3502c:	4641      	mov	r1, r8
   3502e:	4650      	mov	r0, sl
   35030:	f007 f902 	bl	3c238 <__ssprint_r>
   35034:	2800      	cmp	r0, #0
   35036:	f040 8334 	bne.w	356a2 <_svfprintf_r+0x12fa>
   3503a:	a925      	add	r1, sp, #148	; 0x94
   3503c:	3f10      	subs	r7, #16
   3503e:	460c      	mov	r4, r1
   35040:	e4f6      	b.n	34a30 <_svfprintf_r+0x688>
   35042:	460c      	mov	r4, r1
   35044:	e50f      	b.n	34a66 <_svfprintf_r+0x6be>
   35046:	aa22      	add	r2, sp, #136	; 0x88
   35048:	4641      	mov	r1, r8
   3504a:	4650      	mov	r0, sl
   3504c:	f007 f8f4 	bl	3c238 <__ssprint_r>
   35050:	2800      	cmp	r0, #0
   35052:	f040 8326 	bne.w	356a2 <_svfprintf_r+0x12fa>
   35056:	ac25      	add	r4, sp, #148	; 0x94
   35058:	e517      	b.n	34a8a <_svfprintf_r+0x6e2>
   3505a:	aa22      	add	r2, sp, #136	; 0x88
   3505c:	4641      	mov	r1, r8
   3505e:	4650      	mov	r0, sl
   35060:	f007 f8ea 	bl	3c238 <__ssprint_r>
   35064:	2800      	cmp	r0, #0
   35066:	f040 831c 	bne.w	356a2 <_svfprintf_r+0x12fa>
   3506a:	ac25      	add	r4, sp, #148	; 0x94
   3506c:	e51d      	b.n	34aaa <_svfprintf_r+0x702>
   3506e:	2010      	movs	r0, #16
   35070:	2b07      	cmp	r3, #7
   35072:	4402      	add	r2, r0
   35074:	6060      	str	r0, [r4, #4]
   35076:	e9cd 3223 	strd	r3, r2, [sp, #140]	; 0x8c
   3507a:	dd08      	ble.n	3508e <_svfprintf_r+0xce6>
   3507c:	aa22      	add	r2, sp, #136	; 0x88
   3507e:	4641      	mov	r1, r8
   35080:	4650      	mov	r0, sl
   35082:	f007 f8d9 	bl	3c238 <__ssprint_r>
   35086:	2800      	cmp	r0, #0
   35088:	f040 830b 	bne.w	356a2 <_svfprintf_r+0x12fa>
   3508c:	a925      	add	r1, sp, #148	; 0x94
   3508e:	3f10      	subs	r7, #16
   35090:	460c      	mov	r4, r1
   35092:	e512      	b.n	34aba <_svfprintf_r+0x712>
   35094:	460c      	mov	r4, r1
   35096:	e52b      	b.n	34af0 <_svfprintf_r+0x748>
   35098:	2010      	movs	r0, #16
   3509a:	2b07      	cmp	r3, #7
   3509c:	4402      	add	r2, r0
   3509e:	6060      	str	r0, [r4, #4]
   350a0:	e9cd 3223 	strd	r3, r2, [sp, #140]	; 0x8c
   350a4:	dd08      	ble.n	350b8 <_svfprintf_r+0xd10>
   350a6:	aa22      	add	r2, sp, #136	; 0x88
   350a8:	4641      	mov	r1, r8
   350aa:	4650      	mov	r0, sl
   350ac:	f007 f8c4 	bl	3c238 <__ssprint_r>
   350b0:	2800      	cmp	r0, #0
   350b2:	f040 82f6 	bne.w	356a2 <_svfprintf_r+0x12fa>
   350b6:	a925      	add	r1, sp, #148	; 0x94
   350b8:	3e10      	subs	r6, #16
   350ba:	460c      	mov	r4, r1
   350bc:	e52a      	b.n	34b14 <_svfprintf_r+0x76c>
   350be:	460c      	mov	r4, r1
   350c0:	e542      	b.n	34b48 <_svfprintf_r+0x7a0>
   350c2:	bf00      	nop
   350c4:	000404df 	.word	0x000404df
   350c8:	000404f0 	.word	0x000404f0
   350cc:	9b06      	ldr	r3, [sp, #24]
   350ce:	2b65      	cmp	r3, #101	; 0x65
   350d0:	f340 8230 	ble.w	35534 <_svfprintf_r+0x118c>
   350d4:	2200      	movs	r2, #0
   350d6:	2300      	movs	r3, #0
   350d8:	e9dd 010e 	ldrd	r0, r1, [sp, #56]	; 0x38
   350dc:	f00a fe96 	bl	3fe0c <__aeabi_dcmpeq>
   350e0:	2800      	cmp	r0, #0
   350e2:	d068      	beq.n	351b6 <_svfprintf_r+0xe0e>
   350e4:	4b6d      	ldr	r3, [pc, #436]	; (3529c <_svfprintf_r+0xef4>)
   350e6:	6023      	str	r3, [r4, #0]
   350e8:	2301      	movs	r3, #1
   350ea:	441e      	add	r6, r3
   350ec:	6063      	str	r3, [r4, #4]
   350ee:	9b23      	ldr	r3, [sp, #140]	; 0x8c
   350f0:	9624      	str	r6, [sp, #144]	; 0x90
   350f2:	3301      	adds	r3, #1
   350f4:	2b07      	cmp	r3, #7
   350f6:	9323      	str	r3, [sp, #140]	; 0x8c
   350f8:	dc37      	bgt.n	3516a <_svfprintf_r+0xdc2>
   350fa:	3408      	adds	r4, #8
   350fc:	9b1c      	ldr	r3, [sp, #112]	; 0x70
   350fe:	9a05      	ldr	r2, [sp, #20]
   35100:	4293      	cmp	r3, r2
   35102:	db03      	blt.n	3510c <_svfprintf_r+0xd64>
   35104:	f01b 0f01 	tst.w	fp, #1
   35108:	f43f ad30 	beq.w	34b6c <_svfprintf_r+0x7c4>
   3510c:	9b13      	ldr	r3, [sp, #76]	; 0x4c
   3510e:	9a0d      	ldr	r2, [sp, #52]	; 0x34
   35110:	6023      	str	r3, [r4, #0]
   35112:	9b0d      	ldr	r3, [sp, #52]	; 0x34
   35114:	6063      	str	r3, [r4, #4]
   35116:	9b24      	ldr	r3, [sp, #144]	; 0x90
   35118:	4413      	add	r3, r2
   3511a:	9324      	str	r3, [sp, #144]	; 0x90
   3511c:	9b23      	ldr	r3, [sp, #140]	; 0x8c
   3511e:	3301      	adds	r3, #1
   35120:	2b07      	cmp	r3, #7
   35122:	9323      	str	r3, [sp, #140]	; 0x8c
   35124:	dc2b      	bgt.n	3517e <_svfprintf_r+0xdd6>
   35126:	3408      	adds	r4, #8
   35128:	9b05      	ldr	r3, [sp, #20]
   3512a:	1e5d      	subs	r5, r3, #1
   3512c:	2d00      	cmp	r5, #0
   3512e:	f77f ad1d 	ble.w	34b6c <_svfprintf_r+0x7c4>
   35132:	4e5b      	ldr	r6, [pc, #364]	; (352a0 <_svfprintf_r+0xef8>)
   35134:	2710      	movs	r7, #16
   35136:	2d10      	cmp	r5, #16
   35138:	f104 0108 	add.w	r1, r4, #8
   3513c:	6026      	str	r6, [r4, #0]
   3513e:	e9dd 3223 	ldrd	r3, r2, [sp, #140]	; 0x8c
   35142:	f103 0301 	add.w	r3, r3, #1
   35146:	dc24      	bgt.n	35192 <_svfprintf_r+0xdea>
   35148:	6065      	str	r5, [r4, #4]
   3514a:	2b07      	cmp	r3, #7
   3514c:	4415      	add	r5, r2
   3514e:	e9cd 3523 	strd	r3, r5, [sp, #140]	; 0x8c
   35152:	f340 8285 	ble.w	35660 <_svfprintf_r+0x12b8>
   35156:	aa22      	add	r2, sp, #136	; 0x88
   35158:	4641      	mov	r1, r8
   3515a:	4650      	mov	r0, sl
   3515c:	f007 f86c 	bl	3c238 <__ssprint_r>
   35160:	2800      	cmp	r0, #0
   35162:	f040 829e 	bne.w	356a2 <_svfprintf_r+0x12fa>
   35166:	ac25      	add	r4, sp, #148	; 0x94
   35168:	e500      	b.n	34b6c <_svfprintf_r+0x7c4>
   3516a:	aa22      	add	r2, sp, #136	; 0x88
   3516c:	4641      	mov	r1, r8
   3516e:	4650      	mov	r0, sl
   35170:	f007 f862 	bl	3c238 <__ssprint_r>
   35174:	2800      	cmp	r0, #0
   35176:	f040 8294 	bne.w	356a2 <_svfprintf_r+0x12fa>
   3517a:	ac25      	add	r4, sp, #148	; 0x94
   3517c:	e7be      	b.n	350fc <_svfprintf_r+0xd54>
   3517e:	aa22      	add	r2, sp, #136	; 0x88
   35180:	4641      	mov	r1, r8
   35182:	4650      	mov	r0, sl
   35184:	f007 f858 	bl	3c238 <__ssprint_r>
   35188:	2800      	cmp	r0, #0
   3518a:	f040 828a 	bne.w	356a2 <_svfprintf_r+0x12fa>
   3518e:	ac25      	add	r4, sp, #148	; 0x94
   35190:	e7ca      	b.n	35128 <_svfprintf_r+0xd80>
   35192:	3210      	adds	r2, #16
   35194:	2b07      	cmp	r3, #7
   35196:	6067      	str	r7, [r4, #4]
   35198:	e9cd 3223 	strd	r3, r2, [sp, #140]	; 0x8c
   3519c:	dd08      	ble.n	351b0 <_svfprintf_r+0xe08>
   3519e:	aa22      	add	r2, sp, #136	; 0x88
   351a0:	4641      	mov	r1, r8
   351a2:	4650      	mov	r0, sl
   351a4:	f007 f848 	bl	3c238 <__ssprint_r>
   351a8:	2800      	cmp	r0, #0
   351aa:	f040 827a 	bne.w	356a2 <_svfprintf_r+0x12fa>
   351ae:	a925      	add	r1, sp, #148	; 0x94
   351b0:	3d10      	subs	r5, #16
   351b2:	460c      	mov	r4, r1
   351b4:	e7bf      	b.n	35136 <_svfprintf_r+0xd8e>
   351b6:	9b1c      	ldr	r3, [sp, #112]	; 0x70
   351b8:	2b00      	cmp	r3, #0
   351ba:	dc73      	bgt.n	352a4 <_svfprintf_r+0xefc>
   351bc:	4b37      	ldr	r3, [pc, #220]	; (3529c <_svfprintf_r+0xef4>)
   351be:	6023      	str	r3, [r4, #0]
   351c0:	2301      	movs	r3, #1
   351c2:	441e      	add	r6, r3
   351c4:	6063      	str	r3, [r4, #4]
   351c6:	9b23      	ldr	r3, [sp, #140]	; 0x8c
   351c8:	9624      	str	r6, [sp, #144]	; 0x90
   351ca:	3301      	adds	r3, #1
   351cc:	2b07      	cmp	r3, #7
   351ce:	9323      	str	r3, [sp, #140]	; 0x8c
   351d0:	dc3d      	bgt.n	3524e <_svfprintf_r+0xea6>
   351d2:	3408      	adds	r4, #8
   351d4:	9905      	ldr	r1, [sp, #20]
   351d6:	9a1c      	ldr	r2, [sp, #112]	; 0x70
   351d8:	9b24      	ldr	r3, [sp, #144]	; 0x90
   351da:	430a      	orrs	r2, r1
   351dc:	f00b 0101 	and.w	r1, fp, #1
   351e0:	430a      	orrs	r2, r1
   351e2:	f43f acc3 	beq.w	34b6c <_svfprintf_r+0x7c4>
   351e6:	9a13      	ldr	r2, [sp, #76]	; 0x4c
   351e8:	6022      	str	r2, [r4, #0]
   351ea:	9a0d      	ldr	r2, [sp, #52]	; 0x34
   351ec:	4413      	add	r3, r2
   351ee:	6062      	str	r2, [r4, #4]
   351f0:	9324      	str	r3, [sp, #144]	; 0x90
   351f2:	9b23      	ldr	r3, [sp, #140]	; 0x8c
   351f4:	3301      	adds	r3, #1
   351f6:	2b07      	cmp	r3, #7
   351f8:	9323      	str	r3, [sp, #140]	; 0x8c
   351fa:	dc32      	bgt.n	35262 <_svfprintf_r+0xeba>
   351fc:	3408      	adds	r4, #8
   351fe:	9d1c      	ldr	r5, [sp, #112]	; 0x70
   35200:	2d00      	cmp	r5, #0
   35202:	da1b      	bge.n	3523c <_svfprintf_r+0xe94>
   35204:	426d      	negs	r5, r5
   35206:	4623      	mov	r3, r4
   35208:	4e25      	ldr	r6, [pc, #148]	; (352a0 <_svfprintf_r+0xef8>)
   3520a:	2710      	movs	r7, #16
   3520c:	2d10      	cmp	r5, #16
   3520e:	f104 0408 	add.w	r4, r4, #8
   35212:	601e      	str	r6, [r3, #0]
   35214:	e9dd 2123 	ldrd	r2, r1, [sp, #140]	; 0x8c
   35218:	f102 0201 	add.w	r2, r2, #1
   3521c:	dc2b      	bgt.n	35276 <_svfprintf_r+0xece>
   3521e:	605d      	str	r5, [r3, #4]
   35220:	2a07      	cmp	r2, #7
   35222:	440d      	add	r5, r1
   35224:	e9cd 2523 	strd	r2, r5, [sp, #140]	; 0x8c
   35228:	dd08      	ble.n	3523c <_svfprintf_r+0xe94>
   3522a:	aa22      	add	r2, sp, #136	; 0x88
   3522c:	4641      	mov	r1, r8
   3522e:	4650      	mov	r0, sl
   35230:	f007 f802 	bl	3c238 <__ssprint_r>
   35234:	2800      	cmp	r0, #0
   35236:	f040 8234 	bne.w	356a2 <_svfprintf_r+0x12fa>
   3523a:	ac25      	add	r4, sp, #148	; 0x94
   3523c:	9b05      	ldr	r3, [sp, #20]
   3523e:	9a05      	ldr	r2, [sp, #20]
   35240:	6063      	str	r3, [r4, #4]
   35242:	9b24      	ldr	r3, [sp, #144]	; 0x90
   35244:	f8c4 9000 	str.w	r9, [r4]
   35248:	4413      	add	r3, r2
   3524a:	9324      	str	r3, [sp, #144]	; 0x90
   3524c:	e487      	b.n	34b5e <_svfprintf_r+0x7b6>
   3524e:	aa22      	add	r2, sp, #136	; 0x88
   35250:	4641      	mov	r1, r8
   35252:	4650      	mov	r0, sl
   35254:	f006 fff0 	bl	3c238 <__ssprint_r>
   35258:	2800      	cmp	r0, #0
   3525a:	f040 8222 	bne.w	356a2 <_svfprintf_r+0x12fa>
   3525e:	ac25      	add	r4, sp, #148	; 0x94
   35260:	e7b8      	b.n	351d4 <_svfprintf_r+0xe2c>
   35262:	aa22      	add	r2, sp, #136	; 0x88
   35264:	4641      	mov	r1, r8
   35266:	4650      	mov	r0, sl
   35268:	f006 ffe6 	bl	3c238 <__ssprint_r>
   3526c:	2800      	cmp	r0, #0
   3526e:	f040 8218 	bne.w	356a2 <_svfprintf_r+0x12fa>
   35272:	ac25      	add	r4, sp, #148	; 0x94
   35274:	e7c3      	b.n	351fe <_svfprintf_r+0xe56>
   35276:	3110      	adds	r1, #16
   35278:	2a07      	cmp	r2, #7
   3527a:	605f      	str	r7, [r3, #4]
   3527c:	e9cd 2123 	strd	r2, r1, [sp, #140]	; 0x8c
   35280:	dd08      	ble.n	35294 <_svfprintf_r+0xeec>
   35282:	aa22      	add	r2, sp, #136	; 0x88
   35284:	4641      	mov	r1, r8
   35286:	4650      	mov	r0, sl
   35288:	f006 ffd6 	bl	3c238 <__ssprint_r>
   3528c:	2800      	cmp	r0, #0
   3528e:	f040 8208 	bne.w	356a2 <_svfprintf_r+0x12fa>
   35292:	ac25      	add	r4, sp, #148	; 0x94
   35294:	3d10      	subs	r5, #16
   35296:	4623      	mov	r3, r4
   35298:	e7b8      	b.n	3520c <_svfprintf_r+0xe64>
   3529a:	bf00      	nop
   3529c:	00040501 	.word	0x00040501
   352a0:	00040513 	.word	0x00040513
   352a4:	9f05      	ldr	r7, [sp, #20]
   352a6:	42af      	cmp	r7, r5
   352a8:	bfa8      	it	ge
   352aa:	462f      	movge	r7, r5
   352ac:	2f00      	cmp	r7, #0
   352ae:	dd0a      	ble.n	352c6 <_svfprintf_r+0xf1e>
   352b0:	9b23      	ldr	r3, [sp, #140]	; 0x8c
   352b2:	443e      	add	r6, r7
   352b4:	3301      	adds	r3, #1
   352b6:	9624      	str	r6, [sp, #144]	; 0x90
   352b8:	2b07      	cmp	r3, #7
   352ba:	9323      	str	r3, [sp, #140]	; 0x8c
   352bc:	e9c4 9700 	strd	r9, r7, [r4]
   352c0:	f300 8085 	bgt.w	353ce <_svfprintf_r+0x1026>
   352c4:	3408      	adds	r4, #8
   352c6:	2f00      	cmp	r7, #0
   352c8:	bfac      	ite	ge
   352ca:	1bee      	subge	r6, r5, r7
   352cc:	462e      	movlt	r6, r5
   352ce:	2e00      	cmp	r6, #0
   352d0:	dd19      	ble.n	35306 <_svfprintf_r+0xf5e>
   352d2:	4f97      	ldr	r7, [pc, #604]	; (35530 <_svfprintf_r+0x1188>)
   352d4:	2e10      	cmp	r6, #16
   352d6:	f104 0108 	add.w	r1, r4, #8
   352da:	6027      	str	r7, [r4, #0]
   352dc:	e9dd 3223 	ldrd	r3, r2, [sp, #140]	; 0x8c
   352e0:	f103 0301 	add.w	r3, r3, #1
   352e4:	dc7d      	bgt.n	353e2 <_svfprintf_r+0x103a>
   352e6:	6066      	str	r6, [r4, #4]
   352e8:	2b07      	cmp	r3, #7
   352ea:	4416      	add	r6, r2
   352ec:	e9cd 3623 	strd	r3, r6, [sp, #140]	; 0x8c
   352f0:	f340 808a 	ble.w	35408 <_svfprintf_r+0x1060>
   352f4:	aa22      	add	r2, sp, #136	; 0x88
   352f6:	4641      	mov	r1, r8
   352f8:	4650      	mov	r0, sl
   352fa:	f006 ff9d 	bl	3c238 <__ssprint_r>
   352fe:	2800      	cmp	r0, #0
   35300:	f040 81cf 	bne.w	356a2 <_svfprintf_r+0x12fa>
   35304:	ac25      	add	r4, sp, #148	; 0x94
   35306:	f41b 6f80 	tst.w	fp, #1024	; 0x400
   3530a:	444d      	add	r5, r9
   3530c:	d00a      	beq.n	35324 <_svfprintf_r+0xf7c>
   3530e:	9b09      	ldr	r3, [sp, #36]	; 0x24
   35310:	2b00      	cmp	r3, #0
   35312:	d17b      	bne.n	3540c <_svfprintf_r+0x1064>
   35314:	9b08      	ldr	r3, [sp, #32]
   35316:	2b00      	cmp	r3, #0
   35318:	d17b      	bne.n	35412 <_svfprintf_r+0x106a>
   3531a:	9b05      	ldr	r3, [sp, #20]
   3531c:	444b      	add	r3, r9
   3531e:	429d      	cmp	r5, r3
   35320:	bf28      	it	cs
   35322:	461d      	movcs	r5, r3
   35324:	9b1c      	ldr	r3, [sp, #112]	; 0x70
   35326:	9a05      	ldr	r2, [sp, #20]
   35328:	4293      	cmp	r3, r2
   3532a:	db02      	blt.n	35332 <_svfprintf_r+0xf8a>
   3532c:	f01b 0f01 	tst.w	fp, #1
   35330:	d00e      	beq.n	35350 <_svfprintf_r+0xfa8>
   35332:	9b13      	ldr	r3, [sp, #76]	; 0x4c
   35334:	9a0d      	ldr	r2, [sp, #52]	; 0x34
   35336:	6023      	str	r3, [r4, #0]
   35338:	9b0d      	ldr	r3, [sp, #52]	; 0x34
   3533a:	6063      	str	r3, [r4, #4]
   3533c:	9b24      	ldr	r3, [sp, #144]	; 0x90
   3533e:	4413      	add	r3, r2
   35340:	9324      	str	r3, [sp, #144]	; 0x90
   35342:	9b23      	ldr	r3, [sp, #140]	; 0x8c
   35344:	3301      	adds	r3, #1
   35346:	2b07      	cmp	r3, #7
   35348:	9323      	str	r3, [sp, #140]	; 0x8c
   3534a:	f300 80dd 	bgt.w	35508 <_svfprintf_r+0x1160>
   3534e:	3408      	adds	r4, #8
   35350:	9b05      	ldr	r3, [sp, #20]
   35352:	9e1c      	ldr	r6, [sp, #112]	; 0x70
   35354:	eb09 0203 	add.w	r2, r9, r3
   35358:	1b9e      	subs	r6, r3, r6
   3535a:	1b52      	subs	r2, r2, r5
   3535c:	4296      	cmp	r6, r2
   3535e:	bfa8      	it	ge
   35360:	4616      	movge	r6, r2
   35362:	2e00      	cmp	r6, #0
   35364:	dd0b      	ble.n	3537e <_svfprintf_r+0xfd6>
   35366:	9b24      	ldr	r3, [sp, #144]	; 0x90
   35368:	4433      	add	r3, r6
   3536a:	9324      	str	r3, [sp, #144]	; 0x90
   3536c:	9b23      	ldr	r3, [sp, #140]	; 0x8c
   3536e:	3301      	adds	r3, #1
   35370:	2b07      	cmp	r3, #7
   35372:	9323      	str	r3, [sp, #140]	; 0x8c
   35374:	e9c4 5600 	strd	r5, r6, [r4]
   35378:	f300 80d0 	bgt.w	3551c <_svfprintf_r+0x1174>
   3537c:	3408      	adds	r4, #8
   3537e:	9d1c      	ldr	r5, [sp, #112]	; 0x70
   35380:	2e00      	cmp	r6, #0
   35382:	9b05      	ldr	r3, [sp, #20]
   35384:	eba3 0505 	sub.w	r5, r3, r5
   35388:	bfa8      	it	ge
   3538a:	1bad      	subge	r5, r5, r6
   3538c:	2d00      	cmp	r5, #0
   3538e:	f77f abed 	ble.w	34b6c <_svfprintf_r+0x7c4>
   35392:	4e67      	ldr	r6, [pc, #412]	; (35530 <_svfprintf_r+0x1188>)
   35394:	2710      	movs	r7, #16
   35396:	2d10      	cmp	r5, #16
   35398:	f104 0108 	add.w	r1, r4, #8
   3539c:	6026      	str	r6, [r4, #0]
   3539e:	e9dd 3223 	ldrd	r3, r2, [sp, #140]	; 0x8c
   353a2:	f103 0301 	add.w	r3, r3, #1
   353a6:	f77f aecf 	ble.w	35148 <_svfprintf_r+0xda0>
   353aa:	3210      	adds	r2, #16
   353ac:	2b07      	cmp	r3, #7
   353ae:	6067      	str	r7, [r4, #4]
   353b0:	e9cd 3223 	strd	r3, r2, [sp, #140]	; 0x8c
   353b4:	dd08      	ble.n	353c8 <_svfprintf_r+0x1020>
   353b6:	aa22      	add	r2, sp, #136	; 0x88
   353b8:	4641      	mov	r1, r8
   353ba:	4650      	mov	r0, sl
   353bc:	f006 ff3c 	bl	3c238 <__ssprint_r>
   353c0:	2800      	cmp	r0, #0
   353c2:	f040 816e 	bne.w	356a2 <_svfprintf_r+0x12fa>
   353c6:	a925      	add	r1, sp, #148	; 0x94
   353c8:	3d10      	subs	r5, #16
   353ca:	460c      	mov	r4, r1
   353cc:	e7e3      	b.n	35396 <_svfprintf_r+0xfee>
   353ce:	aa22      	add	r2, sp, #136	; 0x88
   353d0:	4641      	mov	r1, r8
   353d2:	4650      	mov	r0, sl
   353d4:	f006 ff30 	bl	3c238 <__ssprint_r>
   353d8:	2800      	cmp	r0, #0
   353da:	f040 8162 	bne.w	356a2 <_svfprintf_r+0x12fa>
   353de:	ac25      	add	r4, sp, #148	; 0x94
   353e0:	e771      	b.n	352c6 <_svfprintf_r+0xf1e>
   353e2:	2010      	movs	r0, #16
   353e4:	2b07      	cmp	r3, #7
   353e6:	4402      	add	r2, r0
   353e8:	6060      	str	r0, [r4, #4]
   353ea:	e9cd 3223 	strd	r3, r2, [sp, #140]	; 0x8c
   353ee:	dd08      	ble.n	35402 <_svfprintf_r+0x105a>
   353f0:	aa22      	add	r2, sp, #136	; 0x88
   353f2:	4641      	mov	r1, r8
   353f4:	4650      	mov	r0, sl
   353f6:	f006 ff1f 	bl	3c238 <__ssprint_r>
   353fa:	2800      	cmp	r0, #0
   353fc:	f040 8151 	bne.w	356a2 <_svfprintf_r+0x12fa>
   35400:	a925      	add	r1, sp, #148	; 0x94
   35402:	3e10      	subs	r6, #16
   35404:	460c      	mov	r4, r1
   35406:	e765      	b.n	352d4 <_svfprintf_r+0xf2c>
   35408:	460c      	mov	r4, r1
   3540a:	e77c      	b.n	35306 <_svfprintf_r+0xf5e>
   3540c:	9b08      	ldr	r3, [sp, #32]
   3540e:	2b00      	cmp	r3, #0
   35410:	d04a      	beq.n	354a8 <_svfprintf_r+0x1100>
   35412:	9b08      	ldr	r3, [sp, #32]
   35414:	3b01      	subs	r3, #1
   35416:	9308      	str	r3, [sp, #32]
   35418:	9b14      	ldr	r3, [sp, #80]	; 0x50
   3541a:	9a12      	ldr	r2, [sp, #72]	; 0x48
   3541c:	6023      	str	r3, [r4, #0]
   3541e:	9b12      	ldr	r3, [sp, #72]	; 0x48
   35420:	6063      	str	r3, [r4, #4]
   35422:	9b24      	ldr	r3, [sp, #144]	; 0x90
   35424:	4413      	add	r3, r2
   35426:	9324      	str	r3, [sp, #144]	; 0x90
   35428:	9b23      	ldr	r3, [sp, #140]	; 0x8c
   3542a:	3301      	adds	r3, #1
   3542c:	2b07      	cmp	r3, #7
   3542e:	9323      	str	r3, [sp, #140]	; 0x8c
   35430:	dc41      	bgt.n	354b6 <_svfprintf_r+0x110e>
   35432:	3408      	adds	r4, #8
   35434:	9b05      	ldr	r3, [sp, #20]
   35436:	9a0a      	ldr	r2, [sp, #40]	; 0x28
   35438:	eb09 0703 	add.w	r7, r9, r3
   3543c:	1b7b      	subs	r3, r7, r5
   3543e:	7817      	ldrb	r7, [r2, #0]
   35440:	429f      	cmp	r7, r3
   35442:	bfa8      	it	ge
   35444:	461f      	movge	r7, r3
   35446:	2f00      	cmp	r7, #0
   35448:	dd0a      	ble.n	35460 <_svfprintf_r+0x10b8>
   3544a:	9b24      	ldr	r3, [sp, #144]	; 0x90
   3544c:	443b      	add	r3, r7
   3544e:	9324      	str	r3, [sp, #144]	; 0x90
   35450:	9b23      	ldr	r3, [sp, #140]	; 0x8c
   35452:	3301      	adds	r3, #1
   35454:	2b07      	cmp	r3, #7
   35456:	9323      	str	r3, [sp, #140]	; 0x8c
   35458:	e9c4 5700 	strd	r5, r7, [r4]
   3545c:	dc35      	bgt.n	354ca <_svfprintf_r+0x1122>
   3545e:	3408      	adds	r4, #8
   35460:	9b0a      	ldr	r3, [sp, #40]	; 0x28
   35462:	2f00      	cmp	r7, #0
   35464:	781e      	ldrb	r6, [r3, #0]
   35466:	bfa8      	it	ge
   35468:	1bf6      	subge	r6, r6, r7
   3546a:	2e00      	cmp	r6, #0
   3546c:	dd18      	ble.n	354a0 <_svfprintf_r+0x10f8>
   3546e:	4830      	ldr	r0, [pc, #192]	; (35530 <_svfprintf_r+0x1188>)
   35470:	2e10      	cmp	r6, #16
   35472:	f104 0108 	add.w	r1, r4, #8
   35476:	6020      	str	r0, [r4, #0]
   35478:	e9dd 3223 	ldrd	r3, r2, [sp, #140]	; 0x8c
   3547c:	f103 0301 	add.w	r3, r3, #1
   35480:	dc2d      	bgt.n	354de <_svfprintf_r+0x1136>
   35482:	4432      	add	r2, r6
   35484:	2b07      	cmp	r3, #7
   35486:	6066      	str	r6, [r4, #4]
   35488:	e9cd 3223 	strd	r3, r2, [sp, #140]	; 0x8c
   3548c:	dd3a      	ble.n	35504 <_svfprintf_r+0x115c>
   3548e:	aa22      	add	r2, sp, #136	; 0x88
   35490:	4641      	mov	r1, r8
   35492:	4650      	mov	r0, sl
   35494:	f006 fed0 	bl	3c238 <__ssprint_r>
   35498:	2800      	cmp	r0, #0
   3549a:	f040 8102 	bne.w	356a2 <_svfprintf_r+0x12fa>
   3549e:	ac25      	add	r4, sp, #148	; 0x94
   354a0:	9b0a      	ldr	r3, [sp, #40]	; 0x28
   354a2:	781b      	ldrb	r3, [r3, #0]
   354a4:	441d      	add	r5, r3
   354a6:	e732      	b.n	3530e <_svfprintf_r+0xf66>
   354a8:	9b0a      	ldr	r3, [sp, #40]	; 0x28
   354aa:	3b01      	subs	r3, #1
   354ac:	930a      	str	r3, [sp, #40]	; 0x28
   354ae:	9b09      	ldr	r3, [sp, #36]	; 0x24
   354b0:	3b01      	subs	r3, #1
   354b2:	9309      	str	r3, [sp, #36]	; 0x24
   354b4:	e7b0      	b.n	35418 <_svfprintf_r+0x1070>
   354b6:	aa22      	add	r2, sp, #136	; 0x88
   354b8:	4641      	mov	r1, r8
   354ba:	4650      	mov	r0, sl
   354bc:	f006 febc 	bl	3c238 <__ssprint_r>
   354c0:	2800      	cmp	r0, #0
   354c2:	f040 80ee 	bne.w	356a2 <_svfprintf_r+0x12fa>
   354c6:	ac25      	add	r4, sp, #148	; 0x94
   354c8:	e7b4      	b.n	35434 <_svfprintf_r+0x108c>
   354ca:	aa22      	add	r2, sp, #136	; 0x88
   354cc:	4641      	mov	r1, r8
   354ce:	4650      	mov	r0, sl
   354d0:	f006 feb2 	bl	3c238 <__ssprint_r>
   354d4:	2800      	cmp	r0, #0
   354d6:	f040 80e4 	bne.w	356a2 <_svfprintf_r+0x12fa>
   354da:	ac25      	add	r4, sp, #148	; 0x94
   354dc:	e7c0      	b.n	35460 <_svfprintf_r+0x10b8>
   354de:	2010      	movs	r0, #16
   354e0:	2b07      	cmp	r3, #7
   354e2:	4402      	add	r2, r0
   354e4:	6060      	str	r0, [r4, #4]
   354e6:	e9cd 3223 	strd	r3, r2, [sp, #140]	; 0x8c
   354ea:	dd08      	ble.n	354fe <_svfprintf_r+0x1156>
   354ec:	aa22      	add	r2, sp, #136	; 0x88
   354ee:	4641      	mov	r1, r8
   354f0:	4650      	mov	r0, sl
   354f2:	f006 fea1 	bl	3c238 <__ssprint_r>
   354f6:	2800      	cmp	r0, #0
   354f8:	f040 80d3 	bne.w	356a2 <_svfprintf_r+0x12fa>
   354fc:	a925      	add	r1, sp, #148	; 0x94
   354fe:	3e10      	subs	r6, #16
   35500:	460c      	mov	r4, r1
   35502:	e7b4      	b.n	3546e <_svfprintf_r+0x10c6>
   35504:	460c      	mov	r4, r1
   35506:	e7cb      	b.n	354a0 <_svfprintf_r+0x10f8>
   35508:	aa22      	add	r2, sp, #136	; 0x88
   3550a:	4641      	mov	r1, r8
   3550c:	4650      	mov	r0, sl
   3550e:	f006 fe93 	bl	3c238 <__ssprint_r>
   35512:	2800      	cmp	r0, #0
   35514:	f040 80c5 	bne.w	356a2 <_svfprintf_r+0x12fa>
   35518:	ac25      	add	r4, sp, #148	; 0x94
   3551a:	e719      	b.n	35350 <_svfprintf_r+0xfa8>
   3551c:	aa22      	add	r2, sp, #136	; 0x88
   3551e:	4641      	mov	r1, r8
   35520:	4650      	mov	r0, sl
   35522:	f006 fe89 	bl	3c238 <__ssprint_r>
   35526:	2800      	cmp	r0, #0
   35528:	f040 80bb 	bne.w	356a2 <_svfprintf_r+0x12fa>
   3552c:	ac25      	add	r4, sp, #148	; 0x94
   3552e:	e726      	b.n	3537e <_svfprintf_r+0xfd6>
   35530:	00040513 	.word	0x00040513
   35534:	9a05      	ldr	r2, [sp, #20]
   35536:	3601      	adds	r6, #1
   35538:	9b23      	ldr	r3, [sp, #140]	; 0x8c
   3553a:	f104 0508 	add.w	r5, r4, #8
   3553e:	2a01      	cmp	r2, #1
   35540:	f103 0301 	add.w	r3, r3, #1
   35544:	dc02      	bgt.n	3554c <_svfprintf_r+0x11a4>
   35546:	f01b 0f01 	tst.w	fp, #1
   3554a:	d07e      	beq.n	3564a <_svfprintf_r+0x12a2>
   3554c:	2201      	movs	r2, #1
   3554e:	2b07      	cmp	r3, #7
   35550:	f8c4 9000 	str.w	r9, [r4]
   35554:	6062      	str	r2, [r4, #4]
   35556:	e9cd 3623 	strd	r3, r6, [sp, #140]	; 0x8c
   3555a:	dd08      	ble.n	3556e <_svfprintf_r+0x11c6>
   3555c:	aa22      	add	r2, sp, #136	; 0x88
   3555e:	4641      	mov	r1, r8
   35560:	4650      	mov	r0, sl
   35562:	f006 fe69 	bl	3c238 <__ssprint_r>
   35566:	2800      	cmp	r0, #0
   35568:	f040 809b 	bne.w	356a2 <_svfprintf_r+0x12fa>
   3556c:	ad25      	add	r5, sp, #148	; 0x94
   3556e:	9b13      	ldr	r3, [sp, #76]	; 0x4c
   35570:	9a0d      	ldr	r2, [sp, #52]	; 0x34
   35572:	602b      	str	r3, [r5, #0]
   35574:	9b0d      	ldr	r3, [sp, #52]	; 0x34
   35576:	606b      	str	r3, [r5, #4]
   35578:	9b24      	ldr	r3, [sp, #144]	; 0x90
   3557a:	4413      	add	r3, r2
   3557c:	9324      	str	r3, [sp, #144]	; 0x90
   3557e:	9b23      	ldr	r3, [sp, #140]	; 0x8c
   35580:	3301      	adds	r3, #1
   35582:	2b07      	cmp	r3, #7
   35584:	9323      	str	r3, [sp, #140]	; 0x8c
   35586:	dc32      	bgt.n	355ee <_svfprintf_r+0x1246>
   35588:	3508      	adds	r5, #8
   3558a:	9b05      	ldr	r3, [sp, #20]
   3558c:	2200      	movs	r2, #0
   3558e:	1e5c      	subs	r4, r3, #1
   35590:	2300      	movs	r3, #0
   35592:	e9dd 010e 	ldrd	r0, r1, [sp, #56]	; 0x38
   35596:	f00a fc39 	bl	3fe0c <__aeabi_dcmpeq>
   3559a:	2800      	cmp	r0, #0
   3559c:	d130      	bne.n	35600 <_svfprintf_r+0x1258>
   3559e:	9923      	ldr	r1, [sp, #140]	; 0x8c
   355a0:	f109 0001 	add.w	r0, r9, #1
   355a4:	9b24      	ldr	r3, [sp, #144]	; 0x90
   355a6:	3101      	adds	r1, #1
   355a8:	9a05      	ldr	r2, [sp, #20]
   355aa:	3b01      	subs	r3, #1
   355ac:	2907      	cmp	r1, #7
   355ae:	4413      	add	r3, r2
   355b0:	e9c5 0400 	strd	r0, r4, [r5]
   355b4:	e9cd 1323 	strd	r1, r3, [sp, #140]	; 0x8c
   355b8:	dd50      	ble.n	3565c <_svfprintf_r+0x12b4>
   355ba:	aa22      	add	r2, sp, #136	; 0x88
   355bc:	4641      	mov	r1, r8
   355be:	4650      	mov	r0, sl
   355c0:	f006 fe3a 	bl	3c238 <__ssprint_r>
   355c4:	2800      	cmp	r0, #0
   355c6:	d16c      	bne.n	356a2 <_svfprintf_r+0x12fa>
   355c8:	ad25      	add	r5, sp, #148	; 0x94
   355ca:	ab1e      	add	r3, sp, #120	; 0x78
   355cc:	9a15      	ldr	r2, [sp, #84]	; 0x54
   355ce:	602b      	str	r3, [r5, #0]
   355d0:	9b15      	ldr	r3, [sp, #84]	; 0x54
   355d2:	606b      	str	r3, [r5, #4]
   355d4:	9b24      	ldr	r3, [sp, #144]	; 0x90
   355d6:	4413      	add	r3, r2
   355d8:	9324      	str	r3, [sp, #144]	; 0x90
   355da:	9b23      	ldr	r3, [sp, #140]	; 0x8c
   355dc:	3301      	adds	r3, #1
   355de:	2b07      	cmp	r3, #7
   355e0:	9323      	str	r3, [sp, #140]	; 0x8c
   355e2:	f73f adb8 	bgt.w	35156 <_svfprintf_r+0xdae>
   355e6:	f105 0408 	add.w	r4, r5, #8
   355ea:	f7ff babf 	b.w	34b6c <_svfprintf_r+0x7c4>
   355ee:	aa22      	add	r2, sp, #136	; 0x88
   355f0:	4641      	mov	r1, r8
   355f2:	4650      	mov	r0, sl
   355f4:	f006 fe20 	bl	3c238 <__ssprint_r>
   355f8:	2800      	cmp	r0, #0
   355fa:	d152      	bne.n	356a2 <_svfprintf_r+0x12fa>
   355fc:	ad25      	add	r5, sp, #148	; 0x94
   355fe:	e7c4      	b.n	3558a <_svfprintf_r+0x11e2>
   35600:	2c00      	cmp	r4, #0
   35602:	dde2      	ble.n	355ca <_svfprintf_r+0x1222>
   35604:	4e55      	ldr	r6, [pc, #340]	; (3575c <_svfprintf_r+0x13b4>)
   35606:	2710      	movs	r7, #16
   35608:	2c10      	cmp	r4, #16
   3560a:	f105 0108 	add.w	r1, r5, #8
   3560e:	602e      	str	r6, [r5, #0]
   35610:	e9dd 3223 	ldrd	r3, r2, [sp, #140]	; 0x8c
   35614:	f103 0301 	add.w	r3, r3, #1
   35618:	dc07      	bgt.n	3562a <_svfprintf_r+0x1282>
   3561a:	606c      	str	r4, [r5, #4]
   3561c:	2b07      	cmp	r3, #7
   3561e:	4414      	add	r4, r2
   35620:	e9cd 3423 	strd	r3, r4, [sp, #140]	; 0x8c
   35624:	dcc9      	bgt.n	355ba <_svfprintf_r+0x1212>
   35626:	460d      	mov	r5, r1
   35628:	e7cf      	b.n	355ca <_svfprintf_r+0x1222>
   3562a:	3210      	adds	r2, #16
   3562c:	2b07      	cmp	r3, #7
   3562e:	606f      	str	r7, [r5, #4]
   35630:	e9cd 3223 	strd	r3, r2, [sp, #140]	; 0x8c
   35634:	dd06      	ble.n	35644 <_svfprintf_r+0x129c>
   35636:	aa22      	add	r2, sp, #136	; 0x88
   35638:	4641      	mov	r1, r8
   3563a:	4650      	mov	r0, sl
   3563c:	f006 fdfc 	bl	3c238 <__ssprint_r>
   35640:	bb78      	cbnz	r0, 356a2 <_svfprintf_r+0x12fa>
   35642:	a925      	add	r1, sp, #148	; 0x94
   35644:	3c10      	subs	r4, #16
   35646:	460d      	mov	r5, r1
   35648:	e7de      	b.n	35608 <_svfprintf_r+0x1260>
   3564a:	2201      	movs	r2, #1
   3564c:	2b07      	cmp	r3, #7
   3564e:	f8c4 9000 	str.w	r9, [r4]
   35652:	6062      	str	r2, [r4, #4]
   35654:	e9cd 3623 	strd	r3, r6, [sp, #140]	; 0x8c
   35658:	ddb7      	ble.n	355ca <_svfprintf_r+0x1222>
   3565a:	e7ae      	b.n	355ba <_svfprintf_r+0x1212>
   3565c:	3508      	adds	r5, #8
   3565e:	e7b4      	b.n	355ca <_svfprintf_r+0x1222>
   35660:	460c      	mov	r4, r1
   35662:	f7ff ba83 	b.w	34b6c <_svfprintf_r+0x7c4>
   35666:	e9dd 3210 	ldrd	r3, r2, [sp, #64]	; 0x40
   3566a:	1a9d      	subs	r5, r3, r2
   3566c:	2d00      	cmp	r5, #0
   3566e:	f77f aa81 	ble.w	34b74 <_svfprintf_r+0x7cc>
   35672:	4e3b      	ldr	r6, [pc, #236]	; (35760 <_svfprintf_r+0x13b8>)
   35674:	2710      	movs	r7, #16
   35676:	2d10      	cmp	r5, #16
   35678:	6026      	str	r6, [r4, #0]
   3567a:	e9dd 3223 	ldrd	r3, r2, [sp, #140]	; 0x8c
   3567e:	f103 0301 	add.w	r3, r3, #1
   35682:	dc18      	bgt.n	356b6 <_svfprintf_r+0x130e>
   35684:	6065      	str	r5, [r4, #4]
   35686:	2b07      	cmp	r3, #7
   35688:	4415      	add	r5, r2
   3568a:	e9cd 3523 	strd	r3, r5, [sp, #140]	; 0x8c
   3568e:	f77f aa71 	ble.w	34b74 <_svfprintf_r+0x7cc>
   35692:	aa22      	add	r2, sp, #136	; 0x88
   35694:	4641      	mov	r1, r8
   35696:	4650      	mov	r0, sl
   35698:	f006 fdce 	bl	3c238 <__ssprint_r>
   3569c:	2800      	cmp	r0, #0
   3569e:	f43f aa69 	beq.w	34b74 <_svfprintf_r+0x7cc>
   356a2:	9b03      	ldr	r3, [sp, #12]
   356a4:	2b00      	cmp	r3, #0
   356a6:	f43f a88c 	beq.w	347c2 <_svfprintf_r+0x41a>
   356aa:	4619      	mov	r1, r3
   356ac:	4650      	mov	r0, sl
   356ae:	f003 fdf3 	bl	39298 <_free_r>
   356b2:	f7ff b886 	b.w	347c2 <_svfprintf_r+0x41a>
   356b6:	3210      	adds	r2, #16
   356b8:	2b07      	cmp	r3, #7
   356ba:	6067      	str	r7, [r4, #4]
   356bc:	e9cd 3223 	strd	r3, r2, [sp, #140]	; 0x8c
   356c0:	dc02      	bgt.n	356c8 <_svfprintf_r+0x1320>
   356c2:	3408      	adds	r4, #8
   356c4:	3d10      	subs	r5, #16
   356c6:	e7d6      	b.n	35676 <_svfprintf_r+0x12ce>
   356c8:	aa22      	add	r2, sp, #136	; 0x88
   356ca:	4641      	mov	r1, r8
   356cc:	4650      	mov	r0, sl
   356ce:	f006 fdb3 	bl	3c238 <__ssprint_r>
   356d2:	2800      	cmp	r0, #0
   356d4:	d1e5      	bne.n	356a2 <_svfprintf_r+0x12fa>
   356d6:	ac25      	add	r4, sp, #148	; 0x94
   356d8:	e7f4      	b.n	356c4 <_svfprintf_r+0x131c>
   356da:	9903      	ldr	r1, [sp, #12]
   356dc:	4650      	mov	r0, sl
   356de:	f003 fddb 	bl	39298 <_free_r>
   356e2:	f7ff ba5f 	b.w	34ba4 <_svfprintf_r+0x7fc>
   356e6:	9b24      	ldr	r3, [sp, #144]	; 0x90
   356e8:	2b00      	cmp	r3, #0
   356ea:	f43f a86a 	beq.w	347c2 <_svfprintf_r+0x41a>
   356ee:	aa22      	add	r2, sp, #136	; 0x88
   356f0:	4641      	mov	r1, r8
   356f2:	4650      	mov	r0, sl
   356f4:	f006 fda0 	bl	3c238 <__ssprint_r>
   356f8:	f7ff b863 	b.w	347c2 <_svfprintf_r+0x41a>
   356fc:	ea56 0205 	orrs.w	r2, r6, r5
   35700:	465f      	mov	r7, fp
   35702:	f43f ab79 	beq.w	34df8 <_svfprintf_r+0xa50>
   35706:	2b01      	cmp	r3, #1
   35708:	f43f ac15 	beq.w	34f36 <_svfprintf_r+0xb8e>
   3570c:	2b02      	cmp	r3, #2
   3570e:	f50d 799c 	add.w	r9, sp, #312	; 0x138
   35712:	f43f ac5b 	beq.w	34fcc <_svfprintf_r+0xc24>
   35716:	f006 0307 	and.w	r3, r6, #7
   3571a:	08f6      	lsrs	r6, r6, #3
   3571c:	464a      	mov	r2, r9
   3571e:	ea46 7645 	orr.w	r6, r6, r5, lsl #29
   35722:	3330      	adds	r3, #48	; 0x30
   35724:	08ed      	lsrs	r5, r5, #3
   35726:	f809 3d01 	strb.w	r3, [r9, #-1]!
   3572a:	ea56 0105 	orrs.w	r1, r6, r5
   3572e:	d1f2      	bne.n	35716 <_svfprintf_r+0x136e>
   35730:	07f9      	lsls	r1, r7, #31
   35732:	d506      	bpl.n	35742 <_svfprintf_r+0x139a>
   35734:	2b30      	cmp	r3, #48	; 0x30
   35736:	d004      	beq.n	35742 <_svfprintf_r+0x139a>
   35738:	2330      	movs	r3, #48	; 0x30
   3573a:	f809 3c01 	strb.w	r3, [r9, #-1]
   3573e:	f1a2 0902 	sub.w	r9, r2, #2
   35742:	ab4e      	add	r3, sp, #312	; 0x138
   35744:	9e04      	ldr	r6, [sp, #16]
   35746:	46bb      	mov	fp, r7
   35748:	eba3 0309 	sub.w	r3, r3, r9
   3574c:	9304      	str	r3, [sp, #16]
   3574e:	2300      	movs	r3, #0
   35750:	9303      	str	r3, [sp, #12]
   35752:	461d      	mov	r5, r3
   35754:	e9cd 3308 	strd	r3, r3, [sp, #32]
   35758:	f7ff b94f 	b.w	349fa <_svfprintf_r+0x652>
   3575c:	00040513 	.word	0x00040513
   35760:	00040503 	.word	0x00040503

00035764 <__ssvfscanf_r>:
   35764:	e92d 4ff0 	stmdb	sp!, {r4, r5, r6, r7, r8, r9, sl, fp, lr}
   35768:	ed2d 8b02 	vpush	{d8}
   3576c:	f5ad 7d2f 	sub.w	sp, sp, #700	; 0x2bc
   35770:	461e      	mov	r6, r3
   35772:	ee08 0a10 	vmov	s16, r0
   35776:	460c      	mov	r4, r1
   35778:	f9b1 300c 	ldrsh.w	r3, [r1, #12]
   3577c:	af02      	add	r7, sp, #8
   3577e:	049d      	lsls	r5, r3, #18
   35780:	617a      	str	r2, [r7, #20]
   35782:	d406      	bmi.n	35792 <__ssvfscanf_r+0x2e>
   35784:	f443 5300 	orr.w	r3, r3, #8192	; 0x2000
   35788:	818b      	strh	r3, [r1, #12]
   3578a:	6e4b      	ldr	r3, [r1, #100]	; 0x64
   3578c:	f423 5300 	bic.w	r3, r3, #8192	; 0x2000
   35790:	664b      	str	r3, [r1, #100]	; 0x64
   35792:	2300      	movs	r3, #0
   35794:	61bb      	str	r3, [r7, #24]
   35796:	637b      	str	r3, [r7, #52]	; 0x34
   35798:	633b      	str	r3, [r7, #48]	; 0x30
   3579a:	627b      	str	r3, [r7, #36]	; 0x24
   3579c:	e9c7 3307 	strd	r3, r3, [r7, #28]
   357a0:	697a      	ldr	r2, [r7, #20]
   357a2:	f812 3b01 	ldrb.w	r3, [r2], #1
   357a6:	617a      	str	r2, [r7, #20]
   357a8:	63fb      	str	r3, [r7, #60]	; 0x3c
   357aa:	2b00      	cmp	r3, #0
   357ac:	f000 80d6 	beq.w	3595c <__ssvfscanf_r+0x1f8>
   357b0:	4a85      	ldr	r2, [pc, #532]	; (359c8 <__ssvfscanf_r+0x264>)
   357b2:	f813 8002 	ldrb.w	r8, [r3, r2]
   357b6:	f018 0808 	ands.w	r8, r8, #8
   357ba:	d019      	beq.n	357f0 <__ssvfscanf_r+0x8c>
   357bc:	6863      	ldr	r3, [r4, #4]
   357be:	2b00      	cmp	r3, #0
   357c0:	dd0e      	ble.n	357e0 <__ssvfscanf_r+0x7c>
   357c2:	6823      	ldr	r3, [r4, #0]
   357c4:	4980      	ldr	r1, [pc, #512]	; (359c8 <__ssvfscanf_r+0x264>)
   357c6:	781a      	ldrb	r2, [r3, #0]
   357c8:	5c8a      	ldrb	r2, [r1, r2]
   357ca:	0710      	lsls	r0, r2, #28
   357cc:	d5e8      	bpl.n	357a0 <__ssvfscanf_r+0x3c>
   357ce:	6b3a      	ldr	r2, [r7, #48]	; 0x30
   357d0:	3301      	adds	r3, #1
   357d2:	3201      	adds	r2, #1
   357d4:	6023      	str	r3, [r4, #0]
   357d6:	633a      	str	r2, [r7, #48]	; 0x30
   357d8:	6862      	ldr	r2, [r4, #4]
   357da:	3a01      	subs	r2, #1
   357dc:	6062      	str	r2, [r4, #4]
   357de:	e7ed      	b.n	357bc <__ssvfscanf_r+0x58>
   357e0:	4621      	mov	r1, r4
   357e2:	ee18 0a10 	vmov	r0, s16
   357e6:	f007 fa36 	bl	3cc56 <__ssrefill_r>
   357ea:	2800      	cmp	r0, #0
   357ec:	d0e9      	beq.n	357c2 <__ssvfscanf_r+0x5e>
   357ee:	e7d7      	b.n	357a0 <__ssvfscanf_r+0x3c>
   357f0:	2b25      	cmp	r3, #37	; 0x25
   357f2:	d165      	bne.n	358c0 <__ssvfscanf_r+0x15c>
   357f4:	697b      	ldr	r3, [r7, #20]
   357f6:	46c1      	mov	r9, r8
   357f8:	220a      	movs	r2, #10
   357fa:	f8c7 802c 	str.w	r8, [r7, #44]	; 0x2c
   357fe:	6979      	ldr	r1, [r7, #20]
   35800:	781d      	ldrb	r5, [r3, #0]
   35802:	3101      	adds	r1, #1
   35804:	6179      	str	r1, [r7, #20]
   35806:	f1a5 0125 	sub.w	r1, r5, #37	; 0x25
   3580a:	2955      	cmp	r1, #85	; 0x55
   3580c:	f200 816e 	bhi.w	35aec <__ssvfscanf_r+0x388>
   35810:	e8df f011 	tbh	[pc, r1, lsl #1]
   35814:	016c0056 	.word	0x016c0056
   35818:	016c016c 	.word	0x016c016c
   3581c:	007d016c 	.word	0x007d016c
   35820:	016c016c 	.word	0x016c016c
   35824:	016c016c 	.word	0x016c016c
   35828:	00ba016c 	.word	0x00ba016c
   3582c:	00ba00ba 	.word	0x00ba00ba
   35830:	00ba00ba 	.word	0x00ba00ba
   35834:	00ba00ba 	.word	0x00ba00ba
   35838:	00ba00ba 	.word	0x00ba00ba
   3583c:	016c00ba 	.word	0x016c00ba
   35840:	016c016c 	.word	0x016c016c
   35844:	016c016c 	.word	0x016c016c
   35848:	016c016c 	.word	0x016c016c
   3584c:	016c00e0 	.word	0x016c00e0
   35850:	00c40104 	.word	0x00c40104
   35854:	00e000e0 	.word	0x00e000e0
   35858:	016c00e0 	.word	0x016c00e0
   3585c:	016c016c 	.word	0x016c016c
   35860:	00a1016c 	.word	0x00a1016c
   35864:	016c016c 	.word	0x016c016c
   35868:	016c00c8 	.word	0x016c00c8
   3586c:	016c016c 	.word	0x016c016c
   35870:	016c00f6 	.word	0x016c00f6
   35874:	016c016c 	.word	0x016c016c
   35878:	00d4016c 	.word	0x00d4016c
   3587c:	016c016c 	.word	0x016c016c
   35880:	016c00fa 	.word	0x016c00fa
   35884:	016c016c 	.word	0x016c016c
   35888:	016c016c 	.word	0x016c016c
   3588c:	016c00e0 	.word	0x016c00e0
   35890:	00c60106 	.word	0x00c60106
   35894:	00e000e0 	.word	0x00e000e0
   35898:	009400e0 	.word	0x009400e0
   3589c:	00a1012e 	.word	0x00a1012e
   358a0:	0086016c 	.word	0x0086016c
   358a4:	010d00ad 	.word	0x010d00ad
   358a8:	010a00ca 	.word	0x010a00ca
   358ac:	016c016c 	.word	0x016c016c
   358b0:	00a900f8 	.word	0x00a900f8
   358b4:	016c00d0 	.word	0x016c00d0
   358b8:	00d4016c 	.word	0x00d4016c
   358bc:	00a9016c 	.word	0x00a9016c
   358c0:	6863      	ldr	r3, [r4, #4]
   358c2:	2b00      	cmp	r3, #0
   358c4:	dd0f      	ble.n	358e6 <__ssvfscanf_r+0x182>
   358c6:	6823      	ldr	r3, [r4, #0]
   358c8:	697a      	ldr	r2, [r7, #20]
   358ca:	7819      	ldrb	r1, [r3, #0]
   358cc:	f812 2c01 	ldrb.w	r2, [r2, #-1]
   358d0:	4291      	cmp	r1, r2
   358d2:	d143      	bne.n	3595c <__ssvfscanf_r+0x1f8>
   358d4:	3301      	adds	r3, #1
   358d6:	6862      	ldr	r2, [r4, #4]
   358d8:	6023      	str	r3, [r4, #0]
   358da:	3a01      	subs	r2, #1
   358dc:	6b3b      	ldr	r3, [r7, #48]	; 0x30
   358de:	6062      	str	r2, [r4, #4]
   358e0:	3301      	adds	r3, #1
   358e2:	633b      	str	r3, [r7, #48]	; 0x30
   358e4:	e75c      	b.n	357a0 <__ssvfscanf_r+0x3c>
   358e6:	4621      	mov	r1, r4
   358e8:	ee18 0a10 	vmov	r0, s16
   358ec:	f007 f9b3 	bl	3cc56 <__ssrefill_r>
   358f0:	2800      	cmp	r0, #0
   358f2:	d0e8      	beq.n	358c6 <__ssvfscanf_r+0x162>
   358f4:	6a7b      	ldr	r3, [r7, #36]	; 0x24
   358f6:	b113      	cbz	r3, 358fe <__ssvfscanf_r+0x19a>
   358f8:	89a3      	ldrh	r3, [r4, #12]
   358fa:	065b      	lsls	r3, r3, #25
   358fc:	d52e      	bpl.n	3595c <__ssvfscanf_r+0x1f8>
   358fe:	6b7b      	ldr	r3, [r7, #52]	; 0x34
   35900:	2b00      	cmp	r3, #0
   35902:	f040 80f8 	bne.w	35af6 <__ssvfscanf_r+0x392>
   35906:	f04f 33ff 	mov.w	r3, #4294967295	; 0xffffffff
   3590a:	627b      	str	r3, [r7, #36]	; 0x24
   3590c:	e103      	b.n	35b16 <__ssvfscanf_r+0x3b2>
   3590e:	6afb      	ldr	r3, [r7, #44]	; 0x2c
   35910:	ea53 0309 	orrs.w	r3, r3, r9
   35914:	62fb      	str	r3, [r7, #44]	; 0x2c
   35916:	d121      	bne.n	3595c <__ssvfscanf_r+0x1f8>
   35918:	f04f 0910 	mov.w	r9, #16
   3591c:	697b      	ldr	r3, [r7, #20]
   3591e:	e76e      	b.n	357fe <__ssvfscanf_r+0x9a>
   35920:	f019 0f0f 	tst.w	r9, #15
   35924:	d11a      	bne.n	3595c <__ssvfscanf_r+0x1f8>
   35926:	7859      	ldrb	r1, [r3, #1]
   35928:	296c      	cmp	r1, #108	; 0x6c
   3592a:	d104      	bne.n	35936 <__ssvfscanf_r+0x1d2>
   3592c:	3302      	adds	r3, #2
   3592e:	617b      	str	r3, [r7, #20]
   35930:	f049 0902 	orr.w	r9, r9, #2
   35934:	e7f2      	b.n	3591c <__ssvfscanf_r+0x1b8>
   35936:	f049 0901 	orr.w	r9, r9, #1
   3593a:	e7ef      	b.n	3591c <__ssvfscanf_r+0x1b8>
   3593c:	f019 0f0f 	tst.w	r9, #15
   35940:	d10c      	bne.n	3595c <__ssvfscanf_r+0x1f8>
   35942:	7859      	ldrb	r1, [r3, #1]
   35944:	2968      	cmp	r1, #104	; 0x68
   35946:	bf05      	ittet	eq
   35948:	3302      	addeq	r3, #2
   3594a:	f049 0908 	orreq.w	r9, r9, #8
   3594e:	f049 0904 	orrne.w	r9, r9, #4
   35952:	617b      	streq	r3, [r7, #20]
   35954:	e7e2      	b.n	3591c <__ssvfscanf_r+0x1b8>
   35956:	f019 0f0f 	tst.w	r9, #15
   3595a:	d0e9      	beq.n	35930 <__ssvfscanf_r+0x1cc>
   3595c:	6b7b      	ldr	r3, [r7, #52]	; 0x34
   3595e:	2b00      	cmp	r3, #0
   35960:	f040 80d4 	bne.w	35b0c <__ssvfscanf_r+0x3a8>
   35964:	e0d7      	b.n	35b16 <__ssvfscanf_r+0x3b2>
   35966:	f019 0f0f 	tst.w	r9, #15
   3596a:	d0d7      	beq.n	3591c <__ssvfscanf_r+0x1b8>
   3596c:	e7f6      	b.n	3595c <__ssvfscanf_r+0x1f8>
   3596e:	f019 038f 	ands.w	r3, r9, #143	; 0x8f
   35972:	d1f3      	bne.n	3595c <__ssvfscanf_r+0x1f8>
   35974:	6b79      	ldr	r1, [r7, #52]	; 0x34
   35976:	b921      	cbnz	r1, 35982 <__ssvfscanf_r+0x21e>
   35978:	b082      	sub	sp, #8
   3597a:	a902      	add	r1, sp, #8
   3597c:	6379      	str	r1, [r7, #52]	; 0x34
   3597e:	e9c1 3300 	strd	r3, r3, [r1]
   35982:	f049 0980 	orr.w	r9, r9, #128	; 0x80
   35986:	e7c9      	b.n	3591c <__ssvfscanf_r+0x1b8>
   35988:	f019 0f8f 	tst.w	r9, #143	; 0x8f
   3598c:	d1e6      	bne.n	3595c <__ssvfscanf_r+0x1f8>
   3598e:	6afb      	ldr	r3, [r7, #44]	; 0x2c
   35990:	fb02 5503 	mla	r5, r2, r3, r5
   35994:	f1a5 0330 	sub.w	r3, r5, #48	; 0x30
   35998:	62fb      	str	r3, [r7, #44]	; 0x2c
   3599a:	e7bf      	b.n	3591c <__ssvfscanf_r+0x1b8>
   3599c:	f049 0901 	orr.w	r9, r9, #1
   359a0:	4b0a      	ldr	r3, [pc, #40]	; (359cc <__ssvfscanf_r+0x268>)
   359a2:	e008      	b.n	359b6 <__ssvfscanf_r+0x252>
   359a4:	f049 0901 	orr.w	r9, r9, #1
   359a8:	4b09      	ldr	r3, [pc, #36]	; (359d0 <__ssvfscanf_r+0x26c>)
   359aa:	61bb      	str	r3, [r7, #24]
   359ac:	2308      	movs	r3, #8
   359ae:	2503      	movs	r5, #3
   359b0:	61fb      	str	r3, [r7, #28]
   359b2:	e010      	b.n	359d6 <__ssvfscanf_r+0x272>
   359b4:	4b06      	ldr	r3, [pc, #24]	; (359d0 <__ssvfscanf_r+0x26c>)
   359b6:	61bb      	str	r3, [r7, #24]
   359b8:	230a      	movs	r3, #10
   359ba:	e7f8      	b.n	359ae <__ssvfscanf_r+0x24a>
   359bc:	f449 7900 	orr.w	r9, r9, #512	; 0x200
   359c0:	4b03      	ldr	r3, [pc, #12]	; (359d0 <__ssvfscanf_r+0x26c>)
   359c2:	61bb      	str	r3, [r7, #24]
   359c4:	2310      	movs	r3, #16
   359c6:	e7f2      	b.n	359ae <__ssvfscanf_r+0x24a>
   359c8:	0004056b 	.word	0x0004056b
   359cc:	00034381 	.word	0x00034381
   359d0:	0003c215 	.word	0x0003c215
   359d4:	2504      	movs	r5, #4
   359d6:	6863      	ldr	r3, [r4, #4]
   359d8:	2b00      	cmp	r3, #0
   359da:	dd4d      	ble.n	35a78 <__ssvfscanf_r+0x314>
   359dc:	f019 0f40 	tst.w	r9, #64	; 0x40
   359e0:	d105      	bne.n	359ee <__ssvfscanf_r+0x28a>
   359e2:	6823      	ldr	r3, [r4, #0]
   359e4:	49a9      	ldr	r1, [pc, #676]	; (35c8c <__ssvfscanf_r+0x528>)
   359e6:	781a      	ldrb	r2, [r3, #0]
   359e8:	5c52      	ldrb	r2, [r2, r1]
   359ea:	0711      	lsls	r1, r2, #28
   359ec:	d44c      	bmi.n	35a88 <__ssvfscanf_r+0x324>
   359ee:	3d01      	subs	r5, #1
   359f0:	2d03      	cmp	r5, #3
   359f2:	d85c      	bhi.n	35aae <__ssvfscanf_r+0x34a>
   359f4:	e8df f015 	tbh	[pc, r5, lsl #1]
   359f8:	039201d4 	.word	0x039201d4
   359fc:	062a0538 	.word	0x062a0538
   35a00:	f049 0901 	orr.w	r9, r9, #1
   35a04:	2502      	movs	r5, #2
   35a06:	e7e6      	b.n	359d6 <__ssvfscanf_r+0x272>
   35a08:	6979      	ldr	r1, [r7, #20]
   35a0a:	f107 0050 	add.w	r0, r7, #80	; 0x50
   35a0e:	f005 f9eb 	bl	3ade8 <__sccl>
   35a12:	f049 0940 	orr.w	r9, r9, #64	; 0x40
   35a16:	2501      	movs	r5, #1
   35a18:	6178      	str	r0, [r7, #20]
   35a1a:	e7dc      	b.n	359d6 <__ssvfscanf_r+0x272>
   35a1c:	f049 0901 	orr.w	r9, r9, #1
   35a20:	f049 0940 	orr.w	r9, r9, #64	; 0x40
   35a24:	2500      	movs	r5, #0
   35a26:	e7d6      	b.n	359d6 <__ssvfscanf_r+0x272>
   35a28:	f449 7908 	orr.w	r9, r9, #544	; 0x220
   35a2c:	e7c8      	b.n	359c0 <__ssvfscanf_r+0x25c>
   35a2e:	f019 0f10 	tst.w	r9, #16
   35a32:	f47f aeb5 	bne.w	357a0 <__ssvfscanf_r+0x3c>
   35a36:	f019 0f08 	tst.w	r9, #8
   35a3a:	f856 3b04 	ldr.w	r3, [r6], #4
   35a3e:	d002      	beq.n	35a46 <__ssvfscanf_r+0x2e2>
   35a40:	6b3a      	ldr	r2, [r7, #48]	; 0x30
   35a42:	701a      	strb	r2, [r3, #0]
   35a44:	e6ac      	b.n	357a0 <__ssvfscanf_r+0x3c>
   35a46:	f019 0f04 	tst.w	r9, #4
   35a4a:	d002      	beq.n	35a52 <__ssvfscanf_r+0x2ee>
   35a4c:	6b3a      	ldr	r2, [r7, #48]	; 0x30
   35a4e:	801a      	strh	r2, [r3, #0]
   35a50:	e6a6      	b.n	357a0 <__ssvfscanf_r+0x3c>
   35a52:	f019 0f01 	tst.w	r9, #1
   35a56:	d002      	beq.n	35a5e <__ssvfscanf_r+0x2fa>
   35a58:	6b3a      	ldr	r2, [r7, #48]	; 0x30
   35a5a:	601a      	str	r2, [r3, #0]
   35a5c:	e6a0      	b.n	357a0 <__ssvfscanf_r+0x3c>
   35a5e:	f019 0f02 	tst.w	r9, #2
   35a62:	d0f9      	beq.n	35a58 <__ssvfscanf_r+0x2f4>
   35a64:	6b3a      	ldr	r2, [r7, #48]	; 0x30
   35a66:	6b39      	ldr	r1, [r7, #48]	; 0x30
   35a68:	17d2      	asrs	r2, r2, #31
   35a6a:	e9c3 1200 	strd	r1, r2, [r3]
   35a6e:	e697      	b.n	357a0 <__ssvfscanf_r+0x3c>
   35a70:	4b87      	ldr	r3, [pc, #540]	; (35c90 <__ssvfscanf_r+0x52c>)
   35a72:	61bb      	str	r3, [r7, #24]
   35a74:	2300      	movs	r3, #0
   35a76:	e79a      	b.n	359ae <__ssvfscanf_r+0x24a>
   35a78:	4621      	mov	r1, r4
   35a7a:	ee18 0a10 	vmov	r0, s16
   35a7e:	f007 f8ea 	bl	3cc56 <__ssrefill_r>
   35a82:	2800      	cmp	r0, #0
   35a84:	d0aa      	beq.n	359dc <__ssvfscanf_r+0x278>
   35a86:	e735      	b.n	358f4 <__ssvfscanf_r+0x190>
   35a88:	6b3a      	ldr	r2, [r7, #48]	; 0x30
   35a8a:	3201      	adds	r2, #1
   35a8c:	633a      	str	r2, [r7, #48]	; 0x30
   35a8e:	6862      	ldr	r2, [r4, #4]
   35a90:	3a01      	subs	r2, #1
   35a92:	2a00      	cmp	r2, #0
   35a94:	6062      	str	r2, [r4, #4]
   35a96:	dd02      	ble.n	35a9e <__ssvfscanf_r+0x33a>
   35a98:	3301      	adds	r3, #1
   35a9a:	6023      	str	r3, [r4, #0]
   35a9c:	e7a1      	b.n	359e2 <__ssvfscanf_r+0x27e>
   35a9e:	4621      	mov	r1, r4
   35aa0:	ee18 0a10 	vmov	r0, s16
   35aa4:	f007 f8d7 	bl	3cc56 <__ssrefill_r>
   35aa8:	2800      	cmp	r0, #0
   35aaa:	d09a      	beq.n	359e2 <__ssvfscanf_r+0x27e>
   35aac:	e722      	b.n	358f4 <__ssvfscanf_r+0x190>
   35aae:	6afd      	ldr	r5, [r7, #44]	; 0x2c
   35ab0:	f009 0b10 	and.w	fp, r9, #16
   35ab4:	2d01      	cmp	r5, #1
   35ab6:	bf38      	it	cc
   35ab8:	2501      	movcc	r5, #1
   35aba:	f019 0801 	ands.w	r8, r9, #1
   35abe:	f000 80f7 	beq.w	35cb0 <__ssvfscanf_r+0x54c>
   35ac2:	f1bb 0f00 	cmp.w	fp, #0
   35ac6:	f040 80b5 	bne.w	35c34 <__ssvfscanf_r+0x4d0>
   35aca:	4633      	mov	r3, r6
   35acc:	f019 0f80 	tst.w	r9, #128	; 0x80
   35ad0:	f853 6b04 	ldr.w	r6, [r3], #4
   35ad4:	62fb      	str	r3, [r7, #44]	; 0x2c
   35ad6:	f000 80b4 	beq.w	35c42 <__ssvfscanf_r+0x4de>
   35ada:	b13e      	cbz	r6, 35aec <__ssvfscanf_r+0x388>
   35adc:	2080      	movs	r0, #128	; 0x80
   35ade:	f003 fee7 	bl	398b0 <malloc>
   35ae2:	4680      	mov	r8, r0
   35ae4:	b9f8      	cbnz	r0, 35b26 <__ssvfscanf_r+0x3c2>
   35ae6:	f04f 33ff 	mov.w	r3, #4294967295	; 0xffffffff
   35aea:	627b      	str	r3, [r7, #36]	; 0x24
   35aec:	6b7b      	ldr	r3, [r7, #52]	; 0x34
   35aee:	b193      	cbz	r3, 35b16 <__ssvfscanf_r+0x3b2>
   35af0:	6a7b      	ldr	r3, [r7, #36]	; 0x24
   35af2:	3301      	adds	r3, #1
   35af4:	d10a      	bne.n	35b0c <__ssvfscanf_r+0x3a8>
   35af6:	2400      	movs	r4, #0
   35af8:	4626      	mov	r6, r4
   35afa:	6b7b      	ldr	r3, [r7, #52]	; 0x34
   35afc:	681d      	ldr	r5, [r3, #0]
   35afe:	88db      	ldrh	r3, [r3, #6]
   35b00:	42a3      	cmp	r3, r4
   35b02:	f300 87b0 	bgt.w	36a66 <__ssvfscanf_r+0x1302>
   35b06:	f04f 33ff 	mov.w	r3, #4294967295	; 0xffffffff
   35b0a:	627b      	str	r3, [r7, #36]	; 0x24
   35b0c:	6b7b      	ldr	r3, [r7, #52]	; 0x34
   35b0e:	6818      	ldr	r0, [r3, #0]
   35b10:	b108      	cbz	r0, 35b16 <__ssvfscanf_r+0x3b2>
   35b12:	f003 fb69 	bl	391e8 <free>
   35b16:	6a78      	ldr	r0, [r7, #36]	; 0x24
   35b18:	f507 772d 	add.w	r7, r7, #692	; 0x2b4
   35b1c:	46bd      	mov	sp, r7
   35b1e:	ecbd 8b02 	vpop	{d8}
   35b22:	e8bd 8ff0 	ldmia.w	sp!, {r4, r5, r6, r7, r8, r9, sl, fp, pc}
   35b26:	6b7b      	ldr	r3, [r7, #52]	; 0x34
   35b28:	6030      	str	r0, [r6, #0]
   35b2a:	f8b3 9006 	ldrh.w	r9, [r3, #6]
   35b2e:	889b      	ldrh	r3, [r3, #4]
   35b30:	4599      	cmp	r9, r3
   35b32:	d312      	bcc.n	35b5a <__ssvfscanf_r+0x3f6>
   35b34:	f64f 72f6 	movw	r2, #65526	; 0xfff6
   35b38:	4293      	cmp	r3, r2
   35b3a:	d8d4      	bhi.n	35ae6 <__ssvfscanf_r+0x382>
   35b3c:	3308      	adds	r3, #8
   35b3e:	fa1f fa83 	uxth.w	sl, r3
   35b42:	6b7b      	ldr	r3, [r7, #52]	; 0x34
   35b44:	ea4f 018a 	mov.w	r1, sl, lsl #2
   35b48:	6818      	ldr	r0, [r3, #0]
   35b4a:	f004 ff39 	bl	3a9c0 <realloc>
   35b4e:	2800      	cmp	r0, #0
   35b50:	d0c9      	beq.n	35ae6 <__ssvfscanf_r+0x382>
   35b52:	6b7b      	ldr	r3, [r7, #52]	; 0x34
   35b54:	6018      	str	r0, [r3, #0]
   35b56:	f8a3 a004 	strh.w	sl, [r3, #4]
   35b5a:	6b7b      	ldr	r3, [r7, #52]	; 0x34
   35b5c:	f109 0201 	add.w	r2, r9, #1
   35b60:	6b79      	ldr	r1, [r7, #52]	; 0x34
   35b62:	46b2      	mov	sl, r6
   35b64:	681b      	ldr	r3, [r3, #0]
   35b66:	80ca      	strh	r2, [r1, #6]
   35b68:	f843 6029 	str.w	r6, [r3, r9, lsl #2]
   35b6c:	4646      	mov	r6, r8
   35b6e:	f04f 0920 	mov.w	r9, #32
   35b72:	2200      	movs	r2, #0
   35b74:	62ba      	str	r2, [r7, #40]	; 0x28
   35b76:	f003 fe03 	bl	39780 <__locale_mb_cur_max>
   35b7a:	6aba      	ldr	r2, [r7, #40]	; 0x28
   35b7c:	4290      	cmp	r0, r2
   35b7e:	f43f aeb9 	beq.w	358f4 <__ssvfscanf_r+0x190>
   35b82:	6821      	ldr	r1, [r4, #0]
   35b84:	f507 7ca8 	add.w	ip, r7, #336	; 0x150
   35b88:	1c53      	adds	r3, r2, #1
   35b8a:	f811 0b01 	ldrb.w	r0, [r1], #1
   35b8e:	f80c 0002 	strb.w	r0, [ip, r2]
   35b92:	6862      	ldr	r2, [r4, #4]
   35b94:	3a01      	subs	r2, #1
   35b96:	e9c4 1200 	strd	r1, r2, [r4]
   35b9a:	6a3a      	ldr	r2, [r7, #32]
   35b9c:	2a03      	cmp	r2, #3
   35b9e:	d102      	bne.n	35ba6 <__ssvfscanf_r+0x442>
   35ba0:	6cba      	ldr	r2, [r7, #72]	; 0x48
   35ba2:	2a04      	cmp	r2, #4
   35ba4:	d007      	beq.n	35bb6 <__ssvfscanf_r+0x452>
   35ba6:	2208      	movs	r2, #8
   35ba8:	2100      	movs	r1, #0
   35baa:	f107 0048 	add.w	r0, r7, #72	; 0x48
   35bae:	62bb      	str	r3, [r7, #40]	; 0x28
   35bb0:	f004 fa1e 	bl	39ff0 <memset>
   35bb4:	6abb      	ldr	r3, [r7, #40]	; 0x28
   35bb6:	f107 0248 	add.w	r2, r7, #72	; 0x48
   35bba:	4631      	mov	r1, r6
   35bbc:	ee18 0a10 	vmov	r0, s16
   35bc0:	62bb      	str	r3, [r7, #40]	; 0x28
   35bc2:	9200      	str	r2, [sp, #0]
   35bc4:	f507 72a8 	add.w	r2, r7, #336	; 0x150
   35bc8:	f004 f8aa 	bl	39d20 <_mbrtowc_r>
   35bcc:	1c42      	adds	r2, r0, #1
   35bce:	6238      	str	r0, [r7, #32]
   35bd0:	f43f ae90 	beq.w	358f4 <__ssvfscanf_r+0x190>
   35bd4:	6abb      	ldr	r3, [r7, #40]	; 0x28
   35bd6:	2800      	cmp	r0, #0
   35bd8:	d137      	bne.n	35c4a <__ssvfscanf_r+0x4e6>
   35bda:	f1bb 0f00 	cmp.w	fp, #0
   35bde:	d101      	bne.n	35be4 <__ssvfscanf_r+0x480>
   35be0:	f8c6 b000 	str.w	fp, [r6]
   35be4:	6b3a      	ldr	r2, [r7, #48]	; 0x30
   35be6:	441a      	add	r2, r3
   35be8:	6a3b      	ldr	r3, [r7, #32]
   35bea:	2b03      	cmp	r3, #3
   35bec:	633a      	str	r2, [r7, #48]	; 0x30
   35bee:	d102      	bne.n	35bf6 <__ssvfscanf_r+0x492>
   35bf0:	6cbb      	ldr	r3, [r7, #72]	; 0x48
   35bf2:	2b04      	cmp	r3, #4
   35bf4:	d000      	beq.n	35bf8 <__ssvfscanf_r+0x494>
   35bf6:	3d01      	subs	r5, #1
   35bf8:	f1bb 0f00 	cmp.w	fp, #0
   35bfc:	d118      	bne.n	35c30 <__ssvfscanf_r+0x4cc>
   35bfe:	f1ba 0f00 	cmp.w	sl, #0
   35c02:	d014      	beq.n	35c2e <__ssvfscanf_r+0x4ca>
   35c04:	eba6 0308 	sub.w	r3, r6, r8
   35c08:	ebb9 0fa3 	cmp.w	r9, r3, asr #2
   35c0c:	d80f      	bhi.n	35c2e <__ssvfscanf_r+0x4ca>
   35c0e:	4640      	mov	r0, r8
   35c10:	ea4f 01c9 	mov.w	r1, r9, lsl #3
   35c14:	62bb      	str	r3, [r7, #40]	; 0x28
   35c16:	f004 fed3 	bl	3a9c0 <realloc>
   35c1a:	4680      	mov	r8, r0
   35c1c:	2800      	cmp	r0, #0
   35c1e:	f43f af62 	beq.w	35ae6 <__ssvfscanf_r+0x382>
   35c22:	6abb      	ldr	r3, [r7, #40]	; 0x28
   35c24:	ea4f 0949 	mov.w	r9, r9, lsl #1
   35c28:	f8ca 0000 	str.w	r0, [sl]
   35c2c:	18c6      	adds	r6, r0, r3
   35c2e:	3604      	adds	r6, #4
   35c30:	2300      	movs	r3, #0
   35c32:	e00d      	b.n	35c50 <__ssvfscanf_r+0x4ec>
   35c34:	f04f 0900 	mov.w	r9, #0
   35c38:	62fe      	str	r6, [r7, #44]	; 0x2c
   35c3a:	46c8      	mov	r8, r9
   35c3c:	46ca      	mov	sl, r9
   35c3e:	464e      	mov	r6, r9
   35c40:	e797      	b.n	35b72 <__ssvfscanf_r+0x40e>
   35c42:	46d9      	mov	r9, fp
   35c44:	46d8      	mov	r8, fp
   35c46:	46da      	mov	sl, fp
   35c48:	e793      	b.n	35b72 <__ssvfscanf_r+0x40e>
   35c4a:	6a3a      	ldr	r2, [r7, #32]
   35c4c:	3202      	adds	r2, #2
   35c4e:	d1c9      	bne.n	35be4 <__ssvfscanf_r+0x480>
   35c50:	6862      	ldr	r2, [r4, #4]
   35c52:	2a00      	cmp	r2, #0
   35c54:	dc15      	bgt.n	35c82 <__ssvfscanf_r+0x51e>
   35c56:	4621      	mov	r1, r4
   35c58:	ee18 0a10 	vmov	r0, s16
   35c5c:	62bb      	str	r3, [r7, #40]	; 0x28
   35c5e:	f006 fffa 	bl	3cc56 <__ssrefill_r>
   35c62:	6abb      	ldr	r3, [r7, #40]	; 0x28
   35c64:	b168      	cbz	r0, 35c82 <__ssvfscanf_r+0x51e>
   35c66:	2b00      	cmp	r3, #0
   35c68:	f47f ae44 	bne.w	358f4 <__ssvfscanf_r+0x190>
   35c6c:	f1ba 0f00 	cmp.w	sl, #0
   35c70:	d110      	bne.n	35c94 <__ssvfscanf_r+0x530>
   35c72:	f1bb 0f00 	cmp.w	fp, #0
   35c76:	d102      	bne.n	35c7e <__ssvfscanf_r+0x51a>
   35c78:	6a7b      	ldr	r3, [r7, #36]	; 0x24
   35c7a:	3301      	adds	r3, #1
   35c7c:	627b      	str	r3, [r7, #36]	; 0x24
   35c7e:	6afe      	ldr	r6, [r7, #44]	; 0x2c
   35c80:	e58e      	b.n	357a0 <__ssvfscanf_r+0x3c>
   35c82:	2d00      	cmp	r5, #0
   35c84:	d0f2      	beq.n	35c6c <__ssvfscanf_r+0x508>
   35c86:	461a      	mov	r2, r3
   35c88:	e774      	b.n	35b74 <__ssvfscanf_r+0x410>
   35c8a:	bf00      	nop
   35c8c:	0004056b 	.word	0x0004056b
   35c90:	00034381 	.word	0x00034381
   35c94:	eba6 0108 	sub.w	r1, r6, r8
   35c98:	ebb9 0fa1 	cmp.w	r9, r1, asr #2
   35c9c:	d9e9      	bls.n	35c72 <__ssvfscanf_r+0x50e>
   35c9e:	f8da 0000 	ldr.w	r0, [sl]
   35ca2:	f004 fe8d 	bl	3a9c0 <realloc>
   35ca6:	2800      	cmp	r0, #0
   35ca8:	d0e3      	beq.n	35c72 <__ssvfscanf_r+0x50e>
   35caa:	f8ca 0000 	str.w	r0, [sl]
   35cae:	e7e0      	b.n	35c72 <__ssvfscanf_r+0x50e>
   35cb0:	f1bb 0f00 	cmp.w	fp, #0
   35cb4:	d01b      	beq.n	35cee <__ssvfscanf_r+0x58a>
   35cb6:	e9d4 2300 	ldrd	r2, r3, [r4]
   35cba:	429d      	cmp	r5, r3
   35cbc:	dd11      	ble.n	35ce2 <__ssvfscanf_r+0x57e>
   35cbe:	4498      	add	r8, r3
   35cc0:	1aed      	subs	r5, r5, r3
   35cc2:	4413      	add	r3, r2
   35cc4:	4621      	mov	r1, r4
   35cc6:	ee18 0a10 	vmov	r0, s16
   35cca:	6023      	str	r3, [r4, #0]
   35ccc:	f006 ffc3 	bl	3cc56 <__ssrefill_r>
   35cd0:	2800      	cmp	r0, #0
   35cd2:	d0f0      	beq.n	35cb6 <__ssvfscanf_r+0x552>
   35cd4:	f1b8 0f00 	cmp.w	r8, #0
   35cd8:	f43f ae0c 	beq.w	358f4 <__ssvfscanf_r+0x190>
   35cdc:	6b3b      	ldr	r3, [r7, #48]	; 0x30
   35cde:	4443      	add	r3, r8
   35ce0:	e5ff      	b.n	358e2 <__ssvfscanf_r+0x17e>
   35ce2:	1b5b      	subs	r3, r3, r5
   35ce4:	442a      	add	r2, r5
   35ce6:	44a8      	add	r8, r5
   35ce8:	6063      	str	r3, [r4, #4]
   35cea:	6022      	str	r2, [r4, #0]
   35cec:	e7f6      	b.n	35cdc <__ssvfscanf_r+0x578>
   35cee:	46b0      	mov	r8, r6
   35cf0:	f019 0980 	ands.w	r9, r9, #128	; 0x80
   35cf4:	f858 6b04 	ldr.w	r6, [r8], #4
   35cf8:	d031      	beq.n	35d5e <__ssvfscanf_r+0x5fa>
   35cfa:	2e00      	cmp	r6, #0
   35cfc:	f43f ae2e 	beq.w	3595c <__ssvfscanf_r+0x1f8>
   35d00:	4628      	mov	r0, r5
   35d02:	f003 fdd5 	bl	398b0 <malloc>
   35d06:	4682      	mov	sl, r0
   35d08:	2800      	cmp	r0, #0
   35d0a:	f43f adf8 	beq.w	358fe <__ssvfscanf_r+0x19a>
   35d0e:	6b7b      	ldr	r3, [r7, #52]	; 0x34
   35d10:	6030      	str	r0, [r6, #0]
   35d12:	f8b3 b006 	ldrh.w	fp, [r3, #6]
   35d16:	f8b3 9004 	ldrh.w	r9, [r3, #4]
   35d1a:	45cb      	cmp	fp, r9
   35d1c:	d315      	bcc.n	35d4a <__ssvfscanf_r+0x5e6>
   35d1e:	f64f 73f6 	movw	r3, #65526	; 0xfff6
   35d22:	4599      	cmp	r9, r3
   35d24:	f63f aee7 	bhi.w	35af6 <__ssvfscanf_r+0x392>
   35d28:	f109 0908 	add.w	r9, r9, #8
   35d2c:	6b7b      	ldr	r3, [r7, #52]	; 0x34
   35d2e:	fa1f f989 	uxth.w	r9, r9
   35d32:	6818      	ldr	r0, [r3, #0]
   35d34:	ea4f 0189 	mov.w	r1, r9, lsl #2
   35d38:	f004 fe42 	bl	3a9c0 <realloc>
   35d3c:	2800      	cmp	r0, #0
   35d3e:	f43f aeda 	beq.w	35af6 <__ssvfscanf_r+0x392>
   35d42:	6b7b      	ldr	r3, [r7, #52]	; 0x34
   35d44:	6018      	str	r0, [r3, #0]
   35d46:	f8a3 9004 	strh.w	r9, [r3, #4]
   35d4a:	6b7b      	ldr	r3, [r7, #52]	; 0x34
   35d4c:	f10b 0201 	add.w	r2, fp, #1
   35d50:	6b79      	ldr	r1, [r7, #52]	; 0x34
   35d52:	46b1      	mov	r9, r6
   35d54:	681b      	ldr	r3, [r3, #0]
   35d56:	80ca      	strh	r2, [r1, #6]
   35d58:	f843 602b 	str.w	r6, [r3, fp, lsl #2]
   35d5c:	4656      	mov	r6, sl
   35d5e:	4631      	mov	r1, r6
   35d60:	462b      	mov	r3, r5
   35d62:	2201      	movs	r2, #1
   35d64:	ee18 0a10 	vmov	r0, s16
   35d68:	9400      	str	r4, [sp, #0]
   35d6a:	f006 ff91 	bl	3cc90 <_sfread_r>
   35d6e:	4606      	mov	r6, r0
   35d70:	2800      	cmp	r0, #0
   35d72:	f43f adbf 	beq.w	358f4 <__ssvfscanf_r+0x190>
   35d76:	f1b9 0f00 	cmp.w	r9, #0
   35d7a:	d009      	beq.n	35d90 <__ssvfscanf_r+0x62c>
   35d7c:	4285      	cmp	r5, r0
   35d7e:	d907      	bls.n	35d90 <__ssvfscanf_r+0x62c>
   35d80:	4601      	mov	r1, r0
   35d82:	f8d9 0000 	ldr.w	r0, [r9]
   35d86:	f004 fe1b 	bl	3a9c0 <realloc>
   35d8a:	b108      	cbz	r0, 35d90 <__ssvfscanf_r+0x62c>
   35d8c:	f8c9 0000 	str.w	r0, [r9]
   35d90:	6b3b      	ldr	r3, [r7, #48]	; 0x30
   35d92:	4433      	add	r3, r6
   35d94:	4646      	mov	r6, r8
   35d96:	633b      	str	r3, [r7, #48]	; 0x30
   35d98:	6a7b      	ldr	r3, [r7, #36]	; 0x24
   35d9a:	3301      	adds	r3, #1
   35d9c:	627b      	str	r3, [r7, #36]	; 0x24
   35d9e:	e4ff      	b.n	357a0 <__ssvfscanf_r+0x3c>
   35da0:	6afb      	ldr	r3, [r7, #44]	; 0x2c
   35da2:	f009 0b10 	and.w	fp, r9, #16
   35da6:	2b00      	cmp	r3, #0
   35da8:	bf08      	it	eq
   35daa:	f04f 33ff 	moveq.w	r3, #4294967295	; 0xffffffff
   35dae:	f019 0501 	ands.w	r5, r9, #1
   35db2:	62fb      	str	r3, [r7, #44]	; 0x2c
   35db4:	f000 8107 	beq.w	35fc6 <__ssvfscanf_r+0x862>
   35db8:	f1bb 0f00 	cmp.w	fp, #0
   35dbc:	f040 80a7 	bne.w	35f0e <__ssvfscanf_r+0x7aa>
   35dc0:	4633      	mov	r3, r6
   35dc2:	f019 0f80 	tst.w	r9, #128	; 0x80
   35dc6:	f853 5b04 	ldr.w	r5, [r3], #4
   35dca:	613b      	str	r3, [r7, #16]
   35dcc:	f000 80a8 	beq.w	35f20 <__ssvfscanf_r+0x7bc>
   35dd0:	2d00      	cmp	r5, #0
   35dd2:	f43f ae8b 	beq.w	35aec <__ssvfscanf_r+0x388>
   35dd6:	2080      	movs	r0, #128	; 0x80
   35dd8:	f003 fd6a 	bl	398b0 <malloc>
   35ddc:	4680      	mov	r8, r0
   35dde:	2800      	cmp	r0, #0
   35de0:	f43f ae81 	beq.w	35ae6 <__ssvfscanf_r+0x382>
   35de4:	6b7b      	ldr	r3, [r7, #52]	; 0x34
   35de6:	6028      	str	r0, [r5, #0]
   35de8:	88de      	ldrh	r6, [r3, #6]
   35dea:	889b      	ldrh	r3, [r3, #4]
   35dec:	429e      	cmp	r6, r3
   35dee:	d314      	bcc.n	35e1a <__ssvfscanf_r+0x6b6>
   35df0:	f64f 72f6 	movw	r2, #65526	; 0xfff6
   35df4:	4293      	cmp	r3, r2
   35df6:	f63f ae76 	bhi.w	35ae6 <__ssvfscanf_r+0x382>
   35dfa:	3308      	adds	r3, #8
   35dfc:	fa1f f983 	uxth.w	r9, r3
   35e00:	6b7b      	ldr	r3, [r7, #52]	; 0x34
   35e02:	ea4f 0189 	mov.w	r1, r9, lsl #2
   35e06:	6818      	ldr	r0, [r3, #0]
   35e08:	f004 fdda 	bl	3a9c0 <realloc>
   35e0c:	2800      	cmp	r0, #0
   35e0e:	f43f ae6a 	beq.w	35ae6 <__ssvfscanf_r+0x382>
   35e12:	6b7b      	ldr	r3, [r7, #52]	; 0x34
   35e14:	6018      	str	r0, [r3, #0]
   35e16:	f8a3 9004 	strh.w	r9, [r3, #4]
   35e1a:	6b7b      	ldr	r3, [r7, #52]	; 0x34
   35e1c:	1c72      	adds	r2, r6, #1
   35e1e:	6b79      	ldr	r1, [r7, #52]	; 0x34
   35e20:	f04f 0a20 	mov.w	sl, #32
   35e24:	681b      	ldr	r3, [r3, #0]
   35e26:	62bd      	str	r5, [r7, #40]	; 0x28
   35e28:	f843 5026 	str.w	r5, [r3, r6, lsl #2]
   35e2c:	4645      	mov	r5, r8
   35e2e:	80ca      	strh	r2, [r1, #6]
   35e30:	2600      	movs	r6, #0
   35e32:	f003 fca5 	bl	39780 <__locale_mb_cur_max>
   35e36:	42b0      	cmp	r0, r6
   35e38:	f43f ad5c 	beq.w	358f4 <__ssvfscanf_r+0x190>
   35e3c:	6823      	ldr	r3, [r4, #0]
   35e3e:	f507 71a8 	add.w	r1, r7, #336	; 0x150
   35e42:	f106 0901 	add.w	r9, r6, #1
   35e46:	f813 2b01 	ldrb.w	r2, [r3], #1
   35e4a:	558a      	strb	r2, [r1, r6]
   35e4c:	6862      	ldr	r2, [r4, #4]
   35e4e:	3a01      	subs	r2, #1
   35e50:	e9c4 3200 	strd	r3, r2, [r4]
   35e54:	6a3b      	ldr	r3, [r7, #32]
   35e56:	2b03      	cmp	r3, #3
   35e58:	d102      	bne.n	35e60 <__ssvfscanf_r+0x6fc>
   35e5a:	6c3b      	ldr	r3, [r7, #64]	; 0x40
   35e5c:	2b04      	cmp	r3, #4
   35e5e:	d005      	beq.n	35e6c <__ssvfscanf_r+0x708>
   35e60:	2208      	movs	r2, #8
   35e62:	2100      	movs	r1, #0
   35e64:	f107 0040 	add.w	r0, r7, #64	; 0x40
   35e68:	f004 f8c2 	bl	39ff0 <memset>
   35e6c:	f107 0340 	add.w	r3, r7, #64	; 0x40
   35e70:	f507 72a8 	add.w	r2, r7, #336	; 0x150
   35e74:	4629      	mov	r1, r5
   35e76:	ee18 0a10 	vmov	r0, s16
   35e7a:	9300      	str	r3, [sp, #0]
   35e7c:	464b      	mov	r3, r9
   35e7e:	f003 ff4f 	bl	39d20 <_mbrtowc_r>
   35e82:	4603      	mov	r3, r0
   35e84:	6238      	str	r0, [r7, #32]
   35e86:	1c58      	adds	r0, r3, #1
   35e88:	f43f ad34 	beq.w	358f4 <__ssvfscanf_r+0x190>
   35e8c:	2b00      	cmp	r3, #0
   35e8e:	d14c      	bne.n	35f2a <__ssvfscanf_r+0x7c6>
   35e90:	602b      	str	r3, [r5, #0]
   35e92:	682e      	ldr	r6, [r5, #0]
   35e94:	1c71      	adds	r1, r6, #1
   35e96:	d059      	beq.n	35f4c <__ssvfscanf_r+0x7e8>
   35e98:	2208      	movs	r2, #8
   35e9a:	2100      	movs	r1, #0
   35e9c:	f107 0048 	add.w	r0, r7, #72	; 0x48
   35ea0:	f004 f8a6 	bl	39ff0 <memset>
   35ea4:	4b9c      	ldr	r3, [pc, #624]	; (36118 <__ssvfscanf_r+0x9b4>)
   35ea6:	4632      	mov	r2, r6
   35ea8:	f107 0138 	add.w	r1, r7, #56	; 0x38
   35eac:	f8d3 30e0 	ldr.w	r3, [r3, #224]	; 0xe0
   35eb0:	ee18 0a10 	vmov	r0, s16
   35eb4:	60fb      	str	r3, [r7, #12]
   35eb6:	f107 0348 	add.w	r3, r7, #72	; 0x48
   35eba:	68fe      	ldr	r6, [r7, #12]
   35ebc:	47b0      	blx	r6
   35ebe:	2801      	cmp	r0, #1
   35ec0:	d146      	bne.n	35f50 <__ssvfscanf_r+0x7ec>
   35ec2:	f897 2038 	ldrb.w	r2, [r7, #56]	; 0x38
   35ec6:	f107 0350 	add.w	r3, r7, #80	; 0x50
   35eca:	5c9b      	ldrb	r3, [r3, r2]
   35ecc:	2b00      	cmp	r3, #0
   35ece:	d14b      	bne.n	35f68 <__ssvfscanf_r+0x804>
   35ed0:	f507 76a8 	add.w	r6, r7, #336	; 0x150
   35ed4:	f1b9 0f00 	cmp.w	r9, #0
   35ed8:	d13c      	bne.n	35f54 <__ssvfscanf_r+0x7f0>
   35eda:	f1bb 0f00 	cmp.w	fp, #0
   35ede:	d114      	bne.n	35f0a <__ssvfscanf_r+0x7a6>
   35ee0:	6abb      	ldr	r3, [r7, #40]	; 0x28
   35ee2:	f8c5 b000 	str.w	fp, [r5]
   35ee6:	b16b      	cbz	r3, 35f04 <__ssvfscanf_r+0x7a0>
   35ee8:	eba5 0108 	sub.w	r1, r5, r8
   35eec:	108b      	asrs	r3, r1, #2
   35eee:	3301      	adds	r3, #1
   35ef0:	459a      	cmp	sl, r3
   35ef2:	d907      	bls.n	35f04 <__ssvfscanf_r+0x7a0>
   35ef4:	6abb      	ldr	r3, [r7, #40]	; 0x28
   35ef6:	3104      	adds	r1, #4
   35ef8:	6818      	ldr	r0, [r3, #0]
   35efa:	f004 fd61 	bl	3a9c0 <realloc>
   35efe:	b108      	cbz	r0, 35f04 <__ssvfscanf_r+0x7a0>
   35f00:	6abb      	ldr	r3, [r7, #40]	; 0x28
   35f02:	6018      	str	r0, [r3, #0]
   35f04:	6a7b      	ldr	r3, [r7, #36]	; 0x24
   35f06:	3301      	adds	r3, #1
   35f08:	627b      	str	r3, [r7, #36]	; 0x24
   35f0a:	693e      	ldr	r6, [r7, #16]
   35f0c:	e448      	b.n	357a0 <__ssvfscanf_r+0x3c>
   35f0e:	f04f 0a00 	mov.w	sl, #0
   35f12:	f107 053c 	add.w	r5, r7, #60	; 0x3c
   35f16:	613e      	str	r6, [r7, #16]
   35f18:	46d0      	mov	r8, sl
   35f1a:	f8c7 a028 	str.w	sl, [r7, #40]	; 0x28
   35f1e:	e787      	b.n	35e30 <__ssvfscanf_r+0x6cc>
   35f20:	46da      	mov	sl, fp
   35f22:	46d8      	mov	r8, fp
   35f24:	f8c7 b028 	str.w	fp, [r7, #40]	; 0x28
   35f28:	e782      	b.n	35e30 <__ssvfscanf_r+0x6cc>
   35f2a:	6a3b      	ldr	r3, [r7, #32]
   35f2c:	3302      	adds	r3, #2
   35f2e:	d1b0      	bne.n	35e92 <__ssvfscanf_r+0x72e>
   35f30:	6863      	ldr	r3, [r4, #4]
   35f32:	2b00      	cmp	r3, #0
   35f34:	dc42      	bgt.n	35fbc <__ssvfscanf_r+0x858>
   35f36:	4621      	mov	r1, r4
   35f38:	ee18 0a10 	vmov	r0, s16
   35f3c:	f006 fe8b 	bl	3cc56 <__ssrefill_r>
   35f40:	2800      	cmp	r0, #0
   35f42:	d03b      	beq.n	35fbc <__ssvfscanf_r+0x858>
   35f44:	f1b9 0f00 	cmp.w	r9, #0
   35f48:	d0c7      	beq.n	35eda <__ssvfscanf_r+0x776>
   35f4a:	e4d3      	b.n	358f4 <__ssvfscanf_r+0x190>
   35f4c:	4632      	mov	r2, r6
   35f4e:	e7ba      	b.n	35ec6 <__ssvfscanf_r+0x762>
   35f50:	2200      	movs	r2, #0
   35f52:	e7b8      	b.n	35ec6 <__ssvfscanf_r+0x762>
   35f54:	f109 39ff 	add.w	r9, r9, #4294967295	; 0xffffffff
   35f58:	4622      	mov	r2, r4
   35f5a:	ee18 0a10 	vmov	r0, s16
   35f5e:	f816 1009 	ldrb.w	r1, [r6, r9]
   35f62:	f006 fe3b 	bl	3cbdc <_sungetc_r>
   35f66:	e7b5      	b.n	35ed4 <__ssvfscanf_r+0x770>
   35f68:	6b3b      	ldr	r3, [r7, #48]	; 0x30
   35f6a:	444b      	add	r3, r9
   35f6c:	633b      	str	r3, [r7, #48]	; 0x30
   35f6e:	6a3b      	ldr	r3, [r7, #32]
   35f70:	2b03      	cmp	r3, #3
   35f72:	d102      	bne.n	35f7a <__ssvfscanf_r+0x816>
   35f74:	6c3b      	ldr	r3, [r7, #64]	; 0x40
   35f76:	2b04      	cmp	r3, #4
   35f78:	d002      	beq.n	35f80 <__ssvfscanf_r+0x81c>
   35f7a:	6afb      	ldr	r3, [r7, #44]	; 0x2c
   35f7c:	3b01      	subs	r3, #1
   35f7e:	62fb      	str	r3, [r7, #44]	; 0x2c
   35f80:	f1bb 0f00 	cmp.w	fp, #0
   35f84:	d117      	bne.n	35fb6 <__ssvfscanf_r+0x852>
   35f86:	6abb      	ldr	r3, [r7, #40]	; 0x28
   35f88:	3504      	adds	r5, #4
   35f8a:	b1a3      	cbz	r3, 35fb6 <__ssvfscanf_r+0x852>
   35f8c:	eba5 0608 	sub.w	r6, r5, r8
   35f90:	ebba 0fa6 	cmp.w	sl, r6, asr #2
   35f94:	d80d      	bhi.n	35fb2 <__ssvfscanf_r+0x84e>
   35f96:	4640      	mov	r0, r8
   35f98:	ea4f 01ca 	mov.w	r1, sl, lsl #3
   35f9c:	f004 fd10 	bl	3a9c0 <realloc>
   35fa0:	4680      	mov	r8, r0
   35fa2:	2800      	cmp	r0, #0
   35fa4:	f43f ad9f 	beq.w	35ae6 <__ssvfscanf_r+0x382>
   35fa8:	6abb      	ldr	r3, [r7, #40]	; 0x28
   35faa:	1985      	adds	r5, r0, r6
   35fac:	ea4f 0a4a 	mov.w	sl, sl, lsl #1
   35fb0:	6018      	str	r0, [r3, #0]
   35fb2:	46d9      	mov	r9, fp
   35fb4:	e7bc      	b.n	35f30 <__ssvfscanf_r+0x7cc>
   35fb6:	f04f 0900 	mov.w	r9, #0
   35fba:	e7b9      	b.n	35f30 <__ssvfscanf_r+0x7cc>
   35fbc:	6afb      	ldr	r3, [r7, #44]	; 0x2c
   35fbe:	2b00      	cmp	r3, #0
   35fc0:	d08b      	beq.n	35eda <__ssvfscanf_r+0x776>
   35fc2:	464e      	mov	r6, r9
   35fc4:	e735      	b.n	35e32 <__ssvfscanf_r+0x6ce>
   35fc6:	f1bb 0f00 	cmp.w	fp, #0
   35fca:	d01d      	beq.n	36008 <__ssvfscanf_r+0x8a4>
   35fcc:	f107 0850 	add.w	r8, r7, #80	; 0x50
   35fd0:	6823      	ldr	r3, [r4, #0]
   35fd2:	781a      	ldrb	r2, [r3, #0]
   35fd4:	f818 2002 	ldrb.w	r2, [r8, r2]
   35fd8:	b90a      	cbnz	r2, 35fde <__ssvfscanf_r+0x87a>
   35fda:	b995      	cbnz	r5, 36002 <__ssvfscanf_r+0x89e>
   35fdc:	e4be      	b.n	3595c <__ssvfscanf_r+0x1f8>
   35fde:	3301      	adds	r3, #1
   35fe0:	6862      	ldr	r2, [r4, #4]
   35fe2:	3501      	adds	r5, #1
   35fe4:	6023      	str	r3, [r4, #0]
   35fe6:	3a01      	subs	r2, #1
   35fe8:	6afb      	ldr	r3, [r7, #44]	; 0x2c
   35fea:	6062      	str	r2, [r4, #4]
   35fec:	429d      	cmp	r5, r3
   35fee:	d008      	beq.n	36002 <__ssvfscanf_r+0x89e>
   35ff0:	2a00      	cmp	r2, #0
   35ff2:	dced      	bgt.n	35fd0 <__ssvfscanf_r+0x86c>
   35ff4:	4621      	mov	r1, r4
   35ff6:	ee18 0a10 	vmov	r0, s16
   35ffa:	f006 fe2c 	bl	3cc56 <__ssrefill_r>
   35ffe:	2800      	cmp	r0, #0
   36000:	d0e6      	beq.n	35fd0 <__ssvfscanf_r+0x86c>
   36002:	6b3b      	ldr	r3, [r7, #48]	; 0x30
   36004:	442b      	add	r3, r5
   36006:	e46c      	b.n	358e2 <__ssvfscanf_r+0x17e>
   36008:	46b3      	mov	fp, r6
   3600a:	f019 0980 	ands.w	r9, r9, #128	; 0x80
   3600e:	f85b 6b04 	ldr.w	r6, [fp], #4
   36012:	d07f      	beq.n	36114 <__ssvfscanf_r+0x9b0>
   36014:	2e00      	cmp	r6, #0
   36016:	f43f aca1 	beq.w	3595c <__ssvfscanf_r+0x1f8>
   3601a:	2020      	movs	r0, #32
   3601c:	f003 fc48 	bl	398b0 <malloc>
   36020:	4680      	mov	r8, r0
   36022:	2800      	cmp	r0, #0
   36024:	f43f ac6b 	beq.w	358fe <__ssvfscanf_r+0x19a>
   36028:	6b7b      	ldr	r3, [r7, #52]	; 0x34
   3602a:	6030      	str	r0, [r6, #0]
   3602c:	f8b3 9006 	ldrh.w	r9, [r3, #6]
   36030:	889d      	ldrh	r5, [r3, #4]
   36032:	45a9      	cmp	r9, r5
   36034:	d311      	bcc.n	3605a <__ssvfscanf_r+0x8f6>
   36036:	f64f 73f6 	movw	r3, #65526	; 0xfff6
   3603a:	429d      	cmp	r5, r3
   3603c:	f63f ad5b 	bhi.w	35af6 <__ssvfscanf_r+0x392>
   36040:	3508      	adds	r5, #8
   36042:	6b7b      	ldr	r3, [r7, #52]	; 0x34
   36044:	b2ad      	uxth	r5, r5
   36046:	6818      	ldr	r0, [r3, #0]
   36048:	00a9      	lsls	r1, r5, #2
   3604a:	f004 fcb9 	bl	3a9c0 <realloc>
   3604e:	2800      	cmp	r0, #0
   36050:	f43f ad51 	beq.w	35af6 <__ssvfscanf_r+0x392>
   36054:	6b7b      	ldr	r3, [r7, #52]	; 0x34
   36056:	6018      	str	r0, [r3, #0]
   36058:	809d      	strh	r5, [r3, #4]
   3605a:	6b7b      	ldr	r3, [r7, #52]	; 0x34
   3605c:	f109 0201 	add.w	r2, r9, #1
   36060:	6b79      	ldr	r1, [r7, #52]	; 0x34
   36062:	46b2      	mov	sl, r6
   36064:	681b      	ldr	r3, [r3, #0]
   36066:	80ca      	strh	r2, [r1, #6]
   36068:	f843 6029 	str.w	r6, [r3, r9, lsl #2]
   3606c:	4646      	mov	r6, r8
   3606e:	f04f 0920 	mov.w	r9, #32
   36072:	4635      	mov	r5, r6
   36074:	f107 0850 	add.w	r8, r7, #80	; 0x50
   36078:	6823      	ldr	r3, [r4, #0]
   3607a:	781a      	ldrb	r2, [r3, #0]
   3607c:	f818 2002 	ldrb.w	r2, [r8, r2]
   36080:	b36a      	cbz	r2, 360de <__ssvfscanf_r+0x97a>
   36082:	6862      	ldr	r2, [r4, #4]
   36084:	3a01      	subs	r2, #1
   36086:	6062      	str	r2, [r4, #4]
   36088:	1c5a      	adds	r2, r3, #1
   3608a:	6022      	str	r2, [r4, #0]
   3608c:	781b      	ldrb	r3, [r3, #0]
   3608e:	f806 3b01 	strb.w	r3, [r6], #1
   36092:	f1ba 0f00 	cmp.w	sl, #0
   36096:	d011      	beq.n	360bc <__ssvfscanf_r+0x958>
   36098:	1b73      	subs	r3, r6, r5
   3609a:	454b      	cmp	r3, r9
   3609c:	d30e      	bcc.n	360bc <__ssvfscanf_r+0x958>
   3609e:	ea4f 0949 	mov.w	r9, r9, lsl #1
   360a2:	4628      	mov	r0, r5
   360a4:	62bb      	str	r3, [r7, #40]	; 0x28
   360a6:	4649      	mov	r1, r9
   360a8:	f004 fc8a 	bl	3a9c0 <realloc>
   360ac:	4605      	mov	r5, r0
   360ae:	2800      	cmp	r0, #0
   360b0:	f43f ac25 	beq.w	358fe <__ssvfscanf_r+0x19a>
   360b4:	6abb      	ldr	r3, [r7, #40]	; 0x28
   360b6:	f8ca 0000 	str.w	r0, [sl]
   360ba:	18c6      	adds	r6, r0, r3
   360bc:	6afb      	ldr	r3, [r7, #44]	; 0x2c
   360be:	3b01      	subs	r3, #1
   360c0:	62fb      	str	r3, [r7, #44]	; 0x2c
   360c2:	d00c      	beq.n	360de <__ssvfscanf_r+0x97a>
   360c4:	6863      	ldr	r3, [r4, #4]
   360c6:	2b00      	cmp	r3, #0
   360c8:	dcd6      	bgt.n	36078 <__ssvfscanf_r+0x914>
   360ca:	4621      	mov	r1, r4
   360cc:	ee18 0a10 	vmov	r0, s16
   360d0:	f006 fdc1 	bl	3cc56 <__ssrefill_r>
   360d4:	2800      	cmp	r0, #0
   360d6:	d0cf      	beq.n	36078 <__ssvfscanf_r+0x914>
   360d8:	42ae      	cmp	r6, r5
   360da:	f43f ac0b 	beq.w	358f4 <__ssvfscanf_r+0x190>
   360de:	1b75      	subs	r5, r6, r5
   360e0:	f43f ac3c 	beq.w	3595c <__ssvfscanf_r+0x1f8>
   360e4:	2300      	movs	r3, #0
   360e6:	7033      	strb	r3, [r6, #0]
   360e8:	f1ba 0f00 	cmp.w	sl, #0
   360ec:	d009      	beq.n	36102 <__ssvfscanf_r+0x99e>
   360ee:	1c69      	adds	r1, r5, #1
   360f0:	4589      	cmp	r9, r1
   360f2:	d906      	bls.n	36102 <__ssvfscanf_r+0x99e>
   360f4:	f8da 0000 	ldr.w	r0, [sl]
   360f8:	f004 fc62 	bl	3a9c0 <realloc>
   360fc:	b108      	cbz	r0, 36102 <__ssvfscanf_r+0x99e>
   360fe:	f8ca 0000 	str.w	r0, [sl]
   36102:	6a7b      	ldr	r3, [r7, #36]	; 0x24
   36104:	3301      	adds	r3, #1
   36106:	627b      	str	r3, [r7, #36]	; 0x24
   36108:	6b3b      	ldr	r3, [r7, #48]	; 0x30
   3610a:	442b      	add	r3, r5
   3610c:	633b      	str	r3, [r7, #48]	; 0x30
   3610e:	465e      	mov	r6, fp
   36110:	f7ff bb46 	b.w	357a0 <__ssvfscanf_r+0x3c>
   36114:	46ca      	mov	sl, r9
   36116:	e7ac      	b.n	36072 <__ssvfscanf_r+0x90e>
   36118:	20006430 	.word	0x20006430
   3611c:	6afb      	ldr	r3, [r7, #44]	; 0x2c
   3611e:	f009 0810 	and.w	r8, r9, #16
   36122:	2b00      	cmp	r3, #0
   36124:	bf08      	it	eq
   36126:	f04f 33ff 	moveq.w	r3, #4294967295	; 0xffffffff
   3612a:	f019 0501 	ands.w	r5, r9, #1
   3612e:	62fb      	str	r3, [r7, #44]	; 0x2c
   36130:	f000 80fb 	beq.w	3632a <__ssvfscanf_r+0xbc6>
   36134:	f1b8 0f00 	cmp.w	r8, #0
   36138:	f040 80a0 	bne.w	3627c <__ssvfscanf_r+0xb18>
   3613c:	4633      	mov	r3, r6
   3613e:	f019 0f80 	tst.w	r9, #128	; 0x80
   36142:	f853 6b04 	ldr.w	r6, [r3], #4
   36146:	62bb      	str	r3, [r7, #40]	; 0x28
   36148:	f000 80a0 	beq.w	3628c <__ssvfscanf_r+0xb28>
   3614c:	2e00      	cmp	r6, #0
   3614e:	f43f accd 	beq.w	35aec <__ssvfscanf_r+0x388>
   36152:	2080      	movs	r0, #128	; 0x80
   36154:	f003 fbac 	bl	398b0 <malloc>
   36158:	4605      	mov	r5, r0
   3615a:	2800      	cmp	r0, #0
   3615c:	f43f acc3 	beq.w	35ae6 <__ssvfscanf_r+0x382>
   36160:	6b7b      	ldr	r3, [r7, #52]	; 0x34
   36162:	6030      	str	r0, [r6, #0]
   36164:	f8b3 9006 	ldrh.w	r9, [r3, #6]
   36168:	889b      	ldrh	r3, [r3, #4]
   3616a:	4599      	cmp	r9, r3
   3616c:	d314      	bcc.n	36198 <__ssvfscanf_r+0xa34>
   3616e:	f64f 72f6 	movw	r2, #65526	; 0xfff6
   36172:	4293      	cmp	r3, r2
   36174:	f63f acb7 	bhi.w	35ae6 <__ssvfscanf_r+0x382>
   36178:	3308      	adds	r3, #8
   3617a:	fa1f fa83 	uxth.w	sl, r3
   3617e:	6b7b      	ldr	r3, [r7, #52]	; 0x34
   36180:	ea4f 018a 	mov.w	r1, sl, lsl #2
   36184:	6818      	ldr	r0, [r3, #0]
   36186:	f004 fc1b 	bl	3a9c0 <realloc>
   3618a:	2800      	cmp	r0, #0
   3618c:	f43f acab 	beq.w	35ae6 <__ssvfscanf_r+0x382>
   36190:	6b7b      	ldr	r3, [r7, #52]	; 0x34
   36192:	6018      	str	r0, [r3, #0]
   36194:	f8a3 a004 	strh.w	sl, [r3, #4]
   36198:	6b7b      	ldr	r3, [r7, #52]	; 0x34
   3619a:	f109 0201 	add.w	r2, r9, #1
   3619e:	6b79      	ldr	r1, [r7, #52]	; 0x34
   361a0:	46b2      	mov	sl, r6
   361a2:	681b      	ldr	r3, [r3, #0]
   361a4:	80ca      	strh	r2, [r1, #6]
   361a6:	f843 6029 	str.w	r6, [r3, r9, lsl #2]
   361aa:	462e      	mov	r6, r5
   361ac:	f04f 0920 	mov.w	r9, #32
   361b0:	2200      	movs	r2, #0
   361b2:	f107 0b48 	add.w	fp, r7, #72	; 0x48
   361b6:	6823      	ldr	r3, [r4, #0]
   361b8:	49aa      	ldr	r1, [pc, #680]	; (36464 <__ssvfscanf_r+0xd00>)
   361ba:	781b      	ldrb	r3, [r3, #0]
   361bc:	5c5b      	ldrb	r3, [r3, r1]
   361be:	0718      	lsls	r0, r3, #28
   361c0:	d441      	bmi.n	36246 <__ssvfscanf_r+0xae2>
   361c2:	6afb      	ldr	r3, [r7, #44]	; 0x2c
   361c4:	2b00      	cmp	r3, #0
   361c6:	d03e      	beq.n	36246 <__ssvfscanf_r+0xae2>
   361c8:	613a      	str	r2, [r7, #16]
   361ca:	f003 fad9 	bl	39780 <__locale_mb_cur_max>
   361ce:	693a      	ldr	r2, [r7, #16]
   361d0:	4290      	cmp	r0, r2
   361d2:	f43f ab8f 	beq.w	358f4 <__ssvfscanf_r+0x190>
   361d6:	6821      	ldr	r1, [r4, #0]
   361d8:	f507 7ca8 	add.w	ip, r7, #336	; 0x150
   361dc:	1c53      	adds	r3, r2, #1
   361de:	f811 0b01 	ldrb.w	r0, [r1], #1
   361e2:	f80c 0002 	strb.w	r0, [ip, r2]
   361e6:	6862      	ldr	r2, [r4, #4]
   361e8:	3a01      	subs	r2, #1
   361ea:	e9c4 1200 	strd	r1, r2, [r4]
   361ee:	6a3a      	ldr	r2, [r7, #32]
   361f0:	2a03      	cmp	r2, #3
   361f2:	d103      	bne.n	361fc <__ssvfscanf_r+0xa98>
   361f4:	f8db 2000 	ldr.w	r2, [fp]
   361f8:	2a04      	cmp	r2, #4
   361fa:	d006      	beq.n	3620a <__ssvfscanf_r+0xaa6>
   361fc:	2208      	movs	r2, #8
   361fe:	2100      	movs	r1, #0
   36200:	4658      	mov	r0, fp
   36202:	623b      	str	r3, [r7, #32]
   36204:	f003 fef4 	bl	39ff0 <memset>
   36208:	6a3b      	ldr	r3, [r7, #32]
   3620a:	f507 72a8 	add.w	r2, r7, #336	; 0x150
   3620e:	4631      	mov	r1, r6
   36210:	ee18 0a10 	vmov	r0, s16
   36214:	f8cd b000 	str.w	fp, [sp]
   36218:	613b      	str	r3, [r7, #16]
   3621a:	f003 fd81 	bl	39d20 <_mbrtowc_r>
   3621e:	1c42      	adds	r2, r0, #1
   36220:	6238      	str	r0, [r7, #32]
   36222:	f43f ab67 	beq.w	358f4 <__ssvfscanf_r+0x190>
   36226:	693b      	ldr	r3, [r7, #16]
   36228:	2800      	cmp	r0, #0
   3622a:	d133      	bne.n	36294 <__ssvfscanf_r+0xb30>
   3622c:	6030      	str	r0, [r6, #0]
   3622e:	6830      	ldr	r0, [r6, #0]
   36230:	613b      	str	r3, [r7, #16]
   36232:	f003 fa77 	bl	39724 <iswspace>
   36236:	693b      	ldr	r3, [r7, #16]
   36238:	4602      	mov	r2, r0
   3623a:	2800      	cmp	r0, #0
   3623c:	d049      	beq.n	362d2 <__ssvfscanf_r+0xb6e>
   3623e:	f507 7ba8 	add.w	fp, r7, #336	; 0x150
   36242:	2b00      	cmp	r3, #0
   36244:	d13a      	bne.n	362bc <__ssvfscanf_r+0xb58>
   36246:	f1b8 0f00 	cmp.w	r8, #0
   3624a:	d114      	bne.n	36276 <__ssvfscanf_r+0xb12>
   3624c:	f8c6 8000 	str.w	r8, [r6]
   36250:	f1ba 0f00 	cmp.w	sl, #0
   36254:	d00c      	beq.n	36270 <__ssvfscanf_r+0xb0c>
   36256:	1b71      	subs	r1, r6, r5
   36258:	108b      	asrs	r3, r1, #2
   3625a:	3301      	adds	r3, #1
   3625c:	4599      	cmp	r9, r3
   3625e:	d907      	bls.n	36270 <__ssvfscanf_r+0xb0c>
   36260:	3104      	adds	r1, #4
   36262:	f8da 0000 	ldr.w	r0, [sl]
   36266:	f004 fbab 	bl	3a9c0 <realloc>
   3626a:	b108      	cbz	r0, 36270 <__ssvfscanf_r+0xb0c>
   3626c:	f8ca 0000 	str.w	r0, [sl]
   36270:	6a7b      	ldr	r3, [r7, #36]	; 0x24
   36272:	3301      	adds	r3, #1
   36274:	627b      	str	r3, [r7, #36]	; 0x24
   36276:	6abe      	ldr	r6, [r7, #40]	; 0x28
   36278:	f7ff ba92 	b.w	357a0 <__ssvfscanf_r+0x3c>
   3627c:	f04f 0900 	mov.w	r9, #0
   36280:	62be      	str	r6, [r7, #40]	; 0x28
   36282:	f107 063c 	add.w	r6, r7, #60	; 0x3c
   36286:	464d      	mov	r5, r9
   36288:	46ca      	mov	sl, r9
   3628a:	e791      	b.n	361b0 <__ssvfscanf_r+0xa4c>
   3628c:	46c1      	mov	r9, r8
   3628e:	4645      	mov	r5, r8
   36290:	46c2      	mov	sl, r8
   36292:	e78d      	b.n	361b0 <__ssvfscanf_r+0xa4c>
   36294:	6a3a      	ldr	r2, [r7, #32]
   36296:	3202      	adds	r2, #2
   36298:	d1c9      	bne.n	3622e <__ssvfscanf_r+0xaca>
   3629a:	461a      	mov	r2, r3
   3629c:	6863      	ldr	r3, [r4, #4]
   3629e:	2b00      	cmp	r3, #0
   362a0:	dc89      	bgt.n	361b6 <__ssvfscanf_r+0xa52>
   362a2:	4621      	mov	r1, r4
   362a4:	ee18 0a10 	vmov	r0, s16
   362a8:	613a      	str	r2, [r7, #16]
   362aa:	f006 fcd4 	bl	3cc56 <__ssrefill_r>
   362ae:	693a      	ldr	r2, [r7, #16]
   362b0:	2800      	cmp	r0, #0
   362b2:	d080      	beq.n	361b6 <__ssvfscanf_r+0xa52>
   362b4:	2a00      	cmp	r2, #0
   362b6:	f47f ab1d 	bne.w	358f4 <__ssvfscanf_r+0x190>
   362ba:	e7c4      	b.n	36246 <__ssvfscanf_r+0xae2>
   362bc:	3b01      	subs	r3, #1
   362be:	4622      	mov	r2, r4
   362c0:	ee18 0a10 	vmov	r0, s16
   362c4:	f81b 1003 	ldrb.w	r1, [fp, r3]
   362c8:	62fb      	str	r3, [r7, #44]	; 0x2c
   362ca:	f006 fc87 	bl	3cbdc <_sungetc_r>
   362ce:	6afb      	ldr	r3, [r7, #44]	; 0x2c
   362d0:	e7b7      	b.n	36242 <__ssvfscanf_r+0xade>
   362d2:	6b39      	ldr	r1, [r7, #48]	; 0x30
   362d4:	4419      	add	r1, r3
   362d6:	6a3b      	ldr	r3, [r7, #32]
   362d8:	2b03      	cmp	r3, #3
   362da:	6339      	str	r1, [r7, #48]	; 0x30
   362dc:	d103      	bne.n	362e6 <__ssvfscanf_r+0xb82>
   362de:	f8db 3000 	ldr.w	r3, [fp]
   362e2:	2b04      	cmp	r3, #4
   362e4:	d002      	beq.n	362ec <__ssvfscanf_r+0xb88>
   362e6:	6afb      	ldr	r3, [r7, #44]	; 0x2c
   362e8:	3b01      	subs	r3, #1
   362ea:	62fb      	str	r3, [r7, #44]	; 0x2c
   362ec:	f1b8 0f00 	cmp.w	r8, #0
   362f0:	d1d4      	bne.n	3629c <__ssvfscanf_r+0xb38>
   362f2:	3604      	adds	r6, #4
   362f4:	f1ba 0f00 	cmp.w	sl, #0
   362f8:	d015      	beq.n	36326 <__ssvfscanf_r+0xbc2>
   362fa:	1b73      	subs	r3, r6, r5
   362fc:	ebb9 0fa3 	cmp.w	r9, r3, asr #2
   36300:	d80f      	bhi.n	36322 <__ssvfscanf_r+0xbbe>
   36302:	4628      	mov	r0, r5
   36304:	ea4f 01c9 	mov.w	r1, r9, lsl #3
   36308:	613b      	str	r3, [r7, #16]
   3630a:	f004 fb59 	bl	3a9c0 <realloc>
   3630e:	4605      	mov	r5, r0
   36310:	2800      	cmp	r0, #0
   36312:	f43f abe8 	beq.w	35ae6 <__ssvfscanf_r+0x382>
   36316:	693b      	ldr	r3, [r7, #16]
   36318:	ea4f 0949 	mov.w	r9, r9, lsl #1
   3631c:	f8ca 0000 	str.w	r0, [sl]
   36320:	18c6      	adds	r6, r0, r3
   36322:	4642      	mov	r2, r8
   36324:	e7ba      	b.n	3629c <__ssvfscanf_r+0xb38>
   36326:	4652      	mov	r2, sl
   36328:	e7b8      	b.n	3629c <__ssvfscanf_r+0xb38>
   3632a:	f1b8 0f00 	cmp.w	r8, #0
   3632e:	d01a      	beq.n	36366 <__ssvfscanf_r+0xc02>
   36330:	6823      	ldr	r3, [r4, #0]
   36332:	494c      	ldr	r1, [pc, #304]	; (36464 <__ssvfscanf_r+0xd00>)
   36334:	781a      	ldrb	r2, [r3, #0]
   36336:	5c52      	ldrb	r2, [r2, r1]
   36338:	0711      	lsls	r1, r2, #28
   3633a:	f53f ae62 	bmi.w	36002 <__ssvfscanf_r+0x89e>
   3633e:	3301      	adds	r3, #1
   36340:	6862      	ldr	r2, [r4, #4]
   36342:	3501      	adds	r5, #1
   36344:	6023      	str	r3, [r4, #0]
   36346:	3a01      	subs	r2, #1
   36348:	6afb      	ldr	r3, [r7, #44]	; 0x2c
   3634a:	6062      	str	r2, [r4, #4]
   3634c:	429d      	cmp	r5, r3
   3634e:	f43f ae58 	beq.w	36002 <__ssvfscanf_r+0x89e>
   36352:	2a00      	cmp	r2, #0
   36354:	dcec      	bgt.n	36330 <__ssvfscanf_r+0xbcc>
   36356:	4621      	mov	r1, r4
   36358:	ee18 0a10 	vmov	r0, s16
   3635c:	f006 fc7b 	bl	3cc56 <__ssrefill_r>
   36360:	2800      	cmp	r0, #0
   36362:	d0e5      	beq.n	36330 <__ssvfscanf_r+0xbcc>
   36364:	e64d      	b.n	36002 <__ssvfscanf_r+0x89e>
   36366:	46b3      	mov	fp, r6
   36368:	f019 0580 	ands.w	r5, r9, #128	; 0x80
   3636c:	f85b 6b04 	ldr.w	r6, [fp], #4
   36370:	d076      	beq.n	36460 <__ssvfscanf_r+0xcfc>
   36372:	2e00      	cmp	r6, #0
   36374:	f43f aaf2 	beq.w	3595c <__ssvfscanf_r+0x1f8>
   36378:	2020      	movs	r0, #32
   3637a:	f003 fa99 	bl	398b0 <malloc>
   3637e:	4680      	mov	r8, r0
   36380:	2800      	cmp	r0, #0
   36382:	f43f aabc 	beq.w	358fe <__ssvfscanf_r+0x19a>
   36386:	6b7b      	ldr	r3, [r7, #52]	; 0x34
   36388:	6030      	str	r0, [r6, #0]
   3638a:	f8b3 9006 	ldrh.w	r9, [r3, #6]
   3638e:	889d      	ldrh	r5, [r3, #4]
   36390:	45a9      	cmp	r9, r5
   36392:	d311      	bcc.n	363b8 <__ssvfscanf_r+0xc54>
   36394:	f64f 73f6 	movw	r3, #65526	; 0xfff6
   36398:	429d      	cmp	r5, r3
   3639a:	f63f abac 	bhi.w	35af6 <__ssvfscanf_r+0x392>
   3639e:	3508      	adds	r5, #8
   363a0:	6b7b      	ldr	r3, [r7, #52]	; 0x34
   363a2:	b2ad      	uxth	r5, r5
   363a4:	6818      	ldr	r0, [r3, #0]
   363a6:	00a9      	lsls	r1, r5, #2
   363a8:	f004 fb0a 	bl	3a9c0 <realloc>
   363ac:	2800      	cmp	r0, #0
   363ae:	f43f aba2 	beq.w	35af6 <__ssvfscanf_r+0x392>
   363b2:	6b7b      	ldr	r3, [r7, #52]	; 0x34
   363b4:	6018      	str	r0, [r3, #0]
   363b6:	809d      	strh	r5, [r3, #4]
   363b8:	6b7b      	ldr	r3, [r7, #52]	; 0x34
   363ba:	f109 0201 	add.w	r2, r9, #1
   363be:	6b79      	ldr	r1, [r7, #52]	; 0x34
   363c0:	2520      	movs	r5, #32
   363c2:	681b      	ldr	r3, [r3, #0]
   363c4:	80ca      	strh	r2, [r1, #6]
   363c6:	f843 6029 	str.w	r6, [r3, r9, lsl #2]
   363ca:	46b1      	mov	r9, r6
   363cc:	4646      	mov	r6, r8
   363ce:	46b0      	mov	r8, r6
   363d0:	6823      	ldr	r3, [r4, #0]
   363d2:	4924      	ldr	r1, [pc, #144]	; (36464 <__ssvfscanf_r+0xd00>)
   363d4:	781a      	ldrb	r2, [r3, #0]
   363d6:	5c52      	ldrb	r2, [r2, r1]
   363d8:	0712      	lsls	r2, r2, #28
   363da:	d429      	bmi.n	36430 <__ssvfscanf_r+0xccc>
   363dc:	6862      	ldr	r2, [r4, #4]
   363de:	3a01      	subs	r2, #1
   363e0:	6062      	str	r2, [r4, #4]
   363e2:	1c5a      	adds	r2, r3, #1
   363e4:	6022      	str	r2, [r4, #0]
   363e6:	781b      	ldrb	r3, [r3, #0]
   363e8:	f806 3b01 	strb.w	r3, [r6], #1
   363ec:	f1b9 0f00 	cmp.w	r9, #0
   363f0:	d010      	beq.n	36414 <__ssvfscanf_r+0xcb0>
   363f2:	eba6 0a08 	sub.w	sl, r6, r8
   363f6:	45aa      	cmp	sl, r5
   363f8:	d30c      	bcc.n	36414 <__ssvfscanf_r+0xcb0>
   363fa:	006d      	lsls	r5, r5, #1
   363fc:	4640      	mov	r0, r8
   363fe:	4629      	mov	r1, r5
   36400:	f004 fade 	bl	3a9c0 <realloc>
   36404:	4680      	mov	r8, r0
   36406:	2800      	cmp	r0, #0
   36408:	f43f aa79 	beq.w	358fe <__ssvfscanf_r+0x19a>
   3640c:	eb00 060a 	add.w	r6, r0, sl
   36410:	f8c9 0000 	str.w	r0, [r9]
   36414:	6afb      	ldr	r3, [r7, #44]	; 0x2c
   36416:	3b01      	subs	r3, #1
   36418:	62fb      	str	r3, [r7, #44]	; 0x2c
   3641a:	d009      	beq.n	36430 <__ssvfscanf_r+0xccc>
   3641c:	6863      	ldr	r3, [r4, #4]
   3641e:	2b00      	cmp	r3, #0
   36420:	dcd6      	bgt.n	363d0 <__ssvfscanf_r+0xc6c>
   36422:	4621      	mov	r1, r4
   36424:	ee18 0a10 	vmov	r0, s16
   36428:	f006 fc15 	bl	3cc56 <__ssrefill_r>
   3642c:	2800      	cmp	r0, #0
   3642e:	d0cf      	beq.n	363d0 <__ssvfscanf_r+0xc6c>
   36430:	2300      	movs	r3, #0
   36432:	7033      	strb	r3, [r6, #0]
   36434:	eba6 0608 	sub.w	r6, r6, r8
   36438:	f1b9 0f00 	cmp.w	r9, #0
   3643c:	d009      	beq.n	36452 <__ssvfscanf_r+0xcee>
   3643e:	1c71      	adds	r1, r6, #1
   36440:	428d      	cmp	r5, r1
   36442:	d906      	bls.n	36452 <__ssvfscanf_r+0xcee>
   36444:	f8d9 0000 	ldr.w	r0, [r9]
   36448:	f004 faba 	bl	3a9c0 <realloc>
   3644c:	b108      	cbz	r0, 36452 <__ssvfscanf_r+0xcee>
   3644e:	f8c9 0000 	str.w	r0, [r9]
   36452:	6b3b      	ldr	r3, [r7, #48]	; 0x30
   36454:	4433      	add	r3, r6
   36456:	633b      	str	r3, [r7, #48]	; 0x30
   36458:	6a7b      	ldr	r3, [r7, #36]	; 0x24
   3645a:	3301      	adds	r3, #1
   3645c:	627b      	str	r3, [r7, #36]	; 0x24
   3645e:	e656      	b.n	3610e <__ssvfscanf_r+0x9aa>
   36460:	46a9      	mov	r9, r5
   36462:	e7b4      	b.n	363ce <__ssvfscanf_r+0xc6a>
   36464:	0004056b 	.word	0x0004056b
   36468:	6afb      	ldr	r3, [r7, #44]	; 0x2c
   3646a:	f04f 0a00 	mov.w	sl, #0
   3646e:	f507 78a8 	add.w	r8, r7, #336	; 0x150
   36472:	3b01      	subs	r3, #1
   36474:	f5b3 7fae 	cmp.w	r3, #348	; 0x15c
   36478:	bf85      	ittet	hi
   3647a:	6afb      	ldrhi	r3, [r7, #44]	; 0x2c
   3647c:	f46f 70ae 	mvnhi.w	r0, #348	; 0x15c
   36480:	f04f 0b00 	movls.w	fp, #0
   36484:	eb03 0b00 	addhi.w	fp, r3, r0
   36488:	bf84      	itt	hi
   3648a:	f240 135d 	movwhi	r3, #349	; 0x15d
   3648e:	62fb      	strhi	r3, [r7, #44]	; 0x2c
   36490:	f449 6358 	orr.w	r3, r9, #3456	; 0xd80
   36494:	f8df 947c 	ldr.w	r9, [pc, #1148]	; 36914 <__ssvfscanf_r+0x11b0>
   36498:	62bb      	str	r3, [r7, #40]	; 0x28
   3649a:	6822      	ldr	r2, [r4, #0]
   3649c:	7813      	ldrb	r3, [r2, #0]
   3649e:	2b39      	cmp	r3, #57	; 0x39
   364a0:	d80f      	bhi.n	364c2 <__ssvfscanf_r+0xd5e>
   364a2:	2b2a      	cmp	r3, #42	; 0x2a
   364a4:	d91a      	bls.n	364dc <__ssvfscanf_r+0xd78>
   364a6:	f1a3 012b 	sub.w	r1, r3, #43	; 0x2b
   364aa:	290e      	cmp	r1, #14
   364ac:	d816      	bhi.n	364dc <__ssvfscanf_r+0xd78>
   364ae:	e8df f001 	tbb	[pc, r1]
   364b2:	157f      	.short	0x157f
   364b4:	4215157f 	.word	0x4215157f
   364b8:	70707070 	.word	0x70707070
   364bc:	78707070 	.word	0x78707070
   364c0:	78          	.byte	0x78
   364c1:	00          	.byte	0x00
   364c2:	2b66      	cmp	r3, #102	; 0x66
   364c4:	d835      	bhi.n	36532 <__ssvfscanf_r+0xdce>
   364c6:	2b60      	cmp	r3, #96	; 0x60
   364c8:	d803      	bhi.n	364d2 <__ssvfscanf_r+0xd6e>
   364ca:	2b46      	cmp	r3, #70	; 0x46
   364cc:	d804      	bhi.n	364d8 <__ssvfscanf_r+0xd74>
   364ce:	2b40      	cmp	r3, #64	; 0x40
   364d0:	d904      	bls.n	364dc <__ssvfscanf_r+0xd78>
   364d2:	69f9      	ldr	r1, [r7, #28]
   364d4:	290a      	cmp	r1, #10
   364d6:	e069      	b.n	365ac <__ssvfscanf_r+0xe48>
   364d8:	2b58      	cmp	r3, #88	; 0x58
   364da:	d06f      	beq.n	365bc <__ssvfscanf_r+0xe58>
   364dc:	6abb      	ldr	r3, [r7, #40]	; 0x28
   364de:	05db      	lsls	r3, r3, #23
   364e0:	d512      	bpl.n	36508 <__ssvfscanf_r+0xda4>
   364e2:	f507 73a8 	add.w	r3, r7, #336	; 0x150
   364e6:	4598      	cmp	r8, r3
   364e8:	d909      	bls.n	364fe <__ssvfscanf_r+0xd9a>
   364ea:	f108 39ff 	add.w	r9, r8, #4294967295	; 0xffffffff
   364ee:	f818 1c01 	ldrb.w	r1, [r8, #-1]
   364f2:	4622      	mov	r2, r4
   364f4:	ee18 0a10 	vmov	r0, s16
   364f8:	46c8      	mov	r8, r9
   364fa:	f006 fb6f 	bl	3cbdc <_sungetc_r>
   364fe:	f507 73a8 	add.w	r3, r7, #336	; 0x150
   36502:	4598      	cmp	r8, r3
   36504:	f43f aa2a 	beq.w	3595c <__ssvfscanf_r+0x1f8>
   36508:	6abb      	ldr	r3, [r7, #40]	; 0x28
   3650a:	f013 0210 	ands.w	r2, r3, #16
   3650e:	d175      	bne.n	365fc <__ssvfscanf_r+0xe98>
   36510:	69fb      	ldr	r3, [r7, #28]
   36512:	f507 71a8 	add.w	r1, r7, #336	; 0x150
   36516:	69bd      	ldr	r5, [r7, #24]
   36518:	ee18 0a10 	vmov	r0, s16
   3651c:	f888 2000 	strb.w	r2, [r8]
   36520:	47a8      	blx	r5
   36522:	6abb      	ldr	r3, [r7, #40]	; 0x28
   36524:	f106 0904 	add.w	r9, r6, #4
   36528:	069d      	lsls	r5, r3, #26
   3652a:	d55e      	bpl.n	365ea <__ssvfscanf_r+0xe86>
   3652c:	6833      	ldr	r3, [r6, #0]
   3652e:	6018      	str	r0, [r3, #0]
   36530:	e060      	b.n	365f4 <__ssvfscanf_r+0xe90>
   36532:	2b78      	cmp	r3, #120	; 0x78
   36534:	e7d1      	b.n	364da <__ssvfscanf_r+0xd76>
   36536:	6ab9      	ldr	r1, [r7, #40]	; 0x28
   36538:	0509      	lsls	r1, r1, #20
   3653a:	d50d      	bpl.n	36558 <__ssvfscanf_r+0xdf4>
   3653c:	69f9      	ldr	r1, [r7, #28]
   3653e:	b929      	cbnz	r1, 3654c <__ssvfscanf_r+0xde8>
   36540:	6ab9      	ldr	r1, [r7, #40]	; 0x28
   36542:	f441 7100 	orr.w	r1, r1, #512	; 0x200
   36546:	62b9      	str	r1, [r7, #40]	; 0x28
   36548:	2108      	movs	r1, #8
   3654a:	61f9      	str	r1, [r7, #28]
   3654c:	6ab9      	ldr	r1, [r7, #40]	; 0x28
   3654e:	054d      	lsls	r5, r1, #21
   36550:	d505      	bpl.n	3655e <__ssvfscanf_r+0xdfa>
   36552:	f421 61b0 	bic.w	r1, r1, #1408	; 0x580
   36556:	62b9      	str	r1, [r7, #40]	; 0x28
   36558:	f808 3b01 	strb.w	r3, [r8], #1
   3655c:	e00d      	b.n	3657a <__ssvfscanf_r+0xe16>
   3655e:	6abb      	ldr	r3, [r7, #40]	; 0x28
   36560:	f423 7360 	bic.w	r3, r3, #896	; 0x380
   36564:	62bb      	str	r3, [r7, #40]	; 0x28
   36566:	f1bb 0f00 	cmp.w	fp, #0
   3656a:	d004      	beq.n	36576 <__ssvfscanf_r+0xe12>
   3656c:	6afb      	ldr	r3, [r7, #44]	; 0x2c
   3656e:	f10b 3bff 	add.w	fp, fp, #4294967295	; 0xffffffff
   36572:	3301      	adds	r3, #1
   36574:	62fb      	str	r3, [r7, #44]	; 0x2c
   36576:	f10a 0a01 	add.w	sl, sl, #1
   3657a:	6863      	ldr	r3, [r4, #4]
   3657c:	3b01      	subs	r3, #1
   3657e:	2b00      	cmp	r3, #0
   36580:	6063      	str	r3, [r4, #4]
   36582:	dd2a      	ble.n	365da <__ssvfscanf_r+0xe76>
   36584:	3201      	adds	r2, #1
   36586:	6022      	str	r2, [r4, #0]
   36588:	6afb      	ldr	r3, [r7, #44]	; 0x2c
   3658a:	3b01      	subs	r3, #1
   3658c:	62fb      	str	r3, [r7, #44]	; 0x2c
   3658e:	d184      	bne.n	3649a <__ssvfscanf_r+0xd36>
   36590:	e7a4      	b.n	364dc <__ssvfscanf_r+0xd78>
   36592:	69f9      	ldr	r1, [r7, #28]
   36594:	f939 1011 	ldrsh.w	r1, [r9, r1, lsl #1]
   36598:	61f9      	str	r1, [r7, #28]
   3659a:	6ab9      	ldr	r1, [r7, #40]	; 0x28
   3659c:	f421 6138 	bic.w	r1, r1, #2944	; 0xb80
   365a0:	e7d9      	b.n	36556 <__ssvfscanf_r+0xdf2>
   365a2:	69f9      	ldr	r1, [r7, #28]
   365a4:	f939 1011 	ldrsh.w	r1, [r9, r1, lsl #1]
   365a8:	2908      	cmp	r1, #8
   365aa:	61f9      	str	r1, [r7, #28]
   365ac:	dcf5      	bgt.n	3659a <__ssvfscanf_r+0xe36>
   365ae:	e795      	b.n	364dc <__ssvfscanf_r+0xd78>
   365b0:	6ab9      	ldr	r1, [r7, #40]	; 0x28
   365b2:	0608      	lsls	r0, r1, #24
   365b4:	d592      	bpl.n	364dc <__ssvfscanf_r+0xd78>
   365b6:	f021 0180 	bic.w	r1, r1, #128	; 0x80
   365ba:	e7cc      	b.n	36556 <__ssvfscanf_r+0xdf2>
   365bc:	6ab9      	ldr	r1, [r7, #40]	; 0x28
   365be:	f401 61c0 	and.w	r1, r1, #1536	; 0x600
   365c2:	f5b1 7f00 	cmp.w	r1, #512	; 0x200
   365c6:	d189      	bne.n	364dc <__ssvfscanf_r+0xd78>
   365c8:	6ab9      	ldr	r1, [r7, #40]	; 0x28
   365ca:	f421 7500 	bic.w	r5, r1, #512	; 0x200
   365ce:	f445 61a0 	orr.w	r1, r5, #1280	; 0x500
   365d2:	62b9      	str	r1, [r7, #40]	; 0x28
   365d4:	2110      	movs	r1, #16
   365d6:	61f9      	str	r1, [r7, #28]
   365d8:	e7be      	b.n	36558 <__ssvfscanf_r+0xdf4>
   365da:	4621      	mov	r1, r4
   365dc:	ee18 0a10 	vmov	r0, s16
   365e0:	f006 fb39 	bl	3cc56 <__ssrefill_r>
   365e4:	2800      	cmp	r0, #0
   365e6:	d0cf      	beq.n	36588 <__ssvfscanf_r+0xe24>
   365e8:	e778      	b.n	364dc <__ssvfscanf_r+0xd78>
   365ea:	6abb      	ldr	r3, [r7, #40]	; 0x28
   365ec:	0719      	lsls	r1, r3, #28
   365ee:	d50e      	bpl.n	3660e <__ssvfscanf_r+0xeaa>
   365f0:	6833      	ldr	r3, [r6, #0]
   365f2:	7018      	strb	r0, [r3, #0]
   365f4:	6a7b      	ldr	r3, [r7, #36]	; 0x24
   365f6:	464e      	mov	r6, r9
   365f8:	3301      	adds	r3, #1
   365fa:	627b      	str	r3, [r7, #36]	; 0x24
   365fc:	f507 73a8 	add.w	r3, r7, #336	; 0x150
   36600:	eba8 0803 	sub.w	r8, r8, r3
   36604:	6b3b      	ldr	r3, [r7, #48]	; 0x30
   36606:	44c2      	add	sl, r8
   36608:	4453      	add	r3, sl
   3660a:	f7ff b96a 	b.w	358e2 <__ssvfscanf_r+0x17e>
   3660e:	6abb      	ldr	r3, [r7, #40]	; 0x28
   36610:	075a      	lsls	r2, r3, #29
   36612:	d502      	bpl.n	3661a <__ssvfscanf_r+0xeb6>
   36614:	6833      	ldr	r3, [r6, #0]
   36616:	8018      	strh	r0, [r3, #0]
   36618:	e7ec      	b.n	365f4 <__ssvfscanf_r+0xe90>
   3661a:	6abb      	ldr	r3, [r7, #40]	; 0x28
   3661c:	f013 0201 	ands.w	r2, r3, #1
   36620:	d184      	bne.n	3652c <__ssvfscanf_r+0xdc8>
   36622:	6abb      	ldr	r3, [r7, #40]	; 0x28
   36624:	079b      	lsls	r3, r3, #30
   36626:	d581      	bpl.n	3652c <__ssvfscanf_r+0xdc8>
   36628:	4bb9      	ldr	r3, [pc, #740]	; (36910 <__ssvfscanf_r+0x11ac>)
   3662a:	ee18 0a10 	vmov	r0, s16
   3662e:	69b9      	ldr	r1, [r7, #24]
   36630:	4299      	cmp	r1, r3
   36632:	69fb      	ldr	r3, [r7, #28]
   36634:	f507 71a8 	add.w	r1, r7, #336	; 0x150
   36638:	d105      	bne.n	36646 <__ssvfscanf_r+0xee2>
   3663a:	f005 fd67 	bl	3c10c <_strtoull_r>
   3663e:	6833      	ldr	r3, [r6, #0]
   36640:	e9c3 0100 	strd	r0, r1, [r3]
   36644:	e7d6      	b.n	365f4 <__ssvfscanf_r+0xe90>
   36646:	f005 fcb5 	bl	3bfb4 <_strtoll_r>
   3664a:	e7f8      	b.n	3663e <__ssvfscanf_r+0xeda>
   3664c:	ee18 0a10 	vmov	r0, s16
   36650:	f04f 0b00 	mov.w	fp, #0
   36654:	f003 f86c 	bl	39730 <_localeconv_r>
   36658:	6afb      	ldr	r3, [r7, #44]	; 0x2c
   3665a:	6802      	ldr	r2, [r0, #0]
   3665c:	46da      	mov	sl, fp
   3665e:	3b01      	subs	r3, #1
   36660:	f8c7 b028 	str.w	fp, [r7, #40]	; 0x28
   36664:	f5b3 7fae 	cmp.w	r3, #348	; 0x15c
   36668:	bf83      	ittte	hi
   3666a:	6afb      	ldrhi	r3, [r7, #44]	; 0x2c
   3666c:	f46f 75ae 	mvnhi.w	r5, #348	; 0x15c
   36670:	f240 115d 	movwhi	r1, #349	; 0x15d
   36674:	2300      	movls	r3, #0
   36676:	bf88      	it	hi
   36678:	195b      	addhi	r3, r3, r5
   3667a:	f449 65f0 	orr.w	r5, r9, #1920	; 0x780
   3667e:	f507 79a8 	add.w	r9, r7, #336	; 0x150
   36682:	bf88      	it	hi
   36684:	62f9      	strhi	r1, [r7, #44]	; 0x2c
   36686:	e9c7 bb03 	strd	fp, fp, [r7, #12]
   3668a:	6821      	ldr	r1, [r4, #0]
   3668c:	60b9      	str	r1, [r7, #8]
   3668e:	7809      	ldrb	r1, [r1, #0]
   36690:	294e      	cmp	r1, #78	; 0x4e
   36692:	d861      	bhi.n	36758 <__ssvfscanf_r+0xff4>
   36694:	2940      	cmp	r1, #64	; 0x40
   36696:	d837      	bhi.n	36708 <__ssvfscanf_r+0xfa4>
   36698:	f1a1 0c2b 	sub.w	ip, r1, #43	; 0x2b
   3669c:	fa5f fe8c 	uxtb.w	lr, ip
   366a0:	f1be 0f0e 	cmp.w	lr, #14
   366a4:	d933      	bls.n	3670e <__ssvfscanf_r+0xfaa>
   366a6:	f892 c000 	ldrb.w	ip, [r2]
   366aa:	458c      	cmp	ip, r1
   366ac:	f040 80b5 	bne.w	3681a <__ssvfscanf_r+0x10b6>
   366b0:	05a8      	lsls	r0, r5, #22
   366b2:	f140 80b2 	bpl.w	3681a <__ssvfscanf_r+0x10b6>
   366b6:	f425 7520 	bic.w	r5, r5, #640	; 0x280
   366ba:	f8c7 a028 	str.w	sl, [r7, #40]	; 0x28
   366be:	e083      	b.n	367c8 <__ssvfscanf_r+0x1064>
   366c0:	f1a1 0c61 	sub.w	ip, r1, #97	; 0x61
   366c4:	f1bc 0f0d 	cmp.w	ip, #13
   366c8:	d8ed      	bhi.n	366a6 <__ssvfscanf_r+0xf42>
   366ca:	a001      	add	r0, pc, #4	; (adr r0, 366d0 <__ssvfscanf_r+0xf6c>)
   366cc:	f850 f02c 	ldr.w	pc, [r0, ip, lsl #2]
   366d0:	00036815 	.word	0x00036815
   366d4:	000366a7 	.word	0x000366a7
   366d8:	000366a7 	.word	0x000366a7
   366dc:	000366a7 	.word	0x000366a7
   366e0:	0003688d 	.word	0x0003688d
   366e4:	00036875 	.word	0x00036875
   366e8:	000366a7 	.word	0x000366a7
   366ec:	000366a7 	.word	0x000366a7
   366f0:	00036849 	.word	0x00036849
   366f4:	000366a7 	.word	0x000366a7
   366f8:	000366a7 	.word	0x000366a7
   366fc:	000366a7 	.word	0x000366a7
   36700:	000366a7 	.word	0x000366a7
   36704:	000367d9 	.word	0x000367d9
   36708:	f1a1 0c41 	sub.w	ip, r1, #65	; 0x41
   3670c:	e7da      	b.n	366c4 <__ssvfscanf_r+0xf60>
   3670e:	f1bc 0f0e 	cmp.w	ip, #14
   36712:	d8c8      	bhi.n	366a6 <__ssvfscanf_r+0xf42>
   36714:	a001      	add	r0, pc, #4	; (adr r0, 3671c <__ssvfscanf_r+0xfb8>)
   36716:	f850 f02c 	ldr.w	pc, [r0, ip, lsl #2]
   3671a:	bf00      	nop
   3671c:	000367cf 	.word	0x000367cf
   36720:	000366a7 	.word	0x000366a7
   36724:	000367cf 	.word	0x000367cf
   36728:	000366a7 	.word	0x000366a7
   3672c:	000366a7 	.word	0x000366a7
   36730:	00036781 	.word	0x00036781
   36734:	000367bf 	.word	0x000367bf
   36738:	000367bf 	.word	0x000367bf
   3673c:	000367bf 	.word	0x000367bf
   36740:	000367bf 	.word	0x000367bf
   36744:	000367bf 	.word	0x000367bf
   36748:	000367bf 	.word	0x000367bf
   3674c:	000367bf 	.word	0x000367bf
   36750:	000367bf 	.word	0x000367bf
   36754:	000367bf 	.word	0x000367bf
   36758:	296e      	cmp	r1, #110	; 0x6e
   3675a:	d80c      	bhi.n	36776 <__ssvfscanf_r+0x1012>
   3675c:	2960      	cmp	r1, #96	; 0x60
   3675e:	d8af      	bhi.n	366c0 <__ssvfscanf_r+0xf5c>
   36760:	2954      	cmp	r1, #84	; 0x54
   36762:	f000 808d 	beq.w	36880 <__ssvfscanf_r+0x111c>
   36766:	2959      	cmp	r1, #89	; 0x59
   36768:	d19d      	bne.n	366a6 <__ssvfscanf_r+0xf42>
   3676a:	f1b8 0f07 	cmp.w	r8, #7
   3676e:	d154      	bne.n	3681a <__ssvfscanf_r+0x10b6>
   36770:	f04f 0808 	mov.w	r8, #8
   36774:	e028      	b.n	367c8 <__ssvfscanf_r+0x1064>
   36776:	2974      	cmp	r1, #116	; 0x74
   36778:	f000 8082 	beq.w	36880 <__ssvfscanf_r+0x111c>
   3677c:	2979      	cmp	r1, #121	; 0x79
   3677e:	e7f3      	b.n	36768 <__ssvfscanf_r+0x1004>
   36780:	05e8      	lsls	r0, r5, #23
   36782:	d51c      	bpl.n	367be <__ssvfscanf_r+0x105a>
   36784:	f025 0580 	bic.w	r5, r5, #128	; 0x80
   36788:	f10a 0a01 	add.w	sl, sl, #1
   3678c:	b11b      	cbz	r3, 36796 <__ssvfscanf_r+0x1032>
   3678e:	6af9      	ldr	r1, [r7, #44]	; 0x2c
   36790:	3b01      	subs	r3, #1
   36792:	3101      	adds	r1, #1
   36794:	62f9      	str	r1, [r7, #44]	; 0x2c
   36796:	6af9      	ldr	r1, [r7, #44]	; 0x2c
   36798:	3901      	subs	r1, #1
   3679a:	62f9      	str	r1, [r7, #44]	; 0x2c
   3679c:	6b39      	ldr	r1, [r7, #48]	; 0x30
   3679e:	3101      	adds	r1, #1
   367a0:	6339      	str	r1, [r7, #48]	; 0x30
   367a2:	6861      	ldr	r1, [r4, #4]
   367a4:	3901      	subs	r1, #1
   367a6:	2900      	cmp	r1, #0
   367a8:	6061      	str	r1, [r4, #4]
   367aa:	f340 808f 	ble.w	368cc <__ssvfscanf_r+0x1168>
   367ae:	68b8      	ldr	r0, [r7, #8]
   367b0:	3001      	adds	r0, #1
   367b2:	6020      	str	r0, [r4, #0]
   367b4:	6af9      	ldr	r1, [r7, #44]	; 0x2c
   367b6:	2900      	cmp	r1, #0
   367b8:	f47f af67 	bne.w	3668a <__ssvfscanf_r+0xf26>
   367bc:	e02d      	b.n	3681a <__ssvfscanf_r+0x10b6>
   367be:	eb1b 0f08 	cmn.w	fp, r8
   367c2:	d12a      	bne.n	3681a <__ssvfscanf_r+0x10b6>
   367c4:	f425 75c0 	bic.w	r5, r5, #384	; 0x180
   367c8:	f809 1b01 	strb.w	r1, [r9], #1
   367cc:	e7e3      	b.n	36796 <__ssvfscanf_r+0x1032>
   367ce:	0628      	lsls	r0, r5, #24
   367d0:	d523      	bpl.n	3681a <__ssvfscanf_r+0x10b6>
   367d2:	f025 0580 	bic.w	r5, r5, #128	; 0x80
   367d6:	e7f7      	b.n	367c8 <__ssvfscanf_r+0x1064>
   367d8:	f1bb 0f00 	cmp.w	fp, #0
   367dc:	d10c      	bne.n	367f8 <__ssvfscanf_r+0x1094>
   367de:	f1ba 0f00 	cmp.w	sl, #0
   367e2:	d10c      	bne.n	367fe <__ssvfscanf_r+0x109a>
   367e4:	f405 6ce0 	and.w	ip, r5, #1792	; 0x700
   367e8:	f5bc 6fe0 	cmp.w	ip, #1792	; 0x700
   367ec:	d107      	bne.n	367fe <__ssvfscanf_r+0x109a>
   367ee:	f425 65f0 	bic.w	r5, r5, #1920	; 0x780
   367f2:	f04f 0b01 	mov.w	fp, #1
   367f6:	e7e7      	b.n	367c8 <__ssvfscanf_r+0x1064>
   367f8:	f1bb 0f02 	cmp.w	fp, #2
   367fc:	d060      	beq.n	368c0 <__ssvfscanf_r+0x115c>
   367fe:	f1b8 0f01 	cmp.w	r8, #1
   36802:	d002      	beq.n	3680a <__ssvfscanf_r+0x10a6>
   36804:	f1b8 0f04 	cmp.w	r8, #4
   36808:	d107      	bne.n	3681a <__ssvfscanf_r+0x10b6>
   3680a:	f108 0801 	add.w	r8, r8, #1
   3680e:	fa5f f888 	uxtb.w	r8, r8
   36812:	e7d9      	b.n	367c8 <__ssvfscanf_r+0x1064>
   36814:	f1bb 0f01 	cmp.w	fp, #1
   36818:	d055      	beq.n	368c6 <__ssvfscanf_r+0x1162>
   3681a:	f1ba 0f00 	cmp.w	sl, #0
   3681e:	d001      	beq.n	36824 <__ssvfscanf_r+0x10c0>
   36820:	f425 7580 	bic.w	r5, r5, #256	; 0x100
   36824:	f10b 3bff 	add.w	fp, fp, #4294967295	; 0xffffffff
   36828:	f1bb 0f01 	cmp.w	fp, #1
   3682c:	d85b      	bhi.n	368e6 <__ssvfscanf_r+0x1182>
   3682e:	f507 75a8 	add.w	r5, r7, #336	; 0x150
   36832:	45a9      	cmp	r9, r5
   36834:	f67f a892 	bls.w	3595c <__ssvfscanf_r+0x1f8>
   36838:	4622      	mov	r2, r4
   3683a:	f819 1d01 	ldrb.w	r1, [r9, #-1]!
   3683e:	ee18 0a10 	vmov	r0, s16
   36842:	f006 f9cb 	bl	3cbdc <_sungetc_r>
   36846:	e7f4      	b.n	36832 <__ssvfscanf_r+0x10ce>
   36848:	f1b8 0f00 	cmp.w	r8, #0
   3684c:	d10c      	bne.n	36868 <__ssvfscanf_r+0x1104>
   3684e:	f1ba 0f00 	cmp.w	sl, #0
   36852:	d1e5      	bne.n	36820 <__ssvfscanf_r+0x10bc>
   36854:	f405 6ce0 	and.w	ip, r5, #1792	; 0x700
   36858:	f5bc 6fe0 	cmp.w	ip, #1792	; 0x700
   3685c:	d1e2      	bne.n	36824 <__ssvfscanf_r+0x10c0>
   3685e:	f425 65f0 	bic.w	r5, r5, #1920	; 0x780
   36862:	f04f 0801 	mov.w	r8, #1
   36866:	e7af      	b.n	367c8 <__ssvfscanf_r+0x1064>
   36868:	f1b8 0f03 	cmp.w	r8, #3
   3686c:	d0cd      	beq.n	3680a <__ssvfscanf_r+0x10a6>
   3686e:	f1b8 0f05 	cmp.w	r8, #5
   36872:	e7c9      	b.n	36808 <__ssvfscanf_r+0x10a4>
   36874:	f1b8 0f02 	cmp.w	r8, #2
   36878:	d1cf      	bne.n	3681a <__ssvfscanf_r+0x10b6>
   3687a:	f04f 0803 	mov.w	r8, #3
   3687e:	e7a3      	b.n	367c8 <__ssvfscanf_r+0x1064>
   36880:	f1b8 0f06 	cmp.w	r8, #6
   36884:	d1c9      	bne.n	3681a <__ssvfscanf_r+0x10b6>
   36886:	f04f 0807 	mov.w	r8, #7
   3688a:	e79d      	b.n	367c8 <__ssvfscanf_r+0x1064>
   3688c:	f405 6ca0 	and.w	ip, r5, #1280	; 0x500
   36890:	f5bc 6f80 	cmp.w	ip, #1024	; 0x400
   36894:	d004      	beq.n	368a0 <__ssvfscanf_r+0x113c>
   36896:	0568      	lsls	r0, r5, #21
   36898:	d5bf      	bpl.n	3681a <__ssvfscanf_r+0x10b6>
   3689a:	f1ba 0f00 	cmp.w	sl, #0
   3689e:	d0c1      	beq.n	36824 <__ssvfscanf_r+0x10c0>
   368a0:	05a8      	lsls	r0, r5, #22
   368a2:	f425 65f0 	bic.w	r5, r5, #1920	; 0x780
   368a6:	bf58      	it	pl
   368a8:	6ab8      	ldrpl	r0, [r7, #40]	; 0x28
   368aa:	f445 75c0 	orr.w	r5, r5, #384	; 0x180
   368ae:	bf58      	it	pl
   368b0:	ebaa 0000 	subpl.w	r0, sl, r0
   368b4:	f04f 0a00 	mov.w	sl, #0
   368b8:	bf58      	it	pl
   368ba:	e9c7 9003 	strdpl	r9, r0, [r7, #12]
   368be:	e783      	b.n	367c8 <__ssvfscanf_r+0x1064>
   368c0:	f04f 0b03 	mov.w	fp, #3
   368c4:	e780      	b.n	367c8 <__ssvfscanf_r+0x1064>
   368c6:	f04f 0b02 	mov.w	fp, #2
   368ca:	e77d      	b.n	367c8 <__ssvfscanf_r+0x1064>
   368cc:	4621      	mov	r1, r4
   368ce:	ee18 0a10 	vmov	r0, s16
   368d2:	e9c7 2301 	strd	r2, r3, [r7, #4]
   368d6:	f006 f9be 	bl	3cc56 <__ssrefill_r>
   368da:	e9d7 2301 	ldrd	r2, r3, [r7, #4]
   368de:	2800      	cmp	r0, #0
   368e0:	f43f af68 	beq.w	367b4 <__ssvfscanf_r+0x1050>
   368e4:	e799      	b.n	3681a <__ssvfscanf_r+0x10b6>
   368e6:	f108 33ff 	add.w	r3, r8, #4294967295	; 0xffffffff
   368ea:	2b06      	cmp	r3, #6
   368ec:	d82e      	bhi.n	3694c <__ssvfscanf_r+0x11e8>
   368ee:	f1b8 0f02 	cmp.w	r8, #2
   368f2:	d83c      	bhi.n	3696e <__ssvfscanf_r+0x120a>
   368f4:	f507 75a8 	add.w	r5, r7, #336	; 0x150
   368f8:	45a9      	cmp	r9, r5
   368fa:	f67f a82f 	bls.w	3595c <__ssvfscanf_r+0x1f8>
   368fe:	4622      	mov	r2, r4
   36900:	f819 1d01 	ldrb.w	r1, [r9, #-1]!
   36904:	ee18 0a10 	vmov	r0, s16
   36908:	f006 f968 	bl	3cbdc <_sungetc_r>
   3690c:	e7f4      	b.n	368f8 <__ssvfscanf_r+0x1194>
   3690e:	bf00      	nop
   36910:	0003c215 	.word	0x0003c215
   36914:	00040528 	.word	0x00040528
   36918:	f813 1d01 	ldrb.w	r1, [r3, #-1]!
   3691c:	4622      	mov	r2, r4
   3691e:	ee18 0a10 	vmov	r0, s16
   36922:	62fb      	str	r3, [r7, #44]	; 0x2c
   36924:	f006 f95a 	bl	3cbdc <_sungetc_r>
   36928:	6afb      	ldr	r3, [r7, #44]	; 0x2c
   3692a:	f10b 3bff 	add.w	fp, fp, #4294967295	; 0xffffffff
   3692e:	fa5f fb8b 	uxtb.w	fp, fp
   36932:	f1bb 0f02 	cmp.w	fp, #2
   36936:	d1ef      	bne.n	36918 <__ssvfscanf_r+0x11b4>
   36938:	f1a8 0803 	sub.w	r8, r8, #3
   3693c:	6b3b      	ldr	r3, [r7, #48]	; 0x30
   3693e:	fa5f f888 	uxtb.w	r8, r8
   36942:	eba3 0308 	sub.w	r3, r3, r8
   36946:	eba9 0908 	sub.w	r9, r9, r8
   3694a:	633b      	str	r3, [r7, #48]	; 0x30
   3694c:	05eb      	lsls	r3, r5, #23
   3694e:	d530      	bpl.n	369b2 <__ssvfscanf_r+0x124e>
   36950:	0568      	lsls	r0, r5, #21
   36952:	d50f      	bpl.n	36974 <__ssvfscanf_r+0x1210>
   36954:	f507 75a8 	add.w	r5, r7, #336	; 0x150
   36958:	45a9      	cmp	r9, r5
   3695a:	f67e afff 	bls.w	3595c <__ssvfscanf_r+0x1f8>
   3695e:	4622      	mov	r2, r4
   36960:	f819 1d01 	ldrb.w	r1, [r9, #-1]!
   36964:	ee18 0a10 	vmov	r0, s16
   36968:	f006 f938 	bl	3cbdc <_sungetc_r>
   3696c:	e7f4      	b.n	36958 <__ssvfscanf_r+0x11f4>
   3696e:	46c3      	mov	fp, r8
   36970:	464b      	mov	r3, r9
   36972:	e7da      	b.n	3692a <__ssvfscanf_r+0x11c6>
   36974:	f819 1c01 	ldrb.w	r1, [r9, #-1]
   36978:	f109 38ff 	add.w	r8, r9, #4294967295	; 0xffffffff
   3697c:	6b3b      	ldr	r3, [r7, #48]	; 0x30
   3697e:	2965      	cmp	r1, #101	; 0x65
   36980:	f103 3bff 	add.w	fp, r3, #4294967295	; 0xffffffff
   36984:	d00d      	beq.n	369a2 <__ssvfscanf_r+0x123e>
   36986:	2945      	cmp	r1, #69	; 0x45
   36988:	d00b      	beq.n	369a2 <__ssvfscanf_r+0x123e>
   3698a:	4622      	mov	r2, r4
   3698c:	ee18 0a10 	vmov	r0, s16
   36990:	f006 f924 	bl	3cbdc <_sungetc_r>
   36994:	6b3b      	ldr	r3, [r7, #48]	; 0x30
   36996:	f1a9 0802 	sub.w	r8, r9, #2
   3699a:	f819 1c02 	ldrb.w	r1, [r9, #-2]
   3699e:	f1a3 0b02 	sub.w	fp, r3, #2
   369a2:	46c1      	mov	r9, r8
   369a4:	4622      	mov	r2, r4
   369a6:	ee18 0a10 	vmov	r0, s16
   369aa:	f006 f917 	bl	3cbdc <_sungetc_r>
   369ae:	f8c7 b030 	str.w	fp, [r7, #48]	; 0x30
   369b2:	f015 0210 	ands.w	r2, r5, #16
   369b6:	f47e aef3 	bne.w	357a0 <__ssvfscanf_r+0x3c>
   369ba:	f405 63c0 	and.w	r3, r5, #1536	; 0x600
   369be:	f889 2000 	strb.w	r2, [r9]
   369c2:	f5b3 6f80 	cmp.w	r3, #1024	; 0x400
   369c6:	d11a      	bne.n	369fe <__ssvfscanf_r+0x129a>
   369c8:	6abb      	ldr	r3, [r7, #40]	; 0x28
   369ca:	4553      	cmp	r3, sl
   369cc:	eba3 020a 	sub.w	r2, r3, sl
   369d0:	d123      	bne.n	36a1a <__ssvfscanf_r+0x12b6>
   369d2:	f507 71a8 	add.w	r1, r7, #336	; 0x150
   369d6:	2200      	movs	r2, #0
   369d8:	ee18 0a10 	vmov	r0, s16
   369dc:	f106 0a04 	add.w	sl, r6, #4
   369e0:	f005 f980 	bl	3bce4 <_strtod_r>
   369e4:	07e9      	lsls	r1, r5, #31
   369e6:	ec59 8b10 	vmov	r8, r9, d0
   369ea:	d521      	bpl.n	36a30 <__ssvfscanf_r+0x12cc>
   369ec:	6833      	ldr	r3, [r6, #0]
   369ee:	ed83 0b00 	vstr	d0, [r3]
   369f2:	6a7b      	ldr	r3, [r7, #36]	; 0x24
   369f4:	4656      	mov	r6, sl
   369f6:	3301      	adds	r3, #1
   369f8:	627b      	str	r3, [r7, #36]	; 0x24
   369fa:	f7fe bed1 	b.w	357a0 <__ssvfscanf_r+0x3c>
   369fe:	693b      	ldr	r3, [r7, #16]
   36a00:	2b00      	cmp	r3, #0
   36a02:	d0e6      	beq.n	369d2 <__ssvfscanf_r+0x126e>
   36a04:	68f9      	ldr	r1, [r7, #12]
   36a06:	230a      	movs	r3, #10
   36a08:	ee18 0a10 	vmov	r0, s16
   36a0c:	3101      	adds	r1, #1
   36a0e:	f7fd fcb7 	bl	34380 <_strtol_r>
   36a12:	693b      	ldr	r3, [r7, #16]
   36a14:	f8d7 900c 	ldr.w	r9, [r7, #12]
   36a18:	1ac2      	subs	r2, r0, r3
   36a1a:	f207 23a3 	addw	r3, r7, #675	; 0x2a3
   36a1e:	4917      	ldr	r1, [pc, #92]	; (36a7c <__ssvfscanf_r+0x1318>)
   36a20:	4599      	cmp	r9, r3
   36a22:	bf28      	it	cs
   36a24:	f207 29a2 	addwcs	r9, r7, #674	; 0x2a2
   36a28:	4648      	mov	r0, r9
   36a2a:	f7fd f809 	bl	33a40 <sprintf>
   36a2e:	e7d0      	b.n	369d2 <__ssvfscanf_r+0x126e>
   36a30:	07aa      	lsls	r2, r5, #30
   36a32:	6836      	ldr	r6, [r6, #0]
   36a34:	d502      	bpl.n	36a3c <__ssvfscanf_r+0x12d8>
   36a36:	ed86 0b00 	vstr	d0, [r6]
   36a3a:	e7da      	b.n	369f2 <__ssvfscanf_r+0x128e>
   36a3c:	ee10 2a10 	vmov	r2, s0
   36a40:	464b      	mov	r3, r9
   36a42:	ee10 0a10 	vmov	r0, s0
   36a46:	4649      	mov	r1, r9
   36a48:	f009 fa12 	bl	3fe70 <__aeabi_dcmpun>
   36a4c:	b128      	cbz	r0, 36a5a <__ssvfscanf_r+0x12f6>
   36a4e:	480c      	ldr	r0, [pc, #48]	; (36a80 <__ssvfscanf_r+0x131c>)
   36a50:	f004 fa02 	bl	3ae58 <nanf>
   36a54:	ed86 0a00 	vstr	s0, [r6]
   36a58:	e7cb      	b.n	369f2 <__ssvfscanf_r+0x128e>
   36a5a:	4640      	mov	r0, r8
   36a5c:	4649      	mov	r1, r9
   36a5e:	f009 fa65 	bl	3ff2c <__aeabi_d2f>
   36a62:	6030      	str	r0, [r6, #0]
   36a64:	e7c5      	b.n	369f2 <__ssvfscanf_r+0x128e>
   36a66:	f855 3024 	ldr.w	r3, [r5, r4, lsl #2]
   36a6a:	6818      	ldr	r0, [r3, #0]
   36a6c:	f002 fbbc 	bl	391e8 <free>
   36a70:	f855 3024 	ldr.w	r3, [r5, r4, lsl #2]
   36a74:	3401      	adds	r4, #1
   36a76:	601e      	str	r6, [r3, #0]
   36a78:	f7ff b83f 	b.w	35afa <__ssvfscanf_r+0x396>
   36a7c:	00040523 	.word	0x00040523
   36a80:	0004099d 	.word	0x0004099d
   36a84:	00000000 	.word	0x00000000

00036a88 <_vfprintf_r>:
   36a88:	e92d 4ff0 	stmdb	sp!, {r4, r5, r6, r7, r8, r9, sl, fp, lr}
   36a8c:	ed2d 8b04 	vpush	{d8-d9}
   36a90:	b0cf      	sub	sp, #316	; 0x13c
   36a92:	4689      	mov	r9, r1
   36a94:	4690      	mov	r8, r2
   36a96:	461c      	mov	r4, r3
   36a98:	461e      	mov	r6, r3
   36a9a:	4682      	mov	sl, r0
   36a9c:	f002 fe48 	bl	39730 <_localeconv_r>
   36aa0:	6803      	ldr	r3, [r0, #0]
   36aa2:	4618      	mov	r0, r3
   36aa4:	9313      	str	r3, [sp, #76]	; 0x4c
   36aa6:	f7fd f943 	bl	33d30 <strlen>
   36aaa:	900e      	str	r0, [sp, #56]	; 0x38
   36aac:	f1ba 0f00 	cmp.w	sl, #0
   36ab0:	d005      	beq.n	36abe <_vfprintf_r+0x36>
   36ab2:	f8da 3038 	ldr.w	r3, [sl, #56]	; 0x38
   36ab6:	b913      	cbnz	r3, 36abe <_vfprintf_r+0x36>
   36ab8:	4650      	mov	r0, sl
   36aba:	f002 fb0b 	bl	390d4 <__sinit>
   36abe:	f8d9 3064 	ldr.w	r3, [r9, #100]	; 0x64
   36ac2:	07d8      	lsls	r0, r3, #31
   36ac4:	d407      	bmi.n	36ad6 <_vfprintf_r+0x4e>
   36ac6:	f8b9 300c 	ldrh.w	r3, [r9, #12]
   36aca:	0599      	lsls	r1, r3, #22
   36acc:	d403      	bmi.n	36ad6 <_vfprintf_r+0x4e>
   36ace:	f8d9 0058 	ldr.w	r0, [r9, #88]	; 0x58
   36ad2:	f002 fe68 	bl	397a6 <__retarget_lock_acquire_recursive>
   36ad6:	f9b9 300c 	ldrsh.w	r3, [r9, #12]
   36ada:	049a      	lsls	r2, r3, #18
   36adc:	d409      	bmi.n	36af2 <_vfprintf_r+0x6a>
   36ade:	f443 5300 	orr.w	r3, r3, #8192	; 0x2000
   36ae2:	f8a9 300c 	strh.w	r3, [r9, #12]
   36ae6:	f8d9 3064 	ldr.w	r3, [r9, #100]	; 0x64
   36aea:	f423 5300 	bic.w	r3, r3, #8192	; 0x2000
   36aee:	f8c9 3064 	str.w	r3, [r9, #100]	; 0x64
   36af2:	f8b9 300c 	ldrh.w	r3, [r9, #12]
   36af6:	071b      	lsls	r3, r3, #28
   36af8:	d502      	bpl.n	36b00 <_vfprintf_r+0x78>
   36afa:	f8d9 3010 	ldr.w	r3, [r9, #16]
   36afe:	b9d3      	cbnz	r3, 36b36 <_vfprintf_r+0xae>
   36b00:	4649      	mov	r1, r9
   36b02:	4650      	mov	r0, sl
   36b04:	f001 fada 	bl	380bc <__swsetup_r>
   36b08:	b1a8      	cbz	r0, 36b36 <_vfprintf_r+0xae>
   36b0a:	f8d9 3064 	ldr.w	r3, [r9, #100]	; 0x64
   36b0e:	07df      	lsls	r7, r3, #31
   36b10:	d508      	bpl.n	36b24 <_vfprintf_r+0x9c>
   36b12:	f04f 33ff 	mov.w	r3, #4294967295	; 0xffffffff
   36b16:	930f      	str	r3, [sp, #60]	; 0x3c
   36b18:	980f      	ldr	r0, [sp, #60]	; 0x3c
   36b1a:	b04f      	add	sp, #316	; 0x13c
   36b1c:	ecbd 8b04 	vpop	{d8-d9}
   36b20:	e8bd 8ff0 	ldmia.w	sp!, {r4, r5, r6, r7, r8, r9, sl, fp, pc}
   36b24:	f8b9 300c 	ldrh.w	r3, [r9, #12]
   36b28:	059e      	lsls	r6, r3, #22
   36b2a:	d4f2      	bmi.n	36b12 <_vfprintf_r+0x8a>
   36b2c:	f8d9 0058 	ldr.w	r0, [r9, #88]	; 0x58
   36b30:	f002 fe3f 	bl	397b2 <__retarget_lock_release_recursive>
   36b34:	e7ed      	b.n	36b12 <_vfprintf_r+0x8a>
   36b36:	f8b9 300c 	ldrh.w	r3, [r9, #12]
   36b3a:	f003 021a 	and.w	r2, r3, #26
   36b3e:	2a0a      	cmp	r2, #10
   36b40:	d118      	bne.n	36b74 <_vfprintf_r+0xec>
   36b42:	f9b9 200e 	ldrsh.w	r2, [r9, #14]
   36b46:	2a00      	cmp	r2, #0
   36b48:	db14      	blt.n	36b74 <_vfprintf_r+0xec>
   36b4a:	f8d9 2064 	ldr.w	r2, [r9, #100]	; 0x64
   36b4e:	07d5      	lsls	r5, r2, #31
   36b50:	d405      	bmi.n	36b5e <_vfprintf_r+0xd6>
   36b52:	0598      	lsls	r0, r3, #22
   36b54:	d403      	bmi.n	36b5e <_vfprintf_r+0xd6>
   36b56:	f8d9 0058 	ldr.w	r0, [r9, #88]	; 0x58
   36b5a:	f002 fe2a 	bl	397b2 <__retarget_lock_release_recursive>
   36b5e:	4623      	mov	r3, r4
   36b60:	4642      	mov	r2, r8
   36b62:	4649      	mov	r1, r9
   36b64:	4650      	mov	r0, sl
   36b66:	b04f      	add	sp, #316	; 0x13c
   36b68:	ecbd 8b04 	vpop	{d8-d9}
   36b6c:	e8bd 4ff0 	ldmia.w	sp!, {r4, r5, r6, r7, r8, r9, sl, fp, lr}
   36b70:	f001 b9c6 	b.w	37f00 <__sbprintf>
   36b74:	ed9f 7b92 	vldr	d7, [pc, #584]	; 36dc0 <_vfprintf_r+0x338>
   36b78:	2500      	movs	r5, #0
   36b7a:	ac25      	add	r4, sp, #148	; 0x94
   36b7c:	e9cd 5523 	strd	r5, r5, [sp, #140]	; 0x8c
   36b80:	9422      	str	r4, [sp, #136]	; 0x88
   36b82:	9505      	str	r5, [sp, #20]
   36b84:	950a      	str	r5, [sp, #40]	; 0x28
   36b86:	9512      	str	r5, [sp, #72]	; 0x48
   36b88:	9514      	str	r5, [sp, #80]	; 0x50
   36b8a:	950f      	str	r5, [sp, #60]	; 0x3c
   36b8c:	ed8d 7b0c 	vstr	d7, [sp, #48]	; 0x30
   36b90:	e9cd 5515 	strd	r5, r5, [sp, #84]	; 0x54
   36b94:	4643      	mov	r3, r8
   36b96:	461d      	mov	r5, r3
   36b98:	f813 2b01 	ldrb.w	r2, [r3], #1
   36b9c:	b10a      	cbz	r2, 36ba2 <_vfprintf_r+0x11a>
   36b9e:	2a25      	cmp	r2, #37	; 0x25
   36ba0:	d1f9      	bne.n	36b96 <_vfprintf_r+0x10e>
   36ba2:	ebb5 0708 	subs.w	r7, r5, r8
   36ba6:	d00d      	beq.n	36bc4 <_vfprintf_r+0x13c>
   36ba8:	9b24      	ldr	r3, [sp, #144]	; 0x90
   36baa:	443b      	add	r3, r7
   36bac:	9324      	str	r3, [sp, #144]	; 0x90
   36bae:	9b23      	ldr	r3, [sp, #140]	; 0x8c
   36bb0:	3301      	adds	r3, #1
   36bb2:	2b07      	cmp	r3, #7
   36bb4:	9323      	str	r3, [sp, #140]	; 0x8c
   36bb6:	e9c4 8700 	strd	r8, r7, [r4]
   36bba:	dc79      	bgt.n	36cb0 <_vfprintf_r+0x228>
   36bbc:	3408      	adds	r4, #8
   36bbe:	9b0f      	ldr	r3, [sp, #60]	; 0x3c
   36bc0:	443b      	add	r3, r7
   36bc2:	930f      	str	r3, [sp, #60]	; 0x3c
   36bc4:	782b      	ldrb	r3, [r5, #0]
   36bc6:	2b00      	cmp	r3, #0
   36bc8:	f001 814d 	beq.w	37e66 <_vfprintf_r+0x13de>
   36bcc:	2300      	movs	r3, #0
   36bce:	f04f 32ff 	mov.w	r2, #4294967295	; 0xffffffff
   36bd2:	3501      	adds	r5, #1
   36bd4:	270a      	movs	r7, #10
   36bd6:	469b      	mov	fp, r3
   36bd8:	212b      	movs	r1, #43	; 0x2b
   36bda:	f88d 306b 	strb.w	r3, [sp, #107]	; 0x6b
   36bde:	9204      	str	r2, [sp, #16]
   36be0:	9310      	str	r3, [sp, #64]	; 0x40
   36be2:	462b      	mov	r3, r5
   36be4:	f813 2b01 	ldrb.w	r2, [r3], #1
   36be8:	9206      	str	r2, [sp, #24]
   36bea:	930b      	str	r3, [sp, #44]	; 0x2c
   36bec:	9b06      	ldr	r3, [sp, #24]
   36bee:	3b20      	subs	r3, #32
   36bf0:	2b5a      	cmp	r3, #90	; 0x5a
   36bf2:	f200 85c3 	bhi.w	3777c <_vfprintf_r+0xcf4>
   36bf6:	e8df f013 	tbh	[pc, r3, lsl #1]
   36bfa:	007e      	.short	0x007e
   36bfc:	05c105c1 	.word	0x05c105c1
   36c00:	05c10086 	.word	0x05c10086
   36c04:	05c105c1 	.word	0x05c105c1
   36c08:	05c10065 	.word	0x05c10065
   36c0c:	008905c1 	.word	0x008905c1
   36c10:	05c10093 	.word	0x05c10093
   36c14:	00960090 	.word	0x00960090
   36c18:	00b205c1 	.word	0x00b205c1
   36c1c:	00b500b5 	.word	0x00b500b5
   36c20:	00b500b5 	.word	0x00b500b5
   36c24:	00b500b5 	.word	0x00b500b5
   36c28:	00b500b5 	.word	0x00b500b5
   36c2c:	05c100b5 	.word	0x05c100b5
   36c30:	05c105c1 	.word	0x05c105c1
   36c34:	05c105c1 	.word	0x05c105c1
   36c38:	05c105c1 	.word	0x05c105c1
   36c3c:	05c1012a 	.word	0x05c1012a
   36c40:	00fa00e7 	.word	0x00fa00e7
   36c44:	012a012a 	.word	0x012a012a
   36c48:	05c1012a 	.word	0x05c1012a
   36c4c:	05c105c1 	.word	0x05c105c1
   36c50:	00c505c1 	.word	0x00c505c1
   36c54:	05c105c1 	.word	0x05c105c1
   36c58:	05c1049c 	.word	0x05c1049c
   36c5c:	05c105c1 	.word	0x05c105c1
   36c60:	05c104e5 	.word	0x05c104e5
   36c64:	05c10506 	.word	0x05c10506
   36c68:	052805c1 	.word	0x052805c1
   36c6c:	05c105c1 	.word	0x05c105c1
   36c70:	05c105c1 	.word	0x05c105c1
   36c74:	05c105c1 	.word	0x05c105c1
   36c78:	05c105c1 	.word	0x05c105c1
   36c7c:	05c1012a 	.word	0x05c1012a
   36c80:	00fc00e7 	.word	0x00fc00e7
   36c84:	012a012a 	.word	0x012a012a
   36c88:	00c8012a 	.word	0x00c8012a
   36c8c:	00dc00fc 	.word	0x00dc00fc
   36c90:	00d505c1 	.word	0x00d505c1
   36c94:	047705c1 	.word	0x047705c1
   36c98:	04d4049e 	.word	0x04d4049e
   36c9c:	05c100dc 	.word	0x05c100dc
   36ca0:	007c04e5 	.word	0x007c04e5
   36ca4:	05c10508 	.word	0x05c10508
   36ca8:	054705c1 	.word	0x054705c1
   36cac:	007c05c1 	.word	0x007c05c1
   36cb0:	aa22      	add	r2, sp, #136	; 0x88
   36cb2:	4649      	mov	r1, r9
   36cb4:	4650      	mov	r0, sl
   36cb6:	f007 f859 	bl	3dd6c <__sprint_r>
   36cba:	2800      	cmp	r0, #0
   36cbc:	f040 8135 	bne.w	36f2a <_vfprintf_r+0x4a2>
   36cc0:	ac25      	add	r4, sp, #148	; 0x94
   36cc2:	e77c      	b.n	36bbe <_vfprintf_r+0x136>
   36cc4:	4650      	mov	r0, sl
   36cc6:	f002 fd33 	bl	39730 <_localeconv_r>
   36cca:	6843      	ldr	r3, [r0, #4]
   36ccc:	4618      	mov	r0, r3
   36cce:	9314      	str	r3, [sp, #80]	; 0x50
