Archive member included to satisfy reference by file (symbol)

/home/weiqiang_sun/S_SDK_Repo/S_SDK_Repo_RTOS_Master_Temporary/amebagreen2_gcc_project/build/project_km4ns/asdk/make/image_rom_wifi/wifi_driver/rom/lib_wifi_driver_rom.a(rom_aes.o)
                              (--whole-archive)
/home/weiqiang_sun/S_SDK_Repo/S_SDK_Repo_RTOS_Master_Temporary/amebagreen2_gcc_project/build/project_km4ns/asdk/make/image_rom_wifi/wifi_driver/rom/lib_wifi_driver_rom.a(rom_arc4.o)
                              (--whole-archive)
/home/weiqiang_sun/S_SDK_Repo/S_SDK_Repo_RTOS_Master_Temporary/amebagreen2_gcc_project/build/project_km4ns/asdk/make/image_rom_wifi/wifi_driver/rom/lib_wifi_driver_rom.a(rom_md5.o)
                              (--whole-archive)
/home/weiqiang_sun/S_SDK_Repo/S_SDK_Repo_RTOS_Master_Temporary/amebagreen2_gcc_project/build/project_km4ns/asdk/make/image_rom_wifi/wifi_driver/rom/lib_wifi_driver_rom.a(rom_rc4.o)
                              (--whole-archive)
/home/weiqiang_sun/S_SDK_Repo/S_SDK_Repo_RTOS_Master_Temporary/amebagreen2_gcc_project/build/project_km4ns/asdk/make/image_rom_wifi/wifi_driver/rom/lib_wifi_driver_rom.a(rom_rtw_dh_groups.o)
                              (--whole-archive)
/home/weiqiang_sun/S_SDK_Repo/S_SDK_Repo_RTOS_Master_Temporary/amebagreen2_gcc_project/build/project_km4ns/asdk/make/image_rom_wifi/wifi_driver/rom/lib_wifi_driver_rom.a(rom_rtw_mbedtls_bignum.o)
                              (--whole-archive)
/home/weiqiang_sun/S_SDK_Repo/S_SDK_Repo_RTOS_Master_Temporary/amebagreen2_gcc_project/build/project_km4ns/asdk/make/image_rom_wifi/wifi_driver/rom/lib_wifi_driver_rom.a(rom_rtw_mbedtls_ecp.o)
                              (--whole-archive)
/home/weiqiang_sun/S_SDK_Repo/S_SDK_Repo_RTOS_Master_Temporary/amebagreen2_gcc_project/build/project_km4ns/asdk/make/image_rom_wifi/wifi_driver/rom/lib_wifi_driver_rom.a(rom_rtw_mbedtls_ecp_curves.o)
                              (--whole-archive)
/home/weiqiang_sun/S_SDK_Repo/S_SDK_Repo_RTOS_Master_Temporary/amebagreen2_gcc_project/build/project_km4ns/asdk/make/image_rom_wifi/wifi_driver/rom/lib_wifi_driver_rom.a(rom_rtw_mbedtls_func_map.o)
                              (--whole-archive)
/home/weiqiang_sun/S_SDK_Repo/S_SDK_Repo_RTOS_Master_Temporary/amebagreen2_gcc_project/build/project_km4ns/asdk/make/image_rom_wifi/wifi_driver/rom/lib_wifi_driver_rom.a(rom_rtw_mbedtls_platform.o)
                              (--whole-archive)
/home/weiqiang_sun/S_SDK_Repo/S_SDK_Repo_RTOS_Master_Temporary/amebagreen2_gcc_project/build/project_km4ns/asdk/make/image_rom_wifi/wifi_driver/rom/lib_wifi_driver_rom.a(rom_rtw_security.o)
                              (--whole-archive)
/home/weiqiang_sun/S_SDK_Repo/S_SDK_Repo_RTOS_Master_Temporary/amebagreen2_gcc_project/build/project_km4ns/asdk/make/image_rom_wifi/wifi_driver/rom/lib_wifi_driver_rom.a(rom_rtw_security_gcm.o)
                              (--whole-archive)
/home/weiqiang_sun/S_SDK_Repo/S_SDK_Repo_RTOS_Master_Temporary/amebagreen2_gcc_project/build/project_km4ns/asdk/make/image_rom_wifi/wifi_driver/rom/lib_wifi_driver_rom.a(rom_rtw_sha256.o)
                              (--whole-archive)
/home/weiqiang_sun/S_SDK_Repo/S_SDK_Repo_RTOS_Master_Temporary/amebagreen2_gcc_project/build/project_km4ns/asdk/make/image_rom_wifi/wifi_driver/rom/lib_wifi_driver_rom.a(rom_rtw_sha384.o)
                              (--whole-archive)
/home/weiqiang_sun/S_SDK_Repo/S_SDK_Repo_RTOS_Master_Temporary/amebagreen2_gcc_project/build/project_km4ns/asdk/make/image_rom_wifi/wifi_driver/rom/lib_wifi_driver_rom.a(rom_sha1.o)
                              (--whole-archive)
/home/weiqiang_sun/S_SDK_Repo/S_SDK_Repo_RTOS_Master_Temporary/amebagreen2_gcc_project/build/project_km4ns/asdk/make/image_rom_wifi/wifi_driver/rom/lib_wifi_driver_rom.a(rom_wpa_lite_part2.o)
                              (--whole-archive)
/home/weiqiang_sun/S_SDK_Repo/S_SDK_Repo_RTOS_Master_Temporary/amebagreen2_gcc_project/build/project_km4ns/asdk/make/image_rom_wifi/wifi_driver/rom/lib_wifi_driver_rom.a(rom_wpa_lite_psk.o)
                              (--whole-archive)
/home/weiqiang_sun/S_SDK_Repo/S_SDK_Repo_RTOS_Master_Temporary/amebagreen2_gcc_project/build/project_km4ns/asdk/make/image_rom_wifi/wifi_driver/rom/lib_wifi_driver_rom.a(rom_wpa_lite_sae.o)
                              (--whole-archive)
/home/weiqiang_sun/S_SDK_Repo/S_SDK_Repo_RTOS_Master_Temporary/amebagreen2_gcc_project/build/project_km4ns/asdk/make/image_rom_wifi/wifi_driver/rom/lib_wifi_driver_rom.a(rom_wpa_lite_sae_crypto.o)
                              (--whole-archive)
/home/weiqiang_sun/S_SDK_Repo/S_SDK_Repo_RTOS_Master_Temporary/amebagreen2_gcc_project/build/project_km4ns/asdk/make/image_rom_wifi/wifi_driver/rom/lib_wifi_driver_rom.a(rom_rtw_11d.o)
                              (--whole-archive)
/home/weiqiang_sun/S_SDK_Repo/S_SDK_Repo_RTOS_Master_Temporary/amebagreen2_gcc_project/build/project_km4ns/asdk/make/image_rom_wifi/wifi_driver/rom/lib_wifi_driver_rom.a(rom_rtw_80211w.o)
                              (--whole-archive)
/home/weiqiang_sun/S_SDK_Repo/S_SDK_Repo_RTOS_Master_Temporary/amebagreen2_gcc_project/build/project_km4ns/asdk/make/image_rom_wifi/wifi_driver/rom/lib_wifi_driver_rom.a(rom_rtw_action.o)
                              (--whole-archive)
/home/weiqiang_sun/S_SDK_Repo/S_SDK_Repo_RTOS_Master_Temporary/amebagreen2_gcc_project/build/project_km4ns/asdk/make/image_rom_wifi/wifi_driver/rom/lib_wifi_driver_rom.a(rom_rtw_assoc.o)
                              (--whole-archive)
/home/weiqiang_sun/S_SDK_Repo/S_SDK_Repo_RTOS_Master_Temporary/amebagreen2_gcc_project/build/project_km4ns/asdk/make/image_rom_wifi/wifi_driver/rom/lib_wifi_driver_rom.a(rom_rtw_auth.o)
                              (--whole-archive)
/home/weiqiang_sun/S_SDK_Repo/S_SDK_Repo_RTOS_Master_Temporary/amebagreen2_gcc_project/build/project_km4ns/asdk/make/image_rom_wifi/wifi_driver/rom/lib_wifi_driver_rom.a(rom_rtw_beacon.o)
                              (--whole-archive)
/home/weiqiang_sun/S_SDK_Repo/S_SDK_Repo_RTOS_Master_Temporary/amebagreen2_gcc_project/build/project_km4ns/asdk/make/image_rom_wifi/wifi_driver/rom/lib_wifi_driver_rom.a(rom_rtw_chbw.o)
                              (--whole-archive)
/home/weiqiang_sun/S_SDK_Repo/S_SDK_Repo_RTOS_Master_Temporary/amebagreen2_gcc_project/build/project_km4ns/asdk/make/image_rom_wifi/wifi_driver/rom/lib_wifi_driver_rom.a(rom_rtw_he.o)
                              (--whole-archive)
/home/weiqiang_sun/S_SDK_Repo/S_SDK_Repo_RTOS_Master_Temporary/amebagreen2_gcc_project/build/project_km4ns/asdk/make/image_rom_wifi/wifi_driver/rom/lib_wifi_driver_rom.a(rom_rtw_ieee80211.o)
                              (--whole-archive)
/home/weiqiang_sun/S_SDK_Repo/S_SDK_Repo_RTOS_Master_Temporary/amebagreen2_gcc_project/build/project_km4ns/asdk/make/image_rom_wifi/wifi_driver/rom/lib_wifi_driver_rom.a(rom_rtw_ieee80211_part2.o)
                              (--whole-archive)
/home/weiqiang_sun/S_SDK_Repo/S_SDK_Repo_RTOS_Master_Temporary/amebagreen2_gcc_project/build/project_km4ns/asdk/make/image_rom_wifi/wifi_driver/rom/lib_wifi_driver_rom.a(rom_rtw_pmksa_cache.o)
                              (--whole-archive)
/home/weiqiang_sun/S_SDK_Repo/S_SDK_Repo_RTOS_Master_Temporary/amebagreen2_gcc_project/build/project_km4ns/asdk/make/image_rom_wifi/wifi_driver/rom/lib_wifi_driver_rom.a(rom_rtw_probe.o)
                              (--whole-archive)
/home/weiqiang_sun/S_SDK_Repo/S_SDK_Repo_RTOS_Master_Temporary/amebagreen2_gcc_project/build/project_km4ns/asdk/make/image_rom_wifi/wifi_driver/rom/lib_wifi_driver_rom.a(rom_rtw_psk.o)
                              (--whole-archive)
/home/weiqiang_sun/S_SDK_Repo/S_SDK_Repo_RTOS_Master_Temporary/amebagreen2_gcc_project/build/project_km4ns/asdk/make/image_rom_wifi/wifi_driver/rom/lib_wifi_driver_rom.a(rom_rtw_rate.o)
                              (--whole-archive)
/home/weiqiang_sun/S_SDK_Repo/S_SDK_Repo_RTOS_Master_Temporary/amebagreen2_gcc_project/build/project_km4ns/asdk/make/image_rom_wifi/wifi_driver/rom/lib_wifi_driver_rom.a(rom_rtw_recv.o)
                              (--whole-archive)
/home/weiqiang_sun/S_SDK_Repo/S_SDK_Repo_RTOS_Master_Temporary/amebagreen2_gcc_project/build/project_km4ns/asdk/make/image_rom_wifi/wifi_driver/rom/lib_wifi_driver_rom.a(rom_rtw_rf.o)
                              (--whole-archive)
/home/weiqiang_sun/S_SDK_Repo/S_SDK_Repo_RTOS_Master_Temporary/amebagreen2_gcc_project/build/project_km4ns/asdk/make/image_rom_wifi/wifi_driver/rom/lib_wifi_driver_rom.a(rom_rtw_vht.o)
                              (--whole-archive)
/home/weiqiang_sun/S_SDK_Repo/S_SDK_Repo_RTOS_Master_Temporary/amebagreen2_gcc_project/build/project_km4ns/asdk/make/image_rom_wifi/wifi_driver/rom/lib_wifi_driver_rom.a(rom_rtw_ht.o)
                              (--whole-archive)
/home/weiqiang_sun/S_SDK_Repo/S_SDK_Repo_RTOS_Master_Temporary/amebagreen2_gcc_project/build/project_km4ns/asdk/make/image_rom_wifi/wifi_driver/rom/lib_wifi_driver_rom.a(rom_rtw_network.o)
                              (--whole-archive)
/home/weiqiang_sun/S_SDK_Repo/S_SDK_Repo_RTOS_Master_Temporary/amebagreen2_gcc_project/build/project_km4ns/asdk/make/image_rom_wifi/wifi_driver/rom/lib_wifi_driver_rom.a(rom_rtw_pmksa_cache_part2.o)
                              (--whole-archive)
/home/weiqiang_sun/S_SDK_Repo/S_SDK_Repo_RTOS_Master_Temporary/amebagreen2_gcc_project/build/project_km4ns/asdk/make/image_rom_wifi/wifi_driver/rom/lib_wifi_driver_rom.a(rom_rtw_11d_part2.o)
                              (--whole-archive)
/home/weiqiang_sun/S_SDK_Repo/S_SDK_Repo_RTOS_Master_Temporary/amebagreen2_gcc_project/build/project_km4ns/asdk/make/image_rom_wifi/wifi_driver/rom/lib_wifi_driver_rom.a(rom_rtw_he_part2.o)
                              (--whole-archive)
/home/weiqiang_sun/S_SDK_Repo/S_SDK_Repo_RTOS_Master_Temporary/amebagreen2_gcc_project/build/project_km4ns/asdk/make/image_rom_wifi/wifi_driver/rom/lib_wifi_driver_rom.a(rom_rtw_shortcut.o)
                              (--whole-archive)
/home/weiqiang_sun/S_SDK_Repo/S_SDK_Repo_RTOS_Master_Temporary/amebagreen2_gcc_project/build/project_km4ns/asdk/make/image_rom_wifi/wifi_driver/rom/lib_wifi_driver_rom.a(rom_rtw_setkey.o)
                              (--whole-archive)
/home/weiqiang_sun/S_SDK_Repo/S_SDK_Repo_RTOS_Master_Temporary/amebagreen2_gcc_project/build/project_km4ns/asdk/make/image_rom_wifi/wifi_driver/rom/lib_wifi_driver_rom.a(rom_rtw_beacon_part2.o)
                              (--whole-archive)
/home/weiqiang_sun/S_SDK_Repo/S_SDK_Repo_RTOS_Master_Temporary/amebagreen2_gcc_project/build/project_km4ns/asdk/make/image_rom_wifi/wifi_driver/rom/lib_wifi_driver_rom.a(rom_rtw_sitesurvey.o)
                              (--whole-archive)
/home/weiqiang_sun/S_SDK_Repo/S_SDK_Repo_RTOS_Master_Temporary/amebagreen2_gcc_project/build/project_km4ns/asdk/make/image_rom_wifi/wifi_driver/rom/lib_wifi_driver_rom.a(rom_rtw_sitesurvey_report.o)
                              (--whole-archive)
/home/weiqiang_sun/S_SDK_Repo/S_SDK_Repo_RTOS_Master_Temporary/amebagreen2_gcc_project/build/project_km4ns/asdk/make/image_rom_wifi/wifi_driver/rom/lib_wifi_driver_rom.a(rom_rtw_ap_xmit.o)
                              (--whole-archive)
/home/weiqiang_sun/S_SDK_Repo/S_SDK_Repo_RTOS_Master_Temporary/amebagreen2_gcc_project/build/project_km4ns/asdk/make/image_rom_wifi/wifi_driver/rom/lib_wifi_driver_rom.a(rom_rtw_addba.o)
                              (--whole-archive)
/home/weiqiang_sun/S_SDK_Repo/S_SDK_Repo_RTOS_Master_Temporary/amebagreen2_gcc_project/build/project_km4ns/asdk/make/image_rom_wifi/wifi_driver/rom/lib_wifi_driver_rom.a(rom_rtw_80211w_part2.o)
                              (--whole-archive)
/home/weiqiang_sun/S_SDK_Repo/S_SDK_Repo_RTOS_Master_Temporary/amebagreen2_gcc_project/build/project_km4ns/asdk/make/image_rom_wifi/wifi_driver/rom/lib_wifi_driver_rom.a(rom_rtw_auth_part2.o)
                              (--whole-archive)
/home/weiqiang_sun/S_SDK_Repo/S_SDK_Repo_RTOS_Master_Temporary/amebagreen2_gcc_project/build/project_km4ns/asdk/make/image_rom_wifi/wifi_driver/rom/lib_wifi_driver_rom.a(rom_rtw_action_part2.o)
                              (--whole-archive)
/home/weiqiang_sun/S_SDK_Repo/S_SDK_Repo_RTOS_Master_Temporary/amebagreen2_gcc_project/build/project_km4ns/asdk/make/image_rom_wifi/wifi_driver/rom/lib_wifi_driver_rom.a(rom_rtw_join.o)
                              (--whole-archive)
/home/weiqiang_sun/S_SDK_Repo/S_SDK_Repo_RTOS_Master_Temporary/amebagreen2_gcc_project/build/project_km4ns/asdk/make/image_rom_wifi/wifi_driver/rom/lib_wifi_driver_rom.a(rom_rtw_join_result.o)
                              (--whole-archive)
/home/weiqiang_sun/S_SDK_Repo/S_SDK_Repo_RTOS_Master_Temporary/amebagreen2_gcc_project/build/project_km4ns/asdk/make/image_rom_wifi/wifi_driver/rom/lib_wifi_driver_rom.a(rom_rtw_assoc_part2.o)
                              (--whole-archive)
/home/weiqiang_sun/S_SDK_Repo/S_SDK_Repo_RTOS_Master_Temporary/amebagreen2_gcc_project/build/project_km4ns/asdk/make/image_rom_wifi/wifi_driver/rom/lib_wifi_driver_rom.a(rom_rtw_security_part2.o)
                              (--whole-archive)
/home/weiqiang_sun/S_SDK_Repo/S_SDK_Repo_RTOS_Master_Temporary/amebagreen2_gcc_project/build/project_km4ns/asdk/make/image_rom_wifi/wifi_driver/rom/lib_wifi_driver_rom.a(rom_rtw_vht_part2.o)
                              (--whole-archive)
/home/weiqiang_sun/S_SDK_Repo/S_SDK_Repo_RTOS_Master_Temporary/amebagreen2_gcc_project/build/project_km4ns/asdk/make/image_rom_wifi/wifi_driver/rom/lib_wifi_driver_rom.a(rom_rtw_xmit.o)
                              (--whole-archive)
/home/weiqiang_sun/S_SDK_Repo/S_SDK_Repo_RTOS_Master_Temporary/amebagreen2_gcc_project/build/project_km4ns/asdk/make/image_rom_wifi/wifi_driver/rom/lib_wifi_driver_rom.a(rom_rtw_recv_part2.o)
                              (--whole-archive)
/home/weiqiang_sun/S_SDK_Repo/S_SDK_Repo_RTOS_Master_Temporary/amebagreen2_gcc_project/build/project_km4ns/asdk/make/image_rom_wifi/wifi_driver/rom/lib_wifi_driver_rom.a(rom_rtw_recv_reorder.o)
                              (--whole-archive)
/home/weiqiang_sun/S_SDK_Repo/S_SDK_Repo_RTOS_Master_Temporary/amebagreen2_gcc_project/build/project_km4ns/asdk/make/image_rom_wifi/wifi_driver/rom/lib_wifi_driver_rom.a(rom_rtw_mgnt.o)
                              (--whole-archive)
/home/weiqiang_sun/S_SDK_Repo/S_SDK_Repo_RTOS_Master_Temporary/amebagreen2_gcc_project/build/project_km4ns/asdk/make/image_rom_wifi/wifi_driver/rom/lib_wifi_driver_rom.a(rom_rtw_state.o)
                              (--whole-archive)
/home/weiqiang_sun/S_SDK_Repo/S_SDK_Repo_RTOS_Master_Temporary/amebagreen2_gcc_project/build/project_km4ns/asdk/make/image_rom_wifi/wifi_driver/rom/lib_wifi_driver_rom.a(rom_rtw_sta_mgt.o)
                              (--whole-archive)
/home/weiqiang_sun/S_SDK_Repo/S_SDK_Repo_RTOS_Master_Temporary/amebagreen2_gcc_project/build/project_km4ns/asdk/make/image_rom_wifi/wifi_driver/rom/lib_wifi_driver_rom.a(rom_rtw_ap.o)
                              (--whole-archive)
/home/weiqiang_sun/S_SDK_Repo/S_SDK_Repo_RTOS_Master_Temporary/amebagreen2_gcc_project/build/project_km4ns/asdk/make/image_rom_wifi/wifi_driver/rom/lib_wifi_driver_rom.a(rom_rtw_skbuff.o)
                              (--whole-archive)
/home/weiqiang_sun/S_SDK_Repo/S_SDK_Repo_RTOS_Master_Temporary/amebagreen2_gcc_project/build/project_km4ns/asdk/make/image_rom_wifi/wifi_driver/rom/lib_wifi_driver_rom.a(rom_hal_debug.o)
                              (--whole-archive)
/home/weiqiang_sun/S_SDK_Repo/S_SDK_Repo_RTOS_Master_Temporary/amebagreen2_gcc_project/build/project_km4ns/asdk/make/image_rom_wifi/wifi_driver/rom/lib_wifi_driver_rom.a(rom_hal_h2c.o)
                              (--whole-archive)
/home/weiqiang_sun/S_SDK_Repo/S_SDK_Repo_RTOS_Master_Temporary/amebagreen2_gcc_project/build/project_km4ns/asdk/make/image_rom_wifi/wifi_driver/rom/lib_wifi_driver_rom.a(rom_hal_h2c_g1.o)
                              (--whole-archive)
/home/weiqiang_sun/S_SDK_Repo/S_SDK_Repo_RTOS_Master_Temporary/amebagreen2_gcc_project/build/project_km4ns/asdk/make/image_rom_wifi/wifi_driver/rom/lib_wifi_driver_rom.a(rom_hal_recv.o)
                              (--whole-archive)
/home/weiqiang_sun/S_SDK_Repo/S_SDK_Repo_RTOS_Master_Temporary/amebagreen2_gcc_project/build/project_km4ns/asdk/make/image_rom_wifi/wifi_driver/rom/lib_wifi_driver_rom.a(rom_hal_structs.o)
                              (--whole-archive)
/home/weiqiang_sun/S_SDK_Repo/S_SDK_Repo_RTOS_Master_Temporary/amebagreen2_gcc_project/build/project_km4ns/asdk/make/image_rom_wifi/wifi_driver/rom/lib_wifi_driver_rom.a(rom_hal_xmit.o)
                              (--whole-archive)
/home/weiqiang_sun/S_SDK_Repo/S_SDK_Repo_RTOS_Master_Temporary/amebagreen2_gcc_project/build/project_km4ns/asdk/make/image_rom_wifi/wifi_driver/rom/lib_wifi_driver_rom.a(rom_hal_xmit_g1.o)
                              (--whole-archive)
/home/weiqiang_sun/S_SDK_Repo/S_SDK_Repo_RTOS_Master_Temporary/amebagreen2_gcc_project/build/project_km4ns/asdk/make/image_rom_wifi/wifi_driver/rom/lib_wifi_driver_rom.a(rom_wifi_hal_ax.o)
                              (--whole-archive)
/home/weiqiang_sun/S_SDK_Repo/S_SDK_Repo_RTOS_Master_Temporary/amebagreen2_gcc_project/build/project_km4ns/asdk/make/image_rom_wifi/wifi_driver/rom/lib_wifi_driver_rom.a(rom_wifi_hal_bcn.o)
                              (--whole-archive)
/home/weiqiang_sun/S_SDK_Repo/S_SDK_Repo_RTOS_Master_Temporary/amebagreen2_gcc_project/build/project_km4ns/asdk/make/image_rom_wifi/wifi_driver/rom/lib_wifi_driver_rom.a(rom_wifi_hal_debug.o)
                              (--whole-archive)
/home/weiqiang_sun/S_SDK_Repo/S_SDK_Repo_RTOS_Master_Temporary/amebagreen2_gcc_project/build/project_km4ns/asdk/make/image_rom_wifi/wifi_driver/rom/lib_wifi_driver_rom.a(rom_wifi_hal_init.o)
                              (--whole-archive)
/home/weiqiang_sun/S_SDK_Repo/S_SDK_Repo_RTOS_Master_Temporary/amebagreen2_gcc_project/build/project_km4ns/asdk/make/image_rom_wifi/wifi_driver/rom/lib_wifi_driver_rom.a(rom_wifi_hal_io.o)
                              (--whole-archive)
/home/weiqiang_sun/S_SDK_Repo/S_SDK_Repo_RTOS_Master_Temporary/amebagreen2_gcc_project/build/project_km4ns/asdk/make/image_rom_wifi/wifi_driver/rom/lib_wifi_driver_rom.a(rom_wifi_hal_media_access.o)
                              (--whole-archive)
/home/weiqiang_sun/S_SDK_Repo/S_SDK_Repo_RTOS_Master_Temporary/amebagreen2_gcc_project/build/project_km4ns/asdk/make/image_rom_wifi/wifi_driver/rom/lib_wifi_driver_rom.a(rom_wifi_hal_misc.o)
                              (--whole-archive)
/home/weiqiang_sun/S_SDK_Repo/S_SDK_Repo_RTOS_Master_Temporary/amebagreen2_gcc_project/build/project_km4ns/asdk/make/image_rom_wifi/wifi_driver/rom/lib_wifi_driver_rom.a(rom_wifi_hal_rate.o)
                              (--whole-archive)
/home/weiqiang_sun/S_SDK_Repo/S_SDK_Repo_RTOS_Master_Temporary/amebagreen2_gcc_project/build/project_km4ns/asdk/make/image_rom_wifi/wifi_driver/rom/lib_wifi_driver_rom.a(rom_wifi_hal_secure.o)
                              (--whole-archive)
/home/weiqiang_sun/S_SDK_Repo/S_SDK_Repo_RTOS_Master_Temporary/amebagreen2_gcc_project/build/project_km4ns/asdk/make/image_rom_wifi/wifi_driver/rom/lib_wifi_driver_rom.a(rom_wifi_hal_tsf.o)
                              (--whole-archive)
/home/weiqiang_sun/S_SDK_Repo/S_SDK_Repo_RTOS_Master_Temporary/amebagreen2_gcc_project/build/project_km4ns/asdk/make/image_rom_wifi/wifi_driver/rom/lib_wifi_driver_rom.a(rom_wifi_hal_txdesc.o)
                              (--whole-archive)
/home/weiqiang_sun/S_SDK_Repo/S_SDK_Repo_RTOS_Master_Temporary/amebagreen2_gcc_project/build/project_km4ns/asdk/make/image_rom_wifi/wifi_driver/rom/lib_wifi_driver_rom.a(rom_wifi_hal_rxdesc.o)
                              (--whole-archive)
/home/weiqiang_sun/S_SDK_Repo/S_SDK_Repo_RTOS_Master_Temporary/amebagreen2_gcc_project/build/project_km4ns/asdk/make/image_rom_wifi/wifi_driver/rom/lib_wifi_driver_rom.a(rom_rtw_queue.o)
                              (--whole-archive)
/home/weiqiang_sun/S_SDK_Repo/S_SDK_Repo_RTOS_Master_Temporary/amebagreen2_gcc_project/build/project_km4ns/asdk/make/image_rom_wifi/wifi_driver/rom/lib_wifi_driver_rom.a(rom_hal_rom_to_flash.o)
                              (--whole-archive)

Memory Configuration

Name             Origin             Length             Attributes
EMPTY_SECTION    0x0000000000000000 0x0000000000000000 xrw
KM4TZ_IROM       0x0000000000000000 0x000000000001d000 xr
KM4TZ_DROM       0x000000000001d000 0x0000000000002000 xr
KM4TZ_ONLY_ROM   0x000000000001f000 0x0000000000001000 xr
KM4NS_SYS_ROM    0x0000000000100000 0x0000000000001000 xr
SHARE_IROM       0x0000000000101000 0x000000000000b000 xr
SHARE_DROM       0x000000000010c000 0x0000000000003000 xr
OS_ROM           0x000000000010f000 0x0000000000005000 xr
WIFI_ROM         0x0000000000114000 0x0000000000033800 xr
DELAY_ROM        0x0000000000147800 0x0000000000000800 xr
KM4TZ_ROMBSS_RAM_S 0x0000000030000000 0x0000000000000600 rw
KM4TZ_MSP_RAM_S  0x0000000030000600 0x0000000000000a00 rw
KM4TZ_ROMBSS_RAM_NS 0x0000000020001000 0x0000000000001400 rw
KM4TZ_MSP_RAM_NS 0x0000000020002400 0x0000000000000c00 rw
KM4NS_ROMBSS_MMU 0x0000000020001000 0x0000000000001400 rw
KM4NS_ROMBSS_RAM 0x0000000020003000 0x0000000000001400 rw
KM4NS_MSP_RAM    0x0000000020004600 0x0000000000000a00 rw
KM4NS_IPC_RAM    0x0000000020004400 0x0000000000000200 xrw
FULLMAC_IMG2     0x0000000020003020 0x000000000006bfe0 xrw
FULLMAC_TCM_RAM  0x00000000000f0000 0x0000000000010000 xrw
FULLMAC_PG_LOADER_RAM 0x0000000030000040 0x0000000000000480 xrw
KM4TZ_BOOTLOADER_RAM_S 0x0000000030005020 0x0000000000000fe0 xrw
KM4TZ_FLOADER_RAM_S 0x0000000030070020 0x000000000000efe0 xrw
KM4TZ_BD_RAM_TZ_NSC 0x0000000020006020 0xffffffffffffffe0 xrw
KM4TZ_BD_RAM_TZ_ENTRY 0x0000000020006000 0x0000000000000000 xrw
KM4TZ_BD_RAM_TZ_S 0x0000000030006020 0xffffffffffffffe0 xrw
KM4TZ_BD_RAM     0x0000000020006020 0x0000000000049fe0 xrw
KM4NS_BD_RAM     0x0000000020050020 0x000000000002ffe0 xrw
KM4TZ_BD_PSRAM_TZ_NSC 0x0000000060000020 0xffffffffffffffe0 xrw
KM4TZ_BD_PSRAM_TZ_ENTRY 0x0000000060000000 0x0000000000000000 xrw
KM4TZ_BD_PSRAM_TZ_S 0x0000000070000020 0xffffffffffffffe0 xrw
KM4TZ_BD_PSRAM   0x0000000060000020 0x0000000000324fe0 xrw
KM4NS_BD_PSRAM   0x0000000060325020 0x00000000000dafe0 xrw
KM4TZ_PSRAM_HEAP_EXT 0x000000006fffffff 0x0000000000000000 xrw
KM4NS_PSRAM_HEAP_EXT 0x000000006fffffff 0x0000000000000000 xrw
RETENTION_RAM    0x000000004080aa00 0x0000000000000200 xrw
KM4TZ_BOOT_XIP   0x0000000010400020 0x00000000007fffe0 xr
KM4TZ_IMG3_XIP   0x0000000010c00020 0x00000000003fffe0 xr
KM4TZ_IMG2_XIP   0x0000000002000020 0x0000000001ffffe0 xr
KM4NS_IMG2_XIP   0x0000000004000020 0x0000000001ffffe0 xr
BTRACE           0x00000000c8800000 0x0000000000800000 xr
CTRACE           0x00000000ca000000 0x00000000007fffff xr
*default*        0x0000000000000000 0xffffffffffffffff

Linker script and memory map

                0x0000000020004400                __ipc_memory_start__ = ORIGIN (KM4NS_IPC_RAM)
                0x0000000004000020                __km4ns_flash_text_start__ = ORIGIN (KM4NS_IMG2_XIP)
                0x0000000006000000                __km4ns_flash_text_end__ = (ORIGIN (KM4NS_IMG2_XIP) + LENGTH (KM4NS_IMG2_XIP))
                0x0000000002000020                __km4tz_flash_text_start__ = ORIGIN (KM4TZ_IMG2_XIP)
                0x0000000004000000                __km4tz_flash_text_end__ = (ORIGIN (KM4TZ_IMG2_XIP) + LENGTH (KM4TZ_IMG2_XIP))
                0x0000000010400020                __km4tz_boot_text_start__ = ORIGIN (KM4TZ_BOOT_XIP)
                0x0000000010c00000                __km4tz_boot_text_end__ = (ORIGIN (KM4TZ_BOOT_XIP) + LENGTH (KM4TZ_BOOT_XIP))
                0x0000000010c00020                __km4tz_img3_text_start__ = ORIGIN (KM4TZ_IMG3_XIP)
                0x0000000011000000                __km4tz_img3_text_end__ = (ORIGIN (KM4TZ_IMG3_XIP) + LENGTH (KM4TZ_IMG3_XIP))
                0x0000000020006000                __km4tz_bd_ram_start__ = (ORIGIN (KM4TZ_BD_RAM) - 0x20)
                0x0000000060000000                __km4tz_bd_psram_start__ = (ORIGIN (KM4TZ_BD_PSRAM) - 0x20)
                0x0000000060400000                __non_secure_psram_end__ = 0x60400000

.rom_wifi.text  0x0000000000114000    0x2e7c0
                0x0000000000114000                AA__wifi_share_rom_start__ = .
 *(.wifi.rom.text*)
 .wifi.rom.text
                0x0000000000114000     0x2694 /home/weiqiang_sun/S_SDK_Repo/S_SDK_Repo_RTOS_Master_Temporary/amebagreen2_gcc_project/build/project_km4ns/asdk/make/image_rom_wifi/wifi_driver/rom/lib_wifi_driver_rom.a(rom_aes.o)
                0x0000000000114038                aes_set_key
                0x0000000000114408                aes_encrypt
                0x0000000000115290                aes_decrypt
                0x0000000000116180                AES_WRAP
                0x0000000000116334                AES_UnWRAP
                0x00000000001164a0                wifi_rom_omac1_aes_128_vector
 .wifi.rom.text
                0x0000000000116694      0x10c /home/weiqiang_sun/S_SDK_Repo/S_SDK_Repo_RTOS_Master_Temporary/amebagreen2_gcc_project/build/project_km4ns/asdk/make/image_rom_wifi/wifi_driver/rom/lib_wifi_driver_rom.a(rom_arc4.o)
                0x0000000000116694                crc32_get
                0x00000000001166c4                arc4_byte
                0x00000000001166f0                rt_arc4_init
                0x0000000000116750                rt_arc4_crypt
 .wifi.rom.text
                0x00000000001167a0      0xa7c /home/weiqiang_sun/S_SDK_Repo/S_SDK_Repo_RTOS_Master_Temporary/amebagreen2_gcc_project/build/project_km4ns/asdk/make/image_rom_wifi/wifi_driver/rom/lib_wifi_driver_rom.a(rom_md5.o)
                0x0000000000116f6c                rt_md5_init
                0x0000000000116f98                rt_md5_append
                0x0000000000117024                rt_md5_final
                0x0000000000117080                rt_md5_hmac
 .wifi.rom.text
                0x000000000011721c      0x414 /home/weiqiang_sun/S_SDK_Repo/S_SDK_Repo_RTOS_Master_Temporary/amebagreen2_gcc_project/build/project_km4ns/asdk/make/image_rom_wifi/wifi_driver/rom/lib_wifi_driver_rom.a(rom_rc4.o)
                0x000000000011721c                RC4
                0x000000000011754c                RC4_set_key
 .wifi.rom.text
                0x0000000000117630       0x28 /home/weiqiang_sun/S_SDK_Repo/S_SDK_Repo_RTOS_Master_Temporary/amebagreen2_gcc_project/build/project_km4ns/asdk/make/image_rom_wifi/wifi_driver/rom/lib_wifi_driver_rom.a(rom_rtw_dh_groups.o)
                0x0000000000117630                dh_groups_get
 .wifi.rom.text
                0x0000000000117658     0x27d4 /home/weiqiang_sun/S_SDK_Repo/S_SDK_Repo_RTOS_Master_Temporary/amebagreen2_gcc_project/build/project_km4ns/asdk/make/image_rom_wifi/wifi_driver/rom/lib_wifi_driver_rom.a(rom_rtw_mbedtls_bignum.o)
                0x0000000000117658                wifi_rom_mpi_init
                0x0000000000117664                wifi_rom_mpi_free
                0x0000000000117694                wifi_rom_mpi_grow
                0x00000000001176e8                wifi_rom_mpi_shrink
                0x0000000000117770                wifi_rom_mpi_copy
                0x00000000001177ec                wifi_rom_mpi_safe_cond_assign
                0x0000000000117870                wifi_rom_mpi_lset
                0x00000000001178e4                wifi_rom_mpi_get_bit
                0x0000000000117904                wifi_rom_mpi_set_bit
                0x0000000000117954                wifi_rom_mpi_lsb
                0x0000000000117998                wifi_rom_mpi_bitlen
                0x00000000001179f4                wifi_rom_mpi_size
                0x0000000000117a00                wifi_rom_mpi_read_binary
                0x0000000000117a9c                wifi_rom_mpi_write_binary
                0x0000000000117b28                wifi_rom_mpi_shift_l
                0x0000000000117bec                wifi_rom_mpi_shift_r
                0x0000000000117ca0                wifi_rom_mpi_cmp_abs
                0x0000000000117d30                wifi_rom_mpi_cmp_mpi
                0x0000000000117ddc                wifi_rom_mpi_cmp_int
                0x0000000000117e0c                wifi_rom_mpi_add_abs
                0x0000000000117ee4                wifi_rom_mpi_sub_abs
                0x0000000000117fe0                wifi_rom_mpi_add_mpi
                0x0000000000118030                wifi_rom_mpi_sub_mpi
                0x0000000000118080                wifi_rom_mpi_add_int
                0x00000000001180f0                wifi_rom_mpi_sub_int
                0x0000000000118160                wifi_rom_mpi_mul_hlp
                0x0000000000118ad4                wifi_rom_mpi_mul_mpi
                0x0000000000118c0c                wifi_rom_mpi_mul_int
                0x0000000000118c28                wifi_rom_mpi_div_mpi
                0x0000000000119138                wifi_rom_mpi_mod_mpi
                0x00000000001191c8                wifi_rom_mpi_exp_mod
                0x000000000011971c                wifi_rom_mpi_gcd
                0x0000000000119988                wifi_rom_mpi_fill_random
                0x0000000000119a20                wifi_rom_mpi_inv_mod
 .wifi.rom.text
                0x0000000000119e2c     0x1cec /home/weiqiang_sun/S_SDK_Repo/S_SDK_Repo_RTOS_Master_Temporary/amebagreen2_gcc_project/build/project_km4ns/asdk/make/image_rom_wifi/wifi_driver/rom/lib_wifi_driver_rom.a(rom_rtw_mbedtls_ecp.o)
                0x000000000011a984                wifi_rom_ecp_point_init
                0x000000000011a9a0                wifi_rom_ecp_group_init
                0x000000000011a9f4                wifi_rom_ecp_point_free
                0x000000000011aa14                wifi_rom_ecp_group_free
                0x000000000011aaac                wifi_rom_ecp_copy
                0x000000000011aadc                wifi_rom_ecp_set_zero
                0x000000000011b180                wifi_rom_ecp_is_zero
                0x000000000011b194                wifi_rom_ecp_point_cmp
                0x000000000011b1c8                wifi_rom_ecp_point_write_binary
                0x000000000011b26c                wifi_rom_ecp_point_read_binary
                0x000000000011b300                wifi_rom_ecp_mul_restartable
                0x000000000011b7cc                wifi_rom_ecp_mul
                0x000000000011b7e8                wifi_rom_ecp_muladd_restartable
                0x000000000011b880                wifi_rom_ecp_muladd
                0x000000000011b89c                wifi_rom_ecp_check_pubkey
                0x000000000011b8d4                wifi_rom_ecp_check_privkey
                0x000000000011b914                wifi_rom_mpi_add_mod
                0x000000000011b950                wifi_rom_mpi_mul_mod
                0x000000000011b970                wifi_rom_mpi_sub_int_mod
                0x000000000011b9b0                wifi_rom_ecp_sw_rhs
                0x000000000011ba78                wifi_rom_ecp_sw_derive_y
 .wifi.rom.text
                0x000000000011bb18      0xdac /home/weiqiang_sun/S_SDK_Repo/S_SDK_Repo_RTOS_Master_Temporary/amebagreen2_gcc_project/build/project_km4ns/asdk/make/image_rom_wifi/wifi_driver/rom/lib_wifi_driver_rom.a(rom_rtw_mbedtls_ecp_curves.o)
                0x000000000011c768                wifi_rom_ecp_group_load
 .wifi.rom.text
                0x000000000011c8c4        0x0 /home/weiqiang_sun/S_SDK_Repo/S_SDK_Repo_RTOS_Master_Temporary/amebagreen2_gcc_project/build/project_km4ns/asdk/make/image_rom_wifi/wifi_driver/rom/lib_wifi_driver_rom.a(rom_rtw_mbedtls_func_map.o)
 .wifi.rom.text
                0x000000000011c8c4       0x10 /home/weiqiang_sun/S_SDK_Repo/S_SDK_Repo_RTOS_Master_Temporary/amebagreen2_gcc_project/build/project_km4ns/asdk/make/image_rom_wifi/wifi_driver/rom/lib_wifi_driver_rom.a(rom_rtw_mbedtls_platform.o)
                0x000000000011c8c4                wifi_rom_platform_zeroize
 .wifi.rom.text
                0x000000000011c8d4     0x1760 /home/weiqiang_sun/S_SDK_Repo/S_SDK_Repo_RTOS_Master_Temporary/amebagreen2_gcc_project/build/project_km4ns/asdk/make/image_rom_wifi/wifi_driver/rom/lib_wifi_driver_rom.a(rom_rtw_security.o)
                0x000000000011c9f4                wep_80211_encrypt
                0x000000000011ca5c                wep_80211_decrypt
                0x000000000011caf0                tkip_micappendbyte
                0x000000000011cb4c                rtw_secmicsetkey
                0x000000000011cb98                rtw_secmicappend
                0x000000000011cbfc                rtw_secgetmic
                0x000000000011ccb4                rtw_seccalctkipmic
                0x000000000011cd88                tkip_phase1
                0x000000000011cee0                tkip_phase2
                0x000000000011d0ac                tkip_80211_encrypt
                0x000000000011d134                tkip_80211_decrypt
                0x000000000011d1e8                aes1_encrypt
                0x000000000011d4dc                aesccmp_construct_mic_iv
                0x000000000011d540                aesccmp_construct_mic_header1
                0x000000000011d5ac                aesccmp_construct_mic_header2
                0x000000000011d648                aesccmp_construct_ctr_preload
                0x000000000011d6d8                aes_80211_encrypt
                0x000000000011db14                aes_80211_decrypt
 .wifi.rom.text
                0x000000000011e034      0xd98 /home/weiqiang_sun/S_SDK_Repo/S_SDK_Repo_RTOS_Master_Temporary/amebagreen2_gcc_project/build/project_km4ns/asdk/make/image_rom_wifi/wifi_driver/rom/lib_wifi_driver_rom.a(rom_rtw_security_gcm.o)
                0x000000000011ead8                gcmp_80211_encrypt
                0x000000000011ebbc                gcmp_80211_decrypt
                0x000000000011ed44                bip_gcmp_protect
 .wifi.rom.text
                0x000000000011edcc      0x66c /home/weiqiang_sun/S_SDK_Repo/S_SDK_Repo_RTOS_Master_Temporary/amebagreen2_gcc_project/build/project_km4ns/asdk/make/image_rom_wifi/wifi_driver/rom/lib_wifi_driver_rom.a(rom_rtw_sha256.o)
                0x000000000011ef38                wifi_rom_sha256_vector
                0x000000000011f148                wifi_rom_hmac_sha256_vector
                0x000000000011f250                wifi_rom_hmac_sha256_kdf
                0x000000000011f328                wifi_rom_sha256_prf_bits
                0x000000000011f428                wifi_rom_sha256_prf
 .wifi.rom.text
                0x000000000011f438      0x7d4 /home/weiqiang_sun/S_SDK_Repo/S_SDK_Repo_RTOS_Master_Temporary/amebagreen2_gcc_project/build/project_km4ns/asdk/make/image_rom_wifi/wifi_driver/rom/lib_wifi_driver_rom.a(rom_rtw_sha384.o)
                0x000000000011fa24                wifi_rom_hmac_sha384_vector
                0x000000000011fb30                wifi_rom_sha384_prf
 *fill*         0x000000000011fc0c        0x4 
 .wifi.rom.text
                0x000000000011fc10      0x614 /home/weiqiang_sun/S_SDK_Repo/S_SDK_Repo_RTOS_Master_Temporary/amebagreen2_gcc_project/build/project_km4ns/asdk/make/image_rom_wifi/wifi_driver/rom/lib_wifi_driver_rom.a(rom_sha1.o)
                0x000000000011fecc                rt_sha1_init
                0x000000000011ff1c                rt_sha1_update
                0x000000000011ff84                rt_sha1_finish
                0x000000000011ff94                rt_hmac_sha1
 .wifi.rom.text
                0x0000000000120224      0xb74 /home/weiqiang_sun/S_SDK_Repo/S_SDK_Repo_RTOS_Master_Temporary/amebagreen2_gcc_project/build/project_km4ns/asdk/make/image_rom_wifi/wifi_driver/rom/lib_wifi_driver_rom.a(rom_wpa_lite_part2.o)
                0x0000000000120304                wifi_rom_enc_gtk
                0x0000000000120360                wifi_rom_gen_nonce
                0x00000000001203f8                wifi_rom_wpa_key_mgmt_sae
                0x0000000000120404                wifi_rom_wpa_key_mgmt_sha256
                0x0000000000120410                wifi_rom_wpa_key_mgmt_sha384
                0x0000000000120418                wifi_rom_ap_constructEAPOL_1Of4Way
                0x0000000000120558                wifi_rom_wpa_parse_rsnxe
                0x00000000001205ac                wifi_rom_wpa_append_rsnxe
                0x00000000001205d8                wifi_rom_check_append_rsnxe
                0x000000000012062c                wifi_rom_set_playercounter
                0x0000000000120634                wifi_rom_equal_playercounter
                0x0000000000120650                wifi_rom_fill_eapol_header
                0x00000000001206ac                wifi_rom_check_playercounter
                0x00000000001206d0                wifi_rom_set_group_cipher
                0x00000000001206fc                wifi_rom_parse_group_kde
                0x0000000000120830                wifi_rom_psk_ieee80211w_kde_add
                0x0000000000120890                wifi_rom_ap_constructEAPOL_1Of2Way
                0x0000000000120a78                wifi_rom_ap_fill_keydata
                0x0000000000120b54                wifi_rom_ap_constructEAPOL_3Of4Way
 .wifi.rom.text
                0x0000000000120d98      0xe6c /home/weiqiang_sun/S_SDK_Repo/S_SDK_Repo_RTOS_Master_Temporary/amebagreen2_gcc_project/build/project_km4ns/asdk/make/image_rom_wifi/wifi_driver/rom/lib_wifi_driver_rom.a(rom_wpa_lite_psk.o)
                0x0000000000120e3c                strtopsk
                0x0000000000120efc                rom_psk_PasswordHash
                0x0000000000120f38                rom_psk_CalcGTK
                0x0000000000120ff4                rom_psk_CalcPTK
                0x000000000012114c                _ntohs_rom
                0x0000000000121154                wifi_rom_message_replaycounter_oc2li
                0x0000000000121170                wifi_rom_message_equalreplaycounter
                0x00000000001211a4                wifi_rom_message_smallerequalreplaycounter
                0x00000000001211e0                wifi_rom_message_smallerreplaycounter
                0x000000000012121c                wifi_rom_message_setreplaycounter
                0x0000000000121238                wifi_rom_inc_largeinteger
                0x0000000000121254                wifi_rom_inc_octet16_integer
                0x00000000001212c4                wifi_rom_inc_octet32_integer
                0x0000000000121330                wifi_rom_set_eapolkeyiv
                0x00000000001213c4                wifi_rom_check_mic
                0x00000000001214e4                wifi_rom_calc_mic
                0x00000000001215bc                wifi_rom_decrypt_WPA2keydata
                0x00000000001216e8                wifi_rom_decrypt_GTK
                0x00000000001217d4                wifi_rom_client_constructEAPOL_2Of4Way
                0x00000000001218e4                wifi_rom_client_constructEAPOL_4Of4Way
                0x00000000001219bc                wifi_rom_client_constructEAPOL_2Of2Way
                0x0000000000121aac                wifi_rom_client_constructEAPOL_MICof2Way
                0x0000000000121b8c                wifi_rom_eapol_check_rsne_pmkid
 .wifi.rom.text
                0x0000000000121c04     0x1198 /home/weiqiang_sun/S_SDK_Repo/S_SDK_Repo_RTOS_Master_Temporary/amebagreen2_gcc_project/build/project_km4ns/asdk/make/image_rom_wifi/wifi_driver/rom/lib_wifi_driver_rom.a(rom_wpa_lite_sae.o)
                0x00000000001220d8                wifi_rom_sae_octect_buf_alloc
                0x000000000012211c                wifi_rom_sae_octect_buf_clear
                0x0000000000122148                wifi_rom_sae_set_state
                0x00000000001221bc                wifi_rom_sae_get_rand_mask
                0x000000000012234c                wifi_rom_sae_ecc_point_invert
                0x00000000001223a0                wifi_rom_sae_clear_data
                0x00000000001223a8                wifi_rom_sae_check_group
                0x000000000012241c                wifi_rom_sae_blind_select_group
                0x0000000000122470                wifi_rom_sae_target_select_group
                0x00000000001224e4                wifi_rom_sae_derive_pt
                0x0000000000122520                wifi_rom_sae_prepare_commit
                0x00000000001226d4                wifi_rom_sae_prepare_confirm
                0x00000000001227d8                wifi_rom_sae_del_event
                0x0000000000122804                wifi_rom_sae_parse_peer_commit
                0x0000000000122b3c                wifi_rom_sae_process_peer_commit
                0x0000000000122ba0                wifi_rom_sae_check_peer_confirm
                0x0000000000122c5c                wifi_rom_sae_check_big_sync
                0x0000000000122c68                wifi_rom_sae_generate_commit_element_ecc
                0x0000000000122cc8                wifi_rom_sae_generate_commit_element_ffc
                0x0000000000122d20                wifi_rom_is_duplicate_sae_auth
 .wifi.rom.text
                0x0000000000122d9c     0x1f10 /home/weiqiang_sun/S_SDK_Repo/S_SDK_Repo_RTOS_Master_Temporary/amebagreen2_gcc_project/build/project_km4ns/asdk/make/image_rom_wifi/wifi_driver/rom/lib_wifi_driver_rom.a(rom_wpa_lite_sae_crypto.o)
                0x0000000000122fa8                wifi_rom_dump_bignum
                0x000000000012304c                wifi_rom_dump_octect_string
                0x00000000001230d0                wifi_rom_ecc_point_read_bignum
                0x0000000000123158                wifi_rom_ecc_point_write_bignum
                0x00000000001231f0                wifi_rom_dump_ecc_point
                0x0000000000123270                wifi_rom_ecc_point_read_binary
                0x00000000001232e0                wifi_rom_ecc_point_write_binary
                0x0000000000123314                wifi_rom_ecc_point_add_point
                0x0000000000123360                wifi_rom_bignum_add_mod
                0x0000000000123384                wifi_rom_bignum_mul_mod
                0x0000000000123a2c                wifi_rom_sae_memcmp
                0x0000000000123a54                wifi_rom_sae_buf_shift_right
                0x0000000000123a8c                wifi_rom_sae_crypto_ecc_init
                0x0000000000123b44                wifi_rom_sae_crypto_ecc_free
                0x0000000000123b6c                wifi_rom_sae_derive_pwe_ecc
                0x0000000000124354                wifi_rom_sae_derive_pwe_ffc
                0x0000000000124520                wifi_rom_sae_derive_pwe_from_pt
                0x000000000012468c                wifi_rom_sae_derive_k_ecc
                0x0000000000124754                wifi_rom_sae_derive_k_ffc
                0x0000000000124800                wifi_rom_sae_derive_pmk_and_kck
                0x0000000000124ae0                wifi_rom_sae_derive_pt_ecc
 .wifi.rom.text
                0x0000000000124cac        0x0 /home/weiqiang_sun/S_SDK_Repo/S_SDK_Repo_RTOS_Master_Temporary/amebagreen2_gcc_project/build/project_km4ns/asdk/make/image_rom_wifi/wifi_driver/rom/lib_wifi_driver_rom.a(rom_rtw_11d.o)
 .wifi.rom.text
                0x0000000000124cac      0x264 /home/weiqiang_sun/S_SDK_Repo/S_SDK_Repo_RTOS_Master_Temporary/amebagreen2_gcc_project/build/project_km4ns/asdk/make/image_rom_wifi/wifi_driver/rom/lib_wifi_driver_rom.a(rom_rtw_80211w.o)
                0x0000000000124cac                wifi_rom_dot11w_construct_action_frame
                0x0000000000124d70                wifi_rom_dot11w_BIP_verify
 .wifi.rom.text
                0x0000000000124f10       0x88 /home/weiqiang_sun/S_SDK_Repo/S_SDK_Repo_RTOS_Master_Temporary/amebagreen2_gcc_project/build/project_km4ns/asdk/make/image_rom_wifi/wifi_driver/rom/lib_wifi_driver_rom.a(rom_rtw_action.o)
                0x0000000000124f10                wifi_rom_para_set_for_addba
                0x0000000000124f48                wifi_rom_on_action_csa
 .wifi.rom.text
                0x0000000000124f98      0x958 /home/weiqiang_sun/S_SDK_Repo/S_SDK_Repo_RTOS_Master_Temporary/amebagreen2_gcc_project/build/project_km4ns/asdk/make/image_rom_wifi/wifi_driver/rom/lib_wifi_driver_rom.a(rom_rtw_assoc.o)
                0x0000000000124f98                wifi_rom_issue_assocreq_fill_cap
                0x0000000000125170                wifi_rom_issue_assocreq_fill_vendor_ie
                0x00000000001252b0                wifi_rom_issue_assocrsp_fill_cap
                0x00000000001254d4                wifi_rom_on_assocreq_check
                0x0000000000125868                wifi_rom_on_assocrsp_wmm
 .wifi.rom.text
                0x00000000001258f0       0x24 /home/weiqiang_sun/S_SDK_Repo/S_SDK_Repo_RTOS_Master_Temporary/amebagreen2_gcc_project/build/project_km4ns/asdk/make/image_rom_wifi/wifi_driver/rom/lib_wifi_driver_rom.a(rom_rtw_auth.o)
                0x00000000001258f0                wifi_rom_set_beacon_timeout
 .wifi.rom.text
                0x0000000000125914      0xb30 /home/weiqiang_sun/S_SDK_Repo/S_SDK_Repo_RTOS_Master_Temporary/amebagreen2_gcc_project/build/project_km4ns/asdk/make/image_rom_wifi/wifi_driver/rom/lib_wifi_driver_rom.a(rom_rtw_beacon.o)
                0x0000000000125914                wifi_rom_beacon_rate_check
                0x0000000000125980                wifi_rom_beacon_bw_check
                0x00000000001259a4                wifi_rom_beacon_ssid_check
                0x0000000000125a30                wifi_rom_beacon_encryption_check
                0x0000000000125b38                wifi_rom_beacon_info_get
                0x0000000000125c58                wifi_rom_beacon_csa_info_get
                0x0000000000125cb0                wifi_rom_ap_beacon_update_hidden_ssid
                0x0000000000125d08                wifi_rom_ap_beacon_update_bcn_tim
                0x0000000000125e28                wifi_rom_ap_beacon_update_erpinfo_ie
                0x0000000000125e88                wifi_rom_ap_beacon_add_ie
                0x0000000000125fa4                wifi_rom_ap_beacon_remove_ie
                0x0000000000126034                wifi_rom_ap_beacon_gen_ie
 .wifi.rom.text
                0x0000000000126444      0x1a4 /home/weiqiang_sun/S_SDK_Repo/S_SDK_Repo_RTOS_Master_Temporary/amebagreen2_gcc_project/build/project_km4ns/asdk/make/image_rom_wifi/wifi_driver/rom/lib_wifi_driver_rom.a(rom_rtw_chbw.o)
                0x0000000000126444                wifi_rom_get_center_ch
                0x0000000000126504                wifi_rom_get_offset_by_chbw
                0x00000000001265a8                wifi_rom_get_primary_ch
 .wifi.rom.text
                0x00000000001265e8      0x14c /home/weiqiang_sun/S_SDK_Repo/S_SDK_Repo_RTOS_Master_Temporary/amebagreen2_gcc_project/build/project_km4ns/asdk/make/image_rom_wifi/wifi_driver/rom/lib_wifi_driver_rom.a(rom_rtw_he.o)
                0x00000000001265e8                wifi_rom_he_get_highest_rate
                0x0000000000126640                wifi_rom_he_nss_to_mcsmap
                0x0000000000126690                wifi_rom_he_mcsmap_to_bitmap
 .wifi.rom.text
                0x0000000000126734      0xb10 /home/weiqiang_sun/S_SDK_Repo/S_SDK_Repo_RTOS_Master_Temporary/amebagreen2_gcc_project/build/project_km4ns/asdk/make/image_rom_wifi/wifi_driver/rom/lib_wifi_driver_rom.a(rom_rtw_ieee80211.o)
                0x0000000000126734                rtw_get_bit_value_from_ieee_value
                0x0000000000126758                rtw_is_cckrates_included
                0x0000000000126790                rtw_is_cckratesonly_included
                0x00000000001267d0                rtw_check_wireless_mode
                0x0000000000126864                rtw_set_fixed_ie
                0x0000000000126884                rtw_set_ie
                0x00000000001268b0                rtw_get_ie
                0x00000000001268ec                rtw_set_supported_rate
                0x0000000000126940                rtw_get_rateset_len
                0x0000000000126958                rtw_get_wpa_ie
                0x00000000001269fc                rtw_get_wpa2_ie
                0x0000000000126a38                rtw_get_wpa_cipher_suite
                0x0000000000126aa0                rtw_get_wpa2_cipher_suite
                0x0000000000126b18                rtw_parse_wpa_ie
                0x0000000000126bd8                rtw_parse_wpa2_ie
                0x0000000000126cc4                rtw_get_sec_ie
                0x0000000000126d74                rtw_get_wps_ie
                0x0000000000126df8                rtw_get_wps_attr
                0x0000000000126e88                rtw_get_wps_attr_content
                0x0000000000126ed0                rtw_ieee802_11_parse_elems
                0x000000000012707c                str_2char2num
                0x00000000001270fc                key_2char2num
                0x000000000012716c                convert_ip_addr
 .wifi.rom.text
                0x0000000000127244      0xb34 /home/weiqiang_sun/S_SDK_Repo/S_SDK_Repo_RTOS_Master_Temporary/amebagreen2_gcc_project/build/project_km4ns/asdk/make/image_rom_wifi/wifi_driver/rom/lib_wifi_driver_rom.a(rom_rtw_ieee80211_part2.o)
                0x0000000000127244                wifi_rom_channel_num2bitmap_index
                0x00000000001272b0                wifi_rom_channel_bitmap_index2num
                0x00000000001272dc                wifi_rom_channel_is_contained
                0x0000000000127360                wifi_rom_chset_is_chbw_valid
                0x0000000000127418                wifi_rom_get_band_type_by_channel_plan
                0x000000000012744c                wifi_rom_init_channel_set
                0x00000000001274e4                wifi_rom_update_wireless_mode
                0x000000000012755c                wifi_rom_is_ap_in_tkip
                0x00000000001275e4                wifi_rom_support_short_GI
                0x00000000001275f4                wifi_rom_fill_wlan_header
                0x0000000000127668                wifi_rom_get_wpa2_akmp_suite
                0x000000000012775c                wifi_rom_get_mgmt_group_cipher_suite
                0x00000000001277b4                wifi_rom_parse_wpa_ie_akm
                0x0000000000127854                wifi_rom_parse_sec_ie_akm_mgc
                0x0000000000127970                wifi_rom_fill_frame_content
                0x000000000012798c                wifi_rom_set_ie_ram
                0x00000000001279cc                wifi_rom_get_ie_ex
                0x0000000000127a4c                wifi_rom_parse_rsnxe
                0x0000000000127aa8                wifi_rom_ht_mcsset_to_nss
                0x0000000000127ac4                wifi_rom_append_rsnxe
                0x0000000000127af0                wifi_rom_restruct_wmm_ie
                0x0000000000127b98                wifi_rom_restruct_sec_ie
                0x0000000000127c28                wifi_rom_append_exented_cap
                0x0000000000127c9c                wifi_rom_HT_caps_handler
                0x0000000000127d00                wifi_rom_check_rsn_ie_pmkid
 .wifi.rom.text
                0x0000000000127d78      0x238 /home/weiqiang_sun/S_SDK_Repo/S_SDK_Repo_RTOS_Master_Temporary/amebagreen2_gcc_project/build/project_km4ns/asdk/make/image_rom_wifi/wifi_driver/rom/lib_wifi_driver_rom.a(rom_rtw_pmksa_cache.o)
                0x0000000000127d78                wifi_rom_pmksa_cache_encrypt_macaddr
                0x0000000000127ec4                wifi_rom_pmksa_append_pmkid
 .wifi.rom.text
                0x0000000000127fb0       0xc8 /home/weiqiang_sun/S_SDK_Repo/S_SDK_Repo_RTOS_Master_Temporary/amebagreen2_gcc_project/build/project_km4ns/asdk/make/image_rom_wifi/wifi_driver/rom/lib_wifi_driver_rom.a(rom_rtw_probe.o)
                0x0000000000127fb0                wifi_rom_set_probersp_tim_ie
                0x0000000000128028                wifi_rom_on_probereq
 .wifi.rom.text
                0x0000000000128078      0x3e8 /home/weiqiang_sun/S_SDK_Repo/S_SDK_Repo_RTOS_Master_Temporary/amebagreen2_gcc_project/build/project_km4ns/asdk/make/image_rom_wifi/wifi_driver/rom/lib_wifi_driver_rom.a(rom_rtw_psk.o)
                0x0000000000128078                wifi_rom_psk_strip_rsn_pairwise
                0x0000000000128110                wifi_rom_psk_strip_wpa_pairwise
                0x00000000001281c8                wifi_rom_psk_strip_pmkid
                0x0000000000128234                wifi_rom_psk_strip_rsn_akmp
 .wifi.rom.text
                0x0000000000128460      0x1f0 /home/weiqiang_sun/S_SDK_Repo/S_SDK_Repo_RTOS_Master_Temporary/amebagreen2_gcc_project/build/project_km4ns/asdk/make/image_rom_wifi/wifi_driver/rom/lib_wifi_driver_rom.a(rom_rtw_rate.o)
                0x0000000000128460                wifi_rom_cckrates_included
                0x00000000001284a4                wifi_rom_cckratesonly_included
                0x00000000001284ec                wifi_rom_updateBratetbl
                0x0000000000128548                wifi_rom_updateBratetbl_softap
                0x0000000000128584                wifi_rom_rate2tbl_inx
                0x000000000012861c                wifi_rom_update_mcs_rate
                0x0000000000128628                wifi_rom_get_highest_rateidx
 .wifi.rom.text
                0x0000000000128650       0xd4 /home/weiqiang_sun/S_SDK_Repo/S_SDK_Repo_RTOS_Master_Temporary/amebagreen2_gcc_project/build/project_km4ns/asdk/make/image_rom_wifi/wifi_driver/rom/lib_wifi_driver_rom.a(rom_rtw_recv.o)
                0x0000000000128650                wifi_rom_check_pn
                0x0000000000128698                wifi_rom_check_indicate_seq
                0x00000000001286e0                wifi_rom_get_wmmps_ac
 .wifi.rom.text
                0x0000000000128724      0x1f0 /home/weiqiang_sun/S_SDK_Repo/S_SDK_Repo_RTOS_Master_Temporary/amebagreen2_gcc_project/build/project_km4ns/asdk/make/image_rom_wifi/wifi_driver/rom/lib_wifi_driver_rom.a(rom_rtw_rf.o)
                0x0000000000128724                wifi_rom_get_op_chs_by_cch_bw
                0x00000000001287a0                wifi_rom_ch2freq
                0x00000000001287d4                wifi_rom_freq2ch
                0x0000000000128850                wifi_rom_chbw_to_freq_range
                0x00000000001288cc                wifi_rom_ch_to_bb_gain_sel
 .wifi.rom.text
                0x0000000000128914      0x1bc /home/weiqiang_sun/S_SDK_Repo/S_SDK_Repo_RTOS_Master_Temporary/amebagreen2_gcc_project/build/project_km4ns/asdk/make/image_rom_wifi/wifi_driver/rom/lib_wifi_driver_rom.a(rom_rtw_vht.o)
                0x0000000000128914                wifi_rom_vht_get_highest_rate
                0x0000000000128984                wifi_rom_vht_mcsmap_to_nss
                0x00000000001289e0                wifi_rom_vht_nss_to_mcsmap
                0x0000000000128a2c                wifi_rom_vht_mcsmap_to_bitmap
 .wifi.rom.text
                0x0000000000128ad0      0x418 /home/weiqiang_sun/S_SDK_Repo/S_SDK_Repo_RTOS_Master_Temporary/amebagreen2_gcc_project/build/project_km4ns/asdk/make/image_rom_wifi/wifi_driver/rom/lib_wifi_driver_rom.a(rom_rtw_ht.o)
                0x0000000000128ad0                rtw_ht_caps_handler
                0x0000000000128b18                rtw_ht_info_handler
                0x0000000000128b40                rtw_restructure_ht_ie
                0x0000000000128c1c                rtw_update_ht_cap
                0x0000000000128cf4                rtw_ap_ht_operation_update
                0x0000000000128dc0                rtw_uapsd_check_ap_support
                0x0000000000128e2c                rtw_uapsd_restruct_wmm_ie
 .wifi.rom.text
                0x0000000000128ee8       0xb8 /home/weiqiang_sun/S_SDK_Repo/S_SDK_Repo_RTOS_Master_Temporary/amebagreen2_gcc_project/build/project_km4ns/asdk/make/image_rom_wifi/wifi_driver/rom/lib_wifi_driver_rom.a(rom_rtw_network.o)
                0x0000000000128ee8                rtw_network_update_for_scan
                0x0000000000128f38                rtw_network_check_same
 .wifi.rom.text
                0x0000000000128fa0      0x2b8 /home/weiqiang_sun/S_SDK_Repo/S_SDK_Repo_RTOS_Master_Temporary/amebagreen2_gcc_project/build/project_km4ns/asdk/make/image_rom_wifi/wifi_driver/rom/lib_wifi_driver_rom.a(rom_rtw_pmksa_cache_part2.o)
                0x0000000000128fa0                rtw_pmksa_cache_entry_free
                0x0000000000128fdc                rtw_pmksa_cache_entry_remove
                0x0000000000129048                rtw_pmksa_cache_entry_add
                0x0000000000129168                rtw_pmksa_cache_entry_search
                0x0000000000129194                rtw_pmksa_cache_set_current_entry
                0x000000000012919c                rtw_pmksa_cache_get_current_entry
                0x00000000001291a4                rtw_pmksa_cache_flush
                0x000000000012920c                rtw_pmksa_cache_init
                0x0000000000129234                rtw_pmksa_cache_deinit
 .wifi.rom.text
                0x0000000000129258      0x284 /home/weiqiang_sun/S_SDK_Repo/S_SDK_Repo_RTOS_Master_Temporary/amebagreen2_gcc_project/build/project_km4ns/asdk/make/image_rom_wifi/wifi_driver/rom/lib_wifi_driver_rom.a(rom_rtw_11d_part2.o)
                0x0000000000129258                rtw_11d_get_chplan_from_country
                0x0000000000129340                rtw_11d_restructure_country_ie
                0x000000000012937c                rtw_11d_reset_info
                0x00000000001293a4                rtw_11d_process_country_ie
                0x0000000000129478                rtw_11d_country_decision_default
 .wifi.rom.text
                0x00000000001294dc      0x794 /home/weiqiang_sun/S_SDK_Repo/S_SDK_Repo_RTOS_Master_Temporary/amebagreen2_gcc_project/build/project_km4ns/asdk/make/image_rom_wifi/wifi_driver/rom/lib_wifi_driver_rom.a(rom_rtw_he_part2.o)
                0x000000000012957c                HE_caps_handler
                0x000000000012966c                HE_operation_handler
                0x00000000001296a4                HE_mu_edca_handler
                0x00000000001296ec                HE_spatial_reuse_handler
                0x0000000000129700                HE_mac_caps_update_asoc_cap
                0x00000000001297fc                HE_phy_caps_update_asoc_cap
                0x00000000001298ac                HE_supp_mcs_update_asoc_cap
                0x00000000001298b4                rtw_restructure_he_ie
                0x0000000000129b08                rtw_he_fill_htc
                0x0000000000129b24                HE_operation_update_asoc_cap
                0x0000000000129c04                HE_caps_update_asoc_cap
 .wifi.rom.text
                0x0000000000129c70      0x1b8 /home/weiqiang_sun/S_SDK_Repo/S_SDK_Repo_RTOS_Master_Temporary/amebagreen2_gcc_project/build/project_km4ns/asdk/make/image_rom_wifi/wifi_driver/rom/lib_wifi_driver_rom.a(rom_rtw_shortcut.o)
                0x0000000000129c70                rtw_recv_get_rx_sc_free_entry
                0x0000000000129cdc                rtw_get_tx_sc_free_entry
                0x0000000000129d3c                rtw_set_tx_sc_entry
 .wifi.rom.text
                0x0000000000129e28      0x390 /home/weiqiang_sun/S_SDK_Repo/S_SDK_Repo_RTOS_Master_Temporary/amebagreen2_gcc_project/build/project_km4ns/asdk/make/image_rom_wifi/wifi_driver/rom/lib_wifi_driver_rom.a(rom_rtw_setkey.o)
                0x0000000000129e28                rtw_setkey_to_cam
                0x0000000000129ff4                rtw_bss_set_key_for_wep
                0x000000000012a0bc                rtw_setkey_clear_stakey
                0x000000000012a110                rtw_setkey_set_stakey
                0x000000000012a1ac                rtw_setkey_remove_ptk
 .wifi.rom.text
                0x000000000012a1b8      0x928 /home/weiqiang_sun/S_SDK_Repo/S_SDK_Repo_RTOS_Master_Temporary/amebagreen2_gcc_project/build/project_km4ns/asdk/make/image_rom_wifi/wifi_driver/rom/lib_wifi_driver_rom.a(rom_rtw_beacon_part2.o)
                0x000000000012a1b8                rtw_on_beacon_rate_check
                0x000000000012a244                rtw_on_beacon_bw_check
                0x000000000012a2f4                rtw_on_beacon_info_update
                0x000000000012a4d0                rtw_check_mode_info_change
                0x000000000012a568                rtw_on_beacon_info_check
                0x000000000012a6e8                rtw_get_bcn_info
                0x000000000012a7b4                rtw_ap_set_parameters_from_beacon
                0x000000000012aa40                rtw_ap_update_beacon
 .wifi.rom.text
                0x000000000012aae0      0x1a8 /home/weiqiang_sun/S_SDK_Repo/S_SDK_Repo_RTOS_Master_Temporary/amebagreen2_gcc_project/build/project_km4ns/asdk/make/image_rom_wifi/wifi_driver/rom/lib_wifi_driver_rom.a(rom_rtw_sitesurvey.o)
                0x000000000012aae0                _rtw_scan_start_scanpriv_init
                0x000000000012ac28                _rtw_scan_cmd_hdl_find_next_chan
 .wifi.rom.text
                0x000000000012ac88      0x5a4 /home/weiqiang_sun/S_SDK_Repo/S_SDK_Repo_RTOS_Master_Temporary/amebagreen2_gcc_project/build/project_km4ns/asdk/make/image_rom_wifi/wifi_driver/rom/lib_wifi_driver_rom.a(rom_rtw_sitesurvey_report.o)
                0x000000000012ac88                rtw_scan_report_free_remaining_node
                0x000000000012acf8                rtw_scan_report_node_process
                0x000000000012ad98                rtw_scan_report_node_sort_and_insert
                0x000000000012ae30                _rtw_scan_report_wps
                0x000000000012af28                _rtw_scan_collect_bss_info_ieproc
                0x000000000012b104                _rtw_scan_check_security_and_rsnie
 .wifi.rom.text
                0x000000000012b22c      0x4c0 /home/weiqiang_sun/S_SDK_Repo/S_SDK_Repo_RTOS_Master_Temporary/amebagreen2_gcc_project/build/project_km4ns/asdk/make/image_rom_wifi/wifi_driver/rom/lib_wifi_driver_rom.a(rom_rtw_ap_xmit.o)
                0x000000000012b3ac                rtw_ap_enqueue_for_sleeping_sta
                0x000000000012b3c4                rtw_ap_sleeping_q_free
                0x000000000012b408                rtw_ap_sleeping_q_to_pending_q
                0x000000000012b54c                rtw_ap_stop_sta_xmit
                0x000000000012b5d0                rtw_ap_wakeup_sta_to_xmit
 .wifi.rom.text
                0x000000000012b6ec      0x5d0 /home/weiqiang_sun/S_SDK_Repo/S_SDK_Repo_RTOS_Master_Temporary/amebagreen2_gcc_project/build/project_km4ns/asdk/make/image_rom_wifi/wifi_driver/rom/lib_wifi_driver_rom.a(rom_rtw_addba.o)
                0x000000000012b6ec                rtw_on_addba_req
                0x000000000012b7a8                rtw_issue_action_ba
                0x000000000012ba00                rtw_add_ba_hdl
                0x000000000012ba90                rtw_send_delba
                0x000000000012bb6c                rtw_addbareq_cmd
                0x000000000012bbc0                rtw_issue_addbareq_cmd
                0x000000000012bc70                rtw_addba_timer_hdl
 .wifi.rom.text
                0x000000000012bcbc      0x520 /home/weiqiang_sun/S_SDK_Repo/S_SDK_Repo_RTOS_Master_Temporary/amebagreen2_gcc_project/build/project_km4ns/asdk/make/image_rom_wifi/wifi_driver/rom/lib_wifi_driver_rom.a(rom_rtw_80211w_part2.o)
                0x000000000012bcbc                rtw_dot11w_issue_action_sa_query
                0x000000000012bd6c                rtw_dot11w_on_action_sa_query
                0x000000000012be10                rtw_dot11w_BIP_verify
                0x000000000012be50                rtw_dot11w_validate_mgmt
 .wifi.rom.text
                0x000000000012c1dc      0xae0 /home/weiqiang_sun/S_SDK_Repo/S_SDK_Repo_RTOS_Master_Temporary/amebagreen2_gcc_project/build/project_km4ns/asdk/make/image_rom_wifi/wifi_driver/rom/lib_wifi_driver_rom.a(rom_rtw_auth_part2.o)
                0x000000000012c1dc                rtw_issue_deauth
                0x000000000012c284                rtw_issue_auth
                0x000000000012c554                _rtw_ap_on_auth
                0x000000000012c988                _rtw_sta_on_auth
                0x000000000012ca78                _rtw_on_deauth_frameproc
 .wifi.rom.text
                0x000000000012ccbc      0x154 /home/weiqiang_sun/S_SDK_Repo/S_SDK_Repo_RTOS_Master_Temporary/amebagreen2_gcc_project/build/project_km4ns/asdk/make/image_rom_wifi/wifi_driver/rom/lib_wifi_driver_rom.a(rom_rtw_action_part2.o)
                0x000000000012ccbc                rtw_addba_rsp_hdl
                0x000000000012cd40                rtw_addba_delba_hdl
 .wifi.rom.text
                0x000000000012ce10      0xd04 /home/weiqiang_sun/S_SDK_Repo/S_SDK_Repo_RTOS_Master_Temporary/amebagreen2_gcc_project/build/project_km4ns/asdk/make/image_rom_wifi/wifi_driver/rom/lib_wifi_driver_rom.a(rom_rtw_join.o)
                0x000000000012ce10                _rtw_joinbss_set_uapsd_default_setting
                0x000000000012ce70                _rtw_joinbss_ie_restruct
                0x000000000012d034                _rtw_joinbss_cmd
                0x000000000012d1c8                rtw_joinbss_target_network_update
                0x000000000012d310                rtw_bss_get_password_for_wep
                0x000000000012d438                rtw_joinbss_set_chanmap
                0x000000000012d4c8                _rtw_leavebss_event_indicate
                0x000000000012d550                _rtw_joinbss_cmd_hdl_ieproc
                0x000000000012d618                _rtw_joinbss_timeout_proc
                0x000000000012d760                rtw_joinbss_in_target_network
                0x000000000012d834                _rtw_joinbss_start_proc
 .wifi.rom.text
                0x000000000012db14      0x3c0 /home/weiqiang_sun/S_SDK_Repo/S_SDK_Repo_RTOS_Master_Temporary/amebagreen2_gcc_project/build/project_km4ns/asdk/make/image_rom_wifi/wifi_driver/rom/lib_wifi_driver_rom.a(rom_rtw_join_result.o)
                0x000000000012db14                rtw_joinbss_chk_done_concurrent_check_chan
                0x000000000012dd4c                rtw_joinbss_chk_done_concurrent_check_5g
 .wifi.rom.text
                0x000000000012ded4     0x1120 /home/weiqiang_sun/S_SDK_Repo/S_SDK_Repo_RTOS_Master_Temporary/amebagreen2_gcc_project/build/project_km4ns/asdk/make/image_rom_wifi/wifi_driver/rom/lib_wifi_driver_rom.a(rom_rtw_assoc_part2.o)
                0x000000000012ded4                _rtw_sta_issue_assocreq_validcheck
                0x000000000012df84                _rtw_sta_issue_assocreq_htproc
                0x000000000012e070                _rtw_sta_issue_assocreq_frameproc
                0x000000000012e4ac                _rtw_ap_issue_assocrsp
                0x000000000012e5e8                _rtw_sta_on_assocrsp_frameproc
                0x000000000012e8fc                _rtw_ap_on_disassoc
                0x000000000012e9a0                _rtw_sta_on_disassoc
                0x000000000012eae0                rtw_assoc_resources_free
                0x000000000012ebbc                rtw_sta_on_assocrsp_wmm
                0x000000000012ec18                _rtw_ap_on_assocreq_frameproc
                0x000000000012eed0                _rtw_ap_on_assocreq_getaid_and_setcam
                0x000000000012ef5c                _rtw_ap_on_assocreq_asoc_list
 .wifi.rom.text
                0x000000000012eff4      0xec0 /home/weiqiang_sun/S_SDK_Repo/S_SDK_Repo_RTOS_Master_Temporary/amebagreen2_gcc_project/build/project_km4ns/asdk/make/image_rom_wifi/wifi_driver/rom/lib_wifi_driver_rom.a(rom_rtw_security_part2.o)
                0x000000000012eff4                rtw_security_method_get_rsn_ie_for_11w
                0x000000000012f190                rtw_security_method_set_from_ie_for_joinbss
                0x000000000012f404                rtw_security_method_get_from_ie_for_joinbss
                0x000000000012f7d4                rtw_security_method_set_from_usr_for_joinbss
                0x000000000012fa08                rtw_security_method_get_for_scan
                0x000000000012fbd8                rtw_security_method_set_from_ie_for_ap
                0x000000000012fcb0                rtw_security_method_set_from_usr_for_ap
 .wifi.rom.text
                0x000000000012feb4      0x324 /home/weiqiang_sun/S_SDK_Repo/S_SDK_Repo_RTOS_Master_Temporary/amebagreen2_gcc_project/build/project_km4ns/asdk/make/image_rom_wifi/wifi_driver/rom/lib_wifi_driver_rom.a(rom_rtw_vht_part2.o)
                0x000000000012feb4                rtw_vht_use_default_setting
                0x000000000012ff18                rtw_process_vht_op_mode_notify
                0x000000000012ffa4                rtw_build_vht_op_mode_notify_ie
                0x000000000012fffc                rtw_build_vht_cap_ie
                0x0000000000130124                rtw_restructure_vht_ie
 .wifi.rom.text
                0x00000000001301d8     0x1298 /home/weiqiang_sun/S_SDK_Repo/S_SDK_Repo_RTOS_Master_Temporary/amebagreen2_gcc_project/build/project_km4ns/asdk/make/image_rom_wifi/wifi_driver/rom/lib_wifi_driver_rom.a(rom_rtw_xmit.o)
                0x00000000001301d8                rtw_xmit_priv_free
                0x0000000000130238                rtw_xmit_open_pktfile
                0x000000000013024c                rtw_xmit_read_pktfile
                0x000000000013027c                rtw_xmit_update_attrib_qos_acm
                0x00000000001302dc                rtw_xmit_update_attrib_set_qos
                0x0000000000130390                rtw_xmit_pending_queue_check_all
                0x00000000001303ac                rtw_xmit_pending_queue_check
                0x00000000001303b4                rtw_xmit_put_snap
                0x00000000001303e8                rtw_xmitframe_alloc
                0x000000000013046c                rtw_xmitframe_free
                0x00000000001304e4                rtw_xmit_priv_init
                0x0000000000130578                rtw_xmit_update_attrib_phy_info
                0x000000000013064c                rtw_xmit_update_attrib_sec_info
                0x0000000000130790                rtw_xmit_enc_tkip_addmic
                0x000000000013088c                rtw_xmit_update_attrib_vcs_info
                0x00000000001308e0                rtw_xmit_count_stats
                0x0000000000130960                rtw_xmit_mgntframe
                0x0000000000130a1c                rtw_xmit_nulldata
                0x0000000000130aec                rtw_xmit_qos_nulldata
                0x0000000000130c18                rtw_xmit_cts2self
                0x0000000000130cbc                rtw_xmit_enc_software
                0x0000000000130df0                rtw_xmit_make_wlanhdr
                0x0000000000131094                rtw_xmit_update_attrib_raw
 .wifi.rom.text
                0x0000000000131470      0xf14 /home/weiqiang_sun/S_SDK_Repo/S_SDK_Repo_RTOS_Master_Temporary/amebagreen2_gcc_project/build/project_km4ns/asdk/make/image_rom_wifi/wifi_driver/rom/lib_wifi_driver_rom.a(rom_rtw_recv_part2.o)
                0x0000000000131470                rtw_recv_init_priv
                0x000000000013151c                rtw_recv_free_priv
                0x000000000013154c                rtw_recv_get_recvframe_data
                0x0000000000131554                rtw_recv_recvframe_pull_tail
                0x0000000000131574                rtw_recv_recvframe_pull
                0x0000000000131594                rtw_recv_recvframe_put
                0x00000000001315b4                rtw_recv_free_frame
                0x0000000000131698                rtw_recv_alloc_frame
                0x00000000001316f8                rtw_recv_free_frame_queue
                0x000000000013171c                rtw_recv_frame_chkmic
                0x0000000000131818                rtw_recv_frame_chkpn
                0x0000000000131898                rtw_recv_count_rx_stats
                0x00000000001318f4                rtw_recv_sta2sta_data_frame
                0x0000000000131a28                rtw_recv_ap2sta_data_frame
                0x0000000000131b7c                rtw_recv_sta2ap_data_frame
                0x0000000000131c3c                rtw_recv_validate_ctrl_frame
                0x0000000000131d0c                rtw_recv_validate_data_frame
                0x0000000000131fb4                rtw_recv_decryptor
                0x0000000000132194                rtw_recv_validate_frame
                0x0000000000132294                rtw_recv_func_prehandle
                0x00000000001322c0                rtw_recv_promisc
 .wifi.rom.text
                0x0000000000132384      0x334 /home/weiqiang_sun/S_SDK_Repo/S_SDK_Repo_RTOS_Master_Temporary/amebagreen2_gcc_project/build/project_km4ns/asdk/make/image_rom_wifi/wifi_driver/rom/lib_wifi_driver_rom.a(rom_rtw_recv_reorder.o)
                0x0000000000132384                rtw_recv_reorder_timer_hdl
                0x00000000001323dc                rtw_recv_reorder_dequeue
                0x0000000000132454                rtw_recv_reorder
                0x000000000013252c                rtw_recv_reorder_cmd_hdl
                0x00000000001325b4                rtw_recv_reorder_alloc
                0x000000000013261c                rtw_recv_reorder_free
 .wifi.rom.text
                0x00000000001326b8       0x90 /home/weiqiang_sun/S_SDK_Repo/S_SDK_Repo_RTOS_Master_Temporary/amebagreen2_gcc_project/build/project_km4ns/asdk/make/image_rom_wifi/wifi_driver/rom/lib_wifi_driver_rom.a(rom_rtw_mgnt.o)
                0x00000000001326b8                rtw_mgntframe_alloc
                0x0000000000132700                rtw_mgntframe_attrib_update
 .wifi.rom.text
                0x0000000000132748      0x1cc /home/weiqiang_sun/S_SDK_Repo/S_SDK_Repo_RTOS_Master_Temporary/amebagreen2_gcc_project/build/project_km4ns/asdk/make/image_rom_wifi/wifi_driver/rom/lib_wifi_driver_rom.a(rom_rtw_state.o)
                0x0000000000132748                rtw_state_set_ap_client_auth_ongoing
                0x0000000000132750                rtw_state_set_ap_client_auth_success
                0x0000000000132758                rtw_state_set_ap_client_assoc_success
                0x0000000000132760                rtw_state_reset_ap_client_state
                0x0000000000132768                rtw_state_check_ap_client_auth_ongoing
                0x0000000000132778                rtw_state_check_ap_client_auth_success
                0x0000000000132788                rtw_state_check_ap_client_assoc_success
                0x0000000000132798                rtw_check_sta_associated_to_ap
                0x00000000001327b0                rtw_check_sta_linking
                0x00000000001327d0                rtw_state_set_join_prepare
                0x00000000001327e8                rtw_state_set_join_doing
                0x0000000000132800                rtw_state_set_auth_doing
                0x0000000000132820                rtw_state_set_assoc_doing
                0x0000000000132840                rtw_state_set_assoc_success
                0x0000000000132860                rtw_state_check_sta_no_link
                0x000000000013287c                rtw_state_check_sta_prepare_join
                0x0000000000132894                rtw_state_check_sta_prepare_auth
                0x00000000001328ac                rtw_state_check_sta_auth_doing
                0x00000000001328c4                rtw_state_check_sta_assoc_doing
                0x00000000001328dc                rtw_state_set_sitesurvey_doing
                0x00000000001328f0                rtw_check_under_sitesurvey
                0x0000000000132900                rtw_state_reset
 .wifi.rom.text
                0x0000000000132914      0x2e0 /home/weiqiang_sun/S_SDK_Repo/S_SDK_Repo_RTOS_Master_Temporary/amebagreen2_gcc_project/build/project_km4ns/asdk/make/image_rom_wifi/wifi_driver/rom/lib_wifi_driver_rom.a(rom_rtw_sta_mgt.o)
                0x0000000000132914                rtw_sta_reset_stats
                0x000000000013292c                rtw_update_stainfo_ppe_g6
                0x000000000013299c                rtw_ap_update_asoc_cap_g6
                0x00000000001329f0                rtw_sta_update_asoc_cap_g6
                0x0000000000132a64                rtw_update_sta_info
                0x0000000000132ba8                rtw_sta_update_rateset
                0x0000000000132bdc                rtw_ap_get_assoc_sta_num
 .wifi.rom.text
                0x0000000000132bf4      0xae4 /home/weiqiang_sun/S_SDK_Repo/S_SDK_Repo_RTOS_Master_Temporary/amebagreen2_gcc_project/build/project_km4ns/asdk/make/image_rom_wifi/wifi_driver/rom/lib_wifi_driver_rom.a(rom_rtw_ap.o)
                0x0000000000132bf4                rtw_ap_init_mlme_info
                0x0000000000132c60                rtw_ap_update_bmc_sta
                0x0000000000132d5c                rtw_ap_associated_clients_update
                0x0000000000132dc8                rtw_ap_sta_info_update
                0x0000000000132f74                rtw_ap_bss_cap_update_on_sta_join
                0x00000000001331b4                rtw_ap_bss_cap_update_on_sta_leave
                0x0000000000133368                rtw_ap_deauth_and_free_sta
                0x0000000000133450                rtw_ap_expire_timeout_chk
                0x000000000013365c                rtw_ap_deauth_asoc_list
 .wifi.rom.text
                0x00000000001336d8      0x1a0 /home/weiqiang_sun/S_SDK_Repo/S_SDK_Repo_RTOS_Master_Temporary/amebagreen2_gcc_project/build/project_km4ns/asdk/make/image_rom_wifi/wifi_driver/rom/lib_wifi_driver_rom.a(rom_rtw_skbuff.o)
                0x00000000001336d8                get_buf_from_poll
                0x0000000000133700                release_buf_to_poll
                0x000000000013371c                init_skb_pool
                0x0000000000133804                deinit_skb_pool
                0x0000000000133830                skb_reserve
                0x0000000000133840                skb_assign_buf
                0x000000000013384c                skb_tail_pointer
                0x0000000000133850                skb_end_pointer
                0x0000000000133854                skb_set_tail_pointer
                0x000000000013385c                skb_push
 .wifi.rom.text
                0x0000000000133878      0x3f0 /home/weiqiang_sun/S_SDK_Repo/S_SDK_Repo_RTOS_Master_Temporary/amebagreen2_gcc_project/build/project_km4ns/asdk/make/image_rom_wifi/wifi_driver/rom/lib_wifi_driver_rom.a(rom_hal_debug.o)
                0x0000000000133878                _rom_wifi_hal_debug_dump
                0x00000000001339f4                rom_wifi_hal_dbg_regu
                0x0000000000133b10                rom_wifi_hal_dbg_os_static
                0x0000000000133be0                rom_wifi_hal_dbg_wpa_mode
                0x0000000000133c3c                rom_wifi_hal_dbg_read_mac_reg
 .wifi.rom.text
                0x0000000000133c68      0x70c /home/weiqiang_sun/S_SDK_Repo/S_SDK_Repo_RTOS_Master_Temporary/amebagreen2_gcc_project/build/project_km4ns/asdk/make/image_rom_wifi/wifi_driver/rom/lib_wifi_driver_rom.a(rom_hal_h2c.o)
                0x0000000000133c68                wifi_hal_rsvpage_construct_mgnt
                0x0000000000133d14                wifi_hal_rsvpage_construct_pspoll
                0x0000000000133d60                wifi_hal_rsvpage_construct_null
                0x0000000000133e74                wifi_hal_rsvpage_construct_arp_response
                0x00000000001340ec                wifi_hal_rsvpage_construct_null_bt
                0x00000000001341d4                wifi_hal_h2c_set_media_status
                0x0000000000134210                wifi_hal_h2c_keep_alive_cmd
                0x0000000000134240                wifi_hal_h2c_wowlan_ctrl_cmd
                0x000000000013428c                wifi_hal_h2c_twt_param
 .wifi.rom.text
                0x0000000000134374      0x194 /home/weiqiang_sun/S_SDK_Repo/S_SDK_Repo_RTOS_Master_Temporary/amebagreen2_gcc_project/build/project_km4ns/asdk/make/image_rom_wifi/wifi_driver/rom/lib_wifi_driver_rom.a(rom_hal_h2c_g1.o)
                0x0000000000134374                wifi_hal_h2c_down
                0x00000000001343a8                wifi_hal_h2c_fill_cmd
                0x00000000001344bc                wifi_hal_rsvpage_fill_txff
                0x00000000001344e8                wifi_hal_h2c_set_rsvpage_cmd
 .wifi.rom.text
                0x0000000000134508      0x7c8 /home/weiqiang_sun/S_SDK_Repo/S_SDK_Repo_RTOS_Master_Temporary/amebagreen2_gcc_project/build/project_km4ns/asdk/make/image_rom_wifi/wifi_driver/rom/lib_wifi_driver_rom.a(rom_hal_recv.o)
                0x0000000000134508                wifi_hal_clear_amsdu_priv
                0x000000000013452c                wifi_hal_rx_amsdu
                0x0000000000134a9c                wifi_hal_rx_ring_init
                0x0000000000134c38                wifi_hal_rx_ring_free
                0x0000000000134c6c                wifi_hal_rx_ring_reset
                0x0000000000134c7c                wifi_hal_rx_filter
 .wifi.rom.text
                0x0000000000134cd0        0x0 /home/weiqiang_sun/S_SDK_Repo/S_SDK_Repo_RTOS_Master_Temporary/amebagreen2_gcc_project/build/project_km4ns/asdk/make/image_rom_wifi/wifi_driver/rom/lib_wifi_driver_rom.a(rom_hal_structs.o)
 .wifi.rom.text
                0x0000000000134cd0      0x818 /home/weiqiang_sun/S_SDK_Repo/S_SDK_Repo_RTOS_Master_Temporary/amebagreen2_gcc_project/build/project_km4ns/asdk/make/image_rom_wifi/wifi_driver/rom/lib_wifi_driver_rom.a(rom_hal_xmit.o)
                0x0000000000134cd0                wifi_hal_pending_queue_free
                0x0000000000134d30                wifi_hal_polling_tx_done
                0x0000000000134d90                rtw_txframes_pending
                0x0000000000134dac                wifi_hal_xmitframe_dump
                0x0000000000134ff4                wifi_hal_raw_xmitframe_coalesce
                0x0000000000135088                rtw_mgnt_80211w_sw_encrypt
                0x000000000013515c                wifi_hal_xmitframe_coalesce
 .wifi.rom.text
                0x00000000001354e8      0x250 /home/weiqiang_sun/S_SDK_Repo/S_SDK_Repo_RTOS_Master_Temporary/amebagreen2_gcc_project/build/project_km4ns/asdk/make/image_rom_wifi/wifi_driver/rom/lib_wifi_driver_rom.a(rom_hal_xmit_g1.o)
                0x00000000001354e8                wifi_hal_tx_ring_init_queue
                0x000000000013552c                wifi_hal_tx_ring_init
                0x0000000000135568                wifi_hal_tx_ring_free
                0x00000000001355d0                wifi_hal_tx_ring_reset
                0x0000000000135660                wifi_hal_txbuf_check
                0x00000000001356c0                wifi_hal_txbd_enough_check
                0x00000000001356e4                wifi_hal_txbd_enough_check_all
 .wifi.rom.text
                0x0000000000135738      0x2ec /home/weiqiang_sun/S_SDK_Repo/S_SDK_Repo_RTOS_Master_Temporary/amebagreen2_gcc_project/build/project_km4ns/asdk/make/image_rom_wifi/wifi_driver/rom/lib_wifi_driver_rom.a(rom_wifi_hal_ax.o)
                0x0000000000135738                ROM_WIFI_AX_BSS_COLOR_SET
                0x000000000013576c                ROM_WIFI_AX_SET_ULOFDMA_RESP_NOMINAL_PAD
                0x00000000001357a8                ROM_WIFI_AX_MUEDCA_Para
                0x00000000001357d8                ROM_WIFI_AX_MBSSID_Cfg
                0x0000000000135840                ROM_WIFI_AX_SpecialReuse_Cfg
                0x0000000000135978                ROM_WIFI_AX_SET_MAC_AID
                0x0000000000135998                ROM_WIFI_AX_GET_MUDECA_PARAM
 .wifi.rom.text
                0x0000000000135a24       0xa4 /home/weiqiang_sun/S_SDK_Repo/S_SDK_Repo_RTOS_Master_Temporary/amebagreen2_gcc_project/build/project_km4ns/asdk/make/image_rom_wifi/wifi_driver/rom/lib_wifi_driver_rom.a(rom_wifi_hal_bcn.o)
                0x0000000000135a24                ROM_WIFI_BCN_FUNC
                0x0000000000135a50                ROM_WIFI_BCN_Tx_Ctrl
                0x0000000000135a5c                ROM_WIFI_BCN_Interval
                0x0000000000135a90                ROM_WIFI_BCN_FUNC_Enable
                0x0000000000135aa4                ROM_WIFI_BCN_VALID
 .wifi.rom.text
                0x0000000000135ac8      0x83c /home/weiqiang_sun/S_SDK_Repo/S_SDK_Repo_RTOS_Master_Temporary/amebagreen2_gcc_project/build/project_km4ns/asdk/make/image_rom_wifi/wifi_driver/rom/lib_wifi_driver_rom.a(rom_wifi_hal_debug.o)
                0x0000000000135ac8                rom_wifi_hal_dbg_mac_reg_dump
                0x0000000000135b58                rom_wifi_hal_dbg_bb_reg_dump
                0x0000000000135cd8                _rom_wifi_hal_get_rf_addr
                0x0000000000135d20                _rom_wifi_hal_write_rf_reg
                0x0000000000135d34                rom_wifi_hal_dbg_rf_reg_dump
                0x0000000000135da8                rom_wifi_hal_dbg_read_bb_reg
                0x0000000000135dd8                rom_wifi_hal_dbg_no_beacon
                0x0000000000135ed4                rom_wifi_hal_dbg_rx_cnt
                0x0000000000136128                rom_wifi_hal_dbg_tx_cnt
                0x000000000013628c                rom_wifi_hal_dbg_rxff
                0x00000000001362c8                rom_wifi_hal_dbg_txff
 .wifi.rom.text
                0x0000000000136304      0x5bc /home/weiqiang_sun/S_SDK_Repo/S_SDK_Repo_RTOS_Master_Temporary/amebagreen2_gcc_project/build/project_km4ns/asdk/make/image_rom_wifi/wifi_driver/rom/lib_wifi_driver_rom.a(rom_wifi_hal_init.o)
                0x0000000000136304                ROM_WIFI_InitLLTTable
                0x000000000013635c                ROM_WIFI_INIT_MACADDR_SET
                0x0000000000136398                ROM_WIFI_INIT_BeaconParameters
                0x00000000001363c8                ROM_WIFI_INIT_ReadChipVersion
                0x00000000001363dc                ROM_WIFI_Init_RESP_RATE
                0x0000000000136418                ROM_WIFI_InitTxBufferBoundary
                0x0000000000136448                ROM_WIFI_InitNormalChipRegPriority
                0x00000000001364a0                ROM_WIFI_InitPageBoundary
                0x00000000001364ac                ROM_WIFI_InitNetworkType
                0x00000000001364e4                ROM_WIFI_InitRCR
                0x0000000000136524                ROM_WIFI_InitAdaptiveCtrl
                0x000000000013656c                ROM_WIFI_InitSIFS
                0x00000000001365bc                ROM_WIFI_InitEDCA
                0x00000000001365d4                ROM_WIFI_InitRateFallback
                0x00000000001365ec                ROM_WIFI_InitRetryFunction
                0x0000000000136614                ROM_WIFI_InitBurstPktLen
                0x0000000000136620                ROM_WIFI_InitMacClk
                0x00000000001366dc                ROM_WIFI_Init32kClk
                0x00000000001366f8                ROM_WIFI_InitLxDma
                0x000000000013682c                ROM_WIFI_InitQueueReservedPage
                0x0000000000136858                ROM_WIFI_ENABLE_BB_RF
                0x0000000000136870                ROM_WIFI_DISABLE_MAC_CG
 .wifi.rom.text
                0x00000000001368c0       0x40 /home/weiqiang_sun/S_SDK_Repo/S_SDK_Repo_RTOS_Master_Temporary/amebagreen2_gcc_project/build/project_km4ns/asdk/make/image_rom_wifi/wifi_driver/rom/lib_wifi_driver_rom.a(rom_wifi_hal_io.o)
                0x00000000001368c0                rtw_read8
                0x00000000001368c8                rtw_read16
                0x00000000001368d4                rtw_read32
                0x00000000001368dc                rtw_write8
                0x00000000001368e8                rtw_write16
                0x00000000001368f4                rtw_write32
 .wifi.rom.text
                0x0000000000136900      0x688 /home/weiqiang_sun/S_SDK_Repo/S_SDK_Repo_RTOS_Master_Temporary/amebagreen2_gcc_project/build/project_km4ns/asdk/make/image_rom_wifi/wifi_driver/rom/lib_wifi_driver_rom.a(rom_wifi_hal_media_access.o)
                0x0000000000136900                ROM_WIFI_DISCONNECT
                0x0000000000136930                ROM_WIFI_BSSID_SET
                0x000000000013696c                ROM_WIFI_SetMSR
                0x0000000000136990                ROM_WIFI_ACM_CTRL
                0x00000000001369c0                ROM_WIFI_PHY_STATUS_CFG
                0x00000000001369dc                ROM_WIFI_SET_APMODE
                0x0000000000136b54                ROM_WIFI_UPDATE_Slottime
                0x0000000000136bd4                ROM_WIFI_Set_TXOP_Thres
                0x0000000000136c48                ROM_WIFI_SET_CCA
                0x0000000000136c4c                ROM_WIFI_SET_EDCCA
                0x0000000000136c50                ROM_WIFI_Set_AC_Param
                0x0000000000136c88                ROM_WIFI_Set_MLME_JOIN
                0x0000000000136dc0                ROM_WIFI_INIT_ADDR_CAM
                0x0000000000136df8                ROM_WIFI_ADDR_CAM_ENTRY_VALID
                0x0000000000136e28                ROM_WIFI_Set_MLME_Sitesurvey
                0x0000000000136f5c                ROM_WIFI_PORT_EN_CTRL
 .wifi.rom.text
                0x0000000000136f88      0x43c /home/weiqiang_sun/S_SDK_Repo/S_SDK_Repo_RTOS_Master_Temporary/amebagreen2_gcc_project/build/project_km4ns/asdk/make/image_rom_wifi/wifi_driver/rom/lib_wifi_driver_rom.a(rom_wifi_hal_misc.o)
                0x0000000000136f88                ROM_WIFI_32K_Cmd
                0x0000000000137054                ROM_WIFI_TX_PAUSE_SET
                0x00000000001370d8                ROM_WIFI_FIFO_CLEARN_UP
                0x0000000000137170                ROM_WIFI_CHECK_TXBUF
                0x00000000001371cc                ROM_WIFI_CONFIG_CSI
                0x0000000000137288                ROM_WIFI_IMR_UPDATE
                0x00000000001372f4                ROM_WIFI_ICV_CHECK_CFG
                0x0000000000137314                ROM_WIFI_CTRL_PKT_RPT
                0x0000000000137334                ROM_WIFI_SET_MAX_AGG_NUM
                0x0000000000137350                ROM_WIFI_GET_MAX_AGG_NUM
                0x0000000000137360                ROM_WIFI_High_Queue_Empty_Check
                0x0000000000137370                ROM_WIFI_GET_TXBUF_PKT_NUM
                0x0000000000137374                ROM_WIFI_MAC_CCK_CHECK
                0x0000000000137398                ROM_WIFI_RX_COND_SET
                0x00000000001373b4                ROM_WIFI_RX_COND_GET
 .wifi.rom.text
                0x00000000001373c4      0x330 /home/weiqiang_sun/S_SDK_Repo/S_SDK_Repo_RTOS_Master_Temporary/amebagreen2_gcc_project/build/project_km4ns/asdk/make/image_rom_wifi/wifi_driver/rom/lib_wifi_driver_rom.a(rom_wifi_hal_rate.o)
                0x00000000001373c4                ROM_WIFI_BRate_Get
                0x000000000013759c                ROM_WIFI_BRate_Set
                0x00000000001375dc                ROM_WIFI_MRateToHwRate
                0x00000000001376ac                ROM_WIFI_HwRateToMRate
 .wifi.rom.text
                0x00000000001376f4      0x1f0 /home/weiqiang_sun/S_SDK_Repo/S_SDK_Repo_RTOS_Master_Temporary/amebagreen2_gcc_project/build/project_km4ns/asdk/make/image_rom_wifi/wifi_driver/rom/lib_wifi_driver_rom.a(rom_wifi_hal_secure.o)
                0x00000000001376f4                ROM_WIFI_CAM_WRITE
                0x0000000000137768                ROM_WIFI_CAM_READ
                0x0000000000137834                ROM_WIFI_SEC_CFG
                0x0000000000137850                ROM_WIFI_CAM_WriteSppAmsduValid
                0x0000000000137860                ROM_WIFI_CAM_Entry_Clear
                0x0000000000137898                ROM_WIFI_CAM_FLUSH_ALL
 .wifi.rom.text
                0x00000000001378e4      0x170 /home/weiqiang_sun/S_SDK_Repo/S_SDK_Repo_RTOS_Master_Temporary/amebagreen2_gcc_project/build/project_km4ns/asdk/make/image_rom_wifi/wifi_driver/rom/lib_wifi_driver_rom.a(rom_wifi_hal_tsf.o)
                0x00000000001378e4                ROM_WIFI_TSF_SET
                0x0000000000137984                ROM_WIFI_TSF_TIMER0_SOURCE_CFG
                0x0000000000137998                ROM_WIFI_TSF_FREERUN_CFG
                0x00000000001379b8                ROM_WIFI_TSF_GetByPort
                0x0000000000137a04                ROM_WIFI_TSF_GetFreeRun
                0x0000000000137a14                ROM_WIFI_TSF_Sync
                0x0000000000137a40                ROM_WIFI_TSF_Sync_P1_From_P0
 .wifi.rom.text
                0x0000000000137a54      0x214 /home/weiqiang_sun/S_SDK_Repo/S_SDK_Repo_RTOS_Master_Temporary/amebagreen2_gcc_project/build/project_km4ns/asdk/make/image_rom_wifi/wifi_driver/rom/lib_wifi_driver_rom.a(rom_wifi_hal_txdesc.o)
                0x0000000000137a54                ROM_WIFI_TXDESC_BWMapping
                0x0000000000137a7c                ROM_WIFI_TXDESC_SCMapping
                0x0000000000137ac0                ROM_WIFI_TXDESC_FillSectype
                0x0000000000137af0                ROM_WIFI_TXDESC_FillFake
                0x0000000000137be0                ROM_WIFI_TXDESC_Get_BufAddr
                0x0000000000137bf4                ROM_WIFI_TXDESC_FillVCS
 .wifi.rom.text
                0x0000000000137c68      0x190 /home/weiqiang_sun/S_SDK_Repo/S_SDK_Repo_RTOS_Master_Temporary/amebagreen2_gcc_project/build/project_km4ns/asdk/make/image_rom_wifi/wifi_driver/rom/lib_wifi_driver_rom.a(rom_wifi_hal_rxdesc.o)
                0x0000000000137c68                ROM_WIFI_HAL_RXDESC_Percentage2dbm
                0x0000000000137c6c                ROM_WIFI_HAL_RXDESC_Power2strength
                0x0000000000137c88                ROM_WIFI_HAL_RXDESC_ProcessSignal
                0x0000000000137cb0                wifi_hal_rxdesc_query
 .wifi.rom.text
                0x0000000000137df8       0x68 /home/weiqiang_sun/S_SDK_Repo/S_SDK_Repo_RTOS_Master_Temporary/amebagreen2_gcc_project/build/project_km4ns/asdk/make/image_rom_wifi/wifi_driver/rom/lib_wifi_driver_rom.a(rom_rtw_queue.o)
                0x0000000000137df8                rtw_init_listhead
                0x0000000000137e00                rtw_is_list_empty
                0x0000000000137e0c                rtw_list_insert_head
                0x0000000000137e18                rtw_list_insert_tail
                0x0000000000137e24                rtw_list_delete
                0x0000000000137e34                rtw_init_queue
                0x0000000000137e48                rtw_queue_empty
                0x0000000000137e54                rtw_end_of_queue_search
 .wifi.rom.text
                0x0000000000137e60        0x0 /home/weiqiang_sun/S_SDK_Repo/S_SDK_Repo_RTOS_Master_Temporary/amebagreen2_gcc_project/build/project_km4ns/asdk/make/image_rom_wifi/wifi_driver/rom/lib_wifi_driver_rom.a(rom_hal_rom_to_flash.o)
 *(.wifi.rom.sramdram.only.text*)
 .wifi.rom.sramdram.only.text
                0x0000000000137e60      0x564 /home/weiqiang_sun/S_SDK_Repo/S_SDK_Repo_RTOS_Master_Temporary/amebagreen2_gcc_project/build/project_km4ns/asdk/make/image_rom_wifi/wifi_driver/rom/lib_wifi_driver_rom.a(rom_rtw_shortcut.o)
                0x0000000000137e60                rtw_recv_get_rx_sc_index
                0x0000000000137e90                rtw_recv_indicatepkt_sc
                0x0000000000138008                rtw_recv_check_rx_shortcut_path
                0x000000000013819c                rtw_get_tx_sc_index
                0x00000000001381c4                rtw_xmit_entry_sc
 .wifi.rom.sramdram.only.text
                0x00000000001383c4       0x90 /home/weiqiang_sun/S_SDK_Repo/S_SDK_Repo_RTOS_Master_Temporary/amebagreen2_gcc_project/build/project_km4ns/asdk/make/image_rom_wifi/wifi_driver/rom/lib_wifi_driver_rom.a(rom_hal_recv.o)
                0x00000000001383c4                wifi_hal_check_rxtg
                0x0000000000138428                wifi_hal_check_rxdesc_remain
 .wifi.rom.sramdram.only.text
                0x0000000000138454      0x7e0 /home/weiqiang_sun/S_SDK_Repo/S_SDK_Repo_RTOS_Master_Temporary/amebagreen2_gcc_project/build/project_km4ns/asdk/make/image_rom_wifi/wifi_driver/rom/lib_wifi_driver_rom.a(rom_hal_xmit.o)
                0x0000000000138454                wifi_hal_hwqueue_get
                0x0000000000138468                wifi_hal_tx_ring_skb_enqueue
                0x0000000000138480                wifi_hal_tx_ring_skb_dequeue
                0x00000000001384c4                wifi_hal_pending_q_enqueue
                0x0000000000138504                wifi_hal_pending_q_resume
                0x00000000001385b0                wifi_hal_xmitframe_dump_sc_filldesc
 .wifi.rom.sramdram.only.text
                0x0000000000138c34      0x258 /home/weiqiang_sun/S_SDK_Repo/S_SDK_Repo_RTOS_Master_Temporary/amebagreen2_gcc_project/build/project_km4ns/asdk/make/image_rom_wifi/wifi_driver/rom/lib_wifi_driver_rom.a(rom_hal_xmit_g1.o)
                0x0000000000138c34                wifi_hal_txbd_set
 *(.wifi.rom.rodata*)
 .wifi.rom.rodata.str1.4
                0x0000000000138e8c       0x45 /home/weiqiang_sun/S_SDK_Repo/S_SDK_Repo_RTOS_Master_Temporary/amebagreen2_gcc_project/build/project_km4ns/asdk/make/image_rom_wifi/wifi_driver/rom/lib_wifi_driver_rom.a(rom_aes.o)
 *fill*         0x0000000000138ed1        0x3 
 .wifi.rom.rodata
                0x0000000000138ed4     0x3828 /home/weiqiang_sun/S_SDK_Repo/S_SDK_Repo_RTOS_Master_Temporary/amebagreen2_gcc_project/build/project_km4ns/asdk/make/image_rom_wifi/wifi_driver/rom/lib_wifi_driver_rom.a(rom_aes.o)
 .wifi.rom.rodata
                0x000000000013c6fc      0x400 /home/weiqiang_sun/S_SDK_Repo/S_SDK_Repo_RTOS_Master_Temporary/amebagreen2_gcc_project/build/project_km4ns/asdk/make/image_rom_wifi/wifi_driver/rom/lib_wifi_driver_rom.a(rom_arc4.o)
 .wifi.rom.rodata
                0x000000000013cafc       0x40 /home/weiqiang_sun/S_SDK_Repo/S_SDK_Repo_RTOS_Master_Temporary/amebagreen2_gcc_project/build/project_km4ns/asdk/make/image_rom_wifi/wifi_driver/rom/lib_wifi_driver_rom.a(rom_md5.o)
 .wifi.rom.rodata
                0x000000000013cb3c     0x210d /home/weiqiang_sun/S_SDK_Repo/S_SDK_Repo_RTOS_Master_Temporary/amebagreen2_gcc_project/build/project_km4ns/asdk/make/image_rom_wifi/wifi_driver/rom/lib_wifi_driver_rom.a(rom_rtw_dh_groups.o)
                0x000000000013cb3c                dh_groups
                0x000000000013cc9c                dh_group24_order
                0x000000000013ccbc                dh_group24_prime
                0x000000000013cdbc                dh_group24_generator
                0x000000000013cebc                dh_group23_order
                0x000000000013ced8                dh_group23_prime
                0x000000000013cfd8                dh_group23_generator
                0x000000000013d0d8                dh_group22_order
                0x000000000013d0ec                dh_group22_prime
                0x000000000013d16c                dh_group22_generator
                0x000000000013d5ec                dh_group18_prime
                0x000000000013d9ec                dh_group18_generator
                0x000000000013d9f0                dh_group17_order
                0x000000000013dcf0                dh_group17_prime
                0x000000000013dff0                dh_group17_generator
                0x000000000013dff4                dh_group16_order
                0x000000000013e1f4                dh_group16_prime
                0x000000000013e3f4                dh_group16_generator
                0x000000000013e578                dh_group15_prime
                0x000000000013e6f8                dh_group15_generator
                0x000000000013e6fc                dh_group14_order
                0x000000000013e7fc                dh_group14_prime
                0x000000000013e8fc                dh_group14_generator
                0x000000000013e900                dh_group5_order
                0x000000000013e9c0                dh_group5_prime
                0x000000000013ea80                dh_group5_generator
                0x000000000013ea84                dh_group2_order
                0x000000000013eb04                dh_group2_prime
                0x000000000013eb84                dh_group2_generator
                0x000000000013eb88                dh_group1_order
                0x000000000013ebe8                dh_group1_prime
                0x000000000013ec48                dh_group1_generator
 *fill*         0x000000000013ec49        0x3 
 .wifi.rom.rodata
                0x000000000013ec4c      0x3ec /home/weiqiang_sun/S_SDK_Repo/S_SDK_Repo_RTOS_Master_Temporary/amebagreen2_gcc_project/build/project_km4ns/asdk/make/image_rom_wifi/wifi_driver/rom/lib_wifi_driver_rom.a(rom_rtw_mbedtls_ecp_curves.o)
 .wifi.rom.rodata
                0x000000000013f038      0x50c /home/weiqiang_sun/S_SDK_Repo/S_SDK_Repo_RTOS_Master_Temporary/amebagreen2_gcc_project/build/project_km4ns/asdk/make/image_rom_wifi/wifi_driver/rom/lib_wifi_driver_rom.a(rom_rtw_security.o)
 .wifi.rom.rodata.str1.4
                0x000000000013f544       0x76 /home/weiqiang_sun/S_SDK_Repo/S_SDK_Repo_RTOS_Master_Temporary/amebagreen2_gcc_project/build/project_km4ns/asdk/make/image_rom_wifi/wifi_driver/rom/lib_wifi_driver_rom.a(rom_rtw_security_gcm.o)
 *fill*         0x000000000013f5ba        0x2 
 .wifi.rom.rodata
                0x000000000013f5bc      0x41d /home/weiqiang_sun/S_SDK_Repo/S_SDK_Repo_RTOS_Master_Temporary/amebagreen2_gcc_project/build/project_km4ns/asdk/make/image_rom_wifi/wifi_driver/rom/lib_wifi_driver_rom.a(rom_rtw_security_gcm.o)
                0x000000000013f9bc                rcons
 *fill*         0x000000000013f9d9        0x3 
 .wifi.rom.rodata.str1.4
                0x000000000013f9dc        0x1 /home/weiqiang_sun/S_SDK_Repo/S_SDK_Repo_RTOS_Master_Temporary/amebagreen2_gcc_project/build/project_km4ns/asdk/make/image_rom_wifi/wifi_driver/rom/lib_wifi_driver_rom.a(rom_rtw_sha256.o)
 *fill*         0x000000000013f9dd        0x3 
 .wifi.rom.rodata
                0x000000000013f9e0      0x100 /home/weiqiang_sun/S_SDK_Repo/S_SDK_Repo_RTOS_Master_Temporary/amebagreen2_gcc_project/build/project_km4ns/asdk/make/image_rom_wifi/wifi_driver/rom/lib_wifi_driver_rom.a(rom_rtw_sha256.o)
 .wifi.rom.rodata
                0x000000000013fae0      0x280 /home/weiqiang_sun/S_SDK_Repo/S_SDK_Repo_RTOS_Master_Temporary/amebagreen2_gcc_project/build/project_km4ns/asdk/make/image_rom_wifi/wifi_driver/rom/lib_wifi_driver_rom.a(rom_rtw_sha384.o)
 .wifi.rom.rodata.str1.4
                0x000000000013fd60        0x9 /home/weiqiang_sun/S_SDK_Repo/S_SDK_Repo_RTOS_Master_Temporary/amebagreen2_gcc_project/build/project_km4ns/asdk/make/image_rom_wifi/wifi_driver/rom/lib_wifi_driver_rom.a(rom_wpa_lite_part2.o)
 *fill*         0x000000000013fd69        0x3 
 .wifi.rom.rodata
                0x000000000013fd6c       0x18 /home/weiqiang_sun/S_SDK_Repo/S_SDK_Repo_RTOS_Master_Temporary/amebagreen2_gcc_project/build/project_km4ns/asdk/make/image_rom_wifi/wifi_driver/rom/lib_wifi_driver_rom.a(rom_wpa_lite_part2.o)
 .wifi.rom.rodata.str1.4
                0x000000000013fd84        0x9 /home/weiqiang_sun/S_SDK_Repo/S_SDK_Repo_RTOS_Master_Temporary/amebagreen2_gcc_project/build/project_km4ns/asdk/make/image_rom_wifi/wifi_driver/rom/lib_wifi_driver_rom.a(rom_wpa_lite_psk.o)
 *fill*         0x000000000013fd8d        0x3 
 .wifi.rom.rodata
                0x000000000013fd90       0x3f /home/weiqiang_sun/S_SDK_Repo/S_SDK_Repo_RTOS_Master_Temporary/amebagreen2_gcc_project/build/project_km4ns/asdk/make/image_rom_wifi/wifi_driver/rom/lib_wifi_driver_rom.a(rom_wpa_lite_psk.o)
                0x000000000013fd90                igtk_expansion_const
 *fill*         0x000000000013fdcf        0x1 
 .wifi.rom.rodata.str1.4
                0x000000000013fdd0      0x509 /home/weiqiang_sun/S_SDK_Repo/S_SDK_Repo_RTOS_Master_Temporary/amebagreen2_gcc_project/build/project_km4ns/asdk/make/image_rom_wifi/wifi_driver/rom/lib_wifi_driver_rom.a(rom_wpa_lite_sae.o)
 *fill*         0x00000000001402d9        0x3 
 .wifi.rom.rodata
                0x00000000001402dc       0x5d /home/weiqiang_sun/S_SDK_Repo/S_SDK_Repo_RTOS_Master_Temporary/amebagreen2_gcc_project/build/project_km4ns/asdk/make/image_rom_wifi/wifi_driver/rom/lib_wifi_driver_rom.a(rom_wpa_lite_sae.o)
                0x00000000001402ec                sae_groups
 *fill*         0x0000000000140339        0x3 
 .wifi.rom.rodata.str1.4
                0x000000000014033c      0x30a /home/weiqiang_sun/S_SDK_Repo/S_SDK_Repo_RTOS_Master_Temporary/amebagreen2_gcc_project/build/project_km4ns/asdk/make/image_rom_wifi/wifi_driver/rom/lib_wifi_driver_rom.a(rom_wpa_lite_sae_crypto.o)
 *fill*         0x0000000000140646        0x2 
 .wifi.rom.rodata
                0x0000000000140648       0x1c /home/weiqiang_sun/S_SDK_Repo/S_SDK_Repo_RTOS_Master_Temporary/amebagreen2_gcc_project/build/project_km4ns/asdk/make/image_rom_wifi/wifi_driver/rom/lib_wifi_driver_rom.a(rom_wpa_lite_sae_crypto.o)
 .wifi.rom.rodata.str1.4
                0x0000000000140664       0x48 /home/weiqiang_sun/S_SDK_Repo/S_SDK_Repo_RTOS_Master_Temporary/amebagreen2_gcc_project/build/project_km4ns/asdk/make/image_rom_wifi/wifi_driver/rom/lib_wifi_driver_rom.a(rom_rtw_80211w.o)
 .wifi.rom.rodata.str1.4
                0x00000000001406ac       0x5f /home/weiqiang_sun/S_SDK_Repo/S_SDK_Repo_RTOS_Master_Temporary/amebagreen2_gcc_project/build/project_km4ns/asdk/make/image_rom_wifi/wifi_driver/rom/lib_wifi_driver_rom.a(rom_rtw_assoc.o)
 *fill*         0x000000000014070b        0x1 
 .wifi.rom.rodata
                0x000000000014070c       0x3a /home/weiqiang_sun/S_SDK_Repo/S_SDK_Repo_RTOS_Master_Temporary/amebagreen2_gcc_project/build/project_km4ns/asdk/make/image_rom_wifi/wifi_driver/rom/lib_wifi_driver_rom.a(rom_rtw_assoc.o)
                0x0000000000140730                WPS_OUI
                0x0000000000140734                WMM_OUI
                0x0000000000140738                WMM_PARA_OUI
                0x0000000000140740                WMM_INFO_OUI
 *fill*         0x0000000000140746        0x2 
 .wifi.rom.rodata
                0x0000000000140748        0x6 /home/weiqiang_sun/S_SDK_Repo/S_SDK_Repo_RTOS_Master_Temporary/amebagreen2_gcc_project/build/project_km4ns/asdk/make/image_rom_wifi/wifi_driver/rom/lib_wifi_driver_rom.a(rom_rtw_beacon.o)
 *fill*         0x000000000014074e        0x2 
 .wifi.rom.rodata
                0x0000000000140750       0x6e /home/weiqiang_sun/S_SDK_Repo/S_SDK_Repo_RTOS_Master_Temporary/amebagreen2_gcc_project/build/project_km4ns/asdk/make/image_rom_wifi/wifi_driver/rom/lib_wifi_driver_rom.a(rom_rtw_ieee80211.o)
                0x000000000014076c                RTW_WPA_OUI_TYPE
                0x0000000000140770                WPA_CIPHER_SUITE_NONE
                0x0000000000140774                WPA_CIPHER_SUITE_WEP40
                0x0000000000140778                WPA_CIPHER_SUITE_TKIP
                0x000000000014077c                WPA_CIPHER_SUITE_CCMP
                0x0000000000140780                WPA_CIPHER_SUITE_WEP104
                0x0000000000140784                RSN_CIPHER_SUITE_NONE
                0x0000000000140788                RSN_CIPHER_SUITE_WEP40
                0x000000000014078c                RSN_CIPHER_SUITE_TKIP
                0x0000000000140790                RSN_CIPHER_SUITE_CCMP
                0x0000000000140794                RSN_CIPHER_SUITE_WEP104
                0x00000000001407b4                RSN_AUTH_KEY_MGMT_PSK_OVER_802_1X
                0x00000000001407b8                RSN_AUTH_KEY_MGMT_UNSPEC_802_1X
                0x00000000001407bc                RSN_VERSION_BSD
 *fill*         0x00000000001407be        0x2 
 .wifi.rom.rodata
                0x00000000001407c0      0x860 /home/weiqiang_sun/S_SDK_Repo/S_SDK_Repo_RTOS_Master_Temporary/amebagreen2_gcc_project/build/project_km4ns/asdk/make/image_rom_wifi/wifi_driver/rom/lib_wifi_driver_rom.a(rom_rtw_ieee80211_part2.o)
                0x00000000001407c0                RTW_ChannelPlanMap
                0x00000000001409c0                RTW_ChannelPlanBitmap2G
                0x00000000001409f8                RTW_ChannelPlanBitmap5G
                0x0000000000140fe0                RTW_WPA_OUI
                0x0000000000140fe4                RSN_TKIP_CIPHER
                0x0000000000140fe8                RSN_AUTH_KEY_MGMT_FT_802_1X
                0x0000000000140fec                RSN_AUTH_KEY_MGMT_FT_PSK
                0x0000000000140ff0                RSN_AUTH_KEY_MGMT_802_1X_SHA256
                0x0000000000140ff4                RSN_AUTH_KEY_MGMT_PSK_SHA256
                0x0000000000140ff8                RSN_AUTH_KEY_MGMT_SAE
                0x0000000000140ffc                RSN_AUTH_KEY_MGMT_FT_SAE
                0x0000000000141000                RSN_AUTH_KEY_MGMT_802_1X_SUITE_B
                0x0000000000141004                RSN_AUTH_KEY_MGMT_802_1X_SUITE_B_192
                0x0000000000141008                RSN_AUTH_KEY_MGMT_DPP
                0x000000000014100c                RSN_AUTH_KEY_MGMT_OWE
                0x0000000000141010                RSN_CIPHER_SUITE_AES_128_CMAC
                0x0000000000141014                RSN_CIPHER_SUITE_BIP_GMAC_128
                0x0000000000141018                RSN_CIPHER_SUITE_BIP_GMAC_256
                0x000000000014101c                RSN_CIPHER_SUITE_BIP_CMAC_256
 .wifi.rom.rodata.str1.4
                0x0000000000141020       0x21 /home/weiqiang_sun/S_SDK_Repo/S_SDK_Repo_RTOS_Master_Temporary/amebagreen2_gcc_project/build/project_km4ns/asdk/make/image_rom_wifi/wifi_driver/rom/lib_wifi_driver_rom.a(rom_rtw_psk.o)
 *fill*         0x0000000000141041        0x3 
 .wifi.rom.rodata
                0x0000000000141044        0x7 /home/weiqiang_sun/S_SDK_Repo/S_SDK_Repo_RTOS_Master_Temporary/amebagreen2_gcc_project/build/project_km4ns/asdk/make/image_rom_wifi/wifi_driver/rom/lib_wifi_driver_rom.a(rom_rtw_rate.o)
                0x0000000000141044                rtw_basic_rate_mix
 *fill*         0x000000000014104b        0x1 
 .wifi.rom.rodata
                0x000000000014104c      0x17e /home/weiqiang_sun/S_SDK_Repo/S_SDK_Repo_RTOS_Master_Temporary/amebagreen2_gcc_project/build/project_km4ns/asdk/make/image_rom_wifi/wifi_driver/rom/lib_wifi_driver_rom.a(rom_rtw_rf.o)
                0x000000000014104c                center_chs_2g_by_bw
                0x000000000014105c                op_chs_of_cch_2g_by_bw
                0x000000000014106c                center_chs_5g_by_bw
                0x000000000014108c                op_chs_of_cch_5g_by_bw
                0x00000000001410ac                _ch_width_to_bw_cap
                0x00000000001410b4                op_chs_of_cch_5g_160m
                0x00000000001410cc                center_ch_5g_160m
                0x00000000001410d0                op_chs_of_cch_5g_80m
                0x00000000001410ec                center_ch_5g_80m
                0x00000000001410f4                op_chs_of_cch_5g_40m
                0x0000000000141110                center_ch_5g_20m_40m
                0x000000000014113c                center_ch_5g_40m
                0x000000000014114c                center_ch_5g_20m
                0x0000000000141168                center_ch_5g_all
                0x000000000014119c                op_chs_of_cch_2g_40m
                0x00000000001411b0                center_ch_2g_40m
                0x00000000001411bc                center_ch_2g
 *fill*         0x00000000001411ca        0x2 
 .wifi.rom.rodata
                0x00000000001411cc        0x7 /home/weiqiang_sun/S_SDK_Repo/S_SDK_Repo_RTOS_Master_Temporary/amebagreen2_gcc_project/build/project_km4ns/asdk/make/image_rom_wifi/wifi_driver/rom/lib_wifi_driver_rom.a(rom_rtw_ht.o)
 *fill*         0x00000000001411d3        0x1 
 .wifi.rom.rodata.str1.4
                0x00000000001411d4       0x55 /home/weiqiang_sun/S_SDK_Repo/S_SDK_Repo_RTOS_Master_Temporary/amebagreen2_gcc_project/build/project_km4ns/asdk/make/image_rom_wifi/wifi_driver/rom/lib_wifi_driver_rom.a(rom_rtw_pmksa_cache_part2.o)
 *fill*         0x0000000000141229        0x3 
 .wifi.rom.rodata.str1.4
                0x000000000014122c       0x52 /home/weiqiang_sun/S_SDK_Repo/S_SDK_Repo_RTOS_Master_Temporary/amebagreen2_gcc_project/build/project_km4ns/asdk/make/image_rom_wifi/wifi_driver/rom/lib_wifi_driver_rom.a(rom_rtw_11d_part2.o)
 *fill*         0x000000000014127e        0x2 
 .wifi.rom.rodata
                0x0000000000141280        0x3 /home/weiqiang_sun/S_SDK_Repo/S_SDK_Repo_RTOS_Master_Temporary/amebagreen2_gcc_project/build/project_km4ns/asdk/make/image_rom_wifi/wifi_driver/rom/lib_wifi_driver_rom.a(rom_rtw_11d_part2.o)
 *fill*         0x0000000000141283        0x1 
 .wifi.rom.rodata.str1.4
                0x0000000000141284       0x5a /home/weiqiang_sun/S_SDK_Repo/S_SDK_Repo_RTOS_Master_Temporary/amebagreen2_gcc_project/build/project_km4ns/asdk/make/image_rom_wifi/wifi_driver/rom/lib_wifi_driver_rom.a(rom_rtw_he_part2.o)
 *fill*         0x00000000001412de        0x2 
 .wifi.rom.rodata.str1.4
                0x00000000001412e0        0x7 /home/weiqiang_sun/S_SDK_Repo/S_SDK_Repo_RTOS_Master_Temporary/amebagreen2_gcc_project/build/project_km4ns/asdk/make/image_rom_wifi/wifi_driver/rom/lib_wifi_driver_rom.a(rom_rtw_shortcut.o)
 *fill*         0x00000000001412e7        0x1 
 .wifi.rom.rodata
                0x00000000001412e8        0x6 /home/weiqiang_sun/S_SDK_Repo/S_SDK_Repo_RTOS_Master_Temporary/amebagreen2_gcc_project/build/project_km4ns/asdk/make/image_rom_wifi/wifi_driver/rom/lib_wifi_driver_rom.a(rom_rtw_shortcut.o)
 *fill*         0x00000000001412ee        0x2 
 .wifi.rom.rodata.str1.4
                0x00000000001412f0       0x5c /home/weiqiang_sun/S_SDK_Repo/S_SDK_Repo_RTOS_Master_Temporary/amebagreen2_gcc_project/build/project_km4ns/asdk/make/image_rom_wifi/wifi_driver/rom/lib_wifi_driver_rom.a(rom_rtw_setkey.o)
 .wifi.rom.rodata
                0x000000000014134c        0x6 /home/weiqiang_sun/S_SDK_Repo/S_SDK_Repo_RTOS_Master_Temporary/amebagreen2_gcc_project/build/project_km4ns/asdk/make/image_rom_wifi/wifi_driver/rom/lib_wifi_driver_rom.a(rom_rtw_setkey.o)
 *fill*         0x0000000000141352        0x2 
 .wifi.rom.rodata.str1.4
                0x0000000000141354       0x4a /home/weiqiang_sun/S_SDK_Repo/S_SDK_Repo_RTOS_Master_Temporary/amebagreen2_gcc_project/build/project_km4ns/asdk/make/image_rom_wifi/wifi_driver/rom/lib_wifi_driver_rom.a(rom_rtw_beacon_part2.o)
 *fill*         0x000000000014139e        0x2 
 .wifi.rom.rodata.str1.4
                0x00000000001413a0       0x32 /home/weiqiang_sun/S_SDK_Repo/S_SDK_Repo_RTOS_Master_Temporary/amebagreen2_gcc_project/build/project_km4ns/asdk/make/image_rom_wifi/wifi_driver/rom/lib_wifi_driver_rom.a(rom_rtw_sitesurvey.o)
 *fill*         0x00000000001413d2        0x2 
 .wifi.rom.rodata.str1.4
                0x00000000001413d4       0x3f /home/weiqiang_sun/S_SDK_Repo/S_SDK_Repo_RTOS_Master_Temporary/amebagreen2_gcc_project/build/project_km4ns/asdk/make/image_rom_wifi/wifi_driver/rom/lib_wifi_driver_rom.a(rom_rtw_ap_xmit.o)
 *fill*         0x0000000000141413        0x1 
 .wifi.rom.rodata.str1.4
                0x0000000000141414       0x19 /home/weiqiang_sun/S_SDK_Repo/S_SDK_Repo_RTOS_Master_Temporary/amebagreen2_gcc_project/build/project_km4ns/asdk/make/image_rom_wifi/wifi_driver/rom/lib_wifi_driver_rom.a(rom_rtw_addba.o)
 *fill*         0x000000000014142d        0x3 
 .wifi.rom.rodata.str1.4
                0x0000000000141430      0x151 /home/weiqiang_sun/S_SDK_Repo/S_SDK_Repo_RTOS_Master_Temporary/amebagreen2_gcc_project/build/project_km4ns/asdk/make/image_rom_wifi/wifi_driver/rom/lib_wifi_driver_rom.a(rom_rtw_auth_part2.o)
 *fill*         0x0000000000141581        0x3 
 .wifi.rom.rodata
                0x0000000000141584        0x6 /home/weiqiang_sun/S_SDK_Repo/S_SDK_Repo_RTOS_Master_Temporary/amebagreen2_gcc_project/build/project_km4ns/asdk/make/image_rom_wifi/wifi_driver/rom/lib_wifi_driver_rom.a(rom_rtw_auth_part2.o)
 *fill*         0x000000000014158a        0x2 
 .wifi.rom.rodata.str1.4
                0x000000000014158c       0xed /home/weiqiang_sun/S_SDK_Repo/S_SDK_Repo_RTOS_Master_Temporary/amebagreen2_gcc_project/build/project_km4ns/asdk/make/image_rom_wifi/wifi_driver/rom/lib_wifi_driver_rom.a(rom_rtw_join.o)
 *fill*         0x0000000000141679        0x3 
 .wifi.rom.rodata
                0x000000000014167c       0x18 /home/weiqiang_sun/S_SDK_Repo/S_SDK_Repo_RTOS_Master_Temporary/amebagreen2_gcc_project/build/project_km4ns/asdk/make/image_rom_wifi/wifi_driver/rom/lib_wifi_driver_rom.a(rom_rtw_join.o)
 .wifi.rom.rodata.str1.4
                0x0000000000141694      0x169 /home/weiqiang_sun/S_SDK_Repo/S_SDK_Repo_RTOS_Master_Temporary/amebagreen2_gcc_project/build/project_km4ns/asdk/make/image_rom_wifi/wifi_driver/rom/lib_wifi_driver_rom.a(rom_rtw_assoc_part2.o)
 *fill*         0x00000000001417fd        0x3 
 .wifi.rom.rodata
                0x0000000000141800        0xc /home/weiqiang_sun/S_SDK_Repo/S_SDK_Repo_RTOS_Master_Temporary/amebagreen2_gcc_project/build/project_km4ns/asdk/make/image_rom_wifi/wifi_driver/rom/lib_wifi_driver_rom.a(rom_rtw_assoc_part2.o)
                0x0000000000141800                default_rateset
 .wifi.rom.rodata.str1.4
                0x000000000014180c       0x7b /home/weiqiang_sun/S_SDK_Repo/S_SDK_Repo_RTOS_Master_Temporary/amebagreen2_gcc_project/build/project_km4ns/asdk/make/image_rom_wifi/wifi_driver/rom/lib_wifi_driver_rom.a(rom_rtw_security_part2.o)
 *fill*         0x0000000000141887        0x1 
 .wifi.rom.rodata
                0x0000000000141888       0x78 /home/weiqiang_sun/S_SDK_Repo/S_SDK_Repo_RTOS_Master_Temporary/amebagreen2_gcc_project/build/project_km4ns/asdk/make/image_rom_wifi/wifi_driver/rom/lib_wifi_driver_rom.a(rom_rtw_vht_part2.o)
                0x0000000000141888                VHT_MCS_DATA_RATE_40M
                0x00000000001418c4                VHT_MCS_DATA_RATE_20M
 .wifi.rom.rodata.str1.4
                0x0000000000141900       0x9e /home/weiqiang_sun/S_SDK_Repo/S_SDK_Repo_RTOS_Master_Temporary/amebagreen2_gcc_project/build/project_km4ns/asdk/make/image_rom_wifi/wifi_driver/rom/lib_wifi_driver_rom.a(rom_rtw_xmit.o)
 *fill*         0x000000000014199e        0x2 
 .wifi.rom.rodata
                0x00000000001419a0       0x16 /home/weiqiang_sun/S_SDK_Repo/S_SDK_Repo_RTOS_Master_Temporary/amebagreen2_gcc_project/build/project_km4ns/asdk/make/image_rom_wifi/wifi_driver/rom/lib_wifi_driver_rom.a(rom_rtw_xmit.o)
 *fill*         0x00000000001419b6        0x2 
 .wifi.rom.rodata.str1.4
                0x00000000001419b8       0xce /home/weiqiang_sun/S_SDK_Repo/S_SDK_Repo_RTOS_Master_Temporary/amebagreen2_gcc_project/build/project_km4ns/asdk/make/image_rom_wifi/wifi_driver/rom/lib_wifi_driver_rom.a(rom_rtw_recv_part2.o)
 *fill*         0x0000000000141a86        0x2 
 .wifi.rom.rodata
                0x0000000000141a88       0x32 /home/weiqiang_sun/S_SDK_Repo/S_SDK_Repo_RTOS_Master_Temporary/amebagreen2_gcc_project/build/project_km4ns/asdk/make/image_rom_wifi/wifi_driver/rom/lib_wifi_driver_rom.a(rom_rtw_recv_part2.o)
                0x0000000000141a90                rtw_bridge_tunnel_header
                0x0000000000141a98                rtw_rfc1042_header
                0x0000000000141aa0                oui_rfc1042
                0x0000000000141aa4                oui_8021h
                0x0000000000141aa8                SNAP_HDR_APPLETALK_DDP
                0x0000000000141aac                SNAP_ETH_TYPE_TDLS
                0x0000000000141ab0                SNAP_ETH_TYPE_APPLETALK_DDP
                0x0000000000141ab4                SNAP_ETH_TYPE_APPLETALK_AARP
                0x0000000000141ab8                SNAP_ETH_TYPE_IPX
 *fill*         0x0000000000141aba        0x2 
 .wifi.rom.rodata.str1.4
                0x0000000000141abc        0xd /home/weiqiang_sun/S_SDK_Repo/S_SDK_Repo_RTOS_Master_Temporary/amebagreen2_gcc_project/build/project_km4ns/asdk/make/image_rom_wifi/wifi_driver/rom/lib_wifi_driver_rom.a(rom_rtw_recv_reorder.o)
 *fill*         0x0000000000141ac9        0x3 
 .wifi.rom.rodata.str1.4
                0x0000000000141acc       0x57 /home/weiqiang_sun/S_SDK_Repo/S_SDK_Repo_RTOS_Master_Temporary/amebagreen2_gcc_project/build/project_km4ns/asdk/make/image_rom_wifi/wifi_driver/rom/lib_wifi_driver_rom.a(rom_rtw_ap.o)
 *fill*         0x0000000000141b23        0x1 
 .wifi.rom.rodata
                0x0000000000141b24        0x6 /home/weiqiang_sun/S_SDK_Repo/S_SDK_Repo_RTOS_Master_Temporary/amebagreen2_gcc_project/build/project_km4ns/asdk/make/image_rom_wifi/wifi_driver/rom/lib_wifi_driver_rom.a(rom_rtw_ap.o)
 *fill*         0x0000000000141b2a        0x2 
 .wifi.rom.rodata.str1.4
                0x0000000000141b2c       0x4c /home/weiqiang_sun/S_SDK_Repo/S_SDK_Repo_RTOS_Master_Temporary/amebagreen2_gcc_project/build/project_km4ns/asdk/make/image_rom_wifi/wifi_driver/rom/lib_wifi_driver_rom.a(rom_rtw_skbuff.o)
 .wifi.rom.rodata.str1.4
                0x0000000000141b78      0x308 /home/weiqiang_sun/S_SDK_Repo/S_SDK_Repo_RTOS_Master_Temporary/amebagreen2_gcc_project/build/project_km4ns/asdk/make/image_rom_wifi/wifi_driver/rom/lib_wifi_driver_rom.a(rom_hal_debug.o)
 .wifi.rom.rodata
                0x0000000000141e80       0x58 /home/weiqiang_sun/S_SDK_Repo/S_SDK_Repo_RTOS_Master_Temporary/amebagreen2_gcc_project/build/project_km4ns/asdk/make/image_rom_wifi/wifi_driver/rom/lib_wifi_driver_rom.a(rom_hal_debug.o)
 .wifi.rom.rodata.str1.4
                0x0000000000141ed8       0x25 /home/weiqiang_sun/S_SDK_Repo/S_SDK_Repo_RTOS_Master_Temporary/amebagreen2_gcc_project/build/project_km4ns/asdk/make/image_rom_wifi/wifi_driver/rom/lib_wifi_driver_rom.a(rom_hal_h2c_g1.o)
 *fill*         0x0000000000141efd        0x3 
 .wifi.rom.rodata.str1.4
                0x0000000000141f00       0xbe /home/weiqiang_sun/S_SDK_Repo/S_SDK_Repo_RTOS_Master_Temporary/amebagreen2_gcc_project/build/project_km4ns/asdk/make/image_rom_wifi/wifi_driver/rom/lib_wifi_driver_rom.a(rom_hal_recv.o)
 *fill*         0x0000000000141fbe        0x2 
 .wifi.rom.rodata
                0x0000000000141fc0       0x14 /home/weiqiang_sun/S_SDK_Repo/S_SDK_Repo_RTOS_Master_Temporary/amebagreen2_gcc_project/build/project_km4ns/asdk/make/image_rom_wifi/wifi_driver/rom/lib_wifi_driver_rom.a(rom_hal_recv.o)
 .wifi.rom.rodata.str1.4
                0x0000000000141fd4       0x95 /home/weiqiang_sun/S_SDK_Repo/S_SDK_Repo_RTOS_Master_Temporary/amebagreen2_gcc_project/build/project_km4ns/asdk/make/image_rom_wifi/wifi_driver/rom/lib_wifi_driver_rom.a(rom_hal_xmit.o)
 *fill*         0x0000000000142069        0x3 
 .wifi.rom.rodata
                0x000000000014206c       0x4e /home/weiqiang_sun/S_SDK_Repo/S_SDK_Repo_RTOS_Master_Temporary/amebagreen2_gcc_project/build/project_km4ns/asdk/make/image_rom_wifi/wifi_driver/rom/lib_wifi_driver_rom.a(rom_hal_xmit.o)
 *fill*         0x00000000001420ba        0x2 
 .wifi.rom.rodata.str1.4
                0x00000000001420bc       0x25 /home/weiqiang_sun/S_SDK_Repo/S_SDK_Repo_RTOS_Master_Temporary/amebagreen2_gcc_project/build/project_km4ns/asdk/make/image_rom_wifi/wifi_driver/rom/lib_wifi_driver_rom.a(rom_hal_xmit_g1.o)
 *fill*         0x00000000001420e1        0x3 
 .wifi.rom.rodata.str1.4
                0x00000000001420e4      0x4dd /home/weiqiang_sun/S_SDK_Repo/S_SDK_Repo_RTOS_Master_Temporary/amebagreen2_gcc_project/build/project_km4ns/asdk/make/image_rom_wifi/wifi_driver/rom/lib_wifi_driver_rom.a(rom_wifi_hal_debug.o)
 *fill*         0x00000000001425c1        0x3 
 .wifi.rom.rodata
                0x00000000001425c4       0xb0 /home/weiqiang_sun/S_SDK_Repo/S_SDK_Repo_RTOS_Master_Temporary/amebagreen2_gcc_project/build/project_km4ns/asdk/make/image_rom_wifi/wifi_driver/rom/lib_wifi_driver_rom.a(rom_wifi_hal_debug.o)
 .wifi.rom.rodata.str1.4
                0x0000000000142674       0x24 /home/weiqiang_sun/S_SDK_Repo/S_SDK_Repo_RTOS_Master_Temporary/amebagreen2_gcc_project/build/project_km4ns/asdk/make/image_rom_wifi/wifi_driver/rom/lib_wifi_driver_rom.a(rom_wifi_hal_init.o)
 .wifi.rom.rodata
                0x0000000000142698       0x16 /home/weiqiang_sun/S_SDK_Repo/S_SDK_Repo_RTOS_Master_Temporary/amebagreen2_gcc_project/build/project_km4ns/asdk/make/image_rom_wifi/wifi_driver/rom/lib_wifi_driver_rom.a(rom_wifi_hal_init.o)
 *fill*         0x00000000001426ae        0x2 
 .wifi.rom.rodata
                0x00000000001426b0        0xc /home/weiqiang_sun/S_SDK_Repo/S_SDK_Repo_RTOS_Master_Temporary/amebagreen2_gcc_project/build/project_km4ns/asdk/make/image_rom_wifi/wifi_driver/rom/lib_wifi_driver_rom.a(rom_wifi_hal_media_access.o)
 .wifi.rom.rodata.str1.4
                0x00000000001426bc       0x5e /home/weiqiang_sun/S_SDK_Repo/S_SDK_Repo_RTOS_Master_Temporary/amebagreen2_gcc_project/build/project_km4ns/asdk/make/image_rom_wifi/wifi_driver/rom/lib_wifi_driver_rom.a(rom_wifi_hal_misc.o)
 *fill*         0x000000000014271a        0x2 
 .wifi.rom.rodata
                0x000000000014271c       0x28 /home/weiqiang_sun/S_SDK_Repo/S_SDK_Repo_RTOS_Master_Temporary/amebagreen2_gcc_project/build/project_km4ns/asdk/make/image_rom_wifi/wifi_driver/rom/lib_wifi_driver_rom.a(rom_wifi_hal_misc.o)
 .wifi.rom.rodata
                0x0000000000142744        0xb /home/weiqiang_sun/S_SDK_Repo/S_SDK_Repo_RTOS_Master_Temporary/amebagreen2_gcc_project/build/project_km4ns/asdk/make/image_rom_wifi/wifi_driver/rom/lib_wifi_driver_rom.a(rom_wifi_hal_rate.o)
 *fill*         0x000000000014274f        0x1 
 .wifi.rom.rodata
                0x0000000000142750       0x18 /home/weiqiang_sun/S_SDK_Repo/S_SDK_Repo_RTOS_Master_Temporary/amebagreen2_gcc_project/build/project_km4ns/asdk/make/image_rom_wifi/wifi_driver/rom/lib_wifi_driver_rom.a(rom_wifi_hal_secure.o)
 .wifi.rom.rodata
                0x0000000000142768        0xe /home/weiqiang_sun/S_SDK_Repo/S_SDK_Repo_RTOS_Master_Temporary/amebagreen2_gcc_project/build/project_km4ns/asdk/make/image_rom_wifi/wifi_driver/rom/lib_wifi_driver_rom.a(rom_wifi_hal_txdesc.o)
 *(.wifi.rom.hal.rom.rodata*)
 *fill*         0x0000000000142776        0x2 
 .wifi.rom.hal.rom.rodata
                0x0000000000142778       0x10 /home/weiqiang_sun/S_SDK_Repo/S_SDK_Repo_RTOS_Master_Temporary/amebagreen2_gcc_project/build/project_km4ns/asdk/make/image_rom_wifi/wifi_driver/rom/lib_wifi_driver_rom.a(rom_rtw_ht.o)
                0x0000000000142778                MCS_rate_1R
 .wifi.rom.hal.rom.rodata
                0x0000000000142788        0x8 /home/weiqiang_sun/S_SDK_Repo/S_SDK_Repo_RTOS_Master_Temporary/amebagreen2_gcc_project/build/project_km4ns/asdk/make/image_rom_wifi/wifi_driver/rom/lib_wifi_driver_rom.a(rom_hal_h2c.o)
 .wifi.rom.hal.rom.rodata
                0x0000000000142790       0x30 /home/weiqiang_sun/S_SDK_Repo/S_SDK_Repo_RTOS_Master_Temporary/amebagreen2_gcc_project/build/project_km4ns/asdk/make/image_rom_wifi/wifi_driver/rom/lib_wifi_driver_rom.a(rom_wifi_hal_media_access.o)
                0x0000000000142790                address_cam_entry
                0x00000000001427c0                AA__wifi_share_rom_end__ = .

.rom_wifi.bss   0x0000000020001000      0xce9
                0x00000000000004c0                . = 0x4c0
 *fill*         0x0000000020001000      0x4c0 
                0x00000000200014c0                AA__wifi_share_bss_start__ = .
 *(.wifi.rom.bss)
 .wifi.rom.bss  0x00000000200014c0        0x0 /home/weiqiang_sun/S_SDK_Repo/S_SDK_Repo_RTOS_Master_Temporary/amebagreen2_gcc_project/build/project_km4ns/asdk/make/image_rom_wifi/wifi_driver/rom/lib_wifi_driver_rom.a(rom_aes.o)
 .wifi.rom.bss  0x00000000200014c0        0x0 /home/weiqiang_sun/S_SDK_Repo/S_SDK_Repo_RTOS_Master_Temporary/amebagreen2_gcc_project/build/project_km4ns/asdk/make/image_rom_wifi/wifi_driver/rom/lib_wifi_driver_rom.a(rom_arc4.o)
 .wifi.rom.bss  0x00000000200014c0        0x0 /home/weiqiang_sun/S_SDK_Repo/S_SDK_Repo_RTOS_Master_Temporary/amebagreen2_gcc_project/build/project_km4ns/asdk/make/image_rom_wifi/wifi_driver/rom/lib_wifi_driver_rom.a(rom_md5.o)
 .wifi.rom.bss  0x00000000200014c0        0x0 /home/weiqiang_sun/S_SDK_Repo/S_SDK_Repo_RTOS_Master_Temporary/amebagreen2_gcc_project/build/project_km4ns/asdk/make/image_rom_wifi/wifi_driver/rom/lib_wifi_driver_rom.a(rom_rc4.o)
 .wifi.rom.bss  0x00000000200014c0        0x0 /home/weiqiang_sun/S_SDK_Repo/S_SDK_Repo_RTOS_Master_Temporary/amebagreen2_gcc_project/build/project_km4ns/asdk/make/image_rom_wifi/wifi_driver/rom/lib_wifi_driver_rom.a(rom_rtw_dh_groups.o)
 .wifi.rom.bss  0x00000000200014c0        0x0 /home/weiqiang_sun/S_SDK_Repo/S_SDK_Repo_RTOS_Master_Temporary/amebagreen2_gcc_project/build/project_km4ns/asdk/make/image_rom_wifi/wifi_driver/rom/lib_wifi_driver_rom.a(rom_rtw_mbedtls_bignum.o)
 .wifi.rom.bss  0x00000000200014c0        0x0 /home/weiqiang_sun/S_SDK_Repo/S_SDK_Repo_RTOS_Master_Temporary/amebagreen2_gcc_project/build/project_km4ns/asdk/make/image_rom_wifi/wifi_driver/rom/lib_wifi_driver_rom.a(rom_rtw_mbedtls_ecp.o)
 .wifi.rom.bss  0x00000000200014c0        0x4 /home/weiqiang_sun/S_SDK_Repo/S_SDK_Repo_RTOS_Master_Temporary/amebagreen2_gcc_project/build/project_km4ns/asdk/make/image_rom_wifi/wifi_driver/rom/lib_wifi_driver_rom.a(rom_rtw_mbedtls_ecp_curves.o)
 .wifi.rom.bss  0x00000000200014c4       0x10 /home/weiqiang_sun/S_SDK_Repo/S_SDK_Repo_RTOS_Master_Temporary/amebagreen2_gcc_project/build/project_km4ns/asdk/make/image_rom_wifi/wifi_driver/rom/lib_wifi_driver_rom.a(rom_rtw_mbedtls_func_map.o)
                0x00000000200014c4                p_wifi_rom_func_map
                0x00000000200014c8                wifi_rom_func_map
 .wifi.rom.bss  0x00000000200014d4        0x0 /home/weiqiang_sun/S_SDK_Repo/S_SDK_Repo_RTOS_Master_Temporary/amebagreen2_gcc_project/build/project_km4ns/asdk/make/image_rom_wifi/wifi_driver/rom/lib_wifi_driver_rom.a(rom_rtw_mbedtls_platform.o)
 .wifi.rom.bss  0x00000000200014d4        0x0 /home/weiqiang_sun/S_SDK_Repo/S_SDK_Repo_RTOS_Master_Temporary/amebagreen2_gcc_project/build/project_km4ns/asdk/make/image_rom_wifi/wifi_driver/rom/lib_wifi_driver_rom.a(rom_rtw_security.o)
 .wifi.rom.bss  0x00000000200014d4        0x0 /home/weiqiang_sun/S_SDK_Repo/S_SDK_Repo_RTOS_Master_Temporary/amebagreen2_gcc_project/build/project_km4ns/asdk/make/image_rom_wifi/wifi_driver/rom/lib_wifi_driver_rom.a(rom_rtw_security_gcm.o)
 .wifi.rom.bss  0x00000000200014d4        0x0 /home/weiqiang_sun/S_SDK_Repo/S_SDK_Repo_RTOS_Master_Temporary/amebagreen2_gcc_project/build/project_km4ns/asdk/make/image_rom_wifi/wifi_driver/rom/lib_wifi_driver_rom.a(rom_rtw_sha256.o)
 .wifi.rom.bss  0x00000000200014d4        0x0 /home/weiqiang_sun/S_SDK_Repo/S_SDK_Repo_RTOS_Master_Temporary/amebagreen2_gcc_project/build/project_km4ns/asdk/make/image_rom_wifi/wifi_driver/rom/lib_wifi_driver_rom.a(rom_rtw_sha384.o)
 .wifi.rom.bss  0x00000000200014d4        0x0 /home/weiqiang_sun/S_SDK_Repo/S_SDK_Repo_RTOS_Master_Temporary/amebagreen2_gcc_project/build/project_km4ns/asdk/make/image_rom_wifi/wifi_driver/rom/lib_wifi_driver_rom.a(rom_sha1.o)
 .wifi.rom.bss  0x00000000200014d4        0x0 /home/weiqiang_sun/S_SDK_Repo/S_SDK_Repo_RTOS_Master_Temporary/amebagreen2_gcc_project/build/project_km4ns/asdk/make/image_rom_wifi/wifi_driver/rom/lib_wifi_driver_rom.a(rom_wpa_lite_part2.o)
 .wifi.rom.bss  0x00000000200014d4        0x0 /home/weiqiang_sun/S_SDK_Repo/S_SDK_Repo_RTOS_Master_Temporary/amebagreen2_gcc_project/build/project_km4ns/asdk/make/image_rom_wifi/wifi_driver/rom/lib_wifi_driver_rom.a(rom_wpa_lite_psk.o)
 .wifi.rom.bss  0x00000000200014d4        0x0 /home/weiqiang_sun/S_SDK_Repo/S_SDK_Repo_RTOS_Master_Temporary/amebagreen2_gcc_project/build/project_km4ns/asdk/make/image_rom_wifi/wifi_driver/rom/lib_wifi_driver_rom.a(rom_wpa_lite_sae.o)
 .wifi.rom.bss  0x00000000200014d4        0x4 /home/weiqiang_sun/S_SDK_Repo/S_SDK_Repo_RTOS_Master_Temporary/amebagreen2_gcc_project/build/project_km4ns/asdk/make/image_rom_wifi/wifi_driver/rom/lib_wifi_driver_rom.a(rom_wpa_lite_sae_crypto.o)
                0x00000000200014d4                sae_debug_level
 .wifi.rom.bss  0x00000000200014d8        0x0 /home/weiqiang_sun/S_SDK_Repo/S_SDK_Repo_RTOS_Master_Temporary/amebagreen2_gcc_project/build/project_km4ns/asdk/make/image_rom_wifi/wifi_driver/rom/lib_wifi_driver_rom.a(rom_rtw_11d.o)
 .wifi.rom.bss  0x00000000200014d8        0x0 /home/weiqiang_sun/S_SDK_Repo/S_SDK_Repo_RTOS_Master_Temporary/amebagreen2_gcc_project/build/project_km4ns/asdk/make/image_rom_wifi/wifi_driver/rom/lib_wifi_driver_rom.a(rom_rtw_80211w.o)
 .wifi.rom.bss  0x00000000200014d8        0x0 /home/weiqiang_sun/S_SDK_Repo/S_SDK_Repo_RTOS_Master_Temporary/amebagreen2_gcc_project/build/project_km4ns/asdk/make/image_rom_wifi/wifi_driver/rom/lib_wifi_driver_rom.a(rom_rtw_action.o)
 .wifi.rom.bss  0x00000000200014d8        0x0 /home/weiqiang_sun/S_SDK_Repo/S_SDK_Repo_RTOS_Master_Temporary/amebagreen2_gcc_project/build/project_km4ns/asdk/make/image_rom_wifi/wifi_driver/rom/lib_wifi_driver_rom.a(rom_rtw_assoc.o)
 .wifi.rom.bss  0x00000000200014d8        0x0 /home/weiqiang_sun/S_SDK_Repo/S_SDK_Repo_RTOS_Master_Temporary/amebagreen2_gcc_project/build/project_km4ns/asdk/make/image_rom_wifi/wifi_driver/rom/lib_wifi_driver_rom.a(rom_rtw_auth.o)
 .wifi.rom.bss  0x00000000200014d8        0x0 /home/weiqiang_sun/S_SDK_Repo/S_SDK_Repo_RTOS_Master_Temporary/amebagreen2_gcc_project/build/project_km4ns/asdk/make/image_rom_wifi/wifi_driver/rom/lib_wifi_driver_rom.a(rom_rtw_beacon.o)
 .wifi.rom.bss  0x00000000200014d8        0x0 /home/weiqiang_sun/S_SDK_Repo/S_SDK_Repo_RTOS_Master_Temporary/amebagreen2_gcc_project/build/project_km4ns/asdk/make/image_rom_wifi/wifi_driver/rom/lib_wifi_driver_rom.a(rom_rtw_chbw.o)
 .wifi.rom.bss  0x00000000200014d8        0x0 /home/weiqiang_sun/S_SDK_Repo/S_SDK_Repo_RTOS_Master_Temporary/amebagreen2_gcc_project/build/project_km4ns/asdk/make/image_rom_wifi/wifi_driver/rom/lib_wifi_driver_rom.a(rom_rtw_he.o)
 .wifi.rom.bss  0x00000000200014d8        0x0 /home/weiqiang_sun/S_SDK_Repo/S_SDK_Repo_RTOS_Master_Temporary/amebagreen2_gcc_project/build/project_km4ns/asdk/make/image_rom_wifi/wifi_driver/rom/lib_wifi_driver_rom.a(rom_rtw_ieee80211.o)
 .wifi.rom.bss  0x00000000200014d8        0x0 /home/weiqiang_sun/S_SDK_Repo/S_SDK_Repo_RTOS_Master_Temporary/amebagreen2_gcc_project/build/project_km4ns/asdk/make/image_rom_wifi/wifi_driver/rom/lib_wifi_driver_rom.a(rom_rtw_ieee80211_part2.o)
 .wifi.rom.bss  0x00000000200014d8        0x0 /home/weiqiang_sun/S_SDK_Repo/S_SDK_Repo_RTOS_Master_Temporary/amebagreen2_gcc_project/build/project_km4ns/asdk/make/image_rom_wifi/wifi_driver/rom/lib_wifi_driver_rom.a(rom_rtw_pmksa_cache.o)
 .wifi.rom.bss  0x00000000200014d8        0x0 /home/weiqiang_sun/S_SDK_Repo/S_SDK_Repo_RTOS_Master_Temporary/amebagreen2_gcc_project/build/project_km4ns/asdk/make/image_rom_wifi/wifi_driver/rom/lib_wifi_driver_rom.a(rom_rtw_probe.o)
 .wifi.rom.bss  0x00000000200014d8        0x0 /home/weiqiang_sun/S_SDK_Repo/S_SDK_Repo_RTOS_Master_Temporary/amebagreen2_gcc_project/build/project_km4ns/asdk/make/image_rom_wifi/wifi_driver/rom/lib_wifi_driver_rom.a(rom_rtw_psk.o)
 .wifi.rom.bss  0x00000000200014d8        0x0 /home/weiqiang_sun/S_SDK_Repo/S_SDK_Repo_RTOS_Master_Temporary/amebagreen2_gcc_project/build/project_km4ns/asdk/make/image_rom_wifi/wifi_driver/rom/lib_wifi_driver_rom.a(rom_rtw_rate.o)
 .wifi.rom.bss  0x00000000200014d8        0x1 /home/weiqiang_sun/S_SDK_Repo/S_SDK_Repo_RTOS_Master_Temporary/amebagreen2_gcc_project/build/project_km4ns/asdk/make/image_rom_wifi/wifi_driver/rom/lib_wifi_driver_rom.a(rom_rtw_recv.o)
 .wifi.rom.bss  0x00000000200014d9        0x0 /home/weiqiang_sun/S_SDK_Repo/S_SDK_Repo_RTOS_Master_Temporary/amebagreen2_gcc_project/build/project_km4ns/asdk/make/image_rom_wifi/wifi_driver/rom/lib_wifi_driver_rom.a(rom_rtw_rf.o)
 .wifi.rom.bss  0x00000000200014d9        0x0 /home/weiqiang_sun/S_SDK_Repo/S_SDK_Repo_RTOS_Master_Temporary/amebagreen2_gcc_project/build/project_km4ns/asdk/make/image_rom_wifi/wifi_driver/rom/lib_wifi_driver_rom.a(rom_rtw_vht.o)
 .wifi.rom.bss  0x00000000200014d9        0x0 /home/weiqiang_sun/S_SDK_Repo/S_SDK_Repo_RTOS_Master_Temporary/amebagreen2_gcc_project/build/project_km4ns/asdk/make/image_rom_wifi/wifi_driver/rom/lib_wifi_driver_rom.a(rom_rtw_ht.o)
 .wifi.rom.bss  0x00000000200014d9        0x0 /home/weiqiang_sun/S_SDK_Repo/S_SDK_Repo_RTOS_Master_Temporary/amebagreen2_gcc_project/build/project_km4ns/asdk/make/image_rom_wifi/wifi_driver/rom/lib_wifi_driver_rom.a(rom_rtw_network.o)
 .wifi.rom.bss  0x00000000200014d9        0x0 /home/weiqiang_sun/S_SDK_Repo/S_SDK_Repo_RTOS_Master_Temporary/amebagreen2_gcc_project/build/project_km4ns/asdk/make/image_rom_wifi/wifi_driver/rom/lib_wifi_driver_rom.a(rom_rtw_pmksa_cache_part2.o)
 .wifi.rom.bss  0x00000000200014d9        0x0 /home/weiqiang_sun/S_SDK_Repo/S_SDK_Repo_RTOS_Master_Temporary/amebagreen2_gcc_project/build/project_km4ns/asdk/make/image_rom_wifi/wifi_driver/rom/lib_wifi_driver_rom.a(rom_rtw_11d_part2.o)
 .wifi.rom.bss  0x00000000200014d9        0x0 /home/weiqiang_sun/S_SDK_Repo/S_SDK_Repo_RTOS_Master_Temporary/amebagreen2_gcc_project/build/project_km4ns/asdk/make/image_rom_wifi/wifi_driver/rom/lib_wifi_driver_rom.a(rom_rtw_he_part2.o)
 .wifi.rom.bss  0x00000000200014d9        0x0 /home/weiqiang_sun/S_SDK_Repo/S_SDK_Repo_RTOS_Master_Temporary/amebagreen2_gcc_project/build/project_km4ns/asdk/make/image_rom_wifi/wifi_driver/rom/lib_wifi_driver_rom.a(rom_rtw_shortcut.o)
 .wifi.rom.bss  0x00000000200014d9        0x0 /home/weiqiang_sun/S_SDK_Repo/S_SDK_Repo_RTOS_Master_Temporary/amebagreen2_gcc_project/build/project_km4ns/asdk/make/image_rom_wifi/wifi_driver/rom/lib_wifi_driver_rom.a(rom_rtw_setkey.o)
 .wifi.rom.bss  0x00000000200014d9        0x0 /home/weiqiang_sun/S_SDK_Repo/S_SDK_Repo_RTOS_Master_Temporary/amebagreen2_gcc_project/build/project_km4ns/asdk/make/image_rom_wifi/wifi_driver/rom/lib_wifi_driver_rom.a(rom_rtw_beacon_part2.o)
 .wifi.rom.bss  0x00000000200014d9        0x0 /home/weiqiang_sun/S_SDK_Repo/S_SDK_Repo_RTOS_Master_Temporary/amebagreen2_gcc_project/build/project_km4ns/asdk/make/image_rom_wifi/wifi_driver/rom/lib_wifi_driver_rom.a(rom_rtw_sitesurvey.o)
 .wifi.rom.bss  0x00000000200014d9        0x0 /home/weiqiang_sun/S_SDK_Repo/S_SDK_Repo_RTOS_Master_Temporary/amebagreen2_gcc_project/build/project_km4ns/asdk/make/image_rom_wifi/wifi_driver/rom/lib_wifi_driver_rom.a(rom_rtw_sitesurvey_report.o)
 .wifi.rom.bss  0x00000000200014d9        0x0 /home/weiqiang_sun/S_SDK_Repo/S_SDK_Repo_RTOS_Master_Temporary/amebagreen2_gcc_project/build/project_km4ns/asdk/make/image_rom_wifi/wifi_driver/rom/lib_wifi_driver_rom.a(rom_rtw_ap_xmit.o)
 .wifi.rom.bss  0x00000000200014d9        0x0 /home/weiqiang_sun/S_SDK_Repo/S_SDK_Repo_RTOS_Master_Temporary/amebagreen2_gcc_project/build/project_km4ns/asdk/make/image_rom_wifi/wifi_driver/rom/lib_wifi_driver_rom.a(rom_rtw_addba.o)
 .wifi.rom.bss  0x00000000200014d9        0x0 /home/weiqiang_sun/S_SDK_Repo/S_SDK_Repo_RTOS_Master_Temporary/amebagreen2_gcc_project/build/project_km4ns/asdk/make/image_rom_wifi/wifi_driver/rom/lib_wifi_driver_rom.a(rom_rtw_80211w_part2.o)
 *fill*         0x00000000200014d9        0x3 
 .wifi.rom.bss  0x00000000200014dc        0x4 /home/weiqiang_sun/S_SDK_Repo/S_SDK_Repo_RTOS_Master_Temporary/amebagreen2_gcc_project/build/project_km4ns/asdk/make/image_rom_wifi/wifi_driver/rom/lib_wifi_driver_rom.a(rom_rtw_auth_part2.o)
                0x00000000200014dc                mf_list_head
 .wifi.rom.bss  0x00000000200014e0        0x0 /home/weiqiang_sun/S_SDK_Repo/S_SDK_Repo_RTOS_Master_Temporary/amebagreen2_gcc_project/build/project_km4ns/asdk/make/image_rom_wifi/wifi_driver/rom/lib_wifi_driver_rom.a(rom_rtw_action_part2.o)
 .wifi.rom.bss  0x00000000200014e0        0x0 /home/weiqiang_sun/S_SDK_Repo/S_SDK_Repo_RTOS_Master_Temporary/amebagreen2_gcc_project/build/project_km4ns/asdk/make/image_rom_wifi/wifi_driver/rom/lib_wifi_driver_rom.a(rom_rtw_join.o)
 .wifi.rom.bss  0x00000000200014e0        0x0 /home/weiqiang_sun/S_SDK_Repo/S_SDK_Repo_RTOS_Master_Temporary/amebagreen2_gcc_project/build/project_km4ns/asdk/make/image_rom_wifi/wifi_driver/rom/lib_wifi_driver_rom.a(rom_rtw_join_result.o)
 .wifi.rom.bss  0x00000000200014e0        0x0 /home/weiqiang_sun/S_SDK_Repo/S_SDK_Repo_RTOS_Master_Temporary/amebagreen2_gcc_project/build/project_km4ns/asdk/make/image_rom_wifi/wifi_driver/rom/lib_wifi_driver_rom.a(rom_rtw_assoc_part2.o)
 .wifi.rom.bss  0x00000000200014e0        0x0 /home/weiqiang_sun/S_SDK_Repo/S_SDK_Repo_RTOS_Master_Temporary/amebagreen2_gcc_project/build/project_km4ns/asdk/make/image_rom_wifi/wifi_driver/rom/lib_wifi_driver_rom.a(rom_rtw_security_part2.o)
 .wifi.rom.bss  0x00000000200014e0        0x0 /home/weiqiang_sun/S_SDK_Repo/S_SDK_Repo_RTOS_Master_Temporary/amebagreen2_gcc_project/build/project_km4ns/asdk/make/image_rom_wifi/wifi_driver/rom/lib_wifi_driver_rom.a(rom_rtw_vht_part2.o)
 .wifi.rom.bss  0x00000000200014e0        0x0 /home/weiqiang_sun/S_SDK_Repo/S_SDK_Repo_RTOS_Master_Temporary/amebagreen2_gcc_project/build/project_km4ns/asdk/make/image_rom_wifi/wifi_driver/rom/lib_wifi_driver_rom.a(rom_rtw_xmit.o)
 .wifi.rom.bss  0x00000000200014e0        0x0 /home/weiqiang_sun/S_SDK_Repo/S_SDK_Repo_RTOS_Master_Temporary/amebagreen2_gcc_project/build/project_km4ns/asdk/make/image_rom_wifi/wifi_driver/rom/lib_wifi_driver_rom.a(rom_rtw_recv_part2.o)
 .wifi.rom.bss  0x00000000200014e0        0x0 /home/weiqiang_sun/S_SDK_Repo/S_SDK_Repo_RTOS_Master_Temporary/amebagreen2_gcc_project/build/project_km4ns/asdk/make/image_rom_wifi/wifi_driver/rom/lib_wifi_driver_rom.a(rom_rtw_recv_reorder.o)
 .wifi.rom.bss  0x00000000200014e0        0x0 /home/weiqiang_sun/S_SDK_Repo/S_SDK_Repo_RTOS_Master_Temporary/amebagreen2_gcc_project/build/project_km4ns/asdk/make/image_rom_wifi/wifi_driver/rom/lib_wifi_driver_rom.a(rom_rtw_mgnt.o)
 .wifi.rom.bss  0x00000000200014e0        0x0 /home/weiqiang_sun/S_SDK_Repo/S_SDK_Repo_RTOS_Master_Temporary/amebagreen2_gcc_project/build/project_km4ns/asdk/make/image_rom_wifi/wifi_driver/rom/lib_wifi_driver_rom.a(rom_rtw_state.o)
 .wifi.rom.bss  0x00000000200014e0        0x0 /home/weiqiang_sun/S_SDK_Repo/S_SDK_Repo_RTOS_Master_Temporary/amebagreen2_gcc_project/build/project_km4ns/asdk/make/image_rom_wifi/wifi_driver/rom/lib_wifi_driver_rom.a(rom_rtw_sta_mgt.o)
 .wifi.rom.bss  0x00000000200014e0        0x0 /home/weiqiang_sun/S_SDK_Repo/S_SDK_Repo_RTOS_Master_Temporary/amebagreen2_gcc_project/build/project_km4ns/asdk/make/image_rom_wifi/wifi_driver/rom/lib_wifi_driver_rom.a(rom_rtw_ap.o)
 .wifi.rom.bss  0x00000000200014e0       0x28 /home/weiqiang_sun/S_SDK_Repo/S_SDK_Repo_RTOS_Master_Temporary/amebagreen2_gcc_project/build/project_km4ns/asdk/make/image_rom_wifi/wifi_driver/rom/lib_wifi_driver_rom.a(rom_rtw_skbuff.o)
                0x00000000200014e0                skbpriv
 .wifi.rom.bss  0x0000000020001508        0x0 /home/weiqiang_sun/S_SDK_Repo/S_SDK_Repo_RTOS_Master_Temporary/amebagreen2_gcc_project/build/project_km4ns/asdk/make/image_rom_wifi/wifi_driver/rom/lib_wifi_driver_rom.a(rom_hal_debug.o)
 .wifi.rom.bss  0x0000000020001508        0x0 /home/weiqiang_sun/S_SDK_Repo/S_SDK_Repo_RTOS_Master_Temporary/amebagreen2_gcc_project/build/project_km4ns/asdk/make/image_rom_wifi/wifi_driver/rom/lib_wifi_driver_rom.a(rom_hal_h2c.o)
 .wifi.rom.bss  0x0000000020001508        0x0 /home/weiqiang_sun/S_SDK_Repo/S_SDK_Repo_RTOS_Master_Temporary/amebagreen2_gcc_project/build/project_km4ns/asdk/make/image_rom_wifi/wifi_driver/rom/lib_wifi_driver_rom.a(rom_hal_h2c_g1.o)
 .wifi.rom.bss  0x0000000020001508        0x0 /home/weiqiang_sun/S_SDK_Repo/S_SDK_Repo_RTOS_Master_Temporary/amebagreen2_gcc_project/build/project_km4ns/asdk/make/image_rom_wifi/wifi_driver/rom/lib_wifi_driver_rom.a(rom_hal_recv.o)
 .wifi.rom.bss  0x0000000020001508      0x654 /home/weiqiang_sun/S_SDK_Repo/S_SDK_Repo_RTOS_Master_Temporary/amebagreen2_gcc_project/build/project_km4ns/asdk/make/image_rom_wifi/wifi_driver/rom/lib_wifi_driver_rom.a(rom_hal_structs.o)
                0x0000000020001508                wifi_setting
                0x0000000020001688                g_kvrpriv
                0x00000000200016c4                g_wpspriv
                0x00000000200016ec                g_promiscpriv
                0x00000000200016f8                g_traffic_statis
                0x0000000020001710                g_pspriv
                0x0000000020001748                g_apmlmepriv
                0x000000002000178c                g_hal_spec
                0x00000000200017b8                g_scanpriv
                0x0000000020001810                g_mlmepriv
                0x00000000200019e0                g_recvpriv
                0x0000000020001a7c                g_xmitpriv
 .wifi.rom.bss  0x0000000020001b5c        0x0 /home/weiqiang_sun/S_SDK_Repo/S_SDK_Repo_RTOS_Master_Temporary/amebagreen2_gcc_project/build/project_km4ns/asdk/make/image_rom_wifi/wifi_driver/rom/lib_wifi_driver_rom.a(rom_hal_xmit.o)
 .wifi.rom.bss  0x0000000020001b5c        0x0 /home/weiqiang_sun/S_SDK_Repo/S_SDK_Repo_RTOS_Master_Temporary/amebagreen2_gcc_project/build/project_km4ns/asdk/make/image_rom_wifi/wifi_driver/rom/lib_wifi_driver_rom.a(rom_hal_xmit_g1.o)
 .wifi.rom.bss  0x0000000020001b5c        0x0 /home/weiqiang_sun/S_SDK_Repo/S_SDK_Repo_RTOS_Master_Temporary/amebagreen2_gcc_project/build/project_km4ns/asdk/make/image_rom_wifi/wifi_driver/rom/lib_wifi_driver_rom.a(rom_wifi_hal_ax.o)
 .wifi.rom.bss  0x0000000020001b5c        0x0 /home/weiqiang_sun/S_SDK_Repo/S_SDK_Repo_RTOS_Master_Temporary/amebagreen2_gcc_project/build/project_km4ns/asdk/make/image_rom_wifi/wifi_driver/rom/lib_wifi_driver_rom.a(rom_wifi_hal_bcn.o)
 .wifi.rom.bss  0x0000000020001b5c        0x0 /home/weiqiang_sun/S_SDK_Repo/S_SDK_Repo_RTOS_Master_Temporary/amebagreen2_gcc_project/build/project_km4ns/asdk/make/image_rom_wifi/wifi_driver/rom/lib_wifi_driver_rom.a(rom_wifi_hal_debug.o)
 .wifi.rom.bss  0x0000000020001b5c        0x0 /home/weiqiang_sun/S_SDK_Repo/S_SDK_Repo_RTOS_Master_Temporary/amebagreen2_gcc_project/build/project_km4ns/asdk/make/image_rom_wifi/wifi_driver/rom/lib_wifi_driver_rom.a(rom_wifi_hal_init.o)
 .wifi.rom.bss  0x0000000020001b5c        0x0 /home/weiqiang_sun/S_SDK_Repo/S_SDK_Repo_RTOS_Master_Temporary/amebagreen2_gcc_project/build/project_km4ns/asdk/make/image_rom_wifi/wifi_driver/rom/lib_wifi_driver_rom.a(rom_wifi_hal_io.o)
 .wifi.rom.bss  0x0000000020001b5c        0x9 /home/weiqiang_sun/S_SDK_Repo/S_SDK_Repo_RTOS_Master_Temporary/amebagreen2_gcc_project/build/project_km4ns/asdk/make/image_rom_wifi/wifi_driver/rom/lib_wifi_driver_rom.a(rom_wifi_hal_media_access.o)
 *fill*         0x0000000020001b65        0x3 
 .wifi.rom.bss  0x0000000020001b68        0x8 /home/weiqiang_sun/S_SDK_Repo/S_SDK_Repo_RTOS_Master_Temporary/amebagreen2_gcc_project/build/project_km4ns/asdk/make/image_rom_wifi/wifi_driver/rom/lib_wifi_driver_rom.a(rom_wifi_hal_misc.o)
 .wifi.rom.bss  0x0000000020001b70        0x0 /home/weiqiang_sun/S_SDK_Repo/S_SDK_Repo_RTOS_Master_Temporary/amebagreen2_gcc_project/build/project_km4ns/asdk/make/image_rom_wifi/wifi_driver/rom/lib_wifi_driver_rom.a(rom_wifi_hal_rate.o)
 .wifi.rom.bss  0x0000000020001b70        0x0 /home/weiqiang_sun/S_SDK_Repo/S_SDK_Repo_RTOS_Master_Temporary/amebagreen2_gcc_project/build/project_km4ns/asdk/make/image_rom_wifi/wifi_driver/rom/lib_wifi_driver_rom.a(rom_wifi_hal_secure.o)
 .wifi.rom.bss  0x0000000020001b70        0x0 /home/weiqiang_sun/S_SDK_Repo/S_SDK_Repo_RTOS_Master_Temporary/amebagreen2_gcc_project/build/project_km4ns/asdk/make/image_rom_wifi/wifi_driver/rom/lib_wifi_driver_rom.a(rom_wifi_hal_tsf.o)
 .wifi.rom.bss  0x0000000020001b70        0x0 /home/weiqiang_sun/S_SDK_Repo/S_SDK_Repo_RTOS_Master_Temporary/amebagreen2_gcc_project/build/project_km4ns/asdk/make/image_rom_wifi/wifi_driver/rom/lib_wifi_driver_rom.a(rom_wifi_hal_txdesc.o)
 .wifi.rom.bss  0x0000000020001b70        0x0 /home/weiqiang_sun/S_SDK_Repo/S_SDK_Repo_RTOS_Master_Temporary/amebagreen2_gcc_project/build/project_km4ns/asdk/make/image_rom_wifi/wifi_driver/rom/lib_wifi_driver_rom.a(rom_wifi_hal_rxdesc.o)
 .wifi.rom.bss  0x0000000020001b70        0x0 /home/weiqiang_sun/S_SDK_Repo/S_SDK_Repo_RTOS_Master_Temporary/amebagreen2_gcc_project/build/project_km4ns/asdk/make/image_rom_wifi/wifi_driver/rom/lib_wifi_driver_rom.a(rom_rtw_queue.o)
 .wifi.rom.bss  0x0000000020001b70      0x178 /home/weiqiang_sun/S_SDK_Repo/S_SDK_Repo_RTOS_Master_Temporary/amebagreen2_gcc_project/build/project_km4ns/asdk/make/image_rom_wifi/wifi_driver/rom/lib_wifi_driver_rom.a(rom_hal_rom_to_flash.o)
                0x0000000020001b70                p_wifi_rom2flash
                0x0000000020001b74                wifi_rom2flash
 *(.wifi.rom.hal.rom.bss*)
 .wifi.rom.hal.rom.bss
                0x0000000020001ce8        0x1 /home/weiqiang_sun/S_SDK_Repo/S_SDK_Repo_RTOS_Master_Temporary/amebagreen2_gcc_project/build/project_km4ns/asdk/make/image_rom_wifi/wifi_driver/rom/lib_wifi_driver_rom.a(rom_wifi_hal_media_access.o)
                0x0000000020001ce8                wifi_rom_bss_addr_cam_en
                0x0000000020001cea                AA__wifi_share_bss_end__ = (. + 0x1)

.ram.data       0x0000000000000000        0x0
 *(.data*)
 *(.wifi.rom.data*)
 .wifi.rom.data
                0x0000000000000000        0x0 /home/weiqiang_sun/S_SDK_Repo/S_SDK_Repo_RTOS_Master_Temporary/amebagreen2_gcc_project/build/project_km4ns/asdk/make/image_rom_wifi/wifi_driver/rom/lib_wifi_driver_rom.a(rom_aes.o)
 .wifi.rom.data
                0x0000000000000000        0x0 /home/weiqiang_sun/S_SDK_Repo/S_SDK_Repo_RTOS_Master_Temporary/amebagreen2_gcc_project/build/project_km4ns/asdk/make/image_rom_wifi/wifi_driver/rom/lib_wifi_driver_rom.a(rom_arc4.o)
 .wifi.rom.data
                0x0000000000000000        0x0 /home/weiqiang_sun/S_SDK_Repo/S_SDK_Repo_RTOS_Master_Temporary/amebagreen2_gcc_project/build/project_km4ns/asdk/make/image_rom_wifi/wifi_driver/rom/lib_wifi_driver_rom.a(rom_md5.o)
 .wifi.rom.data
                0x0000000000000000        0x0 /home/weiqiang_sun/S_SDK_Repo/S_SDK_Repo_RTOS_Master_Temporary/amebagreen2_gcc_project/build/project_km4ns/asdk/make/image_rom_wifi/wifi_driver/rom/lib_wifi_driver_rom.a(rom_rc4.o)
 .wifi.rom.data
                0x0000000000000000        0x0 /home/weiqiang_sun/S_SDK_Repo/S_SDK_Repo_RTOS_Master_Temporary/amebagreen2_gcc_project/build/project_km4ns/asdk/make/image_rom_wifi/wifi_driver/rom/lib_wifi_driver_rom.a(rom_rtw_dh_groups.o)
 .wifi.rom.data
                0x0000000000000000        0x0 /home/weiqiang_sun/S_SDK_Repo/S_SDK_Repo_RTOS_Master_Temporary/amebagreen2_gcc_project/build/project_km4ns/asdk/make/image_rom_wifi/wifi_driver/rom/lib_wifi_driver_rom.a(rom_rtw_mbedtls_bignum.o)
 .wifi.rom.data
                0x0000000000000000        0x0 /home/weiqiang_sun/S_SDK_Repo/S_SDK_Repo_RTOS_Master_Temporary/amebagreen2_gcc_project/build/project_km4ns/asdk/make/image_rom_wifi/wifi_driver/rom/lib_wifi_driver_rom.a(rom_rtw_mbedtls_ecp.o)
 .wifi.rom.data
                0x0000000000000000        0x0 /home/weiqiang_sun/S_SDK_Repo/S_SDK_Repo_RTOS_Master_Temporary/amebagreen2_gcc_project/build/project_km4ns/asdk/make/image_rom_wifi/wifi_driver/rom/lib_wifi_driver_rom.a(rom_rtw_mbedtls_ecp_curves.o)
 .wifi.rom.data
                0x0000000000000000        0x0 /home/weiqiang_sun/S_SDK_Repo/S_SDK_Repo_RTOS_Master_Temporary/amebagreen2_gcc_project/build/project_km4ns/asdk/make/image_rom_wifi/wifi_driver/rom/lib_wifi_driver_rom.a(rom_rtw_mbedtls_func_map.o)
 .wifi.rom.data
                0x0000000000000000        0x0 /home/weiqiang_sun/S_SDK_Repo/S_SDK_Repo_RTOS_Master_Temporary/amebagreen2_gcc_project/build/project_km4ns/asdk/make/image_rom_wifi/wifi_driver/rom/lib_wifi_driver_rom.a(rom_rtw_mbedtls_platform.o)
 .wifi.rom.data
                0x0000000000000000        0x0 /home/weiqiang_sun/S_SDK_Repo/S_SDK_Repo_RTOS_Master_Temporary/amebagreen2_gcc_project/build/project_km4ns/asdk/make/image_rom_wifi/wifi_driver/rom/lib_wifi_driver_rom.a(rom_rtw_security.o)
 .wifi.rom.data
                0x0000000000000000        0x0 /home/weiqiang_sun/S_SDK_Repo/S_SDK_Repo_RTOS_Master_Temporary/amebagreen2_gcc_project/build/project_km4ns/asdk/make/image_rom_wifi/wifi_driver/rom/lib_wifi_driver_rom.a(rom_rtw_security_gcm.o)
 .wifi.rom.data
                0x0000000000000000        0x0 /home/weiqiang_sun/S_SDK_Repo/S_SDK_Repo_RTOS_Master_Temporary/amebagreen2_gcc_project/build/project_km4ns/asdk/make/image_rom_wifi/wifi_driver/rom/lib_wifi_driver_rom.a(rom_rtw_sha256.o)
 .wifi.rom.data
                0x0000000000000000        0x0 /home/weiqiang_sun/S_SDK_Repo/S_SDK_Repo_RTOS_Master_Temporary/amebagreen2_gcc_project/build/project_km4ns/asdk/make/image_rom_wifi/wifi_driver/rom/lib_wifi_driver_rom.a(rom_rtw_sha384.o)
 .wifi.rom.data
                0x0000000000000000        0x0 /home/weiqiang_sun/S_SDK_Repo/S_SDK_Repo_RTOS_Master_Temporary/amebagreen2_gcc_project/build/project_km4ns/asdk/make/image_rom_wifi/wifi_driver/rom/lib_wifi_driver_rom.a(rom_sha1.o)
 .wifi.rom.data
                0x0000000000000000        0x0 /home/weiqiang_sun/S_SDK_Repo/S_SDK_Repo_RTOS_Master_Temporary/amebagreen2_gcc_project/build/project_km4ns/asdk/make/image_rom_wifi/wifi_driver/rom/lib_wifi_driver_rom.a(rom_wpa_lite_part2.o)
 .wifi.rom.data
                0x0000000000000000        0x0 /home/weiqiang_sun/S_SDK_Repo/S_SDK_Repo_RTOS_Master_Temporary/amebagreen2_gcc_project/build/project_km4ns/asdk/make/image_rom_wifi/wifi_driver/rom/lib_wifi_driver_rom.a(rom_wpa_lite_psk.o)
 .wifi.rom.data
                0x0000000000000000        0x0 /home/weiqiang_sun/S_SDK_Repo/S_SDK_Repo_RTOS_Master_Temporary/amebagreen2_gcc_project/build/project_km4ns/asdk/make/image_rom_wifi/wifi_driver/rom/lib_wifi_driver_rom.a(rom_wpa_lite_sae.o)
 .wifi.rom.data
                0x0000000000000000        0x0 /home/weiqiang_sun/S_SDK_Repo/S_SDK_Repo_RTOS_Master_Temporary/amebagreen2_gcc_project/build/project_km4ns/asdk/make/image_rom_wifi/wifi_driver/rom/lib_wifi_driver_rom.a(rom_wpa_lite_sae_crypto.o)
 .wifi.rom.data
                0x0000000000000000        0x0 /home/weiqiang_sun/S_SDK_Repo/S_SDK_Repo_RTOS_Master_Temporary/amebagreen2_gcc_project/build/project_km4ns/asdk/make/image_rom_wifi/wifi_driver/rom/lib_wifi_driver_rom.a(rom_rtw_11d.o)
 .wifi.rom.data
                0x0000000000000000        0x0 /home/weiqiang_sun/S_SDK_Repo/S_SDK_Repo_RTOS_Master_Temporary/amebagreen2_gcc_project/build/project_km4ns/asdk/make/image_rom_wifi/wifi_driver/rom/lib_wifi_driver_rom.a(rom_rtw_80211w.o)
 .wifi.rom.data
                0x0000000000000000        0x0 /home/weiqiang_sun/S_SDK_Repo/S_SDK_Repo_RTOS_Master_Temporary/amebagreen2_gcc_project/build/project_km4ns/asdk/make/image_rom_wifi/wifi_driver/rom/lib_wifi_driver_rom.a(rom_rtw_action.o)
 .wifi.rom.data
                0x0000000000000000        0x0 /home/weiqiang_sun/S_SDK_Repo/S_SDK_Repo_RTOS_Master_Temporary/amebagreen2_gcc_project/build/project_km4ns/asdk/make/image_rom_wifi/wifi_driver/rom/lib_wifi_driver_rom.a(rom_rtw_assoc.o)
 .wifi.rom.data
                0x0000000000000000        0x0 /home/weiqiang_sun/S_SDK_Repo/S_SDK_Repo_RTOS_Master_Temporary/amebagreen2_gcc_project/build/project_km4ns/asdk/make/image_rom_wifi/wifi_driver/rom/lib_wifi_driver_rom.a(rom_rtw_auth.o)
 .wifi.rom.data
                0x0000000000000000        0x0 /home/weiqiang_sun/S_SDK_Repo/S_SDK_Repo_RTOS_Master_Temporary/amebagreen2_gcc_project/build/project_km4ns/asdk/make/image_rom_wifi/wifi_driver/rom/lib_wifi_driver_rom.a(rom_rtw_beacon.o)
 .wifi.rom.data
                0x0000000000000000        0x0 /home/weiqiang_sun/S_SDK_Repo/S_SDK_Repo_RTOS_Master_Temporary/amebagreen2_gcc_project/build/project_km4ns/asdk/make/image_rom_wifi/wifi_driver/rom/lib_wifi_driver_rom.a(rom_rtw_chbw.o)
 .wifi.rom.data
                0x0000000000000000        0x0 /home/weiqiang_sun/S_SDK_Repo/S_SDK_Repo_RTOS_Master_Temporary/amebagreen2_gcc_project/build/project_km4ns/asdk/make/image_rom_wifi/wifi_driver/rom/lib_wifi_driver_rom.a(rom_rtw_he.o)
 .wifi.rom.data
                0x0000000000000000        0x0 /home/weiqiang_sun/S_SDK_Repo/S_SDK_Repo_RTOS_Master_Temporary/amebagreen2_gcc_project/build/project_km4ns/asdk/make/image_rom_wifi/wifi_driver/rom/lib_wifi_driver_rom.a(rom_rtw_ieee80211.o)
 .wifi.rom.data
                0x0000000000000000        0x0 /home/weiqiang_sun/S_SDK_Repo/S_SDK_Repo_RTOS_Master_Temporary/amebagreen2_gcc_project/build/project_km4ns/asdk/make/image_rom_wifi/wifi_driver/rom/lib_wifi_driver_rom.a(rom_rtw_ieee80211_part2.o)
 .wifi.rom.data
                0x0000000000000000        0x0 /home/weiqiang_sun/S_SDK_Repo/S_SDK_Repo_RTOS_Master_Temporary/amebagreen2_gcc_project/build/project_km4ns/asdk/make/image_rom_wifi/wifi_driver/rom/lib_wifi_driver_rom.a(rom_rtw_pmksa_cache.o)
 .wifi.rom.data
                0x0000000000000000        0x0 /home/weiqiang_sun/S_SDK_Repo/S_SDK_Repo_RTOS_Master_Temporary/amebagreen2_gcc_project/build/project_km4ns/asdk/make/image_rom_wifi/wifi_driver/rom/lib_wifi_driver_rom.a(rom_rtw_probe.o)
 .wifi.rom.data
                0x0000000000000000        0x0 /home/weiqiang_sun/S_SDK_Repo/S_SDK_Repo_RTOS_Master_Temporary/amebagreen2_gcc_project/build/project_km4ns/asdk/make/image_rom_wifi/wifi_driver/rom/lib_wifi_driver_rom.a(rom_rtw_psk.o)
 .wifi.rom.data
                0x0000000000000000        0x0 /home/weiqiang_sun/S_SDK_Repo/S_SDK_Repo_RTOS_Master_Temporary/amebagreen2_gcc_project/build/project_km4ns/asdk/make/image_rom_wifi/wifi_driver/rom/lib_wifi_driver_rom.a(rom_rtw_rate.o)
 .wifi.rom.data
                0x0000000000000000        0x0 /home/weiqiang_sun/S_SDK_Repo/S_SDK_Repo_RTOS_Master_Temporary/amebagreen2_gcc_project/build/project_km4ns/asdk/make/image_rom_wifi/wifi_driver/rom/lib_wifi_driver_rom.a(rom_rtw_recv.o)
 .wifi.rom.data
                0x0000000000000000        0x0 /home/weiqiang_sun/S_SDK_Repo/S_SDK_Repo_RTOS_Master_Temporary/amebagreen2_gcc_project/build/project_km4ns/asdk/make/image_rom_wifi/wifi_driver/rom/lib_wifi_driver_rom.a(rom_rtw_rf.o)
 .wifi.rom.data
                0x0000000000000000        0x0 /home/weiqiang_sun/S_SDK_Repo/S_SDK_Repo_RTOS_Master_Temporary/amebagreen2_gcc_project/build/project_km4ns/asdk/make/image_rom_wifi/wifi_driver/rom/lib_wifi_driver_rom.a(rom_rtw_vht.o)
 .wifi.rom.data
                0x0000000000000000        0x0 /home/weiqiang_sun/S_SDK_Repo/S_SDK_Repo_RTOS_Master_Temporary/amebagreen2_gcc_project/build/project_km4ns/asdk/make/image_rom_wifi/wifi_driver/rom/lib_wifi_driver_rom.a(rom_rtw_ht.o)
 .wifi.rom.data
                0x0000000000000000        0x0 /home/weiqiang_sun/S_SDK_Repo/S_SDK_Repo_RTOS_Master_Temporary/amebagreen2_gcc_project/build/project_km4ns/asdk/make/image_rom_wifi/wifi_driver/rom/lib_wifi_driver_rom.a(rom_rtw_network.o)
 .wifi.rom.data
                0x0000000000000000        0x0 /home/weiqiang_sun/S_SDK_Repo/S_SDK_Repo_RTOS_Master_Temporary/amebagreen2_gcc_project/build/project_km4ns/asdk/make/image_rom_wifi/wifi_driver/rom/lib_wifi_driver_rom.a(rom_rtw_pmksa_cache_part2.o)
 .wifi.rom.data
                0x0000000000000000        0x0 /home/weiqiang_sun/S_SDK_Repo/S_SDK_Repo_RTOS_Master_Temporary/amebagreen2_gcc_project/build/project_km4ns/asdk/make/image_rom_wifi/wifi_driver/rom/lib_wifi_driver_rom.a(rom_rtw_11d_part2.o)
 .wifi.rom.data
                0x0000000000000000        0x0 /home/weiqiang_sun/S_SDK_Repo/S_SDK_Repo_RTOS_Master_Temporary/amebagreen2_gcc_project/build/project_km4ns/asdk/make/image_rom_wifi/wifi_driver/rom/lib_wifi_driver_rom.a(rom_rtw_he_part2.o)
 .wifi.rom.data
                0x0000000000000000        0x0 /home/weiqiang_sun/S_SDK_Repo/S_SDK_Repo_RTOS_Master_Temporary/amebagreen2_gcc_project/build/project_km4ns/asdk/make/image_rom_wifi/wifi_driver/rom/lib_wifi_driver_rom.a(rom_rtw_shortcut.o)
 .wifi.rom.data
                0x0000000000000000        0x0 /home/weiqiang_sun/S_SDK_Repo/S_SDK_Repo_RTOS_Master_Temporary/amebagreen2_gcc_project/build/project_km4ns/asdk/make/image_rom_wifi/wifi_driver/rom/lib_wifi_driver_rom.a(rom_rtw_setkey.o)
 .wifi.rom.data
                0x0000000000000000        0x0 /home/weiqiang_sun/S_SDK_Repo/S_SDK_Repo_RTOS_Master_Temporary/amebagreen2_gcc_project/build/project_km4ns/asdk/make/image_rom_wifi/wifi_driver/rom/lib_wifi_driver_rom.a(rom_rtw_beacon_part2.o)
 .wifi.rom.data
                0x0000000000000000        0x0 /home/weiqiang_sun/S_SDK_Repo/S_SDK_Repo_RTOS_Master_Temporary/amebagreen2_gcc_project/build/project_km4ns/asdk/make/image_rom_wifi/wifi_driver/rom/lib_wifi_driver_rom.a(rom_rtw_sitesurvey.o)
 .wifi.rom.data
                0x0000000000000000        0x0 /home/weiqiang_sun/S_SDK_Repo/S_SDK_Repo_RTOS_Master_Temporary/amebagreen2_gcc_project/build/project_km4ns/asdk/make/image_rom_wifi/wifi_driver/rom/lib_wifi_driver_rom.a(rom_rtw_sitesurvey_report.o)
 .wifi.rom.data
                0x0000000000000000        0x0 /home/weiqiang_sun/S_SDK_Repo/S_SDK_Repo_RTOS_Master_Temporary/amebagreen2_gcc_project/build/project_km4ns/asdk/make/image_rom_wifi/wifi_driver/rom/lib_wifi_driver_rom.a(rom_rtw_ap_xmit.o)
 .wifi.rom.data
                0x0000000000000000        0x0 /home/weiqiang_sun/S_SDK_Repo/S_SDK_Repo_RTOS_Master_Temporary/amebagreen2_gcc_project/build/project_km4ns/asdk/make/image_rom_wifi/wifi_driver/rom/lib_wifi_driver_rom.a(rom_rtw_addba.o)
 .wifi.rom.data
                0x0000000000000000        0x0 /home/weiqiang_sun/S_SDK_Repo/S_SDK_Repo_RTOS_Master_Temporary/amebagreen2_gcc_project/build/project_km4ns/asdk/make/image_rom_wifi/wifi_driver/rom/lib_wifi_driver_rom.a(rom_rtw_80211w_part2.o)
 .wifi.rom.data
                0x0000000000000000        0x0 /home/weiqiang_sun/S_SDK_Repo/S_SDK_Repo_RTOS_Master_Temporary/amebagreen2_gcc_project/build/project_km4ns/asdk/make/image_rom_wifi/wifi_driver/rom/lib_wifi_driver_rom.a(rom_rtw_auth_part2.o)
 .wifi.rom.data
                0x0000000000000000        0x0 /home/weiqiang_sun/S_SDK_Repo/S_SDK_Repo_RTOS_Master_Temporary/amebagreen2_gcc_project/build/project_km4ns/asdk/make/image_rom_wifi/wifi_driver/rom/lib_wifi_driver_rom.a(rom_rtw_action_part2.o)
 .wifi.rom.data
                0x0000000000000000        0x0 /home/weiqiang_sun/S_SDK_Repo/S_SDK_Repo_RTOS_Master_Temporary/amebagreen2_gcc_project/build/project_km4ns/asdk/make/image_rom_wifi/wifi_driver/rom/lib_wifi_driver_rom.a(rom_rtw_join.o)
 .wifi.rom.data
                0x0000000000000000        0x0 /home/weiqiang_sun/S_SDK_Repo/S_SDK_Repo_RTOS_Master_Temporary/amebagreen2_gcc_project/build/project_km4ns/asdk/make/image_rom_wifi/wifi_driver/rom/lib_wifi_driver_rom.a(rom_rtw_join_result.o)
 .wifi.rom.data
                0x0000000000000000        0x0 /home/weiqiang_sun/S_SDK_Repo/S_SDK_Repo_RTOS_Master_Temporary/amebagreen2_gcc_project/build/project_km4ns/asdk/make/image_rom_wifi/wifi_driver/rom/lib_wifi_driver_rom.a(rom_rtw_assoc_part2.o)
 .wifi.rom.data
                0x0000000000000000        0x0 /home/weiqiang_sun/S_SDK_Repo/S_SDK_Repo_RTOS_Master_Temporary/amebagreen2_gcc_project/build/project_km4ns/asdk/make/image_rom_wifi/wifi_driver/rom/lib_wifi_driver_rom.a(rom_rtw_security_part2.o)
 .wifi.rom.data
                0x0000000000000000        0x0 /home/weiqiang_sun/S_SDK_Repo/S_SDK_Repo_RTOS_Master_Temporary/amebagreen2_gcc_project/build/project_km4ns/asdk/make/image_rom_wifi/wifi_driver/rom/lib_wifi_driver_rom.a(rom_rtw_vht_part2.o)
 .wifi.rom.data
                0x0000000000000000        0x0 /home/weiqiang_sun/S_SDK_Repo/S_SDK_Repo_RTOS_Master_Temporary/amebagreen2_gcc_project/build/project_km4ns/asdk/make/image_rom_wifi/wifi_driver/rom/lib_wifi_driver_rom.a(rom_rtw_xmit.o)
 .wifi.rom.data
                0x0000000000000000        0x0 /home/weiqiang_sun/S_SDK_Repo/S_SDK_Repo_RTOS_Master_Temporary/amebagreen2_gcc_project/build/project_km4ns/asdk/make/image_rom_wifi/wifi_driver/rom/lib_wifi_driver_rom.a(rom_rtw_recv_part2.o)
 .wifi.rom.data
                0x0000000000000000        0x0 /home/weiqiang_sun/S_SDK_Repo/S_SDK_Repo_RTOS_Master_Temporary/amebagreen2_gcc_project/build/project_km4ns/asdk/make/image_rom_wifi/wifi_driver/rom/lib_wifi_driver_rom.a(rom_rtw_recv_reorder.o)
 .wifi.rom.data
                0x0000000000000000        0x0 /home/weiqiang_sun/S_SDK_Repo/S_SDK_Repo_RTOS_Master_Temporary/amebagreen2_gcc_project/build/project_km4ns/asdk/make/image_rom_wifi/wifi_driver/rom/lib_wifi_driver_rom.a(rom_rtw_mgnt.o)
 .wifi.rom.data
                0x0000000000000000        0x0 /home/weiqiang_sun/S_SDK_Repo/S_SDK_Repo_RTOS_Master_Temporary/amebagreen2_gcc_project/build/project_km4ns/asdk/make/image_rom_wifi/wifi_driver/rom/lib_wifi_driver_rom.a(rom_rtw_state.o)
 .wifi.rom.data
                0x0000000000000000        0x0 /home/weiqiang_sun/S_SDK_Repo/S_SDK_Repo_RTOS_Master_Temporary/amebagreen2_gcc_project/build/project_km4ns/asdk/make/image_rom_wifi/wifi_driver/rom/lib_wifi_driver_rom.a(rom_rtw_sta_mgt.o)
 .wifi.rom.data
                0x0000000000000000        0x0 /home/weiqiang_sun/S_SDK_Repo/S_SDK_Repo_RTOS_Master_Temporary/amebagreen2_gcc_project/build/project_km4ns/asdk/make/image_rom_wifi/wifi_driver/rom/lib_wifi_driver_rom.a(rom_rtw_ap.o)
 .wifi.rom.data
                0x0000000000000000        0x0 /home/weiqiang_sun/S_SDK_Repo/S_SDK_Repo_RTOS_Master_Temporary/amebagreen2_gcc_project/build/project_km4ns/asdk/make/image_rom_wifi/wifi_driver/rom/lib_wifi_driver_rom.a(rom_rtw_skbuff.o)
 .wifi.rom.data
                0x0000000000000000        0x0 /home/weiqiang_sun/S_SDK_Repo/S_SDK_Repo_RTOS_Master_Temporary/amebagreen2_gcc_project/build/project_km4ns/asdk/make/image_rom_wifi/wifi_driver/rom/lib_wifi_driver_rom.a(rom_hal_debug.o)
 .wifi.rom.data
                0x0000000000000000        0x0 /home/weiqiang_sun/S_SDK_Repo/S_SDK_Repo_RTOS_Master_Temporary/amebagreen2_gcc_project/build/project_km4ns/asdk/make/image_rom_wifi/wifi_driver/rom/lib_wifi_driver_rom.a(rom_hal_h2c.o)
 .wifi.rom.data
                0x0000000000000000        0x0 /home/weiqiang_sun/S_SDK_Repo/S_SDK_Repo_RTOS_Master_Temporary/amebagreen2_gcc_project/build/project_km4ns/asdk/make/image_rom_wifi/wifi_driver/rom/lib_wifi_driver_rom.a(rom_hal_h2c_g1.o)
 .wifi.rom.data
                0x0000000000000000        0x0 /home/weiqiang_sun/S_SDK_Repo/S_SDK_Repo_RTOS_Master_Temporary/amebagreen2_gcc_project/build/project_km4ns/asdk/make/image_rom_wifi/wifi_driver/rom/lib_wifi_driver_rom.a(rom_hal_recv.o)
 .wifi.rom.data
                0x0000000000000000        0x0 /home/weiqiang_sun/S_SDK_Repo/S_SDK_Repo_RTOS_Master_Temporary/amebagreen2_gcc_project/build/project_km4ns/asdk/make/image_rom_wifi/wifi_driver/rom/lib_wifi_driver_rom.a(rom_hal_structs.o)
 .wifi.rom.data
                0x0000000000000000        0x0 /home/weiqiang_sun/S_SDK_Repo/S_SDK_Repo_RTOS_Master_Temporary/amebagreen2_gcc_project/build/project_km4ns/asdk/make/image_rom_wifi/wifi_driver/rom/lib_wifi_driver_rom.a(rom_hal_xmit.o)
 .wifi.rom.data
                0x0000000000000000        0x0 /home/weiqiang_sun/S_SDK_Repo/S_SDK_Repo_RTOS_Master_Temporary/amebagreen2_gcc_project/build/project_km4ns/asdk/make/image_rom_wifi/wifi_driver/rom/lib_wifi_driver_rom.a(rom_hal_xmit_g1.o)
 .wifi.rom.data
                0x0000000000000000        0x0 /home/weiqiang_sun/S_SDK_Repo/S_SDK_Repo_RTOS_Master_Temporary/amebagreen2_gcc_project/build/project_km4ns/asdk/make/image_rom_wifi/wifi_driver/rom/lib_wifi_driver_rom.a(rom_wifi_hal_ax.o)
 .wifi.rom.data
                0x0000000000000000        0x0 /home/weiqiang_sun/S_SDK_Repo/S_SDK_Repo_RTOS_Master_Temporary/amebagreen2_gcc_project/build/project_km4ns/asdk/make/image_rom_wifi/wifi_driver/rom/lib_wifi_driver_rom.a(rom_wifi_hal_bcn.o)
 .wifi.rom.data
                0x0000000000000000        0x0 /home/weiqiang_sun/S_SDK_Repo/S_SDK_Repo_RTOS_Master_Temporary/amebagreen2_gcc_project/build/project_km4ns/asdk/make/image_rom_wifi/wifi_driver/rom/lib_wifi_driver_rom.a(rom_wifi_hal_debug.o)
 .wifi.rom.data
                0x0000000000000000        0x0 /home/weiqiang_sun/S_SDK_Repo/S_SDK_Repo_RTOS_Master_Temporary/amebagreen2_gcc_project/build/project_km4ns/asdk/make/image_rom_wifi/wifi_driver/rom/lib_wifi_driver_rom.a(rom_wifi_hal_init.o)
 .wifi.rom.data
                0x0000000000000000        0x0 /home/weiqiang_sun/S_SDK_Repo/S_SDK_Repo_RTOS_Master_Temporary/amebagreen2_gcc_project/build/project_km4ns/asdk/make/image_rom_wifi/wifi_driver/rom/lib_wifi_driver_rom.a(rom_wifi_hal_io.o)
 .wifi.rom.data
                0x0000000000000000        0x0 /home/weiqiang_sun/S_SDK_Repo/S_SDK_Repo_RTOS_Master_Temporary/amebagreen2_gcc_project/build/project_km4ns/asdk/make/image_rom_wifi/wifi_driver/rom/lib_wifi_driver_rom.a(rom_wifi_hal_media_access.o)
 .wifi.rom.data
                0x0000000000000000        0x0 /home/weiqiang_sun/S_SDK_Repo/S_SDK_Repo_RTOS_Master_Temporary/amebagreen2_gcc_project/build/project_km4ns/asdk/make/image_rom_wifi/wifi_driver/rom/lib_wifi_driver_rom.a(rom_wifi_hal_misc.o)
 .wifi.rom.data
                0x0000000000000000        0x0 /home/weiqiang_sun/S_SDK_Repo/S_SDK_Repo_RTOS_Master_Temporary/amebagreen2_gcc_project/build/project_km4ns/asdk/make/image_rom_wifi/wifi_driver/rom/lib_wifi_driver_rom.a(rom_wifi_hal_rate.o)
 .wifi.rom.data
                0x0000000000000000        0x0 /home/weiqiang_sun/S_SDK_Repo/S_SDK_Repo_RTOS_Master_Temporary/amebagreen2_gcc_project/build/project_km4ns/asdk/make/image_rom_wifi/wifi_driver/rom/lib_wifi_driver_rom.a(rom_wifi_hal_secure.o)
 .wifi.rom.data
                0x0000000000000000        0x0 /home/weiqiang_sun/S_SDK_Repo/S_SDK_Repo_RTOS_Master_Temporary/amebagreen2_gcc_project/build/project_km4ns/asdk/make/image_rom_wifi/wifi_driver/rom/lib_wifi_driver_rom.a(rom_wifi_hal_tsf.o)
 .wifi.rom.data
                0x0000000000000000        0x0 /home/weiqiang_sun/S_SDK_Repo/S_SDK_Repo_RTOS_Master_Temporary/amebagreen2_gcc_project/build/project_km4ns/asdk/make/image_rom_wifi/wifi_driver/rom/lib_wifi_driver_rom.a(rom_wifi_hal_txdesc.o)
 .wifi.rom.data
                0x0000000000000000        0x0 /home/weiqiang_sun/S_SDK_Repo/S_SDK_Repo_RTOS_Master_Temporary/amebagreen2_gcc_project/build/project_km4ns/asdk/make/image_rom_wifi/wifi_driver/rom/lib_wifi_driver_rom.a(rom_wifi_hal_rxdesc.o)
 .wifi.rom.data
                0x0000000000000000        0x0 /home/weiqiang_sun/S_SDK_Repo/S_SDK_Repo_RTOS_Master_Temporary/amebagreen2_gcc_project/build/project_km4ns/asdk/make/image_rom_wifi/wifi_driver/rom/lib_wifi_driver_rom.a(rom_rtw_queue.o)
 .wifi.rom.data
                0x0000000000000000        0x0 /home/weiqiang_sun/S_SDK_Repo/S_SDK_Repo_RTOS_Master_Temporary/amebagreen2_gcc_project/build/project_km4ns/asdk/make/image_rom_wifi/wifi_driver/rom/lib_wifi_driver_rom.a(rom_hal_rom_to_flash.o)
 *(.bss*)

.rom.text.libgcc
 *(.text*)
 *(.rodata*)
                0x0000000000000001                ASSERT ((AA__wifi_share_bss_end__ <= (AA__wifi_share_bss_start__ + 0x830)), assert: bcut wifi rom bss is out of range.)
LOAD /home/weiqiang_sun/S_SDK_Repo/S_SDK_Repo_RTOS_Master_Temporary/amebagreen2_gcc_project/build/project_km4ns/asdk/make/image_rom_wifi/wifi_driver/rom/lib_wifi_driver_rom.a
OUTPUT(/home/weiqiang_sun/S_SDK_Repo/S_SDK_Repo_RTOS_Master_Temporary/amebagreen2_gcc_project/build/project_km4ns/asdk/make/image_rom_wifi/wifi_driver/rom_wifi.o elf32-littlearm)
LOAD linker stubs

.debug_info     0x0000000000000000    0xdc0c4
 .debug_info    0x0000000000000000     0x10c5 /home/weiqiang_sun/S_SDK_Repo/S_SDK_Repo_RTOS_Master_Temporary/amebagreen2_gcc_project/build/project_km4ns/asdk/make/image_rom_wifi/wifi_driver/rom/lib_wifi_driver_rom.a(rom_aes.o)
 .debug_info    0x00000000000010c5      0x48a /home/weiqiang_sun/S_SDK_Repo/S_SDK_Repo_RTOS_Master_Temporary/amebagreen2_gcc_project/build/project_km4ns/asdk/make/image_rom_wifi/wifi_driver/rom/lib_wifi_driver_rom.a(rom_arc4.o)
 .debug_info    0x000000000000154f      0xb6a /home/weiqiang_sun/S_SDK_Repo/S_SDK_Repo_RTOS_Master_Temporary/amebagreen2_gcc_project/build/project_km4ns/asdk/make/image_rom_wifi/wifi_driver/rom/lib_wifi_driver_rom.a(rom_md5.o)
 .debug_info    0x00000000000020b9      0x280 /home/weiqiang_sun/S_SDK_Repo/S_SDK_Repo_RTOS_Master_Temporary/amebagreen2_gcc_project/build/project_km4ns/asdk/make/image_rom_wifi/wifi_driver/rom/lib_wifi_driver_rom.a(rom_rc4.o)
 .debug_info    0x0000000000002339      0x5b2 /home/weiqiang_sun/S_SDK_Repo/S_SDK_Repo_RTOS_Master_Temporary/amebagreen2_gcc_project/build/project_km4ns/asdk/make/image_rom_wifi/wifi_driver/rom/lib_wifi_driver_rom.a(rom_rtw_dh_groups.o)
 .debug_info    0x00000000000028eb     0x4d23 /home/weiqiang_sun/S_SDK_Repo/S_SDK_Repo_RTOS_Master_Temporary/amebagreen2_gcc_project/build/project_km4ns/asdk/make/image_rom_wifi/wifi_driver/rom/lib_wifi_driver_rom.a(rom_rtw_mbedtls_bignum.o)
 .debug_info    0x000000000000760e     0x5999 /home/weiqiang_sun/S_SDK_Repo/S_SDK_Repo_RTOS_Master_Temporary/amebagreen2_gcc_project/build/project_km4ns/asdk/make/image_rom_wifi/wifi_driver/rom/lib_wifi_driver_rom.a(rom_rtw_mbedtls_ecp.o)
 .debug_info    0x000000000000cfa7     0x4952 /home/weiqiang_sun/S_SDK_Repo/S_SDK_Repo_RTOS_Master_Temporary/amebagreen2_gcc_project/build/project_km4ns/asdk/make/image_rom_wifi/wifi_driver/rom/lib_wifi_driver_rom.a(rom_rtw_mbedtls_ecp_curves.o)
 .debug_info    0x00000000000118f9      0x13f /home/weiqiang_sun/S_SDK_Repo/S_SDK_Repo_RTOS_Master_Temporary/amebagreen2_gcc_project/build/project_km4ns/asdk/make/image_rom_wifi/wifi_driver/rom/lib_wifi_driver_rom.a(rom_rtw_mbedtls_func_map.o)
 .debug_info    0x0000000000011a38      0x10e /home/weiqiang_sun/S_SDK_Repo/S_SDK_Repo_RTOS_Master_Temporary/amebagreen2_gcc_project/build/project_km4ns/asdk/make/image_rom_wifi/wifi_driver/rom/lib_wifi_driver_rom.a(rom_rtw_mbedtls_platform.o)
 .debug_info    0x0000000000011b46     0x2c04 /home/weiqiang_sun/S_SDK_Repo/S_SDK_Repo_RTOS_Master_Temporary/amebagreen2_gcc_project/build/project_km4ns/asdk/make/image_rom_wifi/wifi_driver/rom/lib_wifi_driver_rom.a(rom_rtw_security.o)
 .debug_info    0x000000000001474a     0x2b2f /home/weiqiang_sun/S_SDK_Repo/S_SDK_Repo_RTOS_Master_Temporary/amebagreen2_gcc_project/build/project_km4ns/asdk/make/image_rom_wifi/wifi_driver/rom/lib_wifi_driver_rom.a(rom_rtw_security_gcm.o)
 .debug_info    0x0000000000017279      0xd39 /home/weiqiang_sun/S_SDK_Repo/S_SDK_Repo_RTOS_Master_Temporary/amebagreen2_gcc_project/build/project_km4ns/asdk/make/image_rom_wifi/wifi_driver/rom/lib_wifi_driver_rom.a(rom_rtw_sha256.o)
 .debug_info    0x0000000000017fb2      0xd4e /home/weiqiang_sun/S_SDK_Repo/S_SDK_Repo_RTOS_Master_Temporary/amebagreen2_gcc_project/build/project_km4ns/asdk/make/image_rom_wifi/wifi_driver/rom/lib_wifi_driver_rom.a(rom_rtw_sha384.o)
 .debug_info    0x0000000000018d00      0x829 /home/weiqiang_sun/S_SDK_Repo/S_SDK_Repo_RTOS_Master_Temporary/amebagreen2_gcc_project/build/project_km4ns/asdk/make/image_rom_wifi/wifi_driver/rom/lib_wifi_driver_rom.a(rom_sha1.o)
 .debug_info    0x0000000000019529     0x254a /home/weiqiang_sun/S_SDK_Repo/S_SDK_Repo_RTOS_Master_Temporary/amebagreen2_gcc_project/build/project_km4ns/asdk/make/image_rom_wifi/wifi_driver/rom/lib_wifi_driver_rom.a(rom_wpa_lite_part2.o)
 .debug_info    0x000000000001ba73     0x3067 /home/weiqiang_sun/S_SDK_Repo/S_SDK_Repo_RTOS_Master_Temporary/amebagreen2_gcc_project/build/project_km4ns/asdk/make/image_rom_wifi/wifi_driver/rom/lib_wifi_driver_rom.a(rom_wpa_lite_psk.o)
 .debug_info    0x000000000001eada     0x36f0 /home/weiqiang_sun/S_SDK_Repo/S_SDK_Repo_RTOS_Master_Temporary/amebagreen2_gcc_project/build/project_km4ns/asdk/make/image_rom_wifi/wifi_driver/rom/lib_wifi_driver_rom.a(rom_wpa_lite_sae.o)
 .debug_info    0x00000000000221ca     0x6fe2 /home/weiqiang_sun/S_SDK_Repo/S_SDK_Repo_RTOS_Master_Temporary/amebagreen2_gcc_project/build/project_km4ns/asdk/make/image_rom_wifi/wifi_driver/rom/lib_wifi_driver_rom.a(rom_wpa_lite_sae_crypto.o)
 .debug_info    0x00000000000291ac       0x80 /home/weiqiang_sun/S_SDK_Repo/S_SDK_Repo_RTOS_Master_Temporary/amebagreen2_gcc_project/build/project_km4ns/asdk/make/image_rom_wifi/wifi_driver/rom/lib_wifi_driver_rom.a(rom_rtw_11d.o)
 .debug_info    0x000000000002922c      0x9cc /home/weiqiang_sun/S_SDK_Repo/S_SDK_Repo_RTOS_Master_Temporary/amebagreen2_gcc_project/build/project_km4ns/asdk/make/image_rom_wifi/wifi_driver/rom/lib_wifi_driver_rom.a(rom_rtw_80211w.o)
 .debug_info    0x0000000000029bf8      0x39a /home/weiqiang_sun/S_SDK_Repo/S_SDK_Repo_RTOS_Master_Temporary/amebagreen2_gcc_project/build/project_km4ns/asdk/make/image_rom_wifi/wifi_driver/rom/lib_wifi_driver_rom.a(rom_rtw_action.o)
 .debug_info    0x0000000000029f92     0x1e46 /home/weiqiang_sun/S_SDK_Repo/S_SDK_Repo_RTOS_Master_Temporary/amebagreen2_gcc_project/build/project_km4ns/asdk/make/image_rom_wifi/wifi_driver/rom/lib_wifi_driver_rom.a(rom_rtw_assoc.o)
 .debug_info    0x000000000002bdd8       0xf4 /home/weiqiang_sun/S_SDK_Repo/S_SDK_Repo_RTOS_Master_Temporary/amebagreen2_gcc_project/build/project_km4ns/asdk/make/image_rom_wifi/wifi_driver/rom/lib_wifi_driver_rom.a(rom_rtw_auth.o)
 .debug_info    0x000000000002becc     0x1f4b /home/weiqiang_sun/S_SDK_Repo/S_SDK_Repo_RTOS_Master_Temporary/amebagreen2_gcc_project/build/project_km4ns/asdk/make/image_rom_wifi/wifi_driver/rom/lib_wifi_driver_rom.a(rom_rtw_beacon.o)
 .debug_info    0x000000000002de17      0x287 /home/weiqiang_sun/S_SDK_Repo/S_SDK_Repo_RTOS_Master_Temporary/amebagreen2_gcc_project/build/project_km4ns/asdk/make/image_rom_wifi/wifi_driver/rom/lib_wifi_driver_rom.a(rom_rtw_chbw.o)
 .debug_info    0x000000000002e09e      0x394 /home/weiqiang_sun/S_SDK_Repo/S_SDK_Repo_RTOS_Master_Temporary/amebagreen2_gcc_project/build/project_km4ns/asdk/make/image_rom_wifi/wifi_driver/rom/lib_wifi_driver_rom.a(rom_rtw_he.o)
 .debug_info    0x000000000002e432     0x1cd5 /home/weiqiang_sun/S_SDK_Repo/S_SDK_Repo_RTOS_Master_Temporary/amebagreen2_gcc_project/build/project_km4ns/asdk/make/image_rom_wifi/wifi_driver/rom/lib_wifi_driver_rom.a(rom_rtw_ieee80211.o)
 .debug_info    0x0000000000030107     0x25d7 /home/weiqiang_sun/S_SDK_Repo/S_SDK_Repo_RTOS_Master_Temporary/amebagreen2_gcc_project/build/project_km4ns/asdk/make/image_rom_wifi/wifi_driver/rom/lib_wifi_driver_rom.a(rom_rtw_ieee80211_part2.o)
 .debug_info    0x00000000000326de      0x7f9 /home/weiqiang_sun/S_SDK_Repo/S_SDK_Repo_RTOS_Master_Temporary/amebagreen2_gcc_project/build/project_km4ns/asdk/make/image_rom_wifi/wifi_driver/rom/lib_wifi_driver_rom.a(rom_rtw_pmksa_cache.o)
 .debug_info    0x0000000000032ed7      0x343 /home/weiqiang_sun/S_SDK_Repo/S_SDK_Repo_RTOS_Master_Temporary/amebagreen2_gcc_project/build/project_km4ns/asdk/make/image_rom_wifi/wifi_driver/rom/lib_wifi_driver_rom.a(rom_rtw_probe.o)
 .debug_info    0x000000000003321a      0x7da /home/weiqiang_sun/S_SDK_Repo/S_SDK_Repo_RTOS_Master_Temporary/amebagreen2_gcc_project/build/project_km4ns/asdk/make/image_rom_wifi/wifi_driver/rom/lib_wifi_driver_rom.a(rom_rtw_psk.o)
 .debug_info    0x00000000000339f4      0x46f /home/weiqiang_sun/S_SDK_Repo/S_SDK_Repo_RTOS_Master_Temporary/amebagreen2_gcc_project/build/project_km4ns/asdk/make/image_rom_wifi/wifi_driver/rom/lib_wifi_driver_rom.a(rom_rtw_rate.o)
 .debug_info    0x0000000000033e63      0x32c /home/weiqiang_sun/S_SDK_Repo/S_SDK_Repo_RTOS_Master_Temporary/amebagreen2_gcc_project/build/project_km4ns/asdk/make/image_rom_wifi/wifi_driver/rom/lib_wifi_driver_rom.a(rom_rtw_recv.o)
 .debug_info    0x000000000003418f      0x7a1 /home/weiqiang_sun/S_SDK_Repo/S_SDK_Repo_RTOS_Master_Temporary/amebagreen2_gcc_project/build/project_km4ns/asdk/make/image_rom_wifi/wifi_driver/rom/lib_wifi_driver_rom.a(rom_rtw_rf.o)
 .debug_info    0x0000000000034930      0x40c /home/weiqiang_sun/S_SDK_Repo/S_SDK_Repo_RTOS_Master_Temporary/amebagreen2_gcc_project/build/project_km4ns/asdk/make/image_rom_wifi/wifi_driver/rom/lib_wifi_driver_rom.a(rom_rtw_vht.o)
 .debug_info    0x0000000000034d3c     0x451f /home/weiqiang_sun/S_SDK_Repo/S_SDK_Repo_RTOS_Master_Temporary/amebagreen2_gcc_project/build/project_km4ns/asdk/make/image_rom_wifi/wifi_driver/rom/lib_wifi_driver_rom.a(rom_rtw_ht.o)
 .debug_info    0x000000000003925b     0x3d7b /home/weiqiang_sun/S_SDK_Repo/S_SDK_Repo_RTOS_Master_Temporary/amebagreen2_gcc_project/build/project_km4ns/asdk/make/image_rom_wifi/wifi_driver/rom/lib_wifi_driver_rom.a(rom_rtw_network.o)
 .debug_info    0x000000000003cfd6     0x4341 /home/weiqiang_sun/S_SDK_Repo/S_SDK_Repo_RTOS_Master_Temporary/amebagreen2_gcc_project/build/project_km4ns/asdk/make/image_rom_wifi/wifi_driver/rom/lib_wifi_driver_rom.a(rom_rtw_pmksa_cache_part2.o)
 .debug_info    0x0000000000041317     0x41d9 /home/weiqiang_sun/S_SDK_Repo/S_SDK_Repo_RTOS_Master_Temporary/amebagreen2_gcc_project/build/project_km4ns/asdk/make/image_rom_wifi/wifi_driver/rom/lib_wifi_driver_rom.a(rom_rtw_11d_part2.o)
 .debug_info    0x00000000000454f0     0x511c /home/weiqiang_sun/S_SDK_Repo/S_SDK_Repo_RTOS_Master_Temporary/amebagreen2_gcc_project/build/project_km4ns/asdk/make/image_rom_wifi/wifi_driver/rom/lib_wifi_driver_rom.a(rom_rtw_he_part2.o)
 .debug_info    0x000000000004a60c     0x4fcf /home/weiqiang_sun/S_SDK_Repo/S_SDK_Repo_RTOS_Master_Temporary/amebagreen2_gcc_project/build/project_km4ns/asdk/make/image_rom_wifi/wifi_driver/rom/lib_wifi_driver_rom.a(rom_rtw_shortcut.o)
 .debug_info    0x000000000004f5db     0x47dd /home/weiqiang_sun/S_SDK_Repo/S_SDK_Repo_RTOS_Master_Temporary/amebagreen2_gcc_project/build/project_km4ns/asdk/make/image_rom_wifi/wifi_driver/rom/lib_wifi_driver_rom.a(rom_rtw_setkey.o)
 .debug_info    0x0000000000053db8     0x568a /home/weiqiang_sun/S_SDK_Repo/S_SDK_Repo_RTOS_Master_Temporary/amebagreen2_gcc_project/build/project_km4ns/asdk/make/image_rom_wifi/wifi_driver/rom/lib_wifi_driver_rom.a(rom_rtw_beacon_part2.o)
 .debug_info    0x0000000000059442      0xa5e /home/weiqiang_sun/S_SDK_Repo/S_SDK_Repo_RTOS_Master_Temporary/amebagreen2_gcc_project/build/project_km4ns/asdk/make/image_rom_wifi/wifi_driver/rom/lib_wifi_driver_rom.a(rom_rtw_sitesurvey.o)
 .debug_info    0x0000000000059ea0     0x4cca /home/weiqiang_sun/S_SDK_Repo/S_SDK_Repo_RTOS_Master_Temporary/amebagreen2_gcc_project/build/project_km4ns/asdk/make/image_rom_wifi/wifi_driver/rom/lib_wifi_driver_rom.a(rom_rtw_sitesurvey_report.o)
 .debug_info    0x000000000005eb6a     0x5018 /home/weiqiang_sun/S_SDK_Repo/S_SDK_Repo_RTOS_Master_Temporary/amebagreen2_gcc_project/build/project_km4ns/asdk/make/image_rom_wifi/wifi_driver/rom/lib_wifi_driver_rom.a(rom_rtw_ap_xmit.o)
 .debug_info    0x0000000000063b82     0x4f8c /home/weiqiang_sun/S_SDK_Repo/S_SDK_Repo_RTOS_Master_Temporary/amebagreen2_gcc_project/build/project_km4ns/asdk/make/image_rom_wifi/wifi_driver/rom/lib_wifi_driver_rom.a(rom_rtw_addba.o)
 .debug_info    0x0000000000068b0e     0x4ab3 /home/weiqiang_sun/S_SDK_Repo/S_SDK_Repo_RTOS_Master_Temporary/amebagreen2_gcc_project/build/project_km4ns/asdk/make/image_rom_wifi/wifi_driver/rom/lib_wifi_driver_rom.a(rom_rtw_80211w_part2.o)
 .debug_info    0x000000000006d5c1     0x5ac3 /home/weiqiang_sun/S_SDK_Repo/S_SDK_Repo_RTOS_Master_Temporary/amebagreen2_gcc_project/build/project_km4ns/asdk/make/image_rom_wifi/wifi_driver/rom/lib_wifi_driver_rom.a(rom_rtw_auth_part2.o)
 .debug_info    0x0000000000073084     0x3efc /home/weiqiang_sun/S_SDK_Repo/S_SDK_Repo_RTOS_Master_Temporary/amebagreen2_gcc_project/build/project_km4ns/asdk/make/image_rom_wifi/wifi_driver/rom/lib_wifi_driver_rom.a(rom_rtw_action_part2.o)
 .debug_info    0x0000000000076f80     0x63e4 /home/weiqiang_sun/S_SDK_Repo/S_SDK_Repo_RTOS_Master_Temporary/amebagreen2_gcc_project/build/project_km4ns/asdk/make/image_rom_wifi/wifi_driver/rom/lib_wifi_driver_rom.a(rom_rtw_join.o)
 .debug_info    0x000000000007d364     0x41ab /home/weiqiang_sun/S_SDK_Repo/S_SDK_Repo_RTOS_Master_Temporary/amebagreen2_gcc_project/build/project_km4ns/asdk/make/image_rom_wifi/wifi_driver/rom/lib_wifi_driver_rom.a(rom_rtw_join_result.o)
 .debug_info    0x000000000008150f     0x7934 /home/weiqiang_sun/S_SDK_Repo/S_SDK_Repo_RTOS_Master_Temporary/amebagreen2_gcc_project/build/project_km4ns/asdk/make/image_rom_wifi/wifi_driver/rom/lib_wifi_driver_rom.a(rom_rtw_assoc_part2.o)
 .debug_info    0x0000000000088e43     0x5779 /home/weiqiang_sun/S_SDK_Repo/S_SDK_Repo_RTOS_Master_Temporary/amebagreen2_gcc_project/build/project_km4ns/asdk/make/image_rom_wifi/wifi_driver/rom/lib_wifi_driver_rom.a(rom_rtw_security_part2.o)
 .debug_info    0x000000000008e5bc     0x4b20 /home/weiqiang_sun/S_SDK_Repo/S_SDK_Repo_RTOS_Master_Temporary/amebagreen2_gcc_project/build/project_km4ns/asdk/make/image_rom_wifi/wifi_driver/rom/lib_wifi_driver_rom.a(rom_rtw_vht_part2.o)
 .debug_info    0x00000000000930dc     0x65c2 /home/weiqiang_sun/S_SDK_Repo/S_SDK_Repo_RTOS_Master_Temporary/amebagreen2_gcc_project/build/project_km4ns/asdk/make/image_rom_wifi/wifi_driver/rom/lib_wifi_driver_rom.a(rom_rtw_xmit.o)
 .debug_info    0x000000000009969e     0x669a /home/weiqiang_sun/S_SDK_Repo/S_SDK_Repo_RTOS_Master_Temporary/amebagreen2_gcc_project/build/project_km4ns/asdk/make/image_rom_wifi/wifi_driver/rom/lib_wifi_driver_rom.a(rom_rtw_recv_part2.o)
 .debug_info    0x000000000009fd38     0x448b /home/weiqiang_sun/S_SDK_Repo/S_SDK_Repo_RTOS_Master_Temporary/amebagreen2_gcc_project/build/project_km4ns/asdk/make/image_rom_wifi/wifi_driver/rom/lib_wifi_driver_rom.a(rom_rtw_recv_reorder.o)
 .debug_info    0x00000000000a41c3     0x400c /home/weiqiang_sun/S_SDK_Repo/S_SDK_Repo_RTOS_Master_Temporary/amebagreen2_gcc_project/build/project_km4ns/asdk/make/image_rom_wifi/wifi_driver/rom/lib_wifi_driver_rom.a(rom_rtw_mgnt.o)
 .debug_info    0x00000000000a81cf     0x43d6 /home/weiqiang_sun/S_SDK_Repo/S_SDK_Repo_RTOS_Master_Temporary/amebagreen2_gcc_project/build/project_km4ns/asdk/make/image_rom_wifi/wifi_driver/rom/lib_wifi_driver_rom.a(rom_rtw_state.o)
 .debug_info    0x00000000000ac5a5     0x4410 /home/weiqiang_sun/S_SDK_Repo/S_SDK_Repo_RTOS_Master_Temporary/amebagreen2_gcc_project/build/project_km4ns/asdk/make/image_rom_wifi/wifi_driver/rom/lib_wifi_driver_rom.a(rom_rtw_sta_mgt.o)
 .debug_info    0x00000000000b09b5     0x52d2 /home/weiqiang_sun/S_SDK_Repo/S_SDK_Repo_RTOS_Master_Temporary/amebagreen2_gcc_project/build/project_km4ns/asdk/make/image_rom_wifi/wifi_driver/rom/lib_wifi_driver_rom.a(rom_rtw_ap.o)
 .debug_info    0x00000000000b5c87      0xaae /home/weiqiang_sun/S_SDK_Repo/S_SDK_Repo_RTOS_Master_Temporary/amebagreen2_gcc_project/build/project_km4ns/asdk/make/image_rom_wifi/wifi_driver/rom/lib_wifi_driver_rom.a(rom_rtw_skbuff.o)
 .debug_info    0x00000000000b6735      0x91a /home/weiqiang_sun/S_SDK_Repo/S_SDK_Repo_RTOS_Master_Temporary/amebagreen2_gcc_project/build/project_km4ns/asdk/make/image_rom_wifi/wifi_driver/rom/lib_wifi_driver_rom.a(rom_hal_debug.o)
 .debug_info    0x00000000000b704f     0x4e8d /home/weiqiang_sun/S_SDK_Repo/S_SDK_Repo_RTOS_Master_Temporary/amebagreen2_gcc_project/build/project_km4ns/asdk/make/image_rom_wifi/wifi_driver/rom/lib_wifi_driver_rom.a(rom_hal_h2c.o)
 .debug_info    0x00000000000bbedc     0x4524 /home/weiqiang_sun/S_SDK_Repo/S_SDK_Repo_RTOS_Master_Temporary/amebagreen2_gcc_project/build/project_km4ns/asdk/make/image_rom_wifi/wifi_driver/rom/lib_wifi_driver_rom.a(rom_hal_h2c_g1.o)
 .debug_info    0x00000000000c0400     0x520f /home/weiqiang_sun/S_SDK_Repo/S_SDK_Repo_RTOS_Master_Temporary/amebagreen2_gcc_project/build/project_km4ns/asdk/make/image_rom_wifi/wifi_driver/rom/lib_wifi_driver_rom.a(rom_hal_recv.o)
 .debug_info    0x00000000000c560f     0x30a7 /home/weiqiang_sun/S_SDK_Repo/S_SDK_Repo_RTOS_Master_Temporary/amebagreen2_gcc_project/build/project_km4ns/asdk/make/image_rom_wifi/wifi_driver/rom/lib_wifi_driver_rom.a(rom_hal_structs.o)
 .debug_info    0x00000000000c86b6     0x5db9 /home/weiqiang_sun/S_SDK_Repo/S_SDK_Repo_RTOS_Master_Temporary/amebagreen2_gcc_project/build/project_km4ns/asdk/make/image_rom_wifi/wifi_driver/rom/lib_wifi_driver_rom.a(rom_hal_xmit.o)
 .debug_info    0x00000000000ce46f     0x4a81 /home/weiqiang_sun/S_SDK_Repo/S_SDK_Repo_RTOS_Master_Temporary/amebagreen2_gcc_project/build/project_km4ns/asdk/make/image_rom_wifi/wifi_driver/rom/lib_wifi_driver_rom.a(rom_hal_xmit_g1.o)
 .debug_info    0x00000000000d2ef0      0x54a /home/weiqiang_sun/S_SDK_Repo/S_SDK_Repo_RTOS_Master_Temporary/amebagreen2_gcc_project/build/project_km4ns/asdk/make/image_rom_wifi/wifi_driver/rom/lib_wifi_driver_rom.a(rom_wifi_hal_ax.o)
 .debug_info    0x00000000000d343a      0x265 /home/weiqiang_sun/S_SDK_Repo/S_SDK_Repo_RTOS_Master_Temporary/amebagreen2_gcc_project/build/project_km4ns/asdk/make/image_rom_wifi/wifi_driver/rom/lib_wifi_driver_rom.a(rom_wifi_hal_bcn.o)
 .debug_info    0x00000000000d369f     0x1444 /home/weiqiang_sun/S_SDK_Repo/S_SDK_Repo_RTOS_Master_Temporary/amebagreen2_gcc_project/build/project_km4ns/asdk/make/image_rom_wifi/wifi_driver/rom/lib_wifi_driver_rom.a(rom_wifi_hal_debug.o)
 .debug_info    0x00000000000d4ae3      0x8ce /home/weiqiang_sun/S_SDK_Repo/S_SDK_Repo_RTOS_Master_Temporary/amebagreen2_gcc_project/build/project_km4ns/asdk/make/image_rom_wifi/wifi_driver/rom/lib_wifi_driver_rom.a(rom_wifi_hal_init.o)
 .debug_info    0x00000000000d53b1      0x342 /home/weiqiang_sun/S_SDK_Repo/S_SDK_Repo_RTOS_Master_Temporary/amebagreen2_gcc_project/build/project_km4ns/asdk/make/image_rom_wifi/wifi_driver/rom/lib_wifi_driver_rom.a(rom_wifi_hal_io.o)
 .debug_info    0x00000000000d56f3      0xbaa /home/weiqiang_sun/S_SDK_Repo/S_SDK_Repo_RTOS_Master_Temporary/amebagreen2_gcc_project/build/project_km4ns/asdk/make/image_rom_wifi/wifi_driver/rom/lib_wifi_driver_rom.a(rom_wifi_hal_media_access.o)
 .debug_info    0x00000000000d629d     0x116e /home/weiqiang_sun/S_SDK_Repo/S_SDK_Repo_RTOS_Master_Temporary/amebagreen2_gcc_project/build/project_km4ns/asdk/make/image_rom_wifi/wifi_driver/rom/lib_wifi_driver_rom.a(rom_wifi_hal_misc.o)
 .debug_info    0x00000000000d740b      0x35e /home/weiqiang_sun/S_SDK_Repo/S_SDK_Repo_RTOS_Master_Temporary/amebagreen2_gcc_project/build/project_km4ns/asdk/make/image_rom_wifi/wifi_driver/rom/lib_wifi_driver_rom.a(rom_wifi_hal_rate.o)
 .debug_info    0x00000000000d7769      0xbbc /home/weiqiang_sun/S_SDK_Repo/S_SDK_Repo_RTOS_Master_Temporary/amebagreen2_gcc_project/build/project_km4ns/asdk/make/image_rom_wifi/wifi_driver/rom/lib_wifi_driver_rom.a(rom_wifi_hal_secure.o)
 .debug_info    0x00000000000d8325      0x311 /home/weiqiang_sun/S_SDK_Repo/S_SDK_Repo_RTOS_Master_Temporary/amebagreen2_gcc_project/build/project_km4ns/asdk/make/image_rom_wifi/wifi_driver/rom/lib_wifi_driver_rom.a(rom_wifi_hal_tsf.o)
 .debug_info    0x00000000000d8636      0xace /home/weiqiang_sun/S_SDK_Repo/S_SDK_Repo_RTOS_Master_Temporary/amebagreen2_gcc_project/build/project_km4ns/asdk/make/image_rom_wifi/wifi_driver/rom/lib_wifi_driver_rom.a(rom_wifi_hal_txdesc.o)
 .debug_info    0x00000000000d9104      0x6d5 /home/weiqiang_sun/S_SDK_Repo/S_SDK_Repo_RTOS_Master_Temporary/amebagreen2_gcc_project/build/project_km4ns/asdk/make/image_rom_wifi/wifi_driver/rom/lib_wifi_driver_rom.a(rom_wifi_hal_rxdesc.o)
 .debug_info    0x00000000000d97d9     0x1625 /home/weiqiang_sun/S_SDK_Repo/S_SDK_Repo_RTOS_Master_Temporary/amebagreen2_gcc_project/build/project_km4ns/asdk/make/image_rom_wifi/wifi_driver/rom/lib_wifi_driver_rom.a(rom_rtw_queue.o)
 .debug_info    0x00000000000dadfe     0x12c6 /home/weiqiang_sun/S_SDK_Repo/S_SDK_Repo_RTOS_Master_Temporary/amebagreen2_gcc_project/build/project_km4ns/asdk/make/image_rom_wifi/wifi_driver/rom/lib_wifi_driver_rom.a(rom_hal_rom_to_flash.o)

.debug_abbrev   0x0000000000000000    0x132e4
 .debug_abbrev  0x0000000000000000      0x2ff /home/weiqiang_sun/S_SDK_Repo/S_SDK_Repo_RTOS_Master_Temporary/amebagreen2_gcc_project/build/project_km4ns/asdk/make/image_rom_wifi/wifi_driver/rom/lib_wifi_driver_rom.a(rom_aes.o)
 .debug_abbrev  0x00000000000002ff      0x206 /home/weiqiang_sun/S_SDK_Repo/S_SDK_Repo_RTOS_Master_Temporary/amebagreen2_gcc_project/build/project_km4ns/asdk/make/image_rom_wifi/wifi_driver/rom/lib_wifi_driver_rom.a(rom_arc4.o)
 .debug_abbrev  0x0000000000000505      0x322 /home/weiqiang_sun/S_SDK_Repo/S_SDK_Repo_RTOS_Master_Temporary/amebagreen2_gcc_project/build/project_km4ns/asdk/make/image_rom_wifi/wifi_driver/rom/lib_wifi_driver_rom.a(rom_md5.o)
 .debug_abbrev  0x0000000000000827      0x14d /home/weiqiang_sun/S_SDK_Repo/S_SDK_Repo_RTOS_Master_Temporary/amebagreen2_gcc_project/build/project_km4ns/asdk/make/image_rom_wifi/wifi_driver/rom/lib_wifi_driver_rom.a(rom_rc4.o)
 .debug_abbrev  0x0000000000000974      0x170 /home/weiqiang_sun/S_SDK_Repo/S_SDK_Repo_RTOS_Master_Temporary/amebagreen2_gcc_project/build/project_km4ns/asdk/make/image_rom_wifi/wifi_driver/rom/lib_wifi_driver_rom.a(rom_rtw_dh_groups.o)
 .debug_abbrev  0x0000000000000ae4      0x545 /home/weiqiang_sun/S_SDK_Repo/S_SDK_Repo_RTOS_Master_Temporary/amebagreen2_gcc_project/build/project_km4ns/asdk/make/image_rom_wifi/wifi_driver/rom/lib_wifi_driver_rom.a(rom_rtw_mbedtls_bignum.o)
 .debug_abbrev  0x0000000000001029      0x524 /home/weiqiang_sun/S_SDK_Repo/S_SDK_Repo_RTOS_Master_Temporary/amebagreen2_gcc_project/build/project_km4ns/asdk/make/image_rom_wifi/wifi_driver/rom/lib_wifi_driver_rom.a(rom_rtw_mbedtls_ecp.o)
 .debug_abbrev  0x000000000000154d      0x359 /home/weiqiang_sun/S_SDK_Repo/S_SDK_Repo_RTOS_Master_Temporary/amebagreen2_gcc_project/build/project_km4ns/asdk/make/image_rom_wifi/wifi_driver/rom/lib_wifi_driver_rom.a(rom_rtw_mbedtls_ecp_curves.o)
 .debug_abbrev  0x00000000000018a6       0xa4 /home/weiqiang_sun/S_SDK_Repo/S_SDK_Repo_RTOS_Master_Temporary/amebagreen2_gcc_project/build/project_km4ns/asdk/make/image_rom_wifi/wifi_driver/rom/lib_wifi_driver_rom.a(rom_rtw_mbedtls_func_map.o)
 .debug_abbrev  0x000000000000194a       0xa6 /home/weiqiang_sun/S_SDK_Repo/S_SDK_Repo_RTOS_Master_Temporary/amebagreen2_gcc_project/build/project_km4ns/asdk/make/image_rom_wifi/wifi_driver/rom/lib_wifi_driver_rom.a(rom_rtw_mbedtls_platform.o)
 .debug_abbrev  0x00000000000019f0      0x543 /home/weiqiang_sun/S_SDK_Repo/S_SDK_Repo_RTOS_Master_Temporary/amebagreen2_gcc_project/build/project_km4ns/asdk/make/image_rom_wifi/wifi_driver/rom/lib_wifi_driver_rom.a(rom_rtw_security.o)
 .debug_abbrev  0x0000000000001f33      0x4b6 /home/weiqiang_sun/S_SDK_Repo/S_SDK_Repo_RTOS_Master_Temporary/amebagreen2_gcc_project/build/project_km4ns/asdk/make/image_rom_wifi/wifi_driver/rom/lib_wifi_driver_rom.a(rom_rtw_security_gcm.o)
 .debug_abbrev  0x00000000000023e9      0x31a /home/weiqiang_sun/S_SDK_Repo/S_SDK_Repo_RTOS_Master_Temporary/amebagreen2_gcc_project/build/project_km4ns/asdk/make/image_rom_wifi/wifi_driver/rom/lib_wifi_driver_rom.a(rom_rtw_sha256.o)
 .debug_abbrev  0x0000000000002703      0x352 /home/weiqiang_sun/S_SDK_Repo/S_SDK_Repo_RTOS_Master_Temporary/amebagreen2_gcc_project/build/project_km4ns/asdk/make/image_rom_wifi/wifi_driver/rom/lib_wifi_driver_rom.a(rom_rtw_sha384.o)
 .debug_abbrev  0x0000000000002a55      0x2d5 /home/weiqiang_sun/S_SDK_Repo/S_SDK_Repo_RTOS_Master_Temporary/amebagreen2_gcc_project/build/project_km4ns/asdk/make/image_rom_wifi/wifi_driver/rom/lib_wifi_driver_rom.a(rom_sha1.o)
 .debug_abbrev  0x0000000000002d2a      0x537 /home/weiqiang_sun/S_SDK_Repo/S_SDK_Repo_RTOS_Master_Temporary/amebagreen2_gcc_project/build/project_km4ns/asdk/make/image_rom_wifi/wifi_driver/rom/lib_wifi_driver_rom.a(rom_wpa_lite_part2.o)
 .debug_abbrev  0x0000000000003261      0x581 /home/weiqiang_sun/S_SDK_Repo/S_SDK_Repo_RTOS_Master_Temporary/amebagreen2_gcc_project/build/project_km4ns/asdk/make/image_rom_wifi/wifi_driver/rom/lib_wifi_driver_rom.a(rom_wpa_lite_psk.o)
 .debug_abbrev  0x00000000000037e2      0x5ef /home/weiqiang_sun/S_SDK_Repo/S_SDK_Repo_RTOS_Master_Temporary/amebagreen2_gcc_project/build/project_km4ns/asdk/make/image_rom_wifi/wifi_driver/rom/lib_wifi_driver_rom.a(rom_wpa_lite_sae.o)
 .debug_abbrev  0x0000000000003dd1      0x615 /home/weiqiang_sun/S_SDK_Repo/S_SDK_Repo_RTOS_Master_Temporary/amebagreen2_gcc_project/build/project_km4ns/asdk/make/image_rom_wifi/wifi_driver/rom/lib_wifi_driver_rom.a(rom_wpa_lite_sae_crypto.o)
 .debug_abbrev  0x00000000000043e6       0x26 /home/weiqiang_sun/S_SDK_Repo/S_SDK_Repo_RTOS_Master_Temporary/amebagreen2_gcc_project/build/project_km4ns/asdk/make/image_rom_wifi/wifi_driver/rom/lib_wifi_driver_rom.a(rom_rtw_11d.o)
 .debug_abbrev  0x000000000000440c      0x244 /home/weiqiang_sun/S_SDK_Repo/S_SDK_Repo_RTOS_Master_Temporary/amebagreen2_gcc_project/build/project_km4ns/asdk/make/image_rom_wifi/wifi_driver/rom/lib_wifi_driver_rom.a(rom_rtw_80211w.o)
 .debug_abbrev  0x0000000000004650      0x16d /home/weiqiang_sun/S_SDK_Repo/S_SDK_Repo_RTOS_Master_Temporary/amebagreen2_gcc_project/build/project_km4ns/asdk/make/image_rom_wifi/wifi_driver/rom/lib_wifi_driver_rom.a(rom_rtw_action.o)
 .debug_abbrev  0x00000000000047bd      0x31e /home/weiqiang_sun/S_SDK_Repo/S_SDK_Repo_RTOS_Master_Temporary/amebagreen2_gcc_project/build/project_km4ns/asdk/make/image_rom_wifi/wifi_driver/rom/lib_wifi_driver_rom.a(rom_rtw_assoc.o)
 .debug_abbrev  0x0000000000004adb       0x7a /home/weiqiang_sun/S_SDK_Repo/S_SDK_Repo_RTOS_Master_Temporary/amebagreen2_gcc_project/build/project_km4ns/asdk/make/image_rom_wifi/wifi_driver/rom/lib_wifi_driver_rom.a(rom_rtw_auth.o)
 .debug_abbrev  0x0000000000004b55      0x36c /home/weiqiang_sun/S_SDK_Repo/S_SDK_Repo_RTOS_Master_Temporary/amebagreen2_gcc_project/build/project_km4ns/asdk/make/image_rom_wifi/wifi_driver/rom/lib_wifi_driver_rom.a(rom_rtw_beacon.o)
 .debug_abbrev  0x0000000000004ec1      0x110 /home/weiqiang_sun/S_SDK_Repo/S_SDK_Repo_RTOS_Master_Temporary/amebagreen2_gcc_project/build/project_km4ns/asdk/make/image_rom_wifi/wifi_driver/rom/lib_wifi_driver_rom.a(rom_rtw_chbw.o)
 .debug_abbrev  0x0000000000004fd1      0x115 /home/weiqiang_sun/S_SDK_Repo/S_SDK_Repo_RTOS_Master_Temporary/amebagreen2_gcc_project/build/project_km4ns/asdk/make/image_rom_wifi/wifi_driver/rom/lib_wifi_driver_rom.a(rom_rtw_he.o)
 .debug_abbrev  0x00000000000050e6      0x42c /home/weiqiang_sun/S_SDK_Repo/S_SDK_Repo_RTOS_Master_Temporary/amebagreen2_gcc_project/build/project_km4ns/asdk/make/image_rom_wifi/wifi_driver/rom/lib_wifi_driver_rom.a(rom_rtw_ieee80211.o)
 .debug_abbrev  0x0000000000005512      0x354 /home/weiqiang_sun/S_SDK_Repo/S_SDK_Repo_RTOS_Master_Temporary/amebagreen2_gcc_project/build/project_km4ns/asdk/make/image_rom_wifi/wifi_driver/rom/lib_wifi_driver_rom.a(rom_rtw_ieee80211_part2.o)
 .debug_abbrev  0x0000000000005866      0x21f /home/weiqiang_sun/S_SDK_Repo/S_SDK_Repo_RTOS_Master_Temporary/amebagreen2_gcc_project/build/project_km4ns/asdk/make/image_rom_wifi/wifi_driver/rom/lib_wifi_driver_rom.a(rom_rtw_pmksa_cache.o)
 .debug_abbrev  0x0000000000005a85      0x12b /home/weiqiang_sun/S_SDK_Repo/S_SDK_Repo_RTOS_Master_Temporary/amebagreen2_gcc_project/build/project_km4ns/asdk/make/image_rom_wifi/wifi_driver/rom/lib_wifi_driver_rom.a(rom_rtw_probe.o)
 .debug_abbrev  0x0000000000005bb0      0x1a5 /home/weiqiang_sun/S_SDK_Repo/S_SDK_Repo_RTOS_Master_Temporary/amebagreen2_gcc_project/build/project_km4ns/asdk/make/image_rom_wifi/wifi_driver/rom/lib_wifi_driver_rom.a(rom_rtw_psk.o)
 .debug_abbrev  0x0000000000005d55      0x1b6 /home/weiqiang_sun/S_SDK_Repo/S_SDK_Repo_RTOS_Master_Temporary/amebagreen2_gcc_project/build/project_km4ns/asdk/make/image_rom_wifi/wifi_driver/rom/lib_wifi_driver_rom.a(rom_rtw_rate.o)
 .debug_abbrev  0x0000000000005f0b      0x13f /home/weiqiang_sun/S_SDK_Repo/S_SDK_Repo_RTOS_Master_Temporary/amebagreen2_gcc_project/build/project_km4ns/asdk/make/image_rom_wifi/wifi_driver/rom/lib_wifi_driver_rom.a(rom_rtw_recv.o)
 .debug_abbrev  0x000000000000604a      0x280 /home/weiqiang_sun/S_SDK_Repo/S_SDK_Repo_RTOS_Master_Temporary/amebagreen2_gcc_project/build/project_km4ns/asdk/make/image_rom_wifi/wifi_driver/rom/lib_wifi_driver_rom.a(rom_rtw_rf.o)
 .debug_abbrev  0x00000000000062ca      0x126 /home/weiqiang_sun/S_SDK_Repo/S_SDK_Repo_RTOS_Master_Temporary/amebagreen2_gcc_project/build/project_km4ns/asdk/make/image_rom_wifi/wifi_driver/rom/lib_wifi_driver_rom.a(rom_rtw_vht.o)
 .debug_abbrev  0x00000000000063f0      0x4f5 /home/weiqiang_sun/S_SDK_Repo/S_SDK_Repo_RTOS_Master_Temporary/amebagreen2_gcc_project/build/project_km4ns/asdk/make/image_rom_wifi/wifi_driver/rom/lib_wifi_driver_rom.a(rom_rtw_ht.o)
 .debug_abbrev  0x00000000000068e5      0x41c /home/weiqiang_sun/S_SDK_Repo/S_SDK_Repo_RTOS_Master_Temporary/amebagreen2_gcc_project/build/project_km4ns/asdk/make/image_rom_wifi/wifi_driver/rom/lib_wifi_driver_rom.a(rom_rtw_network.o)
 .debug_abbrev  0x0000000000006d01      0x5a6 /home/weiqiang_sun/S_SDK_Repo/S_SDK_Repo_RTOS_Master_Temporary/amebagreen2_gcc_project/build/project_km4ns/asdk/make/image_rom_wifi/wifi_driver/rom/lib_wifi_driver_rom.a(rom_rtw_pmksa_cache_part2.o)
 .debug_abbrev  0x00000000000072a7      0x49d /home/weiqiang_sun/S_SDK_Repo/S_SDK_Repo_RTOS_Master_Temporary/amebagreen2_gcc_project/build/project_km4ns/asdk/make/image_rom_wifi/wifi_driver/rom/lib_wifi_driver_rom.a(rom_rtw_11d_part2.o)
 .debug_abbrev  0x0000000000007744      0x639 /home/weiqiang_sun/S_SDK_Repo/S_SDK_Repo_RTOS_Master_Temporary/amebagreen2_gcc_project/build/project_km4ns/asdk/make/image_rom_wifi/wifi_driver/rom/lib_wifi_driver_rom.a(rom_rtw_he_part2.o)
 .debug_abbrev  0x0000000000007d7d      0x64e /home/weiqiang_sun/S_SDK_Repo/S_SDK_Repo_RTOS_Master_Temporary/amebagreen2_gcc_project/build/project_km4ns/asdk/make/image_rom_wifi/wifi_driver/rom/lib_wifi_driver_rom.a(rom_rtw_shortcut.o)
 .debug_abbrev  0x00000000000083cb      0x482 /home/weiqiang_sun/S_SDK_Repo/S_SDK_Repo_RTOS_Master_Temporary/amebagreen2_gcc_project/build/project_km4ns/asdk/make/image_rom_wifi/wifi_driver/rom/lib_wifi_driver_rom.a(rom_rtw_setkey.o)
 .debug_abbrev  0x000000000000884d      0x5e0 /home/weiqiang_sun/S_SDK_Repo/S_SDK_Repo_RTOS_Master_Temporary/amebagreen2_gcc_project/build/project_km4ns/asdk/make/image_rom_wifi/wifi_driver/rom/lib_wifi_driver_rom.a(rom_rtw_beacon_part2.o)
 .debug_abbrev  0x0000000000008e2d      0x26d /home/weiqiang_sun/S_SDK_Repo/S_SDK_Repo_RTOS_Master_Temporary/amebagreen2_gcc_project/build/project_km4ns/asdk/make/image_rom_wifi/wifi_driver/rom/lib_wifi_driver_rom.a(rom_rtw_sitesurvey.o)
 .debug_abbrev  0x000000000000909a      0x5ce /home/weiqiang_sun/S_SDK_Repo/S_SDK_Repo_RTOS_Master_Temporary/amebagreen2_gcc_project/build/project_km4ns/asdk/make/image_rom_wifi/wifi_driver/rom/lib_wifi_driver_rom.a(rom_rtw_sitesurvey_report.o)
 .debug_abbrev  0x0000000000009668      0x62d /home/weiqiang_sun/S_SDK_Repo/S_SDK_Repo_RTOS_Master_Temporary/amebagreen2_gcc_project/build/project_km4ns/asdk/make/image_rom_wifi/wifi_driver/rom/lib_wifi_driver_rom.a(rom_rtw_ap_xmit.o)
 .debug_abbrev  0x0000000000009c95      0x5ac /home/weiqiang_sun/S_SDK_Repo/S_SDK_Repo_RTOS_Master_Temporary/amebagreen2_gcc_project/build/project_km4ns/asdk/make/image_rom_wifi/wifi_driver/rom/lib_wifi_driver_rom.a(rom_rtw_addba.o)
 .debug_abbrev  0x000000000000a241      0x55b /home/weiqiang_sun/S_SDK_Repo/S_SDK_Repo_RTOS_Master_Temporary/amebagreen2_gcc_project/build/project_km4ns/asdk/make/image_rom_wifi/wifi_driver/rom/lib_wifi_driver_rom.a(rom_rtw_80211w_part2.o)
 .debug_abbrev  0x000000000000a79c      0x60a /home/weiqiang_sun/S_SDK_Repo/S_SDK_Repo_RTOS_Master_Temporary/amebagreen2_gcc_project/build/project_km4ns/asdk/make/image_rom_wifi/wifi_driver/rom/lib_wifi_driver_rom.a(rom_rtw_auth_part2.o)
 .debug_abbrev  0x000000000000ada6      0x3d7 /home/weiqiang_sun/S_SDK_Repo/S_SDK_Repo_RTOS_Master_Temporary/amebagreen2_gcc_project/build/project_km4ns/asdk/make/image_rom_wifi/wifi_driver/rom/lib_wifi_driver_rom.a(rom_rtw_action_part2.o)
 .debug_abbrev  0x000000000000b17d      0x610 /home/weiqiang_sun/S_SDK_Repo/S_SDK_Repo_RTOS_Master_Temporary/amebagreen2_gcc_project/build/project_km4ns/asdk/make/image_rom_wifi/wifi_driver/rom/lib_wifi_driver_rom.a(rom_rtw_join.o)
 .debug_abbrev  0x000000000000b78d      0x3e1 /home/weiqiang_sun/S_SDK_Repo/S_SDK_Repo_RTOS_Master_Temporary/amebagreen2_gcc_project/build/project_km4ns/asdk/make/image_rom_wifi/wifi_driver/rom/lib_wifi_driver_rom.a(rom_rtw_join_result.o)
 .debug_abbrev  0x000000000000bb6e      0x70c /home/weiqiang_sun/S_SDK_Repo/S_SDK_Repo_RTOS_Master_Temporary/amebagreen2_gcc_project/build/project_km4ns/asdk/make/image_rom_wifi/wifi_driver/rom/lib_wifi_driver_rom.a(rom_rtw_assoc_part2.o)
 .debug_abbrev  0x000000000000c27a      0x510 /home/weiqiang_sun/S_SDK_Repo/S_SDK_Repo_RTOS_Master_Temporary/amebagreen2_gcc_project/build/project_km4ns/asdk/make/image_rom_wifi/wifi_driver/rom/lib_wifi_driver_rom.a(rom_rtw_security_part2.o)
 .debug_abbrev  0x000000000000c78a      0x48e /home/weiqiang_sun/S_SDK_Repo/S_SDK_Repo_RTOS_Master_Temporary/amebagreen2_gcc_project/build/project_km4ns/asdk/make/image_rom_wifi/wifi_driver/rom/lib_wifi_driver_rom.a(rom_rtw_vht_part2.o)
 .debug_abbrev  0x000000000000cc18      0x7bc /home/weiqiang_sun/S_SDK_Repo/S_SDK_Repo_RTOS_Master_Temporary/amebagreen2_gcc_project/build/project_km4ns/asdk/make/image_rom_wifi/wifi_driver/rom/lib_wifi_driver_rom.a(rom_rtw_xmit.o)
 .debug_abbrev  0x000000000000d3d4      0x73e /home/weiqiang_sun/S_SDK_Repo/S_SDK_Repo_RTOS_Master_Temporary/amebagreen2_gcc_project/build/project_km4ns/asdk/make/image_rom_wifi/wifi_driver/rom/lib_wifi_driver_rom.a(rom_rtw_recv_part2.o)
 .debug_abbrev  0x000000000000db12      0x4ab /home/weiqiang_sun/S_SDK_Repo/S_SDK_Repo_RTOS_Master_Temporary/amebagreen2_gcc_project/build/project_km4ns/asdk/make/image_rom_wifi/wifi_driver/rom/lib_wifi_driver_rom.a(rom_rtw_recv_reorder.o)
 .debug_abbrev  0x000000000000dfbd      0x3b1 /home/weiqiang_sun/S_SDK_Repo/S_SDK_Repo_RTOS_Master_Temporary/amebagreen2_gcc_project/build/project_km4ns/asdk/make/image_rom_wifi/wifi_driver/rom/lib_wifi_driver_rom.a(rom_rtw_mgnt.o)
 .debug_abbrev  0x000000000000e36e      0x3d6 /home/weiqiang_sun/S_SDK_Repo/S_SDK_Repo_RTOS_Master_Temporary/amebagreen2_gcc_project/build/project_km4ns/asdk/make/image_rom_wifi/wifi_driver/rom/lib_wifi_driver_rom.a(rom_rtw_state.o)
 .debug_abbrev  0x000000000000e744      0x458 /home/weiqiang_sun/S_SDK_Repo/S_SDK_Repo_RTOS_Master_Temporary/amebagreen2_gcc_project/build/project_km4ns/asdk/make/image_rom_wifi/wifi_driver/rom/lib_wifi_driver_rom.a(rom_rtw_sta_mgt.o)
 .debug_abbrev  0x000000000000eb9c      0x61f /home/weiqiang_sun/S_SDK_Repo/S_SDK_Repo_RTOS_Master_Temporary/amebagreen2_gcc_project/build/project_km4ns/asdk/make/image_rom_wifi/wifi_driver/rom/lib_wifi_driver_rom.a(rom_rtw_ap.o)
 .debug_abbrev  0x000000000000f1bb      0x354 /home/weiqiang_sun/S_SDK_Repo/S_SDK_Repo_RTOS_Master_Temporary/amebagreen2_gcc_project/build/project_km4ns/asdk/make/image_rom_wifi/wifi_driver/rom/lib_wifi_driver_rom.a(rom_rtw_skbuff.o)
 .debug_abbrev  0x000000000000f50f      0x17f /home/weiqiang_sun/S_SDK_Repo/S_SDK_Repo_RTOS_Master_Temporary/amebagreen2_gcc_project/build/project_km4ns/asdk/make/image_rom_wifi/wifi_driver/rom/lib_wifi_driver_rom.a(rom_hal_debug.o)
 .debug_abbrev  0x000000000000f68e      0x510 /home/weiqiang_sun/S_SDK_Repo/S_SDK_Repo_RTOS_Master_Temporary/amebagreen2_gcc_project/build/project_km4ns/asdk/make/image_rom_wifi/wifi_driver/rom/lib_wifi_driver_rom.a(rom_hal_h2c.o)
 .debug_abbrev  0x000000000000fb9e      0x4c3 /home/weiqiang_sun/S_SDK_Repo/S_SDK_Repo_RTOS_Master_Temporary/amebagreen2_gcc_project/build/project_km4ns/asdk/make/image_rom_wifi/wifi_driver/rom/lib_wifi_driver_rom.a(rom_hal_h2c_g1.o)
 .debug_abbrev  0x0000000000010061      0x6a9 /home/weiqiang_sun/S_SDK_Repo/S_SDK_Repo_RTOS_Master_Temporary/amebagreen2_gcc_project/build/project_km4ns/asdk/make/image_rom_wifi/wifi_driver/rom/lib_wifi_driver_rom.a(rom_hal_recv.o)
 .debug_abbrev  0x000000000001070a      0x292 /home/weiqiang_sun/S_SDK_Repo/S_SDK_Repo_RTOS_Master_Temporary/amebagreen2_gcc_project/build/project_km4ns/asdk/make/image_rom_wifi/wifi_driver/rom/lib_wifi_driver_rom.a(rom_hal_structs.o)
 .debug_abbrev  0x000000000001099c      0x72c /home/weiqiang_sun/S_SDK_Repo/S_SDK_Repo_RTOS_Master_Temporary/amebagreen2_gcc_project/build/project_km4ns/asdk/make/image_rom_wifi/wifi_driver/rom/lib_wifi_driver_rom.a(rom_hal_xmit.o)
 .debug_abbrev  0x00000000000110c8      0x5a1 /home/weiqiang_sun/S_SDK_Repo/S_SDK_Repo_RTOS_Master_Temporary/amebagreen2_gcc_project/build/project_km4ns/asdk/make/image_rom_wifi/wifi_driver/rom/lib_wifi_driver_rom.a(rom_hal_xmit_g1.o)
 .debug_abbrev  0x0000000000011669      0x165 /home/weiqiang_sun/S_SDK_Repo/S_SDK_Repo_RTOS_Master_Temporary/amebagreen2_gcc_project/build/project_km4ns/asdk/make/image_rom_wifi/wifi_driver/rom/lib_wifi_driver_rom.a(rom_wifi_hal_ax.o)
 .debug_abbrev  0x00000000000117ce      0x148 /home/weiqiang_sun/S_SDK_Repo/S_SDK_Repo_RTOS_Master_Temporary/amebagreen2_gcc_project/build/project_km4ns/asdk/make/image_rom_wifi/wifi_driver/rom/lib_wifi_driver_rom.a(rom_wifi_hal_bcn.o)
 .debug_abbrev  0x0000000000011916      0x1e5 /home/weiqiang_sun/S_SDK_Repo/S_SDK_Repo_RTOS_Master_Temporary/amebagreen2_gcc_project/build/project_km4ns/asdk/make/image_rom_wifi/wifi_driver/rom/lib_wifi_driver_rom.a(rom_wifi_hal_debug.o)
 .debug_abbrev  0x0000000000011afb      0x23d /home/weiqiang_sun/S_SDK_Repo/S_SDK_Repo_RTOS_Master_Temporary/amebagreen2_gcc_project/build/project_km4ns/asdk/make/image_rom_wifi/wifi_driver/rom/lib_wifi_driver_rom.a(rom_wifi_hal_init.o)
 .debug_abbrev  0x0000000000011d38       0xf5 /home/weiqiang_sun/S_SDK_Repo/S_SDK_Repo_RTOS_Master_Temporary/amebagreen2_gcc_project/build/project_km4ns/asdk/make/image_rom_wifi/wifi_driver/rom/lib_wifi_driver_rom.a(rom_wifi_hal_io.o)
 .debug_abbrev  0x0000000000011e2d      0x366 /home/weiqiang_sun/S_SDK_Repo/S_SDK_Repo_RTOS_Master_Temporary/amebagreen2_gcc_project/build/project_km4ns/asdk/make/image_rom_wifi/wifi_driver/rom/lib_wifi_driver_rom.a(rom_wifi_hal_media_access.o)
 .debug_abbrev  0x0000000000012193      0x409 /home/weiqiang_sun/S_SDK_Repo/S_SDK_Repo_RTOS_Master_Temporary/amebagreen2_gcc_project/build/project_km4ns/asdk/make/image_rom_wifi/wifi_driver/rom/lib_wifi_driver_rom.a(rom_wifi_hal_misc.o)
 .debug_abbrev  0x000000000001259c      0x129 /home/weiqiang_sun/S_SDK_Repo/S_SDK_Repo_RTOS_Master_Temporary/amebagreen2_gcc_project/build/project_km4ns/asdk/make/image_rom_wifi/wifi_driver/rom/lib_wifi_driver_rom.a(rom_wifi_hal_rate.o)
 .debug_abbrev  0x00000000000126c5      0x2b1 /home/weiqiang_sun/S_SDK_Repo/S_SDK_Repo_RTOS_Master_Temporary/amebagreen2_gcc_project/build/project_km4ns/asdk/make/image_rom_wifi/wifi_driver/rom/lib_wifi_driver_rom.a(rom_wifi_hal_secure.o)
 .debug_abbrev  0x0000000000012976      0x156 /home/weiqiang_sun/S_SDK_Repo/S_SDK_Repo_RTOS_Master_Temporary/amebagreen2_gcc_project/build/project_km4ns/asdk/make/image_rom_wifi/wifi_driver/rom/lib_wifi_driver_rom.a(rom_wifi_hal_tsf.o)
 .debug_abbrev  0x0000000000012acc      0x1ad /home/weiqiang_sun/S_SDK_Repo/S_SDK_Repo_RTOS_Master_Temporary/amebagreen2_gcc_project/build/project_km4ns/asdk/make/image_rom_wifi/wifi_driver/rom/lib_wifi_driver_rom.a(rom_wifi_hal_txdesc.o)
 .debug_abbrev  0x0000000000012c79      0x1ca /home/weiqiang_sun/S_SDK_Repo/S_SDK_Repo_RTOS_Master_Temporary/amebagreen2_gcc_project/build/project_km4ns/asdk/make/image_rom_wifi/wifi_driver/rom/lib_wifi_driver_rom.a(rom_wifi_hal_rxdesc.o)
 .debug_abbrev  0x0000000000012e43      0x2d6 /home/weiqiang_sun/S_SDK_Repo/S_SDK_Repo_RTOS_Master_Temporary/amebagreen2_gcc_project/build/project_km4ns/asdk/make/image_rom_wifi/wifi_driver/rom/lib_wifi_driver_rom.a(rom_rtw_queue.o)
 .debug_abbrev  0x0000000000013119      0x1cb /home/weiqiang_sun/S_SDK_Repo/S_SDK_Repo_RTOS_Master_Temporary/amebagreen2_gcc_project/build/project_km4ns/asdk/make/image_rom_wifi/wifi_driver/rom/lib_wifi_driver_rom.a(rom_hal_rom_to_flash.o)

.debug_loc      0x0000000000000000    0x5371e
 .debug_loc     0x0000000000000000     0x1a45 /home/weiqiang_sun/S_SDK_Repo/S_SDK_Repo_RTOS_Master_Temporary/amebagreen2_gcc_project/build/project_km4ns/asdk/make/image_rom_wifi/wifi_driver/rom/lib_wifi_driver_rom.a(rom_aes.o)
 .debug_loc     0x0000000000001a45      0x4b3 /home/weiqiang_sun/S_SDK_Repo/S_SDK_Repo_RTOS_Master_Temporary/amebagreen2_gcc_project/build/project_km4ns/asdk/make/image_rom_wifi/wifi_driver/rom/lib_wifi_driver_rom.a(rom_arc4.o)
 .debug_loc     0x0000000000001ef8     0x162b /home/weiqiang_sun/S_SDK_Repo/S_SDK_Repo_RTOS_Master_Temporary/amebagreen2_gcc_project/build/project_km4ns/asdk/make/image_rom_wifi/wifi_driver/rom/lib_wifi_driver_rom.a(rom_md5.o)
 .debug_loc     0x0000000000003523      0x9ae /home/weiqiang_sun/S_SDK_Repo/S_SDK_Repo_RTOS_Master_Temporary/amebagreen2_gcc_project/build/project_km4ns/asdk/make/image_rom_wifi/wifi_driver/rom/lib_wifi_driver_rom.a(rom_rc4.o)
 .debug_loc     0x0000000000003ed1       0x72 /home/weiqiang_sun/S_SDK_Repo/S_SDK_Repo_RTOS_Master_Temporary/amebagreen2_gcc_project/build/project_km4ns/asdk/make/image_rom_wifi/wifi_driver/rom/lib_wifi_driver_rom.a(rom_rtw_dh_groups.o)
 .debug_loc     0x0000000000003f43     0x88fa /home/weiqiang_sun/S_SDK_Repo/S_SDK_Repo_RTOS_Master_Temporary/amebagreen2_gcc_project/build/project_km4ns/asdk/make/image_rom_wifi/wifi_driver/rom/lib_wifi_driver_rom.a(rom_rtw_mbedtls_bignum.o)
 .debug_loc     0x000000000000c83d     0x544f /home/weiqiang_sun/S_SDK_Repo/S_SDK_Repo_RTOS_Master_Temporary/amebagreen2_gcc_project/build/project_km4ns/asdk/make/image_rom_wifi/wifi_driver/rom/lib_wifi_driver_rom.a(rom_rtw_mbedtls_ecp.o)
 .debug_loc     0x0000000000011c8c     0x6bc0 /home/weiqiang_sun/S_SDK_Repo/S_SDK_Repo_RTOS_Master_Temporary/amebagreen2_gcc_project/build/project_km4ns/asdk/make/image_rom_wifi/wifi_driver/rom/lib_wifi_driver_rom.a(rom_rtw_mbedtls_ecp_curves.o)
 .debug_loc     0x000000000001884c       0x57 /home/weiqiang_sun/S_SDK_Repo/S_SDK_Repo_RTOS_Master_Temporary/amebagreen2_gcc_project/build/project_km4ns/asdk/make/image_rom_wifi/wifi_driver/rom/lib_wifi_driver_rom.a(rom_rtw_mbedtls_platform.o)
 .debug_loc     0x00000000000188a3     0x2658 /home/weiqiang_sun/S_SDK_Repo/S_SDK_Repo_RTOS_Master_Temporary/amebagreen2_gcc_project/build/project_km4ns/asdk/make/image_rom_wifi/wifi_driver/rom/lib_wifi_driver_rom.a(rom_rtw_security.o)
 .debug_loc     0x000000000001aefb     0x2958 /home/weiqiang_sun/S_SDK_Repo/S_SDK_Repo_RTOS_Master_Temporary/amebagreen2_gcc_project/build/project_km4ns/asdk/make/image_rom_wifi/wifi_driver/rom/lib_wifi_driver_rom.a(rom_rtw_security_gcm.o)
 .debug_loc     0x000000000001d853      0xc32 /home/weiqiang_sun/S_SDK_Repo/S_SDK_Repo_RTOS_Master_Temporary/amebagreen2_gcc_project/build/project_km4ns/asdk/make/image_rom_wifi/wifi_driver/rom/lib_wifi_driver_rom.a(rom_rtw_sha256.o)
 .debug_loc     0x000000000001e485      0xb8a /home/weiqiang_sun/S_SDK_Repo/S_SDK_Repo_RTOS_Master_Temporary/amebagreen2_gcc_project/build/project_km4ns/asdk/make/image_rom_wifi/wifi_driver/rom/lib_wifi_driver_rom.a(rom_rtw_sha384.o)
 .debug_loc     0x000000000001f00f      0xb83 /home/weiqiang_sun/S_SDK_Repo/S_SDK_Repo_RTOS_Master_Temporary/amebagreen2_gcc_project/build/project_km4ns/asdk/make/image_rom_wifi/wifi_driver/rom/lib_wifi_driver_rom.a(rom_sha1.o)
 .debug_loc     0x000000000001fb92     0x23d9 /home/weiqiang_sun/S_SDK_Repo/S_SDK_Repo_RTOS_Master_Temporary/amebagreen2_gcc_project/build/project_km4ns/asdk/make/image_rom_wifi/wifi_driver/rom/lib_wifi_driver_rom.a(rom_wpa_lite_part2.o)
 .debug_loc     0x0000000000021f6b     0x2816 /home/weiqiang_sun/S_SDK_Repo/S_SDK_Repo_RTOS_Master_Temporary/amebagreen2_gcc_project/build/project_km4ns/asdk/make/image_rom_wifi/wifi_driver/rom/lib_wifi_driver_rom.a(rom_wpa_lite_psk.o)
 .debug_loc     0x0000000000024781     0x2355 /home/weiqiang_sun/S_SDK_Repo/S_SDK_Repo_RTOS_Master_Temporary/amebagreen2_gcc_project/build/project_km4ns/asdk/make/image_rom_wifi/wifi_driver/rom/lib_wifi_driver_rom.a(rom_wpa_lite_sae.o)
 .debug_loc     0x0000000000026ad6     0x58e4 /home/weiqiang_sun/S_SDK_Repo/S_SDK_Repo_RTOS_Master_Temporary/amebagreen2_gcc_project/build/project_km4ns/asdk/make/image_rom_wifi/wifi_driver/rom/lib_wifi_driver_rom.a(rom_wpa_lite_sae_crypto.o)
 .debug_loc     0x000000000002c3ba      0x2b2 /home/weiqiang_sun/S_SDK_Repo/S_SDK_Repo_RTOS_Master_Temporary/amebagreen2_gcc_project/build/project_km4ns/asdk/make/image_rom_wifi/wifi_driver/rom/lib_wifi_driver_rom.a(rom_rtw_80211w.o)
 .debug_loc     0x000000000002c66c      0x3ec /home/weiqiang_sun/S_SDK_Repo/S_SDK_Repo_RTOS_Master_Temporary/amebagreen2_gcc_project/build/project_km4ns/asdk/make/image_rom_wifi/wifi_driver/rom/lib_wifi_driver_rom.a(rom_rtw_action.o)
 .debug_loc     0x000000000002ca58     0x1015 /home/weiqiang_sun/S_SDK_Repo/S_SDK_Repo_RTOS_Master_Temporary/amebagreen2_gcc_project/build/project_km4ns/asdk/make/image_rom_wifi/wifi_driver/rom/lib_wifi_driver_rom.a(rom_rtw_assoc.o)
 .debug_loc     0x000000000002da6d       0x42 /home/weiqiang_sun/S_SDK_Repo/S_SDK_Repo_RTOS_Master_Temporary/amebagreen2_gcc_project/build/project_km4ns/asdk/make/image_rom_wifi/wifi_driver/rom/lib_wifi_driver_rom.a(rom_rtw_auth.o)
 .debug_loc     0x000000000002daaf     0x1da5 /home/weiqiang_sun/S_SDK_Repo/S_SDK_Repo_RTOS_Master_Temporary/amebagreen2_gcc_project/build/project_km4ns/asdk/make/image_rom_wifi/wifi_driver/rom/lib_wifi_driver_rom.a(rom_rtw_beacon.o)
 .debug_loc     0x000000000002f854      0x670 /home/weiqiang_sun/S_SDK_Repo/S_SDK_Repo_RTOS_Master_Temporary/amebagreen2_gcc_project/build/project_km4ns/asdk/make/image_rom_wifi/wifi_driver/rom/lib_wifi_driver_rom.a(rom_rtw_chbw.o)
 .debug_loc     0x000000000002fec4      0x510 /home/weiqiang_sun/S_SDK_Repo/S_SDK_Repo_RTOS_Master_Temporary/amebagreen2_gcc_project/build/project_km4ns/asdk/make/image_rom_wifi/wifi_driver/rom/lib_wifi_driver_rom.a(rom_rtw_he.o)
 .debug_loc     0x00000000000303d4     0x21ad /home/weiqiang_sun/S_SDK_Repo/S_SDK_Repo_RTOS_Master_Temporary/amebagreen2_gcc_project/build/project_km4ns/asdk/make/image_rom_wifi/wifi_driver/rom/lib_wifi_driver_rom.a(rom_rtw_ieee80211.o)
 .debug_loc     0x0000000000032581     0x2413 /home/weiqiang_sun/S_SDK_Repo/S_SDK_Repo_RTOS_Master_Temporary/amebagreen2_gcc_project/build/project_km4ns/asdk/make/image_rom_wifi/wifi_driver/rom/lib_wifi_driver_rom.a(rom_rtw_ieee80211_part2.o)
 .debug_loc     0x0000000000034994      0x52d /home/weiqiang_sun/S_SDK_Repo/S_SDK_Repo_RTOS_Master_Temporary/amebagreen2_gcc_project/build/project_km4ns/asdk/make/image_rom_wifi/wifi_driver/rom/lib_wifi_driver_rom.a(rom_rtw_pmksa_cache.o)
 .debug_loc     0x0000000000034ec1      0x264 /home/weiqiang_sun/S_SDK_Repo/S_SDK_Repo_RTOS_Master_Temporary/amebagreen2_gcc_project/build/project_km4ns/asdk/make/image_rom_wifi/wifi_driver/rom/lib_wifi_driver_rom.a(rom_rtw_probe.o)
 .debug_loc     0x0000000000035125      0x7a5 /home/weiqiang_sun/S_SDK_Repo/S_SDK_Repo_RTOS_Master_Temporary/amebagreen2_gcc_project/build/project_km4ns/asdk/make/image_rom_wifi/wifi_driver/rom/lib_wifi_driver_rom.a(rom_rtw_psk.o)
 .debug_loc     0x00000000000358ca      0x559 /home/weiqiang_sun/S_SDK_Repo/S_SDK_Repo_RTOS_Master_Temporary/amebagreen2_gcc_project/build/project_km4ns/asdk/make/image_rom_wifi/wifi_driver/rom/lib_wifi_driver_rom.a(rom_rtw_rate.o)
 .debug_loc     0x0000000000035e23      0x2bc /home/weiqiang_sun/S_SDK_Repo/S_SDK_Repo_RTOS_Master_Temporary/amebagreen2_gcc_project/build/project_km4ns/asdk/make/image_rom_wifi/wifi_driver/rom/lib_wifi_driver_rom.a(rom_rtw_recv.o)
 .debug_loc     0x00000000000360df      0x6fb /home/weiqiang_sun/S_SDK_Repo/S_SDK_Repo_RTOS_Master_Temporary/amebagreen2_gcc_project/build/project_km4ns/asdk/make/image_rom_wifi/wifi_driver/rom/lib_wifi_driver_rom.a(rom_rtw_rf.o)
 .debug_loc     0x00000000000367da      0x6e0 /home/weiqiang_sun/S_SDK_Repo/S_SDK_Repo_RTOS_Master_Temporary/amebagreen2_gcc_project/build/project_km4ns/asdk/make/image_rom_wifi/wifi_driver/rom/lib_wifi_driver_rom.a(rom_rtw_vht.o)
 .debug_loc     0x0000000000036eba      0x853 /home/weiqiang_sun/S_SDK_Repo/S_SDK_Repo_RTOS_Master_Temporary/amebagreen2_gcc_project/build/project_km4ns/asdk/make/image_rom_wifi/wifi_driver/rom/lib_wifi_driver_rom.a(rom_rtw_ht.o)
 .debug_loc     0x000000000003770d      0x141 /home/weiqiang_sun/S_SDK_Repo/S_SDK_Repo_RTOS_Master_Temporary/amebagreen2_gcc_project/build/project_km4ns/asdk/make/image_rom_wifi/wifi_driver/rom/lib_wifi_driver_rom.a(rom_rtw_network.o)
 .debug_loc     0x000000000003784e      0x80b /home/weiqiang_sun/S_SDK_Repo/S_SDK_Repo_RTOS_Master_Temporary/amebagreen2_gcc_project/build/project_km4ns/asdk/make/image_rom_wifi/wifi_driver/rom/lib_wifi_driver_rom.a(rom_rtw_pmksa_cache_part2.o)
 .debug_loc     0x0000000000038059      0x726 /home/weiqiang_sun/S_SDK_Repo/S_SDK_Repo_RTOS_Master_Temporary/amebagreen2_gcc_project/build/project_km4ns/asdk/make/image_rom_wifi/wifi_driver/rom/lib_wifi_driver_rom.a(rom_rtw_11d_part2.o)
 .debug_loc     0x000000000003877f     0x132a /home/weiqiang_sun/S_SDK_Repo/S_SDK_Repo_RTOS_Master_Temporary/amebagreen2_gcc_project/build/project_km4ns/asdk/make/image_rom_wifi/wifi_driver/rom/lib_wifi_driver_rom.a(rom_rtw_he_part2.o)
 .debug_loc     0x0000000000039aa9     0x1258 /home/weiqiang_sun/S_SDK_Repo/S_SDK_Repo_RTOS_Master_Temporary/amebagreen2_gcc_project/build/project_km4ns/asdk/make/image_rom_wifi/wifi_driver/rom/lib_wifi_driver_rom.a(rom_rtw_shortcut.o)
 .debug_loc     0x000000000003ad01      0x916 /home/weiqiang_sun/S_SDK_Repo/S_SDK_Repo_RTOS_Master_Temporary/amebagreen2_gcc_project/build/project_km4ns/asdk/make/image_rom_wifi/wifi_driver/rom/lib_wifi_driver_rom.a(rom_rtw_setkey.o)
 .debug_loc     0x000000000003b617     0x1345 /home/weiqiang_sun/S_SDK_Repo/S_SDK_Repo_RTOS_Master_Temporary/amebagreen2_gcc_project/build/project_km4ns/asdk/make/image_rom_wifi/wifi_driver/rom/lib_wifi_driver_rom.a(rom_rtw_beacon_part2.o)
 .debug_loc     0x000000000003c95c      0x1dd /home/weiqiang_sun/S_SDK_Repo/S_SDK_Repo_RTOS_Master_Temporary/amebagreen2_gcc_project/build/project_km4ns/asdk/make/image_rom_wifi/wifi_driver/rom/lib_wifi_driver_rom.a(rom_rtw_sitesurvey.o)
 .debug_loc     0x000000000003cb39      0x989 /home/weiqiang_sun/S_SDK_Repo/S_SDK_Repo_RTOS_Master_Temporary/amebagreen2_gcc_project/build/project_km4ns/asdk/make/image_rom_wifi/wifi_driver/rom/lib_wifi_driver_rom.a(rom_rtw_sitesurvey_report.o)
 .debug_loc     0x000000000003d4c2      0x9eb /home/weiqiang_sun/S_SDK_Repo/S_SDK_Repo_RTOS_Master_Temporary/amebagreen2_gcc_project/build/project_km4ns/asdk/make/image_rom_wifi/wifi_driver/rom/lib_wifi_driver_rom.a(rom_rtw_ap_xmit.o)
 .debug_loc     0x000000000003dead      0xc2c /home/weiqiang_sun/S_SDK_Repo/S_SDK_Repo_RTOS_Master_Temporary/amebagreen2_gcc_project/build/project_km4ns/asdk/make/image_rom_wifi/wifi_driver/rom/lib_wifi_driver_rom.a(rom_rtw_addba.o)
 .debug_loc     0x000000000003ead9      0x903 /home/weiqiang_sun/S_SDK_Repo/S_SDK_Repo_RTOS_Master_Temporary/amebagreen2_gcc_project/build/project_km4ns/asdk/make/image_rom_wifi/wifi_driver/rom/lib_wifi_driver_rom.a(rom_rtw_80211w_part2.o)
 .debug_loc     0x000000000003f3dc      0xd99 /home/weiqiang_sun/S_SDK_Repo/S_SDK_Repo_RTOS_Master_Temporary/amebagreen2_gcc_project/build/project_km4ns/asdk/make/image_rom_wifi/wifi_driver/rom/lib_wifi_driver_rom.a(rom_rtw_auth_part2.o)
 .debug_loc     0x0000000000040175      0x360 /home/weiqiang_sun/S_SDK_Repo/S_SDK_Repo_RTOS_Master_Temporary/amebagreen2_gcc_project/build/project_km4ns/asdk/make/image_rom_wifi/wifi_driver/rom/lib_wifi_driver_rom.a(rom_rtw_action_part2.o)
 .debug_loc     0x00000000000404d5      0xd7c /home/weiqiang_sun/S_SDK_Repo/S_SDK_Repo_RTOS_Master_Temporary/amebagreen2_gcc_project/build/project_km4ns/asdk/make/image_rom_wifi/wifi_driver/rom/lib_wifi_driver_rom.a(rom_rtw_join.o)
 .debug_loc     0x0000000000041251      0x45d /home/weiqiang_sun/S_SDK_Repo/S_SDK_Repo_RTOS_Master_Temporary/amebagreen2_gcc_project/build/project_km4ns/asdk/make/image_rom_wifi/wifi_driver/rom/lib_wifi_driver_rom.a(rom_rtw_join_result.o)
 .debug_loc     0x00000000000416ae     0x1a3e /home/weiqiang_sun/S_SDK_Repo/S_SDK_Repo_RTOS_Master_Temporary/amebagreen2_gcc_project/build/project_km4ns/asdk/make/image_rom_wifi/wifi_driver/rom/lib_wifi_driver_rom.a(rom_rtw_assoc_part2.o)
 .debug_loc     0x00000000000430ec     0x13f9 /home/weiqiang_sun/S_SDK_Repo/S_SDK_Repo_RTOS_Master_Temporary/amebagreen2_gcc_project/build/project_km4ns/asdk/make/image_rom_wifi/wifi_driver/rom/lib_wifi_driver_rom.a(rom_rtw_security_part2.o)
 .debug_loc     0x00000000000444e5      0x528 /home/weiqiang_sun/S_SDK_Repo/S_SDK_Repo_RTOS_Master_Temporary/amebagreen2_gcc_project/build/project_km4ns/asdk/make/image_rom_wifi/wifi_driver/rom/lib_wifi_driver_rom.a(rom_rtw_vht_part2.o)
 .debug_loc     0x0000000000044a0d     0x2197 /home/weiqiang_sun/S_SDK_Repo/S_SDK_Repo_RTOS_Master_Temporary/amebagreen2_gcc_project/build/project_km4ns/asdk/make/image_rom_wifi/wifi_driver/rom/lib_wifi_driver_rom.a(rom_rtw_xmit.o)
 .debug_loc     0x0000000000046ba4     0x20ca /home/weiqiang_sun/S_SDK_Repo/S_SDK_Repo_RTOS_Master_Temporary/amebagreen2_gcc_project/build/project_km4ns/asdk/make/image_rom_wifi/wifi_driver/rom/lib_wifi_driver_rom.a(rom_rtw_recv_part2.o)
 .debug_loc     0x0000000000048c6e      0x62a /home/weiqiang_sun/S_SDK_Repo/S_SDK_Repo_RTOS_Master_Temporary/amebagreen2_gcc_project/build/project_km4ns/asdk/make/image_rom_wifi/wifi_driver/rom/lib_wifi_driver_rom.a(rom_rtw_recv_reorder.o)
 .debug_loc     0x0000000000049298       0x86 /home/weiqiang_sun/S_SDK_Repo/S_SDK_Repo_RTOS_Master_Temporary/amebagreen2_gcc_project/build/project_km4ns/asdk/make/image_rom_wifi/wifi_driver/rom/lib_wifi_driver_rom.a(rom_rtw_mgnt.o)
 .debug_loc     0x000000000004931e      0x1ba /home/weiqiang_sun/S_SDK_Repo/S_SDK_Repo_RTOS_Master_Temporary/amebagreen2_gcc_project/build/project_km4ns/asdk/make/image_rom_wifi/wifi_driver/rom/lib_wifi_driver_rom.a(rom_rtw_state.o)
 .debug_loc     0x00000000000494d8      0x437 /home/weiqiang_sun/S_SDK_Repo/S_SDK_Repo_RTOS_Master_Temporary/amebagreen2_gcc_project/build/project_km4ns/asdk/make/image_rom_wifi/wifi_driver/rom/lib_wifi_driver_rom.a(rom_rtw_sta_mgt.o)
 .debug_loc     0x000000000004990f      0x99e /home/weiqiang_sun/S_SDK_Repo/S_SDK_Repo_RTOS_Master_Temporary/amebagreen2_gcc_project/build/project_km4ns/asdk/make/image_rom_wifi/wifi_driver/rom/lib_wifi_driver_rom.a(rom_rtw_ap.o)
 .debug_loc     0x000000000004a2ad      0x3b4 /home/weiqiang_sun/S_SDK_Repo/S_SDK_Repo_RTOS_Master_Temporary/amebagreen2_gcc_project/build/project_km4ns/asdk/make/image_rom_wifi/wifi_driver/rom/lib_wifi_driver_rom.a(rom_rtw_skbuff.o)
 .debug_loc     0x000000000004a661      0x549 /home/weiqiang_sun/S_SDK_Repo/S_SDK_Repo_RTOS_Master_Temporary/amebagreen2_gcc_project/build/project_km4ns/asdk/make/image_rom_wifi/wifi_driver/rom/lib_wifi_driver_rom.a(rom_hal_debug.o)
 .debug_loc     0x000000000004abaa      0xcf0 /home/weiqiang_sun/S_SDK_Repo/S_SDK_Repo_RTOS_Master_Temporary/amebagreen2_gcc_project/build/project_km4ns/asdk/make/image_rom_wifi/wifi_driver/rom/lib_wifi_driver_rom.a(rom_hal_h2c.o)
 .debug_loc     0x000000000004b89a      0x301 /home/weiqiang_sun/S_SDK_Repo/S_SDK_Repo_RTOS_Master_Temporary/amebagreen2_gcc_project/build/project_km4ns/asdk/make/image_rom_wifi/wifi_driver/rom/lib_wifi_driver_rom.a(rom_hal_h2c_g1.o)
 .debug_loc     0x000000000004bb9b     0x13a4 /home/weiqiang_sun/S_SDK_Repo/S_SDK_Repo_RTOS_Master_Temporary/amebagreen2_gcc_project/build/project_km4ns/asdk/make/image_rom_wifi/wifi_driver/rom/lib_wifi_driver_rom.a(rom_hal_recv.o)
 .debug_loc     0x000000000004cf3f     0x1aaf /home/weiqiang_sun/S_SDK_Repo/S_SDK_Repo_RTOS_Master_Temporary/amebagreen2_gcc_project/build/project_km4ns/asdk/make/image_rom_wifi/wifi_driver/rom/lib_wifi_driver_rom.a(rom_hal_xmit.o)
 .debug_loc     0x000000000004e9ee      0xa69 /home/weiqiang_sun/S_SDK_Repo/S_SDK_Repo_RTOS_Master_Temporary/amebagreen2_gcc_project/build/project_km4ns/asdk/make/image_rom_wifi/wifi_driver/rom/lib_wifi_driver_rom.a(rom_hal_xmit_g1.o)
 .debug_loc     0x000000000004f457      0x9e0 /home/weiqiang_sun/S_SDK_Repo/S_SDK_Repo_RTOS_Master_Temporary/amebagreen2_gcc_project/build/project_km4ns/asdk/make/image_rom_wifi/wifi_driver/rom/lib_wifi_driver_rom.a(rom_wifi_hal_ax.o)
 .debug_loc     0x000000000004fe37       0xcc /home/weiqiang_sun/S_SDK_Repo/S_SDK_Repo_RTOS_Master_Temporary/amebagreen2_gcc_project/build/project_km4ns/asdk/make/image_rom_wifi/wifi_driver/rom/lib_wifi_driver_rom.a(rom_wifi_hal_bcn.o)
 .debug_loc     0x000000000004ff03      0x7bd /home/weiqiang_sun/S_SDK_Repo/S_SDK_Repo_RTOS_Master_Temporary/amebagreen2_gcc_project/build/project_km4ns/asdk/make/image_rom_wifi/wifi_driver/rom/lib_wifi_driver_rom.a(rom_wifi_hal_debug.o)
 .debug_loc     0x00000000000506c0      0x6d8 /home/weiqiang_sun/S_SDK_Repo/S_SDK_Repo_RTOS_Master_Temporary/amebagreen2_gcc_project/build/project_km4ns/asdk/make/image_rom_wifi/wifi_driver/rom/lib_wifi_driver_rom.a(rom_wifi_hal_init.o)
 .debug_loc     0x0000000000050d98      0x120 /home/weiqiang_sun/S_SDK_Repo/S_SDK_Repo_RTOS_Master_Temporary/amebagreen2_gcc_project/build/project_km4ns/asdk/make/image_rom_wifi/wifi_driver/rom/lib_wifi_driver_rom.a(rom_wifi_hal_io.o)
 .debug_loc     0x0000000000050eb8      0xb59 /home/weiqiang_sun/S_SDK_Repo/S_SDK_Repo_RTOS_Master_Temporary/amebagreen2_gcc_project/build/project_km4ns/asdk/make/image_rom_wifi/wifi_driver/rom/lib_wifi_driver_rom.a(rom_wifi_hal_media_access.o)
 .debug_loc     0x0000000000051a11      0x992 /home/weiqiang_sun/S_SDK_Repo/S_SDK_Repo_RTOS_Master_Temporary/amebagreen2_gcc_project/build/project_km4ns/asdk/make/image_rom_wifi/wifi_driver/rom/lib_wifi_driver_rom.a(rom_wifi_hal_misc.o)
 .debug_loc     0x00000000000523a3      0x58a /home/weiqiang_sun/S_SDK_Repo/S_SDK_Repo_RTOS_Master_Temporary/amebagreen2_gcc_project/build/project_km4ns/asdk/make/image_rom_wifi/wifi_driver/rom/lib_wifi_driver_rom.a(rom_wifi_hal_rate.o)
 .debug_loc     0x000000000005292d      0x395 /home/weiqiang_sun/S_SDK_Repo/S_SDK_Repo_RTOS_Master_Temporary/amebagreen2_gcc_project/build/project_km4ns/asdk/make/image_rom_wifi/wifi_driver/rom/lib_wifi_driver_rom.a(rom_wifi_hal_secure.o)
 .debug_loc     0x0000000000052cc2      0x256 /home/weiqiang_sun/S_SDK_Repo/S_SDK_Repo_RTOS_Master_Temporary/amebagreen2_gcc_project/build/project_km4ns/asdk/make/image_rom_wifi/wifi_driver/rom/lib_wifi_driver_rom.a(rom_wifi_hal_tsf.o)
 .debug_loc     0x0000000000052f18      0x4ec /home/weiqiang_sun/S_SDK_Repo/S_SDK_Repo_RTOS_Master_Temporary/amebagreen2_gcc_project/build/project_km4ns/asdk/make/image_rom_wifi/wifi_driver/rom/lib_wifi_driver_rom.a(rom_wifi_hal_txdesc.o)
 .debug_loc     0x0000000000053404      0x112 /home/weiqiang_sun/S_SDK_Repo/S_SDK_Repo_RTOS_Master_Temporary/amebagreen2_gcc_project/build/project_km4ns/asdk/make/image_rom_wifi/wifi_driver/rom/lib_wifi_driver_rom.a(rom_wifi_hal_rxdesc.o)
 .debug_loc     0x0000000000053516      0x208 /home/weiqiang_sun/S_SDK_Repo/S_SDK_Repo_RTOS_Master_Temporary/amebagreen2_gcc_project/build/project_km4ns/asdk/make/image_rom_wifi/wifi_driver/rom/lib_wifi_driver_rom.a(rom_rtw_queue.o)

.debug_aranges  0x0000000000000000      0xaf0
 .debug_aranges
                0x0000000000000000       0x20 /home/weiqiang_sun/S_SDK_Repo/S_SDK_Repo_RTOS_Master_Temporary/amebagreen2_gcc_project/build/project_km4ns/asdk/make/image_rom_wifi/wifi_driver/rom/lib_wifi_driver_rom.a(rom_aes.o)
 .debug_aranges
                0x0000000000000020       0x20 /home/weiqiang_sun/S_SDK_Repo/S_SDK_Repo_RTOS_Master_Temporary/amebagreen2_gcc_project/build/project_km4ns/asdk/make/image_rom_wifi/wifi_driver/rom/lib_wifi_driver_rom.a(rom_arc4.o)
 .debug_aranges
                0x0000000000000040       0x20 /home/weiqiang_sun/S_SDK_Repo/S_SDK_Repo_RTOS_Master_Temporary/amebagreen2_gcc_project/build/project_km4ns/asdk/make/image_rom_wifi/wifi_driver/rom/lib_wifi_driver_rom.a(rom_md5.o)
 .debug_aranges
                0x0000000000000060       0x20 /home/weiqiang_sun/S_SDK_Repo/S_SDK_Repo_RTOS_Master_Temporary/amebagreen2_gcc_project/build/project_km4ns/asdk/make/image_rom_wifi/wifi_driver/rom/lib_wifi_driver_rom.a(rom_rc4.o)
 .debug_aranges
                0x0000000000000080       0x20 /home/weiqiang_sun/S_SDK_Repo/S_SDK_Repo_RTOS_Master_Temporary/amebagreen2_gcc_project/build/project_km4ns/asdk/make/image_rom_wifi/wifi_driver/rom/lib_wifi_driver_rom.a(rom_rtw_dh_groups.o)
 .debug_aranges
                0x00000000000000a0       0x20 /home/weiqiang_sun/S_SDK_Repo/S_SDK_Repo_RTOS_Master_Temporary/amebagreen2_gcc_project/build/project_km4ns/asdk/make/image_rom_wifi/wifi_driver/rom/lib_wifi_driver_rom.a(rom_rtw_mbedtls_bignum.o)
 .debug_aranges
                0x00000000000000c0       0x20 /home/weiqiang_sun/S_SDK_Repo/S_SDK_Repo_RTOS_Master_Temporary/amebagreen2_gcc_project/build/project_km4ns/asdk/make/image_rom_wifi/wifi_driver/rom/lib_wifi_driver_rom.a(rom_rtw_mbedtls_ecp.o)
 .debug_aranges
                0x00000000000000e0       0x20 /home/weiqiang_sun/S_SDK_Repo/S_SDK_Repo_RTOS_Master_Temporary/amebagreen2_gcc_project/build/project_km4ns/asdk/make/image_rom_wifi/wifi_driver/rom/lib_wifi_driver_rom.a(rom_rtw_mbedtls_ecp_curves.o)
 .debug_aranges
                0x0000000000000100       0x18 /home/weiqiang_sun/S_SDK_Repo/S_SDK_Repo_RTOS_Master_Temporary/amebagreen2_gcc_project/build/project_km4ns/asdk/make/image_rom_wifi/wifi_driver/rom/lib_wifi_driver_rom.a(rom_rtw_mbedtls_func_map.o)
 .debug_aranges
                0x0000000000000118       0x20 /home/weiqiang_sun/S_SDK_Repo/S_SDK_Repo_RTOS_Master_Temporary/amebagreen2_gcc_project/build/project_km4ns/asdk/make/image_rom_wifi/wifi_driver/rom/lib_wifi_driver_rom.a(rom_rtw_mbedtls_platform.o)
 .debug_aranges
                0x0000000000000138       0x20 /home/weiqiang_sun/S_SDK_Repo/S_SDK_Repo_RTOS_Master_Temporary/amebagreen2_gcc_project/build/project_km4ns/asdk/make/image_rom_wifi/wifi_driver/rom/lib_wifi_driver_rom.a(rom_rtw_security.o)
 .debug_aranges
                0x0000000000000158       0x20 /home/weiqiang_sun/S_SDK_Repo/S_SDK_Repo_RTOS_Master_Temporary/amebagreen2_gcc_project/build/project_km4ns/asdk/make/image_rom_wifi/wifi_driver/rom/lib_wifi_driver_rom.a(rom_rtw_security_gcm.o)
 .debug_aranges
                0x0000000000000178       0x20 /home/weiqiang_sun/S_SDK_Repo/S_SDK_Repo_RTOS_Master_Temporary/amebagreen2_gcc_project/build/project_km4ns/asdk/make/image_rom_wifi/wifi_driver/rom/lib_wifi_driver_rom.a(rom_rtw_sha256.o)
 .debug_aranges
                0x0000000000000198       0x20 /home/weiqiang_sun/S_SDK_Repo/S_SDK_Repo_RTOS_Master_Temporary/amebagreen2_gcc_project/build/project_km4ns/asdk/make/image_rom_wifi/wifi_driver/rom/lib_wifi_driver_rom.a(rom_rtw_sha384.o)
 .debug_aranges
                0x00000000000001b8       0x20 /home/weiqiang_sun/S_SDK_Repo/S_SDK_Repo_RTOS_Master_Temporary/amebagreen2_gcc_project/build/project_km4ns/asdk/make/image_rom_wifi/wifi_driver/rom/lib_wifi_driver_rom.a(rom_sha1.o)
 .debug_aranges
                0x00000000000001d8       0x20 /home/weiqiang_sun/S_SDK_Repo/S_SDK_Repo_RTOS_Master_Temporary/amebagreen2_gcc_project/build/project_km4ns/asdk/make/image_rom_wifi/wifi_driver/rom/lib_wifi_driver_rom.a(rom_wpa_lite_part2.o)
 .debug_aranges
                0x00000000000001f8       0x20 /home/weiqiang_sun/S_SDK_Repo/S_SDK_Repo_RTOS_Master_Temporary/amebagreen2_gcc_project/build/project_km4ns/asdk/make/image_rom_wifi/wifi_driver/rom/lib_wifi_driver_rom.a(rom_wpa_lite_psk.o)
 .debug_aranges
                0x0000000000000218       0x20 /home/weiqiang_sun/S_SDK_Repo/S_SDK_Repo_RTOS_Master_Temporary/amebagreen2_gcc_project/build/project_km4ns/asdk/make/image_rom_wifi/wifi_driver/rom/lib_wifi_driver_rom.a(rom_wpa_lite_sae.o)
 .debug_aranges
                0x0000000000000238       0x20 /home/weiqiang_sun/S_SDK_Repo/S_SDK_Repo_RTOS_Master_Temporary/amebagreen2_gcc_project/build/project_km4ns/asdk/make/image_rom_wifi/wifi_driver/rom/lib_wifi_driver_rom.a(rom_wpa_lite_sae_crypto.o)
 .debug_aranges
                0x0000000000000258       0x18 /home/weiqiang_sun/S_SDK_Repo/S_SDK_Repo_RTOS_Master_Temporary/amebagreen2_gcc_project/build/project_km4ns/asdk/make/image_rom_wifi/wifi_driver/rom/lib_wifi_driver_rom.a(rom_rtw_11d.o)
 .debug_aranges
                0x0000000000000270       0x20 /home/weiqiang_sun/S_SDK_Repo/S_SDK_Repo_RTOS_Master_Temporary/amebagreen2_gcc_project/build/project_km4ns/asdk/make/image_rom_wifi/wifi_driver/rom/lib_wifi_driver_rom.a(rom_rtw_80211w.o)
 .debug_aranges
                0x0000000000000290       0x20 /home/weiqiang_sun/S_SDK_Repo/S_SDK_Repo_RTOS_Master_Temporary/amebagreen2_gcc_project/build/project_km4ns/asdk/make/image_rom_wifi/wifi_driver/rom/lib_wifi_driver_rom.a(rom_rtw_action.o)
 .debug_aranges
                0x00000000000002b0       0x20 /home/weiqiang_sun/S_SDK_Repo/S_SDK_Repo_RTOS_Master_Temporary/amebagreen2_gcc_project/build/project_km4ns/asdk/make/image_rom_wifi/wifi_driver/rom/lib_wifi_driver_rom.a(rom_rtw_assoc.o)
 .debug_aranges
                0x00000000000002d0       0x20 /home/weiqiang_sun/S_SDK_Repo/S_SDK_Repo_RTOS_Master_Temporary/amebagreen2_gcc_project/build/project_km4ns/asdk/make/image_rom_wifi/wifi_driver/rom/lib_wifi_driver_rom.a(rom_rtw_auth.o)
 .debug_aranges
                0x00000000000002f0       0x20 /home/weiqiang_sun/S_SDK_Repo/S_SDK_Repo_RTOS_Master_Temporary/amebagreen2_gcc_project/build/project_km4ns/asdk/make/image_rom_wifi/wifi_driver/rom/lib_wifi_driver_rom.a(rom_rtw_beacon.o)
 .debug_aranges
                0x0000000000000310       0x20 /home/weiqiang_sun/S_SDK_Repo/S_SDK_Repo_RTOS_Master_Temporary/amebagreen2_gcc_project/build/project_km4ns/asdk/make/image_rom_wifi/wifi_driver/rom/lib_wifi_driver_rom.a(rom_rtw_chbw.o)
 .debug_aranges
                0x0000000000000330       0x20 /home/weiqiang_sun/S_SDK_Repo/S_SDK_Repo_RTOS_Master_Temporary/amebagreen2_gcc_project/build/project_km4ns/asdk/make/image_rom_wifi/wifi_driver/rom/lib_wifi_driver_rom.a(rom_rtw_he.o)
 .debug_aranges
                0x0000000000000350       0x20 /home/weiqiang_sun/S_SDK_Repo/S_SDK_Repo_RTOS_Master_Temporary/amebagreen2_gcc_project/build/project_km4ns/asdk/make/image_rom_wifi/wifi_driver/rom/lib_wifi_driver_rom.a(rom_rtw_ieee80211.o)
 .debug_aranges
                0x0000000000000370       0x20 /home/weiqiang_sun/S_SDK_Repo/S_SDK_Repo_RTOS_Master_Temporary/amebagreen2_gcc_project/build/project_km4ns/asdk/make/image_rom_wifi/wifi_driver/rom/lib_wifi_driver_rom.a(rom_rtw_ieee80211_part2.o)
 .debug_aranges
                0x0000000000000390       0x20 /home/weiqiang_sun/S_SDK_Repo/S_SDK_Repo_RTOS_Master_Temporary/amebagreen2_gcc_project/build/project_km4ns/asdk/make/image_rom_wifi/wifi_driver/rom/lib_wifi_driver_rom.a(rom_rtw_pmksa_cache.o)
 .debug_aranges
                0x00000000000003b0       0x20 /home/weiqiang_sun/S_SDK_Repo/S_SDK_Repo_RTOS_Master_Temporary/amebagreen2_gcc_project/build/project_km4ns/asdk/make/image_rom_wifi/wifi_driver/rom/lib_wifi_driver_rom.a(rom_rtw_probe.o)
 .debug_aranges
                0x00000000000003d0       0x20 /home/weiqiang_sun/S_SDK_Repo/S_SDK_Repo_RTOS_Master_Temporary/amebagreen2_gcc_project/build/project_km4ns/asdk/make/image_rom_wifi/wifi_driver/rom/lib_wifi_driver_rom.a(rom_rtw_psk.o)
 .debug_aranges
                0x00000000000003f0       0x20 /home/weiqiang_sun/S_SDK_Repo/S_SDK_Repo_RTOS_Master_Temporary/amebagreen2_gcc_project/build/project_km4ns/asdk/make/image_rom_wifi/wifi_driver/rom/lib_wifi_driver_rom.a(rom_rtw_rate.o)
 .debug_aranges
                0x0000000000000410       0x20 /home/weiqiang_sun/S_SDK_Repo/S_SDK_Repo_RTOS_Master_Temporary/amebagreen2_gcc_project/build/project_km4ns/asdk/make/image_rom_wifi/wifi_driver/rom/lib_wifi_driver_rom.a(rom_rtw_recv.o)
 .debug_aranges
                0x0000000000000430       0x20 /home/weiqiang_sun/S_SDK_Repo/S_SDK_Repo_RTOS_Master_Temporary/amebagreen2_gcc_project/build/project_km4ns/asdk/make/image_rom_wifi/wifi_driver/rom/lib_wifi_driver_rom.a(rom_rtw_rf.o)
 .debug_aranges
                0x0000000000000450       0x20 /home/weiqiang_sun/S_SDK_Repo/S_SDK_Repo_RTOS_Master_Temporary/amebagreen2_gcc_project/build/project_km4ns/asdk/make/image_rom_wifi/wifi_driver/rom/lib_wifi_driver_rom.a(rom_rtw_vht.o)
 .debug_aranges
                0x0000000000000470       0x20 /home/weiqiang_sun/S_SDK_Repo/S_SDK_Repo_RTOS_Master_Temporary/amebagreen2_gcc_project/build/project_km4ns/asdk/make/image_rom_wifi/wifi_driver/rom/lib_wifi_driver_rom.a(rom_rtw_ht.o)
 .debug_aranges
                0x0000000000000490       0x20 /home/weiqiang_sun/S_SDK_Repo/S_SDK_Repo_RTOS_Master_Temporary/amebagreen2_gcc_project/build/project_km4ns/asdk/make/image_rom_wifi/wifi_driver/rom/lib_wifi_driver_rom.a(rom_rtw_network.o)
 .debug_aranges
                0x00000000000004b0       0x20 /home/weiqiang_sun/S_SDK_Repo/S_SDK_Repo_RTOS_Master_Temporary/amebagreen2_gcc_project/build/project_km4ns/asdk/make/image_rom_wifi/wifi_driver/rom/lib_wifi_driver_rom.a(rom_rtw_pmksa_cache_part2.o)
 .debug_aranges
                0x00000000000004d0       0x20 /home/weiqiang_sun/S_SDK_Repo/S_SDK_Repo_RTOS_Master_Temporary/amebagreen2_gcc_project/build/project_km4ns/asdk/make/image_rom_wifi/wifi_driver/rom/lib_wifi_driver_rom.a(rom_rtw_11d_part2.o)
 .debug_aranges
                0x00000000000004f0       0x20 /home/weiqiang_sun/S_SDK_Repo/S_SDK_Repo_RTOS_Master_Temporary/amebagreen2_gcc_project/build/project_km4ns/asdk/make/image_rom_wifi/wifi_driver/rom/lib_wifi_driver_rom.a(rom_rtw_he_part2.o)
 .debug_aranges
                0x0000000000000510       0x48 /home/weiqiang_sun/S_SDK_Repo/S_SDK_Repo_RTOS_Master_Temporary/amebagreen2_gcc_project/build/project_km4ns/asdk/make/image_rom_wifi/wifi_driver/rom/lib_wifi_driver_rom.a(rom_rtw_shortcut.o)
 .debug_aranges
                0x0000000000000558       0x20 /home/weiqiang_sun/S_SDK_Repo/S_SDK_Repo_RTOS_Master_Temporary/amebagreen2_gcc_project/build/project_km4ns/asdk/make/image_rom_wifi/wifi_driver/rom/lib_wifi_driver_rom.a(rom_rtw_setkey.o)
 .debug_aranges
                0x0000000000000578       0x20 /home/weiqiang_sun/S_SDK_Repo/S_SDK_Repo_RTOS_Master_Temporary/amebagreen2_gcc_project/build/project_km4ns/asdk/make/image_rom_wifi/wifi_driver/rom/lib_wifi_driver_rom.a(rom_rtw_beacon_part2.o)
 .debug_aranges
                0x0000000000000598       0x20 /home/weiqiang_sun/S_SDK_Repo/S_SDK_Repo_RTOS_Master_Temporary/amebagreen2_gcc_project/build/project_km4ns/asdk/make/image_rom_wifi/wifi_driver/rom/lib_wifi_driver_rom.a(rom_rtw_sitesurvey.o)
 .debug_aranges
                0x00000000000005b8       0x20 /home/weiqiang_sun/S_SDK_Repo/S_SDK_Repo_RTOS_Master_Temporary/amebagreen2_gcc_project/build/project_km4ns/asdk/make/image_rom_wifi/wifi_driver/rom/lib_wifi_driver_rom.a(rom_rtw_sitesurvey_report.o)
 .debug_aranges
                0x00000000000005d8       0x20 /home/weiqiang_sun/S_SDK_Repo/S_SDK_Repo_RTOS_Master_Temporary/amebagreen2_gcc_project/build/project_km4ns/asdk/make/image_rom_wifi/wifi_driver/rom/lib_wifi_driver_rom.a(rom_rtw_ap_xmit.o)
 .debug_aranges
                0x00000000000005f8       0x20 /home/weiqiang_sun/S_SDK_Repo/S_SDK_Repo_RTOS_Master_Temporary/amebagreen2_gcc_project/build/project_km4ns/asdk/make/image_rom_wifi/wifi_driver/rom/lib_wifi_driver_rom.a(rom_rtw_addba.o)
 .debug_aranges
                0x0000000000000618       0x20 /home/weiqiang_sun/S_SDK_Repo/S_SDK_Repo_RTOS_Master_Temporary/amebagreen2_gcc_project/build/project_km4ns/asdk/make/image_rom_wifi/wifi_driver/rom/lib_wifi_driver_rom.a(rom_rtw_80211w_part2.o)
 .debug_aranges
                0x0000000000000638       0x20 /home/weiqiang_sun/S_SDK_Repo/S_SDK_Repo_RTOS_Master_Temporary/amebagreen2_gcc_project/build/project_km4ns/asdk/make/image_rom_wifi/wifi_driver/rom/lib_wifi_driver_rom.a(rom_rtw_auth_part2.o)
 .debug_aranges
                0x0000000000000658       0x20 /home/weiqiang_sun/S_SDK_Repo/S_SDK_Repo_RTOS_Master_Temporary/amebagreen2_gcc_project/build/project_km4ns/asdk/make/image_rom_wifi/wifi_driver/rom/lib_wifi_driver_rom.a(rom_rtw_action_part2.o)
 .debug_aranges
                0x0000000000000678       0x20 /home/weiqiang_sun/S_SDK_Repo/S_SDK_Repo_RTOS_Master_Temporary/amebagreen2_gcc_project/build/project_km4ns/asdk/make/image_rom_wifi/wifi_driver/rom/lib_wifi_driver_rom.a(rom_rtw_join.o)
 .debug_aranges
                0x0000000000000698       0x20 /home/weiqiang_sun/S_SDK_Repo/S_SDK_Repo_RTOS_Master_Temporary/amebagreen2_gcc_project/build/project_km4ns/asdk/make/image_rom_wifi/wifi_driver/rom/lib_wifi_driver_rom.a(rom_rtw_join_result.o)
 .debug_aranges
                0x00000000000006b8       0x20 /home/weiqiang_sun/S_SDK_Repo/S_SDK_Repo_RTOS_Master_Temporary/amebagreen2_gcc_project/build/project_km4ns/asdk/make/image_rom_wifi/wifi_driver/rom/lib_wifi_driver_rom.a(rom_rtw_assoc_part2.o)
 .debug_aranges
                0x00000000000006d8       0x20 /home/weiqiang_sun/S_SDK_Repo/S_SDK_Repo_RTOS_Master_Temporary/amebagreen2_gcc_project/build/project_km4ns/asdk/make/image_rom_wifi/wifi_driver/rom/lib_wifi_driver_rom.a(rom_rtw_security_part2.o)
 .debug_aranges
                0x00000000000006f8       0x20 /home/weiqiang_sun/S_SDK_Repo/S_SDK_Repo_RTOS_Master_Temporary/amebagreen2_gcc_project/build/project_km4ns/asdk/make/image_rom_wifi/wifi_driver/rom/lib_wifi_driver_rom.a(rom_rtw_vht_part2.o)
 .debug_aranges
                0x0000000000000718       0x20 /home/weiqiang_sun/S_SDK_Repo/S_SDK_Repo_RTOS_Master_Temporary/amebagreen2_gcc_project/build/project_km4ns/asdk/make/image_rom_wifi/wifi_driver/rom/lib_wifi_driver_rom.a(rom_rtw_xmit.o)
 .debug_aranges
                0x0000000000000738       0x20 /home/weiqiang_sun/S_SDK_Repo/S_SDK_Repo_RTOS_Master_Temporary/amebagreen2_gcc_project/build/project_km4ns/asdk/make/image_rom_wifi/wifi_driver/rom/lib_wifi_driver_rom.a(rom_rtw_recv_part2.o)
 .debug_aranges
                0x0000000000000758       0x20 /home/weiqiang_sun/S_SDK_Repo/S_SDK_Repo_RTOS_Master_Temporary/amebagreen2_gcc_project/build/project_km4ns/asdk/make/image_rom_wifi/wifi_driver/rom/lib_wifi_driver_rom.a(rom_rtw_recv_reorder.o)
 .debug_aranges
                0x0000000000000778       0x20 /home/weiqiang_sun/S_SDK_Repo/S_SDK_Repo_RTOS_Master_Temporary/amebagreen2_gcc_project/build/project_km4ns/asdk/make/image_rom_wifi/wifi_driver/rom/lib_wifi_driver_rom.a(rom_rtw_mgnt.o)
 .debug_aranges
                0x0000000000000798       0x20 /home/weiqiang_sun/S_SDK_Repo/S_SDK_Repo_RTOS_Master_Temporary/amebagreen2_gcc_project/build/project_km4ns/asdk/make/image_rom_wifi/wifi_driver/rom/lib_wifi_driver_rom.a(rom_rtw_state.o)
 .debug_aranges
                0x00000000000007b8       0x20 /home/weiqiang_sun/S_SDK_Repo/S_SDK_Repo_RTOS_Master_Temporary/amebagreen2_gcc_project/build/project_km4ns/asdk/make/image_rom_wifi/wifi_driver/rom/lib_wifi_driver_rom.a(rom_rtw_sta_mgt.o)
 .debug_aranges
                0x00000000000007d8       0x20 /home/weiqiang_sun/S_SDK_Repo/S_SDK_Repo_RTOS_Master_Temporary/amebagreen2_gcc_project/build/project_km4ns/asdk/make/image_rom_wifi/wifi_driver/rom/lib_wifi_driver_rom.a(rom_rtw_ap.o)
 .debug_aranges
                0x00000000000007f8       0x20 /home/weiqiang_sun/S_SDK_Repo/S_SDK_Repo_RTOS_Master_Temporary/amebagreen2_gcc_project/build/project_km4ns/asdk/make/image_rom_wifi/wifi_driver/rom/lib_wifi_driver_rom.a(rom_rtw_skbuff.o)
 .debug_aranges
                0x0000000000000818       0x20 /home/weiqiang_sun/S_SDK_Repo/S_SDK_Repo_RTOS_Master_Temporary/amebagreen2_gcc_project/build/project_km4ns/asdk/make/image_rom_wifi/wifi_driver/rom/lib_wifi_driver_rom.a(rom_hal_debug.o)
 .debug_aranges
                0x0000000000000838       0x20 /home/weiqiang_sun/S_SDK_Repo/S_SDK_Repo_RTOS_Master_Temporary/amebagreen2_gcc_project/build/project_km4ns/asdk/make/image_rom_wifi/wifi_driver/rom/lib_wifi_driver_rom.a(rom_hal_h2c.o)
 .debug_aranges
                0x0000000000000858       0x20 /home/weiqiang_sun/S_SDK_Repo/S_SDK_Repo_RTOS_Master_Temporary/amebagreen2_gcc_project/build/project_km4ns/asdk/make/image_rom_wifi/wifi_driver/rom/lib_wifi_driver_rom.a(rom_hal_h2c_g1.o)
 .debug_aranges
                0x0000000000000878       0x30 /home/weiqiang_sun/S_SDK_Repo/S_SDK_Repo_RTOS_Master_Temporary/amebagreen2_gcc_project/build/project_km4ns/asdk/make/image_rom_wifi/wifi_driver/rom/lib_wifi_driver_rom.a(rom_hal_recv.o)
 .debug_aranges
                0x00000000000008a8       0x18 /home/weiqiang_sun/S_SDK_Repo/S_SDK_Repo_RTOS_Master_Temporary/amebagreen2_gcc_project/build/project_km4ns/asdk/make/image_rom_wifi/wifi_driver/rom/lib_wifi_driver_rom.a(rom_hal_structs.o)
 .debug_aranges
                0x00000000000008c0       0x50 /home/weiqiang_sun/S_SDK_Repo/S_SDK_Repo_RTOS_Master_Temporary/amebagreen2_gcc_project/build/project_km4ns/asdk/make/image_rom_wifi/wifi_driver/rom/lib_wifi_driver_rom.a(rom_hal_xmit.o)
 .debug_aranges
                0x0000000000000910       0x28 /home/weiqiang_sun/S_SDK_Repo/S_SDK_Repo_RTOS_Master_Temporary/amebagreen2_gcc_project/build/project_km4ns/asdk/make/image_rom_wifi/wifi_driver/rom/lib_wifi_driver_rom.a(rom_hal_xmit_g1.o)
 .debug_aranges
                0x0000000000000938       0x20 /home/weiqiang_sun/S_SDK_Repo/S_SDK_Repo_RTOS_Master_Temporary/amebagreen2_gcc_project/build/project_km4ns/asdk/make/image_rom_wifi/wifi_driver/rom/lib_wifi_driver_rom.a(rom_wifi_hal_ax.o)
 .debug_aranges
                0x0000000000000958       0x20 /home/weiqiang_sun/S_SDK_Repo/S_SDK_Repo_RTOS_Master_Temporary/amebagreen2_gcc_project/build/project_km4ns/asdk/make/image_rom_wifi/wifi_driver/rom/lib_wifi_driver_rom.a(rom_wifi_hal_bcn.o)
 .debug_aranges
                0x0000000000000978       0x20 /home/weiqiang_sun/S_SDK_Repo/S_SDK_Repo_RTOS_Master_Temporary/amebagreen2_gcc_project/build/project_km4ns/asdk/make/image_rom_wifi/wifi_driver/rom/lib_wifi_driver_rom.a(rom_wifi_hal_debug.o)
 .debug_aranges
                0x0000000000000998       0x20 /home/weiqiang_sun/S_SDK_Repo/S_SDK_Repo_RTOS_Master_Temporary/amebagreen2_gcc_project/build/project_km4ns/asdk/make/image_rom_wifi/wifi_driver/rom/lib_wifi_driver_rom.a(rom_wifi_hal_init.o)
 .debug_aranges
                0x00000000000009b8       0x20 /home/weiqiang_sun/S_SDK_Repo/S_SDK_Repo_RTOS_Master_Temporary/amebagreen2_gcc_project/build/project_km4ns/asdk/make/image_rom_wifi/wifi_driver/rom/lib_wifi_driver_rom.a(rom_wifi_hal_io.o)
 .debug_aranges
                0x00000000000009d8       0x20 /home/weiqiang_sun/S_SDK_Repo/S_SDK_Repo_RTOS_Master_Temporary/amebagreen2_gcc_project/build/project_km4ns/asdk/make/image_rom_wifi/wifi_driver/rom/lib_wifi_driver_rom.a(rom_wifi_hal_media_access.o)
 .debug_aranges
                0x00000000000009f8       0x20 /home/weiqiang_sun/S_SDK_Repo/S_SDK_Repo_RTOS_Master_Temporary/amebagreen2_gcc_project/build/project_km4ns/asdk/make/image_rom_wifi/wifi_driver/rom/lib_wifi_driver_rom.a(rom_wifi_hal_misc.o)
 .debug_aranges
                0x0000000000000a18       0x20 /home/weiqiang_sun/S_SDK_Repo/S_SDK_Repo_RTOS_Master_Temporary/amebagreen2_gcc_project/build/project_km4ns/asdk/make/image_rom_wifi/wifi_driver/rom/lib_wifi_driver_rom.a(rom_wifi_hal_rate.o)
 .debug_aranges
                0x0000000000000a38       0x20 /home/weiqiang_sun/S_SDK_Repo/S_SDK_Repo_RTOS_Master_Temporary/amebagreen2_gcc_project/build/project_km4ns/asdk/make/image_rom_wifi/wifi_driver/rom/lib_wifi_driver_rom.a(rom_wifi_hal_secure.o)
 .debug_aranges
                0x0000000000000a58       0x20 /home/weiqiang_sun/S_SDK_Repo/S_SDK_Repo_RTOS_Master_Temporary/amebagreen2_gcc_project/build/project_km4ns/asdk/make/image_rom_wifi/wifi_driver/rom/lib_wifi_driver_rom.a(rom_wifi_hal_tsf.o)
 .debug_aranges
                0x0000000000000a78       0x20 /home/weiqiang_sun/S_SDK_Repo/S_SDK_Repo_RTOS_Master_Temporary/amebagreen2_gcc_project/build/project_km4ns/asdk/make/image_rom_wifi/wifi_driver/rom/lib_wifi_driver_rom.a(rom_wifi_hal_txdesc.o)
 .debug_aranges
                0x0000000000000a98       0x20 /home/weiqiang_sun/S_SDK_Repo/S_SDK_Repo_RTOS_Master_Temporary/amebagreen2_gcc_project/build/project_km4ns/asdk/make/image_rom_wifi/wifi_driver/rom/lib_wifi_driver_rom.a(rom_wifi_hal_rxdesc.o)
 .debug_aranges
                0x0000000000000ab8       0x20 /home/weiqiang_sun/S_SDK_Repo/S_SDK_Repo_RTOS_Master_Temporary/amebagreen2_gcc_project/build/project_km4ns/asdk/make/image_rom_wifi/wifi_driver/rom/lib_wifi_driver_rom.a(rom_rtw_queue.o)
 .debug_aranges
                0x0000000000000ad8       0x18 /home/weiqiang_sun/S_SDK_Repo/S_SDK_Repo_RTOS_Master_Temporary/amebagreen2_gcc_project/build/project_km4ns/asdk/make/image_rom_wifi/wifi_driver/rom/lib_wifi_driver_rom.a(rom_hal_rom_to_flash.o)

.debug_line     0x0000000000000000    0x49fc0
 .debug_line    0x0000000000000000     0x2eda /home/weiqiang_sun/S_SDK_Repo/S_SDK_Repo_RTOS_Master_Temporary/amebagreen2_gcc_project/build/project_km4ns/asdk/make/image_rom_wifi/wifi_driver/rom/lib_wifi_driver_rom.a(rom_aes.o)
 .debug_line    0x0000000000002eda      0x419 /home/weiqiang_sun/S_SDK_Repo/S_SDK_Repo_RTOS_Master_Temporary/amebagreen2_gcc_project/build/project_km4ns/asdk/make/image_rom_wifi/wifi_driver/rom/lib_wifi_driver_rom.a(rom_arc4.o)
 .debug_line    0x00000000000032f3      0xcf6 /home/weiqiang_sun/S_SDK_Repo/S_SDK_Repo_RTOS_Master_Temporary/amebagreen2_gcc_project/build/project_km4ns/asdk/make/image_rom_wifi/wifi_driver/rom/lib_wifi_driver_rom.a(rom_md5.o)
 .debug_line    0x0000000000003fe9      0x6bc /home/weiqiang_sun/S_SDK_Repo/S_SDK_Repo_RTOS_Master_Temporary/amebagreen2_gcc_project/build/project_km4ns/asdk/make/image_rom_wifi/wifi_driver/rom/lib_wifi_driver_rom.a(rom_rc4.o)
 .debug_line    0x00000000000046a5      0x21b /home/weiqiang_sun/S_SDK_Repo/S_SDK_Repo_RTOS_Master_Temporary/amebagreen2_gcc_project/build/project_km4ns/asdk/make/image_rom_wifi/wifi_driver/rom/lib_wifi_driver_rom.a(rom_rtw_dh_groups.o)
 .debug_line    0x00000000000048c0     0x62a2 /home/weiqiang_sun/S_SDK_Repo/S_SDK_Repo_RTOS_Master_Temporary/amebagreen2_gcc_project/build/project_km4ns/asdk/make/image_rom_wifi/wifi_driver/rom/lib_wifi_driver_rom.a(rom_rtw_mbedtls_bignum.o)
 .debug_line    0x000000000000ab62     0x367c /home/weiqiang_sun/S_SDK_Repo/S_SDK_Repo_RTOS_Master_Temporary/amebagreen2_gcc_project/build/project_km4ns/asdk/make/image_rom_wifi/wifi_driver/rom/lib_wifi_driver_rom.a(rom_rtw_mbedtls_ecp.o)
 .debug_line    0x000000000000e1de     0x473d /home/weiqiang_sun/S_SDK_Repo/S_SDK_Repo_RTOS_Master_Temporary/amebagreen2_gcc_project/build/project_km4ns/asdk/make/image_rom_wifi/wifi_driver/rom/lib_wifi_driver_rom.a(rom_rtw_mbedtls_ecp_curves.o)
 .debug_line    0x000000000001291b      0x113 /home/weiqiang_sun/S_SDK_Repo/S_SDK_Repo_RTOS_Master_Temporary/amebagreen2_gcc_project/build/project_km4ns/asdk/make/image_rom_wifi/wifi_driver/rom/lib_wifi_driver_rom.a(rom_rtw_mbedtls_func_map.o)
 .debug_line    0x0000000000012a2e      0x144 /home/weiqiang_sun/S_SDK_Repo/S_SDK_Repo_RTOS_Master_Temporary/amebagreen2_gcc_project/build/project_km4ns/asdk/make/image_rom_wifi/wifi_driver/rom/lib_wifi_driver_rom.a(rom_rtw_mbedtls_platform.o)
 .debug_line    0x0000000000012b72     0x1d9c /home/weiqiang_sun/S_SDK_Repo/S_SDK_Repo_RTOS_Master_Temporary/amebagreen2_gcc_project/build/project_km4ns/asdk/make/image_rom_wifi/wifi_driver/rom/lib_wifi_driver_rom.a(rom_rtw_security.o)
 .debug_line    0x000000000001490e     0x155c /home/weiqiang_sun/S_SDK_Repo/S_SDK_Repo_RTOS_Master_Temporary/amebagreen2_gcc_project/build/project_km4ns/asdk/make/image_rom_wifi/wifi_driver/rom/lib_wifi_driver_rom.a(rom_rtw_security_gcm.o)
 .debug_line    0x0000000000015e6a      0xa67 /home/weiqiang_sun/S_SDK_Repo/S_SDK_Repo_RTOS_Master_Temporary/amebagreen2_gcc_project/build/project_km4ns/asdk/make/image_rom_wifi/wifi_driver/rom/lib_wifi_driver_rom.a(rom_rtw_sha256.o)
 .debug_line    0x00000000000168d1      0xc4f /home/weiqiang_sun/S_SDK_Repo/S_SDK_Repo_RTOS_Master_Temporary/amebagreen2_gcc_project/build/project_km4ns/asdk/make/image_rom_wifi/wifi_driver/rom/lib_wifi_driver_rom.a(rom_rtw_sha384.o)
 .debug_line    0x0000000000017520      0xa15 /home/weiqiang_sun/S_SDK_Repo/S_SDK_Repo_RTOS_Master_Temporary/amebagreen2_gcc_project/build/project_km4ns/asdk/make/image_rom_wifi/wifi_driver/rom/lib_wifi_driver_rom.a(rom_sha1.o)
 .debug_line    0x0000000000017f35     0x103d /home/weiqiang_sun/S_SDK_Repo/S_SDK_Repo_RTOS_Master_Temporary/amebagreen2_gcc_project/build/project_km4ns/asdk/make/image_rom_wifi/wifi_driver/rom/lib_wifi_driver_rom.a(rom_wpa_lite_part2.o)
 .debug_line    0x0000000000018f72     0x1183 /home/weiqiang_sun/S_SDK_Repo/S_SDK_Repo_RTOS_Master_Temporary/amebagreen2_gcc_project/build/project_km4ns/asdk/make/image_rom_wifi/wifi_driver/rom/lib_wifi_driver_rom.a(rom_wpa_lite_psk.o)
 .debug_line    0x000000000001a0f5     0x168e /home/weiqiang_sun/S_SDK_Repo/S_SDK_Repo_RTOS_Master_Temporary/amebagreen2_gcc_project/build/project_km4ns/asdk/make/image_rom_wifi/wifi_driver/rom/lib_wifi_driver_rom.a(rom_wpa_lite_sae.o)
 .debug_line    0x000000000001b783     0x238c /home/weiqiang_sun/S_SDK_Repo/S_SDK_Repo_RTOS_Master_Temporary/amebagreen2_gcc_project/build/project_km4ns/asdk/make/image_rom_wifi/wifi_driver/rom/lib_wifi_driver_rom.a(rom_wpa_lite_sae_crypto.o)
 .debug_line    0x000000000001db0f       0x50 /home/weiqiang_sun/S_SDK_Repo/S_SDK_Repo_RTOS_Master_Temporary/amebagreen2_gcc_project/build/project_km4ns/asdk/make/image_rom_wifi/wifi_driver/rom/lib_wifi_driver_rom.a(rom_rtw_11d.o)
 .debug_line    0x000000000001db5f      0x632 /home/weiqiang_sun/S_SDK_Repo/S_SDK_Repo_RTOS_Master_Temporary/amebagreen2_gcc_project/build/project_km4ns/asdk/make/image_rom_wifi/wifi_driver/rom/lib_wifi_driver_rom.a(rom_rtw_80211w.o)
 .debug_line    0x000000000001e191      0x2c5 /home/weiqiang_sun/S_SDK_Repo/S_SDK_Repo_RTOS_Master_Temporary/amebagreen2_gcc_project/build/project_km4ns/asdk/make/image_rom_wifi/wifi_driver/rom/lib_wifi_driver_rom.a(rom_rtw_action.o)
 .debug_line    0x000000000001e456      0xf0f /home/weiqiang_sun/S_SDK_Repo/S_SDK_Repo_RTOS_Master_Temporary/amebagreen2_gcc_project/build/project_km4ns/asdk/make/image_rom_wifi/wifi_driver/rom/lib_wifi_driver_rom.a(rom_rtw_assoc.o)
 .debug_line    0x000000000001f365      0x14f /home/weiqiang_sun/S_SDK_Repo/S_SDK_Repo_RTOS_Master_Temporary/amebagreen2_gcc_project/build/project_km4ns/asdk/make/image_rom_wifi/wifi_driver/rom/lib_wifi_driver_rom.a(rom_rtw_auth.o)
 .debug_line    0x000000000001f4b4     0x1152 /home/weiqiang_sun/S_SDK_Repo/S_SDK_Repo_RTOS_Master_Temporary/amebagreen2_gcc_project/build/project_km4ns/asdk/make/image_rom_wifi/wifi_driver/rom/lib_wifi_driver_rom.a(rom_rtw_beacon.o)
 .debug_line    0x0000000000020606      0x300 /home/weiqiang_sun/S_SDK_Repo/S_SDK_Repo_RTOS_Master_Temporary/amebagreen2_gcc_project/build/project_km4ns/asdk/make/image_rom_wifi/wifi_driver/rom/lib_wifi_driver_rom.a(rom_rtw_chbw.o)
 .debug_line    0x0000000000020906      0x2fe /home/weiqiang_sun/S_SDK_Repo/S_SDK_Repo_RTOS_Master_Temporary/amebagreen2_gcc_project/build/project_km4ns/asdk/make/image_rom_wifi/wifi_driver/rom/lib_wifi_driver_rom.a(rom_rtw_he.o)
 .debug_line    0x0000000000020c04     0x12c8 /home/weiqiang_sun/S_SDK_Repo/S_SDK_Repo_RTOS_Master_Temporary/amebagreen2_gcc_project/build/project_km4ns/asdk/make/image_rom_wifi/wifi_driver/rom/lib_wifi_driver_rom.a(rom_rtw_ieee80211.o)
 .debug_line    0x0000000000021ecc     0x146a /home/weiqiang_sun/S_SDK_Repo/S_SDK_Repo_RTOS_Master_Temporary/amebagreen2_gcc_project/build/project_km4ns/asdk/make/image_rom_wifi/wifi_driver/rom/lib_wifi_driver_rom.a(rom_rtw_ieee80211_part2.o)
 .debug_line    0x0000000000023336      0x4cf /home/weiqiang_sun/S_SDK_Repo/S_SDK_Repo_RTOS_Master_Temporary/amebagreen2_gcc_project/build/project_km4ns/asdk/make/image_rom_wifi/wifi_driver/rom/lib_wifi_driver_rom.a(rom_rtw_pmksa_cache.o)
 .debug_line    0x0000000000023805      0x323 /home/weiqiang_sun/S_SDK_Repo/S_SDK_Repo_RTOS_Master_Temporary/amebagreen2_gcc_project/build/project_km4ns/asdk/make/image_rom_wifi/wifi_driver/rom/lib_wifi_driver_rom.a(rom_rtw_probe.o)
 .debug_line    0x0000000000023b28      0x71a /home/weiqiang_sun/S_SDK_Repo/S_SDK_Repo_RTOS_Master_Temporary/amebagreen2_gcc_project/build/project_km4ns/asdk/make/image_rom_wifi/wifi_driver/rom/lib_wifi_driver_rom.a(rom_rtw_psk.o)
 .debug_line    0x0000000000024242      0x3c5 /home/weiqiang_sun/S_SDK_Repo/S_SDK_Repo_RTOS_Master_Temporary/amebagreen2_gcc_project/build/project_km4ns/asdk/make/image_rom_wifi/wifi_driver/rom/lib_wifi_driver_rom.a(rom_rtw_rate.o)
 .debug_line    0x0000000000024607      0x336 /home/weiqiang_sun/S_SDK_Repo/S_SDK_Repo_RTOS_Master_Temporary/amebagreen2_gcc_project/build/project_km4ns/asdk/make/image_rom_wifi/wifi_driver/rom/lib_wifi_driver_rom.a(rom_rtw_recv.o)
 .debug_line    0x000000000002493d      0x4dd /home/weiqiang_sun/S_SDK_Repo/S_SDK_Repo_RTOS_Master_Temporary/amebagreen2_gcc_project/build/project_km4ns/asdk/make/image_rom_wifi/wifi_driver/rom/lib_wifi_driver_rom.a(rom_rtw_rf.o)
 .debug_line    0x0000000000024e1a      0x429 /home/weiqiang_sun/S_SDK_Repo/S_SDK_Repo_RTOS_Master_Temporary/amebagreen2_gcc_project/build/project_km4ns/asdk/make/image_rom_wifi/wifi_driver/rom/lib_wifi_driver_rom.a(rom_rtw_vht.o)
 .debug_line    0x0000000000025243      0xacb /home/weiqiang_sun/S_SDK_Repo/S_SDK_Repo_RTOS_Master_Temporary/amebagreen2_gcc_project/build/project_km4ns/asdk/make/image_rom_wifi/wifi_driver/rom/lib_wifi_driver_rom.a(rom_rtw_ht.o)
 .debug_line    0x0000000000025d0e      0x658 /home/weiqiang_sun/S_SDK_Repo/S_SDK_Repo_RTOS_Master_Temporary/amebagreen2_gcc_project/build/project_km4ns/asdk/make/image_rom_wifi/wifi_driver/rom/lib_wifi_driver_rom.a(rom_rtw_network.o)
 .debug_line    0x0000000000026366      0x98b /home/weiqiang_sun/S_SDK_Repo/S_SDK_Repo_RTOS_Master_Temporary/amebagreen2_gcc_project/build/project_km4ns/asdk/make/image_rom_wifi/wifi_driver/rom/lib_wifi_driver_rom.a(rom_rtw_pmksa_cache_part2.o)
 .debug_line    0x0000000000026cf1      0x9d2 /home/weiqiang_sun/S_SDK_Repo/S_SDK_Repo_RTOS_Master_Temporary/amebagreen2_gcc_project/build/project_km4ns/asdk/make/image_rom_wifi/wifi_driver/rom/lib_wifi_driver_rom.a(rom_rtw_11d_part2.o)
 .debug_line    0x00000000000276c3     0x11ea /home/weiqiang_sun/S_SDK_Repo/S_SDK_Repo_RTOS_Master_Temporary/amebagreen2_gcc_project/build/project_km4ns/asdk/make/image_rom_wifi/wifi_driver/rom/lib_wifi_driver_rom.a(rom_rtw_he_part2.o)
 .debug_line    0x00000000000288ad      0xf6b /home/weiqiang_sun/S_SDK_Repo/S_SDK_Repo_RTOS_Master_Temporary/amebagreen2_gcc_project/build/project_km4ns/asdk/make/image_rom_wifi/wifi_driver/rom/lib_wifi_driver_rom.a(rom_rtw_shortcut.o)
 .debug_line    0x0000000000029818      0xa4d /home/weiqiang_sun/S_SDK_Repo/S_SDK_Repo_RTOS_Master_Temporary/amebagreen2_gcc_project/build/project_km4ns/asdk/make/image_rom_wifi/wifi_driver/rom/lib_wifi_driver_rom.a(rom_rtw_setkey.o)
 .debug_line    0x000000000002a265     0x127a /home/weiqiang_sun/S_SDK_Repo/S_SDK_Repo_RTOS_Master_Temporary/amebagreen2_gcc_project/build/project_km4ns/asdk/make/image_rom_wifi/wifi_driver/rom/lib_wifi_driver_rom.a(rom_rtw_beacon_part2.o)
 .debug_line    0x000000000002b4df      0x6a4 /home/weiqiang_sun/S_SDK_Repo/S_SDK_Repo_RTOS_Master_Temporary/amebagreen2_gcc_project/build/project_km4ns/asdk/make/image_rom_wifi/wifi_driver/rom/lib_wifi_driver_rom.a(rom_rtw_sitesurvey.o)
 .debug_line    0x000000000002bb83      0xda3 /home/weiqiang_sun/S_SDK_Repo/S_SDK_Repo_RTOS_Master_Temporary/amebagreen2_gcc_project/build/project_km4ns/asdk/make/image_rom_wifi/wifi_driver/rom/lib_wifi_driver_rom.a(rom_rtw_sitesurvey_report.o)
 .debug_line    0x000000000002c926      0xd80 /home/weiqiang_sun/S_SDK_Repo/S_SDK_Repo_RTOS_Master_Temporary/amebagreen2_gcc_project/build/project_km4ns/asdk/make/image_rom_wifi/wifi_driver/rom/lib_wifi_driver_rom.a(rom_rtw_ap_xmit.o)
 .debug_line    0x000000000002d6a6      0xd95 /home/weiqiang_sun/S_SDK_Repo/S_SDK_Repo_RTOS_Master_Temporary/amebagreen2_gcc_project/build/project_km4ns/asdk/make/image_rom_wifi/wifi_driver/rom/lib_wifi_driver_rom.a(rom_rtw_addba.o)
 .debug_line    0x000000000002e43b      0xcd0 /home/weiqiang_sun/S_SDK_Repo/S_SDK_Repo_RTOS_Master_Temporary/amebagreen2_gcc_project/build/project_km4ns/asdk/make/image_rom_wifi/wifi_driver/rom/lib_wifi_driver_rom.a(rom_rtw_80211w_part2.o)
 .debug_line    0x000000000002f10b     0x14e9 /home/weiqiang_sun/S_SDK_Repo/S_SDK_Repo_RTOS_Master_Temporary/amebagreen2_gcc_project/build/project_km4ns/asdk/make/image_rom_wifi/wifi_driver/rom/lib_wifi_driver_rom.a(rom_rtw_auth_part2.o)
 .debug_line    0x00000000000305f4      0x6a8 /home/weiqiang_sun/S_SDK_Repo/S_SDK_Repo_RTOS_Master_Temporary/amebagreen2_gcc_project/build/project_km4ns/asdk/make/image_rom_wifi/wifi_driver/rom/lib_wifi_driver_rom.a(rom_rtw_action_part2.o)
 .debug_line    0x0000000000030c9c     0x14ae /home/weiqiang_sun/S_SDK_Repo/S_SDK_Repo_RTOS_Master_Temporary/amebagreen2_gcc_project/build/project_km4ns/asdk/make/image_rom_wifi/wifi_driver/rom/lib_wifi_driver_rom.a(rom_rtw_join.o)
 .debug_line    0x000000000003214a      0x9ff /home/weiqiang_sun/S_SDK_Repo/S_SDK_Repo_RTOS_Master_Temporary/amebagreen2_gcc_project/build/project_km4ns/asdk/make/image_rom_wifi/wifi_driver/rom/lib_wifi_driver_rom.a(rom_rtw_join_result.o)
 .debug_line    0x0000000000032b49     0x1ebf /home/weiqiang_sun/S_SDK_Repo/S_SDK_Repo_RTOS_Master_Temporary/amebagreen2_gcc_project/build/project_km4ns/asdk/make/image_rom_wifi/wifi_driver/rom/lib_wifi_driver_rom.a(rom_rtw_assoc_part2.o)
 .debug_line    0x0000000000034a08     0x15a1 /home/weiqiang_sun/S_SDK_Repo/S_SDK_Repo_RTOS_Master_Temporary/amebagreen2_gcc_project/build/project_km4ns/asdk/make/image_rom_wifi/wifi_driver/rom/lib_wifi_driver_rom.a(rom_rtw_security_part2.o)
 .debug_line    0x0000000000035fa9      0xb6a /home/weiqiang_sun/S_SDK_Repo/S_SDK_Repo_RTOS_Master_Temporary/amebagreen2_gcc_project/build/project_km4ns/asdk/make/image_rom_wifi/wifi_driver/rom/lib_wifi_driver_rom.a(rom_rtw_vht_part2.o)
 .debug_line    0x0000000000036b13     0x2392 /home/weiqiang_sun/S_SDK_Repo/S_SDK_Repo_RTOS_Master_Temporary/amebagreen2_gcc_project/build/project_km4ns/asdk/make/image_rom_wifi/wifi_driver/rom/lib_wifi_driver_rom.a(rom_rtw_xmit.o)
 .debug_line    0x0000000000038ea5     0x1cce /home/weiqiang_sun/S_SDK_Repo/S_SDK_Repo_RTOS_Master_Temporary/amebagreen2_gcc_project/build/project_km4ns/asdk/make/image_rom_wifi/wifi_driver/rom/lib_wifi_driver_rom.a(rom_rtw_recv_part2.o)
 .debug_line    0x000000000003ab73      0xaa1 /home/weiqiang_sun/S_SDK_Repo/S_SDK_Repo_RTOS_Master_Temporary/amebagreen2_gcc_project/build/project_km4ns/asdk/make/image_rom_wifi/wifi_driver/rom/lib_wifi_driver_rom.a(rom_rtw_recv_reorder.o)
 .debug_line    0x000000000003b614      0x612 /home/weiqiang_sun/S_SDK_Repo/S_SDK_Repo_RTOS_Master_Temporary/amebagreen2_gcc_project/build/project_km4ns/asdk/make/image_rom_wifi/wifi_driver/rom/lib_wifi_driver_rom.a(rom_rtw_mgnt.o)
 .debug_line    0x000000000003bc26      0x6dd /home/weiqiang_sun/S_SDK_Repo/S_SDK_Repo_RTOS_Master_Temporary/amebagreen2_gcc_project/build/project_km4ns/asdk/make/image_rom_wifi/wifi_driver/rom/lib_wifi_driver_rom.a(rom_rtw_state.o)
 .debug_line    0x000000000003c303      0x9f1 /home/weiqiang_sun/S_SDK_Repo/S_SDK_Repo_RTOS_Master_Temporary/amebagreen2_gcc_project/build/project_km4ns/asdk/make/image_rom_wifi/wifi_driver/rom/lib_wifi_driver_rom.a(rom_rtw_sta_mgt.o)
 .debug_line    0x000000000003ccf4     0x146f /home/weiqiang_sun/S_SDK_Repo/S_SDK_Repo_RTOS_Master_Temporary/amebagreen2_gcc_project/build/project_km4ns/asdk/make/image_rom_wifi/wifi_driver/rom/lib_wifi_driver_rom.a(rom_rtw_ap.o)
 .debug_line    0x000000000003e163      0x699 /home/weiqiang_sun/S_SDK_Repo/S_SDK_Repo_RTOS_Master_Temporary/amebagreen2_gcc_project/build/project_km4ns/asdk/make/image_rom_wifi/wifi_driver/rom/lib_wifi_driver_rom.a(rom_rtw_skbuff.o)
 .debug_line    0x000000000003e7fc      0x688 /home/weiqiang_sun/S_SDK_Repo/S_SDK_Repo_RTOS_Master_Temporary/amebagreen2_gcc_project/build/project_km4ns/asdk/make/image_rom_wifi/wifi_driver/rom/lib_wifi_driver_rom.a(rom_hal_debug.o)
 .debug_line    0x000000000003ee84     0x103d /home/weiqiang_sun/S_SDK_Repo/S_SDK_Repo_RTOS_Master_Temporary/amebagreen2_gcc_project/build/project_km4ns/asdk/make/image_rom_wifi/wifi_driver/rom/lib_wifi_driver_rom.a(rom_hal_h2c.o)
 .debug_line    0x000000000003fec1      0x7cb /home/weiqiang_sun/S_SDK_Repo/S_SDK_Repo_RTOS_Master_Temporary/amebagreen2_gcc_project/build/project_km4ns/asdk/make/image_rom_wifi/wifi_driver/rom/lib_wifi_driver_rom.a(rom_hal_h2c_g1.o)
 .debug_line    0x000000000004068c     0x13c4 /home/weiqiang_sun/S_SDK_Repo/S_SDK_Repo_RTOS_Master_Temporary/amebagreen2_gcc_project/build/project_km4ns/asdk/make/image_rom_wifi/wifi_driver/rom/lib_wifi_driver_rom.a(rom_hal_recv.o)
 .debug_line    0x0000000000041a50      0x3b3 /home/weiqiang_sun/S_SDK_Repo/S_SDK_Repo_RTOS_Master_Temporary/amebagreen2_gcc_project/build/project_km4ns/asdk/make/image_rom_wifi/wifi_driver/rom/lib_wifi_driver_rom.a(rom_hal_structs.o)
 .debug_line    0x0000000000041e03     0x1d70 /home/weiqiang_sun/S_SDK_Repo/S_SDK_Repo_RTOS_Master_Temporary/amebagreen2_gcc_project/build/project_km4ns/asdk/make/image_rom_wifi/wifi_driver/rom/lib_wifi_driver_rom.a(rom_hal_xmit.o)
 .debug_line    0x0000000000043b73      0xd83 /home/weiqiang_sun/S_SDK_Repo/S_SDK_Repo_RTOS_Master_Temporary/amebagreen2_gcc_project/build/project_km4ns/asdk/make/image_rom_wifi/wifi_driver/rom/lib_wifi_driver_rom.a(rom_hal_xmit_g1.o)
 .debug_line    0x00000000000448f6      0x6bf /home/weiqiang_sun/S_SDK_Repo/S_SDK_Repo_RTOS_Master_Temporary/amebagreen2_gcc_project/build/project_km4ns/asdk/make/image_rom_wifi/wifi_driver/rom/lib_wifi_driver_rom.a(rom_wifi_hal_ax.o)
 .debug_line    0x0000000000044fb5      0x264 /home/weiqiang_sun/S_SDK_Repo/S_SDK_Repo_RTOS_Master_Temporary/amebagreen2_gcc_project/build/project_km4ns/asdk/make/image_rom_wifi/wifi_driver/rom/lib_wifi_driver_rom.a(rom_wifi_hal_bcn.o)
 .debug_line    0x0000000000045219      0xc4e /home/weiqiang_sun/S_SDK_Repo/S_SDK_Repo_RTOS_Master_Temporary/amebagreen2_gcc_project/build/project_km4ns/asdk/make/image_rom_wifi/wifi_driver/rom/lib_wifi_driver_rom.a(rom_wifi_hal_debug.o)
 .debug_line    0x0000000000045e67      0xb43 /home/weiqiang_sun/S_SDK_Repo/S_SDK_Repo_RTOS_Master_Temporary/amebagreen2_gcc_project/build/project_km4ns/asdk/make/image_rom_wifi/wifi_driver/rom/lib_wifi_driver_rom.a(rom_wifi_hal_init.o)
 .debug_line    0x00000000000469aa      0x1e5 /home/weiqiang_sun/S_SDK_Repo/S_SDK_Repo_RTOS_Master_Temporary/amebagreen2_gcc_project/build/project_km4ns/asdk/make/image_rom_wifi/wifi_driver/rom/lib_wifi_driver_rom.a(rom_wifi_hal_io.o)
 .debug_line    0x0000000000046b8f      0xd05 /home/weiqiang_sun/S_SDK_Repo/S_SDK_Repo_RTOS_Master_Temporary/amebagreen2_gcc_project/build/project_km4ns/asdk/make/image_rom_wifi/wifi_driver/rom/lib_wifi_driver_rom.a(rom_wifi_hal_media_access.o)
 .debug_line    0x0000000000047894      0x969 /home/weiqiang_sun/S_SDK_Repo/S_SDK_Repo_RTOS_Master_Temporary/amebagreen2_gcc_project/build/project_km4ns/asdk/make/image_rom_wifi/wifi_driver/rom/lib_wifi_driver_rom.a(rom_wifi_hal_misc.o)
 .debug_line    0x00000000000481fd      0x3e9 /home/weiqiang_sun/S_SDK_Repo/S_SDK_Repo_RTOS_Master_Temporary/amebagreen2_gcc_project/build/project_km4ns/asdk/make/image_rom_wifi/wifi_driver/rom/lib_wifi_driver_rom.a(rom_wifi_hal_rate.o)
 .debug_line    0x00000000000485e6      0x55f /home/weiqiang_sun/S_SDK_Repo/S_SDK_Repo_RTOS_Master_Temporary/amebagreen2_gcc_project/build/project_km4ns/asdk/make/image_rom_wifi/wifi_driver/rom/lib_wifi_driver_rom.a(rom_wifi_hal_secure.o)
 .debug_line    0x0000000000048b45      0x405 /home/weiqiang_sun/S_SDK_Repo/S_SDK_Repo_RTOS_Master_Temporary/amebagreen2_gcc_project/build/project_km4ns/asdk/make/image_rom_wifi/wifi_driver/rom/lib_wifi_driver_rom.a(rom_wifi_hal_tsf.o)
 .debug_line    0x0000000000048f4a      0x53d /home/weiqiang_sun/S_SDK_Repo/S_SDK_Repo_RTOS_Master_Temporary/amebagreen2_gcc_project/build/project_km4ns/asdk/make/image_rom_wifi/wifi_driver/rom/lib_wifi_driver_rom.a(rom_wifi_hal_txdesc.o)
 .debug_line    0x0000000000049487      0x4f0 /home/weiqiang_sun/S_SDK_Repo/S_SDK_Repo_RTOS_Master_Temporary/amebagreen2_gcc_project/build/project_km4ns/asdk/make/image_rom_wifi/wifi_driver/rom/lib_wifi_driver_rom.a(rom_wifi_hal_rxdesc.o)
 .debug_line    0x0000000000049977      0x3b3 /home/weiqiang_sun/S_SDK_Repo/S_SDK_Repo_RTOS_Master_Temporary/amebagreen2_gcc_project/build/project_km4ns/asdk/make/image_rom_wifi/wifi_driver/rom/lib_wifi_driver_rom.a(rom_rtw_queue.o)
 .debug_line    0x0000000000049d2a      0x296 /home/weiqiang_sun/S_SDK_Repo/S_SDK_Repo_RTOS_Master_Temporary/amebagreen2_gcc_project/build/project_km4ns/asdk/make/image_rom_wifi/wifi_driver/rom/lib_wifi_driver_rom.a(rom_hal_rom_to_flash.o)

.debug_str      0x0000000000000000    0x85177
 .debug_str     0x0000000000000000      0x4e9 /home/weiqiang_sun/S_SDK_Repo/S_SDK_Repo_RTOS_Master_Temporary/amebagreen2_gcc_project/build/project_km4ns/asdk/make/image_rom_wifi/wifi_driver/rom/lib_wifi_driver_rom.a(rom_aes.o)
 .debug_str     0x00000000000004e9      0x37b /home/weiqiang_sun/S_SDK_Repo/S_SDK_Repo_RTOS_Master_Temporary/amebagreen2_gcc_project/build/project_km4ns/asdk/make/image_rom_wifi/wifi_driver/rom/lib_wifi_driver_rom.a(rom_arc4.o)
 .debug_str     0x0000000000000864      0x3fa /home/weiqiang_sun/S_SDK_Repo/S_SDK_Repo_RTOS_Master_Temporary/amebagreen2_gcc_project/build/project_km4ns/asdk/make/image_rom_wifi/wifi_driver/rom/lib_wifi_driver_rom.a(rom_md5.o)
 .debug_str     0x0000000000000c5e      0x21a /home/weiqiang_sun/S_SDK_Repo/S_SDK_Repo_RTOS_Master_Temporary/amebagreen2_gcc_project/build/project_km4ns/asdk/make/image_rom_wifi/wifi_driver/rom/lib_wifi_driver_rom.a(rom_rc4.o)
 .debug_str     0x0000000000000e78      0x5ab /home/weiqiang_sun/S_SDK_Repo/S_SDK_Repo_RTOS_Master_Temporary/amebagreen2_gcc_project/build/project_km4ns/asdk/make/image_rom_wifi/wifi_driver/rom/lib_wifi_driver_rom.a(rom_rtw_dh_groups.o)
 .debug_str     0x0000000000001423      0x6ec /home/weiqiang_sun/S_SDK_Repo/S_SDK_Repo_RTOS_Master_Temporary/amebagreen2_gcc_project/build/project_km4ns/asdk/make/image_rom_wifi/wifi_driver/rom/lib_wifi_driver_rom.a(rom_rtw_mbedtls_bignum.o)
 .debug_str     0x0000000000001b0f      0xaba /home/weiqiang_sun/S_SDK_Repo/S_SDK_Repo_RTOS_Master_Temporary/amebagreen2_gcc_project/build/project_km4ns/asdk/make/image_rom_wifi/wifi_driver/rom/lib_wifi_driver_rom.a(rom_rtw_mbedtls_ecp.o)
 .debug_str     0x00000000000025c9      0x78a /home/weiqiang_sun/S_SDK_Repo/S_SDK_Repo_RTOS_Master_Temporary/amebagreen2_gcc_project/build/project_km4ns/asdk/make/image_rom_wifi/wifi_driver/rom/lib_wifi_driver_rom.a(rom_rtw_mbedtls_ecp_curves.o)
 .debug_str     0x0000000000002d53      0x23c /home/weiqiang_sun/S_SDK_Repo/S_SDK_Repo_RTOS_Master_Temporary/amebagreen2_gcc_project/build/project_km4ns/asdk/make/image_rom_wifi/wifi_driver/rom/lib_wifi_driver_rom.a(rom_rtw_mbedtls_func_map.o)
 .debug_str     0x0000000000002f8f      0x221 /home/weiqiang_sun/S_SDK_Repo/S_SDK_Repo_RTOS_Master_Temporary/amebagreen2_gcc_project/build/project_km4ns/asdk/make/image_rom_wifi/wifi_driver/rom/lib_wifi_driver_rom.a(rom_rtw_mbedtls_platform.o)
 .debug_str     0x00000000000031b0      0x809 /home/weiqiang_sun/S_SDK_Repo/S_SDK_Repo_RTOS_Master_Temporary/amebagreen2_gcc_project/build/project_km4ns/asdk/make/image_rom_wifi/wifi_driver/rom/lib_wifi_driver_rom.a(rom_rtw_security.o)
 .debug_str     0x00000000000039b9      0x6f8 /home/weiqiang_sun/S_SDK_Repo/S_SDK_Repo_RTOS_Master_Temporary/amebagreen2_gcc_project/build/project_km4ns/asdk/make/image_rom_wifi/wifi_driver/rom/lib_wifi_driver_rom.a(rom_rtw_security_gcm.o)
 .debug_str     0x00000000000040b1      0x4ec /home/weiqiang_sun/S_SDK_Repo/S_SDK_Repo_RTOS_Master_Temporary/amebagreen2_gcc_project/build/project_km4ns/asdk/make/image_rom_wifi/wifi_driver/rom/lib_wifi_driver_rom.a(rom_rtw_sha256.o)
 .debug_str     0x000000000000459d      0x518 /home/weiqiang_sun/S_SDK_Repo/S_SDK_Repo_RTOS_Master_Temporary/amebagreen2_gcc_project/build/project_km4ns/asdk/make/image_rom_wifi/wifi_driver/rom/lib_wifi_driver_rom.a(rom_rtw_sha384.o)
 .debug_str     0x0000000000004ab5      0x384 /home/weiqiang_sun/S_SDK_Repo/S_SDK_Repo_RTOS_Master_Temporary/amebagreen2_gcc_project/build/project_km4ns/asdk/make/image_rom_wifi/wifi_driver/rom/lib_wifi_driver_rom.a(rom_sha1.o)
 .debug_str     0x0000000000004e39      0xb37 /home/weiqiang_sun/S_SDK_Repo/S_SDK_Repo_RTOS_Master_Temporary/amebagreen2_gcc_project/build/project_km4ns/asdk/make/image_rom_wifi/wifi_driver/rom/lib_wifi_driver_rom.a(rom_wpa_lite_part2.o)
 .debug_str     0x0000000000005970      0xc4a /home/weiqiang_sun/S_SDK_Repo/S_SDK_Repo_RTOS_Master_Temporary/amebagreen2_gcc_project/build/project_km4ns/asdk/make/image_rom_wifi/wifi_driver/rom/lib_wifi_driver_rom.a(rom_wpa_lite_psk.o)
 .debug_str     0x00000000000065ba     0x10df /home/weiqiang_sun/S_SDK_Repo/S_SDK_Repo_RTOS_Master_Temporary/amebagreen2_gcc_project/build/project_km4ns/asdk/make/image_rom_wifi/wifi_driver/rom/lib_wifi_driver_rom.a(rom_wpa_lite_sae.o)
 .debug_str     0x0000000000007699     0x1165 /home/weiqiang_sun/S_SDK_Repo/S_SDK_Repo_RTOS_Master_Temporary/amebagreen2_gcc_project/build/project_km4ns/asdk/make/image_rom_wifi/wifi_driver/rom/lib_wifi_driver_rom.a(rom_wpa_lite_sae_crypto.o)
 .debug_str     0x00000000000087fe      0x1ed /home/weiqiang_sun/S_SDK_Repo/S_SDK_Repo_RTOS_Master_Temporary/amebagreen2_gcc_project/build/project_km4ns/asdk/make/image_rom_wifi/wifi_driver/rom/lib_wifi_driver_rom.a(rom_rtw_11d.o)
 .debug_str     0x00000000000089eb      0x839 /home/weiqiang_sun/S_SDK_Repo/S_SDK_Repo_RTOS_Master_Temporary/amebagreen2_gcc_project/build/project_km4ns/asdk/make/image_rom_wifi/wifi_driver/rom/lib_wifi_driver_rom.a(rom_rtw_80211w.o)
 .debug_str     0x0000000000009224      0x5d2 /home/weiqiang_sun/S_SDK_Repo/S_SDK_Repo_RTOS_Master_Temporary/amebagreen2_gcc_project/build/project_km4ns/asdk/make/image_rom_wifi/wifi_driver/rom/lib_wifi_driver_rom.a(rom_rtw_action.o)
 .debug_str     0x00000000000097f6     0x14a3 /home/weiqiang_sun/S_SDK_Repo/S_SDK_Repo_RTOS_Master_Temporary/amebagreen2_gcc_project/build/project_km4ns/asdk/make/image_rom_wifi/wifi_driver/rom/lib_wifi_driver_rom.a(rom_rtw_assoc.o)
 .debug_str     0x000000000000ac99      0x24b /home/weiqiang_sun/S_SDK_Repo/S_SDK_Repo_RTOS_Master_Temporary/amebagreen2_gcc_project/build/project_km4ns/asdk/make/image_rom_wifi/wifi_driver/rom/lib_wifi_driver_rom.a(rom_rtw_auth.o)
 .debug_str     0x000000000000aee4      0xfd1 /home/weiqiang_sun/S_SDK_Repo/S_SDK_Repo_RTOS_Master_Temporary/amebagreen2_gcc_project/build/project_km4ns/asdk/make/image_rom_wifi/wifi_driver/rom/lib_wifi_driver_rom.a(rom_rtw_beacon.o)
 .debug_str     0x000000000000beb5      0x3f0 /home/weiqiang_sun/S_SDK_Repo/S_SDK_Repo_RTOS_Master_Temporary/amebagreen2_gcc_project/build/project_km4ns/asdk/make/image_rom_wifi/wifi_driver/rom/lib_wifi_driver_rom.a(rom_rtw_chbw.o)
 .debug_str     0x000000000000c2a5      0x5bb /home/weiqiang_sun/S_SDK_Repo/S_SDK_Repo_RTOS_Master_Temporary/amebagreen2_gcc_project/build/project_km4ns/asdk/make/image_rom_wifi/wifi_driver/rom/lib_wifi_driver_rom.a(rom_rtw_he.o)
 .debug_str     0x000000000000c860      0xc82 /home/weiqiang_sun/S_SDK_Repo/S_SDK_Repo_RTOS_Master_Temporary/amebagreen2_gcc_project/build/project_km4ns/asdk/make/image_rom_wifi/wifi_driver/rom/lib_wifi_driver_rom.a(rom_rtw_ieee80211.o)
 .debug_str     0x000000000000d4e2     0x226d /home/weiqiang_sun/S_SDK_Repo/S_SDK_Repo_RTOS_Master_Temporary/amebagreen2_gcc_project/build/project_km4ns/asdk/make/image_rom_wifi/wifi_driver/rom/lib_wifi_driver_rom.a(rom_rtw_ieee80211_part2.o)
 .debug_str     0x000000000000f74f      0x356 /home/weiqiang_sun/S_SDK_Repo/S_SDK_Repo_RTOS_Master_Temporary/amebagreen2_gcc_project/build/project_km4ns/asdk/make/image_rom_wifi/wifi_driver/rom/lib_wifi_driver_rom.a(rom_rtw_pmksa_cache.o)
 .debug_str     0x000000000000faa5      0x2b5 /home/weiqiang_sun/S_SDK_Repo/S_SDK_Repo_RTOS_Master_Temporary/amebagreen2_gcc_project/build/project_km4ns/asdk/make/image_rom_wifi/wifi_driver/rom/lib_wifi_driver_rom.a(rom_rtw_probe.o)
 .debug_str     0x000000000000fd5a      0x611 /home/weiqiang_sun/S_SDK_Repo/S_SDK_Repo_RTOS_Master_Temporary/amebagreen2_gcc_project/build/project_km4ns/asdk/make/image_rom_wifi/wifi_driver/rom/lib_wifi_driver_rom.a(rom_rtw_psk.o)
 .debug_str     0x000000000001036b      0x47f /home/weiqiang_sun/S_SDK_Repo/S_SDK_Repo_RTOS_Master_Temporary/amebagreen2_gcc_project/build/project_km4ns/asdk/make/image_rom_wifi/wifi_driver/rom/lib_wifi_driver_rom.a(rom_rtw_rate.o)
 .debug_str     0x00000000000107ea      0x338 /home/weiqiang_sun/S_SDK_Repo/S_SDK_Repo_RTOS_Master_Temporary/amebagreen2_gcc_project/build/project_km4ns/asdk/make/image_rom_wifi/wifi_driver/rom/lib_wifi_driver_rom.a(rom_rtw_recv.o)
 .debug_str     0x0000000000010b22      0x5e5 /home/weiqiang_sun/S_SDK_Repo/S_SDK_Repo_RTOS_Master_Temporary/amebagreen2_gcc_project/build/project_km4ns/asdk/make/image_rom_wifi/wifi_driver/rom/lib_wifi_driver_rom.a(rom_rtw_rf.o)
 .debug_str     0x0000000000011107      0x5e5 /home/weiqiang_sun/S_SDK_Repo/S_SDK_Repo_RTOS_Master_Temporary/amebagreen2_gcc_project/build/project_km4ns/asdk/make/image_rom_wifi/wifi_driver/rom/lib_wifi_driver_rom.a(rom_rtw_vht.o)
 .debug_str     0x00000000000116ec     0x30d0 /home/weiqiang_sun/S_SDK_Repo/S_SDK_Repo_RTOS_Master_Temporary/amebagreen2_gcc_project/build/project_km4ns/asdk/make/image_rom_wifi/wifi_driver/rom/lib_wifi_driver_rom.a(rom_rtw_ht.o)
 .debug_str     0x00000000000147bc     0x2c28 /home/weiqiang_sun/S_SDK_Repo/S_SDK_Repo_RTOS_Master_Temporary/amebagreen2_gcc_project/build/project_km4ns/asdk/make/image_rom_wifi/wifi_driver/rom/lib_wifi_driver_rom.a(rom_rtw_network.o)
 .debug_str     0x00000000000173e4     0x2e07 /home/weiqiang_sun/S_SDK_Repo/S_SDK_Repo_RTOS_Master_Temporary/amebagreen2_gcc_project/build/project_km4ns/asdk/make/image_rom_wifi/wifi_driver/rom/lib_wifi_driver_rom.a(rom_rtw_pmksa_cache_part2.o)
 .debug_str     0x000000000001a1eb     0x2d81 /home/weiqiang_sun/S_SDK_Repo/S_SDK_Repo_RTOS_Master_Temporary/amebagreen2_gcc_project/build/project_km4ns/asdk/make/image_rom_wifi/wifi_driver/rom/lib_wifi_driver_rom.a(rom_rtw_11d_part2.o)
 .debug_str     0x000000000001cf6c     0x34c4 /home/weiqiang_sun/S_SDK_Repo/S_SDK_Repo_RTOS_Master_Temporary/amebagreen2_gcc_project/build/project_km4ns/asdk/make/image_rom_wifi/wifi_driver/rom/lib_wifi_driver_rom.a(rom_rtw_he_part2.o)
 .debug_str     0x0000000000020430     0x3404 /home/weiqiang_sun/S_SDK_Repo/S_SDK_Repo_RTOS_Master_Temporary/amebagreen2_gcc_project/build/project_km4ns/asdk/make/image_rom_wifi/wifi_driver/rom/lib_wifi_driver_rom.a(rom_rtw_shortcut.o)
 .debug_str     0x0000000000023834     0x310a /home/weiqiang_sun/S_SDK_Repo/S_SDK_Repo_RTOS_Master_Temporary/amebagreen2_gcc_project/build/project_km4ns/asdk/make/image_rom_wifi/wifi_driver/rom/lib_wifi_driver_rom.a(rom_rtw_setkey.o)
 .debug_str     0x000000000002693e     0x3a30 /home/weiqiang_sun/S_SDK_Repo/S_SDK_Repo_RTOS_Master_Temporary/amebagreen2_gcc_project/build/project_km4ns/asdk/make/image_rom_wifi/wifi_driver/rom/lib_wifi_driver_rom.a(rom_rtw_beacon_part2.o)
 .debug_str     0x000000000002a36e      0x8a5 /home/weiqiang_sun/S_SDK_Repo/S_SDK_Repo_RTOS_Master_Temporary/amebagreen2_gcc_project/build/project_km4ns/asdk/make/image_rom_wifi/wifi_driver/rom/lib_wifi_driver_rom.a(rom_rtw_sitesurvey.o)
 .debug_str     0x000000000002ac13     0x3517 /home/weiqiang_sun/S_SDK_Repo/S_SDK_Repo_RTOS_Master_Temporary/amebagreen2_gcc_project/build/project_km4ns/asdk/make/image_rom_wifi/wifi_driver/rom/lib_wifi_driver_rom.a(rom_rtw_sitesurvey_report.o)
 .debug_str     0x000000000002e12a     0x3355 /home/weiqiang_sun/S_SDK_Repo/S_SDK_Repo_RTOS_Master_Temporary/amebagreen2_gcc_project/build/project_km4ns/asdk/make/image_rom_wifi/wifi_driver/rom/lib_wifi_driver_rom.a(rom_rtw_ap_xmit.o)
 .debug_str     0x000000000003147f     0x37d2 /home/weiqiang_sun/S_SDK_Repo/S_SDK_Repo_RTOS_Master_Temporary/amebagreen2_gcc_project/build/project_km4ns/asdk/make/image_rom_wifi/wifi_driver/rom/lib_wifi_driver_rom.a(rom_rtw_addba.o)
 .debug_str     0x0000000000034c51     0x3591 /home/weiqiang_sun/S_SDK_Repo/S_SDK_Repo_RTOS_Master_Temporary/amebagreen2_gcc_project/build/project_km4ns/asdk/make/image_rom_wifi/wifi_driver/rom/lib_wifi_driver_rom.a(rom_rtw_80211w_part2.o)
 .debug_str     0x00000000000381e2     0x40e7 /home/weiqiang_sun/S_SDK_Repo/S_SDK_Repo_RTOS_Master_Temporary/amebagreen2_gcc_project/build/project_km4ns/asdk/make/image_rom_wifi/wifi_driver/rom/lib_wifi_driver_rom.a(rom_rtw_auth_part2.o)
 .debug_str     0x000000000003c2c9     0x2d72 /home/weiqiang_sun/S_SDK_Repo/S_SDK_Repo_RTOS_Master_Temporary/amebagreen2_gcc_project/build/project_km4ns/asdk/make/image_rom_wifi/wifi_driver/rom/lib_wifi_driver_rom.a(rom_rtw_action_part2.o)
 .debug_str     0x000000000003f03b     0x4740 /home/weiqiang_sun/S_SDK_Repo/S_SDK_Repo_RTOS_Master_Temporary/amebagreen2_gcc_project/build/project_km4ns/asdk/make/image_rom_wifi/wifi_driver/rom/lib_wifi_driver_rom.a(rom_rtw_join.o)
 .debug_str     0x000000000004377b     0x2f2e /home/weiqiang_sun/S_SDK_Repo/S_SDK_Repo_RTOS_Master_Temporary/amebagreen2_gcc_project/build/project_km4ns/asdk/make/image_rom_wifi/wifi_driver/rom/lib_wifi_driver_rom.a(rom_rtw_join_result.o)
 .debug_str     0x00000000000466a9     0x55d3 /home/weiqiang_sun/S_SDK_Repo/S_SDK_Repo_RTOS_Master_Temporary/amebagreen2_gcc_project/build/project_km4ns/asdk/make/image_rom_wifi/wifi_driver/rom/lib_wifi_driver_rom.a(rom_rtw_assoc_part2.o)
 .debug_str     0x000000000004bc7c     0x3bfa /home/weiqiang_sun/S_SDK_Repo/S_SDK_Repo_RTOS_Master_Temporary/amebagreen2_gcc_project/build/project_km4ns/asdk/make/image_rom_wifi/wifi_driver/rom/lib_wifi_driver_rom.a(rom_rtw_security_part2.o)
 .debug_str     0x000000000004f876     0x398c /home/weiqiang_sun/S_SDK_Repo/S_SDK_Repo_RTOS_Master_Temporary/amebagreen2_gcc_project/build/project_km4ns/asdk/make/image_rom_wifi/wifi_driver/rom/lib_wifi_driver_rom.a(rom_rtw_vht_part2.o)
 .debug_str     0x0000000000053202     0x3b7d /home/weiqiang_sun/S_SDK_Repo/S_SDK_Repo_RTOS_Master_Temporary/amebagreen2_gcc_project/build/project_km4ns/asdk/make/image_rom_wifi/wifi_driver/rom/lib_wifi_driver_rom.a(rom_rtw_xmit.o)
 .debug_str     0x0000000000056d7f     0x3fc7 /home/weiqiang_sun/S_SDK_Repo/S_SDK_Repo_RTOS_Master_Temporary/amebagreen2_gcc_project/build/project_km4ns/asdk/make/image_rom_wifi/wifi_driver/rom/lib_wifi_driver_rom.a(rom_rtw_recv_part2.o)
 .debug_str     0x000000000005ad46     0x2e21 /home/weiqiang_sun/S_SDK_Repo/S_SDK_Repo_RTOS_Master_Temporary/amebagreen2_gcc_project/build/project_km4ns/asdk/make/image_rom_wifi/wifi_driver/rom/lib_wifi_driver_rom.a(rom_rtw_recv_reorder.o)
 .debug_str     0x000000000005db67     0x2fc4 /home/weiqiang_sun/S_SDK_Repo/S_SDK_Repo_RTOS_Master_Temporary/amebagreen2_gcc_project/build/project_km4ns/asdk/make/image_rom_wifi/wifi_driver/rom/lib_wifi_driver_rom.a(rom_rtw_mgnt.o)
 .debug_str     0x0000000000060b2b     0x31ec /home/weiqiang_sun/S_SDK_Repo/S_SDK_Repo_RTOS_Master_Temporary/amebagreen2_gcc_project/build/project_km4ns/asdk/make/image_rom_wifi/wifi_driver/rom/lib_wifi_driver_rom.a(rom_rtw_state.o)
 .debug_str     0x0000000000063d17     0x3121 /home/weiqiang_sun/S_SDK_Repo/S_SDK_Repo_RTOS_Master_Temporary/amebagreen2_gcc_project/build/project_km4ns/asdk/make/image_rom_wifi/wifi_driver/rom/lib_wifi_driver_rom.a(rom_rtw_sta_mgt.o)
 .debug_str     0x0000000000066e38     0x3bfc /home/weiqiang_sun/S_SDK_Repo/S_SDK_Repo_RTOS_Master_Temporary/amebagreen2_gcc_project/build/project_km4ns/asdk/make/image_rom_wifi/wifi_driver/rom/lib_wifi_driver_rom.a(rom_rtw_ap.o)
 .debug_str     0x000000000006aa34      0x69a /home/weiqiang_sun/S_SDK_Repo/S_SDK_Repo_RTOS_Master_Temporary/amebagreen2_gcc_project/build/project_km4ns/asdk/make/image_rom_wifi/wifi_driver/rom/lib_wifi_driver_rom.a(rom_rtw_skbuff.o)
 .debug_str     0x000000000006b0ce      0x523 /home/weiqiang_sun/S_SDK_Repo/S_SDK_Repo_RTOS_Master_Temporary/amebagreen2_gcc_project/build/project_km4ns/asdk/make/image_rom_wifi/wifi_driver/rom/lib_wifi_driver_rom.a(rom_hal_debug.o)
 .debug_str     0x000000000006b5f1     0x343e /home/weiqiang_sun/S_SDK_Repo/S_SDK_Repo_RTOS_Master_Temporary/amebagreen2_gcc_project/build/project_km4ns/asdk/make/image_rom_wifi/wifi_driver/rom/lib_wifi_driver_rom.a(rom_hal_h2c.o)
 .debug_str     0x000000000006ea2f     0x3284 /home/weiqiang_sun/S_SDK_Repo/S_SDK_Repo_RTOS_Master_Temporary/amebagreen2_gcc_project/build/project_km4ns/asdk/make/image_rom_wifi/wifi_driver/rom/lib_wifi_driver_rom.a(rom_hal_h2c_g1.o)
 .debug_str     0x0000000000071cb3     0x33b7 /home/weiqiang_sun/S_SDK_Repo/S_SDK_Repo_RTOS_Master_Temporary/amebagreen2_gcc_project/build/project_km4ns/asdk/make/image_rom_wifi/wifi_driver/rom/lib_wifi_driver_rom.a(rom_hal_recv.o)
 .debug_str     0x000000000007506a     0x27d1 /home/weiqiang_sun/S_SDK_Repo/S_SDK_Repo_RTOS_Master_Temporary/amebagreen2_gcc_project/build/project_km4ns/asdk/make/image_rom_wifi/wifi_driver/rom/lib_wifi_driver_rom.a(rom_hal_structs.o)
 .debug_str     0x000000000007783b     0x3b90 /home/weiqiang_sun/S_SDK_Repo/S_SDK_Repo_RTOS_Master_Temporary/amebagreen2_gcc_project/build/project_km4ns/asdk/make/image_rom_wifi/wifi_driver/rom/lib_wifi_driver_rom.a(rom_hal_xmit.o)
 .debug_str     0x000000000007b3cb     0x314f /home/weiqiang_sun/S_SDK_Repo/S_SDK_Repo_RTOS_Master_Temporary/amebagreen2_gcc_project/build/project_km4ns/asdk/make/image_rom_wifi/wifi_driver/rom/lib_wifi_driver_rom.a(rom_hal_xmit_g1.o)
 .debug_str     0x000000000007e51a      0x48b /home/weiqiang_sun/S_SDK_Repo/S_SDK_Repo_RTOS_Master_Temporary/amebagreen2_gcc_project/build/project_km4ns/asdk/make/image_rom_wifi/wifi_driver/rom/lib_wifi_driver_rom.a(rom_wifi_hal_ax.o)
 .debug_str     0x000000000007e9a5      0x325 /home/weiqiang_sun/S_SDK_Repo/S_SDK_Repo_RTOS_Master_Temporary/amebagreen2_gcc_project/build/project_km4ns/asdk/make/image_rom_wifi/wifi_driver/rom/lib_wifi_driver_rom.a(rom_wifi_hal_bcn.o)
 .debug_str     0x000000000007ecca      0x4d0 /home/weiqiang_sun/S_SDK_Repo/S_SDK_Repo_RTOS_Master_Temporary/amebagreen2_gcc_project/build/project_km4ns/asdk/make/image_rom_wifi/wifi_driver/rom/lib_wifi_driver_rom.a(rom_wifi_hal_debug.o)
 .debug_str     0x000000000007f19a      0x6a1 /home/weiqiang_sun/S_SDK_Repo/S_SDK_Repo_RTOS_Master_Temporary/amebagreen2_gcc_project/build/project_km4ns/asdk/make/image_rom_wifi/wifi_driver/rom/lib_wifi_driver_rom.a(rom_wifi_hal_init.o)
 .debug_str     0x000000000007f83b      0x2ab /home/weiqiang_sun/S_SDK_Repo/S_SDK_Repo_RTOS_Master_Temporary/amebagreen2_gcc_project/build/project_km4ns/asdk/make/image_rom_wifi/wifi_driver/rom/lib_wifi_driver_rom.a(rom_wifi_hal_io.o)
 .debug_str     0x000000000007fae6      0x91b /home/weiqiang_sun/S_SDK_Repo/S_SDK_Repo_RTOS_Master_Temporary/amebagreen2_gcc_project/build/project_km4ns/asdk/make/image_rom_wifi/wifi_driver/rom/lib_wifi_driver_rom.a(rom_wifi_hal_media_access.o)
 .debug_str     0x0000000000080401      0xf09 /home/weiqiang_sun/S_SDK_Repo/S_SDK_Repo_RTOS_Master_Temporary/amebagreen2_gcc_project/build/project_km4ns/asdk/make/image_rom_wifi/wifi_driver/rom/lib_wifi_driver_rom.a(rom_wifi_hal_misc.o)
 .debug_str     0x000000000008130a      0x5e9 /home/weiqiang_sun/S_SDK_Repo/S_SDK_Repo_RTOS_Master_Temporary/amebagreen2_gcc_project/build/project_km4ns/asdk/make/image_rom_wifi/wifi_driver/rom/lib_wifi_driver_rom.a(rom_wifi_hal_rate.o)
 .debug_str     0x00000000000818f3      0x8af /home/weiqiang_sun/S_SDK_Repo/S_SDK_Repo_RTOS_Master_Temporary/amebagreen2_gcc_project/build/project_km4ns/asdk/make/image_rom_wifi/wifi_driver/rom/lib_wifi_driver_rom.a(rom_wifi_hal_secure.o)
 .debug_str     0x00000000000821a2      0x39f /home/weiqiang_sun/S_SDK_Repo/S_SDK_Repo_RTOS_Master_Temporary/amebagreen2_gcc_project/build/project_km4ns/asdk/make/image_rom_wifi/wifi_driver/rom/lib_wifi_driver_rom.a(rom_wifi_hal_tsf.o)
 .debug_str     0x0000000000082541      0x8b8 /home/weiqiang_sun/S_SDK_Repo/S_SDK_Repo_RTOS_Master_Temporary/amebagreen2_gcc_project/build/project_km4ns/asdk/make/image_rom_wifi/wifi_driver/rom/lib_wifi_driver_rom.a(rom_wifi_hal_txdesc.o)
 .debug_str     0x0000000000082df9      0x59a /home/weiqiang_sun/S_SDK_Repo/S_SDK_Repo_RTOS_Master_Temporary/amebagreen2_gcc_project/build/project_km4ns/asdk/make/image_rom_wifi/wifi_driver/rom/lib_wifi_driver_rom.a(rom_wifi_hal_rxdesc.o)
 .debug_str     0x0000000000083393      0xebc /home/weiqiang_sun/S_SDK_Repo/S_SDK_Repo_RTOS_Master_Temporary/amebagreen2_gcc_project/build/project_km4ns/asdk/make/image_rom_wifi/wifi_driver/rom/lib_wifi_driver_rom.a(rom_rtw_queue.o)
 .debug_str     0x000000000008424f      0xf28 /home/weiqiang_sun/S_SDK_Repo/S_SDK_Repo_RTOS_Master_Temporary/amebagreen2_gcc_project/build/project_km4ns/asdk/make/image_rom_wifi/wifi_driver/rom/lib_wifi_driver_rom.a(rom_hal_rom_to_flash.o)

.comment        0x0000000000000000     0x1243
 .comment       0x0000000000000000       0x37 /home/weiqiang_sun/S_SDK_Repo/S_SDK_Repo_RTOS_Master_Temporary/amebagreen2_gcc_project/build/project_km4ns/asdk/make/image_rom_wifi/wifi_driver/rom/lib_wifi_driver_rom.a(rom_aes.o)
 .comment       0x0000000000000037       0x37 /home/weiqiang_sun/S_SDK_Repo/S_SDK_Repo_RTOS_Master_Temporary/amebagreen2_gcc_project/build/project_km4ns/asdk/make/image_rom_wifi/wifi_driver/rom/lib_wifi_driver_rom.a(rom_arc4.o)
 .comment       0x000000000000006e       0x37 /home/weiqiang_sun/S_SDK_Repo/S_SDK_Repo_RTOS_Master_Temporary/amebagreen2_gcc_project/build/project_km4ns/asdk/make/image_rom_wifi/wifi_driver/rom/lib_wifi_driver_rom.a(rom_md5.o)
 .comment       0x00000000000000a5       0x37 /home/weiqiang_sun/S_SDK_Repo/S_SDK_Repo_RTOS_Master_Temporary/amebagreen2_gcc_project/build/project_km4ns/asdk/make/image_rom_wifi/wifi_driver/rom/lib_wifi_driver_rom.a(rom_rc4.o)
 .comment       0x00000000000000dc       0x37 /home/weiqiang_sun/S_SDK_Repo/S_SDK_Repo_RTOS_Master_Temporary/amebagreen2_gcc_project/build/project_km4ns/asdk/make/image_rom_wifi/wifi_driver/rom/lib_wifi_driver_rom.a(rom_rtw_dh_groups.o)
 .comment       0x0000000000000113       0x37 /home/weiqiang_sun/S_SDK_Repo/S_SDK_Repo_RTOS_Master_Temporary/amebagreen2_gcc_project/build/project_km4ns/asdk/make/image_rom_wifi/wifi_driver/rom/lib_wifi_driver_rom.a(rom_rtw_mbedtls_bignum.o)
 .comment       0x000000000000014a       0x37 /home/weiqiang_sun/S_SDK_Repo/S_SDK_Repo_RTOS_Master_Temporary/amebagreen2_gcc_project/build/project_km4ns/asdk/make/image_rom_wifi/wifi_driver/rom/lib_wifi_driver_rom.a(rom_rtw_mbedtls_ecp.o)
 .comment       0x0000000000000181       0x37 /home/weiqiang_sun/S_SDK_Repo/S_SDK_Repo_RTOS_Master_Temporary/amebagreen2_gcc_project/build/project_km4ns/asdk/make/image_rom_wifi/wifi_driver/rom/lib_wifi_driver_rom.a(rom_rtw_mbedtls_ecp_curves.o)
 .comment       0x00000000000001b8       0x37 /home/weiqiang_sun/S_SDK_Repo/S_SDK_Repo_RTOS_Master_Temporary/amebagreen2_gcc_project/build/project_km4ns/asdk/make/image_rom_wifi/wifi_driver/rom/lib_wifi_driver_rom.a(rom_rtw_mbedtls_func_map.o)
 .comment       0x00000000000001ef       0x37 /home/weiqiang_sun/S_SDK_Repo/S_SDK_Repo_RTOS_Master_Temporary/amebagreen2_gcc_project/build/project_km4ns/asdk/make/image_rom_wifi/wifi_driver/rom/lib_wifi_driver_rom.a(rom_rtw_mbedtls_platform.o)
 .comment       0x0000000000000226       0x37 /home/weiqiang_sun/S_SDK_Repo/S_SDK_Repo_RTOS_Master_Temporary/amebagreen2_gcc_project/build/project_km4ns/asdk/make/image_rom_wifi/wifi_driver/rom/lib_wifi_driver_rom.a(rom_rtw_security.o)
 .comment       0x000000000000025d       0x37 /home/weiqiang_sun/S_SDK_Repo/S_SDK_Repo_RTOS_Master_Temporary/amebagreen2_gcc_project/build/project_km4ns/asdk/make/image_rom_wifi/wifi_driver/rom/lib_wifi_driver_rom.a(rom_rtw_security_gcm.o)
 .comment       0x0000000000000294       0x37 /home/weiqiang_sun/S_SDK_Repo/S_SDK_Repo_RTOS_Master_Temporary/amebagreen2_gcc_project/build/project_km4ns/asdk/make/image_rom_wifi/wifi_driver/rom/lib_wifi_driver_rom.a(rom_rtw_sha256.o)
 .comment       0x00000000000002cb       0x37 /home/weiqiang_sun/S_SDK_Repo/S_SDK_Repo_RTOS_Master_Temporary/amebagreen2_gcc_project/build/project_km4ns/asdk/make/image_rom_wifi/wifi_driver/rom/lib_wifi_driver_rom.a(rom_rtw_sha384.o)
 .comment       0x0000000000000302       0x37 /home/weiqiang_sun/S_SDK_Repo/S_SDK_Repo_RTOS_Master_Temporary/amebagreen2_gcc_project/build/project_km4ns/asdk/make/image_rom_wifi/wifi_driver/rom/lib_wifi_driver_rom.a(rom_sha1.o)
 .comment       0x0000000000000339       0x37 /home/weiqiang_sun/S_SDK_Repo/S_SDK_Repo_RTOS_Master_Temporary/amebagreen2_gcc_project/build/project_km4ns/asdk/make/image_rom_wifi/wifi_driver/rom/lib_wifi_driver_rom.a(rom_wpa_lite_part2.o)
 .comment       0x0000000000000370       0x37 /home/weiqiang_sun/S_SDK_Repo/S_SDK_Repo_RTOS_Master_Temporary/amebagreen2_gcc_project/build/project_km4ns/asdk/make/image_rom_wifi/wifi_driver/rom/lib_wifi_driver_rom.a(rom_wpa_lite_psk.o)
 .comment       0x00000000000003a7       0x37 /home/weiqiang_sun/S_SDK_Repo/S_SDK_Repo_RTOS_Master_Temporary/amebagreen2_gcc_project/build/project_km4ns/asdk/make/image_rom_wifi/wifi_driver/rom/lib_wifi_driver_rom.a(rom_wpa_lite_sae.o)
 .comment       0x00000000000003de       0x37 /home/weiqiang_sun/S_SDK_Repo/S_SDK_Repo_RTOS_Master_Temporary/amebagreen2_gcc_project/build/project_km4ns/asdk/make/image_rom_wifi/wifi_driver/rom/lib_wifi_driver_rom.a(rom_wpa_lite_sae_crypto.o)
 .comment       0x0000000000000415       0x37 /home/weiqiang_sun/S_SDK_Repo/S_SDK_Repo_RTOS_Master_Temporary/amebagreen2_gcc_project/build/project_km4ns/asdk/make/image_rom_wifi/wifi_driver/rom/lib_wifi_driver_rom.a(rom_rtw_11d.o)
 .comment       0x000000000000044c       0x37 /home/weiqiang_sun/S_SDK_Repo/S_SDK_Repo_RTOS_Master_Temporary/amebagreen2_gcc_project/build/project_km4ns/asdk/make/image_rom_wifi/wifi_driver/rom/lib_wifi_driver_rom.a(rom_rtw_80211w.o)
 .comment       0x0000000000000483       0x37 /home/weiqiang_sun/S_SDK_Repo/S_SDK_Repo_RTOS_Master_Temporary/amebagreen2_gcc_project/build/project_km4ns/asdk/make/image_rom_wifi/wifi_driver/rom/lib_wifi_driver_rom.a(rom_rtw_action.o)
 .comment       0x00000000000004ba       0x37 /home/weiqiang_sun/S_SDK_Repo/S_SDK_Repo_RTOS_Master_Temporary/amebagreen2_gcc_project/build/project_km4ns/asdk/make/image_rom_wifi/wifi_driver/rom/lib_wifi_driver_rom.a(rom_rtw_assoc.o)
 .comment       0x00000000000004f1       0x37 /home/weiqiang_sun/S_SDK_Repo/S_SDK_Repo_RTOS_Master_Temporary/amebagreen2_gcc_project/build/project_km4ns/asdk/make/image_rom_wifi/wifi_driver/rom/lib_wifi_driver_rom.a(rom_rtw_auth.o)
 .comment       0x0000000000000528       0x37 /home/weiqiang_sun/S_SDK_Repo/S_SDK_Repo_RTOS_Master_Temporary/amebagreen2_gcc_project/build/project_km4ns/asdk/make/image_rom_wifi/wifi_driver/rom/lib_wifi_driver_rom.a(rom_rtw_beacon.o)
 .comment       0x000000000000055f       0x37 /home/weiqiang_sun/S_SDK_Repo/S_SDK_Repo_RTOS_Master_Temporary/amebagreen2_gcc_project/build/project_km4ns/asdk/make/image_rom_wifi/wifi_driver/rom/lib_wifi_driver_rom.a(rom_rtw_chbw.o)
 .comment       0x0000000000000596       0x37 /home/weiqiang_sun/S_SDK_Repo/S_SDK_Repo_RTOS_Master_Temporary/amebagreen2_gcc_project/build/project_km4ns/asdk/make/image_rom_wifi/wifi_driver/rom/lib_wifi_driver_rom.a(rom_rtw_he.o)
 .comment       0x00000000000005cd       0x37 /home/weiqiang_sun/S_SDK_Repo/S_SDK_Repo_RTOS_Master_Temporary/amebagreen2_gcc_project/build/project_km4ns/asdk/make/image_rom_wifi/wifi_driver/rom/lib_wifi_driver_rom.a(rom_rtw_ieee80211.o)
 .comment       0x0000000000000604       0x37 /home/weiqiang_sun/S_SDK_Repo/S_SDK_Repo_RTOS_Master_Temporary/amebagreen2_gcc_project/build/project_km4ns/asdk/make/image_rom_wifi/wifi_driver/rom/lib_wifi_driver_rom.a(rom_rtw_ieee80211_part2.o)
 .comment       0x000000000000063b       0x37 /home/weiqiang_sun/S_SDK_Repo/S_SDK_Repo_RTOS_Master_Temporary/amebagreen2_gcc_project/build/project_km4ns/asdk/make/image_rom_wifi/wifi_driver/rom/lib_wifi_driver_rom.a(rom_rtw_pmksa_cache.o)
 .comment       0x0000000000000672       0x37 /home/weiqiang_sun/S_SDK_Repo/S_SDK_Repo_RTOS_Master_Temporary/amebagreen2_gcc_project/build/project_km4ns/asdk/make/image_rom_wifi/wifi_driver/rom/lib_wifi_driver_rom.a(rom_rtw_probe.o)
 .comment       0x00000000000006a9       0x37 /home/weiqiang_sun/S_SDK_Repo/S_SDK_Repo_RTOS_Master_Temporary/amebagreen2_gcc_project/build/project_km4ns/asdk/make/image_rom_wifi/wifi_driver/rom/lib_wifi_driver_rom.a(rom_rtw_psk.o)
 .comment       0x00000000000006e0       0x37 /home/weiqiang_sun/S_SDK_Repo/S_SDK_Repo_RTOS_Master_Temporary/amebagreen2_gcc_project/build/project_km4ns/asdk/make/image_rom_wifi/wifi_driver/rom/lib_wifi_driver_rom.a(rom_rtw_rate.o)
 .comment       0x0000000000000717       0x37 /home/weiqiang_sun/S_SDK_Repo/S_SDK_Repo_RTOS_Master_Temporary/amebagreen2_gcc_project/build/project_km4ns/asdk/make/image_rom_wifi/wifi_driver/rom/lib_wifi_driver_rom.a(rom_rtw_recv.o)
 .comment       0x000000000000074e       0x37 /home/weiqiang_sun/S_SDK_Repo/S_SDK_Repo_RTOS_Master_Temporary/amebagreen2_gcc_project/build/project_km4ns/asdk/make/image_rom_wifi/wifi_driver/rom/lib_wifi_driver_rom.a(rom_rtw_rf.o)
 .comment       0x0000000000000785       0x37 /home/weiqiang_sun/S_SDK_Repo/S_SDK_Repo_RTOS_Master_Temporary/amebagreen2_gcc_project/build/project_km4ns/asdk/make/image_rom_wifi/wifi_driver/rom/lib_wifi_driver_rom.a(rom_rtw_vht.o)
 .comment       0x00000000000007bc       0x37 /home/weiqiang_sun/S_SDK_Repo/S_SDK_Repo_RTOS_Master_Temporary/amebagreen2_gcc_project/build/project_km4ns/asdk/make/image_rom_wifi/wifi_driver/rom/lib_wifi_driver_rom.a(rom_rtw_ht.o)
 .comment       0x00000000000007f3       0x37 /home/weiqiang_sun/S_SDK_Repo/S_SDK_Repo_RTOS_Master_Temporary/amebagreen2_gcc_project/build/project_km4ns/asdk/make/image_rom_wifi/wifi_driver/rom/lib_wifi_driver_rom.a(rom_rtw_network.o)
 .comment       0x000000000000082a       0x37 /home/weiqiang_sun/S_SDK_Repo/S_SDK_Repo_RTOS_Master_Temporary/amebagreen2_gcc_project/build/project_km4ns/asdk/make/image_rom_wifi/wifi_driver/rom/lib_wifi_driver_rom.a(rom_rtw_pmksa_cache_part2.o)
 .comment       0x0000000000000861       0x37 /home/weiqiang_sun/S_SDK_Repo/S_SDK_Repo_RTOS_Master_Temporary/amebagreen2_gcc_project/build/project_km4ns/asdk/make/image_rom_wifi/wifi_driver/rom/lib_wifi_driver_rom.a(rom_rtw_11d_part2.o)
 .comment       0x0000000000000898       0x37 /home/weiqiang_sun/S_SDK_Repo/S_SDK_Repo_RTOS_Master_Temporary/amebagreen2_gcc_project/build/project_km4ns/asdk/make/image_rom_wifi/wifi_driver/rom/lib_wifi_driver_rom.a(rom_rtw_he_part2.o)
 .comment       0x00000000000008cf       0x37 /home/weiqiang_sun/S_SDK_Repo/S_SDK_Repo_RTOS_Master_Temporary/amebagreen2_gcc_project/build/project_km4ns/asdk/make/image_rom_wifi/wifi_driver/rom/lib_wifi_driver_rom.a(rom_rtw_shortcut.o)
 .comment       0x0000000000000906       0x37 /home/weiqiang_sun/S_SDK_Repo/S_SDK_Repo_RTOS_Master_Temporary/amebagreen2_gcc_project/build/project_km4ns/asdk/make/image_rom_wifi/wifi_driver/rom/lib_wifi_driver_rom.a(rom_rtw_setkey.o)
 .comment       0x000000000000093d       0x37 /home/weiqiang_sun/S_SDK_Repo/S_SDK_Repo_RTOS_Master_Temporary/amebagreen2_gcc_project/build/project_km4ns/asdk/make/image_rom_wifi/wifi_driver/rom/lib_wifi_driver_rom.a(rom_rtw_beacon_part2.o)
 .comment       0x0000000000000974       0x37 /home/weiqiang_sun/S_SDK_Repo/S_SDK_Repo_RTOS_Master_Temporary/amebagreen2_gcc_project/build/project_km4ns/asdk/make/image_rom_wifi/wifi_driver/rom/lib_wifi_driver_rom.a(rom_rtw_sitesurvey.o)
 .comment       0x00000000000009ab       0x37 /home/weiqiang_sun/S_SDK_Repo/S_SDK_Repo_RTOS_Master_Temporary/amebagreen2_gcc_project/build/project_km4ns/asdk/make/image_rom_wifi/wifi_driver/rom/lib_wifi_driver_rom.a(rom_rtw_sitesurvey_report.o)
 .comment       0x00000000000009e2       0x37 /home/weiqiang_sun/S_SDK_Repo/S_SDK_Repo_RTOS_Master_Temporary/amebagreen2_gcc_project/build/project_km4ns/asdk/make/image_rom_wifi/wifi_driver/rom/lib_wifi_driver_rom.a(rom_rtw_ap_xmit.o)
 .comment       0x0000000000000a19       0x37 /home/weiqiang_sun/S_SDK_Repo/S_SDK_Repo_RTOS_Master_Temporary/amebagreen2_gcc_project/build/project_km4ns/asdk/make/image_rom_wifi/wifi_driver/rom/lib_wifi_driver_rom.a(rom_rtw_addba.o)
 .comment       0x0000000000000a50       0x37 /home/weiqiang_sun/S_SDK_Repo/S_SDK_Repo_RTOS_Master_Temporary/amebagreen2_gcc_project/build/project_km4ns/asdk/make/image_rom_wifi/wifi_driver/rom/lib_wifi_driver_rom.a(rom_rtw_80211w_part2.o)
 .comment       0x0000000000000a87       0x37 /home/weiqiang_sun/S_SDK_Repo/S_SDK_Repo_RTOS_Master_Temporary/amebagreen2_gcc_project/build/project_km4ns/asdk/make/image_rom_wifi/wifi_driver/rom/lib_wifi_driver_rom.a(rom_rtw_auth_part2.o)
 .comment       0x0000000000000abe       0x37 /home/weiqiang_sun/S_SDK_Repo/S_SDK_Repo_RTOS_Master_Temporary/amebagreen2_gcc_project/build/project_km4ns/asdk/make/image_rom_wifi/wifi_driver/rom/lib_wifi_driver_rom.a(rom_rtw_action_part2.o)
 .comment       0x0000000000000af5       0x37 /home/weiqiang_sun/S_SDK_Repo/S_SDK_Repo_RTOS_Master_Temporary/amebagreen2_gcc_project/build/project_km4ns/asdk/make/image_rom_wifi/wifi_driver/rom/lib_wifi_driver_rom.a(rom_rtw_join.o)
 .comment       0x0000000000000b2c       0x37 /home/weiqiang_sun/S_SDK_Repo/S_SDK_Repo_RTOS_Master_Temporary/amebagreen2_gcc_project/build/project_km4ns/asdk/make/image_rom_wifi/wifi_driver/rom/lib_wifi_driver_rom.a(rom_rtw_join_result.o)
 .comment       0x0000000000000b63       0x37 /home/weiqiang_sun/S_SDK_Repo/S_SDK_Repo_RTOS_Master_Temporary/amebagreen2_gcc_project/build/project_km4ns/asdk/make/image_rom_wifi/wifi_driver/rom/lib_wifi_driver_rom.a(rom_rtw_assoc_part2.o)
 .comment       0x0000000000000b9a       0x37 /home/weiqiang_sun/S_SDK_Repo/S_SDK_Repo_RTOS_Master_Temporary/amebagreen2_gcc_project/build/project_km4ns/asdk/make/image_rom_wifi/wifi_driver/rom/lib_wifi_driver_rom.a(rom_rtw_security_part2.o)
 .comment       0x0000000000000bd1       0x37 /home/weiqiang_sun/S_SDK_Repo/S_SDK_Repo_RTOS_Master_Temporary/amebagreen2_gcc_project/build/project_km4ns/asdk/make/image_rom_wifi/wifi_driver/rom/lib_wifi_driver_rom.a(rom_rtw_vht_part2.o)
 .comment       0x0000000000000c08       0x37 /home/weiqiang_sun/S_SDK_Repo/S_SDK_Repo_RTOS_Master_Temporary/amebagreen2_gcc_project/build/project_km4ns/asdk/make/image_rom_wifi/wifi_driver/rom/lib_wifi_driver_rom.a(rom_rtw_xmit.o)
 .comment       0x0000000000000c3f       0x37 /home/weiqiang_sun/S_SDK_Repo/S_SDK_Repo_RTOS_Master_Temporary/amebagreen2_gcc_project/build/project_km4ns/asdk/make/image_rom_wifi/wifi_driver/rom/lib_wifi_driver_rom.a(rom_rtw_recv_part2.o)
 .comment       0x0000000000000c76       0x37 /home/weiqiang_sun/S_SDK_Repo/S_SDK_Repo_RTOS_Master_Temporary/amebagreen2_gcc_project/build/project_km4ns/asdk/make/image_rom_wifi/wifi_driver/rom/lib_wifi_driver_rom.a(rom_rtw_recv_reorder.o)
 .comment       0x0000000000000cad       0x37 /home/weiqiang_sun/S_SDK_Repo/S_SDK_Repo_RTOS_Master_Temporary/amebagreen2_gcc_project/build/project_km4ns/asdk/make/image_rom_wifi/wifi_driver/rom/lib_wifi_driver_rom.a(rom_rtw_mgnt.o)
 .comment       0x0000000000000ce4       0x37 /home/weiqiang_sun/S_SDK_Repo/S_SDK_Repo_RTOS_Master_Temporary/amebagreen2_gcc_project/build/project_km4ns/asdk/make/image_rom_wifi/wifi_driver/rom/lib_wifi_driver_rom.a(rom_rtw_state.o)
 .comment       0x0000000000000d1b       0x37 /home/weiqiang_sun/S_SDK_Repo/S_SDK_Repo_RTOS_Master_Temporary/amebagreen2_gcc_project/build/project_km4ns/asdk/make/image_rom_wifi/wifi_driver/rom/lib_wifi_driver_rom.a(rom_rtw_sta_mgt.o)
 .comment       0x0000000000000d52       0x37 /home/weiqiang_sun/S_SDK_Repo/S_SDK_Repo_RTOS_Master_Temporary/amebagreen2_gcc_project/build/project_km4ns/asdk/make/image_rom_wifi/wifi_driver/rom/lib_wifi_driver_rom.a(rom_rtw_ap.o)
 .comment       0x0000000000000d89       0x37 /home/weiqiang_sun/S_SDK_Repo/S_SDK_Repo_RTOS_Master_Temporary/amebagreen2_gcc_project/build/project_km4ns/asdk/make/image_rom_wifi/wifi_driver/rom/lib_wifi_driver_rom.a(rom_rtw_skbuff.o)
 .comment       0x0000000000000dc0       0x37 /home/weiqiang_sun/S_SDK_Repo/S_SDK_Repo_RTOS_Master_Temporary/amebagreen2_gcc_project/build/project_km4ns/asdk/make/image_rom_wifi/wifi_driver/rom/lib_wifi_driver_rom.a(rom_hal_debug.o)
 .comment       0x0000000000000df7       0x37 /home/weiqiang_sun/S_SDK_Repo/S_SDK_Repo_RTOS_Master_Temporary/amebagreen2_gcc_project/build/project_km4ns/asdk/make/image_rom_wifi/wifi_driver/rom/lib_wifi_driver_rom.a(rom_hal_h2c.o)
 .comment       0x0000000000000e2e       0x37 /home/weiqiang_sun/S_SDK_Repo/S_SDK_Repo_RTOS_Master_Temporary/amebagreen2_gcc_project/build/project_km4ns/asdk/make/image_rom_wifi/wifi_driver/rom/lib_wifi_driver_rom.a(rom_hal_h2c_g1.o)
 .comment       0x0000000000000e65       0x37 /home/weiqiang_sun/S_SDK_Repo/S_SDK_Repo_RTOS_Master_Temporary/amebagreen2_gcc_project/build/project_km4ns/asdk/make/image_rom_wifi/wifi_driver/rom/lib_wifi_driver_rom.a(rom_hal_recv.o)
 .comment       0x0000000000000e9c       0x37 /home/weiqiang_sun/S_SDK_Repo/S_SDK_Repo_RTOS_Master_Temporary/amebagreen2_gcc_project/build/project_km4ns/asdk/make/image_rom_wifi/wifi_driver/rom/lib_wifi_driver_rom.a(rom_hal_structs.o)
 .comment       0x0000000000000ed3       0x37 /home/weiqiang_sun/S_SDK_Repo/S_SDK_Repo_RTOS_Master_Temporary/amebagreen2_gcc_project/build/project_km4ns/asdk/make/image_rom_wifi/wifi_driver/rom/lib_wifi_driver_rom.a(rom_hal_xmit.o)
 .comment       0x0000000000000f0a       0x37 /home/weiqiang_sun/S_SDK_Repo/S_SDK_Repo_RTOS_Master_Temporary/amebagreen2_gcc_project/build/project_km4ns/asdk/make/image_rom_wifi/wifi_driver/rom/lib_wifi_driver_rom.a(rom_hal_xmit_g1.o)
 .comment       0x0000000000000f41       0x37 /home/weiqiang_sun/S_SDK_Repo/S_SDK_Repo_RTOS_Master_Temporary/amebagreen2_gcc_project/build/project_km4ns/asdk/make/image_rom_wifi/wifi_driver/rom/lib_wifi_driver_rom.a(rom_wifi_hal_ax.o)
 .comment       0x0000000000000f78       0x37 /home/weiqiang_sun/S_SDK_Repo/S_SDK_Repo_RTOS_Master_Temporary/amebagreen2_gcc_project/build/project_km4ns/asdk/make/image_rom_wifi/wifi_driver/rom/lib_wifi_driver_rom.a(rom_wifi_hal_bcn.o)
 .comment       0x0000000000000faf       0x37 /home/weiqiang_sun/S_SDK_Repo/S_SDK_Repo_RTOS_Master_Temporary/amebagreen2_gcc_project/build/project_km4ns/asdk/make/image_rom_wifi/wifi_driver/rom/lib_wifi_driver_rom.a(rom_wifi_hal_debug.o)
 .comment       0x0000000000000fe6       0x37 /home/weiqiang_sun/S_SDK_Repo/S_SDK_Repo_RTOS_Master_Temporary/amebagreen2_gcc_project/build/project_km4ns/asdk/make/image_rom_wifi/wifi_driver/rom/lib_wifi_driver_rom.a(rom_wifi_hal_init.o)
 .comment       0x000000000000101d       0x37 /home/weiqiang_sun/S_SDK_Repo/S_SDK_Repo_RTOS_Master_Temporary/amebagreen2_gcc_project/build/project_km4ns/asdk/make/image_rom_wifi/wifi_driver/rom/lib_wifi_driver_rom.a(rom_wifi_hal_io.o)
 .comment       0x0000000000001054       0x37 /home/weiqiang_sun/S_SDK_Repo/S_SDK_Repo_RTOS_Master_Temporary/amebagreen2_gcc_project/build/project_km4ns/asdk/make/image_rom_wifi/wifi_driver/rom/lib_wifi_driver_rom.a(rom_wifi_hal_media_access.o)
 .comment       0x000000000000108b       0x37 /home/weiqiang_sun/S_SDK_Repo/S_SDK_Repo_RTOS_Master_Temporary/amebagreen2_gcc_project/build/project_km4ns/asdk/make/image_rom_wifi/wifi_driver/rom/lib_wifi_driver_rom.a(rom_wifi_hal_misc.o)
 .comment       0x00000000000010c2       0x37 /home/weiqiang_sun/S_SDK_Repo/S_SDK_Repo_RTOS_Master_Temporary/amebagreen2_gcc_project/build/project_km4ns/asdk/make/image_rom_wifi/wifi_driver/rom/lib_wifi_driver_rom.a(rom_wifi_hal_rate.o)
 .comment       0x00000000000010f9       0x37 /home/weiqiang_sun/S_SDK_Repo/S_SDK_Repo_RTOS_Master_Temporary/amebagreen2_gcc_project/build/project_km4ns/asdk/make/image_rom_wifi/wifi_driver/rom/lib_wifi_driver_rom.a(rom_wifi_hal_secure.o)
 .comment       0x0000000000001130       0x37 /home/weiqiang_sun/S_SDK_Repo/S_SDK_Repo_RTOS_Master_Temporary/amebagreen2_gcc_project/build/project_km4ns/asdk/make/image_rom_wifi/wifi_driver/rom/lib_wifi_driver_rom.a(rom_wifi_hal_tsf.o)
 .comment       0x0000000000001167       0x37 /home/weiqiang_sun/S_SDK_Repo/S_SDK_Repo_RTOS_Master_Temporary/amebagreen2_gcc_project/build/project_km4ns/asdk/make/image_rom_wifi/wifi_driver/rom/lib_wifi_driver_rom.a(rom_wifi_hal_txdesc.o)
 .comment       0x000000000000119e       0x37 /home/weiqiang_sun/S_SDK_Repo/S_SDK_Repo_RTOS_Master_Temporary/amebagreen2_gcc_project/build/project_km4ns/asdk/make/image_rom_wifi/wifi_driver/rom/lib_wifi_driver_rom.a(rom_wifi_hal_rxdesc.o)
 .comment       0x00000000000011d5       0x37 /home/weiqiang_sun/S_SDK_Repo/S_SDK_Repo_RTOS_Master_Temporary/amebagreen2_gcc_project/build/project_km4ns/asdk/make/image_rom_wifi/wifi_driver/rom/lib_wifi_driver_rom.a(rom_rtw_queue.o)
 .comment       0x000000000000120c       0x37 /home/weiqiang_sun/S_SDK_Repo/S_SDK_Repo_RTOS_Master_Temporary/amebagreen2_gcc_project/build/project_km4ns/asdk/make/image_rom_wifi/wifi_driver/rom/lib_wifi_driver_rom.a(rom_hal_rom_to_flash.o)

.ARM.attributes
                0x0000000000000000       0x34
 .ARM.attributes
                0x0000000000000000       0x34 /home/weiqiang_sun/S_SDK_Repo/S_SDK_Repo_RTOS_Master_Temporary/amebagreen2_gcc_project/build/project_km4ns/asdk/make/image_rom_wifi/wifi_driver/rom/lib_wifi_driver_rom.a(rom_aes.o)
 .ARM.attributes
                0x0000000000000034       0x34 /home/weiqiang_sun/S_SDK_Repo/S_SDK_Repo_RTOS_Master_Temporary/amebagreen2_gcc_project/build/project_km4ns/asdk/make/image_rom_wifi/wifi_driver/rom/lib_wifi_driver_rom.a(rom_arc4.o)
 .ARM.attributes
                0x0000000000000068       0x34 /home/weiqiang_sun/S_SDK_Repo/S_SDK_Repo_RTOS_Master_Temporary/amebagreen2_gcc_project/build/project_km4ns/asdk/make/image_rom_wifi/wifi_driver/rom/lib_wifi_driver_rom.a(rom_md5.o)
 .ARM.attributes
                0x000000000000009c       0x34 /home/weiqiang_sun/S_SDK_Repo/S_SDK_Repo_RTOS_Master_Temporary/amebagreen2_gcc_project/build/project_km4ns/asdk/make/image_rom_wifi/wifi_driver/rom/lib_wifi_driver_rom.a(rom_rc4.o)
 .ARM.attributes
                0x00000000000000d0       0x34 /home/weiqiang_sun/S_SDK_Repo/S_SDK_Repo_RTOS_Master_Temporary/amebagreen2_gcc_project/build/project_km4ns/asdk/make/image_rom_wifi/wifi_driver/rom/lib_wifi_driver_rom.a(rom_rtw_dh_groups.o)
 .ARM.attributes
                0x0000000000000104       0x34 /home/weiqiang_sun/S_SDK_Repo/S_SDK_Repo_RTOS_Master_Temporary/amebagreen2_gcc_project/build/project_km4ns/asdk/make/image_rom_wifi/wifi_driver/rom/lib_wifi_driver_rom.a(rom_rtw_mbedtls_bignum.o)
 .ARM.attributes
                0x0000000000000138       0x34 /home/weiqiang_sun/S_SDK_Repo/S_SDK_Repo_RTOS_Master_Temporary/amebagreen2_gcc_project/build/project_km4ns/asdk/make/image_rom_wifi/wifi_driver/rom/lib_wifi_driver_rom.a(rom_rtw_mbedtls_ecp.o)
 .ARM.attributes
                0x000000000000016c       0x34 /home/weiqiang_sun/S_SDK_Repo/S_SDK_Repo_RTOS_Master_Temporary/amebagreen2_gcc_project/build/project_km4ns/asdk/make/image_rom_wifi/wifi_driver/rom/lib_wifi_driver_rom.a(rom_rtw_mbedtls_ecp_curves.o)
 .ARM.attributes
                0x00000000000001a0       0x34 /home/weiqiang_sun/S_SDK_Repo/S_SDK_Repo_RTOS_Master_Temporary/amebagreen2_gcc_project/build/project_km4ns/asdk/make/image_rom_wifi/wifi_driver/rom/lib_wifi_driver_rom.a(rom_rtw_mbedtls_func_map.o)
 .ARM.attributes
                0x00000000000001d4       0x34 /home/weiqiang_sun/S_SDK_Repo/S_SDK_Repo_RTOS_Master_Temporary/amebagreen2_gcc_project/build/project_km4ns/asdk/make/image_rom_wifi/wifi_driver/rom/lib_wifi_driver_rom.a(rom_rtw_mbedtls_platform.o)
 .ARM.attributes
                0x0000000000000208       0x34 /home/weiqiang_sun/S_SDK_Repo/S_SDK_Repo_RTOS_Master_Temporary/amebagreen2_gcc_project/build/project_km4ns/asdk/make/image_rom_wifi/wifi_driver/rom/lib_wifi_driver_rom.a(rom_rtw_security.o)
 .ARM.attributes
                0x000000000000023c       0x34 /home/weiqiang_sun/S_SDK_Repo/S_SDK_Repo_RTOS_Master_Temporary/amebagreen2_gcc_project/build/project_km4ns/asdk/make/image_rom_wifi/wifi_driver/rom/lib_wifi_driver_rom.a(rom_rtw_security_gcm.o)
 .ARM.attributes
                0x0000000000000270       0x34 /home/weiqiang_sun/S_SDK_Repo/S_SDK_Repo_RTOS_Master_Temporary/amebagreen2_gcc_project/build/project_km4ns/asdk/make/image_rom_wifi/wifi_driver/rom/lib_wifi_driver_rom.a(rom_rtw_sha256.o)
 .ARM.attributes
                0x00000000000002a4       0x34 /home/weiqiang_sun/S_SDK_Repo/S_SDK_Repo_RTOS_Master_Temporary/amebagreen2_gcc_project/build/project_km4ns/asdk/make/image_rom_wifi/wifi_driver/rom/lib_wifi_driver_rom.a(rom_rtw_sha384.o)
 .ARM.attributes
                0x00000000000002d8       0x34 /home/weiqiang_sun/S_SDK_Repo/S_SDK_Repo_RTOS_Master_Temporary/amebagreen2_gcc_project/build/project_km4ns/asdk/make/image_rom_wifi/wifi_driver/rom/lib_wifi_driver_rom.a(rom_sha1.o)
 .ARM.attributes
                0x000000000000030c       0x34 /home/weiqiang_sun/S_SDK_Repo/S_SDK_Repo_RTOS_Master_Temporary/amebagreen2_gcc_project/build/project_km4ns/asdk/make/image_rom_wifi/wifi_driver/rom/lib_wifi_driver_rom.a(rom_wpa_lite_part2.o)
 .ARM.attributes
                0x0000000000000340       0x34 /home/weiqiang_sun/S_SDK_Repo/S_SDK_Repo_RTOS_Master_Temporary/amebagreen2_gcc_project/build/project_km4ns/asdk/make/image_rom_wifi/wifi_driver/rom/lib_wifi_driver_rom.a(rom_wpa_lite_psk.o)
 .ARM.attributes
                0x0000000000000374       0x34 /home/weiqiang_sun/S_SDK_Repo/S_SDK_Repo_RTOS_Master_Temporary/amebagreen2_gcc_project/build/project_km4ns/asdk/make/image_rom_wifi/wifi_driver/rom/lib_wifi_driver_rom.a(rom_wpa_lite_sae.o)
 .ARM.attributes
                0x00000000000003a8       0x34 /home/weiqiang_sun/S_SDK_Repo/S_SDK_Repo_RTOS_Master_Temporary/amebagreen2_gcc_project/build/project_km4ns/asdk/make/image_rom_wifi/wifi_driver/rom/lib_wifi_driver_rom.a(rom_wpa_lite_sae_crypto.o)
 .ARM.attributes
                0x00000000000003dc       0x34 /home/weiqiang_sun/S_SDK_Repo/S_SDK_Repo_RTOS_Master_Temporary/amebagreen2_gcc_project/build/project_km4ns/asdk/make/image_rom_wifi/wifi_driver/rom/lib_wifi_driver_rom.a(rom_rtw_11d.o)
 .ARM.attributes
                0x0000000000000410       0x34 /home/weiqiang_sun/S_SDK_Repo/S_SDK_Repo_RTOS_Master_Temporary/amebagreen2_gcc_project/build/project_km4ns/asdk/make/image_rom_wifi/wifi_driver/rom/lib_wifi_driver_rom.a(rom_rtw_80211w.o)
 .ARM.attributes
                0x0000000000000444       0x34 /home/weiqiang_sun/S_SDK_Repo/S_SDK_Repo_RTOS_Master_Temporary/amebagreen2_gcc_project/build/project_km4ns/asdk/make/image_rom_wifi/wifi_driver/rom/lib_wifi_driver_rom.a(rom_rtw_action.o)
 .ARM.attributes
                0x0000000000000478       0x34 /home/weiqiang_sun/S_SDK_Repo/S_SDK_Repo_RTOS_Master_Temporary/amebagreen2_gcc_project/build/project_km4ns/asdk/make/image_rom_wifi/wifi_driver/rom/lib_wifi_driver_rom.a(rom_rtw_assoc.o)
 .ARM.attributes
                0x00000000000004ac       0x34 /home/weiqiang_sun/S_SDK_Repo/S_SDK_Repo_RTOS_Master_Temporary/amebagreen2_gcc_project/build/project_km4ns/asdk/make/image_rom_wifi/wifi_driver/rom/lib_wifi_driver_rom.a(rom_rtw_auth.o)
 .ARM.attributes
                0x00000000000004e0       0x34 /home/weiqiang_sun/S_SDK_Repo/S_SDK_Repo_RTOS_Master_Temporary/amebagreen2_gcc_project/build/project_km4ns/asdk/make/image_rom_wifi/wifi_driver/rom/lib_wifi_driver_rom.a(rom_rtw_beacon.o)
 .ARM.attributes
                0x0000000000000514       0x34 /home/weiqiang_sun/S_SDK_Repo/S_SDK_Repo_RTOS_Master_Temporary/amebagreen2_gcc_project/build/project_km4ns/asdk/make/image_rom_wifi/wifi_driver/rom/lib_wifi_driver_rom.a(rom_rtw_chbw.o)
 .ARM.attributes
                0x0000000000000548       0x34 /home/weiqiang_sun/S_SDK_Repo/S_SDK_Repo_RTOS_Master_Temporary/amebagreen2_gcc_project/build/project_km4ns/asdk/make/image_rom_wifi/wifi_driver/rom/lib_wifi_driver_rom.a(rom_rtw_he.o)
 .ARM.attributes
                0x000000000000057c       0x34 /home/weiqiang_sun/S_SDK_Repo/S_SDK_Repo_RTOS_Master_Temporary/amebagreen2_gcc_project/build/project_km4ns/asdk/make/image_rom_wifi/wifi_driver/rom/lib_wifi_driver_rom.a(rom_rtw_ieee80211.o)
 .ARM.attributes
                0x00000000000005b0       0x34 /home/weiqiang_sun/S_SDK_Repo/S_SDK_Repo_RTOS_Master_Temporary/amebagreen2_gcc_project/build/project_km4ns/asdk/make/image_rom_wifi/wifi_driver/rom/lib_wifi_driver_rom.a(rom_rtw_ieee80211_part2.o)
 .ARM.attributes
                0x00000000000005e4       0x34 /home/weiqiang_sun/S_SDK_Repo/S_SDK_Repo_RTOS_Master_Temporary/amebagreen2_gcc_project/build/project_km4ns/asdk/make/image_rom_wifi/wifi_driver/rom/lib_wifi_driver_rom.a(rom_rtw_pmksa_cache.o)
 .ARM.attributes
                0x0000000000000618       0x34 /home/weiqiang_sun/S_SDK_Repo/S_SDK_Repo_RTOS_Master_Temporary/amebagreen2_gcc_project/build/project_km4ns/asdk/make/image_rom_wifi/wifi_driver/rom/lib_wifi_driver_rom.a(rom_rtw_probe.o)
 .ARM.attributes
                0x000000000000064c       0x34 /home/weiqiang_sun/S_SDK_Repo/S_SDK_Repo_RTOS_Master_Temporary/amebagreen2_gcc_project/build/project_km4ns/asdk/make/image_rom_wifi/wifi_driver/rom/lib_wifi_driver_rom.a(rom_rtw_psk.o)
 .ARM.attributes
                0x0000000000000680       0x34 /home/weiqiang_sun/S_SDK_Repo/S_SDK_Repo_RTOS_Master_Temporary/amebagreen2_gcc_project/build/project_km4ns/asdk/make/image_rom_wifi/wifi_driver/rom/lib_wifi_driver_rom.a(rom_rtw_rate.o)
 .ARM.attributes
                0x00000000000006b4       0x34 /home/weiqiang_sun/S_SDK_Repo/S_SDK_Repo_RTOS_Master_Temporary/amebagreen2_gcc_project/build/project_km4ns/asdk/make/image_rom_wifi/wifi_driver/rom/lib_wifi_driver_rom.a(rom_rtw_recv.o)
 .ARM.attributes
                0x00000000000006e8       0x34 /home/weiqiang_sun/S_SDK_Repo/S_SDK_Repo_RTOS_Master_Temporary/amebagreen2_gcc_project/build/project_km4ns/asdk/make/image_rom_wifi/wifi_driver/rom/lib_wifi_driver_rom.a(rom_rtw_rf.o)
 .ARM.attributes
                0x000000000000071c       0x34 /home/weiqiang_sun/S_SDK_Repo/S_SDK_Repo_RTOS_Master_Temporary/amebagreen2_gcc_project/build/project_km4ns/asdk/make/image_rom_wifi/wifi_driver/rom/lib_wifi_driver_rom.a(rom_rtw_vht.o)
 .ARM.attributes
                0x0000000000000750       0x34 /home/weiqiang_sun/S_SDK_Repo/S_SDK_Repo_RTOS_Master_Temporary/amebagreen2_gcc_project/build/project_km4ns/asdk/make/image_rom_wifi/wifi_driver/rom/lib_wifi_driver_rom.a(rom_rtw_ht.o)
 .ARM.attributes
                0x0000000000000784       0x34 /home/weiqiang_sun/S_SDK_Repo/S_SDK_Repo_RTOS_Master_Temporary/amebagreen2_gcc_project/build/project_km4ns/asdk/make/image_rom_wifi/wifi_driver/rom/lib_wifi_driver_rom.a(rom_rtw_network.o)
 .ARM.attributes
                0x00000000000007b8       0x34 /home/weiqiang_sun/S_SDK_Repo/S_SDK_Repo_RTOS_Master_Temporary/amebagreen2_gcc_project/build/project_km4ns/asdk/make/image_rom_wifi/wifi_driver/rom/lib_wifi_driver_rom.a(rom_rtw_pmksa_cache_part2.o)
 .ARM.attributes
                0x00000000000007ec       0x34 /home/weiqiang_sun/S_SDK_Repo/S_SDK_Repo_RTOS_Master_Temporary/amebagreen2_gcc_project/build/project_km4ns/asdk/make/image_rom_wifi/wifi_driver/rom/lib_wifi_driver_rom.a(rom_rtw_11d_part2.o)
 .ARM.attributes
                0x0000000000000820       0x34 /home/weiqiang_sun/S_SDK_Repo/S_SDK_Repo_RTOS_Master_Temporary/amebagreen2_gcc_project/build/project_km4ns/asdk/make/image_rom_wifi/wifi_driver/rom/lib_wifi_driver_rom.a(rom_rtw_he_part2.o)
 .ARM.attributes
                0x0000000000000854       0x34 /home/weiqiang_sun/S_SDK_Repo/S_SDK_Repo_RTOS_Master_Temporary/amebagreen2_gcc_project/build/project_km4ns/asdk/make/image_rom_wifi/wifi_driver/rom/lib_wifi_driver_rom.a(rom_rtw_shortcut.o)
 .ARM.attributes
                0x0000000000000888       0x34 /home/weiqiang_sun/S_SDK_Repo/S_SDK_Repo_RTOS_Master_Temporary/amebagreen2_gcc_project/build/project_km4ns/asdk/make/image_rom_wifi/wifi_driver/rom/lib_wifi_driver_rom.a(rom_rtw_setkey.o)
 .ARM.attributes
                0x00000000000008bc       0x34 /home/weiqiang_sun/S_SDK_Repo/S_SDK_Repo_RTOS_Master_Temporary/amebagreen2_gcc_project/build/project_km4ns/asdk/make/image_rom_wifi/wifi_driver/rom/lib_wifi_driver_rom.a(rom_rtw_beacon_part2.o)
 .ARM.attributes
                0x00000000000008f0       0x34 /home/weiqiang_sun/S_SDK_Repo/S_SDK_Repo_RTOS_Master_Temporary/amebagreen2_gcc_project/build/project_km4ns/asdk/make/image_rom_wifi/wifi_driver/rom/lib_wifi_driver_rom.a(rom_rtw_sitesurvey.o)
 .ARM.attributes
                0x0000000000000924       0x34 /home/weiqiang_sun/S_SDK_Repo/S_SDK_Repo_RTOS_Master_Temporary/amebagreen2_gcc_project/build/project_km4ns/asdk/make/image_rom_wifi/wifi_driver/rom/lib_wifi_driver_rom.a(rom_rtw_sitesurvey_report.o)
 .ARM.attributes
                0x0000000000000958       0x34 /home/weiqiang_sun/S_SDK_Repo/S_SDK_Repo_RTOS_Master_Temporary/amebagreen2_gcc_project/build/project_km4ns/asdk/make/image_rom_wifi/wifi_driver/rom/lib_wifi_driver_rom.a(rom_rtw_ap_xmit.o)
 .ARM.attributes
                0x000000000000098c       0x34 /home/weiqiang_sun/S_SDK_Repo/S_SDK_Repo_RTOS_Master_Temporary/amebagreen2_gcc_project/build/project_km4ns/asdk/make/image_rom_wifi/wifi_driver/rom/lib_wifi_driver_rom.a(rom_rtw_addba.o)
 .ARM.attributes
                0x00000000000009c0       0x34 /home/weiqiang_sun/S_SDK_Repo/S_SDK_Repo_RTOS_Master_Temporary/amebagreen2_gcc_project/build/project_km4ns/asdk/make/image_rom_wifi/wifi_driver/rom/lib_wifi_driver_rom.a(rom_rtw_80211w_part2.o)
 .ARM.attributes
                0x00000000000009f4       0x34 /home/weiqiang_sun/S_SDK_Repo/S_SDK_Repo_RTOS_Master_Temporary/amebagreen2_gcc_project/build/project_km4ns/asdk/make/image_rom_wifi/wifi_driver/rom/lib_wifi_driver_rom.a(rom_rtw_auth_part2.o)
 .ARM.attributes
                0x0000000000000a28       0x34 /home/weiqiang_sun/S_SDK_Repo/S_SDK_Repo_RTOS_Master_Temporary/amebagreen2_gcc_project/build/project_km4ns/asdk/make/image_rom_wifi/wifi_driver/rom/lib_wifi_driver_rom.a(rom_rtw_action_part2.o)
 .ARM.attributes
                0x0000000000000a5c       0x34 /home/weiqiang_sun/S_SDK_Repo/S_SDK_Repo_RTOS_Master_Temporary/amebagreen2_gcc_project/build/project_km4ns/asdk/make/image_rom_wifi/wifi_driver/rom/lib_wifi_driver_rom.a(rom_rtw_join.o)
 .ARM.attributes
                0x0000000000000a90       0x34 /home/weiqiang_sun/S_SDK_Repo/S_SDK_Repo_RTOS_Master_Temporary/amebagreen2_gcc_project/build/project_km4ns/asdk/make/image_rom_wifi/wifi_driver/rom/lib_wifi_driver_rom.a(rom_rtw_join_result.o)
 .ARM.attributes
                0x0000000000000ac4       0x34 /home/weiqiang_sun/S_SDK_Repo/S_SDK_Repo_RTOS_Master_Temporary/amebagreen2_gcc_project/build/project_km4ns/asdk/make/image_rom_wifi/wifi_driver/rom/lib_wifi_driver_rom.a(rom_rtw_assoc_part2.o)
 .ARM.attributes
                0x0000000000000af8       0x34 /home/weiqiang_sun/S_SDK_Repo/S_SDK_Repo_RTOS_Master_Temporary/amebagreen2_gcc_project/build/project_km4ns/asdk/make/image_rom_wifi/wifi_driver/rom/lib_wifi_driver_rom.a(rom_rtw_security_part2.o)
 .ARM.attributes
                0x0000000000000b2c       0x34 /home/weiqiang_sun/S_SDK_Repo/S_SDK_Repo_RTOS_Master_Temporary/amebagreen2_gcc_project/build/project_km4ns/asdk/make/image_rom_wifi/wifi_driver/rom/lib_wifi_driver_rom.a(rom_rtw_vht_part2.o)
 .ARM.attributes
                0x0000000000000b60       0x34 /home/weiqiang_sun/S_SDK_Repo/S_SDK_Repo_RTOS_Master_Temporary/amebagreen2_gcc_project/build/project_km4ns/asdk/make/image_rom_wifi/wifi_driver/rom/lib_wifi_driver_rom.a(rom_rtw_xmit.o)
 .ARM.attributes
                0x0000000000000b94       0x34 /home/weiqiang_sun/S_SDK_Repo/S_SDK_Repo_RTOS_Master_Temporary/amebagreen2_gcc_project/build/project_km4ns/asdk/make/image_rom_wifi/wifi_driver/rom/lib_wifi_driver_rom.a(rom_rtw_recv_part2.o)
 .ARM.attributes
                0x0000000000000bc8       0x34 /home/weiqiang_sun/S_SDK_Repo/S_SDK_Repo_RTOS_Master_Temporary/amebagreen2_gcc_project/build/project_km4ns/asdk/make/image_rom_wifi/wifi_driver/rom/lib_wifi_driver_rom.a(rom_rtw_recv_reorder.o)
 .ARM.attributes
                0x0000000000000bfc       0x34 /home/weiqiang_sun/S_SDK_Repo/S_SDK_Repo_RTOS_Master_Temporary/amebagreen2_gcc_project/build/project_km4ns/asdk/make/image_rom_wifi/wifi_driver/rom/lib_wifi_driver_rom.a(rom_rtw_mgnt.o)
 .ARM.attributes
                0x0000000000000c30       0x34 /home/weiqiang_sun/S_SDK_Repo/S_SDK_Repo_RTOS_Master_Temporary/amebagreen2_gcc_project/build/project_km4ns/asdk/make/image_rom_wifi/wifi_driver/rom/lib_wifi_driver_rom.a(rom_rtw_state.o)
 .ARM.attributes
                0x0000000000000c64       0x34 /home/weiqiang_sun/S_SDK_Repo/S_SDK_Repo_RTOS_Master_Temporary/amebagreen2_gcc_project/build/project_km4ns/asdk/make/image_rom_wifi/wifi_driver/rom/lib_wifi_driver_rom.a(rom_rtw_sta_mgt.o)
 .ARM.attributes
                0x0000000000000c98       0x34 /home/weiqiang_sun/S_SDK_Repo/S_SDK_Repo_RTOS_Master_Temporary/amebagreen2_gcc_project/build/project_km4ns/asdk/make/image_rom_wifi/wifi_driver/rom/lib_wifi_driver_rom.a(rom_rtw_ap.o)
 .ARM.attributes
                0x0000000000000ccc       0x34 /home/weiqiang_sun/S_SDK_Repo/S_SDK_Repo_RTOS_Master_Temporary/amebagreen2_gcc_project/build/project_km4ns/asdk/make/image_rom_wifi/wifi_driver/rom/lib_wifi_driver_rom.a(rom_rtw_skbuff.o)
 .ARM.attributes
                0x0000000000000d00       0x34 /home/weiqiang_sun/S_SDK_Repo/S_SDK_Repo_RTOS_Master_Temporary/amebagreen2_gcc_project/build/project_km4ns/asdk/make/image_rom_wifi/wifi_driver/rom/lib_wifi_driver_rom.a(rom_hal_debug.o)
 .ARM.attributes
                0x0000000000000d34       0x34 /home/weiqiang_sun/S_SDK_Repo/S_SDK_Repo_RTOS_Master_Temporary/amebagreen2_gcc_project/build/project_km4ns/asdk/make/image_rom_wifi/wifi_driver/rom/lib_wifi_driver_rom.a(rom_hal_h2c.o)
 .ARM.attributes
                0x0000000000000d68       0x34 /home/weiqiang_sun/S_SDK_Repo/S_SDK_Repo_RTOS_Master_Temporary/amebagreen2_gcc_project/build/project_km4ns/asdk/make/image_rom_wifi/wifi_driver/rom/lib_wifi_driver_rom.a(rom_hal_h2c_g1.o)
 .ARM.attributes
                0x0000000000000d9c       0x34 /home/weiqiang_sun/S_SDK_Repo/S_SDK_Repo_RTOS_Master_Temporary/amebagreen2_gcc_project/build/project_km4ns/asdk/make/image_rom_wifi/wifi_driver/rom/lib_wifi_driver_rom.a(rom_hal_recv.o)
 .ARM.attributes
                0x0000000000000dd0       0x34 /home/weiqiang_sun/S_SDK_Repo/S_SDK_Repo_RTOS_Master_Temporary/amebagreen2_gcc_project/build/project_km4ns/asdk/make/image_rom_wifi/wifi_driver/rom/lib_wifi_driver_rom.a(rom_hal_structs.o)
 .ARM.attributes
                0x0000000000000e04       0x34 /home/weiqiang_sun/S_SDK_Repo/S_SDK_Repo_RTOS_Master_Temporary/amebagreen2_gcc_project/build/project_km4ns/asdk/make/image_rom_wifi/wifi_driver/rom/lib_wifi_driver_rom.a(rom_hal_xmit.o)
 .ARM.attributes
                0x0000000000000e38       0x34 /home/weiqiang_sun/S_SDK_Repo/S_SDK_Repo_RTOS_Master_Temporary/amebagreen2_gcc_project/build/project_km4ns/asdk/make/image_rom_wifi/wifi_driver/rom/lib_wifi_driver_rom.a(rom_hal_xmit_g1.o)
 .ARM.attributes
                0x0000000000000e6c       0x34 /home/weiqiang_sun/S_SDK_Repo/S_SDK_Repo_RTOS_Master_Temporary/amebagreen2_gcc_project/build/project_km4ns/asdk/make/image_rom_wifi/wifi_driver/rom/lib_wifi_driver_rom.a(rom_wifi_hal_ax.o)
 .ARM.attributes
                0x0000000000000ea0       0x34 /home/weiqiang_sun/S_SDK_Repo/S_SDK_Repo_RTOS_Master_Temporary/amebagreen2_gcc_project/build/project_km4ns/asdk/make/image_rom_wifi/wifi_driver/rom/lib_wifi_driver_rom.a(rom_wifi_hal_bcn.o)
 .ARM.attributes
                0x0000000000000ed4       0x34 /home/weiqiang_sun/S_SDK_Repo/S_SDK_Repo_RTOS_Master_Temporary/amebagreen2_gcc_project/build/project_km4ns/asdk/make/image_rom_wifi/wifi_driver/rom/lib_wifi_driver_rom.a(rom_wifi_hal_debug.o)
 .ARM.attributes
                0x0000000000000f08       0x34 /home/weiqiang_sun/S_SDK_Repo/S_SDK_Repo_RTOS_Master_Temporary/amebagreen2_gcc_project/build/project_km4ns/asdk/make/image_rom_wifi/wifi_driver/rom/lib_wifi_driver_rom.a(rom_wifi_hal_init.o)
 .ARM.attributes
                0x0000000000000f3c       0x34 /home/weiqiang_sun/S_SDK_Repo/S_SDK_Repo_RTOS_Master_Temporary/amebagreen2_gcc_project/build/project_km4ns/asdk/make/image_rom_wifi/wifi_driver/rom/lib_wifi_driver_rom.a(rom_wifi_hal_io.o)
 .ARM.attributes
                0x0000000000000f70       0x34 /home/weiqiang_sun/S_SDK_Repo/S_SDK_Repo_RTOS_Master_Temporary/amebagreen2_gcc_project/build/project_km4ns/asdk/make/image_rom_wifi/wifi_driver/rom/lib_wifi_driver_rom.a(rom_wifi_hal_media_access.o)
 .ARM.attributes
                0x0000000000000fa4       0x34 /home/weiqiang_sun/S_SDK_Repo/S_SDK_Repo_RTOS_Master_Temporary/amebagreen2_gcc_project/build/project_km4ns/asdk/make/image_rom_wifi/wifi_driver/rom/lib_wifi_driver_rom.a(rom_wifi_hal_misc.o)
 .ARM.attributes
                0x0000000000000fd8       0x34 /home/weiqiang_sun/S_SDK_Repo/S_SDK_Repo_RTOS_Master_Temporary/amebagreen2_gcc_project/build/project_km4ns/asdk/make/image_rom_wifi/wifi_driver/rom/lib_wifi_driver_rom.a(rom_wifi_hal_rate.o)
 .ARM.attributes
                0x000000000000100c       0x34 /home/weiqiang_sun/S_SDK_Repo/S_SDK_Repo_RTOS_Master_Temporary/amebagreen2_gcc_project/build/project_km4ns/asdk/make/image_rom_wifi/wifi_driver/rom/lib_wifi_driver_rom.a(rom_wifi_hal_secure.o)
 .ARM.attributes
                0x0000000000001040       0x34 /home/weiqiang_sun/S_SDK_Repo/S_SDK_Repo_RTOS_Master_Temporary/amebagreen2_gcc_project/build/project_km4ns/asdk/make/image_rom_wifi/wifi_driver/rom/lib_wifi_driver_rom.a(rom_wifi_hal_tsf.o)
 .ARM.attributes
                0x0000000000001074       0x34 /home/weiqiang_sun/S_SDK_Repo/S_SDK_Repo_RTOS_Master_Temporary/amebagreen2_gcc_project/build/project_km4ns/asdk/make/image_rom_wifi/wifi_driver/rom/lib_wifi_driver_rom.a(rom_wifi_hal_txdesc.o)
 .ARM.attributes
                0x00000000000010a8       0x34 /home/weiqiang_sun/S_SDK_Repo/S_SDK_Repo_RTOS_Master_Temporary/amebagreen2_gcc_project/build/project_km4ns/asdk/make/image_rom_wifi/wifi_driver/rom/lib_wifi_driver_rom.a(rom_wifi_hal_rxdesc.o)
 .ARM.attributes
                0x00000000000010dc       0x34 /home/weiqiang_sun/S_SDK_Repo/S_SDK_Repo_RTOS_Master_Temporary/amebagreen2_gcc_project/build/project_km4ns/asdk/make/image_rom_wifi/wifi_driver/rom/lib_wifi_driver_rom.a(rom_rtw_queue.o)
 .ARM.attributes
                0x0000000000001110       0x34 /home/weiqiang_sun/S_SDK_Repo/S_SDK_Repo_RTOS_Master_Temporary/amebagreen2_gcc_project/build/project_km4ns/asdk/make/image_rom_wifi/wifi_driver/rom/lib_wifi_driver_rom.a(rom_hal_rom_to_flash.o)

.debug_frame    0x0000000000000000     0x6860
 .debug_frame   0x0000000000000000      0x16c /home/weiqiang_sun/S_SDK_Repo/S_SDK_Repo_RTOS_Master_Temporary/amebagreen2_gcc_project/build/project_km4ns/asdk/make/image_rom_wifi/wifi_driver/rom/lib_wifi_driver_rom.a(rom_aes.o)
 .debug_frame   0x000000000000016c       0x8c /home/weiqiang_sun/S_SDK_Repo/S_SDK_Repo_RTOS_Master_Temporary/amebagreen2_gcc_project/build/project_km4ns/asdk/make/image_rom_wifi/wifi_driver/rom/lib_wifi_driver_rom.a(rom_arc4.o)
 .debug_frame   0x00000000000001f8       0xe4 /home/weiqiang_sun/S_SDK_Repo/S_SDK_Repo_RTOS_Master_Temporary/amebagreen2_gcc_project/build/project_km4ns/asdk/make/image_rom_wifi/wifi_driver/rom/lib_wifi_driver_rom.a(rom_md5.o)
 .debug_frame   0x00000000000002dc       0x54 /home/weiqiang_sun/S_SDK_Repo/S_SDK_Repo_RTOS_Master_Temporary/amebagreen2_gcc_project/build/project_km4ns/asdk/make/image_rom_wifi/wifi_driver/rom/lib_wifi_driver_rom.a(rom_rc4.o)
 .debug_frame   0x0000000000000330       0x34 /home/weiqiang_sun/S_SDK_Repo/S_SDK_Repo_RTOS_Master_Temporary/amebagreen2_gcc_project/build/project_km4ns/asdk/make/image_rom_wifi/wifi_driver/rom/lib_wifi_driver_rom.a(rom_rtw_dh_groups.o)
 .debug_frame   0x0000000000000364      0x4fc /home/weiqiang_sun/S_SDK_Repo/S_SDK_Repo_RTOS_Master_Temporary/amebagreen2_gcc_project/build/project_km4ns/asdk/make/image_rom_wifi/wifi_driver/rom/lib_wifi_driver_rom.a(rom_rtw_mbedtls_bignum.o)
 .debug_frame   0x0000000000000860      0x558 /home/weiqiang_sun/S_SDK_Repo/S_SDK_Repo_RTOS_Master_Temporary/amebagreen2_gcc_project/build/project_km4ns/asdk/make/image_rom_wifi/wifi_driver/rom/lib_wifi_driver_rom.a(rom_rtw_mbedtls_ecp.o)
 .debug_frame   0x0000000000000db8       0xfc /home/weiqiang_sun/S_SDK_Repo/S_SDK_Repo_RTOS_Master_Temporary/amebagreen2_gcc_project/build/project_km4ns/asdk/make/image_rom_wifi/wifi_driver/rom/lib_wifi_driver_rom.a(rom_rtw_mbedtls_ecp_curves.o)
 .debug_frame   0x0000000000000eb4       0x20 /home/weiqiang_sun/S_SDK_Repo/S_SDK_Repo_RTOS_Master_Temporary/amebagreen2_gcc_project/build/project_km4ns/asdk/make/image_rom_wifi/wifi_driver/rom/lib_wifi_driver_rom.a(rom_rtw_mbedtls_platform.o)
 .debug_frame   0x0000000000000ed4      0x2d4 /home/weiqiang_sun/S_SDK_Repo/S_SDK_Repo_RTOS_Master_Temporary/amebagreen2_gcc_project/build/project_km4ns/asdk/make/image_rom_wifi/wifi_driver/rom/lib_wifi_driver_rom.a(rom_rtw_security.o)
 .debug_frame   0x00000000000011a8      0x248 /home/weiqiang_sun/S_SDK_Repo/S_SDK_Repo_RTOS_Master_Temporary/amebagreen2_gcc_project/build/project_km4ns/asdk/make/image_rom_wifi/wifi_driver/rom/lib_wifi_driver_rom.a(rom_rtw_security_gcm.o)
 .debug_frame   0x00000000000013f0      0x12c /home/weiqiang_sun/S_SDK_Repo/S_SDK_Repo_RTOS_Master_Temporary/amebagreen2_gcc_project/build/project_km4ns/asdk/make/image_rom_wifi/wifi_driver/rom/lib_wifi_driver_rom.a(rom_rtw_sha256.o)
 .debug_frame   0x000000000000151c       0xdc /home/weiqiang_sun/S_SDK_Repo/S_SDK_Repo_RTOS_Master_Temporary/amebagreen2_gcc_project/build/project_km4ns/asdk/make/image_rom_wifi/wifi_driver/rom/lib_wifi_driver_rom.a(rom_rtw_sha384.o)
 .debug_frame   0x00000000000015f8       0xfc /home/weiqiang_sun/S_SDK_Repo/S_SDK_Repo_RTOS_Master_Temporary/amebagreen2_gcc_project/build/project_km4ns/asdk/make/image_rom_wifi/wifi_driver/rom/lib_wifi_driver_rom.a(rom_sha1.o)
 .debug_frame   0x00000000000016f4      0x2cc /home/weiqiang_sun/S_SDK_Repo/S_SDK_Repo_RTOS_Master_Temporary/amebagreen2_gcc_project/build/project_km4ns/asdk/make/image_rom_wifi/wifi_driver/rom/lib_wifi_driver_rom.a(rom_wpa_lite_part2.o)
 .debug_frame   0x00000000000019c0      0x3c8 /home/weiqiang_sun/S_SDK_Repo/S_SDK_Repo_RTOS_Master_Temporary/amebagreen2_gcc_project/build/project_km4ns/asdk/make/image_rom_wifi/wifi_driver/rom/lib_wifi_driver_rom.a(rom_wpa_lite_psk.o)
 .debug_frame   0x0000000000001d88      0x388 /home/weiqiang_sun/S_SDK_Repo/S_SDK_Repo_RTOS_Master_Temporary/amebagreen2_gcc_project/build/project_km4ns/asdk/make/image_rom_wifi/wifi_driver/rom/lib_wifi_driver_rom.a(rom_wpa_lite_sae.o)
 .debug_frame   0x0000000000002110      0x408 /home/weiqiang_sun/S_SDK_Repo/S_SDK_Repo_RTOS_Master_Temporary/amebagreen2_gcc_project/build/project_km4ns/asdk/make/image_rom_wifi/wifi_driver/rom/lib_wifi_driver_rom.a(rom_wpa_lite_sae_crypto.o)
 .debug_frame   0x0000000000002518       0x74 /home/weiqiang_sun/S_SDK_Repo/S_SDK_Repo_RTOS_Master_Temporary/amebagreen2_gcc_project/build/project_km4ns/asdk/make/image_rom_wifi/wifi_driver/rom/lib_wifi_driver_rom.a(rom_rtw_80211w.o)
 .debug_frame   0x000000000000258c       0x4c /home/weiqiang_sun/S_SDK_Repo/S_SDK_Repo_RTOS_Master_Temporary/amebagreen2_gcc_project/build/project_km4ns/asdk/make/image_rom_wifi/wifi_driver/rom/lib_wifi_driver_rom.a(rom_rtw_action.o)
 .debug_frame   0x00000000000025d8      0x118 /home/weiqiang_sun/S_SDK_Repo/S_SDK_Repo_RTOS_Master_Temporary/amebagreen2_gcc_project/build/project_km4ns/asdk/make/image_rom_wifi/wifi_driver/rom/lib_wifi_driver_rom.a(rom_rtw_assoc.o)
 .debug_frame   0x00000000000026f0       0x20 /home/weiqiang_sun/S_SDK_Repo/S_SDK_Repo_RTOS_Master_Temporary/amebagreen2_gcc_project/build/project_km4ns/asdk/make/image_rom_wifi/wifi_driver/rom/lib_wifi_driver_rom.a(rom_rtw_auth.o)
 .debug_frame   0x0000000000002710      0x204 /home/weiqiang_sun/S_SDK_Repo/S_SDK_Repo_RTOS_Master_Temporary/amebagreen2_gcc_project/build/project_km4ns/asdk/make/image_rom_wifi/wifi_driver/rom/lib_wifi_driver_rom.a(rom_rtw_beacon.o)
 .debug_frame   0x0000000000002914       0x40 /home/weiqiang_sun/S_SDK_Repo/S_SDK_Repo_RTOS_Master_Temporary/amebagreen2_gcc_project/build/project_km4ns/asdk/make/image_rom_wifi/wifi_driver/rom/lib_wifi_driver_rom.a(rom_rtw_chbw.o)
 .debug_frame   0x0000000000002954       0x78 /home/weiqiang_sun/S_SDK_Repo/S_SDK_Repo_RTOS_Master_Temporary/amebagreen2_gcc_project/build/project_km4ns/asdk/make/image_rom_wifi/wifi_driver/rom/lib_wifi_driver_rom.a(rom_rtw_he.o)
 .debug_frame   0x00000000000029cc      0x2f8 /home/weiqiang_sun/S_SDK_Repo/S_SDK_Repo_RTOS_Master_Temporary/amebagreen2_gcc_project/build/project_km4ns/asdk/make/image_rom_wifi/wifi_driver/rom/lib_wifi_driver_rom.a(rom_rtw_ieee80211.o)
 .debug_frame   0x0000000000002cc4      0x33c /home/weiqiang_sun/S_SDK_Repo/S_SDK_Repo_RTOS_Master_Temporary/amebagreen2_gcc_project/build/project_km4ns/asdk/make/image_rom_wifi/wifi_driver/rom/lib_wifi_driver_rom.a(rom_rtw_ieee80211_part2.o)
 .debug_frame   0x0000000000003000       0x74 /home/weiqiang_sun/S_SDK_Repo/S_SDK_Repo_RTOS_Master_Temporary/amebagreen2_gcc_project/build/project_km4ns/asdk/make/image_rom_wifi/wifi_driver/rom/lib_wifi_driver_rom.a(rom_rtw_pmksa_cache.o)
 .debug_frame   0x0000000000003074       0x70 /home/weiqiang_sun/S_SDK_Repo/S_SDK_Repo_RTOS_Master_Temporary/amebagreen2_gcc_project/build/project_km4ns/asdk/make/image_rom_wifi/wifi_driver/rom/lib_wifi_driver_rom.a(rom_rtw_probe.o)
 .debug_frame   0x00000000000030e4       0xbc /home/weiqiang_sun/S_SDK_Repo/S_SDK_Repo_RTOS_Master_Temporary/amebagreen2_gcc_project/build/project_km4ns/asdk/make/image_rom_wifi/wifi_driver/rom/lib_wifi_driver_rom.a(rom_rtw_psk.o)
 .debug_frame   0x00000000000031a0       0xd4 /home/weiqiang_sun/S_SDK_Repo/S_SDK_Repo_RTOS_Master_Temporary/amebagreen2_gcc_project/build/project_km4ns/asdk/make/image_rom_wifi/wifi_driver/rom/lib_wifi_driver_rom.a(rom_rtw_rate.o)
 .debug_frame   0x0000000000003274       0x70 /home/weiqiang_sun/S_SDK_Repo/S_SDK_Repo_RTOS_Master_Temporary/amebagreen2_gcc_project/build/project_km4ns/asdk/make/image_rom_wifi/wifi_driver/rom/lib_wifi_driver_rom.a(rom_rtw_recv.o)
 .debug_frame   0x00000000000032e4       0x78 /home/weiqiang_sun/S_SDK_Repo/S_SDK_Repo_RTOS_Master_Temporary/amebagreen2_gcc_project/build/project_km4ns/asdk/make/image_rom_wifi/wifi_driver/rom/lib_wifi_driver_rom.a(rom_rtw_rf.o)
 .debug_frame   0x000000000000335c       0x8c /home/weiqiang_sun/S_SDK_Repo/S_SDK_Repo_RTOS_Master_Temporary/amebagreen2_gcc_project/build/project_km4ns/asdk/make/image_rom_wifi/wifi_driver/rom/lib_wifi_driver_rom.a(rom_rtw_vht.o)
 .debug_frame   0x00000000000033e8       0xf8 /home/weiqiang_sun/S_SDK_Repo/S_SDK_Repo_RTOS_Master_Temporary/amebagreen2_gcc_project/build/project_km4ns/asdk/make/image_rom_wifi/wifi_driver/rom/lib_wifi_driver_rom.a(rom_rtw_ht.o)
 .debug_frame   0x00000000000034e0       0x50 /home/weiqiang_sun/S_SDK_Repo/S_SDK_Repo_RTOS_Master_Temporary/amebagreen2_gcc_project/build/project_km4ns/asdk/make/image_rom_wifi/wifi_driver/rom/lib_wifi_driver_rom.a(rom_rtw_network.o)
 .debug_frame   0x0000000000003530      0x130 /home/weiqiang_sun/S_SDK_Repo/S_SDK_Repo_RTOS_Master_Temporary/amebagreen2_gcc_project/build/project_km4ns/asdk/make/image_rom_wifi/wifi_driver/rom/lib_wifi_driver_rom.a(rom_rtw_pmksa_cache_part2.o)
 .debug_frame   0x0000000000003660       0xc4 /home/weiqiang_sun/S_SDK_Repo/S_SDK_Repo_RTOS_Master_Temporary/amebagreen2_gcc_project/build/project_km4ns/asdk/make/image_rom_wifi/wifi_driver/rom/lib_wifi_driver_rom.a(rom_rtw_11d_part2.o)
 .debug_frame   0x0000000000003724      0x1cc /home/weiqiang_sun/S_SDK_Repo/S_SDK_Repo_RTOS_Master_Temporary/amebagreen2_gcc_project/build/project_km4ns/asdk/make/image_rom_wifi/wifi_driver/rom/lib_wifi_driver_rom.a(rom_rtw_he_part2.o)
 .debug_frame   0x00000000000038f0      0x140 /home/weiqiang_sun/S_SDK_Repo/S_SDK_Repo_RTOS_Master_Temporary/amebagreen2_gcc_project/build/project_km4ns/asdk/make/image_rom_wifi/wifi_driver/rom/lib_wifi_driver_rom.a(rom_rtw_shortcut.o)
 .debug_frame   0x0000000000003a30       0xec /home/weiqiang_sun/S_SDK_Repo/S_SDK_Repo_RTOS_Master_Temporary/amebagreen2_gcc_project/build/project_km4ns/asdk/make/image_rom_wifi/wifi_driver/rom/lib_wifi_driver_rom.a(rom_rtw_setkey.o)
 .debug_frame   0x0000000000003b1c      0x17c /home/weiqiang_sun/S_SDK_Repo/S_SDK_Repo_RTOS_Master_Temporary/amebagreen2_gcc_project/build/project_km4ns/asdk/make/image_rom_wifi/wifi_driver/rom/lib_wifi_driver_rom.a(rom_rtw_beacon_part2.o)
 .debug_frame   0x0000000000003c98       0x64 /home/weiqiang_sun/S_SDK_Repo/S_SDK_Repo_RTOS_Master_Temporary/amebagreen2_gcc_project/build/project_km4ns/asdk/make/image_rom_wifi/wifi_driver/rom/lib_wifi_driver_rom.a(rom_rtw_sitesurvey.o)
 .debug_frame   0x0000000000003cfc      0x110 /home/weiqiang_sun/S_SDK_Repo/S_SDK_Repo_RTOS_Master_Temporary/amebagreen2_gcc_project/build/project_km4ns/asdk/make/image_rom_wifi/wifi_driver/rom/lib_wifi_driver_rom.a(rom_rtw_sitesurvey_report.o)
 .debug_frame   0x0000000000003e0c      0x138 /home/weiqiang_sun/S_SDK_Repo/S_SDK_Repo_RTOS_Master_Temporary/amebagreen2_gcc_project/build/project_km4ns/asdk/make/image_rom_wifi/wifi_driver/rom/lib_wifi_driver_rom.a(rom_rtw_ap_xmit.o)
 .debug_frame   0x0000000000003f44      0x144 /home/weiqiang_sun/S_SDK_Repo/S_SDK_Repo_RTOS_Master_Temporary/amebagreen2_gcc_project/build/project_km4ns/asdk/make/image_rom_wifi/wifi_driver/rom/lib_wifi_driver_rom.a(rom_rtw_addba.o)
 .debug_frame   0x0000000000004088       0xbc /home/weiqiang_sun/S_SDK_Repo/S_SDK_Repo_RTOS_Master_Temporary/amebagreen2_gcc_project/build/project_km4ns/asdk/make/image_rom_wifi/wifi_driver/rom/lib_wifi_driver_rom.a(rom_rtw_80211w_part2.o)
 .debug_frame   0x0000000000004144      0x100 /home/weiqiang_sun/S_SDK_Repo/S_SDK_Repo_RTOS_Master_Temporary/amebagreen2_gcc_project/build/project_km4ns/asdk/make/image_rom_wifi/wifi_driver/rom/lib_wifi_driver_rom.a(rom_rtw_auth_part2.o)
 .debug_frame   0x0000000000004244       0x54 /home/weiqiang_sun/S_SDK_Repo/S_SDK_Repo_RTOS_Master_Temporary/amebagreen2_gcc_project/build/project_km4ns/asdk/make/image_rom_wifi/wifi_driver/rom/lib_wifi_driver_rom.a(rom_rtw_action_part2.o)
 .debug_frame   0x0000000000004298      0x1cc /home/weiqiang_sun/S_SDK_Repo/S_SDK_Repo_RTOS_Master_Temporary/amebagreen2_gcc_project/build/project_km4ns/asdk/make/image_rom_wifi/wifi_driver/rom/lib_wifi_driver_rom.a(rom_rtw_join.o)
 .debug_frame   0x0000000000004464       0x68 /home/weiqiang_sun/S_SDK_Repo/S_SDK_Repo_RTOS_Master_Temporary/amebagreen2_gcc_project/build/project_km4ns/asdk/make/image_rom_wifi/wifi_driver/rom/lib_wifi_driver_rom.a(rom_rtw_join_result.o)
 .debug_frame   0x00000000000044cc      0x20c /home/weiqiang_sun/S_SDK_Repo/S_SDK_Repo_RTOS_Master_Temporary/amebagreen2_gcc_project/build/project_km4ns/asdk/make/image_rom_wifi/wifi_driver/rom/lib_wifi_driver_rom.a(rom_rtw_assoc_part2.o)
 .debug_frame   0x00000000000046d8      0x178 /home/weiqiang_sun/S_SDK_Repo/S_SDK_Repo_RTOS_Master_Temporary/amebagreen2_gcc_project/build/project_km4ns/asdk/make/image_rom_wifi/wifi_driver/rom/lib_wifi_driver_rom.a(rom_rtw_security_part2.o)
 .debug_frame   0x0000000000004850       0xc4 /home/weiqiang_sun/S_SDK_Repo/S_SDK_Repo_RTOS_Master_Temporary/amebagreen2_gcc_project/build/project_km4ns/asdk/make/image_rom_wifi/wifi_driver/rom/lib_wifi_driver_rom.a(rom_rtw_vht_part2.o)
 .debug_frame   0x0000000000004914      0x348 /home/weiqiang_sun/S_SDK_Repo/S_SDK_Repo_RTOS_Master_Temporary/amebagreen2_gcc_project/build/project_km4ns/asdk/make/image_rom_wifi/wifi_driver/rom/lib_wifi_driver_rom.a(rom_rtw_xmit.o)
 .debug_frame   0x0000000000004c5c      0x320 /home/weiqiang_sun/S_SDK_Repo/S_SDK_Repo_RTOS_Master_Temporary/amebagreen2_gcc_project/build/project_km4ns/asdk/make/image_rom_wifi/wifi_driver/rom/lib_wifi_driver_rom.a(rom_rtw_recv_part2.o)
 .debug_frame   0x0000000000004f7c       0xd8 /home/weiqiang_sun/S_SDK_Repo/S_SDK_Repo_RTOS_Master_Temporary/amebagreen2_gcc_project/build/project_km4ns/asdk/make/image_rom_wifi/wifi_driver/rom/lib_wifi_driver_rom.a(rom_rtw_recv_reorder.o)
 .debug_frame   0x0000000000005054       0x40 /home/weiqiang_sun/S_SDK_Repo/S_SDK_Repo_RTOS_Master_Temporary/amebagreen2_gcc_project/build/project_km4ns/asdk/make/image_rom_wifi/wifi_driver/rom/lib_wifi_driver_rom.a(rom_rtw_mgnt.o)
 .debug_frame   0x0000000000005094      0x1d8 /home/weiqiang_sun/S_SDK_Repo/S_SDK_Repo_RTOS_Master_Temporary/amebagreen2_gcc_project/build/project_km4ns/asdk/make/image_rom_wifi/wifi_driver/rom/lib_wifi_driver_rom.a(rom_rtw_state.o)
 .debug_frame   0x000000000000526c       0xc8 /home/weiqiang_sun/S_SDK_Repo/S_SDK_Repo_RTOS_Master_Temporary/amebagreen2_gcc_project/build/project_km4ns/asdk/make/image_rom_wifi/wifi_driver/rom/lib_wifi_driver_rom.a(rom_rtw_sta_mgt.o)
 .debug_frame   0x0000000000005334      0x188 /home/weiqiang_sun/S_SDK_Repo/S_SDK_Repo_RTOS_Master_Temporary/amebagreen2_gcc_project/build/project_km4ns/asdk/make/image_rom_wifi/wifi_driver/rom/lib_wifi_driver_rom.a(rom_rtw_ap.o)
 .debug_frame   0x00000000000054bc       0xe4 /home/weiqiang_sun/S_SDK_Repo/S_SDK_Repo_RTOS_Master_Temporary/amebagreen2_gcc_project/build/project_km4ns/asdk/make/image_rom_wifi/wifi_driver/rom/lib_wifi_driver_rom.a(rom_rtw_skbuff.o)
 .debug_frame   0x00000000000055a0       0xfc /home/weiqiang_sun/S_SDK_Repo/S_SDK_Repo_RTOS_Master_Temporary/amebagreen2_gcc_project/build/project_km4ns/asdk/make/image_rom_wifi/wifi_driver/rom/lib_wifi_driver_rom.a(rom_hal_debug.o)
 .debug_frame   0x000000000000569c      0x194 /home/weiqiang_sun/S_SDK_Repo/S_SDK_Repo_RTOS_Master_Temporary/amebagreen2_gcc_project/build/project_km4ns/asdk/make/image_rom_wifi/wifi_driver/rom/lib_wifi_driver_rom.a(rom_hal_h2c.o)
 .debug_frame   0x0000000000005830       0x94 /home/weiqiang_sun/S_SDK_Repo/S_SDK_Repo_RTOS_Master_Temporary/amebagreen2_gcc_project/build/project_km4ns/asdk/make/image_rom_wifi/wifi_driver/rom/lib_wifi_driver_rom.a(rom_hal_h2c_g1.o)
 .debug_frame   0x00000000000058c4      0x12c /home/weiqiang_sun/S_SDK_Repo/S_SDK_Repo_RTOS_Master_Temporary/amebagreen2_gcc_project/build/project_km4ns/asdk/make/image_rom_wifi/wifi_driver/rom/lib_wifi_driver_rom.a(rom_hal_recv.o)
 .debug_frame   0x00000000000059f0      0x21c /home/weiqiang_sun/S_SDK_Repo/S_SDK_Repo_RTOS_Master_Temporary/amebagreen2_gcc_project/build/project_km4ns/asdk/make/image_rom_wifi/wifi_driver/rom/lib_wifi_driver_rom.a(rom_hal_xmit.o)
 .debug_frame   0x0000000000005c0c      0x114 /home/weiqiang_sun/S_SDK_Repo/S_SDK_Repo_RTOS_Master_Temporary/amebagreen2_gcc_project/build/project_km4ns/asdk/make/image_rom_wifi/wifi_driver/rom/lib_wifi_driver_rom.a(rom_hal_xmit_g1.o)
 .debug_frame   0x0000000000005d20       0xd0 /home/weiqiang_sun/S_SDK_Repo/S_SDK_Repo_RTOS_Master_Temporary/amebagreen2_gcc_project/build/project_km4ns/asdk/make/image_rom_wifi/wifi_driver/rom/lib_wifi_driver_rom.a(rom_wifi_hal_ax.o)
 .debug_frame   0x0000000000005df0       0x74 /home/weiqiang_sun/S_SDK_Repo/S_SDK_Repo_RTOS_Master_Temporary/amebagreen2_gcc_project/build/project_km4ns/asdk/make/image_rom_wifi/wifi_driver/rom/lib_wifi_driver_rom.a(rom_wifi_hal_bcn.o)
 .debug_frame   0x0000000000005e64      0x198 /home/weiqiang_sun/S_SDK_Repo/S_SDK_Repo_RTOS_Master_Temporary/amebagreen2_gcc_project/build/project_km4ns/asdk/make/image_rom_wifi/wifi_driver/rom/lib_wifi_driver_rom.a(rom_wifi_hal_debug.o)
 .debug_frame   0x0000000000005ffc      0x1e0 /home/weiqiang_sun/S_SDK_Repo/S_SDK_Repo_RTOS_Master_Temporary/amebagreen2_gcc_project/build/project_km4ns/asdk/make/image_rom_wifi/wifi_driver/rom/lib_wifi_driver_rom.a(rom_wifi_hal_init.o)
 .debug_frame   0x00000000000061dc       0x70 /home/weiqiang_sun/S_SDK_Repo/S_SDK_Repo_RTOS_Master_Temporary/amebagreen2_gcc_project/build/project_km4ns/asdk/make/image_rom_wifi/wifi_driver/rom/lib_wifi_driver_rom.a(rom_wifi_hal_io.o)
 .debug_frame   0x000000000000624c      0x180 /home/weiqiang_sun/S_SDK_Repo/S_SDK_Repo_RTOS_Master_Temporary/amebagreen2_gcc_project/build/project_km4ns/asdk/make/image_rom_wifi/wifi_driver/rom/lib_wifi_driver_rom.a(rom_wifi_hal_media_access.o)
 .debug_frame   0x00000000000063cc      0x164 /home/weiqiang_sun/S_SDK_Repo/S_SDK_Repo_RTOS_Master_Temporary/amebagreen2_gcc_project/build/project_km4ns/asdk/make/image_rom_wifi/wifi_driver/rom/lib_wifi_driver_rom.a(rom_wifi_hal_misc.o)
 .debug_frame   0x0000000000006530       0x5c /home/weiqiang_sun/S_SDK_Repo/S_SDK_Repo_RTOS_Master_Temporary/amebagreen2_gcc_project/build/project_km4ns/asdk/make/image_rom_wifi/wifi_driver/rom/lib_wifi_driver_rom.a(rom_wifi_hal_rate.o)
 .debug_frame   0x000000000000658c       0xb4 /home/weiqiang_sun/S_SDK_Repo/S_SDK_Repo_RTOS_Master_Temporary/amebagreen2_gcc_project/build/project_km4ns/asdk/make/image_rom_wifi/wifi_driver/rom/lib_wifi_driver_rom.a(rom_wifi_hal_secure.o)
 .debug_frame   0x0000000000006640       0x94 /home/weiqiang_sun/S_SDK_Repo/S_SDK_Repo_RTOS_Master_Temporary/amebagreen2_gcc_project/build/project_km4ns/asdk/make/image_rom_wifi/wifi_driver/rom/lib_wifi_driver_rom.a(rom_wifi_hal_tsf.o)
 .debug_frame   0x00000000000066d4       0x94 /home/weiqiang_sun/S_SDK_Repo/S_SDK_Repo_RTOS_Master_Temporary/amebagreen2_gcc_project/build/project_km4ns/asdk/make/image_rom_wifi/wifi_driver/rom/lib_wifi_driver_rom.a(rom_wifi_hal_txdesc.o)
 .debug_frame   0x0000000000006768       0x68 /home/weiqiang_sun/S_SDK_Repo/S_SDK_Repo_RTOS_Master_Temporary/amebagreen2_gcc_project/build/project_km4ns/asdk/make/image_rom_wifi/wifi_driver/rom/lib_wifi_driver_rom.a(rom_wifi_hal_rxdesc.o)
 .debug_frame   0x00000000000067d0       0x90 /home/weiqiang_sun/S_SDK_Repo/S_SDK_Repo_RTOS_Master_Temporary/amebagreen2_gcc_project/build/project_km4ns/asdk/make/image_rom_wifi/wifi_driver/rom/lib_wifi_driver_rom.a(rom_rtw_queue.o)

.debug_ranges   0x0000000000000000     0x47d8
 .debug_ranges  0x0000000000000000       0x20 /home/weiqiang_sun/S_SDK_Repo/S_SDK_Repo_RTOS_Master_Temporary/amebagreen2_gcc_project/build/project_km4ns/asdk/make/image_rom_wifi/wifi_driver/rom/lib_wifi_driver_rom.a(rom_arc4.o)
 .debug_ranges  0x0000000000000020       0xf0 /home/weiqiang_sun/S_SDK_Repo/S_SDK_Repo_RTOS_Master_Temporary/amebagreen2_gcc_project/build/project_km4ns/asdk/make/image_rom_wifi/wifi_driver/rom/lib_wifi_driver_rom.a(rom_md5.o)
 .debug_ranges  0x0000000000000110      0x948 /home/weiqiang_sun/S_SDK_Repo/S_SDK_Repo_RTOS_Master_Temporary/amebagreen2_gcc_project/build/project_km4ns/asdk/make/image_rom_wifi/wifi_driver/rom/lib_wifi_driver_rom.a(rom_rtw_mbedtls_bignum.o)
 .debug_ranges  0x0000000000000a58      0x478 /home/weiqiang_sun/S_SDK_Repo/S_SDK_Repo_RTOS_Master_Temporary/amebagreen2_gcc_project/build/project_km4ns/asdk/make/image_rom_wifi/wifi_driver/rom/lib_wifi_driver_rom.a(rom_rtw_mbedtls_ecp.o)
 .debug_ranges  0x0000000000000ed0      0xdf0 /home/weiqiang_sun/S_SDK_Repo/S_SDK_Repo_RTOS_Master_Temporary/amebagreen2_gcc_project/build/project_km4ns/asdk/make/image_rom_wifi/wifi_driver/rom/lib_wifi_driver_rom.a(rom_rtw_mbedtls_ecp_curves.o)
 .debug_ranges  0x0000000000001cc0      0x3a0 /home/weiqiang_sun/S_SDK_Repo/S_SDK_Repo_RTOS_Master_Temporary/amebagreen2_gcc_project/build/project_km4ns/asdk/make/image_rom_wifi/wifi_driver/rom/lib_wifi_driver_rom.a(rom_rtw_security.o)
 .debug_ranges  0x0000000000002060      0x360 /home/weiqiang_sun/S_SDK_Repo/S_SDK_Repo_RTOS_Master_Temporary/amebagreen2_gcc_project/build/project_km4ns/asdk/make/image_rom_wifi/wifi_driver/rom/lib_wifi_driver_rom.a(rom_rtw_security_gcm.o)
 .debug_ranges  0x00000000000023c0       0x80 /home/weiqiang_sun/S_SDK_Repo/S_SDK_Repo_RTOS_Master_Temporary/amebagreen2_gcc_project/build/project_km4ns/asdk/make/image_rom_wifi/wifi_driver/rom/lib_wifi_driver_rom.a(rom_rtw_sha256.o)
 .debug_ranges  0x0000000000002440       0xd0 /home/weiqiang_sun/S_SDK_Repo/S_SDK_Repo_RTOS_Master_Temporary/amebagreen2_gcc_project/build/project_km4ns/asdk/make/image_rom_wifi/wifi_driver/rom/lib_wifi_driver_rom.a(rom_rtw_sha384.o)
 .debug_ranges  0x0000000000002510       0xb0 /home/weiqiang_sun/S_SDK_Repo/S_SDK_Repo_RTOS_Master_Temporary/amebagreen2_gcc_project/build/project_km4ns/asdk/make/image_rom_wifi/wifi_driver/rom/lib_wifi_driver_rom.a(rom_sha1.o)
 .debug_ranges  0x00000000000025c0       0xf8 /home/weiqiang_sun/S_SDK_Repo/S_SDK_Repo_RTOS_Master_Temporary/amebagreen2_gcc_project/build/project_km4ns/asdk/make/image_rom_wifi/wifi_driver/rom/lib_wifi_driver_rom.a(rom_wpa_lite_part2.o)
 .debug_ranges  0x00000000000026b8       0xd8 /home/weiqiang_sun/S_SDK_Repo/S_SDK_Repo_RTOS_Master_Temporary/amebagreen2_gcc_project/build/project_km4ns/asdk/make/image_rom_wifi/wifi_driver/rom/lib_wifi_driver_rom.a(rom_wpa_lite_psk.o)
 .debug_ranges  0x0000000000002790      0x168 /home/weiqiang_sun/S_SDK_Repo/S_SDK_Repo_RTOS_Master_Temporary/amebagreen2_gcc_project/build/project_km4ns/asdk/make/image_rom_wifi/wifi_driver/rom/lib_wifi_driver_rom.a(rom_wpa_lite_sae.o)
 .debug_ranges  0x00000000000028f8      0x3b8 /home/weiqiang_sun/S_SDK_Repo/S_SDK_Repo_RTOS_Master_Temporary/amebagreen2_gcc_project/build/project_km4ns/asdk/make/image_rom_wifi/wifi_driver/rom/lib_wifi_driver_rom.a(rom_wpa_lite_sae_crypto.o)
 .debug_ranges  0x0000000000002cb0       0x28 /home/weiqiang_sun/S_SDK_Repo/S_SDK_Repo_RTOS_Master_Temporary/amebagreen2_gcc_project/build/project_km4ns/asdk/make/image_rom_wifi/wifi_driver/rom/lib_wifi_driver_rom.a(rom_rtw_80211w.o)
 .debug_ranges  0x0000000000002cd8       0xb0 /home/weiqiang_sun/S_SDK_Repo/S_SDK_Repo_RTOS_Master_Temporary/amebagreen2_gcc_project/build/project_km4ns/asdk/make/image_rom_wifi/wifi_driver/rom/lib_wifi_driver_rom.a(rom_rtw_assoc.o)
 .debug_ranges  0x0000000000002d88       0x20 /home/weiqiang_sun/S_SDK_Repo/S_SDK_Repo_RTOS_Master_Temporary/amebagreen2_gcc_project/build/project_km4ns/asdk/make/image_rom_wifi/wifi_driver/rom/lib_wifi_driver_rom.a(rom_rtw_beacon.o)
 .debug_ranges  0x0000000000002da8      0x310 /home/weiqiang_sun/S_SDK_Repo/S_SDK_Repo_RTOS_Master_Temporary/amebagreen2_gcc_project/build/project_km4ns/asdk/make/image_rom_wifi/wifi_driver/rom/lib_wifi_driver_rom.a(rom_rtw_ieee80211.o)
 .debug_ranges  0x00000000000030b8      0x1c8 /home/weiqiang_sun/S_SDK_Repo/S_SDK_Repo_RTOS_Master_Temporary/amebagreen2_gcc_project/build/project_km4ns/asdk/make/image_rom_wifi/wifi_driver/rom/lib_wifi_driver_rom.a(rom_rtw_ieee80211_part2.o)
 .debug_ranges  0x0000000000003280       0x30 /home/weiqiang_sun/S_SDK_Repo/S_SDK_Repo_RTOS_Master_Temporary/amebagreen2_gcc_project/build/project_km4ns/asdk/make/image_rom_wifi/wifi_driver/rom/lib_wifi_driver_rom.a(rom_rtw_pmksa_cache.o)
 .debug_ranges  0x00000000000032b0       0x40 /home/weiqiang_sun/S_SDK_Repo/S_SDK_Repo_RTOS_Master_Temporary/amebagreen2_gcc_project/build/project_km4ns/asdk/make/image_rom_wifi/wifi_driver/rom/lib_wifi_driver_rom.a(rom_rtw_psk.o)
 .debug_ranges  0x00000000000032f0       0x58 /home/weiqiang_sun/S_SDK_Repo/S_SDK_Repo_RTOS_Master_Temporary/amebagreen2_gcc_project/build/project_km4ns/asdk/make/image_rom_wifi/wifi_driver/rom/lib_wifi_driver_rom.a(rom_rtw_rf.o)
 .debug_ranges  0x0000000000003348       0x18 /home/weiqiang_sun/S_SDK_Repo/S_SDK_Repo_RTOS_Master_Temporary/amebagreen2_gcc_project/build/project_km4ns/asdk/make/image_rom_wifi/wifi_driver/rom/lib_wifi_driver_rom.a(rom_rtw_network.o)
 .debug_ranges  0x0000000000003360       0x50 /home/weiqiang_sun/S_SDK_Repo/S_SDK_Repo_RTOS_Master_Temporary/amebagreen2_gcc_project/build/project_km4ns/asdk/make/image_rom_wifi/wifi_driver/rom/lib_wifi_driver_rom.a(rom_rtw_pmksa_cache_part2.o)
 .debug_ranges  0x00000000000033b0       0xd0 /home/weiqiang_sun/S_SDK_Repo/S_SDK_Repo_RTOS_Master_Temporary/amebagreen2_gcc_project/build/project_km4ns/asdk/make/image_rom_wifi/wifi_driver/rom/lib_wifi_driver_rom.a(rom_rtw_11d_part2.o)
 .debug_ranges  0x0000000000003480      0x128 /home/weiqiang_sun/S_SDK_Repo/S_SDK_Repo_RTOS_Master_Temporary/amebagreen2_gcc_project/build/project_km4ns/asdk/make/image_rom_wifi/wifi_driver/rom/lib_wifi_driver_rom.a(rom_rtw_he_part2.o)
 .debug_ranges  0x00000000000035a8       0xc8 /home/weiqiang_sun/S_SDK_Repo/S_SDK_Repo_RTOS_Master_Temporary/amebagreen2_gcc_project/build/project_km4ns/asdk/make/image_rom_wifi/wifi_driver/rom/lib_wifi_driver_rom.a(rom_rtw_shortcut.o)
 .debug_ranges  0x0000000000003670       0x68 /home/weiqiang_sun/S_SDK_Repo/S_SDK_Repo_RTOS_Master_Temporary/amebagreen2_gcc_project/build/project_km4ns/asdk/make/image_rom_wifi/wifi_driver/rom/lib_wifi_driver_rom.a(rom_rtw_beacon_part2.o)
 .debug_ranges  0x00000000000036d8       0x20 /home/weiqiang_sun/S_SDK_Repo/S_SDK_Repo_RTOS_Master_Temporary/amebagreen2_gcc_project/build/project_km4ns/asdk/make/image_rom_wifi/wifi_driver/rom/lib_wifi_driver_rom.a(rom_rtw_sitesurvey.o)
 .debug_ranges  0x00000000000036f8       0xd8 /home/weiqiang_sun/S_SDK_Repo/S_SDK_Repo_RTOS_Master_Temporary/amebagreen2_gcc_project/build/project_km4ns/asdk/make/image_rom_wifi/wifi_driver/rom/lib_wifi_driver_rom.a(rom_rtw_sitesurvey_report.o)
 .debug_ranges  0x00000000000037d0      0x150 /home/weiqiang_sun/S_SDK_Repo/S_SDK_Repo_RTOS_Master_Temporary/amebagreen2_gcc_project/build/project_km4ns/asdk/make/image_rom_wifi/wifi_driver/rom/lib_wifi_driver_rom.a(rom_rtw_ap_xmit.o)
 .debug_ranges  0x0000000000003920       0x38 /home/weiqiang_sun/S_SDK_Repo/S_SDK_Repo_RTOS_Master_Temporary/amebagreen2_gcc_project/build/project_km4ns/asdk/make/image_rom_wifi/wifi_driver/rom/lib_wifi_driver_rom.a(rom_rtw_addba.o)
 .debug_ranges  0x0000000000003958       0xb0 /home/weiqiang_sun/S_SDK_Repo/S_SDK_Repo_RTOS_Master_Temporary/amebagreen2_gcc_project/build/project_km4ns/asdk/make/image_rom_wifi/wifi_driver/rom/lib_wifi_driver_rom.a(rom_rtw_80211w_part2.o)
 .debug_ranges  0x0000000000003a08       0x68 /home/weiqiang_sun/S_SDK_Repo/S_SDK_Repo_RTOS_Master_Temporary/amebagreen2_gcc_project/build/project_km4ns/asdk/make/image_rom_wifi/wifi_driver/rom/lib_wifi_driver_rom.a(rom_rtw_auth_part2.o)
 .debug_ranges  0x0000000000003a70       0x68 /home/weiqiang_sun/S_SDK_Repo/S_SDK_Repo_RTOS_Master_Temporary/amebagreen2_gcc_project/build/project_km4ns/asdk/make/image_rom_wifi/wifi_driver/rom/lib_wifi_driver_rom.a(rom_rtw_join.o)
 .debug_ranges  0x0000000000003ad8      0x2e8 /home/weiqiang_sun/S_SDK_Repo/S_SDK_Repo_RTOS_Master_Temporary/amebagreen2_gcc_project/build/project_km4ns/asdk/make/image_rom_wifi/wifi_driver/rom/lib_wifi_driver_rom.a(rom_rtw_assoc_part2.o)
 .debug_ranges  0x0000000000003dc0       0x18 /home/weiqiang_sun/S_SDK_Repo/S_SDK_Repo_RTOS_Master_Temporary/amebagreen2_gcc_project/build/project_km4ns/asdk/make/image_rom_wifi/wifi_driver/rom/lib_wifi_driver_rom.a(rom_rtw_security_part2.o)
 .debug_ranges  0x0000000000003dd8      0x1e8 /home/weiqiang_sun/S_SDK_Repo/S_SDK_Repo_RTOS_Master_Temporary/amebagreen2_gcc_project/build/project_km4ns/asdk/make/image_rom_wifi/wifi_driver/rom/lib_wifi_driver_rom.a(rom_rtw_xmit.o)
 .debug_ranges  0x0000000000003fc0      0x1e8 /home/weiqiang_sun/S_SDK_Repo/S_SDK_Repo_RTOS_Master_Temporary/amebagreen2_gcc_project/build/project_km4ns/asdk/make/image_rom_wifi/wifi_driver/rom/lib_wifi_driver_rom.a(rom_rtw_recv_part2.o)
 .debug_ranges  0x00000000000041a8       0x48 /home/weiqiang_sun/S_SDK_Repo/S_SDK_Repo_RTOS_Master_Temporary/amebagreen2_gcc_project/build/project_km4ns/asdk/make/image_rom_wifi/wifi_driver/rom/lib_wifi_driver_rom.a(rom_rtw_recv_reorder.o)
 .debug_ranges  0x00000000000041f0       0x18 /home/weiqiang_sun/S_SDK_Repo/S_SDK_Repo_RTOS_Master_Temporary/amebagreen2_gcc_project/build/project_km4ns/asdk/make/image_rom_wifi/wifi_driver/rom/lib_wifi_driver_rom.a(rom_rtw_sta_mgt.o)
 .debug_ranges  0x0000000000004208      0x100 /home/weiqiang_sun/S_SDK_Repo/S_SDK_Repo_RTOS_Master_Temporary/amebagreen2_gcc_project/build/project_km4ns/asdk/make/image_rom_wifi/wifi_driver/rom/lib_wifi_driver_rom.a(rom_rtw_ap.o)
 .debug_ranges  0x0000000000004308       0x30 /home/weiqiang_sun/S_SDK_Repo/S_SDK_Repo_RTOS_Master_Temporary/amebagreen2_gcc_project/build/project_km4ns/asdk/make/image_rom_wifi/wifi_driver/rom/lib_wifi_driver_rom.a(rom_rtw_skbuff.o)
 .debug_ranges  0x0000000000004338       0x30 /home/weiqiang_sun/S_SDK_Repo/S_SDK_Repo_RTOS_Master_Temporary/amebagreen2_gcc_project/build/project_km4ns/asdk/make/image_rom_wifi/wifi_driver/rom/lib_wifi_driver_rom.a(rom_hal_h2c_g1.o)
 .debug_ranges  0x0000000000004368       0xe8 /home/weiqiang_sun/S_SDK_Repo/S_SDK_Repo_RTOS_Master_Temporary/amebagreen2_gcc_project/build/project_km4ns/asdk/make/image_rom_wifi/wifi_driver/rom/lib_wifi_driver_rom.a(rom_hal_recv.o)
 .debug_ranges  0x0000000000004450      0x1a8 /home/weiqiang_sun/S_SDK_Repo/S_SDK_Repo_RTOS_Master_Temporary/amebagreen2_gcc_project/build/project_km4ns/asdk/make/image_rom_wifi/wifi_driver/rom/lib_wifi_driver_rom.a(rom_hal_xmit.o)
 .debug_ranges  0x00000000000045f8       0xa8 /home/weiqiang_sun/S_SDK_Repo/S_SDK_Repo_RTOS_Master_Temporary/amebagreen2_gcc_project/build/project_km4ns/asdk/make/image_rom_wifi/wifi_driver/rom/lib_wifi_driver_rom.a(rom_hal_xmit_g1.o)
 .debug_ranges  0x00000000000046a0       0x68 /home/weiqiang_sun/S_SDK_Repo/S_SDK_Repo_RTOS_Master_Temporary/amebagreen2_gcc_project/build/project_km4ns/asdk/make/image_rom_wifi/wifi_driver/rom/lib_wifi_driver_rom.a(rom_wifi_hal_debug.o)
 .debug_ranges  0x0000000000004708       0x30 /home/weiqiang_sun/S_SDK_Repo/S_SDK_Repo_RTOS_Master_Temporary/amebagreen2_gcc_project/build/project_km4ns/asdk/make/image_rom_wifi/wifi_driver/rom/lib_wifi_driver_rom.a(rom_wifi_hal_media_access.o)
 .debug_ranges  0x0000000000004738       0x50 /home/weiqiang_sun/S_SDK_Repo/S_SDK_Repo_RTOS_Master_Temporary/amebagreen2_gcc_project/build/project_km4ns/asdk/make/image_rom_wifi/wifi_driver/rom/lib_wifi_driver_rom.a(rom_wifi_hal_misc.o)
 .debug_ranges  0x0000000000004788       0x20 /home/weiqiang_sun/S_SDK_Repo/S_SDK_Repo_RTOS_Master_Temporary/amebagreen2_gcc_project/build/project_km4ns/asdk/make/image_rom_wifi/wifi_driver/rom/lib_wifi_driver_rom.a(rom_wifi_hal_secure.o)
 .debug_ranges  0x00000000000047a8       0x18 /home/weiqiang_sun/S_SDK_Repo/S_SDK_Repo_RTOS_Master_Temporary/amebagreen2_gcc_project/build/project_km4ns/asdk/make/image_rom_wifi/wifi_driver/rom/lib_wifi_driver_rom.a(rom_wifi_hal_txdesc.o)
 .debug_ranges  0x00000000000047c0       0x18 /home/weiqiang_sun/S_SDK_Repo/S_SDK_Repo_RTOS_Master_Temporary/amebagreen2_gcc_project/build/project_km4ns/asdk/make/image_rom_wifi/wifi_driver/rom/lib_wifi_driver_rom.a(rom_rtw_queue.o)
