Archive member included to satisfy reference by file (symbol)

/home/eric_gao/repo/repoe/amebagreen2_gcc_project/build/project_km4ns/asdk/make_rom/fwlib/lib_rom_fwlib_km4ns.a(ameba_boot_rom.o)
                              (--whole-archive)
/home/eric_gao/repo/repoe/amebagreen2_gcc_project/build/project_km4ns/asdk/make_rom/fwlib/lib_rom_fwlib_km4ns.a(ameba_vector_rom.o)
                              (--whole-archive)
/home/eric_gao/repo/repoe/amebagreen2_gcc_project/build/project_km4ns/asdk/make_rom/fwlib/lib_rom_fwlib_km4ns.a(ameba_vectors.o)
                              (--whole-archive)
/home/eric_gao/repo/repoe/amebagreen2_gcc_project/build/project_km4ns/asdk/make_rom/fwlib_com/lib_rom_fwlib_com_km4ns.a(ameba_crypto_aes.o)
                              (--whole-archive)
/home/eric_gao/repo/repoe/amebagreen2_gcc_project/build/project_km4ns/asdk/make_rom/fwlib_com/lib_rom_fwlib_com_km4ns.a(ameba_crypto_sha.o)
                              (--whole-archive)
/home/eric_gao/repo/repoe/amebagreen2_gcc_project/build/project_km4ns/asdk/make_rom/fwlib_com/lib_rom_fwlib_com_km4ns.a(ameba_crypto.o)
                              (--whole-archive)
/home/eric_gao/repo/repoe/amebagreen2_gcc_project/build/project_km4ns/asdk/make_rom/fwlib_com/lib_rom_fwlib_com_km4ns.a(ameba_pke_ecc.o)
                              (--whole-archive)
/home/eric_gao/repo/repoe/amebagreen2_gcc_project/build/project_km4ns/asdk/make_rom/fwlib_com/lib_rom_fwlib_com_km4ns.a(ameba_pke_rsa.o)
                              (--whole-archive)
/home/eric_gao/repo/repoe/amebagreen2_gcc_project/build/project_km4ns/asdk/make_rom/fwlib_com/lib_rom_fwlib_com_km4ns.a(ameba_pke_common.o)
                              (--whole-archive)
/home/eric_gao/repo/repoe/amebagreen2_gcc_project/build/project_km4ns/asdk/make_rom/fwlib_com/lib_rom_fwlib_com_km4ns.a(ameba_assert_rom.o)
                              (--whole-archive)
/home/eric_gao/repo/repoe/amebagreen2_gcc_project/build/project_km4ns/asdk/make_rom/fwlib_com/lib_rom_fwlib_com_km4ns.a(ameba_flash_rom.o)
                              (--whole-archive)
/home/eric_gao/repo/repoe/amebagreen2_gcc_project/build/project_km4ns/asdk/make_rom/fwlib_com/lib_rom_fwlib_com_km4ns.a(ameba_otp_rom.o)
                              (--whole-archive)
/home/eric_gao/repo/repoe/amebagreen2_gcc_project/build/project_km4ns/asdk/make_rom/fwlib_com/lib_rom_fwlib_com_km4ns.a(ameba_shell_rom.o)
                              (--whole-archive)
/home/eric_gao/repo/repoe/amebagreen2_gcc_project/build/project_km4ns/asdk/make_rom/fwlib_com/lib_rom_fwlib_com_km4ns.a(ameba_tim_rom.o)
                              (--whole-archive)
/home/eric_gao/repo/repoe/amebagreen2_gcc_project/build/project_km4ns/asdk/make_rom/fwlib_com/lib_rom_fwlib_com_km4ns.a(ameba_backup_reg.o)
                              (--whole-archive)
/home/eric_gao/repo/repoe/amebagreen2_gcc_project/build/project_km4ns/asdk/make_rom/fwlib_com/lib_rom_fwlib_com_km4ns.a(ameba_gpio_rom.o)
                              (--whole-archive)
/home/eric_gao/repo/repoe/amebagreen2_gcc_project/build/project_km4ns/asdk/make_rom/fwlib_com/lib_rom_fwlib_com_km4ns.a(ameba_pinmux_rom.o)
                              (--whole-archive)
/home/eric_gao/repo/repoe/amebagreen2_gcc_project/build/project_km4ns/asdk/make_rom/fwlib_com/lib_rom_fwlib_com_km4ns.a(ameba_rcc_rom.o)
                              (--whole-archive)
/home/eric_gao/repo/repoe/amebagreen2_gcc_project/build/project_km4ns/asdk/make_rom/fwlib_com/lib_rom_fwlib_com_km4ns.a(ameba_spinand_rom.o)
                              (--whole-archive)
/home/eric_gao/repo/repoe/amebagreen2_gcc_project/build/project_km4ns/asdk/make_rom/fwlib_com/lib_rom_fwlib_com_km4ns.a(ameba_trng.o)
                              (--whole-archive)
/home/eric_gao/repo/repoe/amebagreen2_gcc_project/build/project_km4ns/asdk/make_rom/fwlib_com/lib_rom_fwlib_com_km4ns.a(ameba_chipinfo_rom.o)
                              (--whole-archive)
/home/eric_gao/repo/repoe/amebagreen2_gcc_project/build/project_km4ns/asdk/make_rom/fwlib_com/lib_rom_fwlib_com_km4ns.a(ameba_loguart_rom.o)
                              (--whole-archive)
/home/eric_gao/repo/repoe/amebagreen2_gcc_project/build/project_km4ns/asdk/make_rom/fwlib_com/lib_rom_fwlib_com_km4ns.a(ameba_sdio_rom.o)
                              (--whole-archive)
/home/eric_gao/repo/repoe/amebagreen2_gcc_project/build/project_km4ns/asdk/make_rom/fwlib_com/lib_rom_fwlib_com_km4ns.a(ameba_syscfg_rom.o)
                              (--whole-archive)
/home/eric_gao/repo/repoe/amebagreen2_gcc_project/build/project_km4ns/asdk/make_rom/fwlib_com/lib_rom_fwlib_com_km4ns.a(ameba_uart_rom.o)
                              (--whole-archive)
/home/eric_gao/repo/repoe/amebagreen2_gcc_project/build/project_km4ns/asdk/make_rom/fwlib_com/lib_rom_fwlib_com_km4ns.a(ameba_clk_rom.o)
                              (--whole-archive)
/home/eric_gao/repo/repoe/amebagreen2_gcc_project/build/project_km4ns/asdk/make_rom/fwlib_com/lib_rom_fwlib_com_km4ns.a(ameba_delay_rom.o)
                              (--whole-archive)
/home/eric_gao/repo/repoe/amebagreen2_gcc_project/build/project_km4ns/asdk/make_rom/fwlib_com/lib_rom_fwlib_com_km4ns.a(ameba_monitor_rom.o)
                              (--whole-archive)
/home/eric_gao/repo/repoe/amebagreen2_gcc_project/build/project_km4ns/asdk/make_rom/fwlib_com/lib_rom_fwlib_com_km4ns.a(ameba_sema_rom.o)
                              (--whole-archive)
/home/eric_gao/repo/repoe/amebagreen2_gcc_project/build/project_km4ns/asdk/make_rom/fwlib_com/lib_rom_fwlib_com_km4ns.a(ameba_systimer_rom.o)
                              (--whole-archive)
/home/eric_gao/repo/repoe/amebagreen2_gcc_project/build/project_km4ns/asdk/make_rom/fwlib_com/lib_rom_fwlib_com_km4ns.a(ameba_wdg.o)
                              (--whole-archive)
/home/eric_gao/repo/repoe/amebagreen2_gcc_project/build/project_km4ns/asdk/make_rom/string/lib_rom_string_km4ns.a(char2num.o)
                              (--whole-archive)
/home/eric_gao/repo/repoe/amebagreen2_gcc_project/build/project_km4ns/asdk/make_rom/string/lib_rom_string_km4ns.a(memchr.o)
                              (--whole-archive)
/home/eric_gao/repo/repoe/amebagreen2_gcc_project/build/project_km4ns/asdk/make_rom/string/lib_rom_string_km4ns.a(memcmp.o)
                              (--whole-archive)
/home/eric_gao/repo/repoe/amebagreen2_gcc_project/build/project_km4ns/asdk/make_rom/string/lib_rom_string_km4ns.a(memcpy.o)
                              (--whole-archive)
/home/eric_gao/repo/repoe/amebagreen2_gcc_project/build/project_km4ns/asdk/make_rom/string/lib_rom_string_km4ns.a(memmove.o)
                              (--whole-archive)
/home/eric_gao/repo/repoe/amebagreen2_gcc_project/build/project_km4ns/asdk/make_rom/string/lib_rom_string_km4ns.a(memset.o)
                              (--whole-archive)
/home/eric_gao/repo/repoe/amebagreen2_gcc_project/build/project_km4ns/asdk/make_rom/string/lib_rom_string_km4ns.a(sscanf_minimal.o)
                              (--whole-archive)
/home/eric_gao/repo/repoe/amebagreen2_gcc_project/build/project_km4ns/asdk/make_rom/string/lib_rom_string_km4ns.a(strcmp.o)
                              (--whole-archive)
/home/eric_gao/repo/repoe/amebagreen2_gcc_project/build/project_km4ns/asdk/make_rom/string/lib_rom_string_km4ns.a(strcpy.o)
                              (--whole-archive)
/home/eric_gao/repo/repoe/amebagreen2_gcc_project/build/project_km4ns/asdk/make_rom/string/lib_rom_string_km4ns.a(stricmp.o)
                              (--whole-archive)
/home/eric_gao/repo/repoe/amebagreen2_gcc_project/build/project_km4ns/asdk/make_rom/string/lib_rom_string_km4ns.a(strlen.o)
                              (--whole-archive)
/home/eric_gao/repo/repoe/amebagreen2_gcc_project/build/project_km4ns/asdk/make_rom/string/lib_rom_string_km4ns.a(strncpy.o)
                              (--whole-archive)
/home/eric_gao/repo/repoe/amebagreen2_gcc_project/build/project_km4ns/asdk/make_rom/string/lib_rom_string_km4ns.a(strtol.o)
                              (--whole-archive)
/home/eric_gao/repo/repoe/amebagreen2_gcc_project/build/project_km4ns/asdk/make_rom/string/lib_rom_string_km4ns.a(strtoul.o)
                              (--whole-archive)
/home/eric_gao/repo/repoe/amebagreen2_gcc_project/build/project_km4ns/asdk/make_rom/string/lib_rom_string_km4ns.a(strupr.o)
                              (--whole-archive)
/home/eric_gao/repo/repoe/amebagreen2_gcc_project/build/project_km4ns/asdk/make_rom/string/lib_rom_string_km4ns.a(strwrap.o)
                              (--whole-archive)
/home/eric_gao/repo/repoe/amebagreen2_gcc_project/build/project_km4ns/asdk/make_rom/stdlib/lib_rom_stdlib_km4ns.a(diag.o)
                              (--whole-archive)
/home/eric_gao/repo/repoe/amebagreen2_gcc_project/build/project_km4ns/asdk/make_rom/stdlib/lib_rom_stdlib_km4ns.a(log.o)
                              (--whole-archive)
/home/eric_gao/repo/repoe/amebagreen2_gcc_project/build/project_km4ns/asdk/make_rom/crashdump/lib_rom_crashdump_km4ns.a(ameba_dump_stack.o)
                              (--whole-archive)
/home/eric_gao/repo/repoe/amebagreen2_gcc_project/build/project_km4ns/asdk/make_rom/crashdump/lib_rom_crashdump_km4ns.a(ameba_v8m_crashdump.o)
                              (--whole-archive)
/home/eric_gao/repo/repoe/amebagreen2_gcc_project/build/project_km4ns/asdk/make_rom/os/lib_rom_os_km4ns.a(tasks.o)
                              (--whole-archive)
/home/eric_gao/repo/repoe/amebagreen2_gcc_project/build/project_km4ns/asdk/make_rom/os/lib_rom_os_km4ns.a(list.o)
                              (--whole-archive)
/home/eric_gao/repo/repoe/amebagreen2_gcc_project/build/project_km4ns/asdk/make_rom/os/lib_rom_os_km4ns.a(croutine.o)
                              (--whole-archive)
/home/eric_gao/repo/repoe/amebagreen2_gcc_project/build/project_km4ns/asdk/make_rom/os/lib_rom_os_km4ns.a(queue.o)
                              (--whole-archive)
/home/eric_gao/repo/repoe/amebagreen2_gcc_project/build/project_km4ns/asdk/make_rom/os/lib_rom_os_km4ns.a(timers.o)
                              (--whole-archive)
/home/eric_gao/repo/repoe/amebagreen2_gcc_project/build/project_km4ns/asdk/make_rom/os/lib_rom_os_km4ns.a(event_groups.o)
                              (--whole-archive)
/home/eric_gao/repo/repoe/amebagreen2_gcc_project/build/project_km4ns/asdk/make_rom/os/lib_rom_os_km4ns.a(stream_buffer.o)
                              (--whole-archive)
/home/eric_gao/repo/repoe/amebagreen2_gcc_project/build/project_km4ns/asdk/make_rom/os/lib_rom_os_km4ns.a(port.o)
                              (--whole-archive)
/home/eric_gao/repo/repoe/amebagreen2_gcc_project/build/project_km4ns/asdk/make_rom/os/lib_rom_os_km4ns.a(portasm.o)
                              (--whole-archive)
/home/eric_gao/repo/repoe/amebagreen2_gcc_project/build/project_km4ns/asdk/make_rom/os/lib_rom_os_km4ns.a(heap_5.o)
                              (--whole-archive)
/home/eric_gao/repo/repoe/amebagreen2_gcc_project/build/project_km4ns/asdk/make_rom/os/lib_rom_os_km4ns.a(os_cfg.o)
                              (--whole-archive)
/home/eric_gao/repo/repoe/amebagreen2_gcc_project/build/project_km4ns/asdk/make_rom/wifi_driver/lib_rom_wifi_driver_km4ns.a(rom_sha1.o)
                              (--whole-archive)
/home/eric_gao/repo/repoe/amebagreen2_gcc_project/build/project_km4ns/asdk/make_rom/wifi_driver/lib_rom_wifi_driver_km4ns.a(rom_md5.o)
                              (--whole-archive)
/home/eric_gao/repo/repoe/amebagreen2_gcc_project/build/project_km4ns/asdk/make_rom/wifi_driver/lib_rom_wifi_driver_km4ns.a(rom_aes.o)
                              (--whole-archive)
/home/eric_gao/repo/repoe/amebagreen2_gcc_project/build/project_km4ns/asdk/make_rom/wifi_driver/lib_rom_wifi_driver_km4ns.a(rom_rtw_sha256.o)
                              (--whole-archive)
/home/eric_gao/repo/repoe/amebagreen2_gcc_project/build/project_km4ns/asdk/make_rom/wifi_driver/lib_rom_wifi_driver_km4ns.a(rom_rtw_dh_groups.o)
                              (--whole-archive)
/home/eric_gao/repo/repoe/amebagreen2_gcc_project/build/project_km4ns/asdk/make_rom/wifi_driver/lib_rom_wifi_driver_km4ns.a(rom_arc4.o)
                              (--whole-archive)
/home/eric_gao/repo/repoe/amebagreen2_gcc_project/build/project_km4ns/asdk/make_rom/wifi_driver/lib_rom_wifi_driver_km4ns.a(rom_rc4.o)
                              (--whole-archive)
/home/eric_gao/repo/repoe/amebagreen2_gcc_project/build/project_km4ns/asdk/make_rom/wifi_driver/lib_rom_wifi_driver_km4ns.a(rom_rtw_mbedtls_bignum.o)
                              (--whole-archive)
/home/eric_gao/repo/repoe/amebagreen2_gcc_project/build/project_km4ns/asdk/make_rom/wifi_driver/lib_rom_wifi_driver_km4ns.a(rom_rtw_mbedtls_ecp.o)
                              (--whole-archive)
/home/eric_gao/repo/repoe/amebagreen2_gcc_project/build/project_km4ns/asdk/make_rom/wifi_driver/lib_rom_wifi_driver_km4ns.a(rom_rtw_mbedtls_ecp_curves.o)
                              (--whole-archive)
/home/eric_gao/repo/repoe/amebagreen2_gcc_project/build/project_km4ns/asdk/make_rom/wifi_driver/lib_rom_wifi_driver_km4ns.a(rom_rtw_mbedtls_platform.o)
                              (--whole-archive)
/home/eric_gao/repo/repoe/amebagreen2_gcc_project/build/project_km4ns/asdk/make_rom/wifi_driver/lib_rom_wifi_driver_km4ns.a(rom_rtw_mbedtls_func_map.o)
                              (--whole-archive)
/home/eric_gao/repo/repoe/amebagreen2_gcc_project/build/project_km4ns/asdk/make_rom/wifi_driver/lib_rom_wifi_driver_km4ns.a(rom_rtw_security.o)
                              (--whole-archive)
/home/eric_gao/repo/repoe/amebagreen2_gcc_project/build/project_km4ns/asdk/make_rom/wifi_driver/lib_rom_wifi_driver_km4ns.a(rom_wpa_lite_psk.o)
                              (--whole-archive)
/home/eric_gao/repo/repoe/amebagreen2_gcc_project/build/project_km4ns/asdk/make_rom/wifi_driver/lib_rom_wifi_driver_km4ns.a(rom_wpa_lite_part2.o)
                              (--whole-archive)
/home/eric_gao/repo/repoe/amebagreen2_gcc_project/build/project_km4ns/asdk/make_rom/wifi_driver/lib_rom_wifi_driver_km4ns.a(rom_wpa_lite_sae.o)
                              (--whole-archive)
/home/eric_gao/repo/repoe/amebagreen2_gcc_project/build/project_km4ns/asdk/make_rom/wifi_driver/lib_rom_wifi_driver_km4ns.a(rom_wpa_lite_sae_crypto.o)
                              (--whole-archive)
/home/eric_gao/repo/repoe/amebagreen2_gcc_project/build/project_km4ns/asdk/make_rom/wifi_driver/lib_rom_wifi_driver_km4ns.a(rom_rtw_ieee80211.o)
                              (--whole-archive)
/home/eric_gao/repo/repoe/amebagreen2_gcc_project/build/project_km4ns/asdk/make_rom/wifi_driver/lib_rom_wifi_driver_km4ns.a(rom_rtw_ieee80211_part2.o)
                              (--whole-archive)
/home/eric_gao/repo/repoe/amebagreen2_gcc_project/build/project_km4ns/asdk/make_rom/wifi_driver/lib_rom_wifi_driver_km4ns.a(rom_rtw_probe.o)
                              (--whole-archive)
/home/eric_gao/repo/repoe/amebagreen2_gcc_project/build/project_km4ns/asdk/make_rom/wifi_driver/lib_rom_wifi_driver_km4ns.a(rom_rtw_auth.o)
                              (--whole-archive)
/home/eric_gao/repo/repoe/amebagreen2_gcc_project/build/project_km4ns/asdk/make_rom/wifi_driver/lib_rom_wifi_driver_km4ns.a(rom_rtw_action.o)
                              (--whole-archive)
/home/eric_gao/repo/repoe/amebagreen2_gcc_project/build/project_km4ns/asdk/make_rom/wifi_driver/lib_rom_wifi_driver_km4ns.a(rom_rtw_psk.o)
                              (--whole-archive)
/home/eric_gao/repo/repoe/amebagreen2_gcc_project/build/project_km4ns/asdk/make_rom/wifi_driver/lib_rom_wifi_driver_km4ns.a(rom_rtw_pmksa_cache.o)
                              (--whole-archive)
/home/eric_gao/repo/repoe/amebagreen2_gcc_project/build/project_km4ns/asdk/make_rom/wifi_driver/lib_rom_wifi_driver_km4ns.a(rom_rtw_rf.o)
                              (--whole-archive)
/home/eric_gao/repo/repoe/amebagreen2_gcc_project/build/project_km4ns/asdk/make_rom/wifi_driver/lib_rom_wifi_driver_km4ns.a(rom_rtw_recv.o)
                              (--whole-archive)
/home/eric_gao/repo/repoe/amebagreen2_gcc_project/build/project_km4ns/asdk/make_rom/wifi_driver/lib_rom_wifi_driver_km4ns.a(rom_rtw_beacon.o)
                              (--whole-archive)
/home/eric_gao/repo/repoe/amebagreen2_gcc_project/build/project_km4ns/asdk/make_rom/wifi_driver/lib_rom_wifi_driver_km4ns.a(rom_rtw_assoc.o)
                              (--whole-archive)
/home/eric_gao/repo/repoe/amebagreen2_gcc_project/build/project_km4ns/asdk/make_rom/wifi_driver/lib_rom_wifi_driver_km4ns.a(rom_rtw_vht.o)
                              (--whole-archive)
/home/eric_gao/repo/repoe/amebagreen2_gcc_project/build/project_km4ns/asdk/make_rom/wifi_driver/lib_rom_wifi_driver_km4ns.a(rom_rtw_he.o)
                              (--whole-archive)
/home/eric_gao/repo/repoe/amebagreen2_gcc_project/build/project_km4ns/asdk/make_rom/wifi_driver/lib_rom_wifi_driver_km4ns.a(rom_rtw_80211w.o)
                              (--whole-archive)
/home/eric_gao/repo/repoe/amebagreen2_gcc_project/build/project_km4ns/asdk/make_rom/wifi_driver/lib_rom_wifi_driver_km4ns.a(rom_rtw_rate.o)
                              (--whole-archive)
/home/eric_gao/repo/repoe/amebagreen2_gcc_project/build/project_km4ns/asdk/make_rom/wifi_driver/lib_rom_wifi_driver_km4ns.a(rom_rtw_chbw.o)
                              (--whole-archive)
/home/eric_gao/repo/repoe/amebagreen2_gcc_project/build/project_km4ns/asdk/make_rom/wifi_driver/lib_rom_wifi_driver_km4ns.a(rom_rtw_11d.o)
                              (--whole-archive)
/home/eric_gao/repo/repoe/amebagreen2_gcc_project/build/project_km4ns/asdk/make_rom/wifi_driver/lib_rom_wifi_driver_km4ns.a(rom_rtw_ht.o)
                              (--whole-archive)
/home/eric_gao/repo/repoe/amebagreen2_gcc_project/build/project_km4ns/asdk/make_rom/wifi_driver/lib_rom_wifi_driver_km4ns.a(rom_rtw_network.o)
                              (--whole-archive)
/home/eric_gao/repo/repoe/amebagreen2_gcc_project/build/project_km4ns/asdk/make_rom/wifi_driver/lib_rom_wifi_driver_km4ns.a(rom_rtw_pmksa_cache_part2.o)
                              (--whole-archive)
/home/eric_gao/repo/repoe/amebagreen2_gcc_project/build/project_km4ns/asdk/make_rom/wifi_driver/lib_rom_wifi_driver_km4ns.a(rom_rtw_11d_part2.o)
                              (--whole-archive)
/home/eric_gao/repo/repoe/amebagreen2_gcc_project/build/project_km4ns/asdk/make_rom/wifi_driver/lib_rom_wifi_driver_km4ns.a(rom_rtw_he_part2.o)
                              (--whole-archive)
/home/eric_gao/repo/repoe/amebagreen2_gcc_project/build/project_km4ns/asdk/make_rom/wifi_driver/lib_rom_wifi_driver_km4ns.a(rom_rtw_shortcut.o)
                              (--whole-archive)
/home/eric_gao/repo/repoe/amebagreen2_gcc_project/build/project_km4ns/asdk/make_rom/wifi_driver/lib_rom_wifi_driver_km4ns.a(rom_rtw_setkey.o)
                              (--whole-archive)
/home/eric_gao/repo/repoe/amebagreen2_gcc_project/build/project_km4ns/asdk/make_rom/wifi_driver/lib_rom_wifi_driver_km4ns.a(rom_rtw_beacon_part2.o)
                              (--whole-archive)
/home/eric_gao/repo/repoe/amebagreen2_gcc_project/build/project_km4ns/asdk/make_rom/wifi_driver/lib_rom_wifi_driver_km4ns.a(rom_rtw_sitesurvey.o)
                              (--whole-archive)
/home/eric_gao/repo/repoe/amebagreen2_gcc_project/build/project_km4ns/asdk/make_rom/wifi_driver/lib_rom_wifi_driver_km4ns.a(rom_rtw_sitesurvey_report.o)
                              (--whole-archive)
/home/eric_gao/repo/repoe/amebagreen2_gcc_project/build/project_km4ns/asdk/make_rom/wifi_driver/lib_rom_wifi_driver_km4ns.a(rom_rtw_ap_xmit.o)
                              (--whole-archive)
/home/eric_gao/repo/repoe/amebagreen2_gcc_project/build/project_km4ns/asdk/make_rom/wifi_driver/lib_rom_wifi_driver_km4ns.a(rom_rtw_addba.o)
                              (--whole-archive)
/home/eric_gao/repo/repoe/amebagreen2_gcc_project/build/project_km4ns/asdk/make_rom/wifi_driver/lib_rom_wifi_driver_km4ns.a(rom_rtw_80211w_part2.o)
                              (--whole-archive)
/home/eric_gao/repo/repoe/amebagreen2_gcc_project/build/project_km4ns/asdk/make_rom/wifi_driver/lib_rom_wifi_driver_km4ns.a(rom_rtw_auth_part2.o)
                              (--whole-archive)
/home/eric_gao/repo/repoe/amebagreen2_gcc_project/build/project_km4ns/asdk/make_rom/wifi_driver/lib_rom_wifi_driver_km4ns.a(rom_rtw_action_part2.o)
                              (--whole-archive)
/home/eric_gao/repo/repoe/amebagreen2_gcc_project/build/project_km4ns/asdk/make_rom/wifi_driver/lib_rom_wifi_driver_km4ns.a(rom_rtw_join.o)
                              (--whole-archive)
/home/eric_gao/repo/repoe/amebagreen2_gcc_project/build/project_km4ns/asdk/make_rom/wifi_driver/lib_rom_wifi_driver_km4ns.a(rom_rtw_join_result.o)
                              (--whole-archive)
/home/eric_gao/repo/repoe/amebagreen2_gcc_project/build/project_km4ns/asdk/make_rom/wifi_driver/lib_rom_wifi_driver_km4ns.a(rom_rtw_assoc_part2.o)
                              (--whole-archive)
/home/eric_gao/repo/repoe/amebagreen2_gcc_project/build/project_km4ns/asdk/make_rom/wifi_driver/lib_rom_wifi_driver_km4ns.a(rom_rtw_security_part2.o)
                              (--whole-archive)
/home/eric_gao/repo/repoe/amebagreen2_gcc_project/build/project_km4ns/asdk/make_rom/wifi_driver/lib_rom_wifi_driver_km4ns.a(rom_rtw_vht_part2.o)
                              (--whole-archive)
/home/eric_gao/repo/repoe/amebagreen2_gcc_project/build/project_km4ns/asdk/make_rom/wifi_driver/lib_rom_wifi_driver_km4ns.a(rom_rtw_xmit.o)
                              (--whole-archive)
/home/eric_gao/repo/repoe/amebagreen2_gcc_project/build/project_km4ns/asdk/make_rom/wifi_driver/lib_rom_wifi_driver_km4ns.a(rom_rtw_recv_part2.o)
                              (--whole-archive)
/home/eric_gao/repo/repoe/amebagreen2_gcc_project/build/project_km4ns/asdk/make_rom/wifi_driver/lib_rom_wifi_driver_km4ns.a(rom_rtw_recv_reorder.o)
                              (--whole-archive)
/home/eric_gao/repo/repoe/amebagreen2_gcc_project/build/project_km4ns/asdk/make_rom/wifi_driver/lib_rom_wifi_driver_km4ns.a(rom_rtw_mgnt.o)
                              (--whole-archive)
/home/eric_gao/repo/repoe/amebagreen2_gcc_project/build/project_km4ns/asdk/make_rom/wifi_driver/lib_rom_wifi_driver_km4ns.a(rom_rtw_recv_defrag.o)
                              (--whole-archive)
/home/eric_gao/repo/repoe/amebagreen2_gcc_project/build/project_km4ns/asdk/make_rom/wifi_driver/lib_rom_wifi_driver_km4ns.a(rom_rtw_state.o)
                              (--whole-archive)
/home/eric_gao/repo/repoe/amebagreen2_gcc_project/build/project_km4ns/asdk/make_rom/wifi_driver/lib_rom_wifi_driver_km4ns.a(rom_rtw_sta_mgt.o)
                              (--whole-archive)
/home/eric_gao/repo/repoe/amebagreen2_gcc_project/build/project_km4ns/asdk/make_rom/wifi_driver/lib_rom_wifi_driver_km4ns.a(rom_rtw_ap.o)
                              (--whole-archive)
/home/eric_gao/repo/repoe/amebagreen2_gcc_project/build/project_km4ns/asdk/make_rom/wifi_driver/lib_rom_wifi_driver_km4ns.a(rom_rtw_skbuff.o)
                              (--whole-archive)
/home/eric_gao/repo/repoe/amebagreen2_gcc_project/build/project_km4ns/asdk/make_rom/wifi_driver/lib_rom_wifi_driver_km4ns.a(rom_wifi_hal_ax.o)
                              (--whole-archive)
/home/eric_gao/repo/repoe/amebagreen2_gcc_project/build/project_km4ns/asdk/make_rom/wifi_driver/lib_rom_wifi_driver_km4ns.a(rom_wifi_hal_bcn.o)
                              (--whole-archive)
/home/eric_gao/repo/repoe/amebagreen2_gcc_project/build/project_km4ns/asdk/make_rom/wifi_driver/lib_rom_wifi_driver_km4ns.a(rom_wifi_hal_debug.o)
                              (--whole-archive)
/home/eric_gao/repo/repoe/amebagreen2_gcc_project/build/project_km4ns/asdk/make_rom/wifi_driver/lib_rom_wifi_driver_km4ns.a(rom_wifi_hal_init.o)
                              (--whole-archive)
/home/eric_gao/repo/repoe/amebagreen2_gcc_project/build/project_km4ns/asdk/make_rom/wifi_driver/lib_rom_wifi_driver_km4ns.a(rom_wifi_hal_media_access.o)
                              (--whole-archive)
/home/eric_gao/repo/repoe/amebagreen2_gcc_project/build/project_km4ns/asdk/make_rom/wifi_driver/lib_rom_wifi_driver_km4ns.a(rom_wifi_hal_misc.o)
                              (--whole-archive)
/home/eric_gao/repo/repoe/amebagreen2_gcc_project/build/project_km4ns/asdk/make_rom/wifi_driver/lib_rom_wifi_driver_km4ns.a(rom_wifi_hal_rate.o)
                              (--whole-archive)
/home/eric_gao/repo/repoe/amebagreen2_gcc_project/build/project_km4ns/asdk/make_rom/wifi_driver/lib_rom_wifi_driver_km4ns.a(rom_wifi_hal_secure.o)
                              (--whole-archive)
/home/eric_gao/repo/repoe/amebagreen2_gcc_project/build/project_km4ns/asdk/make_rom/wifi_driver/lib_rom_wifi_driver_km4ns.a(rom_wifi_hal_tsf.o)
                              (--whole-archive)
/home/eric_gao/repo/repoe/amebagreen2_gcc_project/build/project_km4ns/asdk/make_rom/wifi_driver/lib_rom_wifi_driver_km4ns.a(rom_wifi_hal_txdesc.o)
                              (--whole-archive)
/home/eric_gao/repo/repoe/amebagreen2_gcc_project/build/project_km4ns/asdk/make_rom/wifi_driver/lib_rom_wifi_driver_km4ns.a(rom_wifi_hal_rxdesc.o)
                              (--whole-archive)
/home/eric_gao/repo/repoe/amebagreen2_gcc_project/build/project_km4ns/asdk/make_rom/wifi_driver/lib_rom_wifi_driver_km4ns.a(rom_wifi_hal_io.o)
                              (--whole-archive)
/home/eric_gao/repo/repoe/amebagreen2_gcc_project/build/project_km4ns/asdk/make_rom/wifi_driver/lib_rom_wifi_driver_km4ns.a(rom_hal_debug.o)
                              (--whole-archive)
/home/eric_gao/repo/repoe/amebagreen2_gcc_project/build/project_km4ns/asdk/make_rom/wifi_driver/lib_rom_wifi_driver_km4ns.a(rom_hal_xmit.o)
                              (--whole-archive)
/home/eric_gao/repo/repoe/amebagreen2_gcc_project/build/project_km4ns/asdk/make_rom/wifi_driver/lib_rom_wifi_driver_km4ns.a(rom_hal_xmit_g1.o)
                              (--whole-archive)
/home/eric_gao/repo/repoe/amebagreen2_gcc_project/build/project_km4ns/asdk/make_rom/wifi_driver/lib_rom_wifi_driver_km4ns.a(rom_hal_structs.o)
                              (--whole-archive)
/home/eric_gao/repo/repoe/amebagreen2_gcc_project/build/project_km4ns/asdk/make_rom/wifi_driver/lib_rom_wifi_driver_km4ns.a(rom_hal_recv.o)
                              (--whole-archive)
/home/eric_gao/repo/repoe/amebagreen2_gcc_project/build/project_km4ns/asdk/make_rom/wifi_driver/lib_rom_wifi_driver_km4ns.a(rom_hal_h2c.o)
                              (--whole-archive)
/home/eric_gao/repo/repoe/amebagreen2_gcc_project/build/project_km4ns/asdk/make_rom/wifi_driver/lib_rom_wifi_driver_km4ns.a(rom_hal_h2c_g1.o)
                              (--whole-archive)
/home/eric_gao/repo/repoe/amebagreen2_gcc_project/build/project_km4ns/asdk/make_rom/wifi_driver/lib_rom_wifi_driver_km4ns.a(rom_rtw_queue.o)
                              (--whole-archive)
/home/eric_gao/repo/repoe/amebagreen2_gcc_project/build/project_km4ns/asdk/make_rom/wifi_driver/lib_rom_wifi_driver_km4ns.a(rom_hal_rom_to_flash.o)
                              (--whole-archive)

Memory Configuration

Name             Origin             Length             Attributes
EMPTY_SECTION    0x0000000000000000 0x0000000000000000 xrw
AP_IROM          0x0000000000000000 0x000000000001d000 xr
AP_DROM          0x000000000001d000 0x0000000000002000 xr
AP_ONLY_ROM      0x000000000001f000 0x0000000000001000 xr
NP_SYS_ROM       0x0000000000100000 0x0000000000001000 xr
SHARE_IROM       0x0000000000101000 0x000000000000b000 xr
SHARE_DROM       0x000000000010c000 0x0000000000003000 xr
OS_ROM           0x000000000010f000 0x0000000000005000 xr
WIFI_ROM         0x0000000000114000 0x0000000000033800 xr
DELAY_ROM        0x0000000000147800 0x0000000000000800 xr
AP_ROMBSS_RAM_S  0x0000000030000000 0x0000000000000600 rw
AP_MSP_RAM_S     0x0000000030000600 0x0000000000000a00 rw
AP_ROMBSS_RAM_NS 0x0000000020001000 0x0000000000001400 rw
AP_MSP_RAM_NS    0x0000000020002400 0x0000000000000c00 rw
NP_ROMBSS_MMU    0x0000000020001000 0x0000000000001400 rw
NP_ROMBSS_RAM    0x0000000020003000 0x0000000000001400 rw
NP_MSP_RAM       0x0000000020004600 0x0000000000000a00 rw
NP_IPC_RAM       0x0000000020004400 0x0000000000000200 xrw
AP_BOOTLOADER_RAM_S 0x0000000030005020 0x0000000000005fe0 xrw
AP_FLOADER_RAM_S 0x0000000030070020 0x000000000000ffe0 xrw
FULLMAC_IMG2     0x0000000020002420 0x000000000006cbe0 xrw
FULLMAC_BOOTLOADER 0x0000000030070020 0x000000000000efe0 xrw
FULLMAC_MANIFEST 0x000000002007f000 0x0000000000001000 xrw
FULLMAC_TCM_RAM  0x00000000000f0000 0x0000000000010000 xrw
AP_BD_RAM        0x000000002000b020 0x0000000000044fe0 xrw
NP_BD_RAM        0x0000000020050020 0x000000000002ffe0 xrw
AP_BD_PSRAM      0x0000000060000020 0x000000000017ffe0 xrw
NP_BD_PSRAM      0x0000000060180020 0x000000000017ffe0 xrw
AP_PSRAM_HEAP_EXT 0x000000006fffffff 0x0000000000000000 xrw
NP_PSRAM_HEAP_EXT 0x000000006fffffff 0x0000000000000000 xrw
RETENTION_RAM    0x000000004080aa00 0x0000000000000200 xrw
AP_BOOT_XIP      0x0000000010400020 0x00000000007fffe0 xr
AP_IMG3_XIP      0x0000000010c00020 0x00000000003fffe0 xr
AP_IMG2_XIP      0x0000000002000020 0x0000000001ffffe0 xr
NP_IMG2_XIP      0x0000000004000020 0x0000000001ffffe0 xr
BTRACE           0x00000000c8800000 0x0000000000800000 xr
CTRACE           0x00000000ca000000 0x00000000007fffff xr
*default*        0x0000000000000000 0xffffffffffffffff

Linker script and memory map

                0x0000000020004400                __ipc_memory_start__ = ORIGIN (NP_IPC_RAM)
                0x0000000004000020                __np_flash_text_start__ = ORIGIN (NP_IMG2_XIP)
                0x0000000006000000                __np_flash_text_end__ = (ORIGIN (NP_IMG2_XIP) + LENGTH (NP_IMG2_XIP))
                0x0000000002000020                __ap_flash_text_start__ = ORIGIN (AP_IMG2_XIP)
                0x0000000004000000                __ap_flash_text_end__ = (ORIGIN (AP_IMG2_XIP) + LENGTH (AP_IMG2_XIP))
                0x0000000010400020                __ap_boot_text_start__ = ORIGIN (AP_BOOT_XIP)
                0x0000000010c00000                __ap_boot_text_end__ = (ORIGIN (AP_BOOT_XIP) + LENGTH (AP_BOOT_XIP))
                0x0000000010c00020                __ap_img3_text_start__ = ORIGIN (AP_IMG3_XIP)
                0x0000000011000000                __ap_img3_text_end__ = (ORIGIN (AP_IMG3_XIP) + LENGTH (AP_IMG3_XIP))
                0x000000002000b000                __ap_bd_ram_start__ = (ORIGIN (AP_BD_RAM) - 0x20)
                0x0000000060000000                __ap_bd_psram_start__ = (ORIGIN (AP_BD_PSRAM) - 0x20)

.rom.sys        0x0000000000100000      0x4de
 *(.rom_vector_table1)
 .rom_vector_table1
                0x0000000000100000      0x164 /home/eric_gao/repo/repoe/amebagreen2_gcc_project/build/project_km4ns/asdk/make_rom/fwlib/lib_rom_fwlib_km4ns.a(ameba_vector_rom.o)
                0x0000000000100000                RomVectorTable
 *(.vectors_table_text)
 .vectors_table_text
                0x0000000000100164       0x14 /home/eric_gao/repo/repoe/amebagreen2_gcc_project/build/project_km4ns/asdk/make_rom/fwlib/lib_rom_fwlib_km4ns.a(ameba_vectors.o)
                0x0000000000100164                Reset_Handler
 *ameba_vector_rom.o(.hal.rom.text*)
 .hal.rom.text  0x0000000000100178      0x308 /home/eric_gao/repo/repoe/amebagreen2_gcc_project/build/project_km4ns/asdk/make_rom/fwlib/lib_rom_fwlib_km4ns.a(ameba_vector_rom.o)
                0x0000000000100178                INT_HardFault
                0x0000000000100182                INT_MemManage
                0x000000000010018c                INT_BusFault
                0x0000000000100196                INT_UsageFault
                0x00000000001001a0                INT_SecureFault
                0x00000000001001aa                INT_NMI
                0x00000000001001c0                INT_SVCall
                0x00000000001001e0                INT_PendSV
                0x0000000000100200                INT_SysTick
                0x00000000001003a4                INT_HardFault_C
                0x0000000000100410                FaultHandler
                0x0000000000100420                PreFaultPatch_register
                0x000000000010042c                PostFaultPatch_register
                0x0000000000100438                SVCall_irqfunc_set
                0x0000000000100444                SVCall_irqfunc_get
                0x0000000000100450                PendSV_irqfunc_set
                0x000000000010045c                PendSV_irqfunc_get
                0x0000000000100468                Systick_irqfunc_set
                0x0000000000100474                Systick_irqfunc_get
 *ameba_boot_rom.o(.hal.rom.text*)
 .hal.rom.text  0x0000000000100480       0x5c /home/eric_gao/repo/repoe/amebagreen2_gcc_project/build/project_km4ns/asdk/make_rom/fwlib/lib_rom_fwlib_km4ns.a(ameba_boot_rom.o)
                0x0000000000100480                BOOT_ROM_LoaderEntry
                0x0000000000100498                BOOT_ROM_InitDebugFlg
                0x00000000001004b8                BOOT_ROM_ResetVsr
 *ameba_boot_rom.o(.rom.rodata*)
 .rom.rodata.str1.1
                0x00000000001004dc        0x2 /home/eric_gao/repo/repoe/amebagreen2_gcc_project/build/project_km4ns/asdk/make_rom/fwlib/lib_rom_fwlib_km4ns.a(ameba_boot_rom.o)

.delay.rom      0x0000000000147800       0x94
 *ameba_delay_rom.o(.hal.rom.text*)
 .hal.rom.text  0x0000000000147800       0x94 /home/eric_gao/repo/repoe/amebagreen2_gcc_project/build/project_km4ns/asdk/make_rom/fwlib_com/lib_rom_fwlib_com_km4ns.a(ameba_delay_rom.o)
                0x0000000000147800                DelayNop
                0x000000000014780c                DelayUs
                0x000000000014786c                DelayMs
                0x0000000000147880                DelayClkUpdate

.share.text     0x0000000000101000     0x9ef0
 *(.share.rom.text*)
 .share.rom.text
                0x0000000000101000      0x154 /home/eric_gao/repo/repoe/amebagreen2_gcc_project/build/project_km4ns/asdk/make_rom/fwlib/lib_rom_fwlib_km4ns.a(ameba_vector_rom.o)
                0x0000000000101000                irq_enable
                0x000000000010101c                irq_disable
                0x0000000000101040                irq_set_priority
                0x0000000000101090                irq_get_priority
                0x00000000001010b4                irq_set_pending
                0x00000000001010d0                irq_get_pending
                0x00000000001010f4                irq_clear_pending
                0x0000000000101110                irq_register
                0x0000000000101138                irq_unregister
 *(.libc.rom.text*)
 .libc.rom.text
                0x0000000000101154      0x11c /home/eric_gao/repo/repoe/amebagreen2_gcc_project/build/project_km4ns/asdk/make_rom/string/lib_rom_string_km4ns.a(char2num.o)
                0x0000000000101154                _char2num
                0x0000000000101180                _2char2dec
                0x0000000000101200                _2char2hex
 .libc.rom.text
                0x0000000000101270       0x88 /home/eric_gao/repo/repoe/amebagreen2_gcc_project/build/project_km4ns/asdk/make_rom/string/lib_rom_string_km4ns.a(memchr.o)
                0x0000000000101270                _memchr
 .libc.rom.text
                0x00000000001012f8       0x6c /home/eric_gao/repo/repoe/amebagreen2_gcc_project/build/project_km4ns/asdk/make_rom/string/lib_rom_string_km4ns.a(memcmp.o)
                0x00000000001012f8                _memcmp
 .libc.rom.text
                0x0000000000101364       0xa8 /home/eric_gao/repo/repoe/amebagreen2_gcc_project/build/project_km4ns/asdk/make_rom/string/lib_rom_string_km4ns.a(memcpy.o)
                0x0000000000101364                _memcpy
 .libc.rom.text
                0x000000000010140c       0xec /home/eric_gao/repo/repoe/amebagreen2_gcc_project/build/project_km4ns/asdk/make_rom/string/lib_rom_string_km4ns.a(memmove.o)
                0x000000000010140c                _memmove
 .libc.rom.text
                0x00000000001014f8       0xbc /home/eric_gao/repo/repoe/amebagreen2_gcc_project/build/project_km4ns/asdk/make_rom/string/lib_rom_string_km4ns.a(memset.o)
                0x00000000001014f8                _memset
 .libc.rom.text
                0x00000000001015b4      0x558 /home/eric_gao/repo/repoe/amebagreen2_gcc_project/build/project_km4ns/asdk/make_rom/string/lib_rom_string_km4ns.a(sscanf_minimal.o)
                0x0000000000101658                _vsscanf_minimal
                0x0000000000101af0                _sscanf_ss
 .libc.rom.text
                0x0000000000101b0c       0x68 /home/eric_gao/repo/repoe/amebagreen2_gcc_project/build/project_km4ns/asdk/make_rom/string/lib_rom_string_km4ns.a(strcmp.o)
                0x0000000000101b0c                _strcmp
 .libc.rom.text
                0x0000000000101b74       0x4c /home/eric_gao/repo/repoe/amebagreen2_gcc_project/build/project_km4ns/asdk/make_rom/string/lib_rom_string_km4ns.a(strcpy.o)
                0x0000000000101b74                _strcpy
 .libc.rom.text
                0x0000000000101bc0       0x5c /home/eric_gao/repo/repoe/amebagreen2_gcc_project/build/project_km4ns/asdk/make_rom/string/lib_rom_string_km4ns.a(stricmp.o)
                0x0000000000101bc0                _stricmp
 .libc.rom.text
                0x0000000000101c1c       0x4c /home/eric_gao/repo/repoe/amebagreen2_gcc_project/build/project_km4ns/asdk/make_rom/string/lib_rom_string_km4ns.a(strlen.o)
                0x0000000000101c1c                _strlen
 .libc.rom.text
                0x0000000000101c68       0x8c /home/eric_gao/repo/repoe/amebagreen2_gcc_project/build/project_km4ns/asdk/make_rom/string/lib_rom_string_km4ns.a(strncpy.o)
                0x0000000000101c68                _strncpy
 .libc.rom.text
                0x0000000000101cf4      0x118 /home/eric_gao/repo/repoe/amebagreen2_gcc_project/build/project_km4ns/asdk/make_rom/string/lib_rom_string_km4ns.a(strtol.o)
                0x0000000000101cf4                _strtol
 .libc.rom.text
                0x0000000000101e0c      0x140 /home/eric_gao/repo/repoe/amebagreen2_gcc_project/build/project_km4ns/asdk/make_rom/string/lib_rom_string_km4ns.a(strtoul.o)
                0x0000000000101e0c                _strtoul
 .libc.rom.text
                0x0000000000101f4c       0x1c /home/eric_gao/repo/repoe/amebagreen2_gcc_project/build/project_km4ns/asdk/make_rom/string/lib_rom_string_km4ns.a(strupr.o)
                0x0000000000101f4c                _strupr
 .libc.rom.text
                0x0000000000101f68       0xa0 /home/eric_gao/repo/repoe/amebagreen2_gcc_project/build/project_km4ns/asdk/make_rom/string/lib_rom_string_km4ns.a(strwrap.o)
                0x0000000000101f68                __wrap_memset
                0x0000000000101f70                __wrap_memcpy
                0x0000000000101f78                __wrap_memcmp
                0x0000000000101f80                __wrap_memchr
                0x0000000000101f88                __wrap_memmove
                0x0000000000101f90                __wrap_strlen
                0x0000000000101f98                __wrap_strcmp
                0x0000000000101fa0                __wrap_stricmp
                0x0000000000101fa8                __wrap_strupr
                0x0000000000101fb0                __wrap_strncpy
                0x0000000000101fb8                __wrap_strtoul
                0x0000000000101fc0                __wrap_strcpy
                0x0000000000101fc8                __wrap_strtol
                0x0000000000101fd0                __wrap_printf
                0x0000000000101fec                __wrap_sprintf
 *(.hal.rom.text*)
 .hal.rom.text  0x0000000000102008     0x112c /home/eric_gao/repo/repoe/amebagreen2_gcc_project/build/project_km4ns/asdk/make_rom/fwlib_com/lib_rom_fwlib_com_km4ns.a(ameba_crypto_aes.o)
                0x0000000000102008                AES_Get_AES_Addr
                0x0000000000102028                AES_get_km_aes_addr
                0x0000000000102048                AES_Get_DMA_Addr
                0x0000000000102068                AES_Disable_SCA_Mask
                0x000000000010207c                AES_Enable_SCA_Mask
                0x0000000000102090                AES_Set_SCA_Mask
                0x00000000001020bc                AES_DMA_Init
                0x00000000001020e8                AES_StructInit
                0x00000000001020f8                AES_Init
                0x0000000000102160                AES_Cmd
                0x0000000000102180                AES_GetIv
                0x00000000001021a0                AES_SetIv
                0x00000000001021c0                AES_GetTag
                0x0000000000102208                AES_InitTag
                0x0000000000102228                AES_ProcessDma
                0x0000000000102588                AES_GCM_Set_Iv
                0x0000000000102680                AES_lock_mutex
                0x00000000001026d4                AES_unlock_mutex
                0x00000000001026e8                AES_set_swap_setting
                0x0000000000102714                AES_get_swap_setting
                0x0000000000102738                AES_load_key
                0x0000000000102838                crypto_aes_set_sw_key
                0x00000000001029cc                crypto_aes_share_secure_key
                0x0000000000102a4c                crypto_aes_slave_start
                0x0000000000102b90                crypto_aes_ecb_slave
                0x0000000000102bb0                crypto_aes_ctr_slave
                0x0000000000102bd2                crypto_aes_start
                0x0000000000102cb4                crypto_aes_ecb
                0x0000000000102ce0                crypto_aes_cbc
                0x0000000000102d0e                crypto_aes_cfb
                0x0000000000102d30                crypto_aes_ofb
                0x0000000000102d52                crypto_aes_ctr
                0x0000000000102d74                crypto_aes_xts
                0x0000000000102db4                crypto_cmac
                0x0000000000102e38                crypto_gcm_encrypt_and_tag
                0x0000000000103018                crypto_gcm_auth_decrypt
 .hal.rom.text  0x0000000000103134      0xd64 /home/eric_gao/repo/repoe/amebagreen2_gcc_project/build/project_km4ns/asdk/make_rom/fwlib_com/lib_rom_fwlib_com_km4ns.a(ameba_crypto_sha.o)
                0x0000000000103134                SHA2_Get_SHA_Addr
                0x0000000000103154                SHA2_get_km_hmac_addr
                0x0000000000103174                SHA2_Get_DMA_Addr
                0x0000000000103194                SHA2_Restore
                0x0000000000103230                SHA2_Save
                0x0000000000103280                SHA2_Get_Final_Digest
                0x0000000000103398                SHA_StructInit
                0x00000000001033a6                SHA2_Init
                0x0000000000103454                SHA2_DMA_Init
                0x000000000010349c                SHA2_SlaveEnd
                0x00000000001034d8                SHA2_DmaStart
                0x0000000000103768                SHA2_ProcessDma
                0x00000000001037dc                SHA2_lock_mutex
                0x0000000000103830                SHA2_unlock_mutex
                0x0000000000103844                SHA2_set_swap_setting
                0x0000000000103878                SHA2_get_swap_setting
                0x000000000010389c                SHA2_hmac_load_key
                0x000000000010394c                crypto_sha2_init
                0x00000000001039d0                crypto_sha2_update
                0x0000000000103b70                crypto_sha2_final
                0x0000000000103c38                crypto_hmac_sha2_set_sw_key
                0x0000000000103d4c                crypto_hmac_sha2_share_secure_key
                0x0000000000103dc0                crypto_hmac_sha2_init
                0x0000000000103e80                crypto_hmac_sha2_update
                0x0000000000103e8c                crypto_hmac_sha2_final
 .hal.rom.text  0x0000000000103e98       0xa8 /home/eric_gao/repo/repoe/amebagreen2_gcc_project/build/project_km4ns/asdk/make_rom/fwlib_com/lib_rom_fwlib_com_km4ns.a(ameba_crypto.o)
                0x0000000000103e98                CRYPTO_Init
                0x0000000000103ee0                CRYPTO_Addr_Not_Alined_Warning
                0x0000000000103f10                CRYPTO_Length_Not_Alined_Warning
 .hal.rom.text  0x0000000000103f40     0x10f8 /home/eric_gao/repo/repoe/amebagreen2_gcc_project/build/project_km4ns/asdk/make_rom/fwlib_com/lib_rom_fwlib_com_km4ns.a(ameba_pke_ecc.o)
                0x0000000000103f40                pke_ecp_group_init_in_rom
                0x00000000001042f4                pke_ecp_set_mmem_curve_parameter
                0x000000000010437c                pke_ecp_set_tmem_curve_parameter
                0x000000000010440c                pke_ecp_point_init
                0x0000000000104424                pke_ecp_point_init_base_point
                0x0000000000104450                pke_ecp_mul
                0x00000000001045cc                pke_ecdsa_lalu_hash_process
                0x0000000000104634                pke_ecdsa_set_key
                0x0000000000104694                pke_ecdsa_genkey
                0x000000000010476c                pke_ecdsa_write_signature
                0x00000000001048a4                pke_ecdsa_read_signature
                0x00000000001049f4                pke_eddsa_genkey
                0x0000000000104ab0                pke_eddsa_write_signature_R
                0x0000000000104b74                pke_eddsa_write_signature_S
                0x0000000000104c3c                pke_eddsa_read_signature
                0x0000000000104d60                pke_eddsa_ed25519_get_r_value
                0x0000000000104df8                pke_eddsa_ed25519_get_k_value
                0x0000000000104ea8                pke_eddsa_ed25519_genkey
                0x0000000000104f1c                pke_eddsa_ed25519_write_signature
                0x0000000000104ffc                pke_eddsa_ed25519_read_signature
 .hal.rom.text  0x0000000000105038      0x13c /home/eric_gao/repo/repoe/amebagreen2_gcc_project/build/project_km4ns/asdk/make_rom/fwlib_com/lib_rom_fwlib_com_km4ns.a(ameba_pke_rsa.o)
                0x0000000000105038                pke_rsa_witness
                0x00000000001050d4                pke_rsa_exp_mod
 .hal.rom.text  0x0000000000105174      0x2c0 /home/eric_gao/repo/repoe/amebagreen2_gcc_project/build/project_km4ns/asdk/make_rom/fwlib_com/lib_rom_fwlib_com_km4ns.a(ameba_pke_common.o)
                0x0000000000105174                pke_get_pke_addr
                0x0000000000105194                pke_lock_mutex
                0x000000000010521c                pke_unlock_mutex
                0x000000000010522c                pke_engine_init
                0x0000000000105264                pke_engine_check_status
                0x0000000000105300                pke_engine_write
                0x0000000000105328                pke_function_set_entry
                0x0000000000105350                pke_read_string
                0x000000000010540c                pke_reverse_array
 .hal.rom.text  0x0000000000105434       0x1c /home/eric_gao/repo/repoe/amebagreen2_gcc_project/build/project_km4ns/asdk/make_rom/fwlib_com/lib_rom_fwlib_com_km4ns.a(ameba_assert_rom.o)
                0x0000000000105434                io_assert_failed
 .hal.rom.text  0x0000000000105450      0x8d4 /home/eric_gao/repo/repoe/amebagreen2_gcc_project/build/project_km4ns/asdk/make_rom/fwlib_com/lib_rom_fwlib_com_km4ns.a(ameba_flash_rom.o)
                0x0000000000105450                FLASH_UserMode_Enter
                0x0000000000105470                FLASH_UserMode_Exit
                0x000000000010548c                FLASH_Config
                0x0000000000105520                FLASH_SetSpiMode
                0x00000000001055fc                FLASH_RxCmd_InUserMode
                0x000000000010563c                FLASH_RxCmd
                0x0000000000105652                FLASH_WaitBusy_InUserMode
                0x00000000001056c4                FLASH_RxBasic_InUserMode
                0x00000000001057c8                FLASH_RxData
                0x00000000001057f4                FLASH_TxBasic_InUserMode
                0x00000000001058d4                FLASH_TxCmd_InUserMode
                0x00000000001058fc                FLASH_WriteEn_InUserMode
                0x0000000000105920                FLASH_TxBasic
                0x000000000010595c                FLASH_TxData
                0x00000000001059bc                FLASH_SetStatus
                0x00000000001059e4                FLASH_Erase
                0x0000000000105a60                FLASH_Addr4ByteEn
                0x0000000000105a82                FLASH_Addr4ByteDis
                0x0000000000105aa4                FLASH_DeepPowerDown
                0x0000000000105afc                FLASH_SetStatusBits
                0x0000000000105ba4                FLASH_RxBasic
                0x0000000000105bf0                FLASH_StructInit
                0x0000000000105c38                FLASH_StructInit_Micron
                0x0000000000105c5c                FLASH_StructInit_MXIC
                0x0000000000105c74                FLASH_StructInit_GD
                0x0000000000105c80                FLASH_Init
                0x0000000000105ca0                FLASH_Wait_Boot_Finish
                0x0000000000105cc4                FLASH_DeepSleep_PDEX
 .hal.rom.text  0x0000000000105d24      0x854 /home/eric_gao/repo/repoe/amebagreen2_gcc_project/build/project_km4ns/asdk/make_rom/fwlib_com/lib_rom_fwlib_com_km4ns.a(ameba_otp_rom.o)
                0x0000000000105e48                OTP_Read8_Rom
                0x0000000000105e4c                OTP_ProgramMarginRead8
                0x0000000000105e50                _OTP_Write8
                0x0000000000105eec                OTP_Write8_Rom
                0x0000000000105fc4                OTPGetCRC
                0x0000000000105fe0                OTP_Read8
                0x0000000000106024                OTP_Read32
                0x00000000001060a0                otp_logical_remain
                0x00000000001060ba                OTPSetCRC
                0x00000000001061c8                OTP_LogicalMap_Read
                0x00000000001062c8                OTP_Write8
                0x0000000000106414                OTP_LogicalMap_Write
 .hal.rom.text  0x0000000000106578      0x3ac /home/eric_gao/repo/repoe/amebagreen2_gcc_project/build/project_km4ns/asdk/make_rom/fwlib_com/lib_rom_fwlib_com_km4ns.a(ameba_shell_rom.o)
                0x00000000001065d4                shell_array_init
                0x00000000001065e2                shell_get_argc
                0x000000000010660e                shell_get_argv
                0x00000000001066d0                shell_cmd_chk
                0x00000000001067bc                shell_uart_irq_rom
                0x000000000010686c                shell_init_rom
                0x00000000001068dc                shell_task_rom
                0x0000000000106904                shell_rom
 .hal.rom.text  0x0000000000106924      0x2a0 /home/eric_gao/repo/repoe/amebagreen2_gcc_project/build/project_km4ns/asdk/make_rom/fwlib_com/lib_rom_fwlib_com_km4ns.a(ameba_tim_rom.o)
                0x0000000000106924                RTIM_TimeBaseStructInit
                0x000000000010693c                RTIM_Cmd
                0x0000000000106960                RTIM_GetCount
                0x0000000000106964                RTIM_INTConfig
                0x0000000000106998                RTIM_INTClear
                0x00000000001069ae                RTIM_TimeBaseInit
                0x0000000000106ad4                RTIM_DeInit
                0x0000000000106af4                RTIM_INTClearPendingBit
                0x0000000000106b2c                RTIM_GetFlagStatus
                0x0000000000106b74                RTIM_GetINTStatus
 .hal.rom.text  0x0000000000106bc4       0x9c /home/eric_gao/repo/repoe/amebagreen2_gcc_project/build/project_km4ns/asdk/make_rom/fwlib_com/lib_rom_fwlib_com_km4ns.a(ameba_backup_reg.o)
                0x0000000000106bc4                BKUP_Write
                0x0000000000106be8                BKUP_Read
                0x0000000000106c0c                BKUP_Set
                0x0000000000106c34                BKUP_Clear
 .hal.rom.text  0x0000000000106c60      0x4cc /home/eric_gao/repo/repoe/amebagreen2_gcc_project/build/project_km4ns/asdk/make_rom/fwlib_com/lib_rom_fwlib_com_km4ns.a(ameba_gpio_rom.o)
                0x0000000000106c98                GPIO_INTMode
                0x0000000000106d18                GPIO_INTConfig
                0x0000000000106d5c                GPIO_DeInit
                0x0000000000106dac                GPIO_ReadDataBit
                0x0000000000106de4                GPIO_PortDirection
                0x0000000000106e2c                GPIO_PortRead
                0x0000000000106e68                GPIO_PortWrite
                0x0000000000106eac                GPIO_DebounceClock
                0x0000000000106f00                GPIO_LevelSync
                0x0000000000106f40                GPIO_INTStatusGet
                0x0000000000106f4a                GPIO_INTStatusClearEdge
                0x0000000000106f56                GPIO_SetDWWrapper
                0x0000000000106f7c                GPIO_GetDWWrapper
                0x0000000000106f8c                GPIO_Direction
                0x0000000000106ff4                GPIO_Init
                0x0000000000107080                GPIO_ODWriteBit
                0x0000000000107094                GPIO_WriteBit
                0x00000000001070fc                GPIO_ODInit
 .hal.rom.text  0x000000000010712c      0x3dc /home/eric_gao/repo/repoe/amebagreen2_gcc_project/build/project_km4ns/asdk/make_rom/fwlib_com/lib_rom_fwlib_com_km4ns.a(ameba_pinmux_rom.o)
                0x000000000010712c                PAD_DrvStrength
                0x000000000010714c                PAD_SchmitCtrl
                0x000000000010716c                PAD_SlewRateCtrl
                0x000000000010718c                PAD_PullCtrl
                0x000000000010727c                PAD_SleepPullCtrl
                0x000000000010736c                PAD_ResistorCtrl
                0x000000000010738c                PAD_InputCtrl
                0x00000000001073ac                PAD_CMD
                0x00000000001073cc                PAD_SpicCtrl
                0x0000000000107424                Pinmux_Config
                0x00000000001074aa                Pinmux_ConfigGet
                0x00000000001074b8                Pinmux_UartLogCtrl
                0x00000000001074e4                Pinmux_BootSpicCtrl
                0x00000000001074e8                Pinmux_ComboSpicCtrl
                0x00000000001074f2                Pinmux_Swdoff
 .hal.rom.text  0x0000000000107508       0xcc /home/eric_gao/repo/repoe/amebagreen2_gcc_project/build/project_km4ns/asdk/make_rom/fwlib_com/lib_rom_fwlib_com_km4ns.a(ameba_rcc_rom.o)
                0x0000000000107508                RCC_PeriphClockCmd
 .hal.rom.text  0x00000000001075d4      0x930 /home/eric_gao/repo/repoe/amebagreen2_gcc_project/build/project_km4ns/asdk/make_rom/fwlib_com/lib_rom_fwlib_com_km4ns.a(ameba_spinand_rom.o)
                0x00000000001075d4                SPIC_Config
                0x00000000001076a8                NAND_SetSpiMode
                0x0000000000107738                NAND_RxCmd
                0x00000000001077f4                NAND_GetStatus
                0x0000000000107820                NAND_WaitBusy
                0x00000000001078a0                FLASH_UserModeEn
                0x00000000001078c4                NAND_UserModeEn
                0x00000000001078c8                NAND_RxData
                0x00000000001079b4                NAND_Page_Read_FromCache
                0x00000000001079c0                NAND_TxCmd
                0x0000000000107a68                NAND_WriteEn
                0x0000000000107a90                NAND_TxData
                0x0000000000107b8c                NAND_Page_Write_Data_Xfer
                0x0000000000107bac                NAND_SetStatus
                0x0000000000107bdc                NAND_Erase
                0x0000000000107c1c                NAND_Page_Read_ArrayToCache
                0x0000000000107c50                NAND_Page_Read
                0x0000000000107c74                NAND_CheckBadBlock
                0x0000000000107cc4                NAND_Page_Write_Program_Execute
                0x0000000000107d00                NAND_Page_Write
                0x0000000000107d3c                NAND_SetStatusBits
                0x0000000000107d64                NAND_GetPageSize
                0x0000000000107e0c                NAND_StructInit
                0x0000000000107e60                NAND_StructInit_Micron
                0x0000000000107e76                NAND_StructInit_MXIC
                0x0000000000107e84                NAND_StructInit_GD
                0x0000000000107e94                NAND_Reset
                0x0000000000107ee4                NAND_Init
 .hal.rom.text  0x0000000000107f04      0x270 /home/eric_gao/repo/repoe/amebagreen2_gcc_project/build/project_km4ns/asdk/make_rom/fwlib_com/lib_rom_fwlib_com_km4ns.a(ameba_trng.o)
                0x0000000000107f04                TRNG_Random_Delay
                0x0000000000107f74                TRNG_Security_Only
                0x0000000000107fa8                TRNG_INTConfig
                0x0000000000107fd4                TRNG_ClearINT
                0x0000000000107ffc                TRNG_GetINT
                0x0000000000108020                TRNG_Init
                0x0000000000108038                TRNG_GetFIFOLevel
                0x000000000010805c                _rand
                0x00000000001080a0                __wrap_rand
                0x00000000001080a4                TRNG_get_random_bytes
                0x000000000010816c                TRNG_get_random_bytes_f_rng
 .hal.rom.text  0x0000000000108174      0x134 /home/eric_gao/repo/repoe/amebagreen2_gcc_project/build/project_km4ns/asdk/make_rom/fwlib_com/lib_rom_fwlib_com_km4ns.a(ameba_chipinfo_rom.o)
                0x0000000000108174                EFUSE_GetChipVersion
                0x0000000000108194                EFUSE_GetBDNum
                0x00000000001081b4                EFUSE_GetESFlag
                0x00000000001081d4                EFUSE_GetUUID
                0x000000000010821c                EFUSE_Get_Info
                0x000000000010828c                EFUSE_GetChipInfo
 .hal.rom.text  0x00000000001082a8      0x8ec /home/eric_gao/repo/repoe/amebagreen2_gcc_project/build/project_km4ns/asdk/make_rom/fwlib_com/lib_rom_fwlib_com_km4ns.a(ameba_loguart_rom.o)
                0x00000000001082a8                LOGUART_StructInit
                0x00000000001082d8                LOGUART_SetBaud
                0x0000000000108380                LOGUART_RxCmd
                0x0000000000108392                LOGUART_INTCoreConfig
                0x00000000001083a2                LOGUART_INT_NP2AP
                0x00000000001083c0                LOGUART_INT_AP2NP
                0x00000000001083dc                LOGUART_AGGCmd
                0x00000000001083ee                LOGUART_AGGPathCmd
                0x0000000000108458                LOGUART_AGGSetTimeOut
                0x0000000000108474                LOGUART_AGGSetThreshold
                0x0000000000108498                LOGUART_AGGSetSyncPattern
                0x00000000001084a6                LOGUART_AGGPathAllCmd
                0x00000000001084c4                LOGUART_WaitTx
                0x00000000001084fc                LOGUART_PutChar
                0x000000000010853c                LOGUART_GetChar
                0x0000000000108550                LOGUART_PutStr
                0x00000000001085a8                LOGUART_Writable
                0x00000000001085d4                LOGUART_Readable
                0x00000000001085e4                LOGUART_GetRxCount
                0x00000000001085f0                LOGUART_GetIMR
                0x00000000001085fc                LOGUART_SetIMR
                0x0000000000108608                LOGUART_INTConfig
                0x0000000000108646                LOGUART_INTClear
                0x000000000010864e                LOGUART_GetStatus
                0x0000000000108652                LOGUART_ClearRxFifo
                0x000000000010866e                _LOGUART_Init
                0x00000000001087c8                LOGUART_Init
                0x0000000000108828                LOGUART_WaitBusy
                0x0000000000108860                LOGUART_WaitTxComplete
                0x000000000010888c                LOGUART_BT_SendData
                0x00000000001088d0                LOGUART_Relay_StructInit
                0x00000000001088e2                LOGUART_Relay_SetFormat
                0x0000000000108928                LOGUART_Relay_SetBaud
                0x000000000010897c                LOGUART_Relay_ClearRxFifo
                0x000000000010899e                LOGUART_Relay_RxCmd
                0x00000000001089b0                LOGUART_MonitorParaConfig
                0x00000000001089ec                LOGUART_LPBaudSet
                0x0000000000108a90                LOGUART_Relay_LPSetBaud
                0x0000000000108aec                LOGUART_RxMonitorCmd
                0x0000000000108afe                LOGUART_RxMonBaudCtrlRegGet
                0x0000000000108b02                LOGUART_RxMonitorSatusGet
                0x0000000000108b06                LOGUART_DiagInit
 .hal.rom.text  0x0000000000108b94      0x1e4 /home/eric_gao/repo/repoe/amebagreen2_gcc_project/build/project_km4ns/asdk/make_rom/fwlib_com/lib_rom_fwlib_com_km4ns.a(ameba_sdio_rom.o)
                0x0000000000108b94                SDIO_StructInit
                0x0000000000108bb0                SDIO_Init
                0x0000000000108c5c                SDIO_INTClear
                0x0000000000108c62                SDIO_INTClearAll
                0x0000000000108c6e                SDIO_INTConfig
                0x0000000000108c8a                SDIO_INTStatus
                0x0000000000108c92                SDIO_RPWM1_Get
                0x0000000000108c9a                SDIO_RPWM2_Get
                0x0000000000108ca2                SDIO_CPWM1_Set
                0x0000000000108cc4                SDIO_CPWM2_Set
                0x0000000000108cec                SDIO_H2C_MSG_Get
                0x0000000000108cf2                SDIO_H2C_MSG_EXT_Get
                0x0000000000108cf8                SDIO_C2H_MSG_Set
                0x0000000000108d06                SDIO_C2H_MSG_EXT_Set
                0x0000000000108d0c                SDIO_Tx_AGG_Set
                0x0000000000108d24                SDIO_RXBD_RPTR_Get
                0x0000000000108d2c                SDIO_RXBD_WPTR_Set
                0x0000000000108d32                SDIO_TXBD_WPTR_Get
                0x0000000000108d3a                SDIO_TXBD_RPTR_Set
                0x0000000000108d40                SDIO_TXBD_RPTR_Get
                0x0000000000108d48                SDIO_DMA_Reset
                0x0000000000108d50                SDIO_DMA_CTRL_Get
                0x0000000000108d56                SDIO_SetReady
                0x0000000000108d6e                SDIO_RxReq
 .hal.rom.text  0x0000000000108d78      0x388 /home/eric_gao/repo/repoe/amebagreen2_gcc_project/build/project_km4ns/asdk/make_rom/fwlib_com/lib_rom_fwlib_com_km4ns.a(ameba_syscfg_rom.o)
                0x0000000000108d78                SYSCFG_TRP_UARTImage
                0x0000000000108d88                SYSCFG_TRP_ICFG
                0x0000000000108da0                SYSCFG_TRP_TestMode
                0x0000000000108db0                SYSCFG_TRP_OTPBYP
                0x0000000000108dc0                SYSCFG_TRP_Boot_Int
                0x0000000000108dd0                SYSCFG_TRP_Boot_Nor
                0x0000000000108de0                SYSCFG_CHIPType_Get
                0x0000000000108df0                SYSCFG_RLVersion
                0x0000000000108e14                SYSCFG_GetRLNum
                0x0000000000108e38                SYSCFG_OTP_BOOTSEL
                0x0000000000108e46                SYSCFG_OTP_BTFUNC
                0x0000000000108e54                SYSCFG_OTP_SDIO_PINMUX
                0x0000000000108e62                SYSCFG_OTP_BootMCMFlash
                0x0000000000108e92                SYSCFG_OTP_FlashDSleepEn
                0x0000000000108ea0                SYSCFG_OTP_SPICAddr4ByteEn
                0x0000000000108eae                SYSCFG_OTP_SPICBootSpeedUpDis
                0x0000000000108ebc                SYSCFG_OTP_BootFlashBaud
                0x0000000000108eca                SYSCFG_OTP_BigPageNand
                0x0000000000108ed8                SYSCFG_OTP_BOOT_CNT_LMT_EN
                0x0000000000108ee6                SYSCFG_OTP_BootFromNor
                0x0000000000108f10                SYSCFG_OTP_DisBootLog
                0x0000000000108f1e                SYSCFG_OTP_LowBaudLog
                0x0000000000108f2c                SYSCFG_OTP_SBootEn
                0x0000000000108f4a                SYSCFG_OTP_RDPEn
                0x0000000000108f68                SYSCFG_OTP_RSIPEn
                0x0000000000108f86                SYSCFG_OTP_UsbDownloadEn
                0x0000000000108f92                SYSCFG_OTP_RandDelayEn
                0x0000000000108fa4                SYSCFG_OTP_AntiRollback
                0x0000000000108fb6                SYSCFG_OTP_FaultLogDis
                0x0000000000108fc8                SYSCFG_OTP_RSIPMode
                0x0000000000108fe0                SYSCFG_OTP_HUKDerivEn
                0x0000000000108ff2                SYSCFG_OTP_PKID2
                0x0000000000109004                SYSCFG_HWTrigDownload
                0x0000000000109034                SYSCFG_SWTrigDownload
                0x000000000010905c                SYSCFG_OTP_AuthAlg
                0x000000000010906a                SYSCFG_OTP_HashAlg
                0x0000000000109076                SYSCFG_OTP_OTAAddr
                0x0000000000109082                SYSCFG_OTP_BootVer
                0x00000000001090b8                SYSCFG_OTP_RMAMode
                0x00000000001090e8                SYSCFG_OTP_RomPatchEn
 .hal.rom.text  0x0000000000109100      0x3e4 /home/eric_gao/repo/repoe/amebagreen2_gcc_project/build/project_km4ns/asdk/make_rom/fwlib_com/lib_rom_fwlib_com_km4ns.a(ameba_uart_rom.o)
                0x0000000000109100                UART_DeInit
                0x0000000000109106                UART_StructInit
                0x0000000000109122                UART_BaudParaGetFull
                0x0000000000109158                UART_BaudParaGet
                0x0000000000109178                UART_SetBaud
                0x0000000000109220                UART_SetBaudExt
                0x00000000001092ac                UART_SetRxLevel
                0x00000000001092bc                UART_RxCmd
                0x00000000001092ce                UART_Writable
                0x00000000001092d6                UART_Readable
                0x00000000001092de                UART_CharPut
                0x00000000001092e2                UART_CharGet
                0x00000000001092e8                UART_ReceiveData
                0x000000000010930c                UART_SendData
                0x0000000000109330                UART_ReceiveDataTO
                0x000000000010936c                UART_SendDataTO
                0x00000000001093a8                UART_RxByteCntClear
                0x00000000001093b2                UART_RxByteCntGet
                0x00000000001093b8                UART_BreakCtl
                0x00000000001093cc                UART_ClearRxFifo
                0x00000000001093e8                UART_ClearTxFifo
                0x00000000001093f2                UART_Init
                0x00000000001094a0                UART_INTConfig
                0x00000000001094ae                UART_INT_Clear
                0x00000000001094b6                UART_IntStatus
                0x00000000001094ba                UART_ModemStatusGet
                0x00000000001094be                UART_LineStatusGet
                0x00000000001094c2                UART_WaitBusy
 .hal.rom.text  0x00000000001094e4       0x48 /home/eric_gao/repo/repoe/amebagreen2_gcc_project/build/project_km4ns/asdk/make_rom/fwlib_com/lib_rom_fwlib_com_km4ns.a(ameba_clk_rom.o)
                0x00000000001094e4                XTAL_ClkGet
                0x00000000001094ec                XTAL_Check_READY
 .hal.rom.text  0x000000000010952c      0x16c /home/eric_gao/repo/repoe/amebagreen2_gcc_project/build/project_km4ns/asdk/make_rom/fwlib_com/lib_rom_fwlib_com_km4ns.a(ameba_monitor_rom.o)
                0x000000000010968c                cmd_rom_table
 .hal.rom.text  0x0000000000109698       0x98 /home/eric_gao/repo/repoe/amebagreen2_gcc_project/build/project_km4ns/asdk/make_rom/fwlib_com/lib_rom_fwlib_com_km4ns.a(ameba_sema_rom.o)
                0x0000000000109698                IPC_SEMAInit
                0x00000000001096b8                IPC_SEMTake
                0x0000000000109700                IPC_SEMFree
                0x0000000000109724                IPC_SEMDelayStub
 .hal.rom.text  0x0000000000109730       0xac /home/eric_gao/repo/repoe/amebagreen2_gcc_project/build/project_km4ns/asdk/make_rom/fwlib_com/lib_rom_fwlib_com_km4ns.a(ameba_systimer_rom.o)
                0x0000000000109730                SYSTIMER_Init
                0x000000000010977c                SYSTIMER_TickGet
                0x000000000010978c                SYSTIMER_GetPassTick
                0x00000000001097ac                SYSTIMER_GetPassTime
 .hal.rom.text  0x00000000001097dc      0x168 /home/eric_gao/repo/repoe/amebagreen2_gcc_project/build/project_km4ns/asdk/make_rom/fwlib_com/lib_rom_fwlib_com_km4ns.a(ameba_wdg.o)
                0x00000000001097dc                WDG_Wait_Busy
                0x00000000001097fc                WDG_StructInit
                0x000000000010980c                WDG_Init
                0x000000000010984c                WDG_Enable
                0x0000000000109890                WDG_Timeout
                0x00000000001098c0                WDG_Refresh
                0x00000000001098d0                WDG_INTConfig
                0x00000000001098f8                WDG_ClearINT
                0x0000000000109916                IWDG_LP_Enable
 .hal.rom.text  0x0000000000109944      0x934 /home/eric_gao/repo/repoe/amebagreen2_gcc_project/build/project_km4ns/asdk/make_rom/stdlib/lib_rom_stdlib_km4ns.a(diag.o)
                0x0000000000109c84                DiagFVSNprintf
                0x000000000010a03e                DiagFVSNprintfNano
                0x000000000010a1b6                DiagVSNprintf
                0x000000000010a1d0                DiagVSprintf
                0x000000000010a1dc                DiagVprintf
                0x000000000010a1e8                DiagPrintf
                0x000000000010a202                DiagVSNprintfNano
                0x000000000010a21c                DiagVprintfNano
                0x000000000010a228                DiagPrintfNano
                0x000000000010a242                DiagSPrintf
                0x000000000010a25c                DiagSnPrintf
 .hal.rom.text  0x000000000010a278      0x3f8 /home/eric_gao/repo/repoe/amebagreen2_gcc_project/build/project_km4ns/asdk/make_rom/stdlib/lib_rom_stdlib_km4ns.a(log.o)
                0x000000000010a278                rtk_log_array_clear
                0x000000000010a294                rtk_log_level_get
                0x000000000010a2e4                rtk_log_isprint
                0x000000000010a2f4                rtk_log_write
                0x000000000010a334                rtk_log_write_nano
                0x000000000010a374                rtk_log_array_print
                0x000000000010a41c                rtk_log_level_set
                0x000000000010a490                rtk_log_memory_dump_word
                0x000000000010a510                rtk_log_memory_dump_byte
                0x000000000010a588                rtk_log_memory_dump2char
 .hal.rom.text  0x000000000010a670      0x110 /home/eric_gao/repo/repoe/amebagreen2_gcc_project/build/project_km4ns/asdk/make_rom/crashdump/lib_rom_crashdump_km4ns.a(ameba_dump_stack.o)
                0x000000000010a670                crash_GetExStackContent
                0x000000000010a75c                crash_GetExStackDepth
                0x000000000010a768                crash_SetExStackDepth
 .hal.rom.text  0x000000000010a780      0x770 /home/eric_gao/repo/repoe/amebagreen2_gcc_project/build/project_km4ns/asdk/make_rom/crashdump/lib_rom_crashdump_km4ns.a(ameba_v8m_crashdump.o)
                0x000000000010a780                crash_Diagnosis
                0x000000000010aab8                crash_GetExStack
                0x000000000010ab00                crash_GetFaultInfo
                0x000000000010ab70                crash_GetGeneralReg
                0x000000000010abcc                crash_GetSysStatus
                0x000000000010ae30                crash_GetExReason
                0x000000000010ae84                crash_Main

.share.rodata   0x000000000010c000     0x2388
                0x000000000010c000                __drom_common_start__ = .
 *ameba_vector_rom.o(*.rom.rodata*)
 .rom.rodata.str1.1
                0x000000000010c000       0xf4 /home/eric_gao/repo/repoe/amebagreen2_gcc_project/build/project_km4ns/asdk/make_rom/fwlib/lib_rom_fwlib_km4ns.a(ameba_vector_rom.o)
 *ameba_crypto_aes.o(*.rom.rodata*)
 .com.rom.rodata.str1.1
                0x000000000010c0f4       0x8d /home/eric_gao/repo/repoe/amebagreen2_gcc_project/build/project_km4ns/asdk/make_rom/fwlib_com/lib_rom_fwlib_com_km4ns.a(ameba_crypto_aes.o)
 *fill*         0x000000000010c181        0x1 
 .com.rom.rodata
                0x000000000010c182       0x95 /home/eric_gao/repo/repoe/amebagreen2_gcc_project/build/project_km4ns/asdk/make_rom/fwlib_com/lib_rom_fwlib_com_km4ns.a(ameba_crypto_aes.o)
 *ameba_crypto_sha.o(*.rom.rodata*)
 .com.rom.rodata.str1.1
                0x000000000010c217       0x65 /home/eric_gao/repo/repoe/amebagreen2_gcc_project/build/project_km4ns/asdk/make_rom/fwlib_com/lib_rom_fwlib_com_km4ns.a(ameba_crypto_sha.o)
 .com.rom.rodata
                0x000000000010c27c        0x7 /home/eric_gao/repo/repoe/amebagreen2_gcc_project/build/project_km4ns/asdk/make_rom/fwlib_com/lib_rom_fwlib_com_km4ns.a(ameba_crypto_sha.o)
 *ameba_crypto.o(*.rom.rodata*)
 .com.rom.rodata.str1.1
                0x000000000010c283      0x17e /home/eric_gao/repo/repoe/amebagreen2_gcc_project/build/project_km4ns/asdk/make_rom/fwlib_com/lib_rom_fwlib_com_km4ns.a(ameba_crypto.o)
 *ameba_pke_ecc.o(*.rom.rodata*)
 .com.rom.rodata.str1.1
                0x000000000010c401       0x64 /home/eric_gao/repo/repoe/amebagreen2_gcc_project/build/project_km4ns/asdk/make_rom/fwlib_com/lib_rom_fwlib_com_km4ns.a(ameba_pke_ecc.o)
 .com.rom.rodata
                0x000000000010c465      0x8fc /home/eric_gao/repo/repoe/amebagreen2_gcc_project/build/project_km4ns/asdk/make_rom/fwlib_com/lib_rom_fwlib_com_km4ns.a(ameba_pke_ecc.o)
 *ameba_pke_rsa.o(*.rom.rodata*)
 *ameba_pke_common.o(*.rom.rodata*)
 .com.rom.rodata.str1.1
                0x000000000010cd61       0xd7 /home/eric_gao/repo/repoe/amebagreen2_gcc_project/build/project_km4ns/asdk/make_rom/fwlib_com/lib_rom_fwlib_com_km4ns.a(ameba_pke_common.o)
 *(.libc.rom.rodata*)
 *(.com.rom.rodata*)
 .com.rom.rodata.str1.1
                0x000000000010ce38       0x3c /home/eric_gao/repo/repoe/amebagreen2_gcc_project/build/project_km4ns/asdk/make_rom/fwlib_com/lib_rom_fwlib_com_km4ns.a(ameba_assert_rom.o)
 .com.rom.rodata.str1.1
                0x000000000010ce74       0x5e /home/eric_gao/repo/repoe/amebagreen2_gcc_project/build/project_km4ns/asdk/make_rom/fwlib_com/lib_rom_fwlib_com_km4ns.a(ameba_flash_rom.o)
 *fill*         0x000000000010ced2        0x2 
 .com.rom.rodata.hal
                0x000000000010ced4        0x8 /home/eric_gao/repo/repoe/amebagreen2_gcc_project/build/project_km4ns/asdk/make_rom/fwlib_com/lib_rom_fwlib_com_km4ns.a(ameba_flash_rom.o)
                0x000000000010ced4                SPIC_CALIB_PATTERN
 .com.rom.rodata.str1.1
                0x000000000010cedc      0x1d7 /home/eric_gao/repo/repoe/amebagreen2_gcc_project/build/project_km4ns/asdk/make_rom/fwlib_com/lib_rom_fwlib_com_km4ns.a(ameba_otp_rom.o)
 .com.rom.rodata.str1.1
                0x000000000010d0b3       0x2d /home/eric_gao/repo/repoe/amebagreen2_gcc_project/build/project_km4ns/asdk/make_rom/fwlib_com/lib_rom_fwlib_com_km4ns.a(ameba_shell_rom.o)
 .com.rom.rodata.str1.1
                0x000000000010d0e0       0x3a /home/eric_gao/repo/repoe/amebagreen2_gcc_project/build/project_km4ns/asdk/make_rom/fwlib_com/lib_rom_fwlib_com_km4ns.a(ameba_tim_rom.o)
 .com.rom.rodata.str1.1
                0x000000000010d11a       0x3d /home/eric_gao/repo/repoe/amebagreen2_gcc_project/build/project_km4ns/asdk/make_rom/fwlib_com/lib_rom_fwlib_com_km4ns.a(ameba_backup_reg.o)
 .com.rom.rodata.str1.1
                0x000000000010d157       0x3b /home/eric_gao/repo/repoe/amebagreen2_gcc_project/build/project_km4ns/asdk/make_rom/fwlib_com/lib_rom_fwlib_com_km4ns.a(ameba_gpio_rom.o)
 *fill*         0x000000000010d192        0x2 
 .com.rom.rodata.hal
                0x000000000010d194       0x18 /home/eric_gao/repo/repoe/amebagreen2_gcc_project/build/project_km4ns/asdk/make_rom/fwlib_com/lib_rom_fwlib_com_km4ns.a(ameba_gpio_rom.o)
                0x000000000010d194                GPIO_PORTx_S
                0x000000000010d1a0                GPIO_PORTx
 .com.rom.rodata.str1.1
                0x000000000010d1ac       0x3f /home/eric_gao/repo/repoe/amebagreen2_gcc_project/build/project_km4ns/asdk/make_rom/fwlib_com/lib_rom_fwlib_com_km4ns.a(ameba_spinand_rom.o)
 .com.rom.rodata.str1.1
                0x000000000010d1eb       0x3e /home/eric_gao/repo/repoe/amebagreen2_gcc_project/build/project_km4ns/asdk/make_rom/fwlib_com/lib_rom_fwlib_com_km4ns.a(ameba_loguart_rom.o)
 *fill*         0x000000000010d229        0x3 
 .com.rom.rodata.hal
                0x000000000010d22c       0x28 /home/eric_gao/repo/repoe/amebagreen2_gcc_project/build/project_km4ns/asdk/make_rom/fwlib_com/lib_rom_fwlib_com_km4ns.a(ameba_loguart_rom.o)
 .com.rom.rodata.str1.1
                0x000000000010d254       0x3b /home/eric_gao/repo/repoe/amebagreen2_gcc_project/build/project_km4ns/asdk/make_rom/fwlib_com/lib_rom_fwlib_com_km4ns.a(ameba_uart_rom.o)
 .com.rom.rodata.str1.1
                0x000000000010d28f        0xf /home/eric_gao/repo/repoe/amebagreen2_gcc_project/build/project_km4ns/asdk/make_rom/fwlib_com/lib_rom_fwlib_com_km4ns.a(ameba_clk_rom.o)
 .com.rom.rodata
                0x000000000010d29e       0x11 /home/eric_gao/repo/repoe/amebagreen2_gcc_project/build/project_km4ns/asdk/make_rom/fwlib_com/lib_rom_fwlib_com_km4ns.a(ameba_clk_rom.o)
 .com.rom.rodata.str1.1
                0x000000000010d2af      0x163 /home/eric_gao/repo/repoe/amebagreen2_gcc_project/build/project_km4ns/asdk/make_rom/fwlib_com/lib_rom_fwlib_com_km4ns.a(ameba_monitor_rom.o)
 .com.rom.rodata.str1.1
                0x000000000010d412       0x3b /home/eric_gao/repo/repoe/amebagreen2_gcc_project/build/project_km4ns/asdk/make_rom/fwlib_com/lib_rom_fwlib_com_km4ns.a(ameba_sema_rom.o)
 .com.rom.rodata.str1.1
                0x000000000010d44d       0x36 /home/eric_gao/repo/repoe/amebagreen2_gcc_project/build/project_km4ns/asdk/make_rom/fwlib_com/lib_rom_fwlib_com_km4ns.a(ameba_wdg.o)
 .com.rom.rodata.str1.1
                0x000000000010d483       0x8f /home/eric_gao/repo/repoe/amebagreen2_gcc_project/build/project_km4ns/asdk/make_rom/stdlib/lib_rom_stdlib_km4ns.a(log.o)
 .com.rom.rodata.hal
                0x000000000010d512      0x101 /home/eric_gao/repo/repoe/amebagreen2_gcc_project/build/project_km4ns/asdk/make_rom/stdlib/lib_rom_stdlib_km4ns.a(log.o)
                0x000000000010d512                _ctype_
 .com.rom.rodata.str1.1
                0x000000000010d613       0x7c /home/eric_gao/repo/repoe/amebagreen2_gcc_project/build/project_km4ns/asdk/make_rom/crashdump/lib_rom_crashdump_km4ns.a(ameba_dump_stack.o)
 .com.rom.rodata.str1.1
                0x000000000010d68f      0xbc2 /home/eric_gao/repo/repoe/amebagreen2_gcc_project/build/project_km4ns/asdk/make_rom/crashdump/lib_rom_crashdump_km4ns.a(ameba_v8m_crashdump.o)
 *fill*         0x000000000010e251        0x3 
 .com.rom.rodata.hal
                0x000000000010e254      0x104 /home/eric_gao/repo/repoe/amebagreen2_gcc_project/build/project_km4ns/asdk/make_rom/crashdump/lib_rom_crashdump_km4ns.a(ameba_v8m_crashdump.o)
                0x000000000010e254                crash_reg_name
                0x000000000010e298                crash_print_info
                0x000000000010e358                __drom_common_end__ = .
 *(.hal.rom.rodata*)
                0x000000000010e358                __drom_bank_start__ = .
 *(.hal.rom.bank.rodata*)
 .hal.rom.bank.rodata
                0x000000000010e358       0x30 /home/eric_gao/repo/repoe/amebagreen2_gcc_project/build/project_km4ns/asdk/make_rom/fwlib_com/lib_rom_fwlib_com_km4ns.a(ameba_monitor_rom.o)
 *(.rom.rodata*)

.wifi.rom       0x0000000000114000    0x2cbbc
                0x0000000000114000                AA__wifi_share_rom_start__ = .
 *(.wifi.rom.text*)
 .wifi.rom.text
                0x0000000000114000      0x614 /home/eric_gao/repo/repoe/amebagreen2_gcc_project/build/project_km4ns/asdk/make_rom/wifi_driver/lib_rom_wifi_driver_km4ns.a(rom_sha1.o)
                0x00000000001142bc                rt_sha1_init
                0x000000000011430c                rt_sha1_update
                0x0000000000114374                rt_sha1_finish
                0x0000000000114384                rt_hmac_sha1
 .wifi.rom.text
                0x0000000000114614      0xa7c /home/eric_gao/repo/repoe/amebagreen2_gcc_project/build/project_km4ns/asdk/make_rom/wifi_driver/lib_rom_wifi_driver_km4ns.a(rom_md5.o)
                0x0000000000114de0                rt_md5_init
                0x0000000000114e0c                rt_md5_append
                0x0000000000114e98                rt_md5_final
                0x0000000000114ef4                rt_md5_hmac
 .wifi.rom.text
                0x0000000000115090     0x2670 /home/eric_gao/repo/repoe/amebagreen2_gcc_project/build/project_km4ns/asdk/make_rom/wifi_driver/lib_rom_wifi_driver_km4ns.a(rom_aes.o)
                0x00000000001150c8                aes_set_key
                0x0000000000115498                aes_encrypt
                0x0000000000116320                aes_decrypt
                0x0000000000117210                AES_WRAP
                0x00000000001173c4                AES_UnWRAP
                0x000000000011750c                wifi_rom_omac1_aes_128_vector
 .wifi.rom.text
                0x0000000000117700      0x66c /home/eric_gao/repo/repoe/amebagreen2_gcc_project/build/project_km4ns/asdk/make_rom/wifi_driver/lib_rom_wifi_driver_km4ns.a(rom_rtw_sha256.o)
                0x000000000011786c                wifi_rom_sha256_vector
                0x0000000000117a7c                wifi_rom_hmac_sha256_vector
                0x0000000000117b84                wifi_rom_hmac_sha256_kdf
                0x0000000000117c5c                wifi_rom_sha256_prf_bits
                0x0000000000117d5c                wifi_rom_sha256_prf
 .wifi.rom.text
                0x0000000000117d6c       0x28 /home/eric_gao/repo/repoe/amebagreen2_gcc_project/build/project_km4ns/asdk/make_rom/wifi_driver/lib_rom_wifi_driver_km4ns.a(rom_rtw_dh_groups.o)
                0x0000000000117d6c                dh_groups_get
 .wifi.rom.text
                0x0000000000117d94      0x10c /home/eric_gao/repo/repoe/amebagreen2_gcc_project/build/project_km4ns/asdk/make_rom/wifi_driver/lib_rom_wifi_driver_km4ns.a(rom_arc4.o)
                0x0000000000117d94                crc32_get
                0x0000000000117dc4                arc4_byte
                0x0000000000117df0                rt_arc4_init
                0x0000000000117e50                rt_arc4_crypt
 .wifi.rom.text
                0x0000000000117ea0      0x414 /home/eric_gao/repo/repoe/amebagreen2_gcc_project/build/project_km4ns/asdk/make_rom/wifi_driver/lib_rom_wifi_driver_km4ns.a(rom_rc4.o)
                0x0000000000117ea0                RC4
                0x00000000001181d0                RC4_set_key
 .wifi.rom.text
                0x00000000001182b4     0x27d4 /home/eric_gao/repo/repoe/amebagreen2_gcc_project/build/project_km4ns/asdk/make_rom/wifi_driver/lib_rom_wifi_driver_km4ns.a(rom_rtw_mbedtls_bignum.o)
                0x00000000001182b4                wifi_rom_mpi_init
                0x00000000001182c0                wifi_rom_mpi_free
                0x00000000001182f0                wifi_rom_mpi_grow
                0x0000000000118344                wifi_rom_mpi_shrink
                0x00000000001183cc                wifi_rom_mpi_copy
                0x0000000000118448                wifi_rom_mpi_safe_cond_assign
                0x00000000001184cc                wifi_rom_mpi_lset
                0x0000000000118540                wifi_rom_mpi_get_bit
                0x0000000000118560                wifi_rom_mpi_set_bit
                0x00000000001185b0                wifi_rom_mpi_lsb
                0x00000000001185f4                wifi_rom_mpi_bitlen
                0x0000000000118650                wifi_rom_mpi_size
                0x000000000011865c                wifi_rom_mpi_read_binary
                0x00000000001186f8                wifi_rom_mpi_write_binary
                0x0000000000118784                wifi_rom_mpi_shift_l
                0x0000000000118848                wifi_rom_mpi_shift_r
                0x00000000001188fc                wifi_rom_mpi_cmp_abs
                0x000000000011898c                wifi_rom_mpi_cmp_mpi
                0x0000000000118a38                wifi_rom_mpi_cmp_int
                0x0000000000118a68                wifi_rom_mpi_add_abs
                0x0000000000118b40                wifi_rom_mpi_sub_abs
                0x0000000000118c3c                wifi_rom_mpi_add_mpi
                0x0000000000118c8c                wifi_rom_mpi_sub_mpi
                0x0000000000118cdc                wifi_rom_mpi_add_int
                0x0000000000118d4c                wifi_rom_mpi_sub_int
                0x0000000000118dbc                wifi_rom_mpi_mul_hlp
                0x0000000000119730                wifi_rom_mpi_mul_mpi
                0x0000000000119868                wifi_rom_mpi_mul_int
                0x0000000000119884                wifi_rom_mpi_div_mpi
                0x0000000000119d94                wifi_rom_mpi_mod_mpi
                0x0000000000119e24                wifi_rom_mpi_exp_mod
                0x000000000011a378                wifi_rom_mpi_gcd
                0x000000000011a5e4                wifi_rom_mpi_fill_random
                0x000000000011a67c                wifi_rom_mpi_inv_mod
 .wifi.rom.text
                0x000000000011aa88     0x1cec /home/eric_gao/repo/repoe/amebagreen2_gcc_project/build/project_km4ns/asdk/make_rom/wifi_driver/lib_rom_wifi_driver_km4ns.a(rom_rtw_mbedtls_ecp.o)
                0x000000000011b5e0                wifi_rom_ecp_point_init
                0x000000000011b5fc                wifi_rom_ecp_group_init
                0x000000000011b650                wifi_rom_ecp_point_free
                0x000000000011b670                wifi_rom_ecp_group_free
                0x000000000011b708                wifi_rom_ecp_copy
                0x000000000011b738                wifi_rom_ecp_set_zero
                0x000000000011bddc                wifi_rom_ecp_is_zero
                0x000000000011bdf0                wifi_rom_ecp_point_cmp
                0x000000000011be24                wifi_rom_ecp_point_write_binary
                0x000000000011bec8                wifi_rom_ecp_point_read_binary
                0x000000000011bf5c                wifi_rom_ecp_mul_restartable
                0x000000000011c428                wifi_rom_ecp_mul
                0x000000000011c444                wifi_rom_ecp_muladd_restartable
                0x000000000011c4dc                wifi_rom_ecp_muladd
                0x000000000011c4f8                wifi_rom_ecp_check_pubkey
                0x000000000011c530                wifi_rom_ecp_check_privkey
                0x000000000011c570                wifi_rom_mpi_add_mod
                0x000000000011c5ac                wifi_rom_mpi_mul_mod
                0x000000000011c5cc                wifi_rom_mpi_sub_int_mod
                0x000000000011c60c                wifi_rom_ecp_sw_rhs
                0x000000000011c6d4                wifi_rom_ecp_sw_derive_y
 .wifi.rom.text
                0x000000000011c774      0xdac /home/eric_gao/repo/repoe/amebagreen2_gcc_project/build/project_km4ns/asdk/make_rom/wifi_driver/lib_rom_wifi_driver_km4ns.a(rom_rtw_mbedtls_ecp_curves.o)
                0x000000000011d3c4                wifi_rom_ecp_group_load
 .wifi.rom.text
                0x000000000011d520       0x10 /home/eric_gao/repo/repoe/amebagreen2_gcc_project/build/project_km4ns/asdk/make_rom/wifi_driver/lib_rom_wifi_driver_km4ns.a(rom_rtw_mbedtls_platform.o)
                0x000000000011d520                wifi_rom_platform_zeroize
 .wifi.rom.text
                0x000000000011d530        0x0 /home/eric_gao/repo/repoe/amebagreen2_gcc_project/build/project_km4ns/asdk/make_rom/wifi_driver/lib_rom_wifi_driver_km4ns.a(rom_rtw_mbedtls_func_map.o)
 .wifi.rom.text
                0x000000000011d530     0x1760 /home/eric_gao/repo/repoe/amebagreen2_gcc_project/build/project_km4ns/asdk/make_rom/wifi_driver/lib_rom_wifi_driver_km4ns.a(rom_rtw_security.o)
                0x000000000011d650                wep_80211_encrypt
                0x000000000011d6b8                wep_80211_decrypt
                0x000000000011d74c                tkip_micappendbyte
                0x000000000011d7a8                rtw_secmicsetkey
                0x000000000011d7f4                rtw_secmicappend
                0x000000000011d858                rtw_secgetmic
                0x000000000011d910                rtw_seccalctkipmic
                0x000000000011d9e4                tkip_phase1
                0x000000000011db3c                tkip_phase2
                0x000000000011dd08                tkip_80211_encrypt
                0x000000000011dd90                tkip_80211_decrypt
                0x000000000011de44                aes1_encrypt
                0x000000000011e138                aesccmp_construct_mic_iv
                0x000000000011e19c                aesccmp_construct_mic_header1
                0x000000000011e208                aesccmp_construct_mic_header2
                0x000000000011e2a4                aesccmp_construct_ctr_preload
                0x000000000011e334                aes_80211_encrypt
                0x000000000011e770                aes_80211_decrypt
 .wifi.rom.text
                0x000000000011ec90      0xd90 /home/eric_gao/repo/repoe/amebagreen2_gcc_project/build/project_km4ns/asdk/make_rom/wifi_driver/lib_rom_wifi_driver_km4ns.a(rom_wpa_lite_psk.o)
                0x000000000011ed34                strtopsk
                0x000000000011edf4                rom_psk_PasswordHash
                0x000000000011ee30                rom_psk_CalcGTK
                0x000000000011eeec                rom_psk_CalcPTK
                0x000000000011f024                _ntohs_rom
                0x000000000011f02c                wifi_rom_message_replaycounter_oc2li
                0x000000000011f048                wifi_rom_message_equalreplaycounter
                0x000000000011f07c                wifi_rom_message_smallerequalreplaycounter
                0x000000000011f0b8                wifi_rom_message_smallerreplaycounter
                0x000000000011f0f4                wifi_rom_message_setreplaycounter
                0x000000000011f110                wifi_rom_inc_largeinteger
                0x000000000011f12c                wifi_rom_inc_octet16_integer
                0x000000000011f19c                wifi_rom_inc_octet32_integer
                0x000000000011f208                wifi_rom_set_eapolkeyiv
                0x000000000011f29c                wifi_rom_check_mic
                0x000000000011f398                wifi_rom_calc_mic
                0x000000000011f430                wifi_rom_decrypt_WPA2keydata
                0x000000000011f55c                wifi_rom_decrypt_GTK
                0x000000000011f634                wifi_rom_client_constructEAPOL_2Of4Way
                0x000000000011f744                wifi_rom_client_constructEAPOL_4Of4Way
                0x000000000011f804                wifi_rom_client_constructEAPOL_2Of2Way
                0x000000000011f8d8                wifi_rom_client_constructEAPOL_MICof2Way
                0x000000000011f9a8                wifi_rom_eapol_check_rsne_pmkid
 .wifi.rom.text
                0x000000000011fa20      0xcac /home/eric_gao/repo/repoe/amebagreen2_gcc_project/build/project_km4ns/asdk/make_rom/wifi_driver/lib_rom_wifi_driver_km4ns.a(rom_wpa_lite_part2.o)
                0x000000000011fb00                wifi_rom_enc_gtk
                0x000000000011fb5c                wifi_rom_gen_nonce
                0x000000000011fbf4                wifi_rom_wpa_key_mgmt_sae
                0x000000000011fc00                wifi_rom_wpa_key_mgmt_sha256
                0x000000000011fc0c                wifi_rom_wpa_key_mgmt_sha384
                0x000000000011fc14                wifi_rom_ap_constructEAPOL_1Of4Way
                0x000000000011fd50                wifi_rom_wpa_pmksa_append_pmkid
                0x000000000011fe3c                wifi_rom_check_append_pmkid
                0x000000000011feac                wifi_rom_wpa_parse_rsnxe
                0x000000000011ff00                wifi_rom_wpa_append_rsnxe
                0x000000000011ff2c                wifi_rom_check_append_rsnxe
                0x000000000011ff80                wifi_rom_set_playercounter
                0x000000000011ff88                wifi_rom_equal_playercounter
                0x000000000011ffa4                wifi_rom_fill_eapol_header
                0x000000000011fffc                wifi_rom_check_playercounter
                0x0000000000120020                wifi_rom_set_group_cipher
                0x0000000000120030                wifi_rom_parse_group_kde
                0x0000000000120164                wifi_rom_psk_ieee80211w_kde_add
                0x00000000001201c4                wifi_rom_ap_constructEAPOL_1Of2Way
                0x00000000001203ac                wifi_rom_ap_fill_keydata
                0x0000000000120488                wifi_rom_ap_constructEAPOL_3Of4Way
 .wifi.rom.text
                0x00000000001206cc     0x1198 /home/eric_gao/repo/repoe/amebagreen2_gcc_project/build/project_km4ns/asdk/make_rom/wifi_driver/lib_rom_wifi_driver_km4ns.a(rom_wpa_lite_sae.o)
                0x0000000000120ba0                wifi_rom_sae_octect_buf_alloc
                0x0000000000120be4                wifi_rom_sae_octect_buf_clear
                0x0000000000120c10                wifi_rom_sae_set_state
                0x0000000000120c84                wifi_rom_sae_get_rand_mask
                0x0000000000120e14                wifi_rom_sae_ecc_point_invert
                0x0000000000120e68                wifi_rom_sae_clear_data
                0x0000000000120e70                wifi_rom_sae_check_group
                0x0000000000120ee4                wifi_rom_sae_blind_select_group
                0x0000000000120f38                wifi_rom_sae_target_select_group
                0x0000000000120fac                wifi_rom_sae_derive_pt
                0x0000000000120fe8                wifi_rom_sae_prepare_commit
                0x000000000012119c                wifi_rom_sae_prepare_confirm
                0x00000000001212a0                wifi_rom_sae_del_event
                0x00000000001212cc                wifi_rom_sae_parse_peer_commit
                0x0000000000121604                wifi_rom_sae_process_peer_commit
                0x0000000000121668                wifi_rom_sae_check_peer_confirm
                0x0000000000121724                wifi_rom_sae_check_big_sync
                0x0000000000121730                wifi_rom_sae_generate_commit_element_ecc
                0x0000000000121790                wifi_rom_sae_generate_commit_element_ffc
                0x00000000001217e8                wifi_rom_is_duplicate_sae_auth
 .wifi.rom.text
                0x0000000000121864     0x1f10 /home/eric_gao/repo/repoe/amebagreen2_gcc_project/build/project_km4ns/asdk/make_rom/wifi_driver/lib_rom_wifi_driver_km4ns.a(rom_wpa_lite_sae_crypto.o)
                0x0000000000121a70                wifi_rom_dump_bignum
                0x0000000000121b14                wifi_rom_dump_octect_string
                0x0000000000121b98                wifi_rom_ecc_point_read_bignum
                0x0000000000121c20                wifi_rom_ecc_point_write_bignum
                0x0000000000121cb8                wifi_rom_dump_ecc_point
                0x0000000000121d38                wifi_rom_ecc_point_read_binary
                0x0000000000121da8                wifi_rom_ecc_point_write_binary
                0x0000000000121ddc                wifi_rom_ecc_point_add_point
                0x0000000000121e28                wifi_rom_bignum_add_mod
                0x0000000000121e4c                wifi_rom_bignum_mul_mod
                0x00000000001224f4                wifi_rom_sae_memcmp
                0x000000000012251c                wifi_rom_sae_buf_shift_right
                0x0000000000122554                wifi_rom_sae_crypto_ecc_init
                0x000000000012260c                wifi_rom_sae_crypto_ecc_free
                0x0000000000122634                wifi_rom_sae_derive_pwe_ecc
                0x0000000000122e1c                wifi_rom_sae_derive_pwe_ffc
                0x0000000000122fe8                wifi_rom_sae_derive_pwe_from_pt
                0x0000000000123154                wifi_rom_sae_derive_k_ecc
                0x000000000012321c                wifi_rom_sae_derive_k_ffc
                0x00000000001232c8                wifi_rom_sae_derive_pmk_and_kck
                0x00000000001235a8                wifi_rom_sae_derive_pt_ecc
 .wifi.rom.text
                0x0000000000123774      0xacc /home/eric_gao/repo/repoe/amebagreen2_gcc_project/build/project_km4ns/asdk/make_rom/wifi_driver/lib_rom_wifi_driver_km4ns.a(rom_rtw_ieee80211.o)
                0x0000000000123774                rtw_get_bit_value_from_ieee_value
                0x0000000000123798                rtw_is_cckrates_included
                0x00000000001237d0                rtw_is_cckratesonly_included
                0x0000000000123810                rtw_check_wireless_mode
                0x00000000001238a4                rtw_set_fixed_ie
                0x00000000001238c4                rtw_set_ie
                0x00000000001238f0                rtw_get_ie
                0x000000000012392c                rtw_set_supported_rate
                0x0000000000123980                rtw_get_rateset_len
                0x0000000000123998                rtw_get_wpa_ie
                0x0000000000123a3c                rtw_get_wpa2_ie
                0x0000000000123a78                rtw_get_wpa_cipher_suite
                0x0000000000123ae0                rtw_get_wpa2_cipher_suite
                0x0000000000123b48                rtw_parse_wpa_ie
                0x0000000000123c08                rtw_parse_wpa2_ie
                0x0000000000123cc0                rtw_get_sec_ie
                0x0000000000123d70                rtw_get_wps_ie
                0x0000000000123df4                rtw_get_wps_attr
                0x0000000000123e84                rtw_get_wps_attr_content
                0x0000000000123ecc                rtw_ieee802_11_parse_elems
                0x0000000000124078                str_2char2num
                0x00000000001240f8                key_2char2num
                0x0000000000124168                convert_ip_addr
 .wifi.rom.text
                0x0000000000124240      0xafc /home/eric_gao/repo/repoe/amebagreen2_gcc_project/build/project_km4ns/asdk/make_rom/wifi_driver/lib_rom_wifi_driver_km4ns.a(rom_rtw_ieee80211_part2.o)
                0x0000000000124240                wifi_rom_channel_num2bitmap_index
                0x00000000001242ac                wifi_rom_channel_bitmap_index2num
                0x00000000001242d8                wifi_rom_channel_is_contained
                0x000000000012435c                wifi_rom_chset_is_chbw_valid
                0x0000000000124414                wifi_rom_get_band_type_by_channel_plan
                0x0000000000124448                wifi_rom_init_channel_set
                0x00000000001244c4                wifi_rom_update_wireless_mode
                0x000000000012453c                wifi_rom_is_ap_in_tkip
                0x00000000001245c4                wifi_rom_support_short_GI
                0x00000000001245d4                wifi_rom_fill_wlan_header
                0x0000000000124648                wifi_rom_get_wpa2_akmp_suite
                0x0000000000124728                wifi_rom_get_mgmt_group_cipher_suite
                0x0000000000124780                wifi_rom_parse_wpa_ie_akm
                0x0000000000124820                wifi_rom_parse_sec_ie_akm_mgc
                0x000000000012493c                wifi_rom_fill_frame_content
                0x0000000000124958                wifi_rom_set_ie_ram
                0x0000000000124998                wifi_rom_get_ie_ex
                0x0000000000124a18                wifi_rom_parse_rsnxe
                0x0000000000124a6c                wifi_rom_ht_mcsset_to_nss
                0x0000000000124a88                wifi_rom_append_rsnxe
                0x0000000000124ab4                wifi_rom_restruct_wmm_ie
                0x0000000000124b5c                wifi_rom_restruct_sec_ie
                0x0000000000124bec                wifi_rom_append_exented_cap
                0x0000000000124c60                wifi_rom_HT_caps_handler
                0x0000000000124cc4                wifi_rom_check_rsn_ie_pmkid
 .wifi.rom.text
                0x0000000000124d3c       0xc8 /home/eric_gao/repo/repoe/amebagreen2_gcc_project/build/project_km4ns/asdk/make_rom/wifi_driver/lib_rom_wifi_driver_km4ns.a(rom_rtw_probe.o)
                0x0000000000124d3c                wifi_rom_set_probersp_tim_ie
                0x0000000000124db4                wifi_rom_on_probereq
 .wifi.rom.text
                0x0000000000124e04       0x24 /home/eric_gao/repo/repoe/amebagreen2_gcc_project/build/project_km4ns/asdk/make_rom/wifi_driver/lib_rom_wifi_driver_km4ns.a(rom_rtw_auth.o)
                0x0000000000124e04                wifi_rom_set_beacon_timeout
 .wifi.rom.text
                0x0000000000124e28       0x78 /home/eric_gao/repo/repoe/amebagreen2_gcc_project/build/project_km4ns/asdk/make_rom/wifi_driver/lib_rom_wifi_driver_km4ns.a(rom_rtw_action.o)
                0x0000000000124e28                wifi_rom_para_set_for_addba
                0x0000000000124e60                wifi_rom_on_action_csa
 .wifi.rom.text
                0x0000000000124ea0      0x358 /home/eric_gao/repo/repoe/amebagreen2_gcc_project/build/project_km4ns/asdk/make_rom/wifi_driver/lib_rom_wifi_driver_km4ns.a(rom_rtw_psk.o)
                0x0000000000124ea0                wifi_rom_psk_strip_rsn_pairwise
                0x0000000000124f38                wifi_rom_psk_strip_wpa_pairwise
                0x0000000000124ff0                wifi_rom_psk_strip_pmkid
                0x000000000012505c                wifi_rom_psk_strip_rsn_akmp
 .wifi.rom.text
                0x00000000001251f8      0x238 /home/eric_gao/repo/repoe/amebagreen2_gcc_project/build/project_km4ns/asdk/make_rom/wifi_driver/lib_rom_wifi_driver_km4ns.a(rom_rtw_pmksa_cache.o)
                0x00000000001251f8                wifi_rom_pmksa_cache_encrypt_macaddr
                0x0000000000125344                wifi_rom_pmksa_append_pmkid
 .wifi.rom.text
                0x0000000000125430      0x1f0 /home/eric_gao/repo/repoe/amebagreen2_gcc_project/build/project_km4ns/asdk/make_rom/wifi_driver/lib_rom_wifi_driver_km4ns.a(rom_rtw_rf.o)
                0x0000000000125430                wifi_rom_get_op_chs_by_cch_bw
                0x00000000001254ac                wifi_rom_ch2freq
                0x00000000001254e0                wifi_rom_freq2ch
                0x000000000012555c                wifi_rom_chbw_to_freq_range
                0x00000000001255d8                wifi_rom_ch_to_bb_gain_sel
 .wifi.rom.text
                0x0000000000125620       0xd4 /home/eric_gao/repo/repoe/amebagreen2_gcc_project/build/project_km4ns/asdk/make_rom/wifi_driver/lib_rom_wifi_driver_km4ns.a(rom_rtw_recv.o)
                0x0000000000125620                wifi_rom_check_pn
                0x0000000000125668                wifi_rom_check_indicate_seq
                0x00000000001256b0                wifi_rom_get_wmmps_ac
 .wifi.rom.text
                0x00000000001256f4      0xb28 /home/eric_gao/repo/repoe/amebagreen2_gcc_project/build/project_km4ns/asdk/make_rom/wifi_driver/lib_rom_wifi_driver_km4ns.a(rom_rtw_beacon.o)
                0x00000000001256f4                wifi_rom_beacon_rate_check
                0x0000000000125760                wifi_rom_beacon_bw_check
                0x0000000000125784                wifi_rom_beacon_ssid_check
                0x0000000000125810                wifi_rom_beacon_encryption_check
                0x0000000000125918                wifi_rom_beacon_info_get
                0x0000000000125a38                wifi_rom_beacon_csa_info_get
                0x0000000000125a88                wifi_rom_ap_beacon_update_hidden_ssid
                0x0000000000125ae0                wifi_rom_ap_beacon_update_bcn_tim
                0x0000000000125c00                wifi_rom_ap_beacon_update_erpinfo_ie
                0x0000000000125c60                wifi_rom_ap_beacon_add_ie
                0x0000000000125d7c                wifi_rom_ap_beacon_remove_ie
                0x0000000000125e0c                wifi_rom_ap_beacon_gen_ie
 .wifi.rom.text
                0x000000000012621c      0xa94 /home/eric_gao/repo/repoe/amebagreen2_gcc_project/build/project_km4ns/asdk/make_rom/wifi_driver/lib_rom_wifi_driver_km4ns.a(rom_rtw_assoc.o)
                0x000000000012621c                wifi_rom_issue_assocreq_fill_cap
                0x00000000001263f4                wifi_rom_issue_assocreq_fill_vendor_ie
                0x0000000000126534                wifi_rom_issue_assocrsp_fill_cap
                0x0000000000126758                wifi_rom_on_assocreq_check
                0x0000000000126c28                wifi_rom_on_assocrsp_wmm
 .wifi.rom.text
                0x0000000000126cb0      0x1bc /home/eric_gao/repo/repoe/amebagreen2_gcc_project/build/project_km4ns/asdk/make_rom/wifi_driver/lib_rom_wifi_driver_km4ns.a(rom_rtw_vht.o)
                0x0000000000126cb0                wifi_rom_vht_get_highest_rate
                0x0000000000126d20                wifi_rom_vht_mcsmap_to_nss
                0x0000000000126d7c                wifi_rom_vht_nss_to_mcsmap
                0x0000000000126dc8                wifi_rom_vht_mcsmap_to_bitmap
 .wifi.rom.text
                0x0000000000126e6c      0x1d8 /home/eric_gao/repo/repoe/amebagreen2_gcc_project/build/project_km4ns/asdk/make_rom/wifi_driver/lib_rom_wifi_driver_km4ns.a(rom_rtw_he.o)
                0x0000000000126e6c                wifi_rom_he_get_muedca_param
                0x0000000000126ef8                wifi_rom_he_get_highest_rate
                0x0000000000126f50                wifi_rom_he_nss_to_mcsmap
                0x0000000000126fa0                wifi_rom_he_mcsmap_to_bitmap
 .wifi.rom.text
                0x0000000000127044      0x1fc /home/eric_gao/repo/repoe/amebagreen2_gcc_project/build/project_km4ns/asdk/make_rom/wifi_driver/lib_rom_wifi_driver_km4ns.a(rom_rtw_80211w.o)
                0x0000000000127044                wifi_rom_dot11w_construct_action_frame
                0x0000000000127108                wifi_rom_dot11w_BIP_verify
 .wifi.rom.text
                0x0000000000127240      0x1f0 /home/eric_gao/repo/repoe/amebagreen2_gcc_project/build/project_km4ns/asdk/make_rom/wifi_driver/lib_rom_wifi_driver_km4ns.a(rom_rtw_rate.o)
                0x0000000000127240                wifi_rom_cckrates_included
                0x0000000000127284                wifi_rom_cckratesonly_included
                0x00000000001272cc                wifi_rom_updateBratetbl
                0x0000000000127328                wifi_rom_updateBratetbl_softap
                0x0000000000127364                wifi_rom_rate2tbl_inx
                0x00000000001273fc                wifi_rom_update_mcs_rate
                0x0000000000127408                wifi_rom_get_highest_rateidx
 .wifi.rom.text
                0x0000000000127430      0x1a4 /home/eric_gao/repo/repoe/amebagreen2_gcc_project/build/project_km4ns/asdk/make_rom/wifi_driver/lib_rom_wifi_driver_km4ns.a(rom_rtw_chbw.o)
                0x0000000000127430                wifi_rom_get_center_ch
                0x00000000001274f0                wifi_rom_get_offset_by_chbw
                0x0000000000127594                wifi_rom_get_primary_ch
 .wifi.rom.text
                0x00000000001275d4        0x0 /home/eric_gao/repo/repoe/amebagreen2_gcc_project/build/project_km4ns/asdk/make_rom/wifi_driver/lib_rom_wifi_driver_km4ns.a(rom_rtw_11d.o)
 .wifi.rom.text
                0x00000000001275d4      0x418 /home/eric_gao/repo/repoe/amebagreen2_gcc_project/build/project_km4ns/asdk/make_rom/wifi_driver/lib_rom_wifi_driver_km4ns.a(rom_rtw_ht.o)
                0x00000000001275d4                rtw_ht_caps_handler
                0x000000000012761c                rtw_ht_info_handler
                0x0000000000127644                rtw_restructure_ht_ie
                0x0000000000127720                rtw_update_ht_cap
                0x00000000001277f8                rtw_ap_ht_operation_update
                0x00000000001278c4                rtw_uapsd_check_ap_support
                0x0000000000127930                rtw_uapsd_restruct_wmm_ie
 .wifi.rom.text
                0x00000000001279ec       0xb8 /home/eric_gao/repo/repoe/amebagreen2_gcc_project/build/project_km4ns/asdk/make_rom/wifi_driver/lib_rom_wifi_driver_km4ns.a(rom_rtw_network.o)
                0x00000000001279ec                rtw_network_update_for_scan
                0x0000000000127a3c                rtw_network_check_same
 .wifi.rom.text
                0x0000000000127aa4      0x2b8 /home/eric_gao/repo/repoe/amebagreen2_gcc_project/build/project_km4ns/asdk/make_rom/wifi_driver/lib_rom_wifi_driver_km4ns.a(rom_rtw_pmksa_cache_part2.o)
                0x0000000000127aa4                rtw_pmksa_cache_entry_free
                0x0000000000127ae0                rtw_pmksa_cache_entry_remove
                0x0000000000127b4c                rtw_pmksa_cache_entry_add
                0x0000000000127c6c                rtw_pmksa_cache_entry_search
                0x0000000000127c98                rtw_pmksa_cache_set_current_entry
                0x0000000000127ca0                rtw_pmksa_cache_get_current_entry
                0x0000000000127ca8                rtw_pmksa_cache_flush
                0x0000000000127d10                rtw_pmksa_cache_init
                0x0000000000127d38                rtw_pmksa_cache_deinit
 .wifi.rom.text
                0x0000000000127d5c      0x284 /home/eric_gao/repo/repoe/amebagreen2_gcc_project/build/project_km4ns/asdk/make_rom/wifi_driver/lib_rom_wifi_driver_km4ns.a(rom_rtw_11d_part2.o)
                0x0000000000127d5c                rtw_11d_get_chplan_from_country
                0x0000000000127e44                rtw_11d_restructure_country_ie
                0x0000000000127e80                rtw_11d_reset_info
                0x0000000000127ea8                rtw_11d_process_country_ie
                0x0000000000127f7c                rtw_11d_country_decision_default
 .wifi.rom.text
                0x0000000000127fe0      0x788 /home/eric_gao/repo/repoe/amebagreen2_gcc_project/build/project_km4ns/asdk/make_rom/wifi_driver/lib_rom_wifi_driver_km4ns.a(rom_rtw_he_part2.o)
                0x0000000000128080                HE_caps_handler
                0x0000000000128170                HE_operation_handler
                0x00000000001281a8                HE_mu_edca_handler
                0x00000000001281f0                HE_spatial_reuse_handler
                0x0000000000128204                HE_mac_caps_update_asoc_cap
                0x0000000000128300                HE_phy_caps_update_asoc_cap
                0x00000000001283b0                HE_supp_mcs_update_asoc_cap
                0x00000000001283b8                rtw_restructure_he_ie
                0x0000000000128600                rtw_he_fill_htc
                0x000000000012861c                HE_operation_update_asoc_cap
                0x00000000001286fc                HE_caps_update_asoc_cap
 .wifi.rom.text
                0x0000000000128768      0x698 /home/eric_gao/repo/repoe/amebagreen2_gcc_project/build/project_km4ns/asdk/make_rom/wifi_driver/lib_rom_wifi_driver_km4ns.a(rom_rtw_shortcut.o)
                0x0000000000128768                rtw_recv_get_rx_sc_index
                0x0000000000128798                rtw_recv_get_rx_sc_free_entry
                0x0000000000128804                rtw_recv_indicatepkt_sc
                0x000000000012891c                rtw_recv_check_rx_shortcut_path
                0x0000000000128ab4                rtw_get_tx_sc_index
                0x0000000000128adc                rtw_get_tx_sc_free_entry
                0x0000000000128b3c                rtw_xmit_entry_sc
                0x0000000000128d14                rtw_set_tx_sc_entry
 .wifi.rom.text
                0x0000000000128e00      0x310 /home/eric_gao/repo/repoe/amebagreen2_gcc_project/build/project_km4ns/asdk/make_rom/wifi_driver/lib_rom_wifi_driver_km4ns.a(rom_rtw_setkey.o)
                0x0000000000128e00                rtw_setkey_to_cam
                0x0000000000128f50                rtw_bss_set_key_for_wep
                0x0000000000129018                rtw_setkey_clear_stakey
                0x000000000012906c                rtw_setkey_set_stakey
                0x0000000000129104                rtw_setkey_remove_ptk
 .wifi.rom.text
                0x0000000000129110      0x918 /home/eric_gao/repo/repoe/amebagreen2_gcc_project/build/project_km4ns/asdk/make_rom/wifi_driver/lib_rom_wifi_driver_km4ns.a(rom_rtw_beacon_part2.o)
                0x0000000000129110                rtw_on_beacon_rate_check
                0x000000000012919c                rtw_on_beacon_bw_check
                0x000000000012924c                rtw_on_beacon_info_update
                0x0000000000129428                rtw_check_mode_info_change
                0x00000000001294bc                rtw_on_beacon_info_check
                0x0000000000129640                rtw_get_bcn_info
                0x00000000001296fc                rtw_ap_set_parameters_from_beacon
                0x0000000000129988                rtw_ap_update_beacon
 .wifi.rom.text
                0x0000000000129a28      0x1a0 /home/eric_gao/repo/repoe/amebagreen2_gcc_project/build/project_km4ns/asdk/make_rom/wifi_driver/lib_rom_wifi_driver_km4ns.a(rom_rtw_sitesurvey.o)
                0x0000000000129a28                _rtw_scan_start_scanpriv_init
                0x0000000000129b68                _rtw_scan_cmd_hdl_find_next_chan
 .wifi.rom.text
                0x0000000000129bc8      0x5a4 /home/eric_gao/repo/repoe/amebagreen2_gcc_project/build/project_km4ns/asdk/make_rom/wifi_driver/lib_rom_wifi_driver_km4ns.a(rom_rtw_sitesurvey_report.o)
                0x0000000000129bc8                rtw_scan_report_free_remaining_node
                0x0000000000129c38                rtw_scan_report_node_process
                0x0000000000129cd8                rtw_scan_report_node_sort_and_insert
                0x0000000000129d70                _rtw_scan_report_wps
                0x0000000000129e68                _rtw_scan_collect_bss_info_ieproc
                0x000000000012a044                _rtw_scan_check_security_and_rsnie
 .wifi.rom.text
                0x000000000012a16c      0x4c0 /home/eric_gao/repo/repoe/amebagreen2_gcc_project/build/project_km4ns/asdk/make_rom/wifi_driver/lib_rom_wifi_driver_km4ns.a(rom_rtw_ap_xmit.o)
                0x000000000012a2ec                rtw_ap_enqueue_for_sleeping_sta
                0x000000000012a304                rtw_ap_sleeping_q_free
                0x000000000012a348                rtw_ap_sleeping_q_to_pending_q
                0x000000000012a48c                rtw_ap_stop_sta_xmit
                0x000000000012a510                rtw_ap_wakeup_sta_to_xmit
 .wifi.rom.text
                0x000000000012a62c      0x57c /home/eric_gao/repo/repoe/amebagreen2_gcc_project/build/project_km4ns/asdk/make_rom/wifi_driver/lib_rom_wifi_driver_km4ns.a(rom_rtw_addba.o)
                0x000000000012a62c                rtw_on_addba_req
                0x000000000012a6e8                rtw_issue_action_ba
                0x000000000012a940                rtw_add_ba_hdl
                0x000000000012a9d0                rtw_send_delba
                0x000000000012aaac                rtw_addbareq_cmd
                0x000000000012ab00                rtw_issue_addbareq_cmd
                0x000000000012ab5c                rtw_addba_timer_hdl
 .wifi.rom.text
                0x000000000012aba8      0x398 /home/eric_gao/repo/repoe/amebagreen2_gcc_project/build/project_km4ns/asdk/make_rom/wifi_driver/lib_rom_wifi_driver_km4ns.a(rom_rtw_80211w_part2.o)
                0x000000000012aba8                rtw_dot11w_issue_action_sa_query
                0x000000000012ac58                rtw_dot11w_on_action_sa_query
                0x000000000012acfc                rtw_dot11w_BIP_verify
                0x000000000012ad34                rtw_dot11w_validate_mgmt
 .wifi.rom.text
                0x000000000012af40      0xb54 /home/eric_gao/repo/repoe/amebagreen2_gcc_project/build/project_km4ns/asdk/make_rom/wifi_driver/lib_rom_wifi_driver_km4ns.a(rom_rtw_auth_part2.o)
                0x000000000012af40                rtw_issue_deauth
                0x000000000012afe8                rtw_issue_auth
                0x000000000012b2b8                _rtw_ap_on_auth
                0x000000000012b6e8                _rtw_sta_on_auth
                0x000000000012b85c                _rtw_on_deauth_frameproc
 .wifi.rom.text
                0x000000000012ba94      0x154 /home/eric_gao/repo/repoe/amebagreen2_gcc_project/build/project_km4ns/asdk/make_rom/wifi_driver/lib_rom_wifi_driver_km4ns.a(rom_rtw_action_part2.o)
                0x000000000012ba94                rtw_addba_rsp_hdl
                0x000000000012bb18                rtw_addba_delba_hdl
 .wifi.rom.text
                0x000000000012bbe8      0xd7c /home/eric_gao/repo/repoe/amebagreen2_gcc_project/build/project_km4ns/asdk/make_rom/wifi_driver/lib_rom_wifi_driver_km4ns.a(rom_rtw_join.o)
                0x000000000012bbe8                _rtw_joinbss_set_uapsd_default_setting
                0x000000000012bc48                _rtw_joinbss_ie_restruct
                0x000000000012be08                _rtw_joinbss_cmd
                0x000000000012bfa0                rtw_joinbss_target_network_update
                0x000000000012c0e8                rtw_bss_get_password_for_wep
                0x000000000012c210                rtw_joinbss_set_chanmap
                0x000000000012c2a0                _rtw_leavebss_event_indicate
                0x000000000012c3a0                _rtw_joinbss_cmd_hdl_ieproc
                0x000000000012c468                _rtw_joinbss_timeout_proc
                0x000000000012c5b0                rtw_joinbss_in_target_network
                0x000000000012c684                _rtw_joinbss_start_proc
 .wifi.rom.text
                0x000000000012c964      0x3c0 /home/eric_gao/repo/repoe/amebagreen2_gcc_project/build/project_km4ns/asdk/make_rom/wifi_driver/lib_rom_wifi_driver_km4ns.a(rom_rtw_join_result.o)
                0x000000000012c964                rtw_joinbss_chk_done_concurrent_check_chan
                0x000000000012cb9c                rtw_joinbss_chk_done_concurrent_check_5g
 .wifi.rom.text
                0x000000000012cd24     0x12c0 /home/eric_gao/repo/repoe/amebagreen2_gcc_project/build/project_km4ns/asdk/make_rom/wifi_driver/lib_rom_wifi_driver_km4ns.a(rom_rtw_assoc_part2.o)
                0x000000000012cd24                _rtw_sta_issue_assocreq_validcheck
                0x000000000012cdd0                _rtw_sta_issue_assocreq_htproc
                0x000000000012cebc                _rtw_sta_issue_assocreq_frameproc
                0x000000000012d30c                _rtw_ap_issue_assocrsp
                0x000000000012d448                _rtw_sta_on_assocrsp_frameproc
                0x000000000012d75c                _rtw_ap_on_disassoc
                0x000000000012d844                _rtw_sta_on_disassoc
                0x000000000012d978                rtw_assoc_resources_free
                0x000000000012da54                rtw_sta_on_assocrsp_wmm
                0x000000000012dab0                _rtw_ap_on_assocreq_frameproc
                0x000000000012ddac                _rtw_ap_on_assocreq_getaid_and_setcam
                0x000000000012de38                _rtw_ap_on_assocreq_asoc_list
                0x000000000012ded0                _rtw_ap_on_assocreq_indicate_wpa
 .wifi.rom.text
                0x000000000012dfe4      0xdb8 /home/eric_gao/repo/repoe/amebagreen2_gcc_project/build/project_km4ns/asdk/make_rom/wifi_driver/lib_rom_wifi_driver_km4ns.a(rom_rtw_security_part2.o)
                0x000000000012dfe4                rtw_security_method_get_rsn_ie_for_11w
                0x000000000012e16c                rtw_security_method_set_from_ie_for_joinbss
                0x000000000012e334                rtw_security_method_get_from_ie_for_joinbss
                0x000000000012e6e4                rtw_security_method_set_from_usr_for_joinbss
                0x000000000012e90c                rtw_security_method_get_for_scan
                0x000000000012ead4                rtw_security_method_set_from_ie_for_ap
                0x000000000012eba4                rtw_security_method_set_from_usr_for_ap
 .wifi.rom.text
                0x000000000012ed9c      0x324 /home/eric_gao/repo/repoe/amebagreen2_gcc_project/build/project_km4ns/asdk/make_rom/wifi_driver/lib_rom_wifi_driver_km4ns.a(rom_rtw_vht_part2.o)
                0x000000000012ed9c                rtw_vht_use_default_setting
                0x000000000012ee00                rtw_process_vht_op_mode_notify
                0x000000000012ee8c                rtw_build_vht_op_mode_notify_ie
                0x000000000012eee4                rtw_build_vht_cap_ie
                0x000000000012f00c                rtw_restructure_vht_ie
 .wifi.rom.text
                0x000000000012f0c0     0x1234 /home/eric_gao/repo/repoe/amebagreen2_gcc_project/build/project_km4ns/asdk/make_rom/wifi_driver/lib_rom_wifi_driver_km4ns.a(rom_rtw_xmit.o)
                0x000000000012f0c0                rtw_xmit_priv_free
                0x000000000012f120                rtw_xmit_open_pktfile
                0x000000000012f134                rtw_xmit_read_pktfile
                0x000000000012f164                rtw_xmit_update_attrib_qos_acm
                0x000000000012f1c4                rtw_xmit_update_attrib_set_qos
                0x000000000012f278                rtw_xmit_pending_queue_check_all
                0x000000000012f294                rtw_xmit_pending_queue_check
                0x000000000012f29c                rtw_xmit_put_snap
                0x000000000012f2d0                rtw_xmitframe_alloc
                0x000000000012f354                rtw_xmitframe_free
                0x000000000012f3cc                rtw_xmit_priv_init
                0x000000000012f460                rtw_xmit_update_attrib_phy_info
                0x000000000012f51c                rtw_xmit_update_attrib_sec_info
                0x000000000012f648                rtw_xmit_enc_tkip_addmic
                0x000000000012f744                rtw_xmit_update_attrib_vcs_info
                0x000000000012f798                rtw_xmit_count_stats
                0x000000000012f818                rtw_xmit_mgntframe
                0x000000000012f8d4                rtw_xmit_nulldata
                0x000000000012f9a4                rtw_xmit_qos_nulldata
                0x000000000012fad0                rtw_xmit_cts2self
                0x000000000012fb74                rtw_xmit_enc_software
                0x000000000012fc74                rtw_xmit_make_wlanhdr
                0x000000000012ff18                rtw_xmit_update_attrib_raw
 .wifi.rom.text
                0x00000000001302f4      0xf38 /home/eric_gao/repo/repoe/amebagreen2_gcc_project/build/project_km4ns/asdk/make_rom/wifi_driver/lib_rom_wifi_driver_km4ns.a(rom_rtw_recv_part2.o)
                0x00000000001302f4                rtw_recv_init_priv
                0x00000000001303a0                rtw_recv_free_priv
                0x00000000001303d0                rtw_recv_get_recvframe_data
                0x00000000001303d8                rtw_recv_recvframe_pull_tail
                0x00000000001303f8                rtw_recv_recvframe_pull
                0x0000000000130418                rtw_recv_recvframe_put
                0x0000000000130438                rtw_recv_free_frame
                0x000000000013051c                rtw_recv_alloc_frame
                0x000000000013057c                rtw_recv_free_frame_queue
                0x00000000001305a0                rtw_recv_frame_chkmic
                0x000000000013069c                rtw_recv_frame_chkpn
                0x0000000000130718                rtw_recv_count_rx_stats
                0x0000000000130774                rtw_recv_sta2sta_data_frame
                0x00000000001308a8                rtw_recv_ap2sta_data_frame
                0x00000000001309fc                rtw_recv_sta2ap_data_frame
                0x0000000000130abc                rtw_recv_validate_ctrl_frame
                0x0000000000130b8c                rtw_recv_validate_data_frame
                0x0000000000130e18                rtw_recv_indicate_eapol
                0x0000000000130ebc                rtw_recv_decryptor
                0x000000000013103c                rtw_recv_validate_frame
                0x000000000013113c                rtw_recv_func_prehandle
                0x0000000000131168                rtw_recv_promisc
 .wifi.rom.text
                0x000000000013122c      0x2f0 /home/eric_gao/repo/repoe/amebagreen2_gcc_project/build/project_km4ns/asdk/make_rom/wifi_driver/lib_rom_wifi_driver_km4ns.a(rom_rtw_recv_reorder.o)
                0x000000000013122c                rtw_recv_reorder_dequeue
                0x00000000001312a4                rtw_recv_reorder
                0x000000000013137c                rtw_recv_reorder_timer_hdl
                0x0000000000131418                rtw_recv_reorder_alloc
                0x0000000000131480                rtw_recv_reorder_free
 .wifi.rom.text
                0x000000000013151c       0x90 /home/eric_gao/repo/repoe/amebagreen2_gcc_project/build/project_km4ns/asdk/make_rom/wifi_driver/lib_rom_wifi_driver_km4ns.a(rom_rtw_mgnt.o)
                0x000000000013151c                rtw_mgntframe_alloc
                0x0000000000131564                rtw_mgntframe_attrib_update
 .wifi.rom.text
                0x00000000001315ac      0x36c /home/eric_gao/repo/repoe/amebagreen2_gcc_project/build/project_km4ns/asdk/make_rom/wifi_driver/lib_rom_wifi_driver_km4ns.a(rom_rtw_recv_defrag.o)
                0x00000000001315ac                _rtw_defrag_timer_handler
                0x00000000001315f8                rtw_recv_free_defrag_queue
                0x0000000000131618                rtw_recv_frame_chk_frag_pn
                0x0000000000131698                rtw_recv_frame_defrag
                0x0000000000131738                rtw_recv_frame_chk_defrag
                0x00000000001318f0                init_defrag_queue_timer
 .wifi.rom.text
                0x0000000000131918      0x1cc /home/eric_gao/repo/repoe/amebagreen2_gcc_project/build/project_km4ns/asdk/make_rom/wifi_driver/lib_rom_wifi_driver_km4ns.a(rom_rtw_state.o)
                0x0000000000131918                rtw_state_set_ap_client_auth_ongoing
                0x0000000000131920                rtw_state_set_ap_client_auth_success
                0x0000000000131928                rtw_state_set_ap_client_assoc_success
                0x0000000000131930                rtw_state_reset_ap_client_state
                0x0000000000131938                rtw_state_check_ap_client_auth_ongoing
                0x0000000000131948                rtw_state_check_ap_client_auth_success
                0x0000000000131958                rtw_state_check_ap_client_assoc_success
                0x0000000000131968                rtw_check_sta_associated_to_ap
                0x0000000000131980                rtw_check_sta_linking
                0x00000000001319a0                rtw_state_set_join_prepare
                0x00000000001319b8                rtw_state_set_join_doing
                0x00000000001319d0                rtw_state_set_auth_doing
                0x00000000001319f0                rtw_state_set_assoc_doing
                0x0000000000131a10                rtw_state_set_assoc_success
                0x0000000000131a30                rtw_state_check_sta_no_link
                0x0000000000131a4c                rtw_state_check_sta_prepare_join
                0x0000000000131a64                rtw_state_check_sta_prepare_auth
                0x0000000000131a7c                rtw_state_check_sta_auth_doing
                0x0000000000131a94                rtw_state_check_sta_assoc_doing
                0x0000000000131aac                rtw_state_set_sitesurvey_doing
                0x0000000000131ac0                rtw_check_under_sitesurvey
                0x0000000000131ad0                rtw_state_reset
 .wifi.rom.text
                0x0000000000131ae4      0x2e0 /home/eric_gao/repo/repoe/amebagreen2_gcc_project/build/project_km4ns/asdk/make_rom/wifi_driver/lib_rom_wifi_driver_km4ns.a(rom_rtw_sta_mgt.o)
                0x0000000000131ae4                rtw_sta_reset_stats
                0x0000000000131afc                rtw_update_stainfo_ppe_g6
                0x0000000000131b6c                rtw_ap_update_asoc_cap_g6
                0x0000000000131bc0                rtw_sta_update_asoc_cap_g6
                0x0000000000131c34                rtw_update_sta_info
                0x0000000000131d78                rtw_sta_update_rateset
                0x0000000000131dac                rtw_ap_get_assoc_sta_num
 .wifi.rom.text
                0x0000000000131dc4      0xad0 /home/eric_gao/repo/repoe/amebagreen2_gcc_project/build/project_km4ns/asdk/make_rom/wifi_driver/lib_rom_wifi_driver_km4ns.a(rom_rtw_ap.o)
                0x0000000000131dc4                rtw_ap_init_mlme_info
                0x0000000000131e30                rtw_ap_update_bmc_sta
                0x0000000000131f2c                rtw_ap_associated_clients_update
                0x0000000000131f98                rtw_ap_sta_info_update
                0x0000000000132144                rtw_ap_bss_cap_update_on_sta_join
                0x0000000000132384                rtw_ap_bss_cap_update_on_sta_leave
                0x0000000000132538                rtw_ap_expire_timeout_chk
                0x0000000000132748                rtw_ap_deauth_and_free_sta
                0x0000000000132814                rtw_ap_deauth_asoc_list
 .wifi.rom.text
                0x0000000000132894      0x1a0 /home/eric_gao/repo/repoe/amebagreen2_gcc_project/build/project_km4ns/asdk/make_rom/wifi_driver/lib_rom_wifi_driver_km4ns.a(rom_rtw_skbuff.o)
                0x0000000000132894                get_buf_from_poll
                0x00000000001328bc                release_buf_to_poll
                0x00000000001328d8                init_skb_pool
                0x00000000001329c0                deinit_skb_pool
                0x00000000001329ec                skb_reserve
                0x00000000001329fc                skb_assign_buf
                0x0000000000132a08                skb_tail_pointer
                0x0000000000132a0c                skb_end_pointer
                0x0000000000132a10                skb_set_tail_pointer
                0x0000000000132a18                skb_push
 .wifi.rom.text
                0x0000000000132a34      0x260 /home/eric_gao/repo/repoe/amebagreen2_gcc_project/build/project_km4ns/asdk/make_rom/wifi_driver/lib_rom_wifi_driver_km4ns.a(rom_wifi_hal_ax.o)
                0x0000000000132a34                ROM_WIFI_AX_BSS_COLOR_SET
                0x0000000000132a68                ROM_WIFI_AX_SET_ULOFDMA_RESP_NOMINAL_PAD
                0x0000000000132aa4                ROM_WIFI_AX_MUEDCA_Para
                0x0000000000132ad4                ROM_WIFI_AX_MBSSID_Cfg
                0x0000000000132b3c                ROM_WIFI_AX_SpecialReuse_Cfg
                0x0000000000132c74                ROM_WIFI_AX_SET_MAC_AID
 .wifi.rom.text
                0x0000000000132c94       0xa4 /home/eric_gao/repo/repoe/amebagreen2_gcc_project/build/project_km4ns/asdk/make_rom/wifi_driver/lib_rom_wifi_driver_km4ns.a(rom_wifi_hal_bcn.o)
                0x0000000000132c94                ROM_WIFI_BCN_FUNC
                0x0000000000132cc0                ROM_WIFI_BCN_Tx_Ctrl
                0x0000000000132ccc                ROM_WIFI_BCN_Interval
                0x0000000000132d00                ROM_WIFI_BCN_FUNC_Enable
                0x0000000000132d14                ROM_WIFI_BCN_VALID
 .wifi.rom.text
                0x0000000000132d38      0x83c /home/eric_gao/repo/repoe/amebagreen2_gcc_project/build/project_km4ns/asdk/make_rom/wifi_driver/lib_rom_wifi_driver_km4ns.a(rom_wifi_hal_debug.o)
                0x0000000000132d38                rom_wifi_hal_dbg_mac_reg_dump
                0x0000000000132dc8                rom_wifi_hal_dbg_bb_reg_dump
                0x0000000000132f48                _rom_wifi_hal_get_rf_addr
                0x0000000000132f90                _rom_wifi_hal_write_rf_reg
                0x0000000000132fa4                rom_wifi_hal_dbg_rf_reg_dump
                0x0000000000133018                rom_wifi_hal_dbg_read_bb_reg
                0x0000000000133048                rom_wifi_hal_dbg_no_beacon
                0x0000000000133144                rom_wifi_hal_dbg_rx_cnt
                0x0000000000133398                rom_wifi_hal_dbg_tx_cnt
                0x00000000001334fc                rom_wifi_hal_dbg_rxff
                0x0000000000133538                rom_wifi_hal_dbg_txff
 .wifi.rom.text
                0x0000000000133574      0x5bc /home/eric_gao/repo/repoe/amebagreen2_gcc_project/build/project_km4ns/asdk/make_rom/wifi_driver/lib_rom_wifi_driver_km4ns.a(rom_wifi_hal_init.o)
                0x0000000000133574                ROM_WIFI_InitLLTTable
                0x00000000001335cc                ROM_WIFI_INIT_MACADDR_SET
                0x0000000000133608                ROM_WIFI_INIT_BeaconParameters
                0x0000000000133638                ROM_WIFI_INIT_ReadChipVersion
                0x000000000013364c                ROM_WIFI_Init_RESP_RATE
                0x0000000000133688                ROM_WIFI_InitTxBufferBoundary
                0x00000000001336b8                ROM_WIFI_InitNormalChipRegPriority
                0x0000000000133710                ROM_WIFI_InitPageBoundary
                0x000000000013371c                ROM_WIFI_InitNetworkType
                0x0000000000133754                ROM_WIFI_InitRCR
                0x0000000000133794                ROM_WIFI_InitAdaptiveCtrl
                0x00000000001337dc                ROM_WIFI_InitSIFS
                0x000000000013382c                ROM_WIFI_InitEDCA
                0x0000000000133844                ROM_WIFI_InitRateFallback
                0x000000000013385c                ROM_WIFI_InitRetryFunction
                0x0000000000133884                ROM_WIFI_InitBurstPktLen
                0x0000000000133890                ROM_WIFI_InitMacClk
                0x000000000013394c                ROM_WIFI_Init32kClk
                0x0000000000133968                ROM_WIFI_InitLxDma
                0x0000000000133a9c                ROM_WIFI_InitQueueReservedPage
                0x0000000000133ac8                ROM_WIFI_ENABLE_BB_RF
                0x0000000000133ae0                ROM_WIFI_DISABLE_MAC_CG
 .wifi.rom.text
                0x0000000000133b30      0x688 /home/eric_gao/repo/repoe/amebagreen2_gcc_project/build/project_km4ns/asdk/make_rom/wifi_driver/lib_rom_wifi_driver_km4ns.a(rom_wifi_hal_media_access.o)
                0x0000000000133b30                ROM_WIFI_DISCONNECT
                0x0000000000133b60                ROM_WIFI_BSSID_SET
                0x0000000000133b9c                ROM_WIFI_SetMSR
                0x0000000000133bc0                ROM_WIFI_ACM_CTRL
                0x0000000000133bf0                ROM_WIFI_PHY_STATUS_CFG
                0x0000000000133c0c                ROM_WIFI_SET_APMODE
                0x0000000000133d84                ROM_WIFI_UPDATE_Slottime
                0x0000000000133e04                ROM_WIFI_Set_TXOP_Thres
                0x0000000000133e78                ROM_WIFI_SET_CCA
                0x0000000000133e7c                ROM_WIFI_SET_EDCCA
                0x0000000000133e80                ROM_WIFI_Set_AC_Param
                0x0000000000133eb8                ROM_WIFI_Set_MLME_JOIN
                0x0000000000133ff0                ROM_WIFI_INIT_ADDR_CAM
                0x0000000000134028                ROM_WIFI_ADDR_CAM_ENTRY_VALID
                0x0000000000134058                ROM_WIFI_Set_MLME_Sitesurvey
                0x000000000013418c                ROM_WIFI_PORT_EN_CTRL
 .wifi.rom.text
                0x00000000001341b8      0x43c /home/eric_gao/repo/repoe/amebagreen2_gcc_project/build/project_km4ns/asdk/make_rom/wifi_driver/lib_rom_wifi_driver_km4ns.a(rom_wifi_hal_misc.o)
                0x00000000001341b8                ROM_WIFI_32K_Cmd
                0x0000000000134284                ROM_WIFI_TX_PAUSE_SET
                0x0000000000134308                ROM_WIFI_FIFO_CLEARN_UP
                0x00000000001343a0                ROM_WIFI_CHECK_TXBUF
                0x00000000001343fc                ROM_WIFI_CONFIG_CSI
                0x00000000001344b8                ROM_WIFI_IMR_UPDATE
                0x0000000000134524                ROM_WIFI_ICV_CHECK_CFG
                0x0000000000134544                ROM_WIFI_CTRL_PKT_RPT
                0x0000000000134564                ROM_WIFI_SET_MAX_AGG_NUM
                0x0000000000134580                ROM_WIFI_GET_MAX_AGG_NUM
                0x0000000000134590                ROM_WIFI_High_Queue_Empty_Check
                0x00000000001345a0                ROM_WIFI_GET_TXBUF_PKT_NUM
                0x00000000001345a4                ROM_WIFI_MAC_CCK_CHECK
                0x00000000001345c8                ROM_WIFI_RX_COND_SET
                0x00000000001345e4                ROM_WIFI_RX_COND_GET
 .wifi.rom.text
                0x00000000001345f4      0x330 /home/eric_gao/repo/repoe/amebagreen2_gcc_project/build/project_km4ns/asdk/make_rom/wifi_driver/lib_rom_wifi_driver_km4ns.a(rom_wifi_hal_rate.o)
                0x00000000001345f4                ROM_WIFI_BRate_Get
                0x00000000001347cc                ROM_WIFI_BRate_Set
                0x000000000013480c                ROM_WIFI_MRateToHwRate
                0x00000000001348dc                ROM_WIFI_HwRateToMRate
 .wifi.rom.text
                0x0000000000134924      0x1f0 /home/eric_gao/repo/repoe/amebagreen2_gcc_project/build/project_km4ns/asdk/make_rom/wifi_driver/lib_rom_wifi_driver_km4ns.a(rom_wifi_hal_secure.o)
                0x0000000000134924                ROM_WIFI_CAM_WRITE
                0x0000000000134998                ROM_WIFI_CAM_READ
                0x0000000000134a64                ROM_WIFI_SEC_CFG
                0x0000000000134a80                ROM_WIFI_CAM_WriteSppAmsduValid
                0x0000000000134a90                ROM_WIFI_CAM_Entry_Clear
                0x0000000000134ac8                ROM_WIFI_CAM_FLUSH_ALL
 .wifi.rom.text
                0x0000000000134b14      0x170 /home/eric_gao/repo/repoe/amebagreen2_gcc_project/build/project_km4ns/asdk/make_rom/wifi_driver/lib_rom_wifi_driver_km4ns.a(rom_wifi_hal_tsf.o)
                0x0000000000134b14                ROM_WIFI_TSF_SET
                0x0000000000134bb4                ROM_WIFI_TSF_TIMER0_SOURCE_CFG
                0x0000000000134bc8                ROM_WIFI_TSF_FREERUN_CFG
                0x0000000000134be8                ROM_WIFI_TSF_GetByPort
                0x0000000000134c34                ROM_WIFI_TSF_GetFreeRun
                0x0000000000134c44                ROM_WIFI_TSF_Sync
                0x0000000000134c70                ROM_WIFI_TSF_Sync_P1_From_P0
 .wifi.rom.text
                0x0000000000134c84      0x1f8 /home/eric_gao/repo/repoe/amebagreen2_gcc_project/build/project_km4ns/asdk/make_rom/wifi_driver/lib_rom_wifi_driver_km4ns.a(rom_wifi_hal_txdesc.o)
                0x0000000000134c84                ROM_WIFI_TXDESC_BWMapping
                0x0000000000134cac                ROM_WIFI_TXDESC_SCMapping
                0x0000000000134cf0                ROM_WIFI_TXDESC_FillSectype
                0x0000000000134d0c                ROM_WIFI_TXDESC_FillFake
                0x0000000000134df0                ROM_WIFI_TXDESC_Get_BufAddr
                0x0000000000134e08                ROM_WIFI_TXDESC_FillVCS
 .wifi.rom.text
                0x0000000000134e7c      0x190 /home/eric_gao/repo/repoe/amebagreen2_gcc_project/build/project_km4ns/asdk/make_rom/wifi_driver/lib_rom_wifi_driver_km4ns.a(rom_wifi_hal_rxdesc.o)
                0x0000000000134e7c                ROM_WIFI_HAL_RXDESC_Percentage2dbm
                0x0000000000134e80                ROM_WIFI_HAL_RXDESC_Power2strength
                0x0000000000134e9c                ROM_WIFI_HAL_RXDESC_ProcessSignal
                0x0000000000134ec4                wifi_hal_rxdesc_query
 .wifi.rom.text
                0x000000000013500c       0x40 /home/eric_gao/repo/repoe/amebagreen2_gcc_project/build/project_km4ns/asdk/make_rom/wifi_driver/lib_rom_wifi_driver_km4ns.a(rom_wifi_hal_io.o)
                0x000000000013500c                rtw_read8
                0x0000000000135014                rtw_read16
                0x0000000000135020                rtw_read32
                0x0000000000135028                rtw_write8
                0x0000000000135034                rtw_write16
                0x0000000000135040                rtw_write32
 .wifi.rom.text
                0x000000000013504c      0x3f4 /home/eric_gao/repo/repoe/amebagreen2_gcc_project/build/project_km4ns/asdk/make_rom/wifi_driver/lib_rom_wifi_driver_km4ns.a(rom_hal_debug.o)
                0x000000000013504c                _rom_wifi_hal_debug_dump
                0x00000000001351c8                rom_wifi_hal_dbg_regu
                0x00000000001352e8                rom_wifi_hal_dbg_os_static
                0x00000000001353b8                rom_wifi_hal_dbg_wpa_mode
                0x0000000000135414                rom_wifi_hal_dbg_read_mac_reg
 .wifi.rom.text
                0x0000000000135440      0xf90 /home/eric_gao/repo/repoe/amebagreen2_gcc_project/build/project_km4ns/asdk/make_rom/wifi_driver/lib_rom_wifi_driver_km4ns.a(rom_hal_xmit.o)
                0x0000000000135440                wifi_hal_hwqueue_get
                0x0000000000135454                wifi_hal_tx_ring_skb_enqueue
                0x000000000013546c                wifi_hal_tx_ring_skb_dequeue
                0x00000000001354b0                wifi_hal_pending_q_enqueue
                0x00000000001354f0                wifi_hal_pending_q_resume
                0x000000000013559c                wifi_hal_pending_queue_free
                0x00000000001355fc                wifi_hal_polling_tx_done
                0x000000000013565c                rtw_txframes_pending
                0x0000000000135678                wifi_hal_xmitframe_dump
                0x00000000001358c0                wifi_hal_raw_xmitframe_coalesce
                0x0000000000135954                rtw_mgnt_80211w_sw_encrypt
                0x00000000001359fc                wifi_hal_xmitframe_coalesce
                0x0000000000135d8c                wifi_hal_xmitframe_dump_sc_filldesc
 .wifi.rom.text
                0x00000000001363d0      0x4a8 /home/eric_gao/repo/repoe/amebagreen2_gcc_project/build/project_km4ns/asdk/make_rom/wifi_driver/lib_rom_wifi_driver_km4ns.a(rom_hal_xmit_g1.o)
                0x00000000001363d0                wifi_hal_tx_ring_init_queue
                0x0000000000136414                wifi_hal_tx_ring_init
                0x0000000000136450                wifi_hal_tx_ring_free
                0x00000000001364b8                wifi_hal_tx_ring_reset
                0x0000000000136548                wifi_hal_txbuf_check
                0x00000000001365a8                wifi_hal_txbd_enough_check
                0x00000000001365cc                wifi_hal_txbd_enough_check_all
                0x0000000000136620                wifi_hal_txbd_set
 .wifi.rom.text
                0x0000000000136878        0x0 /home/eric_gao/repo/repoe/amebagreen2_gcc_project/build/project_km4ns/asdk/make_rom/wifi_driver/lib_rom_wifi_driver_km4ns.a(rom_hal_structs.o)
 .wifi.rom.text
                0x0000000000136878      0x858 /home/eric_gao/repo/repoe/amebagreen2_gcc_project/build/project_km4ns/asdk/make_rom/wifi_driver/lib_rom_wifi_driver_km4ns.a(rom_hal_recv.o)
                0x0000000000136878                wifi_hal_clear_amsdu_priv
                0x000000000013689c                wifi_hal_rx_amsdu
                0x0000000000136e0c                wifi_hal_check_rxtg
                0x0000000000136e70                wifi_hal_check_rxdesc_remain
                0x0000000000136e9c                wifi_hal_rx_ring_init
                0x0000000000137038                wifi_hal_rx_ring_free
                0x000000000013706c                wifi_hal_rx_ring_reset
                0x000000000013707c                wifi_hal_rx_filter
 .wifi.rom.text
                0x00000000001370d0      0x708 /home/eric_gao/repo/repoe/amebagreen2_gcc_project/build/project_km4ns/asdk/make_rom/wifi_driver/lib_rom_wifi_driver_km4ns.a(rom_hal_h2c.o)
                0x00000000001370d0                wifi_hal_rsvpage_construct_mgnt
                0x000000000013717c                wifi_hal_rsvpage_construct_pspoll
                0x00000000001371c8                wifi_hal_rsvpage_construct_null
                0x00000000001372dc                wifi_hal_rsvpage_construct_arp_response
                0x0000000000137550                wifi_hal_rsvpage_construct_null_bt
                0x0000000000137638                wifi_hal_h2c_set_media_status
                0x0000000000137674                wifi_hal_h2c_keep_alive_cmd
                0x00000000001376a4                wifi_hal_h2c_wowlan_ctrl_cmd
                0x00000000001376f0                wifi_hal_h2c_twt_param
 .wifi.rom.text
                0x00000000001377d8      0x194 /home/eric_gao/repo/repoe/amebagreen2_gcc_project/build/project_km4ns/asdk/make_rom/wifi_driver/lib_rom_wifi_driver_km4ns.a(rom_hal_h2c_g1.o)
                0x00000000001377d8                wifi_hal_h2c_down
                0x000000000013780c                wifi_hal_h2c_fill_cmd
                0x0000000000137920                wifi_hal_rsvpage_fill_txff
                0x000000000013794c                wifi_hal_h2c_set_rsvpage_cmd
 .wifi.rom.text
                0x000000000013796c       0x68 /home/eric_gao/repo/repoe/amebagreen2_gcc_project/build/project_km4ns/asdk/make_rom/wifi_driver/lib_rom_wifi_driver_km4ns.a(rom_rtw_queue.o)
                0x000000000013796c                rtw_init_listhead
                0x0000000000137974                rtw_is_list_empty
                0x0000000000137980                rtw_list_insert_head
                0x000000000013798c                rtw_list_insert_tail
                0x0000000000137998                rtw_list_delete
                0x00000000001379a8                rtw_init_queue
                0x00000000001379bc                rtw_queue_empty
                0x00000000001379c8                rtw_end_of_queue_search
 .wifi.rom.text
                0x00000000001379d4        0x0 /home/eric_gao/repo/repoe/amebagreen2_gcc_project/build/project_km4ns/asdk/make_rom/wifi_driver/lib_rom_wifi_driver_km4ns.a(rom_hal_rom_to_flash.o)
 *(.wifi.rom.rodata*)
 .wifi.rom.rodata
                0x00000000001379d4       0x40 /home/eric_gao/repo/repoe/amebagreen2_gcc_project/build/project_km4ns/asdk/make_rom/wifi_driver/lib_rom_wifi_driver_km4ns.a(rom_md5.o)
 .wifi.rom.rodata.str1.4
                0x0000000000137a14       0x45 /home/eric_gao/repo/repoe/amebagreen2_gcc_project/build/project_km4ns/asdk/make_rom/wifi_driver/lib_rom_wifi_driver_km4ns.a(rom_aes.o)
 *fill*         0x0000000000137a59        0x3 
 .wifi.rom.rodata
                0x0000000000137a5c     0x3828 /home/eric_gao/repo/repoe/amebagreen2_gcc_project/build/project_km4ns/asdk/make_rom/wifi_driver/lib_rom_wifi_driver_km4ns.a(rom_aes.o)
 .wifi.rom.rodata.str1.4
                0x000000000013b284        0x1 /home/eric_gao/repo/repoe/amebagreen2_gcc_project/build/project_km4ns/asdk/make_rom/wifi_driver/lib_rom_wifi_driver_km4ns.a(rom_rtw_sha256.o)
 *fill*         0x000000000013b285        0x3 
 .wifi.rom.rodata
                0x000000000013b288      0x100 /home/eric_gao/repo/repoe/amebagreen2_gcc_project/build/project_km4ns/asdk/make_rom/wifi_driver/lib_rom_wifi_driver_km4ns.a(rom_rtw_sha256.o)
 .wifi.rom.rodata
                0x000000000013b388     0x210d /home/eric_gao/repo/repoe/amebagreen2_gcc_project/build/project_km4ns/asdk/make_rom/wifi_driver/lib_rom_wifi_driver_km4ns.a(rom_rtw_dh_groups.o)
                0x000000000013b388                dh_groups
                0x000000000013b4e8                dh_group24_order
                0x000000000013b508                dh_group24_prime
                0x000000000013b608                dh_group24_generator
                0x000000000013b708                dh_group23_order
                0x000000000013b724                dh_group23_prime
                0x000000000013b824                dh_group23_generator
                0x000000000013b924                dh_group22_order
                0x000000000013b938                dh_group22_prime
                0x000000000013b9b8                dh_group22_generator
                0x000000000013be38                dh_group18_prime
                0x000000000013c238                dh_group18_generator
                0x000000000013c23c                dh_group17_order
                0x000000000013c53c                dh_group17_prime
                0x000000000013c83c                dh_group17_generator
                0x000000000013c840                dh_group16_order
                0x000000000013ca40                dh_group16_prime
                0x000000000013cc40                dh_group16_generator
                0x000000000013cdc4                dh_group15_prime
                0x000000000013cf44                dh_group15_generator
                0x000000000013cf48                dh_group14_order
                0x000000000013d048                dh_group14_prime
                0x000000000013d148                dh_group14_generator
                0x000000000013d14c                dh_group5_order
                0x000000000013d20c                dh_group5_prime
                0x000000000013d2cc                dh_group5_generator
                0x000000000013d2d0                dh_group2_order
                0x000000000013d350                dh_group2_prime
                0x000000000013d3d0                dh_group2_generator
                0x000000000013d3d4                dh_group1_order
                0x000000000013d434                dh_group1_prime
                0x000000000013d494                dh_group1_generator
 *fill*         0x000000000013d495        0x3 
 .wifi.rom.rodata
                0x000000000013d498      0x400 /home/eric_gao/repo/repoe/amebagreen2_gcc_project/build/project_km4ns/asdk/make_rom/wifi_driver/lib_rom_wifi_driver_km4ns.a(rom_arc4.o)
 .wifi.rom.rodata
                0x000000000013d898      0x3ec /home/eric_gao/repo/repoe/amebagreen2_gcc_project/build/project_km4ns/asdk/make_rom/wifi_driver/lib_rom_wifi_driver_km4ns.a(rom_rtw_mbedtls_ecp_curves.o)
 .wifi.rom.rodata
                0x000000000013dc84      0x50c /home/eric_gao/repo/repoe/amebagreen2_gcc_project/build/project_km4ns/asdk/make_rom/wifi_driver/lib_rom_wifi_driver_km4ns.a(rom_rtw_security.o)
 .wifi.rom.rodata.str1.4
                0x000000000013e190        0x9 /home/eric_gao/repo/repoe/amebagreen2_gcc_project/build/project_km4ns/asdk/make_rom/wifi_driver/lib_rom_wifi_driver_km4ns.a(rom_wpa_lite_psk.o)
 *fill*         0x000000000013e199        0x3 
 .wifi.rom.rodata
                0x000000000013e19c       0x3f /home/eric_gao/repo/repoe/amebagreen2_gcc_project/build/project_km4ns/asdk/make_rom/wifi_driver/lib_rom_wifi_driver_km4ns.a(rom_wpa_lite_psk.o)
                0x000000000013e19c                igtk_expansion_const
 *fill*         0x000000000013e1db        0x1 
 .wifi.rom.rodata.str1.4
                0x000000000013e1dc        0x9 /home/eric_gao/repo/repoe/amebagreen2_gcc_project/build/project_km4ns/asdk/make_rom/wifi_driver/lib_rom_wifi_driver_km4ns.a(rom_wpa_lite_part2.o)
 *fill*         0x000000000013e1e5        0x3 
 .wifi.rom.rodata
                0x000000000013e1e8       0x18 /home/eric_gao/repo/repoe/amebagreen2_gcc_project/build/project_km4ns/asdk/make_rom/wifi_driver/lib_rom_wifi_driver_km4ns.a(rom_wpa_lite_part2.o)
 .wifi.rom.rodata.str1.4
                0x000000000013e200      0x509 /home/eric_gao/repo/repoe/amebagreen2_gcc_project/build/project_km4ns/asdk/make_rom/wifi_driver/lib_rom_wifi_driver_km4ns.a(rom_wpa_lite_sae.o)
 *fill*         0x000000000013e709        0x3 
 .wifi.rom.rodata
                0x000000000013e70c       0x5d /home/eric_gao/repo/repoe/amebagreen2_gcc_project/build/project_km4ns/asdk/make_rom/wifi_driver/lib_rom_wifi_driver_km4ns.a(rom_wpa_lite_sae.o)
                0x000000000013e71c                sae_groups
 *fill*         0x000000000013e769        0x3 
 .wifi.rom.rodata.str1.4
                0x000000000013e76c      0x30a /home/eric_gao/repo/repoe/amebagreen2_gcc_project/build/project_km4ns/asdk/make_rom/wifi_driver/lib_rom_wifi_driver_km4ns.a(rom_wpa_lite_sae_crypto.o)
 *fill*         0x000000000013ea76        0x2 
 .wifi.rom.rodata
                0x000000000013ea78       0x1c /home/eric_gao/repo/repoe/amebagreen2_gcc_project/build/project_km4ns/asdk/make_rom/wifi_driver/lib_rom_wifi_driver_km4ns.a(rom_wpa_lite_sae_crypto.o)
 .wifi.rom.rodata
                0x000000000013ea94       0x5e /home/eric_gao/repo/repoe/amebagreen2_gcc_project/build/project_km4ns/asdk/make_rom/wifi_driver/lib_rom_wifi_driver_km4ns.a(rom_rtw_ieee80211.o)
                0x000000000013eab0                RTW_WPA_OUI_TYPE
                0x000000000013eab4                WPA_CIPHER_SUITE_NONE
                0x000000000013eab8                WPA_CIPHER_SUITE_WEP40
                0x000000000013eabc                WPA_CIPHER_SUITE_TKIP
                0x000000000013eac0                WPA_CIPHER_SUITE_CCMP
                0x000000000013eac4                WPA_CIPHER_SUITE_WEP104
                0x000000000013eac8                RSN_CIPHER_SUITE_NONE
                0x000000000013eacc                RSN_CIPHER_SUITE_WEP40
                0x000000000013ead0                RSN_CIPHER_SUITE_TKIP
                0x000000000013ead4                RSN_CIPHER_SUITE_CCMP
                0x000000000013ead8                RSN_CIPHER_SUITE_WEP104
                0x000000000013eae8                RSN_AUTH_KEY_MGMT_PSK_OVER_802_1X
                0x000000000013eaec                RSN_AUTH_KEY_MGMT_UNSPEC_802_1X
                0x000000000013eaf0                RSN_VERSION_BSD
 *fill*         0x000000000013eaf2        0x2 
 .wifi.rom.rodata
                0x000000000013eaf4      0x85c /home/eric_gao/repo/repoe/amebagreen2_gcc_project/build/project_km4ns/asdk/make_rom/wifi_driver/lib_rom_wifi_driver_km4ns.a(rom_rtw_ieee80211_part2.o)
                0x000000000013eaf4                RTW_ChannelPlanMap
                0x000000000013ecf4                RTW_ChannelPlanBitmap2G
                0x000000000013ed2c                RTW_ChannelPlanBitmap5G
                0x000000000013f314                RTW_WPA_OUI
                0x000000000013f318                RSN_TKIP_CIPHER
                0x000000000013f31c                RSN_AUTH_KEY_MGMT_FT_802_1X
                0x000000000013f320                RSN_AUTH_KEY_MGMT_FT_PSK
                0x000000000013f324                RSN_AUTH_KEY_MGMT_802_1X_SHA256
                0x000000000013f328                RSN_AUTH_KEY_MGMT_PSK_SHA256
                0x000000000013f32c                RSN_AUTH_KEY_MGMT_SAE
                0x000000000013f330                RSN_AUTH_KEY_MGMT_802_1X_SUITE_B
                0x000000000013f334                RSN_AUTH_KEY_MGMT_802_1X_SUITE_B_192
                0x000000000013f338                RSN_AUTH_KEY_MGMT_DPP
                0x000000000013f33c                RSN_AUTH_KEY_MGMT_OWE
                0x000000000013f340                RSN_CIPHER_SUITE_AES_128_CMAC
                0x000000000013f344                RSN_CIPHER_SUITE_BIP_GMAC_128
                0x000000000013f348                RSN_CIPHER_SUITE_BIP_GMAC_256
                0x000000000013f34c                RSN_CIPHER_SUITE_BIP_CMAC_256
 .wifi.rom.rodata.str1.4
                0x000000000013f350       0x21 /home/eric_gao/repo/repoe/amebagreen2_gcc_project/build/project_km4ns/asdk/make_rom/wifi_driver/lib_rom_wifi_driver_km4ns.a(rom_rtw_psk.o)
 *fill*         0x000000000013f371        0x3 
 .wifi.rom.rodata
                0x000000000013f374      0x17e /home/eric_gao/repo/repoe/amebagreen2_gcc_project/build/project_km4ns/asdk/make_rom/wifi_driver/lib_rom_wifi_driver_km4ns.a(rom_rtw_rf.o)
                0x000000000013f374                center_chs_2g_by_bw
                0x000000000013f384                op_chs_of_cch_2g_by_bw
                0x000000000013f394                center_chs_5g_by_bw
                0x000000000013f3b4                op_chs_of_cch_5g_by_bw
                0x000000000013f3d4                _ch_width_to_bw_cap
                0x000000000013f3dc                op_chs_of_cch_5g_160m
                0x000000000013f3f4                center_ch_5g_160m
                0x000000000013f3f8                op_chs_of_cch_5g_80m
                0x000000000013f414                center_ch_5g_80m
                0x000000000013f41c                op_chs_of_cch_5g_40m
                0x000000000013f438                center_ch_5g_20m_40m
                0x000000000013f464                center_ch_5g_40m
                0x000000000013f474                center_ch_5g_20m
                0x000000000013f490                center_ch_5g_all
                0x000000000013f4c4                op_chs_of_cch_2g_40m
                0x000000000013f4d8                center_ch_2g_40m
                0x000000000013f4e4                center_ch_2g
 *fill*         0x000000000013f4f2        0x2 
 .wifi.rom.rodata
                0x000000000013f4f4        0x6 /home/eric_gao/repo/repoe/amebagreen2_gcc_project/build/project_km4ns/asdk/make_rom/wifi_driver/lib_rom_wifi_driver_km4ns.a(rom_rtw_beacon.o)
 *fill*         0x000000000013f4fa        0x2 
 .wifi.rom.rodata.str1.4
                0x000000000013f4fc       0x5f /home/eric_gao/repo/repoe/amebagreen2_gcc_project/build/project_km4ns/asdk/make_rom/wifi_driver/lib_rom_wifi_driver_km4ns.a(rom_rtw_assoc.o)
 *fill*         0x000000000013f55b        0x1 
 .wifi.rom.rodata
                0x000000000013f55c       0x3a /home/eric_gao/repo/repoe/amebagreen2_gcc_project/build/project_km4ns/asdk/make_rom/wifi_driver/lib_rom_wifi_driver_km4ns.a(rom_rtw_assoc.o)
                0x000000000013f580                WPS_OUI
                0x000000000013f584                WMM_OUI
                0x000000000013f588                WMM_PARA_OUI
                0x000000000013f590                WMM_INFO_OUI
 *fill*         0x000000000013f596        0x2 
 .wifi.rom.rodata.str1.4
                0x000000000013f598       0x28 /home/eric_gao/repo/repoe/amebagreen2_gcc_project/build/project_km4ns/asdk/make_rom/wifi_driver/lib_rom_wifi_driver_km4ns.a(rom_rtw_80211w.o)
 .wifi.rom.rodata
                0x000000000013f5c0        0x7 /home/eric_gao/repo/repoe/amebagreen2_gcc_project/build/project_km4ns/asdk/make_rom/wifi_driver/lib_rom_wifi_driver_km4ns.a(rom_rtw_rate.o)
                0x000000000013f5c0                rtw_basic_rate_mix
 *fill*         0x000000000013f5c7        0x1 
 .wifi.rom.rodata
                0x000000000013f5c8        0x7 /home/eric_gao/repo/repoe/amebagreen2_gcc_project/build/project_km4ns/asdk/make_rom/wifi_driver/lib_rom_wifi_driver_km4ns.a(rom_rtw_ht.o)
 *fill*         0x000000000013f5cf        0x1 
 .wifi.rom.rodata.str1.4
                0x000000000013f5d0       0x55 /home/eric_gao/repo/repoe/amebagreen2_gcc_project/build/project_km4ns/asdk/make_rom/wifi_driver/lib_rom_wifi_driver_km4ns.a(rom_rtw_pmksa_cache_part2.o)
 *fill*         0x000000000013f625        0x3 
 .wifi.rom.rodata.str1.4
                0x000000000013f628       0x52 /home/eric_gao/repo/repoe/amebagreen2_gcc_project/build/project_km4ns/asdk/make_rom/wifi_driver/lib_rom_wifi_driver_km4ns.a(rom_rtw_11d_part2.o)
 *fill*         0x000000000013f67a        0x2 
 .wifi.rom.rodata
                0x000000000013f67c        0x3 /home/eric_gao/repo/repoe/amebagreen2_gcc_project/build/project_km4ns/asdk/make_rom/wifi_driver/lib_rom_wifi_driver_km4ns.a(rom_rtw_11d_part2.o)
 *fill*         0x000000000013f67f        0x1 
 .wifi.rom.rodata.str1.4
                0x000000000013f680       0x5a /home/eric_gao/repo/repoe/amebagreen2_gcc_project/build/project_km4ns/asdk/make_rom/wifi_driver/lib_rom_wifi_driver_km4ns.a(rom_rtw_he_part2.o)
 *fill*         0x000000000013f6da        0x2 
 .wifi.rom.rodata.str1.4
                0x000000000013f6dc        0x7 /home/eric_gao/repo/repoe/amebagreen2_gcc_project/build/project_km4ns/asdk/make_rom/wifi_driver/lib_rom_wifi_driver_km4ns.a(rom_rtw_shortcut.o)
 *fill*         0x000000000013f6e3        0x1 
 .wifi.rom.rodata
                0x000000000013f6e4        0x6 /home/eric_gao/repo/repoe/amebagreen2_gcc_project/build/project_km4ns/asdk/make_rom/wifi_driver/lib_rom_wifi_driver_km4ns.a(rom_rtw_shortcut.o)
 *fill*         0x000000000013f6ea        0x2 
 .wifi.rom.rodata.str1.4
                0x000000000013f6ec       0x5c /home/eric_gao/repo/repoe/amebagreen2_gcc_project/build/project_km4ns/asdk/make_rom/wifi_driver/lib_rom_wifi_driver_km4ns.a(rom_rtw_setkey.o)
 .wifi.rom.rodata
                0x000000000013f748        0x6 /home/eric_gao/repo/repoe/amebagreen2_gcc_project/build/project_km4ns/asdk/make_rom/wifi_driver/lib_rom_wifi_driver_km4ns.a(rom_rtw_setkey.o)
 *fill*         0x000000000013f74e        0x2 
 .wifi.rom.rodata.str1.4
                0x000000000013f750       0x4a /home/eric_gao/repo/repoe/amebagreen2_gcc_project/build/project_km4ns/asdk/make_rom/wifi_driver/lib_rom_wifi_driver_km4ns.a(rom_rtw_beacon_part2.o)
 *fill*         0x000000000013f79a        0x2 
 .wifi.rom.rodata.str1.4
                0x000000000013f79c       0x32 /home/eric_gao/repo/repoe/amebagreen2_gcc_project/build/project_km4ns/asdk/make_rom/wifi_driver/lib_rom_wifi_driver_km4ns.a(rom_rtw_sitesurvey.o)
 *fill*         0x000000000013f7ce        0x2 
 .wifi.rom.rodata.str1.4
                0x000000000013f7d0       0x3f /home/eric_gao/repo/repoe/amebagreen2_gcc_project/build/project_km4ns/asdk/make_rom/wifi_driver/lib_rom_wifi_driver_km4ns.a(rom_rtw_ap_xmit.o)
 *fill*         0x000000000013f80f        0x1 
 .wifi.rom.rodata.str1.4
                0x000000000013f810       0x19 /home/eric_gao/repo/repoe/amebagreen2_gcc_project/build/project_km4ns/asdk/make_rom/wifi_driver/lib_rom_wifi_driver_km4ns.a(rom_rtw_addba.o)
 *fill*         0x000000000013f829        0x3 
 .wifi.rom.rodata.str1.4
                0x000000000013f82c      0x151 /home/eric_gao/repo/repoe/amebagreen2_gcc_project/build/project_km4ns/asdk/make_rom/wifi_driver/lib_rom_wifi_driver_km4ns.a(rom_rtw_auth_part2.o)
 *fill*         0x000000000013f97d        0x3 
 .wifi.rom.rodata
                0x000000000013f980        0x6 /home/eric_gao/repo/repoe/amebagreen2_gcc_project/build/project_km4ns/asdk/make_rom/wifi_driver/lib_rom_wifi_driver_km4ns.a(rom_rtw_auth_part2.o)
 *fill*         0x000000000013f986        0x2 
 .wifi.rom.rodata.str1.4
                0x000000000013f988       0xed /home/eric_gao/repo/repoe/amebagreen2_gcc_project/build/project_km4ns/asdk/make_rom/wifi_driver/lib_rom_wifi_driver_km4ns.a(rom_rtw_join.o)
 *fill*         0x000000000013fa75        0x3 
 .wifi.rom.rodata
                0x000000000013fa78       0x18 /home/eric_gao/repo/repoe/amebagreen2_gcc_project/build/project_km4ns/asdk/make_rom/wifi_driver/lib_rom_wifi_driver_km4ns.a(rom_rtw_join.o)
 .wifi.rom.rodata.str1.4
                0x000000000013fa90      0x169 /home/eric_gao/repo/repoe/amebagreen2_gcc_project/build/project_km4ns/asdk/make_rom/wifi_driver/lib_rom_wifi_driver_km4ns.a(rom_rtw_assoc_part2.o)
 *fill*         0x000000000013fbf9        0x3 
 .wifi.rom.rodata
                0x000000000013fbfc        0xc /home/eric_gao/repo/repoe/amebagreen2_gcc_project/build/project_km4ns/asdk/make_rom/wifi_driver/lib_rom_wifi_driver_km4ns.a(rom_rtw_assoc_part2.o)
                0x000000000013fbfc                default_rateset
 .wifi.rom.rodata.str1.4
                0x000000000013fc08       0x7b /home/eric_gao/repo/repoe/amebagreen2_gcc_project/build/project_km4ns/asdk/make_rom/wifi_driver/lib_rom_wifi_driver_km4ns.a(rom_rtw_security_part2.o)
 *fill*         0x000000000013fc83        0x1 
 .wifi.rom.rodata
                0x000000000013fc84       0x78 /home/eric_gao/repo/repoe/amebagreen2_gcc_project/build/project_km4ns/asdk/make_rom/wifi_driver/lib_rom_wifi_driver_km4ns.a(rom_rtw_vht_part2.o)
                0x000000000013fc84                VHT_MCS_DATA_RATE_40M
                0x000000000013fcc0                VHT_MCS_DATA_RATE_20M
 .wifi.rom.rodata.str1.4
                0x000000000013fcfc       0x9e /home/eric_gao/repo/repoe/amebagreen2_gcc_project/build/project_km4ns/asdk/make_rom/wifi_driver/lib_rom_wifi_driver_km4ns.a(rom_rtw_xmit.o)
 *fill*         0x000000000013fd9a        0x2 
 .wifi.rom.rodata
                0x000000000013fd9c       0x16 /home/eric_gao/repo/repoe/amebagreen2_gcc_project/build/project_km4ns/asdk/make_rom/wifi_driver/lib_rom_wifi_driver_km4ns.a(rom_rtw_xmit.o)
 *fill*         0x000000000013fdb2        0x2 
 .wifi.rom.rodata.str1.4
                0x000000000013fdb4       0xce /home/eric_gao/repo/repoe/amebagreen2_gcc_project/build/project_km4ns/asdk/make_rom/wifi_driver/lib_rom_wifi_driver_km4ns.a(rom_rtw_recv_part2.o)
 *fill*         0x000000000013fe82        0x2 
 .wifi.rom.rodata
                0x000000000013fe84       0x32 /home/eric_gao/repo/repoe/amebagreen2_gcc_project/build/project_km4ns/asdk/make_rom/wifi_driver/lib_rom_wifi_driver_km4ns.a(rom_rtw_recv_part2.o)
                0x000000000013fe8c                rtw_bridge_tunnel_header
                0x000000000013fe94                rtw_rfc1042_header
                0x000000000013fe9c                oui_rfc1042
                0x000000000013fea0                oui_8021h
                0x000000000013fea4                SNAP_HDR_APPLETALK_DDP
                0x000000000013fea8                SNAP_ETH_TYPE_TDLS
                0x000000000013feac                SNAP_ETH_TYPE_APPLETALK_DDP
                0x000000000013feb0                SNAP_ETH_TYPE_APPLETALK_AARP
                0x000000000013feb4                SNAP_ETH_TYPE_IPX
 *fill*         0x000000000013feb6        0x2 
 .wifi.rom.rodata.str1.4
                0x000000000013feb8        0xd /home/eric_gao/repo/repoe/amebagreen2_gcc_project/build/project_km4ns/asdk/make_rom/wifi_driver/lib_rom_wifi_driver_km4ns.a(rom_rtw_recv_reorder.o)
 *fill*         0x000000000013fec5        0x3 
 .wifi.rom.rodata.str1.4
                0x000000000013fec8       0x15 /home/eric_gao/repo/repoe/amebagreen2_gcc_project/build/project_km4ns/asdk/make_rom/wifi_driver/lib_rom_wifi_driver_km4ns.a(rom_rtw_recv_defrag.o)
 *fill*         0x000000000013fedd        0x3 
 .wifi.rom.rodata.str1.4
                0x000000000013fee0       0x57 /home/eric_gao/repo/repoe/amebagreen2_gcc_project/build/project_km4ns/asdk/make_rom/wifi_driver/lib_rom_wifi_driver_km4ns.a(rom_rtw_ap.o)
 *fill*         0x000000000013ff37        0x1 
 .wifi.rom.rodata.str1.4
                0x000000000013ff38       0x4c /home/eric_gao/repo/repoe/amebagreen2_gcc_project/build/project_km4ns/asdk/make_rom/wifi_driver/lib_rom_wifi_driver_km4ns.a(rom_rtw_skbuff.o)
 .wifi.rom.rodata.str1.4
                0x000000000013ff84      0x4dd /home/eric_gao/repo/repoe/amebagreen2_gcc_project/build/project_km4ns/asdk/make_rom/wifi_driver/lib_rom_wifi_driver_km4ns.a(rom_wifi_hal_debug.o)
 *fill*         0x0000000000140461        0x3 
 .wifi.rom.rodata
                0x0000000000140464       0xb0 /home/eric_gao/repo/repoe/amebagreen2_gcc_project/build/project_km4ns/asdk/make_rom/wifi_driver/lib_rom_wifi_driver_km4ns.a(rom_wifi_hal_debug.o)
 .wifi.rom.rodata.str1.4
                0x0000000000140514       0x24 /home/eric_gao/repo/repoe/amebagreen2_gcc_project/build/project_km4ns/asdk/make_rom/wifi_driver/lib_rom_wifi_driver_km4ns.a(rom_wifi_hal_init.o)
 .wifi.rom.rodata
                0x0000000000140538       0x16 /home/eric_gao/repo/repoe/amebagreen2_gcc_project/build/project_km4ns/asdk/make_rom/wifi_driver/lib_rom_wifi_driver_km4ns.a(rom_wifi_hal_init.o)
 *fill*         0x000000000014054e        0x2 
 .wifi.rom.rodata
                0x0000000000140550        0xc /home/eric_gao/repo/repoe/amebagreen2_gcc_project/build/project_km4ns/asdk/make_rom/wifi_driver/lib_rom_wifi_driver_km4ns.a(rom_wifi_hal_media_access.o)
 .wifi.rom.rodata.str1.4
                0x000000000014055c       0x5e /home/eric_gao/repo/repoe/amebagreen2_gcc_project/build/project_km4ns/asdk/make_rom/wifi_driver/lib_rom_wifi_driver_km4ns.a(rom_wifi_hal_misc.o)
 *fill*         0x00000000001405ba        0x2 
 .wifi.rom.rodata
                0x00000000001405bc       0x28 /home/eric_gao/repo/repoe/amebagreen2_gcc_project/build/project_km4ns/asdk/make_rom/wifi_driver/lib_rom_wifi_driver_km4ns.a(rom_wifi_hal_misc.o)
 .wifi.rom.rodata
                0x00000000001405e4        0xb /home/eric_gao/repo/repoe/amebagreen2_gcc_project/build/project_km4ns/asdk/make_rom/wifi_driver/lib_rom_wifi_driver_km4ns.a(rom_wifi_hal_rate.o)
 *fill*         0x00000000001405ef        0x1 
 .wifi.rom.rodata
                0x00000000001405f0       0x18 /home/eric_gao/repo/repoe/amebagreen2_gcc_project/build/project_km4ns/asdk/make_rom/wifi_driver/lib_rom_wifi_driver_km4ns.a(rom_wifi_hal_secure.o)
 .wifi.rom.rodata
                0x0000000000140608       0x16 /home/eric_gao/repo/repoe/amebagreen2_gcc_project/build/project_km4ns/asdk/make_rom/wifi_driver/lib_rom_wifi_driver_km4ns.a(rom_wifi_hal_txdesc.o)
 *fill*         0x000000000014061e        0x2 
 .wifi.rom.rodata.str1.4
                0x0000000000140620      0x2f4 /home/eric_gao/repo/repoe/amebagreen2_gcc_project/build/project_km4ns/asdk/make_rom/wifi_driver/lib_rom_wifi_driver_km4ns.a(rom_hal_debug.o)
 .wifi.rom.rodata
                0x0000000000140914       0x58 /home/eric_gao/repo/repoe/amebagreen2_gcc_project/build/project_km4ns/asdk/make_rom/wifi_driver/lib_rom_wifi_driver_km4ns.a(rom_hal_debug.o)
 .wifi.rom.rodata.str1.4
                0x000000000014096c       0x95 /home/eric_gao/repo/repoe/amebagreen2_gcc_project/build/project_km4ns/asdk/make_rom/wifi_driver/lib_rom_wifi_driver_km4ns.a(rom_hal_xmit.o)
 *fill*         0x0000000000140a01        0x3 
 .wifi.rom.rodata
                0x0000000000140a04       0x4e /home/eric_gao/repo/repoe/amebagreen2_gcc_project/build/project_km4ns/asdk/make_rom/wifi_driver/lib_rom_wifi_driver_km4ns.a(rom_hal_xmit.o)
 *fill*         0x0000000000140a52        0x2 
 .wifi.rom.rodata.str1.4
                0x0000000000140a54       0x25 /home/eric_gao/repo/repoe/amebagreen2_gcc_project/build/project_km4ns/asdk/make_rom/wifi_driver/lib_rom_wifi_driver_km4ns.a(rom_hal_xmit_g1.o)
 *fill*         0x0000000000140a79        0x3 
 .wifi.rom.rodata.str1.4
                0x0000000000140a7c       0xbc /home/eric_gao/repo/repoe/amebagreen2_gcc_project/build/project_km4ns/asdk/make_rom/wifi_driver/lib_rom_wifi_driver_km4ns.a(rom_hal_recv.o)
 .wifi.rom.rodata
                0x0000000000140b38       0x14 /home/eric_gao/repo/repoe/amebagreen2_gcc_project/build/project_km4ns/asdk/make_rom/wifi_driver/lib_rom_wifi_driver_km4ns.a(rom_hal_recv.o)
 .wifi.rom.rodata.str1.4
                0x0000000000140b4c       0x25 /home/eric_gao/repo/repoe/amebagreen2_gcc_project/build/project_km4ns/asdk/make_rom/wifi_driver/lib_rom_wifi_driver_km4ns.a(rom_hal_h2c_g1.o)
 *(.wifi.rom.hal.rom.rodata*)
 *fill*         0x0000000000140b71        0x3 
 .wifi.rom.hal.rom.rodata
                0x0000000000140b74       0x10 /home/eric_gao/repo/repoe/amebagreen2_gcc_project/build/project_km4ns/asdk/make_rom/wifi_driver/lib_rom_wifi_driver_km4ns.a(rom_rtw_ht.o)
                0x0000000000140b74                MCS_rate_1R
 .wifi.rom.hal.rom.rodata
                0x0000000000140b84       0x30 /home/eric_gao/repo/repoe/amebagreen2_gcc_project/build/project_km4ns/asdk/make_rom/wifi_driver/lib_rom_wifi_driver_km4ns.a(rom_wifi_hal_media_access.o)
                0x0000000000140b84                address_cam_entry
 .wifi.rom.hal.rom.rodata
                0x0000000000140bb4        0x8 /home/eric_gao/repo/repoe/amebagreen2_gcc_project/build/project_km4ns/asdk/make_rom/wifi_driver/lib_rom_wifi_driver_km4ns.a(rom_hal_h2c.o)
                0x0000000000140bbc                AA__wifi_share_rom_end__ = .

.os.rom         0x000000000010f000     0x4636
                0x000000000010f000                AA__os_share_rom_start__ = .
 *(.os.rom.text*)
 .os.rom.text   0x000000000010f000     0x18bc /home/eric_gao/repo/repoe/amebagreen2_gcc_project/build/project_km4ns/asdk/make_rom/os/lib_rom_os_km4ns.a(tasks.o)
                0x000000000010f388                xTaskCreateStatic
                0x000000000010f3c4                xTaskCreate
                0x000000000010f424                vTaskDelete
                0x000000000010f4b8                eTaskGetState
                0x000000000010f520                uxTaskPriorityGet
                0x000000000010f548                uxTaskPriorityGetFromISR
                0x000000000010f570                vTaskPrioritySet
                0x000000000010f618                vTaskResume
                0x000000000010f678                vTaskStartScheduler
                0x000000000010f704                vTaskEndScheduler
                0x000000000010f724                vTaskSuspendAll
                0x000000000010f738                xTaskGetTickCount
                0x000000000010f744                xTaskGetTickCountFromISR
                0x000000000010f748                uxTaskGetNumberOfTasks
                0x000000000010f754                pcTaskGetName
                0x000000000010f768                xTaskGetIdleTaskHandle
                0x000000000010f774                vTaskStepTick
                0x000000000010f788                xTaskIncrementTick
                0x000000000010f88c                xTaskResumeAll
                0x000000000010f93c                xTaskDelayUntil
                0x000000000010f990                vTaskDelay
                0x000000000010f9fc                xTaskCatchUpTicks
                0x000000000010fa1c                vTaskSetApplicationTaskTag
                0x000000000010fa48                xTaskGetApplicationTaskTag
                0x000000000010fa74                xTaskGetApplicationTaskTagFromISR
                0x000000000010faa0                xTaskCallApplicationTaskHook
                0x000000000010fac0                vTaskSwitchContext
                0x000000000010fbbc                vTaskSuspend
                0x000000000010fc40                vTaskPlaceOnEventList
                0x000000000010fc60                vTaskPlaceOnUnorderedEventList
                0x000000000010fc88                vTaskPlaceOnEventListRestricted
                0x000000000010fcb4                xTaskRemoveFromEventList
                0x000000000010fd1c                vTaskRemoveFromUnorderedEventList
                0x000000000010fd6c                vTaskSetTimeOutState
                0x000000000010fd90                vTaskInternalSetTimeOutState
                0x000000000010fda4                xTaskCheckForTimeOut
                0x000000000010fdf8                vTaskMissedYield
                0x000000000010fe08                uxTaskGetTaskNumber
                0x000000000010fe10                vTaskSetTaskNumber
                0x000000000010fe18                eTaskConfirmSleepModeStatus
                0x000000000010fe4c                vTaskSetThreadLocalStoragePointer
                0x000000000010fe68                pvTaskGetThreadLocalStoragePointer
                0x000000000010fe8c                vTaskGetInfo
                0x000000000010ff60                uxTaskGetSystemState
                0x0000000000110014                uxTaskGetStackHighWaterMark
                0x0000000000110030                xTaskGetCurrentTaskHandle
                0x000000000011003c                xTaskGetSchedulerState
                0x000000000011005c                xTaskPriorityInherit
                0x00000000001100d8                xTaskPriorityDisinherit
                0x0000000000110130                vTaskPriorityDisinheritAfterTimeout
                0x0000000000110198                vTaskList
                0x0000000000110234                vTaskGetRunTimeStats
                0x00000000001102dc                uxTaskResetEventItemValue
                0x00000000001102f4                pvTaskIncrementMutexHeldCount
                0x000000000011030c                ulTaskGenericNotifyTake
                0x0000000000110380                xTaskGenericNotifyWait
                0x000000000011041c                xTaskGenericNotify
                0x00000000001104e0                xTaskGenericNotifyFromISR
                0x00000000001105c4                vTaskGenericNotifyGiveFromISR
                0x0000000000110660                xTaskGenericNotifyStateClear
                0x0000000000110694                ulTaskGenericNotifyValueClear
                0x00000000001106c8                ulTaskGetIdleRunTimeCounter
                0x00000000001106d8                TaskListDump
                0x0000000000110730                TaskDumpSystemState
                0x00000000001108b8                GetTaskName
 .os.rom.text   0x00000000001108bc       0x8c /home/eric_gao/repo/repoe/amebagreen2_gcc_project/build/project_km4ns/asdk/make_rom/os/lib_rom_os_km4ns.a(list.o)
                0x00000000001108bc                vListInitialise
                0x00000000001108d4                vListInitialiseItem
                0x00000000001108dc                vListInsertEnd
                0x00000000001108f4                vListInsert
                0x0000000000110924                uxListRemove
 .os.rom.text   0x0000000000110948      0x298 /home/eric_gao/repo/repoe/amebagreen2_gcc_project/build/project_km4ns/asdk/make_rom/os/lib_rom_os_km4ns.a(croutine.o)
                0x0000000000110a84                xCoRoutineCreate
                0x0000000000110b08                vCoRoutineAddToDelayedList
                0x0000000000110b48                vCoRoutineSchedule
                0x0000000000110bb0                xCoRoutineRemoveFromEventList
 .os.rom.text   0x0000000000110be0      0xe24 /home/eric_gao/repo/repoe/amebagreen2_gcc_project/build/project_km4ns/asdk/make_rom/os/lib_rom_os_km4ns.a(queue.o)
                0x0000000000110d9c                xQueueGenericReset
                0x0000000000110e2c                xQueueGenericCreateStatic
                0x0000000000110e50                xQueueGenericCreate
                0x0000000000110ea8                xQueueGetMutexHolder
                0x0000000000110ec8                xQueueGetMutexHolderFromISR
                0x0000000000110ed4                xQueueCreateCountingSemaphoreStatic
                0x0000000000110ef0                xQueueCreateCountingSemaphore
                0x0000000000110f04                xQueueGenericSend
                0x0000000000111038                xQueueCreateMutex
                0x0000000000111050                xQueueCreateMutexStatic
                0x0000000000111070                xQueueGiveMutexRecursive
                0x000000000011109c                xQueueGenericSendFromISR
                0x000000000011112c                xQueueGiveFromISR
                0x00000000001111a0                xQueueReceive
                0x000000000011129c                xQueueSemaphoreTake
                0x00000000001113a8                xQueueTakeMutexRecursive
                0x00000000001113d4                xQueuePeek
                0x00000000001114cc                xQueueReceiveFromISR
                0x0000000000111530                xQueuePeekFromISR
                0x0000000000111564                uxQueueMessagesWaiting
                0x0000000000111578                uxQueueSpacesAvailable
                0x0000000000111590                uxQueueMessagesWaitingFromISR
                0x0000000000111594                vQueueDelete
                0x00000000001115b8                uxQueueGetQueueNumber
                0x00000000001115bc                vQueueSetQueueNumber
                0x00000000001115c0                ucQueueGetQueueType
                0x00000000001115c8                xQueueIsQueueEmptyFromISR
                0x00000000001115d4                xQueueIsQueueFullFromISR
                0x00000000001115e4                xQueueCRSend
                0x0000000000111674                xQueueCRReceive
                0x0000000000111724                xQueueCRSendFromISR
                0x0000000000111758                xQueueCRReceiveFromISR
                0x00000000001117a8                vQueueWaitForMessageRestricted
                0x00000000001117f8                xQueueCreateSet
                0x0000000000111800                xQueueAddToSet
                0x000000000011182c                xQueueRemoveFromSet
                0x0000000000111858                xQueueSelectFromSet
                0x0000000000111870                xQueueSelectFromSetFromISR
                0x0000000000111888                QueueCreateTrace
                0x00000000001118cc                QueueDeleteTrace
                0x0000000000111900                QueueTraceDump
 .os.rom.text   0x0000000000111a04      0x61c /home/eric_gao/repo/repoe/amebagreen2_gcc_project/build/project_km4ns/asdk/make_rom/os/lib_rom_os_km4ns.a(timers.o)
                0x0000000000111b64                xTimerCreateTimerTask
                0x0000000000111bb8                xTimerCreate
                0x0000000000111bf0                xTimerCreateStatic
                0x0000000000111c14                xTimerGenericCommand
                0x0000000000111f18                xTimerGetTimerDaemonTaskHandle
                0x0000000000111f24                xTimerGetPeriod
                0x0000000000111f28                vTimerSetReloadMode
                0x0000000000111f58                uxTimerGetReloadMode
                0x0000000000111f70                xTimerGetExpiryTime
                0x0000000000111f74                pcTimerGetName
                0x0000000000111f78                xTimerIsTimerActive
                0x0000000000111f90                pvTimerGetTimerID
                0x0000000000111fa4                vTimerSetTimerID
                0x0000000000111fb8                xTimerPendFunctionCallFromISR
                0x0000000000111fe8                xTimerPendFunctionCall
                0x0000000000112018                uxTimerGetTimerNumber
                0x000000000011201c                vTimerSetTimerNumber
 .os.rom.text   0x0000000000112020      0x2a4 /home/eric_gao/repo/repoe/amebagreen2_gcc_project/build/project_km4ns/asdk/make_rom/os/lib_rom_os_km4ns.a(event_groups.o)
                0x0000000000112038                xEventGroupCreateStatic
                0x0000000000112050                xEventGroupCreate
                0x000000000011206c                xEventGroupWaitBits
                0x0000000000112114                xEventGroupClearBits
                0x0000000000112130                vEventGroupClearBitsCallback
                0x0000000000112134                xEventGroupClearBitsFromISR
                0x0000000000112148                xEventGroupGetBitsFromISR
                0x000000000011215c                xEventGroupSetBits
                0x00000000001121c8                xEventGroupSync
                0x0000000000112260                vEventGroupSetBitsCallback
                0x0000000000112264                vEventGroupDelete
                0x000000000011229c                xEventGroupSetBitsFromISR
                0x00000000001122b8                uxEventGroupGetNumber
                0x00000000001122c0                vEventGroupSetNumber
 .os.rom.text   0x00000000001122c4      0x5d4 /home/eric_gao/repo/repoe/amebagreen2_gcc_project/build/project_km4ns/asdk/make_rom/os/lib_rom_os_km4ns.a(stream_buffer.o)
                0x0000000000112434                xStreamBufferGenericCreate
                0x000000000011247c                xStreamBufferGenericCreateStatic
                0x00000000001124bc                vStreamBufferDelete
                0x00000000001124d0                xStreamBufferReset
                0x0000000000112508                xStreamBufferSetTriggerLevel
                0x0000000000112520                xStreamBufferSpacesAvailable
                0x0000000000112538                xStreamBufferBytesAvailable
                0x000000000011253c                xStreamBufferSend
                0x0000000000112618                xStreamBufferSendFromISR
                0x000000000011268c                xStreamBufferReceive
                0x0000000000112734                xStreamBufferNextMessageLengthBytes
                0x000000000011276c                xStreamBufferReceiveFromISR
                0x00000000001127d8                xStreamBufferIsEmpty
                0x00000000001127e8                xStreamBufferIsFull
                0x0000000000112800                xStreamBufferSendCompletedFromISR
                0x0000000000112844                xStreamBufferReceiveCompletedFromISR
                0x0000000000112888                uxStreamBufferGetStreamBufferNumber
                0x000000000011288c                vStreamBufferSetStreamBufferNumber
                0x0000000000112890                ucStreamBufferGetStreamBufferType
 .os.rom.text   0x0000000000112898      0x2f8 /home/eric_gao/repo/repoe/amebagreen2_gcc_project/build/project_km4ns/asdk/make_rom/os/lib_rom_os_km4ns.a(port.o)
                0x00000000001128dc                vPortYield
                0x00000000001128f4                vPortEnterCritical
                0x0000000000112918                vPortExitCritical
                0x0000000000112934                ulPortSetInterruptMask
                0x0000000000112944                vPortClearInterruptMask
                0x000000000011294c                SysTick_Handler
                0x0000000000112970                vPortSVCHandler_C
                0x00000000001129d0                pxPortInitialiseStack
                0x0000000000112a50                xPortStartScheduler
                0x0000000000112a8c                vPortEndScheduler
                0x0000000000112a90                vApplicationIdleHook
                0x0000000000112aa0                vApplicationStackOverflowHook
                0x0000000000112ad0                vApplicationMallocFailedHook
                0x0000000000112b34                vAssertCalled
                0x0000000000112b48                vApplicationGetIdleTaskMemory
                0x0000000000112b6c                vApplicationGetTimerTaskMemory
 .os.rom.text   0x0000000000112b90      0x16c /home/eric_gao/repo/repoe/amebagreen2_gcc_project/build/project_km4ns/asdk/make_rom/os/lib_rom_os_km4ns.a(portasm.o)
                0x0000000000112b90                vRestoreContextOfFirstTask
                0x0000000000112bc8                PendSV_Handler
                0x0000000000112c58                vPortAllocateSecureContext
                0x0000000000112c5c                vPortFreeSecureContext
                0x0000000000112c68                xIsPrivileged
                0x0000000000112c80                vRaisePrivilege
                0x0000000000112c90                vResetPrivilege
                0x0000000000112ca0                vStartFirstTask
                0x0000000000112cc4                ulSetInterruptMaskFromISR
                0x0000000000112cd0                vClearInterruptMaskFromISR
                0x0000000000112cd8                SVC_Handler
 .os.rom.text   0x0000000000112cfc      0x2f8 /home/eric_gao/repo/repoe/amebagreen2_gcc_project/build/project_km4ns/asdk/make_rom/os/lib_rom_os_km4ns.a(heap_5.o)
                0x0000000000112d4c                pvPortMalloc
                0x0000000000112e10                vPortFree
                0x0000000000112e68                xPortGetFreeHeapSize
                0x0000000000112e74                xPortGetMinimumEverFreeHeapSize
                0x0000000000112e80                vPortDefineHeapRegions
                0x0000000000112ef8                vPortGetHeapStats
                0x0000000000112f68                pvPortReAlloc
                0x0000000000112fd8                pvPortCalloc
 .os.rom.text   0x0000000000112ff4       0x3c /home/eric_gao/repo/repoe/amebagreen2_gcc_project/build/project_km4ns/asdk/make_rom/os/lib_rom_os_km4ns.a(os_cfg.o)
                0x0000000000112ff8                SecureContext_Init_rom
                0x0000000000112ffc                SecureInit_DePrioritizeNSExceptions_rom
                0x0000000000113000                SecureContext_AllocateContext_rom
                0x0000000000113004                SecureContext_FreeContext_rom
                0x0000000000113008                SecureContext_LoadContext_rom
                0x000000000011300c                SecureContext_SaveContext_rom
                0x0000000000113010                vPortAllocateSecureContext_rom
                0x0000000000113014                vPortCleanUpTCB_rom
                0x0000000000113018                traceTaskCreate_rom
                0x000000000011301c                traceTaskDelete_rom
                0x0000000000113020                newlib_assign_1_rom
                0x0000000000113024                newlib_assign_2_rom
                0x0000000000113028                newlib_reent_init_ptr_rom
                0x000000000011302c                newlib_reclaim_reent_rom
 *(.os.rom.rodata*)
 .os.rom.rodata.str1.4
                0x0000000000113030      0x31c /home/eric_gao/repo/repoe/amebagreen2_gcc_project/build/project_km4ns/asdk/make_rom/os/lib_rom_os_km4ns.a(tasks.o)
 .os.rom.rodata
                0x000000000011334c       0x24 /home/eric_gao/repo/repoe/amebagreen2_gcc_project/build/project_km4ns/asdk/make_rom/os/lib_rom_os_km4ns.a(tasks.o)
                0x000000000011336c                uxTopUsedPriority
 .os.rom.rodata.str1.4
                0x0000000000113370      0x1f8 /home/eric_gao/repo/repoe/amebagreen2_gcc_project/build/project_km4ns/asdk/make_rom/os/lib_rom_os_km4ns.a(queue.o)
 .os.rom.rodata
                0x0000000000113568       0x14 /home/eric_gao/repo/repoe/amebagreen2_gcc_project/build/project_km4ns/asdk/make_rom/os/lib_rom_os_km4ns.a(queue.o)
 .os.rom.rodata.str1.4
                0x000000000011357c        0x8 /home/eric_gao/repo/repoe/amebagreen2_gcc_project/build/project_km4ns/asdk/make_rom/os/lib_rom_os_km4ns.a(timers.o)
 .os.rom.rodata.str1.4
                0x0000000000113584       0x92 /home/eric_gao/repo/repoe/amebagreen2_gcc_project/build/project_km4ns/asdk/make_rom/os/lib_rom_os_km4ns.a(port.o)
 *fill*         0x0000000000113616        0x2 
 .os.rom.rodata
                0x0000000000113618       0x1e /home/eric_gao/repo/repoe/amebagreen2_gcc_project/build/project_km4ns/asdk/make_rom/os/lib_rom_os_km4ns.a(port.o)
                0x0000000000113636                AA__os_share_rom_end__ = .

.hal.rom.bss    0x0000000020001000     0x10a4
                0x0000000020001000                __rom_bss_start__ = .
 *(.ram_vector_table2)
 .ram_vector_table2
                0x0000000020001000      0x140 /home/eric_gao/repo/repoe/amebagreen2_gcc_project/build/project_km4ns/asdk/make_rom/fwlib/lib_rom_fwlib_km4ns.a(ameba_vector_rom.o)
                0x0000000020001000                UserIrqFunTable
 *(.ram_vector_table3)
 .ram_vector_table3
                0x0000000020001140      0x140 /home/eric_gao/repo/repoe/amebagreen2_gcc_project/build/project_km4ns/asdk/make_rom/fwlib/lib_rom_fwlib_km4ns.a(ameba_vector_rom.o)
                0x0000000020001140                UserIrqDataTable
 *ameba_flash_rom.o(.hal.rom.bss*)
 .hal.rom.bss   0x0000000020001280       0x34 /home/eric_gao/repo/repoe/amebagreen2_gcc_project/build/project_km4ns/asdk/make_rom/fwlib_com/lib_rom_fwlib_com_km4ns.a(ameba_flash_rom.o)
                0x0000000020001280                flash_init_para
 *shell_rom.o(.hal.rom.bss*)
 .hal.rom.bss   0x00000000200012b4      0x1ab /home/eric_gao/repo/repoe/amebagreen2_gcc_project/build/project_km4ns/asdk/make_rom/fwlib_com/lib_rom_fwlib_com_km4ns.a(ameba_shell_rom.o)
                0x00000000200012b4                shell_ctl
                0x00000000200012d0                shell_argv_array
                0x0000000020001350                shell_buf
                0x0000000020001358                shell_buf_array
                0x00000000200013d8                shell_rxbuf
                0x00000000200013e0                shell_rxbuf_array
 *ameba_gpio_rom.o(.hal.rom.bss*)
 *log.o(.hal.rom.bss*)
 *fill*         0x000000002000145f        0x1 
 .hal.rom.bss   0x0000000020001460       0x31 /home/eric_gao/repo/repoe/amebagreen2_gcc_project/build/project_km4ns/asdk/make_rom/stdlib/lib_rom_stdlib_km4ns.a(log.o)
                0x0000000020001460                rtk_log_tag_array
                0x000000002000148c                rtk_log_entry_count
                0x0000000020001490                rtk_log_default_level
 *diag.o(.hal.rom.bss*)
 *fill*         0x0000000020001491        0x3 
 .hal.rom.bss   0x0000000020001494        0x4 /home/eric_gao/repo/repoe/amebagreen2_gcc_project/build/project_km4ns/asdk/make_rom/stdlib/lib_rom_stdlib_km4ns.a(diag.o)
                0x0000000020001494                DiagFun
 *ameba_chipinfo_rom.o(.hal.rom.bss*)
 *ameba_delay_rom.o(.hal.rom.bss*)
 *ameba_dump_stack.o(.hal.rom.bss*)
 .hal.rom.bss   0x0000000020001498        0x4 /home/eric_gao/repo/repoe/amebagreen2_gcc_project/build/project_km4ns/asdk/make_rom/crashdump/lib_rom_crashdump_km4ns.a(ameba_dump_stack.o)
                0x0000000020001498                crash_dump_depth
 *ameba_vector_rom.o(.hal.rom.bss*)
 .hal.rom.bss   0x000000002000149c       0x14 /home/eric_gao/repo/repoe/amebagreen2_gcc_project/build/project_km4ns/asdk/make_rom/fwlib/lib_rom_fwlib_km4ns.a(ameba_vector_rom.o)
                0x000000002000149c                INT_SVCall_patch
                0x00000000200014a0                INT_PendSV_patch
                0x00000000200014a4                INT_SysTick_patch
                0x00000000200014a8                PrePatchHandler
                0x00000000200014ac                PostPatchHandler
                0x00000000200014b0                __rom_bss_chk__ = .
 *(.hal.rom.bank.bss*)
 .hal.rom.bank.bss
                0x00000000200014b0        0x8 /home/eric_gao/repo/repoe/amebagreen2_gcc_project/build/project_km4ns/asdk/make_rom/fwlib_com/lib_rom_fwlib_com_km4ns.a(ameba_delay_rom.o)
                0x00000000200014b0                RBSS_UDELAY_DIV
                0x00000000200014b4                RBSS_UDELAY_CLK
 .hal.rom.bank.bss
                0x00000000200014b8        0x4 /home/eric_gao/repo/repoe/amebagreen2_gcc_project/build/project_km4ns/asdk/make_rom/fwlib_com/lib_rom_fwlib_com_km4ns.a(ameba_sema_rom.o)
                0x00000000200014b8                ipc_delay
 .hal.rom.bank.bss
                0x00000000200014bc        0x4 /home/eric_gao/repo/repoe/amebagreen2_gcc_project/build/project_km4ns/asdk/make_rom/crashdump/lib_rom_crashdump_km4ns.a(ameba_v8m_crashdump.o)
                0x00000000200014bc                CrashDumpPatchHandler
                0x00000000200014c0                AA__wifi_share_bss_start__ = .
 *(.wifi.rom.bss)
 .wifi.rom.bss  0x00000000200014c0        0x0 /home/eric_gao/repo/repoe/amebagreen2_gcc_project/build/project_km4ns/asdk/make_rom/wifi_driver/lib_rom_wifi_driver_km4ns.a(rom_sha1.o)
 .wifi.rom.bss  0x00000000200014c0        0x0 /home/eric_gao/repo/repoe/amebagreen2_gcc_project/build/project_km4ns/asdk/make_rom/wifi_driver/lib_rom_wifi_driver_km4ns.a(rom_md5.o)
 .wifi.rom.bss  0x00000000200014c0        0x0 /home/eric_gao/repo/repoe/amebagreen2_gcc_project/build/project_km4ns/asdk/make_rom/wifi_driver/lib_rom_wifi_driver_km4ns.a(rom_aes.o)
 .wifi.rom.bss  0x00000000200014c0        0x0 /home/eric_gao/repo/repoe/amebagreen2_gcc_project/build/project_km4ns/asdk/make_rom/wifi_driver/lib_rom_wifi_driver_km4ns.a(rom_rtw_sha256.o)
 .wifi.rom.bss  0x00000000200014c0        0x0 /home/eric_gao/repo/repoe/amebagreen2_gcc_project/build/project_km4ns/asdk/make_rom/wifi_driver/lib_rom_wifi_driver_km4ns.a(rom_rtw_dh_groups.o)
 .wifi.rom.bss  0x00000000200014c0        0x0 /home/eric_gao/repo/repoe/amebagreen2_gcc_project/build/project_km4ns/asdk/make_rom/wifi_driver/lib_rom_wifi_driver_km4ns.a(rom_arc4.o)
 .wifi.rom.bss  0x00000000200014c0        0x0 /home/eric_gao/repo/repoe/amebagreen2_gcc_project/build/project_km4ns/asdk/make_rom/wifi_driver/lib_rom_wifi_driver_km4ns.a(rom_rc4.o)
 .wifi.rom.bss  0x00000000200014c0        0x0 /home/eric_gao/repo/repoe/amebagreen2_gcc_project/build/project_km4ns/asdk/make_rom/wifi_driver/lib_rom_wifi_driver_km4ns.a(rom_rtw_mbedtls_bignum.o)
 .wifi.rom.bss  0x00000000200014c0        0x0 /home/eric_gao/repo/repoe/amebagreen2_gcc_project/build/project_km4ns/asdk/make_rom/wifi_driver/lib_rom_wifi_driver_km4ns.a(rom_rtw_mbedtls_ecp.o)
 .wifi.rom.bss  0x00000000200014c0        0x4 /home/eric_gao/repo/repoe/amebagreen2_gcc_project/build/project_km4ns/asdk/make_rom/wifi_driver/lib_rom_wifi_driver_km4ns.a(rom_rtw_mbedtls_ecp_curves.o)
 .wifi.rom.bss  0x00000000200014c4        0x0 /home/eric_gao/repo/repoe/amebagreen2_gcc_project/build/project_km4ns/asdk/make_rom/wifi_driver/lib_rom_wifi_driver_km4ns.a(rom_rtw_mbedtls_platform.o)
 .wifi.rom.bss  0x00000000200014c4       0x10 /home/eric_gao/repo/repoe/amebagreen2_gcc_project/build/project_km4ns/asdk/make_rom/wifi_driver/lib_rom_wifi_driver_km4ns.a(rom_rtw_mbedtls_func_map.o)
                0x00000000200014c4                p_wifi_rom_func_map
                0x00000000200014c8                wifi_rom_func_map
 .wifi.rom.bss  0x00000000200014d4        0x0 /home/eric_gao/repo/repoe/amebagreen2_gcc_project/build/project_km4ns/asdk/make_rom/wifi_driver/lib_rom_wifi_driver_km4ns.a(rom_rtw_security.o)
 .wifi.rom.bss  0x00000000200014d4        0x0 /home/eric_gao/repo/repoe/amebagreen2_gcc_project/build/project_km4ns/asdk/make_rom/wifi_driver/lib_rom_wifi_driver_km4ns.a(rom_wpa_lite_psk.o)
 .wifi.rom.bss  0x00000000200014d4        0x0 /home/eric_gao/repo/repoe/amebagreen2_gcc_project/build/project_km4ns/asdk/make_rom/wifi_driver/lib_rom_wifi_driver_km4ns.a(rom_wpa_lite_part2.o)
 .wifi.rom.bss  0x00000000200014d4        0x0 /home/eric_gao/repo/repoe/amebagreen2_gcc_project/build/project_km4ns/asdk/make_rom/wifi_driver/lib_rom_wifi_driver_km4ns.a(rom_wpa_lite_sae.o)
 .wifi.rom.bss  0x00000000200014d4        0x4 /home/eric_gao/repo/repoe/amebagreen2_gcc_project/build/project_km4ns/asdk/make_rom/wifi_driver/lib_rom_wifi_driver_km4ns.a(rom_wpa_lite_sae_crypto.o)
                0x00000000200014d4                sae_debug_level
 .wifi.rom.bss  0x00000000200014d8        0x0 /home/eric_gao/repo/repoe/amebagreen2_gcc_project/build/project_km4ns/asdk/make_rom/wifi_driver/lib_rom_wifi_driver_km4ns.a(rom_rtw_ieee80211.o)
 .wifi.rom.bss  0x00000000200014d8        0x0 /home/eric_gao/repo/repoe/amebagreen2_gcc_project/build/project_km4ns/asdk/make_rom/wifi_driver/lib_rom_wifi_driver_km4ns.a(rom_rtw_ieee80211_part2.o)
 .wifi.rom.bss  0x00000000200014d8        0x0 /home/eric_gao/repo/repoe/amebagreen2_gcc_project/build/project_km4ns/asdk/make_rom/wifi_driver/lib_rom_wifi_driver_km4ns.a(rom_rtw_probe.o)
 .wifi.rom.bss  0x00000000200014d8        0x0 /home/eric_gao/repo/repoe/amebagreen2_gcc_project/build/project_km4ns/asdk/make_rom/wifi_driver/lib_rom_wifi_driver_km4ns.a(rom_rtw_auth.o)
 .wifi.rom.bss  0x00000000200014d8        0x0 /home/eric_gao/repo/repoe/amebagreen2_gcc_project/build/project_km4ns/asdk/make_rom/wifi_driver/lib_rom_wifi_driver_km4ns.a(rom_rtw_action.o)
 .wifi.rom.bss  0x00000000200014d8        0x0 /home/eric_gao/repo/repoe/amebagreen2_gcc_project/build/project_km4ns/asdk/make_rom/wifi_driver/lib_rom_wifi_driver_km4ns.a(rom_rtw_psk.o)
 .wifi.rom.bss  0x00000000200014d8        0x0 /home/eric_gao/repo/repoe/amebagreen2_gcc_project/build/project_km4ns/asdk/make_rom/wifi_driver/lib_rom_wifi_driver_km4ns.a(rom_rtw_pmksa_cache.o)
 .wifi.rom.bss  0x00000000200014d8        0x0 /home/eric_gao/repo/repoe/amebagreen2_gcc_project/build/project_km4ns/asdk/make_rom/wifi_driver/lib_rom_wifi_driver_km4ns.a(rom_rtw_rf.o)
 .wifi.rom.bss  0x00000000200014d8        0x1 /home/eric_gao/repo/repoe/amebagreen2_gcc_project/build/project_km4ns/asdk/make_rom/wifi_driver/lib_rom_wifi_driver_km4ns.a(rom_rtw_recv.o)
 .wifi.rom.bss  0x00000000200014d9        0x0 /home/eric_gao/repo/repoe/amebagreen2_gcc_project/build/project_km4ns/asdk/make_rom/wifi_driver/lib_rom_wifi_driver_km4ns.a(rom_rtw_beacon.o)
 .wifi.rom.bss  0x00000000200014d9        0x0 /home/eric_gao/repo/repoe/amebagreen2_gcc_project/build/project_km4ns/asdk/make_rom/wifi_driver/lib_rom_wifi_driver_km4ns.a(rom_rtw_assoc.o)
 .wifi.rom.bss  0x00000000200014d9        0x0 /home/eric_gao/repo/repoe/amebagreen2_gcc_project/build/project_km4ns/asdk/make_rom/wifi_driver/lib_rom_wifi_driver_km4ns.a(rom_rtw_vht.o)
 .wifi.rom.bss  0x00000000200014d9        0x0 /home/eric_gao/repo/repoe/amebagreen2_gcc_project/build/project_km4ns/asdk/make_rom/wifi_driver/lib_rom_wifi_driver_km4ns.a(rom_rtw_he.o)
 .wifi.rom.bss  0x00000000200014d9        0x0 /home/eric_gao/repo/repoe/amebagreen2_gcc_project/build/project_km4ns/asdk/make_rom/wifi_driver/lib_rom_wifi_driver_km4ns.a(rom_rtw_80211w.o)
 .wifi.rom.bss  0x00000000200014d9        0x0 /home/eric_gao/repo/repoe/amebagreen2_gcc_project/build/project_km4ns/asdk/make_rom/wifi_driver/lib_rom_wifi_driver_km4ns.a(rom_rtw_rate.o)
 .wifi.rom.bss  0x00000000200014d9        0x0 /home/eric_gao/repo/repoe/amebagreen2_gcc_project/build/project_km4ns/asdk/make_rom/wifi_driver/lib_rom_wifi_driver_km4ns.a(rom_rtw_chbw.o)
 .wifi.rom.bss  0x00000000200014d9        0x0 /home/eric_gao/repo/repoe/amebagreen2_gcc_project/build/project_km4ns/asdk/make_rom/wifi_driver/lib_rom_wifi_driver_km4ns.a(rom_rtw_11d.o)
 .wifi.rom.bss  0x00000000200014d9        0x0 /home/eric_gao/repo/repoe/amebagreen2_gcc_project/build/project_km4ns/asdk/make_rom/wifi_driver/lib_rom_wifi_driver_km4ns.a(rom_rtw_ht.o)
 .wifi.rom.bss  0x00000000200014d9        0x0 /home/eric_gao/repo/repoe/amebagreen2_gcc_project/build/project_km4ns/asdk/make_rom/wifi_driver/lib_rom_wifi_driver_km4ns.a(rom_rtw_network.o)
 .wifi.rom.bss  0x00000000200014d9        0x0 /home/eric_gao/repo/repoe/amebagreen2_gcc_project/build/project_km4ns/asdk/make_rom/wifi_driver/lib_rom_wifi_driver_km4ns.a(rom_rtw_pmksa_cache_part2.o)
 .wifi.rom.bss  0x00000000200014d9        0x0 /home/eric_gao/repo/repoe/amebagreen2_gcc_project/build/project_km4ns/asdk/make_rom/wifi_driver/lib_rom_wifi_driver_km4ns.a(rom_rtw_11d_part2.o)
 .wifi.rom.bss  0x00000000200014d9        0x0 /home/eric_gao/repo/repoe/amebagreen2_gcc_project/build/project_km4ns/asdk/make_rom/wifi_driver/lib_rom_wifi_driver_km4ns.a(rom_rtw_he_part2.o)
 .wifi.rom.bss  0x00000000200014d9        0x0 /home/eric_gao/repo/repoe/amebagreen2_gcc_project/build/project_km4ns/asdk/make_rom/wifi_driver/lib_rom_wifi_driver_km4ns.a(rom_rtw_shortcut.o)
 .wifi.rom.bss  0x00000000200014d9        0x0 /home/eric_gao/repo/repoe/amebagreen2_gcc_project/build/project_km4ns/asdk/make_rom/wifi_driver/lib_rom_wifi_driver_km4ns.a(rom_rtw_setkey.o)
 .wifi.rom.bss  0x00000000200014d9        0x0 /home/eric_gao/repo/repoe/amebagreen2_gcc_project/build/project_km4ns/asdk/make_rom/wifi_driver/lib_rom_wifi_driver_km4ns.a(rom_rtw_beacon_part2.o)
 .wifi.rom.bss  0x00000000200014d9        0x0 /home/eric_gao/repo/repoe/amebagreen2_gcc_project/build/project_km4ns/asdk/make_rom/wifi_driver/lib_rom_wifi_driver_km4ns.a(rom_rtw_sitesurvey.o)
 .wifi.rom.bss  0x00000000200014d9        0x0 /home/eric_gao/repo/repoe/amebagreen2_gcc_project/build/project_km4ns/asdk/make_rom/wifi_driver/lib_rom_wifi_driver_km4ns.a(rom_rtw_sitesurvey_report.o)
 .wifi.rom.bss  0x00000000200014d9        0x0 /home/eric_gao/repo/repoe/amebagreen2_gcc_project/build/project_km4ns/asdk/make_rom/wifi_driver/lib_rom_wifi_driver_km4ns.a(rom_rtw_ap_xmit.o)
 .wifi.rom.bss  0x00000000200014d9        0x0 /home/eric_gao/repo/repoe/amebagreen2_gcc_project/build/project_km4ns/asdk/make_rom/wifi_driver/lib_rom_wifi_driver_km4ns.a(rom_rtw_addba.o)
 .wifi.rom.bss  0x00000000200014d9        0x0 /home/eric_gao/repo/repoe/amebagreen2_gcc_project/build/project_km4ns/asdk/make_rom/wifi_driver/lib_rom_wifi_driver_km4ns.a(rom_rtw_80211w_part2.o)
 *fill*         0x00000000200014d9        0x3 
 .wifi.rom.bss  0x00000000200014dc        0x4 /home/eric_gao/repo/repoe/amebagreen2_gcc_project/build/project_km4ns/asdk/make_rom/wifi_driver/lib_rom_wifi_driver_km4ns.a(rom_rtw_auth_part2.o)
                0x00000000200014dc                mf_list_head
 .wifi.rom.bss  0x00000000200014e0        0x0 /home/eric_gao/repo/repoe/amebagreen2_gcc_project/build/project_km4ns/asdk/make_rom/wifi_driver/lib_rom_wifi_driver_km4ns.a(rom_rtw_action_part2.o)
 .wifi.rom.bss  0x00000000200014e0        0x0 /home/eric_gao/repo/repoe/amebagreen2_gcc_project/build/project_km4ns/asdk/make_rom/wifi_driver/lib_rom_wifi_driver_km4ns.a(rom_rtw_join.o)
 .wifi.rom.bss  0x00000000200014e0        0x0 /home/eric_gao/repo/repoe/amebagreen2_gcc_project/build/project_km4ns/asdk/make_rom/wifi_driver/lib_rom_wifi_driver_km4ns.a(rom_rtw_join_result.o)
 .wifi.rom.bss  0x00000000200014e0        0x0 /home/eric_gao/repo/repoe/amebagreen2_gcc_project/build/project_km4ns/asdk/make_rom/wifi_driver/lib_rom_wifi_driver_km4ns.a(rom_rtw_assoc_part2.o)
 .wifi.rom.bss  0x00000000200014e0        0x0 /home/eric_gao/repo/repoe/amebagreen2_gcc_project/build/project_km4ns/asdk/make_rom/wifi_driver/lib_rom_wifi_driver_km4ns.a(rom_rtw_security_part2.o)
 .wifi.rom.bss  0x00000000200014e0        0x0 /home/eric_gao/repo/repoe/amebagreen2_gcc_project/build/project_km4ns/asdk/make_rom/wifi_driver/lib_rom_wifi_driver_km4ns.a(rom_rtw_vht_part2.o)
 .wifi.rom.bss  0x00000000200014e0        0x0 /home/eric_gao/repo/repoe/amebagreen2_gcc_project/build/project_km4ns/asdk/make_rom/wifi_driver/lib_rom_wifi_driver_km4ns.a(rom_rtw_xmit.o)
 .wifi.rom.bss  0x00000000200014e0        0x0 /home/eric_gao/repo/repoe/amebagreen2_gcc_project/build/project_km4ns/asdk/make_rom/wifi_driver/lib_rom_wifi_driver_km4ns.a(rom_rtw_recv_part2.o)
 .wifi.rom.bss  0x00000000200014e0        0x0 /home/eric_gao/repo/repoe/amebagreen2_gcc_project/build/project_km4ns/asdk/make_rom/wifi_driver/lib_rom_wifi_driver_km4ns.a(rom_rtw_recv_reorder.o)
 .wifi.rom.bss  0x00000000200014e0        0x0 /home/eric_gao/repo/repoe/amebagreen2_gcc_project/build/project_km4ns/asdk/make_rom/wifi_driver/lib_rom_wifi_driver_km4ns.a(rom_rtw_mgnt.o)
 .wifi.rom.bss  0x00000000200014e0        0x0 /home/eric_gao/repo/repoe/amebagreen2_gcc_project/build/project_km4ns/asdk/make_rom/wifi_driver/lib_rom_wifi_driver_km4ns.a(rom_rtw_recv_defrag.o)
 .wifi.rom.bss  0x00000000200014e0        0x0 /home/eric_gao/repo/repoe/amebagreen2_gcc_project/build/project_km4ns/asdk/make_rom/wifi_driver/lib_rom_wifi_driver_km4ns.a(rom_rtw_state.o)
 .wifi.rom.bss  0x00000000200014e0        0x0 /home/eric_gao/repo/repoe/amebagreen2_gcc_project/build/project_km4ns/asdk/make_rom/wifi_driver/lib_rom_wifi_driver_km4ns.a(rom_rtw_sta_mgt.o)
 .wifi.rom.bss  0x00000000200014e0        0x0 /home/eric_gao/repo/repoe/amebagreen2_gcc_project/build/project_km4ns/asdk/make_rom/wifi_driver/lib_rom_wifi_driver_km4ns.a(rom_rtw_ap.o)
 .wifi.rom.bss  0x00000000200014e0       0x28 /home/eric_gao/repo/repoe/amebagreen2_gcc_project/build/project_km4ns/asdk/make_rom/wifi_driver/lib_rom_wifi_driver_km4ns.a(rom_rtw_skbuff.o)
                0x00000000200014e0                skbpriv
 .wifi.rom.bss  0x0000000020001508        0x0 /home/eric_gao/repo/repoe/amebagreen2_gcc_project/build/project_km4ns/asdk/make_rom/wifi_driver/lib_rom_wifi_driver_km4ns.a(rom_wifi_hal_ax.o)
 .wifi.rom.bss  0x0000000020001508        0x0 /home/eric_gao/repo/repoe/amebagreen2_gcc_project/build/project_km4ns/asdk/make_rom/wifi_driver/lib_rom_wifi_driver_km4ns.a(rom_wifi_hal_bcn.o)
 .wifi.rom.bss  0x0000000020001508        0x0 /home/eric_gao/repo/repoe/amebagreen2_gcc_project/build/project_km4ns/asdk/make_rom/wifi_driver/lib_rom_wifi_driver_km4ns.a(rom_wifi_hal_debug.o)
 .wifi.rom.bss  0x0000000020001508        0x0 /home/eric_gao/repo/repoe/amebagreen2_gcc_project/build/project_km4ns/asdk/make_rom/wifi_driver/lib_rom_wifi_driver_km4ns.a(rom_wifi_hal_init.o)
 .wifi.rom.bss  0x0000000020001508        0x9 /home/eric_gao/repo/repoe/amebagreen2_gcc_project/build/project_km4ns/asdk/make_rom/wifi_driver/lib_rom_wifi_driver_km4ns.a(rom_wifi_hal_media_access.o)
 *fill*         0x0000000020001511        0x3 
 .wifi.rom.bss  0x0000000020001514        0x8 /home/eric_gao/repo/repoe/amebagreen2_gcc_project/build/project_km4ns/asdk/make_rom/wifi_driver/lib_rom_wifi_driver_km4ns.a(rom_wifi_hal_misc.o)
 .wifi.rom.bss  0x000000002000151c        0x0 /home/eric_gao/repo/repoe/amebagreen2_gcc_project/build/project_km4ns/asdk/make_rom/wifi_driver/lib_rom_wifi_driver_km4ns.a(rom_wifi_hal_rate.o)
 .wifi.rom.bss  0x000000002000151c        0x0 /home/eric_gao/repo/repoe/amebagreen2_gcc_project/build/project_km4ns/asdk/make_rom/wifi_driver/lib_rom_wifi_driver_km4ns.a(rom_wifi_hal_secure.o)
 .wifi.rom.bss  0x000000002000151c        0x0 /home/eric_gao/repo/repoe/amebagreen2_gcc_project/build/project_km4ns/asdk/make_rom/wifi_driver/lib_rom_wifi_driver_km4ns.a(rom_wifi_hal_tsf.o)
 .wifi.rom.bss  0x000000002000151c        0x0 /home/eric_gao/repo/repoe/amebagreen2_gcc_project/build/project_km4ns/asdk/make_rom/wifi_driver/lib_rom_wifi_driver_km4ns.a(rom_wifi_hal_txdesc.o)
 .wifi.rom.bss  0x000000002000151c        0x0 /home/eric_gao/repo/repoe/amebagreen2_gcc_project/build/project_km4ns/asdk/make_rom/wifi_driver/lib_rom_wifi_driver_km4ns.a(rom_wifi_hal_rxdesc.o)
 .wifi.rom.bss  0x000000002000151c        0x0 /home/eric_gao/repo/repoe/amebagreen2_gcc_project/build/project_km4ns/asdk/make_rom/wifi_driver/lib_rom_wifi_driver_km4ns.a(rom_wifi_hal_io.o)
 .wifi.rom.bss  0x000000002000151c        0x0 /home/eric_gao/repo/repoe/amebagreen2_gcc_project/build/project_km4ns/asdk/make_rom/wifi_driver/lib_rom_wifi_driver_km4ns.a(rom_hal_debug.o)
 .wifi.rom.bss  0x000000002000151c        0x0 /home/eric_gao/repo/repoe/amebagreen2_gcc_project/build/project_km4ns/asdk/make_rom/wifi_driver/lib_rom_wifi_driver_km4ns.a(rom_hal_xmit.o)
 .wifi.rom.bss  0x000000002000151c        0x0 /home/eric_gao/repo/repoe/amebagreen2_gcc_project/build/project_km4ns/asdk/make_rom/wifi_driver/lib_rom_wifi_driver_km4ns.a(rom_hal_xmit_g1.o)
 *fill*         0x000000002000151c        0x4 
 .wifi.rom.bss  0x0000000020001520      0x654 /home/eric_gao/repo/repoe/amebagreen2_gcc_project/build/project_km4ns/asdk/make_rom/wifi_driver/lib_rom_wifi_driver_km4ns.a(rom_hal_structs.o)
                0x0000000020001520                wifi_setting
                0x00000000200016a0                g_kvrpriv
                0x00000000200016dc                g_wpspriv
                0x0000000020001704                g_promiscpriv
                0x0000000020001710                g_traffic_statis
                0x0000000020001728                g_pspriv
                0x0000000020001760                g_apmlmepriv
                0x00000000200017a4                g_hal_spec
                0x00000000200017d0                g_scanpriv
                0x0000000020001828                g_mlmepriv
                0x00000000200019f8                g_recvpriv
                0x0000000020001a94                g_xmitpriv
 .wifi.rom.bss  0x0000000020001b74        0x0 /home/eric_gao/repo/repoe/amebagreen2_gcc_project/build/project_km4ns/asdk/make_rom/wifi_driver/lib_rom_wifi_driver_km4ns.a(rom_hal_recv.o)
 .wifi.rom.bss  0x0000000020001b74        0x0 /home/eric_gao/repo/repoe/amebagreen2_gcc_project/build/project_km4ns/asdk/make_rom/wifi_driver/lib_rom_wifi_driver_km4ns.a(rom_hal_h2c.o)
 .wifi.rom.bss  0x0000000020001b74        0x0 /home/eric_gao/repo/repoe/amebagreen2_gcc_project/build/project_km4ns/asdk/make_rom/wifi_driver/lib_rom_wifi_driver_km4ns.a(rom_hal_h2c_g1.o)
 .wifi.rom.bss  0x0000000020001b74        0x0 /home/eric_gao/repo/repoe/amebagreen2_gcc_project/build/project_km4ns/asdk/make_rom/wifi_driver/lib_rom_wifi_driver_km4ns.a(rom_rtw_queue.o)
 .wifi.rom.bss  0x0000000020001b74      0x178 /home/eric_gao/repo/repoe/amebagreen2_gcc_project/build/project_km4ns/asdk/make_rom/wifi_driver/lib_rom_wifi_driver_km4ns.a(rom_hal_rom_to_flash.o)
                0x0000000020001b74                p_wifi_rom2flash
                0x0000000020001b78                wifi_rom2flash
 *(.wifi.rom.hal.rom.bss*)
 .wifi.rom.hal.rom.bss
                0x0000000020001cec        0x1 /home/eric_gao/repo/repoe/amebagreen2_gcc_project/build/project_km4ns/asdk/make_rom/wifi_driver/lib_rom_wifi_driver_km4ns.a(rom_wifi_hal_media_access.o)
                0x0000000020001cec                wifi_rom_bss_addr_cam_en
                0x0000000020001cee                AA__wifi_share_bss_end__ = (. + 0x1)
                0x0000000020001ced                AA__os_share_bss_start__ = .
 *(.os.rom.bss*)
 *fill*         0x0000000020001ced        0x3 
 .os.rom.bss    0x0000000020001cf0      0x188 /home/eric_gao/repo/repoe/amebagreen2_gcc_project/build/project_km4ns/asdk/make_rom/os/lib_rom_os_km4ns.a(tasks.o)
                0x0000000020001d1c                pxCurrentTCB
                0x0000000020001e74                FreeRTOS_errno
 .os.rom.bss    0x0000000020001e78        0x0 /home/eric_gao/repo/repoe/amebagreen2_gcc_project/build/project_km4ns/asdk/make_rom/os/lib_rom_os_km4ns.a(list.o)
 .os.rom.bss    0x0000000020001e78       0x80 /home/eric_gao/repo/repoe/amebagreen2_gcc_project/build/project_km4ns/asdk/make_rom/os/lib_rom_os_km4ns.a(croutine.o)
                0x0000000020001ef4                pxCurrentCoRoutine
 .os.rom.bss    0x0000000020001ef8       0x44 /home/eric_gao/repo/repoe/amebagreen2_gcc_project/build/project_km4ns/asdk/make_rom/os/lib_rom_os_km4ns.a(queue.o)
 .os.rom.bss    0x0000000020001f3c       0x94 /home/eric_gao/repo/repoe/amebagreen2_gcc_project/build/project_km4ns/asdk/make_rom/os/lib_rom_os_km4ns.a(timers.o)
                0x0000000020001fc4                ucStaticTimerQueueStorage
 .os.rom.bss    0x0000000020001fd0        0x0 /home/eric_gao/repo/repoe/amebagreen2_gcc_project/build/project_km4ns/asdk/make_rom/os/lib_rom_os_km4ns.a(event_groups.o)
 .os.rom.bss    0x0000000020001fd0        0x0 /home/eric_gao/repo/repoe/amebagreen2_gcc_project/build/project_km4ns/asdk/make_rom/os/lib_rom_os_km4ns.a(stream_buffer.o)
 .os.rom.bss    0x0000000020001fd0       0x1c /home/eric_gao/repo/repoe/amebagreen2_gcc_project/build/project_km4ns/asdk/make_rom/os/lib_rom_os_km4ns.a(port.o)
                0x0000000020001fd4                xSecureContext
                0x0000000020001fd8                xIdleTaskTCB
                0x0000000020001fdc                uxIdleTaskStack
                0x0000000020001fe0                xTimerTaskTCB
                0x0000000020001fe4                uxTimerTaskStack
                0x0000000020001fe8                msp_addr
 .os.rom.bss    0x0000000020001fec        0x0 /home/eric_gao/repo/repoe/amebagreen2_gcc_project/build/project_km4ns/asdk/make_rom/os/lib_rom_os_km4ns.a(portasm.o)
 .os.rom.bss    0x0000000020001fec       0x20 /home/eric_gao/repo/repoe/amebagreen2_gcc_project/build/project_km4ns/asdk/make_rom/os/lib_rom_os_km4ns.a(heap_5.o)
 .os.rom.bss    0x000000002000200c       0x98 /home/eric_gao/repo/repoe/amebagreen2_gcc_project/build/project_km4ns/asdk/make_rom/os/lib_rom_os_km4ns.a(os_cfg.o)
                0x000000002000200c                patch_portEnable_Interrupts
                0x0000000020002010                patch_portDisable_Interrupts
                0x0000000020002014                patch_newlib_reclaim_reent
                0x0000000020002018                patch_newlib_reent_init_ptr
                0x000000002000201c                patch_newlib_assign_2
                0x0000000020002020                patch_newlib_assign_1
                0x0000000020002024                patch_traceTaskDelete
                0x0000000020002028                patch_traceTaskCreate
                0x000000002000202c                patch_vPortCleanUpTCB
                0x0000000020002030                patch_vPortAllocateSecureContext
                0x0000000020002034                patch_SecureContext_Init
                0x0000000020002038                patch_SecureContext_SaveContext
                0x000000002000203c                patch_SecureContext_LoadContext
                0x0000000020002040                patch_SecureInit_DePrioritizeNSExceptions
                0x0000000020002044                patch_SecureContext_FreeContext
                0x0000000020002048                patch_SecureContext_AllocateContext
                0x000000002000204c                os_cfg
                0x00000000200020a4                AA__os_share_bss_end__ = .
                0x0000000020002400                __rom_bss_end__ = (ORIGIN (NP_ROMBSS_MMU) + LENGTH (NP_ROMBSS_MMU))

.ram.data       0x0000000000000000        0x0
 *(.data*)
 .data          0x0000000000000000        0x0 /home/eric_gao/repo/repoe/amebagreen2_gcc_project/build/project_km4ns/asdk/make_rom/fwlib/lib_rom_fwlib_km4ns.a(ameba_boot_rom.o)
 .data          0x0000000000000000        0x0 /home/eric_gao/repo/repoe/amebagreen2_gcc_project/build/project_km4ns/asdk/make_rom/fwlib/lib_rom_fwlib_km4ns.a(ameba_vector_rom.o)
 .data          0x0000000000000000        0x0 /home/eric_gao/repo/repoe/amebagreen2_gcc_project/build/project_km4ns/asdk/make_rom/fwlib/lib_rom_fwlib_km4ns.a(ameba_vectors.o)
 .data          0x0000000000000000        0x0 /home/eric_gao/repo/repoe/amebagreen2_gcc_project/build/project_km4ns/asdk/make_rom/fwlib_com/lib_rom_fwlib_com_km4ns.a(ameba_crypto_aes.o)
 .data          0x0000000000000000        0x0 /home/eric_gao/repo/repoe/amebagreen2_gcc_project/build/project_km4ns/asdk/make_rom/fwlib_com/lib_rom_fwlib_com_km4ns.a(ameba_crypto_sha.o)
 .data          0x0000000000000000        0x0 /home/eric_gao/repo/repoe/amebagreen2_gcc_project/build/project_km4ns/asdk/make_rom/fwlib_com/lib_rom_fwlib_com_km4ns.a(ameba_crypto.o)
 .data          0x0000000000000000        0x0 /home/eric_gao/repo/repoe/amebagreen2_gcc_project/build/project_km4ns/asdk/make_rom/fwlib_com/lib_rom_fwlib_com_km4ns.a(ameba_pke_ecc.o)
 .data          0x0000000000000000        0x0 /home/eric_gao/repo/repoe/amebagreen2_gcc_project/build/project_km4ns/asdk/make_rom/fwlib_com/lib_rom_fwlib_com_km4ns.a(ameba_pke_rsa.o)
 .data          0x0000000000000000        0x0 /home/eric_gao/repo/repoe/amebagreen2_gcc_project/build/project_km4ns/asdk/make_rom/fwlib_com/lib_rom_fwlib_com_km4ns.a(ameba_pke_common.o)
 .data          0x0000000000000000        0x0 /home/eric_gao/repo/repoe/amebagreen2_gcc_project/build/project_km4ns/asdk/make_rom/fwlib_com/lib_rom_fwlib_com_km4ns.a(ameba_assert_rom.o)
 .data          0x0000000000000000        0x0 /home/eric_gao/repo/repoe/amebagreen2_gcc_project/build/project_km4ns/asdk/make_rom/fwlib_com/lib_rom_fwlib_com_km4ns.a(ameba_flash_rom.o)
 .data          0x0000000000000000        0x0 /home/eric_gao/repo/repoe/amebagreen2_gcc_project/build/project_km4ns/asdk/make_rom/fwlib_com/lib_rom_fwlib_com_km4ns.a(ameba_otp_rom.o)
 .data          0x0000000000000000        0x0 /home/eric_gao/repo/repoe/amebagreen2_gcc_project/build/project_km4ns/asdk/make_rom/fwlib_com/lib_rom_fwlib_com_km4ns.a(ameba_shell_rom.o)
 .data          0x0000000000000000        0x0 /home/eric_gao/repo/repoe/amebagreen2_gcc_project/build/project_km4ns/asdk/make_rom/fwlib_com/lib_rom_fwlib_com_km4ns.a(ameba_tim_rom.o)
 .data          0x0000000000000000        0x0 /home/eric_gao/repo/repoe/amebagreen2_gcc_project/build/project_km4ns/asdk/make_rom/fwlib_com/lib_rom_fwlib_com_km4ns.a(ameba_backup_reg.o)
 .data          0x0000000000000000        0x0 /home/eric_gao/repo/repoe/amebagreen2_gcc_project/build/project_km4ns/asdk/make_rom/fwlib_com/lib_rom_fwlib_com_km4ns.a(ameba_gpio_rom.o)
 .data          0x0000000000000000        0x0 /home/eric_gao/repo/repoe/amebagreen2_gcc_project/build/project_km4ns/asdk/make_rom/fwlib_com/lib_rom_fwlib_com_km4ns.a(ameba_pinmux_rom.o)
 .data          0x0000000000000000        0x0 /home/eric_gao/repo/repoe/amebagreen2_gcc_project/build/project_km4ns/asdk/make_rom/fwlib_com/lib_rom_fwlib_com_km4ns.a(ameba_rcc_rom.o)
 .data          0x0000000000000000        0x0 /home/eric_gao/repo/repoe/amebagreen2_gcc_project/build/project_km4ns/asdk/make_rom/fwlib_com/lib_rom_fwlib_com_km4ns.a(ameba_spinand_rom.o)
 .data          0x0000000000000000        0x0 /home/eric_gao/repo/repoe/amebagreen2_gcc_project/build/project_km4ns/asdk/make_rom/fwlib_com/lib_rom_fwlib_com_km4ns.a(ameba_trng.o)
 .data          0x0000000000000000        0x0 /home/eric_gao/repo/repoe/amebagreen2_gcc_project/build/project_km4ns/asdk/make_rom/fwlib_com/lib_rom_fwlib_com_km4ns.a(ameba_chipinfo_rom.o)
 .data          0x0000000000000000        0x0 /home/eric_gao/repo/repoe/amebagreen2_gcc_project/build/project_km4ns/asdk/make_rom/fwlib_com/lib_rom_fwlib_com_km4ns.a(ameba_loguart_rom.o)
 .data          0x0000000000000000        0x0 /home/eric_gao/repo/repoe/amebagreen2_gcc_project/build/project_km4ns/asdk/make_rom/fwlib_com/lib_rom_fwlib_com_km4ns.a(ameba_sdio_rom.o)
 .data          0x0000000000000000        0x0 /home/eric_gao/repo/repoe/amebagreen2_gcc_project/build/project_km4ns/asdk/make_rom/fwlib_com/lib_rom_fwlib_com_km4ns.a(ameba_syscfg_rom.o)
 .data          0x0000000000000000        0x0 /home/eric_gao/repo/repoe/amebagreen2_gcc_project/build/project_km4ns/asdk/make_rom/fwlib_com/lib_rom_fwlib_com_km4ns.a(ameba_uart_rom.o)
 .data          0x0000000000000000        0x0 /home/eric_gao/repo/repoe/amebagreen2_gcc_project/build/project_km4ns/asdk/make_rom/fwlib_com/lib_rom_fwlib_com_km4ns.a(ameba_clk_rom.o)
 .data          0x0000000000000000        0x0 /home/eric_gao/repo/repoe/amebagreen2_gcc_project/build/project_km4ns/asdk/make_rom/fwlib_com/lib_rom_fwlib_com_km4ns.a(ameba_delay_rom.o)
 .data          0x0000000000000000        0x0 /home/eric_gao/repo/repoe/amebagreen2_gcc_project/build/project_km4ns/asdk/make_rom/fwlib_com/lib_rom_fwlib_com_km4ns.a(ameba_monitor_rom.o)
 .data          0x0000000000000000        0x0 /home/eric_gao/repo/repoe/amebagreen2_gcc_project/build/project_km4ns/asdk/make_rom/fwlib_com/lib_rom_fwlib_com_km4ns.a(ameba_sema_rom.o)
 .data          0x0000000000000000        0x0 /home/eric_gao/repo/repoe/amebagreen2_gcc_project/build/project_km4ns/asdk/make_rom/fwlib_com/lib_rom_fwlib_com_km4ns.a(ameba_systimer_rom.o)
 .data          0x0000000000000000        0x0 /home/eric_gao/repo/repoe/amebagreen2_gcc_project/build/project_km4ns/asdk/make_rom/fwlib_com/lib_rom_fwlib_com_km4ns.a(ameba_wdg.o)
 .data          0x0000000000000000        0x0 /home/eric_gao/repo/repoe/amebagreen2_gcc_project/build/project_km4ns/asdk/make_rom/string/lib_rom_string_km4ns.a(char2num.o)
 .data          0x0000000000000000        0x0 /home/eric_gao/repo/repoe/amebagreen2_gcc_project/build/project_km4ns/asdk/make_rom/string/lib_rom_string_km4ns.a(memchr.o)
 .data          0x0000000000000000        0x0 /home/eric_gao/repo/repoe/amebagreen2_gcc_project/build/project_km4ns/asdk/make_rom/string/lib_rom_string_km4ns.a(memcmp.o)
 .data          0x0000000000000000        0x0 /home/eric_gao/repo/repoe/amebagreen2_gcc_project/build/project_km4ns/asdk/make_rom/string/lib_rom_string_km4ns.a(memcpy.o)
 .data          0x0000000000000000        0x0 /home/eric_gao/repo/repoe/amebagreen2_gcc_project/build/project_km4ns/asdk/make_rom/string/lib_rom_string_km4ns.a(memmove.o)
 .data          0x0000000000000000        0x0 /home/eric_gao/repo/repoe/amebagreen2_gcc_project/build/project_km4ns/asdk/make_rom/string/lib_rom_string_km4ns.a(memset.o)
 .data          0x0000000000000000        0x0 /home/eric_gao/repo/repoe/amebagreen2_gcc_project/build/project_km4ns/asdk/make_rom/string/lib_rom_string_km4ns.a(sscanf_minimal.o)
 .data          0x0000000000000000        0x0 /home/eric_gao/repo/repoe/amebagreen2_gcc_project/build/project_km4ns/asdk/make_rom/string/lib_rom_string_km4ns.a(strcmp.o)
 .data          0x0000000000000000        0x0 /home/eric_gao/repo/repoe/amebagreen2_gcc_project/build/project_km4ns/asdk/make_rom/string/lib_rom_string_km4ns.a(strcpy.o)
 .data          0x0000000000000000        0x0 /home/eric_gao/repo/repoe/amebagreen2_gcc_project/build/project_km4ns/asdk/make_rom/string/lib_rom_string_km4ns.a(stricmp.o)
 .data          0x0000000000000000        0x0 /home/eric_gao/repo/repoe/amebagreen2_gcc_project/build/project_km4ns/asdk/make_rom/string/lib_rom_string_km4ns.a(strlen.o)
 .data          0x0000000000000000        0x0 /home/eric_gao/repo/repoe/amebagreen2_gcc_project/build/project_km4ns/asdk/make_rom/string/lib_rom_string_km4ns.a(strncpy.o)
 .data          0x0000000000000000        0x0 /home/eric_gao/repo/repoe/amebagreen2_gcc_project/build/project_km4ns/asdk/make_rom/string/lib_rom_string_km4ns.a(strtol.o)
 .data          0x0000000000000000        0x0 /home/eric_gao/repo/repoe/amebagreen2_gcc_project/build/project_km4ns/asdk/make_rom/string/lib_rom_string_km4ns.a(strtoul.o)
 .data          0x0000000000000000        0x0 /home/eric_gao/repo/repoe/amebagreen2_gcc_project/build/project_km4ns/asdk/make_rom/string/lib_rom_string_km4ns.a(strupr.o)
 .data          0x0000000000000000        0x0 /home/eric_gao/repo/repoe/amebagreen2_gcc_project/build/project_km4ns/asdk/make_rom/string/lib_rom_string_km4ns.a(strwrap.o)
 .data          0x0000000000000000        0x0 /home/eric_gao/repo/repoe/amebagreen2_gcc_project/build/project_km4ns/asdk/make_rom/stdlib/lib_rom_stdlib_km4ns.a(diag.o)
 .data          0x0000000000000000        0x0 /home/eric_gao/repo/repoe/amebagreen2_gcc_project/build/project_km4ns/asdk/make_rom/stdlib/lib_rom_stdlib_km4ns.a(log.o)
 .data          0x0000000000000000        0x0 /home/eric_gao/repo/repoe/amebagreen2_gcc_project/build/project_km4ns/asdk/make_rom/crashdump/lib_rom_crashdump_km4ns.a(ameba_dump_stack.o)
 .data          0x0000000000000000        0x0 /home/eric_gao/repo/repoe/amebagreen2_gcc_project/build/project_km4ns/asdk/make_rom/crashdump/lib_rom_crashdump_km4ns.a(ameba_v8m_crashdump.o)
 *(.bss*)
 .bss           0x0000000000000000        0x0 /home/eric_gao/repo/repoe/amebagreen2_gcc_project/build/project_km4ns/asdk/make_rom/fwlib/lib_rom_fwlib_km4ns.a(ameba_boot_rom.o)
 .bss           0x0000000000000000        0x0 /home/eric_gao/repo/repoe/amebagreen2_gcc_project/build/project_km4ns/asdk/make_rom/fwlib/lib_rom_fwlib_km4ns.a(ameba_vector_rom.o)
 .bss           0x0000000000000000        0x0 /home/eric_gao/repo/repoe/amebagreen2_gcc_project/build/project_km4ns/asdk/make_rom/fwlib/lib_rom_fwlib_km4ns.a(ameba_vectors.o)
 .bss           0x0000000000000000        0x0 /home/eric_gao/repo/repoe/amebagreen2_gcc_project/build/project_km4ns/asdk/make_rom/fwlib_com/lib_rom_fwlib_com_km4ns.a(ameba_crypto_aes.o)
 .bss           0x0000000000000000        0x0 /home/eric_gao/repo/repoe/amebagreen2_gcc_project/build/project_km4ns/asdk/make_rom/fwlib_com/lib_rom_fwlib_com_km4ns.a(ameba_crypto_sha.o)
 .bss           0x0000000000000000        0x0 /home/eric_gao/repo/repoe/amebagreen2_gcc_project/build/project_km4ns/asdk/make_rom/fwlib_com/lib_rom_fwlib_com_km4ns.a(ameba_crypto.o)
 .bss           0x0000000000000000        0x0 /home/eric_gao/repo/repoe/amebagreen2_gcc_project/build/project_km4ns/asdk/make_rom/fwlib_com/lib_rom_fwlib_com_km4ns.a(ameba_pke_ecc.o)
 .bss           0x0000000000000000        0x0 /home/eric_gao/repo/repoe/amebagreen2_gcc_project/build/project_km4ns/asdk/make_rom/fwlib_com/lib_rom_fwlib_com_km4ns.a(ameba_pke_rsa.o)
 .bss           0x0000000000000000        0x0 /home/eric_gao/repo/repoe/amebagreen2_gcc_project/build/project_km4ns/asdk/make_rom/fwlib_com/lib_rom_fwlib_com_km4ns.a(ameba_pke_common.o)
 .bss           0x0000000000000000        0x0 /home/eric_gao/repo/repoe/amebagreen2_gcc_project/build/project_km4ns/asdk/make_rom/fwlib_com/lib_rom_fwlib_com_km4ns.a(ameba_assert_rom.o)
 .bss           0x0000000000000000        0x0 /home/eric_gao/repo/repoe/amebagreen2_gcc_project/build/project_km4ns/asdk/make_rom/fwlib_com/lib_rom_fwlib_com_km4ns.a(ameba_flash_rom.o)
 .bss           0x0000000000000000        0x0 /home/eric_gao/repo/repoe/amebagreen2_gcc_project/build/project_km4ns/asdk/make_rom/fwlib_com/lib_rom_fwlib_com_km4ns.a(ameba_otp_rom.o)
 .bss           0x0000000000000000        0x0 /home/eric_gao/repo/repoe/amebagreen2_gcc_project/build/project_km4ns/asdk/make_rom/fwlib_com/lib_rom_fwlib_com_km4ns.a(ameba_shell_rom.o)
 .bss           0x0000000000000000        0x0 /home/eric_gao/repo/repoe/amebagreen2_gcc_project/build/project_km4ns/asdk/make_rom/fwlib_com/lib_rom_fwlib_com_km4ns.a(ameba_tim_rom.o)
 .bss           0x0000000000000000        0x0 /home/eric_gao/repo/repoe/amebagreen2_gcc_project/build/project_km4ns/asdk/make_rom/fwlib_com/lib_rom_fwlib_com_km4ns.a(ameba_backup_reg.o)
 .bss           0x0000000000000000        0x0 /home/eric_gao/repo/repoe/amebagreen2_gcc_project/build/project_km4ns/asdk/make_rom/fwlib_com/lib_rom_fwlib_com_km4ns.a(ameba_gpio_rom.o)
 .bss           0x0000000000000000        0x0 /home/eric_gao/repo/repoe/amebagreen2_gcc_project/build/project_km4ns/asdk/make_rom/fwlib_com/lib_rom_fwlib_com_km4ns.a(ameba_pinmux_rom.o)
 .bss           0x0000000000000000        0x0 /home/eric_gao/repo/repoe/amebagreen2_gcc_project/build/project_km4ns/asdk/make_rom/fwlib_com/lib_rom_fwlib_com_km4ns.a(ameba_rcc_rom.o)
 .bss           0x0000000000000000        0x0 /home/eric_gao/repo/repoe/amebagreen2_gcc_project/build/project_km4ns/asdk/make_rom/fwlib_com/lib_rom_fwlib_com_km4ns.a(ameba_spinand_rom.o)
 .bss           0x0000000000000000        0x0 /home/eric_gao/repo/repoe/amebagreen2_gcc_project/build/project_km4ns/asdk/make_rom/fwlib_com/lib_rom_fwlib_com_km4ns.a(ameba_trng.o)
 .bss           0x0000000000000000        0x0 /home/eric_gao/repo/repoe/amebagreen2_gcc_project/build/project_km4ns/asdk/make_rom/fwlib_com/lib_rom_fwlib_com_km4ns.a(ameba_chipinfo_rom.o)
 .bss           0x0000000000000000        0x0 /home/eric_gao/repo/repoe/amebagreen2_gcc_project/build/project_km4ns/asdk/make_rom/fwlib_com/lib_rom_fwlib_com_km4ns.a(ameba_loguart_rom.o)
 .bss           0x0000000000000000        0x0 /home/eric_gao/repo/repoe/amebagreen2_gcc_project/build/project_km4ns/asdk/make_rom/fwlib_com/lib_rom_fwlib_com_km4ns.a(ameba_sdio_rom.o)
 .bss           0x0000000000000000        0x0 /home/eric_gao/repo/repoe/amebagreen2_gcc_project/build/project_km4ns/asdk/make_rom/fwlib_com/lib_rom_fwlib_com_km4ns.a(ameba_syscfg_rom.o)
 .bss           0x0000000000000000        0x0 /home/eric_gao/repo/repoe/amebagreen2_gcc_project/build/project_km4ns/asdk/make_rom/fwlib_com/lib_rom_fwlib_com_km4ns.a(ameba_uart_rom.o)
 .bss           0x0000000000000000        0x0 /home/eric_gao/repo/repoe/amebagreen2_gcc_project/build/project_km4ns/asdk/make_rom/fwlib_com/lib_rom_fwlib_com_km4ns.a(ameba_clk_rom.o)
 .bss           0x0000000000000000        0x0 /home/eric_gao/repo/repoe/amebagreen2_gcc_project/build/project_km4ns/asdk/make_rom/fwlib_com/lib_rom_fwlib_com_km4ns.a(ameba_delay_rom.o)
 .bss           0x0000000000000000        0x0 /home/eric_gao/repo/repoe/amebagreen2_gcc_project/build/project_km4ns/asdk/make_rom/fwlib_com/lib_rom_fwlib_com_km4ns.a(ameba_monitor_rom.o)
 .bss           0x0000000000000000        0x0 /home/eric_gao/repo/repoe/amebagreen2_gcc_project/build/project_km4ns/asdk/make_rom/fwlib_com/lib_rom_fwlib_com_km4ns.a(ameba_sema_rom.o)
 .bss           0x0000000000000000        0x0 /home/eric_gao/repo/repoe/amebagreen2_gcc_project/build/project_km4ns/asdk/make_rom/fwlib_com/lib_rom_fwlib_com_km4ns.a(ameba_systimer_rom.o)
 .bss           0x0000000000000000        0x0 /home/eric_gao/repo/repoe/amebagreen2_gcc_project/build/project_km4ns/asdk/make_rom/fwlib_com/lib_rom_fwlib_com_km4ns.a(ameba_wdg.o)
 .bss           0x0000000000000000        0x0 /home/eric_gao/repo/repoe/amebagreen2_gcc_project/build/project_km4ns/asdk/make_rom/string/lib_rom_string_km4ns.a(char2num.o)
 .bss           0x0000000000000000        0x0 /home/eric_gao/repo/repoe/amebagreen2_gcc_project/build/project_km4ns/asdk/make_rom/string/lib_rom_string_km4ns.a(memchr.o)
 .bss           0x0000000000000000        0x0 /home/eric_gao/repo/repoe/amebagreen2_gcc_project/build/project_km4ns/asdk/make_rom/string/lib_rom_string_km4ns.a(memcmp.o)
 .bss           0x0000000000000000        0x0 /home/eric_gao/repo/repoe/amebagreen2_gcc_project/build/project_km4ns/asdk/make_rom/string/lib_rom_string_km4ns.a(memcpy.o)
 .bss           0x0000000000000000        0x0 /home/eric_gao/repo/repoe/amebagreen2_gcc_project/build/project_km4ns/asdk/make_rom/string/lib_rom_string_km4ns.a(memmove.o)
 .bss           0x0000000000000000        0x0 /home/eric_gao/repo/repoe/amebagreen2_gcc_project/build/project_km4ns/asdk/make_rom/string/lib_rom_string_km4ns.a(memset.o)
 .bss           0x0000000000000000        0x0 /home/eric_gao/repo/repoe/amebagreen2_gcc_project/build/project_km4ns/asdk/make_rom/string/lib_rom_string_km4ns.a(sscanf_minimal.o)
 .bss           0x0000000000000000        0x0 /home/eric_gao/repo/repoe/amebagreen2_gcc_project/build/project_km4ns/asdk/make_rom/string/lib_rom_string_km4ns.a(strcmp.o)
 .bss           0x0000000000000000        0x0 /home/eric_gao/repo/repoe/amebagreen2_gcc_project/build/project_km4ns/asdk/make_rom/string/lib_rom_string_km4ns.a(strcpy.o)
 .bss           0x0000000000000000        0x0 /home/eric_gao/repo/repoe/amebagreen2_gcc_project/build/project_km4ns/asdk/make_rom/string/lib_rom_string_km4ns.a(stricmp.o)
 .bss           0x0000000000000000        0x0 /home/eric_gao/repo/repoe/amebagreen2_gcc_project/build/project_km4ns/asdk/make_rom/string/lib_rom_string_km4ns.a(strlen.o)
 .bss           0x0000000000000000        0x0 /home/eric_gao/repo/repoe/amebagreen2_gcc_project/build/project_km4ns/asdk/make_rom/string/lib_rom_string_km4ns.a(strncpy.o)
 .bss           0x0000000000000000        0x0 /home/eric_gao/repo/repoe/amebagreen2_gcc_project/build/project_km4ns/asdk/make_rom/string/lib_rom_string_km4ns.a(strtol.o)
 .bss           0x0000000000000000        0x0 /home/eric_gao/repo/repoe/amebagreen2_gcc_project/build/project_km4ns/asdk/make_rom/string/lib_rom_string_km4ns.a(strtoul.o)
 .bss           0x0000000000000000        0x0 /home/eric_gao/repo/repoe/amebagreen2_gcc_project/build/project_km4ns/asdk/make_rom/string/lib_rom_string_km4ns.a(strupr.o)
 .bss           0x0000000000000000        0x0 /home/eric_gao/repo/repoe/amebagreen2_gcc_project/build/project_km4ns/asdk/make_rom/string/lib_rom_string_km4ns.a(strwrap.o)
 .bss           0x0000000000000000        0x0 /home/eric_gao/repo/repoe/amebagreen2_gcc_project/build/project_km4ns/asdk/make_rom/stdlib/lib_rom_stdlib_km4ns.a(diag.o)
 .bss           0x0000000000000000        0x0 /home/eric_gao/repo/repoe/amebagreen2_gcc_project/build/project_km4ns/asdk/make_rom/stdlib/lib_rom_stdlib_km4ns.a(log.o)
 .bss           0x0000000000000000        0x0 /home/eric_gao/repo/repoe/amebagreen2_gcc_project/build/project_km4ns/asdk/make_rom/crashdump/lib_rom_crashdump_km4ns.a(ameba_dump_stack.o)
 .bss           0x0000000000000000        0x0 /home/eric_gao/repo/repoe/amebagreen2_gcc_project/build/project_km4ns/asdk/make_rom/crashdump/lib_rom_crashdump_km4ns.a(ameba_v8m_crashdump.o)

.os.rom.data    0x0000000000000000        0x0
 .os.rom.data   0x0000000000000000        0x0 /home/eric_gao/repo/repoe/amebagreen2_gcc_project/build/project_km4ns/asdk/make_rom/os/lib_rom_os_km4ns.a(tasks.o)
 .os.rom.data   0x0000000000000000        0x0 /home/eric_gao/repo/repoe/amebagreen2_gcc_project/build/project_km4ns/asdk/make_rom/os/lib_rom_os_km4ns.a(list.o)
 .os.rom.data   0x0000000000000000        0x0 /home/eric_gao/repo/repoe/amebagreen2_gcc_project/build/project_km4ns/asdk/make_rom/os/lib_rom_os_km4ns.a(croutine.o)
 .os.rom.data   0x0000000000000000        0x0 /home/eric_gao/repo/repoe/amebagreen2_gcc_project/build/project_km4ns/asdk/make_rom/os/lib_rom_os_km4ns.a(queue.o)
 .os.rom.data   0x0000000000000000        0x0 /home/eric_gao/repo/repoe/amebagreen2_gcc_project/build/project_km4ns/asdk/make_rom/os/lib_rom_os_km4ns.a(timers.o)
 .os.rom.data   0x0000000000000000        0x0 /home/eric_gao/repo/repoe/amebagreen2_gcc_project/build/project_km4ns/asdk/make_rom/os/lib_rom_os_km4ns.a(event_groups.o)
 .os.rom.data   0x0000000000000000        0x0 /home/eric_gao/repo/repoe/amebagreen2_gcc_project/build/project_km4ns/asdk/make_rom/os/lib_rom_os_km4ns.a(stream_buffer.o)
 .os.rom.data   0x0000000000000000        0x0 /home/eric_gao/repo/repoe/amebagreen2_gcc_project/build/project_km4ns/asdk/make_rom/os/lib_rom_os_km4ns.a(port.o)
 .os.rom.data   0x0000000000000000        0x0 /home/eric_gao/repo/repoe/amebagreen2_gcc_project/build/project_km4ns/asdk/make_rom/os/lib_rom_os_km4ns.a(portasm.o)
 .os.rom.data   0x0000000000000000        0x0 /home/eric_gao/repo/repoe/amebagreen2_gcc_project/build/project_km4ns/asdk/make_rom/os/lib_rom_os_km4ns.a(heap_5.o)
 .os.rom.data   0x0000000000000000        0x0 /home/eric_gao/repo/repoe/amebagreen2_gcc_project/build/project_km4ns/asdk/make_rom/os/lib_rom_os_km4ns.a(os_cfg.o)

.wifi.rom.data  0x0000000000000000        0x0
 .wifi.rom.data
                0x0000000000000000        0x0 /home/eric_gao/repo/repoe/amebagreen2_gcc_project/build/project_km4ns/asdk/make_rom/wifi_driver/lib_rom_wifi_driver_km4ns.a(rom_sha1.o)
 .wifi.rom.data
                0x0000000000000000        0x0 /home/eric_gao/repo/repoe/amebagreen2_gcc_project/build/project_km4ns/asdk/make_rom/wifi_driver/lib_rom_wifi_driver_km4ns.a(rom_md5.o)
 .wifi.rom.data
                0x0000000000000000        0x0 /home/eric_gao/repo/repoe/amebagreen2_gcc_project/build/project_km4ns/asdk/make_rom/wifi_driver/lib_rom_wifi_driver_km4ns.a(rom_aes.o)
 .wifi.rom.data
                0x0000000000000000        0x0 /home/eric_gao/repo/repoe/amebagreen2_gcc_project/build/project_km4ns/asdk/make_rom/wifi_driver/lib_rom_wifi_driver_km4ns.a(rom_rtw_sha256.o)
 .wifi.rom.data
                0x0000000000000000        0x0 /home/eric_gao/repo/repoe/amebagreen2_gcc_project/build/project_km4ns/asdk/make_rom/wifi_driver/lib_rom_wifi_driver_km4ns.a(rom_rtw_dh_groups.o)
 .wifi.rom.data
                0x0000000000000000        0x0 /home/eric_gao/repo/repoe/amebagreen2_gcc_project/build/project_km4ns/asdk/make_rom/wifi_driver/lib_rom_wifi_driver_km4ns.a(rom_arc4.o)
 .wifi.rom.data
                0x0000000000000000        0x0 /home/eric_gao/repo/repoe/amebagreen2_gcc_project/build/project_km4ns/asdk/make_rom/wifi_driver/lib_rom_wifi_driver_km4ns.a(rom_rc4.o)
 .wifi.rom.data
                0x0000000000000000        0x0 /home/eric_gao/repo/repoe/amebagreen2_gcc_project/build/project_km4ns/asdk/make_rom/wifi_driver/lib_rom_wifi_driver_km4ns.a(rom_rtw_mbedtls_bignum.o)
 .wifi.rom.data
                0x0000000000000000        0x0 /home/eric_gao/repo/repoe/amebagreen2_gcc_project/build/project_km4ns/asdk/make_rom/wifi_driver/lib_rom_wifi_driver_km4ns.a(rom_rtw_mbedtls_ecp.o)
 .wifi.rom.data
                0x0000000000000000        0x0 /home/eric_gao/repo/repoe/amebagreen2_gcc_project/build/project_km4ns/asdk/make_rom/wifi_driver/lib_rom_wifi_driver_km4ns.a(rom_rtw_mbedtls_ecp_curves.o)
 .wifi.rom.data
                0x0000000000000000        0x0 /home/eric_gao/repo/repoe/amebagreen2_gcc_project/build/project_km4ns/asdk/make_rom/wifi_driver/lib_rom_wifi_driver_km4ns.a(rom_rtw_mbedtls_platform.o)
 .wifi.rom.data
                0x0000000000000000        0x0 /home/eric_gao/repo/repoe/amebagreen2_gcc_project/build/project_km4ns/asdk/make_rom/wifi_driver/lib_rom_wifi_driver_km4ns.a(rom_rtw_mbedtls_func_map.o)
 .wifi.rom.data
                0x0000000000000000        0x0 /home/eric_gao/repo/repoe/amebagreen2_gcc_project/build/project_km4ns/asdk/make_rom/wifi_driver/lib_rom_wifi_driver_km4ns.a(rom_rtw_security.o)
 .wifi.rom.data
                0x0000000000000000        0x0 /home/eric_gao/repo/repoe/amebagreen2_gcc_project/build/project_km4ns/asdk/make_rom/wifi_driver/lib_rom_wifi_driver_km4ns.a(rom_wpa_lite_psk.o)
 .wifi.rom.data
                0x0000000000000000        0x0 /home/eric_gao/repo/repoe/amebagreen2_gcc_project/build/project_km4ns/asdk/make_rom/wifi_driver/lib_rom_wifi_driver_km4ns.a(rom_wpa_lite_part2.o)
 .wifi.rom.data
                0x0000000000000000        0x0 /home/eric_gao/repo/repoe/amebagreen2_gcc_project/build/project_km4ns/asdk/make_rom/wifi_driver/lib_rom_wifi_driver_km4ns.a(rom_wpa_lite_sae.o)
 .wifi.rom.data
                0x0000000000000000        0x0 /home/eric_gao/repo/repoe/amebagreen2_gcc_project/build/project_km4ns/asdk/make_rom/wifi_driver/lib_rom_wifi_driver_km4ns.a(rom_wpa_lite_sae_crypto.o)
 .wifi.rom.data
                0x0000000000000000        0x0 /home/eric_gao/repo/repoe/amebagreen2_gcc_project/build/project_km4ns/asdk/make_rom/wifi_driver/lib_rom_wifi_driver_km4ns.a(rom_rtw_ieee80211.o)
 .wifi.rom.data
                0x0000000000000000        0x0 /home/eric_gao/repo/repoe/amebagreen2_gcc_project/build/project_km4ns/asdk/make_rom/wifi_driver/lib_rom_wifi_driver_km4ns.a(rom_rtw_ieee80211_part2.o)
 .wifi.rom.data
                0x0000000000000000        0x0 /home/eric_gao/repo/repoe/amebagreen2_gcc_project/build/project_km4ns/asdk/make_rom/wifi_driver/lib_rom_wifi_driver_km4ns.a(rom_rtw_probe.o)
 .wifi.rom.data
                0x0000000000000000        0x0 /home/eric_gao/repo/repoe/amebagreen2_gcc_project/build/project_km4ns/asdk/make_rom/wifi_driver/lib_rom_wifi_driver_km4ns.a(rom_rtw_auth.o)
 .wifi.rom.data
                0x0000000000000000        0x0 /home/eric_gao/repo/repoe/amebagreen2_gcc_project/build/project_km4ns/asdk/make_rom/wifi_driver/lib_rom_wifi_driver_km4ns.a(rom_rtw_action.o)
 .wifi.rom.data
                0x0000000000000000        0x0 /home/eric_gao/repo/repoe/amebagreen2_gcc_project/build/project_km4ns/asdk/make_rom/wifi_driver/lib_rom_wifi_driver_km4ns.a(rom_rtw_psk.o)
 .wifi.rom.data
                0x0000000000000000        0x0 /home/eric_gao/repo/repoe/amebagreen2_gcc_project/build/project_km4ns/asdk/make_rom/wifi_driver/lib_rom_wifi_driver_km4ns.a(rom_rtw_pmksa_cache.o)
 .wifi.rom.data
                0x0000000000000000        0x0 /home/eric_gao/repo/repoe/amebagreen2_gcc_project/build/project_km4ns/asdk/make_rom/wifi_driver/lib_rom_wifi_driver_km4ns.a(rom_rtw_rf.o)
 .wifi.rom.data
                0x0000000000000000        0x0 /home/eric_gao/repo/repoe/amebagreen2_gcc_project/build/project_km4ns/asdk/make_rom/wifi_driver/lib_rom_wifi_driver_km4ns.a(rom_rtw_recv.o)
 .wifi.rom.data
                0x0000000000000000        0x0 /home/eric_gao/repo/repoe/amebagreen2_gcc_project/build/project_km4ns/asdk/make_rom/wifi_driver/lib_rom_wifi_driver_km4ns.a(rom_rtw_beacon.o)
 .wifi.rom.data
                0x0000000000000000        0x0 /home/eric_gao/repo/repoe/amebagreen2_gcc_project/build/project_km4ns/asdk/make_rom/wifi_driver/lib_rom_wifi_driver_km4ns.a(rom_rtw_assoc.o)
 .wifi.rom.data
                0x0000000000000000        0x0 /home/eric_gao/repo/repoe/amebagreen2_gcc_project/build/project_km4ns/asdk/make_rom/wifi_driver/lib_rom_wifi_driver_km4ns.a(rom_rtw_vht.o)
 .wifi.rom.data
                0x0000000000000000        0x0 /home/eric_gao/repo/repoe/amebagreen2_gcc_project/build/project_km4ns/asdk/make_rom/wifi_driver/lib_rom_wifi_driver_km4ns.a(rom_rtw_he.o)
 .wifi.rom.data
                0x0000000000000000        0x0 /home/eric_gao/repo/repoe/amebagreen2_gcc_project/build/project_km4ns/asdk/make_rom/wifi_driver/lib_rom_wifi_driver_km4ns.a(rom_rtw_80211w.o)
 .wifi.rom.data
                0x0000000000000000        0x0 /home/eric_gao/repo/repoe/amebagreen2_gcc_project/build/project_km4ns/asdk/make_rom/wifi_driver/lib_rom_wifi_driver_km4ns.a(rom_rtw_rate.o)
 .wifi.rom.data
                0x0000000000000000        0x0 /home/eric_gao/repo/repoe/amebagreen2_gcc_project/build/project_km4ns/asdk/make_rom/wifi_driver/lib_rom_wifi_driver_km4ns.a(rom_rtw_chbw.o)
 .wifi.rom.data
                0x0000000000000000        0x0 /home/eric_gao/repo/repoe/amebagreen2_gcc_project/build/project_km4ns/asdk/make_rom/wifi_driver/lib_rom_wifi_driver_km4ns.a(rom_rtw_11d.o)
 .wifi.rom.data
                0x0000000000000000        0x0 /home/eric_gao/repo/repoe/amebagreen2_gcc_project/build/project_km4ns/asdk/make_rom/wifi_driver/lib_rom_wifi_driver_km4ns.a(rom_rtw_ht.o)
 .wifi.rom.data
                0x0000000000000000        0x0 /home/eric_gao/repo/repoe/amebagreen2_gcc_project/build/project_km4ns/asdk/make_rom/wifi_driver/lib_rom_wifi_driver_km4ns.a(rom_rtw_network.o)
 .wifi.rom.data
                0x0000000000000000        0x0 /home/eric_gao/repo/repoe/amebagreen2_gcc_project/build/project_km4ns/asdk/make_rom/wifi_driver/lib_rom_wifi_driver_km4ns.a(rom_rtw_pmksa_cache_part2.o)
 .wifi.rom.data
                0x0000000000000000        0x0 /home/eric_gao/repo/repoe/amebagreen2_gcc_project/build/project_km4ns/asdk/make_rom/wifi_driver/lib_rom_wifi_driver_km4ns.a(rom_rtw_11d_part2.o)
 .wifi.rom.data
                0x0000000000000000        0x0 /home/eric_gao/repo/repoe/amebagreen2_gcc_project/build/project_km4ns/asdk/make_rom/wifi_driver/lib_rom_wifi_driver_km4ns.a(rom_rtw_he_part2.o)
 .wifi.rom.data
                0x0000000000000000        0x0 /home/eric_gao/repo/repoe/amebagreen2_gcc_project/build/project_km4ns/asdk/make_rom/wifi_driver/lib_rom_wifi_driver_km4ns.a(rom_rtw_shortcut.o)
 .wifi.rom.data
                0x0000000000000000        0x0 /home/eric_gao/repo/repoe/amebagreen2_gcc_project/build/project_km4ns/asdk/make_rom/wifi_driver/lib_rom_wifi_driver_km4ns.a(rom_rtw_setkey.o)
 .wifi.rom.data
                0x0000000000000000        0x0 /home/eric_gao/repo/repoe/amebagreen2_gcc_project/build/project_km4ns/asdk/make_rom/wifi_driver/lib_rom_wifi_driver_km4ns.a(rom_rtw_beacon_part2.o)
 .wifi.rom.data
                0x0000000000000000        0x0 /home/eric_gao/repo/repoe/amebagreen2_gcc_project/build/project_km4ns/asdk/make_rom/wifi_driver/lib_rom_wifi_driver_km4ns.a(rom_rtw_sitesurvey.o)
 .wifi.rom.data
                0x0000000000000000        0x0 /home/eric_gao/repo/repoe/amebagreen2_gcc_project/build/project_km4ns/asdk/make_rom/wifi_driver/lib_rom_wifi_driver_km4ns.a(rom_rtw_sitesurvey_report.o)
 .wifi.rom.data
                0x0000000000000000        0x0 /home/eric_gao/repo/repoe/amebagreen2_gcc_project/build/project_km4ns/asdk/make_rom/wifi_driver/lib_rom_wifi_driver_km4ns.a(rom_rtw_ap_xmit.o)
 .wifi.rom.data
                0x0000000000000000        0x0 /home/eric_gao/repo/repoe/amebagreen2_gcc_project/build/project_km4ns/asdk/make_rom/wifi_driver/lib_rom_wifi_driver_km4ns.a(rom_rtw_addba.o)
 .wifi.rom.data
                0x0000000000000000        0x0 /home/eric_gao/repo/repoe/amebagreen2_gcc_project/build/project_km4ns/asdk/make_rom/wifi_driver/lib_rom_wifi_driver_km4ns.a(rom_rtw_80211w_part2.o)
 .wifi.rom.data
                0x0000000000000000        0x0 /home/eric_gao/repo/repoe/amebagreen2_gcc_project/build/project_km4ns/asdk/make_rom/wifi_driver/lib_rom_wifi_driver_km4ns.a(rom_rtw_auth_part2.o)
 .wifi.rom.data
                0x0000000000000000        0x0 /home/eric_gao/repo/repoe/amebagreen2_gcc_project/build/project_km4ns/asdk/make_rom/wifi_driver/lib_rom_wifi_driver_km4ns.a(rom_rtw_action_part2.o)
 .wifi.rom.data
                0x0000000000000000        0x0 /home/eric_gao/repo/repoe/amebagreen2_gcc_project/build/project_km4ns/asdk/make_rom/wifi_driver/lib_rom_wifi_driver_km4ns.a(rom_rtw_join.o)
 .wifi.rom.data
                0x0000000000000000        0x0 /home/eric_gao/repo/repoe/amebagreen2_gcc_project/build/project_km4ns/asdk/make_rom/wifi_driver/lib_rom_wifi_driver_km4ns.a(rom_rtw_join_result.o)
 .wifi.rom.data
                0x0000000000000000        0x0 /home/eric_gao/repo/repoe/amebagreen2_gcc_project/build/project_km4ns/asdk/make_rom/wifi_driver/lib_rom_wifi_driver_km4ns.a(rom_rtw_assoc_part2.o)
 .wifi.rom.data
                0x0000000000000000        0x0 /home/eric_gao/repo/repoe/amebagreen2_gcc_project/build/project_km4ns/asdk/make_rom/wifi_driver/lib_rom_wifi_driver_km4ns.a(rom_rtw_security_part2.o)
 .wifi.rom.data
                0x0000000000000000        0x0 /home/eric_gao/repo/repoe/amebagreen2_gcc_project/build/project_km4ns/asdk/make_rom/wifi_driver/lib_rom_wifi_driver_km4ns.a(rom_rtw_vht_part2.o)
 .wifi.rom.data
                0x0000000000000000        0x0 /home/eric_gao/repo/repoe/amebagreen2_gcc_project/build/project_km4ns/asdk/make_rom/wifi_driver/lib_rom_wifi_driver_km4ns.a(rom_rtw_xmit.o)
 .wifi.rom.data
                0x0000000000000000        0x0 /home/eric_gao/repo/repoe/amebagreen2_gcc_project/build/project_km4ns/asdk/make_rom/wifi_driver/lib_rom_wifi_driver_km4ns.a(rom_rtw_recv_part2.o)
 .wifi.rom.data
                0x0000000000000000        0x0 /home/eric_gao/repo/repoe/amebagreen2_gcc_project/build/project_km4ns/asdk/make_rom/wifi_driver/lib_rom_wifi_driver_km4ns.a(rom_rtw_recv_reorder.o)
 .wifi.rom.data
                0x0000000000000000        0x0 /home/eric_gao/repo/repoe/amebagreen2_gcc_project/build/project_km4ns/asdk/make_rom/wifi_driver/lib_rom_wifi_driver_km4ns.a(rom_rtw_mgnt.o)
 .wifi.rom.data
                0x0000000000000000        0x0 /home/eric_gao/repo/repoe/amebagreen2_gcc_project/build/project_km4ns/asdk/make_rom/wifi_driver/lib_rom_wifi_driver_km4ns.a(rom_rtw_recv_defrag.o)
 .wifi.rom.data
                0x0000000000000000        0x0 /home/eric_gao/repo/repoe/amebagreen2_gcc_project/build/project_km4ns/asdk/make_rom/wifi_driver/lib_rom_wifi_driver_km4ns.a(rom_rtw_state.o)
 .wifi.rom.data
                0x0000000000000000        0x0 /home/eric_gao/repo/repoe/amebagreen2_gcc_project/build/project_km4ns/asdk/make_rom/wifi_driver/lib_rom_wifi_driver_km4ns.a(rom_rtw_sta_mgt.o)
 .wifi.rom.data
                0x0000000000000000        0x0 /home/eric_gao/repo/repoe/amebagreen2_gcc_project/build/project_km4ns/asdk/make_rom/wifi_driver/lib_rom_wifi_driver_km4ns.a(rom_rtw_ap.o)
 .wifi.rom.data
                0x0000000000000000        0x0 /home/eric_gao/repo/repoe/amebagreen2_gcc_project/build/project_km4ns/asdk/make_rom/wifi_driver/lib_rom_wifi_driver_km4ns.a(rom_rtw_skbuff.o)
 .wifi.rom.data
                0x0000000000000000        0x0 /home/eric_gao/repo/repoe/amebagreen2_gcc_project/build/project_km4ns/asdk/make_rom/wifi_driver/lib_rom_wifi_driver_km4ns.a(rom_wifi_hal_ax.o)
 .wifi.rom.data
                0x0000000000000000        0x0 /home/eric_gao/repo/repoe/amebagreen2_gcc_project/build/project_km4ns/asdk/make_rom/wifi_driver/lib_rom_wifi_driver_km4ns.a(rom_wifi_hal_bcn.o)
 .wifi.rom.data
                0x0000000000000000        0x0 /home/eric_gao/repo/repoe/amebagreen2_gcc_project/build/project_km4ns/asdk/make_rom/wifi_driver/lib_rom_wifi_driver_km4ns.a(rom_wifi_hal_debug.o)
 .wifi.rom.data
                0x0000000000000000        0x0 /home/eric_gao/repo/repoe/amebagreen2_gcc_project/build/project_km4ns/asdk/make_rom/wifi_driver/lib_rom_wifi_driver_km4ns.a(rom_wifi_hal_init.o)
 .wifi.rom.data
                0x0000000000000000        0x0 /home/eric_gao/repo/repoe/amebagreen2_gcc_project/build/project_km4ns/asdk/make_rom/wifi_driver/lib_rom_wifi_driver_km4ns.a(rom_wifi_hal_media_access.o)
 .wifi.rom.data
                0x0000000000000000        0x0 /home/eric_gao/repo/repoe/amebagreen2_gcc_project/build/project_km4ns/asdk/make_rom/wifi_driver/lib_rom_wifi_driver_km4ns.a(rom_wifi_hal_misc.o)
 .wifi.rom.data
                0x0000000000000000        0x0 /home/eric_gao/repo/repoe/amebagreen2_gcc_project/build/project_km4ns/asdk/make_rom/wifi_driver/lib_rom_wifi_driver_km4ns.a(rom_wifi_hal_rate.o)
 .wifi.rom.data
                0x0000000000000000        0x0 /home/eric_gao/repo/repoe/amebagreen2_gcc_project/build/project_km4ns/asdk/make_rom/wifi_driver/lib_rom_wifi_driver_km4ns.a(rom_wifi_hal_secure.o)
 .wifi.rom.data
                0x0000000000000000        0x0 /home/eric_gao/repo/repoe/amebagreen2_gcc_project/build/project_km4ns/asdk/make_rom/wifi_driver/lib_rom_wifi_driver_km4ns.a(rom_wifi_hal_tsf.o)
 .wifi.rom.data
                0x0000000000000000        0x0 /home/eric_gao/repo/repoe/amebagreen2_gcc_project/build/project_km4ns/asdk/make_rom/wifi_driver/lib_rom_wifi_driver_km4ns.a(rom_wifi_hal_txdesc.o)
 .wifi.rom.data
                0x0000000000000000        0x0 /home/eric_gao/repo/repoe/amebagreen2_gcc_project/build/project_km4ns/asdk/make_rom/wifi_driver/lib_rom_wifi_driver_km4ns.a(rom_wifi_hal_rxdesc.o)
 .wifi.rom.data
                0x0000000000000000        0x0 /home/eric_gao/repo/repoe/amebagreen2_gcc_project/build/project_km4ns/asdk/make_rom/wifi_driver/lib_rom_wifi_driver_km4ns.a(rom_wifi_hal_io.o)
 .wifi.rom.data
                0x0000000000000000        0x0 /home/eric_gao/repo/repoe/amebagreen2_gcc_project/build/project_km4ns/asdk/make_rom/wifi_driver/lib_rom_wifi_driver_km4ns.a(rom_hal_debug.o)
 .wifi.rom.data
                0x0000000000000000        0x0 /home/eric_gao/repo/repoe/amebagreen2_gcc_project/build/project_km4ns/asdk/make_rom/wifi_driver/lib_rom_wifi_driver_km4ns.a(rom_hal_xmit.o)
 .wifi.rom.data
                0x0000000000000000        0x0 /home/eric_gao/repo/repoe/amebagreen2_gcc_project/build/project_km4ns/asdk/make_rom/wifi_driver/lib_rom_wifi_driver_km4ns.a(rom_hal_xmit_g1.o)
 .wifi.rom.data
                0x0000000000000000        0x0 /home/eric_gao/repo/repoe/amebagreen2_gcc_project/build/project_km4ns/asdk/make_rom/wifi_driver/lib_rom_wifi_driver_km4ns.a(rom_hal_structs.o)
 .wifi.rom.data
                0x0000000000000000        0x0 /home/eric_gao/repo/repoe/amebagreen2_gcc_project/build/project_km4ns/asdk/make_rom/wifi_driver/lib_rom_wifi_driver_km4ns.a(rom_hal_recv.o)
 .wifi.rom.data
                0x0000000000000000        0x0 /home/eric_gao/repo/repoe/amebagreen2_gcc_project/build/project_km4ns/asdk/make_rom/wifi_driver/lib_rom_wifi_driver_km4ns.a(rom_hal_h2c.o)
 .wifi.rom.data
                0x0000000000000000        0x0 /home/eric_gao/repo/repoe/amebagreen2_gcc_project/build/project_km4ns/asdk/make_rom/wifi_driver/lib_rom_wifi_driver_km4ns.a(rom_hal_h2c_g1.o)
 .wifi.rom.data
                0x0000000000000000        0x0 /home/eric_gao/repo/repoe/amebagreen2_gcc_project/build/project_km4ns/asdk/make_rom/wifi_driver/lib_rom_wifi_driver_km4ns.a(rom_rtw_queue.o)
 .wifi.rom.data
                0x0000000000000000        0x0 /home/eric_gao/repo/repoe/amebagreen2_gcc_project/build/project_km4ns/asdk/make_rom/wifi_driver/lib_rom_wifi_driver_km4ns.a(rom_hal_rom_to_flash.o)

.rom.text.libgcc
                0x0000000000000000        0x0
 *(.text*)
 .text          0x0000000000000000        0x0 /home/eric_gao/repo/repoe/amebagreen2_gcc_project/build/project_km4ns/asdk/make_rom/fwlib/lib_rom_fwlib_km4ns.a(ameba_boot_rom.o)
 .text          0x0000000000000000        0x0 /home/eric_gao/repo/repoe/amebagreen2_gcc_project/build/project_km4ns/asdk/make_rom/fwlib/lib_rom_fwlib_km4ns.a(ameba_vector_rom.o)
 .text          0x0000000000000000        0x0 /home/eric_gao/repo/repoe/amebagreen2_gcc_project/build/project_km4ns/asdk/make_rom/fwlib/lib_rom_fwlib_km4ns.a(ameba_vectors.o)
 .text          0x0000000000000000        0x0 /home/eric_gao/repo/repoe/amebagreen2_gcc_project/build/project_km4ns/asdk/make_rom/fwlib_com/lib_rom_fwlib_com_km4ns.a(ameba_crypto_aes.o)
 .text          0x0000000000000000        0x0 /home/eric_gao/repo/repoe/amebagreen2_gcc_project/build/project_km4ns/asdk/make_rom/fwlib_com/lib_rom_fwlib_com_km4ns.a(ameba_crypto_sha.o)
 .text          0x0000000000000000        0x0 /home/eric_gao/repo/repoe/amebagreen2_gcc_project/build/project_km4ns/asdk/make_rom/fwlib_com/lib_rom_fwlib_com_km4ns.a(ameba_crypto.o)
 .text          0x0000000000000000        0x0 /home/eric_gao/repo/repoe/amebagreen2_gcc_project/build/project_km4ns/asdk/make_rom/fwlib_com/lib_rom_fwlib_com_km4ns.a(ameba_pke_ecc.o)
 .text          0x0000000000000000        0x0 /home/eric_gao/repo/repoe/amebagreen2_gcc_project/build/project_km4ns/asdk/make_rom/fwlib_com/lib_rom_fwlib_com_km4ns.a(ameba_pke_rsa.o)
 .text          0x0000000000000000        0x0 /home/eric_gao/repo/repoe/amebagreen2_gcc_project/build/project_km4ns/asdk/make_rom/fwlib_com/lib_rom_fwlib_com_km4ns.a(ameba_pke_common.o)
 .text          0x0000000000000000        0x0 /home/eric_gao/repo/repoe/amebagreen2_gcc_project/build/project_km4ns/asdk/make_rom/fwlib_com/lib_rom_fwlib_com_km4ns.a(ameba_assert_rom.o)
 .text          0x0000000000000000        0x0 /home/eric_gao/repo/repoe/amebagreen2_gcc_project/build/project_km4ns/asdk/make_rom/fwlib_com/lib_rom_fwlib_com_km4ns.a(ameba_flash_rom.o)
 .text          0x0000000000000000        0x0 /home/eric_gao/repo/repoe/amebagreen2_gcc_project/build/project_km4ns/asdk/make_rom/fwlib_com/lib_rom_fwlib_com_km4ns.a(ameba_otp_rom.o)
 .text          0x0000000000000000        0x0 /home/eric_gao/repo/repoe/amebagreen2_gcc_project/build/project_km4ns/asdk/make_rom/fwlib_com/lib_rom_fwlib_com_km4ns.a(ameba_shell_rom.o)
 .text          0x0000000000000000        0x0 /home/eric_gao/repo/repoe/amebagreen2_gcc_project/build/project_km4ns/asdk/make_rom/fwlib_com/lib_rom_fwlib_com_km4ns.a(ameba_tim_rom.o)
 .text          0x0000000000000000        0x0 /home/eric_gao/repo/repoe/amebagreen2_gcc_project/build/project_km4ns/asdk/make_rom/fwlib_com/lib_rom_fwlib_com_km4ns.a(ameba_backup_reg.o)
 .text          0x0000000000000000        0x0 /home/eric_gao/repo/repoe/amebagreen2_gcc_project/build/project_km4ns/asdk/make_rom/fwlib_com/lib_rom_fwlib_com_km4ns.a(ameba_gpio_rom.o)
 .text          0x0000000000000000        0x0 /home/eric_gao/repo/repoe/amebagreen2_gcc_project/build/project_km4ns/asdk/make_rom/fwlib_com/lib_rom_fwlib_com_km4ns.a(ameba_pinmux_rom.o)
 .text          0x0000000000000000        0x0 /home/eric_gao/repo/repoe/amebagreen2_gcc_project/build/project_km4ns/asdk/make_rom/fwlib_com/lib_rom_fwlib_com_km4ns.a(ameba_rcc_rom.o)
 .text          0x0000000000000000        0x0 /home/eric_gao/repo/repoe/amebagreen2_gcc_project/build/project_km4ns/asdk/make_rom/fwlib_com/lib_rom_fwlib_com_km4ns.a(ameba_spinand_rom.o)
 .text          0x0000000000000000        0x0 /home/eric_gao/repo/repoe/amebagreen2_gcc_project/build/project_km4ns/asdk/make_rom/fwlib_com/lib_rom_fwlib_com_km4ns.a(ameba_trng.o)
 .text          0x0000000000000000        0x0 /home/eric_gao/repo/repoe/amebagreen2_gcc_project/build/project_km4ns/asdk/make_rom/fwlib_com/lib_rom_fwlib_com_km4ns.a(ameba_chipinfo_rom.o)
 .text          0x0000000000000000        0x0 /home/eric_gao/repo/repoe/amebagreen2_gcc_project/build/project_km4ns/asdk/make_rom/fwlib_com/lib_rom_fwlib_com_km4ns.a(ameba_loguart_rom.o)
 .text          0x0000000000000000        0x0 /home/eric_gao/repo/repoe/amebagreen2_gcc_project/build/project_km4ns/asdk/make_rom/fwlib_com/lib_rom_fwlib_com_km4ns.a(ameba_sdio_rom.o)
 .text          0x0000000000000000        0x0 /home/eric_gao/repo/repoe/amebagreen2_gcc_project/build/project_km4ns/asdk/make_rom/fwlib_com/lib_rom_fwlib_com_km4ns.a(ameba_syscfg_rom.o)
 .text          0x0000000000000000        0x0 /home/eric_gao/repo/repoe/amebagreen2_gcc_project/build/project_km4ns/asdk/make_rom/fwlib_com/lib_rom_fwlib_com_km4ns.a(ameba_uart_rom.o)
 .text          0x0000000000000000        0x0 /home/eric_gao/repo/repoe/amebagreen2_gcc_project/build/project_km4ns/asdk/make_rom/fwlib_com/lib_rom_fwlib_com_km4ns.a(ameba_clk_rom.o)
 .text          0x0000000000000000        0x0 /home/eric_gao/repo/repoe/amebagreen2_gcc_project/build/project_km4ns/asdk/make_rom/fwlib_com/lib_rom_fwlib_com_km4ns.a(ameba_delay_rom.o)
 .text          0x0000000000000000        0x0 /home/eric_gao/repo/repoe/amebagreen2_gcc_project/build/project_km4ns/asdk/make_rom/fwlib_com/lib_rom_fwlib_com_km4ns.a(ameba_monitor_rom.o)
 .text          0x0000000000000000        0x0 /home/eric_gao/repo/repoe/amebagreen2_gcc_project/build/project_km4ns/asdk/make_rom/fwlib_com/lib_rom_fwlib_com_km4ns.a(ameba_sema_rom.o)
 .text          0x0000000000000000        0x0 /home/eric_gao/repo/repoe/amebagreen2_gcc_project/build/project_km4ns/asdk/make_rom/fwlib_com/lib_rom_fwlib_com_km4ns.a(ameba_systimer_rom.o)
 .text          0x0000000000000000        0x0 /home/eric_gao/repo/repoe/amebagreen2_gcc_project/build/project_km4ns/asdk/make_rom/fwlib_com/lib_rom_fwlib_com_km4ns.a(ameba_wdg.o)
 .text          0x0000000000000000        0x0 /home/eric_gao/repo/repoe/amebagreen2_gcc_project/build/project_km4ns/asdk/make_rom/string/lib_rom_string_km4ns.a(char2num.o)
 .text          0x0000000000000000        0x0 /home/eric_gao/repo/repoe/amebagreen2_gcc_project/build/project_km4ns/asdk/make_rom/string/lib_rom_string_km4ns.a(memchr.o)
 .text          0x0000000000000000        0x0 /home/eric_gao/repo/repoe/amebagreen2_gcc_project/build/project_km4ns/asdk/make_rom/string/lib_rom_string_km4ns.a(memcmp.o)
 .text          0x0000000000000000        0x0 /home/eric_gao/repo/repoe/amebagreen2_gcc_project/build/project_km4ns/asdk/make_rom/string/lib_rom_string_km4ns.a(memcpy.o)
 .text          0x0000000000000000        0x0 /home/eric_gao/repo/repoe/amebagreen2_gcc_project/build/project_km4ns/asdk/make_rom/string/lib_rom_string_km4ns.a(memmove.o)
 .text          0x0000000000000000        0x0 /home/eric_gao/repo/repoe/amebagreen2_gcc_project/build/project_km4ns/asdk/make_rom/string/lib_rom_string_km4ns.a(memset.o)
 .text          0x0000000000000000        0x0 /home/eric_gao/repo/repoe/amebagreen2_gcc_project/build/project_km4ns/asdk/make_rom/string/lib_rom_string_km4ns.a(sscanf_minimal.o)
 .text          0x0000000000000000        0x0 /home/eric_gao/repo/repoe/amebagreen2_gcc_project/build/project_km4ns/asdk/make_rom/string/lib_rom_string_km4ns.a(strcmp.o)
 .text          0x0000000000000000        0x0 /home/eric_gao/repo/repoe/amebagreen2_gcc_project/build/project_km4ns/asdk/make_rom/string/lib_rom_string_km4ns.a(strcpy.o)
 .text          0x0000000000000000        0x0 /home/eric_gao/repo/repoe/amebagreen2_gcc_project/build/project_km4ns/asdk/make_rom/string/lib_rom_string_km4ns.a(stricmp.o)
 .text          0x0000000000000000        0x0 /home/eric_gao/repo/repoe/amebagreen2_gcc_project/build/project_km4ns/asdk/make_rom/string/lib_rom_string_km4ns.a(strlen.o)
 .text          0x0000000000000000        0x0 /home/eric_gao/repo/repoe/amebagreen2_gcc_project/build/project_km4ns/asdk/make_rom/string/lib_rom_string_km4ns.a(strncpy.o)
 .text          0x0000000000000000        0x0 /home/eric_gao/repo/repoe/amebagreen2_gcc_project/build/project_km4ns/asdk/make_rom/string/lib_rom_string_km4ns.a(strtol.o)
 .text          0x0000000000000000        0x0 /home/eric_gao/repo/repoe/amebagreen2_gcc_project/build/project_km4ns/asdk/make_rom/string/lib_rom_string_km4ns.a(strtoul.o)
 .text          0x0000000000000000        0x0 /home/eric_gao/repo/repoe/amebagreen2_gcc_project/build/project_km4ns/asdk/make_rom/string/lib_rom_string_km4ns.a(strupr.o)
 .text          0x0000000000000000        0x0 /home/eric_gao/repo/repoe/amebagreen2_gcc_project/build/project_km4ns/asdk/make_rom/string/lib_rom_string_km4ns.a(strwrap.o)
 .text          0x0000000000000000        0x0 /home/eric_gao/repo/repoe/amebagreen2_gcc_project/build/project_km4ns/asdk/make_rom/stdlib/lib_rom_stdlib_km4ns.a(diag.o)
 .text          0x0000000000000000        0x0 /home/eric_gao/repo/repoe/amebagreen2_gcc_project/build/project_km4ns/asdk/make_rom/stdlib/lib_rom_stdlib_km4ns.a(log.o)
 .text          0x0000000000000000        0x0 /home/eric_gao/repo/repoe/amebagreen2_gcc_project/build/project_km4ns/asdk/make_rom/crashdump/lib_rom_crashdump_km4ns.a(ameba_dump_stack.o)
 .text          0x0000000000000000        0x0 /home/eric_gao/repo/repoe/amebagreen2_gcc_project/build/project_km4ns/asdk/make_rom/crashdump/lib_rom_crashdump_km4ns.a(ameba_v8m_crashdump.o)
 *(.rodata*)
                0x0000000000000001                ASSERT ((__drom_bank_start__ == __drom_common_end__), assert: [__drom_common_end__, __drom_bank_start__] shall empty.)
LOAD /home/eric_gao/repo/repoe/amebagreen2_gcc_project/build/project_km4ns/asdk/make_rom/fwlib/lib_rom_fwlib_km4ns.a
LOAD /home/eric_gao/repo/repoe/amebagreen2_gcc_project/build/project_km4ns/asdk/make_rom/fwlib_com/lib_rom_fwlib_com_km4ns.a
LOAD /home/eric_gao/repo/repoe/amebagreen2_gcc_project/build/project_km4ns/asdk/make_rom/string/lib_rom_string_km4ns.a
LOAD /home/eric_gao/repo/repoe/amebagreen2_gcc_project/build/project_km4ns/asdk/make_rom/stdlib/lib_rom_stdlib_km4ns.a
LOAD /home/eric_gao/repo/repoe/amebagreen2_gcc_project/build/project_km4ns/asdk/make_rom/crashdump/lib_rom_crashdump_km4ns.a
LOAD /home/eric_gao/repo/repoe/amebagreen2_gcc_project/build/project_km4ns/asdk/make_rom/os/lib_rom_os_km4ns.a
LOAD /home/eric_gao/repo/repoe/amebagreen2_gcc_project/build/project_km4ns/asdk/make_rom/wifi_driver/lib_rom_wifi_driver_km4ns.a
OUTPUT(/home/eric_gao/repo/repoe/amebagreen2_gcc_project/build/project_km4ns/asdk/make_rom/rom.o elf32-littlearm)
LOAD linker stubs

.debug_info     0x0000000000000000   0x10bf8d
 .debug_info    0x0000000000000000      0x28e /home/eric_gao/repo/repoe/amebagreen2_gcc_project/build/project_km4ns/asdk/make_rom/fwlib/lib_rom_fwlib_km4ns.a(ameba_boot_rom.o)
 .debug_info    0x000000000000028e     0x1ee6 /home/eric_gao/repo/repoe/amebagreen2_gcc_project/build/project_km4ns/asdk/make_rom/fwlib/lib_rom_fwlib_km4ns.a(ameba_vector_rom.o)
 .debug_info    0x0000000000002174     0x34b6 /home/eric_gao/repo/repoe/amebagreen2_gcc_project/build/project_km4ns/asdk/make_rom/fwlib_com/lib_rom_fwlib_com_km4ns.a(ameba_crypto_aes.o)
 .debug_info    0x000000000000562a     0x2800 /home/eric_gao/repo/repoe/amebagreen2_gcc_project/build/project_km4ns/asdk/make_rom/fwlib_com/lib_rom_fwlib_com_km4ns.a(ameba_crypto_sha.o)
 .debug_info    0x0000000000007e2a      0x904 /home/eric_gao/repo/repoe/amebagreen2_gcc_project/build/project_km4ns/asdk/make_rom/fwlib_com/lib_rom_fwlib_com_km4ns.a(ameba_crypto.o)
 .debug_info    0x000000000000872e     0x2e4d /home/eric_gao/repo/repoe/amebagreen2_gcc_project/build/project_km4ns/asdk/make_rom/fwlib_com/lib_rom_fwlib_com_km4ns.a(ameba_pke_ecc.o)
 .debug_info    0x000000000000b57b      0x59b /home/eric_gao/repo/repoe/amebagreen2_gcc_project/build/project_km4ns/asdk/make_rom/fwlib_com/lib_rom_fwlib_com_km4ns.a(ameba_pke_rsa.o)
 .debug_info    0x000000000000bb16      0x97a /home/eric_gao/repo/repoe/amebagreen2_gcc_project/build/project_km4ns/asdk/make_rom/fwlib_com/lib_rom_fwlib_com_km4ns.a(ameba_pke_common.o)
 .debug_info    0x000000000000c490      0x199 /home/eric_gao/repo/repoe/amebagreen2_gcc_project/build/project_km4ns/asdk/make_rom/fwlib_com/lib_rom_fwlib_com_km4ns.a(ameba_assert_rom.o)
 .debug_info    0x000000000000c629     0x1afa /home/eric_gao/repo/repoe/amebagreen2_gcc_project/build/project_km4ns/asdk/make_rom/fwlib_com/lib_rom_fwlib_com_km4ns.a(ameba_flash_rom.o)
 .debug_info    0x000000000000e123     0x1626 /home/eric_gao/repo/repoe/amebagreen2_gcc_project/build/project_km4ns/asdk/make_rom/fwlib_com/lib_rom_fwlib_com_km4ns.a(ameba_otp_rom.o)
 .debug_info    0x000000000000f749      0xe36 /home/eric_gao/repo/repoe/amebagreen2_gcc_project/build/project_km4ns/asdk/make_rom/fwlib_com/lib_rom_fwlib_com_km4ns.a(ameba_shell_rom.o)
 .debug_info    0x000000000001057f      0x970 /home/eric_gao/repo/repoe/amebagreen2_gcc_project/build/project_km4ns/asdk/make_rom/fwlib_com/lib_rom_fwlib_com_km4ns.a(ameba_tim_rom.o)
 .debug_info    0x0000000000010eef      0x252 /home/eric_gao/repo/repoe/amebagreen2_gcc_project/build/project_km4ns/asdk/make_rom/fwlib_com/lib_rom_fwlib_com_km4ns.a(ameba_backup_reg.o)
 .debug_info    0x0000000000011141     0x1243 /home/eric_gao/repo/repoe/amebagreen2_gcc_project/build/project_km4ns/asdk/make_rom/fwlib_com/lib_rom_fwlib_com_km4ns.a(ameba_gpio_rom.o)
 .debug_info    0x0000000000012384      0x939 /home/eric_gao/repo/repoe/amebagreen2_gcc_project/build/project_km4ns/asdk/make_rom/fwlib_com/lib_rom_fwlib_com_km4ns.a(ameba_pinmux_rom.o)
 .debug_info    0x0000000000012cbd      0x1c0 /home/eric_gao/repo/repoe/amebagreen2_gcc_project/build/project_km4ns/asdk/make_rom/fwlib_com/lib_rom_fwlib_com_km4ns.a(ameba_rcc_rom.o)
 .debug_info    0x0000000000012e7d     0x1a74 /home/eric_gao/repo/repoe/amebagreen2_gcc_project/build/project_km4ns/asdk/make_rom/fwlib_com/lib_rom_fwlib_com_km4ns.a(ameba_spinand_rom.o)
 .debug_info    0x00000000000148f1      0xadd /home/eric_gao/repo/repoe/amebagreen2_gcc_project/build/project_km4ns/asdk/make_rom/fwlib_com/lib_rom_fwlib_com_km4ns.a(ameba_trng.o)
 .debug_info    0x00000000000153ce      0x365 /home/eric_gao/repo/repoe/amebagreen2_gcc_project/build/project_km4ns/asdk/make_rom/fwlib_com/lib_rom_fwlib_com_km4ns.a(ameba_chipinfo_rom.o)
 .debug_info    0x0000000000015733     0x19e6 /home/eric_gao/repo/repoe/amebagreen2_gcc_project/build/project_km4ns/asdk/make_rom/fwlib_com/lib_rom_fwlib_com_km4ns.a(ameba_loguart_rom.o)
 .debug_info    0x0000000000017119      0x88c /home/eric_gao/repo/repoe/amebagreen2_gcc_project/build/project_km4ns/asdk/make_rom/fwlib_com/lib_rom_fwlib_com_km4ns.a(ameba_sdio_rom.o)
 .debug_info    0x00000000000179a5      0xa48 /home/eric_gao/repo/repoe/amebagreen2_gcc_project/build/project_km4ns/asdk/make_rom/fwlib_com/lib_rom_fwlib_com_km4ns.a(ameba_syscfg_rom.o)
 .debug_info    0x00000000000183ed      0xcc4 /home/eric_gao/repo/repoe/amebagreen2_gcc_project/build/project_km4ns/asdk/make_rom/fwlib_com/lib_rom_fwlib_com_km4ns.a(ameba_uart_rom.o)
 .debug_info    0x00000000000190b1      0x1ad /home/eric_gao/repo/repoe/amebagreen2_gcc_project/build/project_km4ns/asdk/make_rom/fwlib_com/lib_rom_fwlib_com_km4ns.a(ameba_clk_rom.o)
 .debug_info    0x000000000001925e      0x28e /home/eric_gao/repo/repoe/amebagreen2_gcc_project/build/project_km4ns/asdk/make_rom/fwlib_com/lib_rom_fwlib_com_km4ns.a(ameba_delay_rom.o)
 .debug_info    0x00000000000194ec      0x8cc /home/eric_gao/repo/repoe/amebagreen2_gcc_project/build/project_km4ns/asdk/make_rom/fwlib_com/lib_rom_fwlib_com_km4ns.a(ameba_monitor_rom.o)
 .debug_info    0x0000000000019db8      0x260 /home/eric_gao/repo/repoe/amebagreen2_gcc_project/build/project_km4ns/asdk/make_rom/fwlib_com/lib_rom_fwlib_com_km4ns.a(ameba_sema_rom.o)
 .debug_info    0x000000000001a018      0x649 /home/eric_gao/repo/repoe/amebagreen2_gcc_project/build/project_km4ns/asdk/make_rom/fwlib_com/lib_rom_fwlib_com_km4ns.a(ameba_systimer_rom.o)
 .debug_info    0x000000000001a661      0x481 /home/eric_gao/repo/repoe/amebagreen2_gcc_project/build/project_km4ns/asdk/make_rom/fwlib_com/lib_rom_fwlib_com_km4ns.a(ameba_wdg.o)
 .debug_info    0x000000000001aae2      0x1dc /home/eric_gao/repo/repoe/amebagreen2_gcc_project/build/project_km4ns/asdk/make_rom/string/lib_rom_string_km4ns.a(char2num.o)
 .debug_info    0x000000000001acbe      0x174 /home/eric_gao/repo/repoe/amebagreen2_gcc_project/build/project_km4ns/asdk/make_rom/string/lib_rom_string_km4ns.a(memchr.o)
 .debug_info    0x000000000001ae32      0x13f /home/eric_gao/repo/repoe/amebagreen2_gcc_project/build/project_km4ns/asdk/make_rom/string/lib_rom_string_km4ns.a(memcmp.o)
 .debug_info    0x000000000001af71      0x163 /home/eric_gao/repo/repoe/amebagreen2_gcc_project/build/project_km4ns/asdk/make_rom/string/lib_rom_string_km4ns.a(memcpy.o)
 .debug_info    0x000000000001b0d4      0x159 /home/eric_gao/repo/repoe/amebagreen2_gcc_project/build/project_km4ns/asdk/make_rom/string/lib_rom_string_km4ns.a(memmove.o)
 .debug_info    0x000000000001b22d      0x15c /home/eric_gao/repo/repoe/amebagreen2_gcc_project/build/project_km4ns/asdk/make_rom/string/lib_rom_string_km4ns.a(memset.o)
 .debug_info    0x000000000001b389      0x759 /home/eric_gao/repo/repoe/amebagreen2_gcc_project/build/project_km4ns/asdk/make_rom/string/lib_rom_string_km4ns.a(sscanf_minimal.o)
 .debug_info    0x000000000001bae2       0xf9 /home/eric_gao/repo/repoe/amebagreen2_gcc_project/build/project_km4ns/asdk/make_rom/string/lib_rom_string_km4ns.a(strcmp.o)
 .debug_info    0x000000000001bbdb      0x130 /home/eric_gao/repo/repoe/amebagreen2_gcc_project/build/project_km4ns/asdk/make_rom/string/lib_rom_string_km4ns.a(strcpy.o)
 .debug_info    0x000000000001bd0b      0x129 /home/eric_gao/repo/repoe/amebagreen2_gcc_project/build/project_km4ns/asdk/make_rom/string/lib_rom_string_km4ns.a(stricmp.o)
 .debug_info    0x000000000001be34       0xf5 /home/eric_gao/repo/repoe/amebagreen2_gcc_project/build/project_km4ns/asdk/make_rom/string/lib_rom_string_km4ns.a(strlen.o)
 .debug_info    0x000000000001bf29      0x150 /home/eric_gao/repo/repoe/amebagreen2_gcc_project/build/project_km4ns/asdk/make_rom/string/lib_rom_string_km4ns.a(strncpy.o)
 .debug_info    0x000000000001c079      0x189 /home/eric_gao/repo/repoe/amebagreen2_gcc_project/build/project_km4ns/asdk/make_rom/string/lib_rom_string_km4ns.a(strtol.o)
 .debug_info    0x000000000001c202      0x22b /home/eric_gao/repo/repoe/amebagreen2_gcc_project/build/project_km4ns/asdk/make_rom/string/lib_rom_string_km4ns.a(strtoul.o)
 .debug_info    0x000000000001c42d       0xe7 /home/eric_gao/repo/repoe/amebagreen2_gcc_project/build/project_km4ns/asdk/make_rom/string/lib_rom_string_km4ns.a(strupr.o)
 .debug_info    0x000000000001c514      0x924 /home/eric_gao/repo/repoe/amebagreen2_gcc_project/build/project_km4ns/asdk/make_rom/string/lib_rom_string_km4ns.a(strwrap.o)
 .debug_info    0x000000000001ce38     0x13bb /home/eric_gao/repo/repoe/amebagreen2_gcc_project/build/project_km4ns/asdk/make_rom/stdlib/lib_rom_stdlib_km4ns.a(diag.o)
 .debug_info    0x000000000001e1f3      0xb4e /home/eric_gao/repo/repoe/amebagreen2_gcc_project/build/project_km4ns/asdk/make_rom/stdlib/lib_rom_stdlib_km4ns.a(log.o)
 .debug_info    0x000000000001ed41      0x7e4 /home/eric_gao/repo/repoe/amebagreen2_gcc_project/build/project_km4ns/asdk/make_rom/crashdump/lib_rom_crashdump_km4ns.a(ameba_dump_stack.o)
 .debug_info    0x000000000001f525     0x258d /home/eric_gao/repo/repoe/amebagreen2_gcc_project/build/project_km4ns/asdk/make_rom/crashdump/lib_rom_crashdump_km4ns.a(ameba_v8m_crashdump.o)
 .debug_info    0x0000000000021ab2     0x438a /home/eric_gao/repo/repoe/amebagreen2_gcc_project/build/project_km4ns/asdk/make_rom/os/lib_rom_os_km4ns.a(tasks.o)
 .debug_info    0x0000000000025e3c      0x2f6 /home/eric_gao/repo/repoe/amebagreen2_gcc_project/build/project_km4ns/asdk/make_rom/os/lib_rom_os_km4ns.a(list.o)
 .debug_info    0x0000000000026132      0x817 /home/eric_gao/repo/repoe/amebagreen2_gcc_project/build/project_km4ns/asdk/make_rom/os/lib_rom_os_km4ns.a(croutine.o)
 .debug_info    0x0000000000026949     0x2efc /home/eric_gao/repo/repoe/amebagreen2_gcc_project/build/project_km4ns/asdk/make_rom/os/lib_rom_os_km4ns.a(queue.o)
 .debug_info    0x0000000000029845     0x23e6 /home/eric_gao/repo/repoe/amebagreen2_gcc_project/build/project_km4ns/asdk/make_rom/os/lib_rom_os_km4ns.a(timers.o)
 .debug_info    0x000000000002bc2b      0xe46 /home/eric_gao/repo/repoe/amebagreen2_gcc_project/build/project_km4ns/asdk/make_rom/os/lib_rom_os_km4ns.a(event_groups.o)
 .debug_info    0x000000000002ca71     0x1828 /home/eric_gao/repo/repoe/amebagreen2_gcc_project/build/project_km4ns/asdk/make_rom/os/lib_rom_os_km4ns.a(stream_buffer.o)
 .debug_info    0x000000000002e299     0x12bb /home/eric_gao/repo/repoe/amebagreen2_gcc_project/build/project_km4ns/asdk/make_rom/os/lib_rom_os_km4ns.a(port.o)
 .debug_info    0x000000000002f554      0x1dd /home/eric_gao/repo/repoe/amebagreen2_gcc_project/build/project_km4ns/asdk/make_rom/os/lib_rom_os_km4ns.a(portasm.o)
 .debug_info    0x000000000002f731      0xa5b /home/eric_gao/repo/repoe/amebagreen2_gcc_project/build/project_km4ns/asdk/make_rom/os/lib_rom_os_km4ns.a(heap_5.o)
 .debug_info    0x000000000003018c      0x6b9 /home/eric_gao/repo/repoe/amebagreen2_gcc_project/build/project_km4ns/asdk/make_rom/os/lib_rom_os_km4ns.a(os_cfg.o)
 .debug_info    0x0000000000030845      0x829 /home/eric_gao/repo/repoe/amebagreen2_gcc_project/build/project_km4ns/asdk/make_rom/wifi_driver/lib_rom_wifi_driver_km4ns.a(rom_sha1.o)
 .debug_info    0x000000000003106e      0xb10 /home/eric_gao/repo/repoe/amebagreen2_gcc_project/build/project_km4ns/asdk/make_rom/wifi_driver/lib_rom_wifi_driver_km4ns.a(rom_md5.o)
 .debug_info    0x0000000000031b7e     0x1053 /home/eric_gao/repo/repoe/amebagreen2_gcc_project/build/project_km4ns/asdk/make_rom/wifi_driver/lib_rom_wifi_driver_km4ns.a(rom_aes.o)
 .debug_info    0x0000000000032bd1      0xcdf /home/eric_gao/repo/repoe/amebagreen2_gcc_project/build/project_km4ns/asdk/make_rom/wifi_driver/lib_rom_wifi_driver_km4ns.a(rom_rtw_sha256.o)
 .debug_info    0x00000000000338b0      0x558 /home/eric_gao/repo/repoe/amebagreen2_gcc_project/build/project_km4ns/asdk/make_rom/wifi_driver/lib_rom_wifi_driver_km4ns.a(rom_rtw_dh_groups.o)
 .debug_info    0x0000000000033e08      0x430 /home/eric_gao/repo/repoe/amebagreen2_gcc_project/build/project_km4ns/asdk/make_rom/wifi_driver/lib_rom_wifi_driver_km4ns.a(rom_arc4.o)
 .debug_info    0x0000000000034238      0x280 /home/eric_gao/repo/repoe/amebagreen2_gcc_project/build/project_km4ns/asdk/make_rom/wifi_driver/lib_rom_wifi_driver_km4ns.a(rom_rc4.o)
 .debug_info    0x00000000000344b8     0x4d23 /home/eric_gao/repo/repoe/amebagreen2_gcc_project/build/project_km4ns/asdk/make_rom/wifi_driver/lib_rom_wifi_driver_km4ns.a(rom_rtw_mbedtls_bignum.o)
 .debug_info    0x00000000000391db     0x5999 /home/eric_gao/repo/repoe/amebagreen2_gcc_project/build/project_km4ns/asdk/make_rom/wifi_driver/lib_rom_wifi_driver_km4ns.a(rom_rtw_mbedtls_ecp.o)
 .debug_info    0x000000000003eb74     0x48f8 /home/eric_gao/repo/repoe/amebagreen2_gcc_project/build/project_km4ns/asdk/make_rom/wifi_driver/lib_rom_wifi_driver_km4ns.a(rom_rtw_mbedtls_ecp_curves.o)
 .debug_info    0x000000000004346c      0x10e /home/eric_gao/repo/repoe/amebagreen2_gcc_project/build/project_km4ns/asdk/make_rom/wifi_driver/lib_rom_wifi_driver_km4ns.a(rom_rtw_mbedtls_platform.o)
 .debug_info    0x000000000004357a      0x13f /home/eric_gao/repo/repoe/amebagreen2_gcc_project/build/project_km4ns/asdk/make_rom/wifi_driver/lib_rom_wifi_driver_km4ns.a(rom_rtw_mbedtls_func_map.o)
 .debug_info    0x00000000000436b9     0x2baa /home/eric_gao/repo/repoe/amebagreen2_gcc_project/build/project_km4ns/asdk/make_rom/wifi_driver/lib_rom_wifi_driver_km4ns.a(rom_rtw_security.o)
 .debug_info    0x0000000000046263     0x2e26 /home/eric_gao/repo/repoe/amebagreen2_gcc_project/build/project_km4ns/asdk/make_rom/wifi_driver/lib_rom_wifi_driver_km4ns.a(rom_wpa_lite_psk.o)
 .debug_info    0x0000000000049089     0x2799 /home/eric_gao/repo/repoe/amebagreen2_gcc_project/build/project_km4ns/asdk/make_rom/wifi_driver/lib_rom_wifi_driver_km4ns.a(rom_wpa_lite_part2.o)
 .debug_info    0x000000000004b822     0x3696 /home/eric_gao/repo/repoe/amebagreen2_gcc_project/build/project_km4ns/asdk/make_rom/wifi_driver/lib_rom_wifi_driver_km4ns.a(rom_wpa_lite_sae.o)
 .debug_info    0x000000000004eeb8     0x6f88 /home/eric_gao/repo/repoe/amebagreen2_gcc_project/build/project_km4ns/asdk/make_rom/wifi_driver/lib_rom_wifi_driver_km4ns.a(rom_wpa_lite_sae_crypto.o)
 .debug_info    0x0000000000055e40     0x1b9a /home/eric_gao/repo/repoe/amebagreen2_gcc_project/build/project_km4ns/asdk/make_rom/wifi_driver/lib_rom_wifi_driver_km4ns.a(rom_rtw_ieee80211.o)
 .debug_info    0x00000000000579da     0x24fd /home/eric_gao/repo/repoe/amebagreen2_gcc_project/build/project_km4ns/asdk/make_rom/wifi_driver/lib_rom_wifi_driver_km4ns.a(rom_rtw_ieee80211_part2.o)
 .debug_info    0x0000000000059ed7      0x343 /home/eric_gao/repo/repoe/amebagreen2_gcc_project/build/project_km4ns/asdk/make_rom/wifi_driver/lib_rom_wifi_driver_km4ns.a(rom_rtw_probe.o)
 .debug_info    0x000000000005a21a       0xf4 /home/eric_gao/repo/repoe/amebagreen2_gcc_project/build/project_km4ns/asdk/make_rom/wifi_driver/lib_rom_wifi_driver_km4ns.a(rom_rtw_auth.o)
 .debug_info    0x000000000005a30e      0x362 /home/eric_gao/repo/repoe/amebagreen2_gcc_project/build/project_km4ns/asdk/make_rom/wifi_driver/lib_rom_wifi_driver_km4ns.a(rom_rtw_action.o)
 .debug_info    0x000000000005a670      0x79e /home/eric_gao/repo/repoe/amebagreen2_gcc_project/build/project_km4ns/asdk/make_rom/wifi_driver/lib_rom_wifi_driver_km4ns.a(rom_rtw_psk.o)
 .debug_info    0x000000000005ae0e      0x7f9 /home/eric_gao/repo/repoe/amebagreen2_gcc_project/build/project_km4ns/asdk/make_rom/wifi_driver/lib_rom_wifi_driver_km4ns.a(rom_rtw_pmksa_cache.o)
 .debug_info    0x000000000005b607      0x748 /home/eric_gao/repo/repoe/amebagreen2_gcc_project/build/project_km4ns/asdk/make_rom/wifi_driver/lib_rom_wifi_driver_km4ns.a(rom_rtw_rf.o)
 .debug_info    0x000000000005bd4f      0x32c /home/eric_gao/repo/repoe/amebagreen2_gcc_project/build/project_km4ns/asdk/make_rom/wifi_driver/lib_rom_wifi_driver_km4ns.a(rom_rtw_recv.o)
 .debug_info    0x000000000005c07b     0x1f12 /home/eric_gao/repo/repoe/amebagreen2_gcc_project/build/project_km4ns/asdk/make_rom/wifi_driver/lib_rom_wifi_driver_km4ns.a(rom_rtw_beacon.o)
 .debug_info    0x000000000005df8d     0x1ee8 /home/eric_gao/repo/repoe/amebagreen2_gcc_project/build/project_km4ns/asdk/make_rom/wifi_driver/lib_rom_wifi_driver_km4ns.a(rom_rtw_assoc.o)
 .debug_info    0x000000000005fe75      0x624 /home/eric_gao/repo/repoe/amebagreen2_gcc_project/build/project_km4ns/asdk/make_rom/wifi_driver/lib_rom_wifi_driver_km4ns.a(rom_rtw_vht.o)
 .debug_info    0x0000000000060499      0x69b /home/eric_gao/repo/repoe/amebagreen2_gcc_project/build/project_km4ns/asdk/make_rom/wifi_driver/lib_rom_wifi_driver_km4ns.a(rom_rtw_he.o)
 .debug_info    0x0000000000060b34      0x8e6 /home/eric_gao/repo/repoe/amebagreen2_gcc_project/build/project_km4ns/asdk/make_rom/wifi_driver/lib_rom_wifi_driver_km4ns.a(rom_rtw_80211w.o)
 .debug_info    0x000000000006141a      0x415 /home/eric_gao/repo/repoe/amebagreen2_gcc_project/build/project_km4ns/asdk/make_rom/wifi_driver/lib_rom_wifi_driver_km4ns.a(rom_rtw_rate.o)
 .debug_info    0x000000000006182f      0x288 /home/eric_gao/repo/repoe/amebagreen2_gcc_project/build/project_km4ns/asdk/make_rom/wifi_driver/lib_rom_wifi_driver_km4ns.a(rom_rtw_chbw.o)
 .debug_info    0x0000000000061ab7       0x80 /home/eric_gao/repo/repoe/amebagreen2_gcc_project/build/project_km4ns/asdk/make_rom/wifi_driver/lib_rom_wifi_driver_km4ns.a(rom_rtw_11d.o)
 .debug_info    0x0000000000061b37     0x4437 /home/eric_gao/repo/repoe/amebagreen2_gcc_project/build/project_km4ns/asdk/make_rom/wifi_driver/lib_rom_wifi_driver_km4ns.a(rom_rtw_ht.o)
 .debug_info    0x0000000000065f6e     0x3c93 /home/eric_gao/repo/repoe/amebagreen2_gcc_project/build/project_km4ns/asdk/make_rom/wifi_driver/lib_rom_wifi_driver_km4ns.a(rom_rtw_network.o)
 .debug_info    0x0000000000069c01     0x4259 /home/eric_gao/repo/repoe/amebagreen2_gcc_project/build/project_km4ns/asdk/make_rom/wifi_driver/lib_rom_wifi_driver_km4ns.a(rom_rtw_pmksa_cache_part2.o)
 .debug_info    0x000000000006de5a     0x4101 /home/eric_gao/repo/repoe/amebagreen2_gcc_project/build/project_km4ns/asdk/make_rom/wifi_driver/lib_rom_wifi_driver_km4ns.a(rom_rtw_11d_part2.o)
 .debug_info    0x0000000000071f5b     0x5011 /home/eric_gao/repo/repoe/amebagreen2_gcc_project/build/project_km4ns/asdk/make_rom/wifi_driver/lib_rom_wifi_driver_km4ns.a(rom_rtw_he_part2.o)
 .debug_info    0x0000000000076f6c     0x4d07 /home/eric_gao/repo/repoe/amebagreen2_gcc_project/build/project_km4ns/asdk/make_rom/wifi_driver/lib_rom_wifi_driver_km4ns.a(rom_rtw_shortcut.o)
 .debug_info    0x000000000007bc73     0x46af /home/eric_gao/repo/repoe/amebagreen2_gcc_project/build/project_km4ns/asdk/make_rom/wifi_driver/lib_rom_wifi_driver_km4ns.a(rom_rtw_setkey.o)
 .debug_info    0x0000000000080322     0x5550 /home/eric_gao/repo/repoe/amebagreen2_gcc_project/build/project_km4ns/asdk/make_rom/wifi_driver/lib_rom_wifi_driver_km4ns.a(rom_rtw_beacon_part2.o)
 .debug_info    0x0000000000085872      0xa28 /home/eric_gao/repo/repoe/amebagreen2_gcc_project/build/project_km4ns/asdk/make_rom/wifi_driver/lib_rom_wifi_driver_km4ns.a(rom_rtw_sitesurvey.o)
 .debug_info    0x000000000008629a     0x4b54 /home/eric_gao/repo/repoe/amebagreen2_gcc_project/build/project_km4ns/asdk/make_rom/wifi_driver/lib_rom_wifi_driver_km4ns.a(rom_rtw_sitesurvey_report.o)
 .debug_info    0x000000000008adee     0x4f2f /home/eric_gao/repo/repoe/amebagreen2_gcc_project/build/project_km4ns/asdk/make_rom/wifi_driver/lib_rom_wifi_driver_km4ns.a(rom_rtw_ap_xmit.o)
 .debug_info    0x000000000008fd1d     0x4e83 /home/eric_gao/repo/repoe/amebagreen2_gcc_project/build/project_km4ns/asdk/make_rom/wifi_driver/lib_rom_wifi_driver_km4ns.a(rom_rtw_addba.o)
 .debug_info    0x0000000000094ba0     0x4966 /home/eric_gao/repo/repoe/amebagreen2_gcc_project/build/project_km4ns/asdk/make_rom/wifi_driver/lib_rom_wifi_driver_km4ns.a(rom_rtw_80211w_part2.o)
 .debug_info    0x0000000000099506     0x5c15 /home/eric_gao/repo/repoe/amebagreen2_gcc_project/build/project_km4ns/asdk/make_rom/wifi_driver/lib_rom_wifi_driver_km4ns.a(rom_rtw_auth_part2.o)
 .debug_info    0x000000000009f11b     0x3e14 /home/eric_gao/repo/repoe/amebagreen2_gcc_project/build/project_km4ns/asdk/make_rom/wifi_driver/lib_rom_wifi_driver_km4ns.a(rom_rtw_action_part2.o)
 .debug_info    0x00000000000a2f2f     0x6412 /home/eric_gao/repo/repoe/amebagreen2_gcc_project/build/project_km4ns/asdk/make_rom/wifi_driver/lib_rom_wifi_driver_km4ns.a(rom_rtw_join.o)
 .debug_info    0x00000000000a9341     0x40bf /home/eric_gao/repo/repoe/amebagreen2_gcc_project/build/project_km4ns/asdk/make_rom/wifi_driver/lib_rom_wifi_driver_km4ns.a(rom_rtw_join_result.o)
 .debug_info    0x00000000000ad400     0x7c66 /home/eric_gao/repo/repoe/amebagreen2_gcc_project/build/project_km4ns/asdk/make_rom/wifi_driver/lib_rom_wifi_driver_km4ns.a(rom_rtw_assoc_part2.o)
 .debug_info    0x00000000000b5066     0x5684 /home/eric_gao/repo/repoe/amebagreen2_gcc_project/build/project_km4ns/asdk/make_rom/wifi_driver/lib_rom_wifi_driver_km4ns.a(rom_rtw_security_part2.o)
 .debug_info    0x00000000000ba6ea     0x4bc3 /home/eric_gao/repo/repoe/amebagreen2_gcc_project/build/project_km4ns/asdk/make_rom/wifi_driver/lib_rom_wifi_driver_km4ns.a(rom_rtw_vht_part2.o)
 .debug_info    0x00000000000bf2ad     0x64a0 /home/eric_gao/repo/repoe/amebagreen2_gcc_project/build/project_km4ns/asdk/make_rom/wifi_driver/lib_rom_wifi_driver_km4ns.a(rom_rtw_xmit.o)
 .debug_info    0x00000000000c574d     0x6700 /home/eric_gao/repo/repoe/amebagreen2_gcc_project/build/project_km4ns/asdk/make_rom/wifi_driver/lib_rom_wifi_driver_km4ns.a(rom_rtw_recv_part2.o)
 .debug_info    0x00000000000cbe4d     0x42ba /home/eric_gao/repo/repoe/amebagreen2_gcc_project/build/project_km4ns/asdk/make_rom/wifi_driver/lib_rom_wifi_driver_km4ns.a(rom_rtw_recv_reorder.o)
 .debug_info    0x00000000000d0107     0x3f32 /home/eric_gao/repo/repoe/amebagreen2_gcc_project/build/project_km4ns/asdk/make_rom/wifi_driver/lib_rom_wifi_driver_km4ns.a(rom_rtw_mgnt.o)
 .debug_info    0x00000000000d4039     0x469b /home/eric_gao/repo/repoe/amebagreen2_gcc_project/build/project_km4ns/asdk/make_rom/wifi_driver/lib_rom_wifi_driver_km4ns.a(rom_rtw_recv_defrag.o)
 .debug_info    0x00000000000d86d4     0x42fc /home/eric_gao/repo/repoe/amebagreen2_gcc_project/build/project_km4ns/asdk/make_rom/wifi_driver/lib_rom_wifi_driver_km4ns.a(rom_rtw_state.o)
 .debug_info    0x00000000000dc9d0     0x4336 /home/eric_gao/repo/repoe/amebagreen2_gcc_project/build/project_km4ns/asdk/make_rom/wifi_driver/lib_rom_wifi_driver_km4ns.a(rom_rtw_sta_mgt.o)
 .debug_info    0x00000000000e0d06     0x5190 /home/eric_gao/repo/repoe/amebagreen2_gcc_project/build/project_km4ns/asdk/make_rom/wifi_driver/lib_rom_wifi_driver_km4ns.a(rom_rtw_ap.o)
 .debug_info    0x00000000000e5e96      0xab6 /home/eric_gao/repo/repoe/amebagreen2_gcc_project/build/project_km4ns/asdk/make_rom/wifi_driver/lib_rom_wifi_driver_km4ns.a(rom_rtw_skbuff.o)
 .debug_info    0x00000000000e694c      0x511 /home/eric_gao/repo/repoe/amebagreen2_gcc_project/build/project_km4ns/asdk/make_rom/wifi_driver/lib_rom_wifi_driver_km4ns.a(rom_wifi_hal_ax.o)
 .debug_info    0x00000000000e6e5d      0x265 /home/eric_gao/repo/repoe/amebagreen2_gcc_project/build/project_km4ns/asdk/make_rom/wifi_driver/lib_rom_wifi_driver_km4ns.a(rom_wifi_hal_bcn.o)
 .debug_info    0x00000000000e70c2     0x1444 /home/eric_gao/repo/repoe/amebagreen2_gcc_project/build/project_km4ns/asdk/make_rom/wifi_driver/lib_rom_wifi_driver_km4ns.a(rom_wifi_hal_debug.o)
 .debug_info    0x00000000000e8506      0x8ce /home/eric_gao/repo/repoe/amebagreen2_gcc_project/build/project_km4ns/asdk/make_rom/wifi_driver/lib_rom_wifi_driver_km4ns.a(rom_wifi_hal_init.o)
 .debug_info    0x00000000000e8dd4      0xb3e /home/eric_gao/repo/repoe/amebagreen2_gcc_project/build/project_km4ns/asdk/make_rom/wifi_driver/lib_rom_wifi_driver_km4ns.a(rom_wifi_hal_media_access.o)
 .debug_info    0x00000000000e9912     0x1200 /home/eric_gao/repo/repoe/amebagreen2_gcc_project/build/project_km4ns/asdk/make_rom/wifi_driver/lib_rom_wifi_driver_km4ns.a(rom_wifi_hal_misc.o)
 .debug_info    0x00000000000eab12      0x576 /home/eric_gao/repo/repoe/amebagreen2_gcc_project/build/project_km4ns/asdk/make_rom/wifi_driver/lib_rom_wifi_driver_km4ns.a(rom_wifi_hal_rate.o)
 .debug_info    0x00000000000eb088      0xc52 /home/eric_gao/repo/repoe/amebagreen2_gcc_project/build/project_km4ns/asdk/make_rom/wifi_driver/lib_rom_wifi_driver_km4ns.a(rom_wifi_hal_secure.o)
 .debug_info    0x00000000000ebcda      0x311 /home/eric_gao/repo/repoe/amebagreen2_gcc_project/build/project_km4ns/asdk/make_rom/wifi_driver/lib_rom_wifi_driver_km4ns.a(rom_wifi_hal_tsf.o)
 .debug_info    0x00000000000ebfeb      0xaef /home/eric_gao/repo/repoe/amebagreen2_gcc_project/build/project_km4ns/asdk/make_rom/wifi_driver/lib_rom_wifi_driver_km4ns.a(rom_wifi_hal_txdesc.o)
 .debug_info    0x00000000000ecada      0x74f /home/eric_gao/repo/repoe/amebagreen2_gcc_project/build/project_km4ns/asdk/make_rom/wifi_driver/lib_rom_wifi_driver_km4ns.a(rom_wifi_hal_rxdesc.o)
 .debug_info    0x00000000000ed229      0x3c2 /home/eric_gao/repo/repoe/amebagreen2_gcc_project/build/project_km4ns/asdk/make_rom/wifi_driver/lib_rom_wifi_driver_km4ns.a(rom_wifi_hal_io.o)
 .debug_info    0x00000000000ed5eb      0x932 /home/eric_gao/repo/repoe/amebagreen2_gcc_project/build/project_km4ns/asdk/make_rom/wifi_driver/lib_rom_wifi_driver_km4ns.a(rom_hal_debug.o)
 .debug_info    0x00000000000edf1d     0x5cdb /home/eric_gao/repo/repoe/amebagreen2_gcc_project/build/project_km4ns/asdk/make_rom/wifi_driver/lib_rom_wifi_driver_km4ns.a(rom_hal_xmit.o)
 .debug_info    0x00000000000f3bf8     0x4995 /home/eric_gao/repo/repoe/amebagreen2_gcc_project/build/project_km4ns/asdk/make_rom/wifi_driver/lib_rom_wifi_driver_km4ns.a(rom_hal_xmit_g1.o)
 .debug_info    0x00000000000f858d     0x2ea3 /home/eric_gao/repo/repoe/amebagreen2_gcc_project/build/project_km4ns/asdk/make_rom/wifi_driver/lib_rom_wifi_driver_km4ns.a(rom_hal_structs.o)
 .debug_info    0x00000000000fb430     0x5114 /home/eric_gao/repo/repoe/amebagreen2_gcc_project/build/project_km4ns/asdk/make_rom/wifi_driver/lib_rom_wifi_driver_km4ns.a(rom_hal_recv.o)
 .debug_info    0x0000000000100544     0x4dd8 /home/eric_gao/repo/repoe/amebagreen2_gcc_project/build/project_km4ns/asdk/make_rom/wifi_driver/lib_rom_wifi_driver_km4ns.a(rom_hal_h2c.o)
 .debug_info    0x000000000010531c     0x4418 /home/eric_gao/repo/repoe/amebagreen2_gcc_project/build/project_km4ns/asdk/make_rom/wifi_driver/lib_rom_wifi_driver_km4ns.a(rom_hal_h2c_g1.o)
 .debug_info    0x0000000000109734     0x1609 /home/eric_gao/repo/repoe/amebagreen2_gcc_project/build/project_km4ns/asdk/make_rom/wifi_driver/lib_rom_wifi_driver_km4ns.a(rom_rtw_queue.o)
 .debug_info    0x000000000010ad3d     0x1250 /home/eric_gao/repo/repoe/amebagreen2_gcc_project/build/project_km4ns/asdk/make_rom/wifi_driver/lib_rom_wifi_driver_km4ns.a(rom_hal_rom_to_flash.o)

.debug_abbrev   0x0000000000000000    0x1b229
 .debug_abbrev  0x0000000000000000      0x161 /home/eric_gao/repo/repoe/amebagreen2_gcc_project/build/project_km4ns/asdk/make_rom/fwlib/lib_rom_fwlib_km4ns.a(ameba_boot_rom.o)
 .debug_abbrev  0x0000000000000161      0x422 /home/eric_gao/repo/repoe/amebagreen2_gcc_project/build/project_km4ns/asdk/make_rom/fwlib/lib_rom_fwlib_km4ns.a(ameba_vector_rom.o)
 .debug_abbrev  0x0000000000000583      0x582 /home/eric_gao/repo/repoe/amebagreen2_gcc_project/build/project_km4ns/asdk/make_rom/fwlib_com/lib_rom_fwlib_com_km4ns.a(ameba_crypto_aes.o)
 .debug_abbrev  0x0000000000000b05      0x567 /home/eric_gao/repo/repoe/amebagreen2_gcc_project/build/project_km4ns/asdk/make_rom/fwlib_com/lib_rom_fwlib_com_km4ns.a(ameba_crypto_sha.o)
 .debug_abbrev  0x000000000000106c      0x283 /home/eric_gao/repo/repoe/amebagreen2_gcc_project/build/project_km4ns/asdk/make_rom/fwlib_com/lib_rom_fwlib_com_km4ns.a(ameba_crypto.o)
 .debug_abbrev  0x00000000000012ef      0x331 /home/eric_gao/repo/repoe/amebagreen2_gcc_project/build/project_km4ns/asdk/make_rom/fwlib_com/lib_rom_fwlib_com_km4ns.a(ameba_pke_ecc.o)
 .debug_abbrev  0x0000000000001620      0x1aa /home/eric_gao/repo/repoe/amebagreen2_gcc_project/build/project_km4ns/asdk/make_rom/fwlib_com/lib_rom_fwlib_com_km4ns.a(ameba_pke_rsa.o)
 .debug_abbrev  0x00000000000017ca      0x2ae /home/eric_gao/repo/repoe/amebagreen2_gcc_project/build/project_km4ns/asdk/make_rom/fwlib_com/lib_rom_fwlib_com_km4ns.a(ameba_pke_common.o)
 .debug_abbrev  0x0000000000001a78       0xdf /home/eric_gao/repo/repoe/amebagreen2_gcc_project/build/project_km4ns/asdk/make_rom/fwlib_com/lib_rom_fwlib_com_km4ns.a(ameba_assert_rom.o)
 .debug_abbrev  0x0000000000001b57      0x33a /home/eric_gao/repo/repoe/amebagreen2_gcc_project/build/project_km4ns/asdk/make_rom/fwlib_com/lib_rom_fwlib_com_km4ns.a(ameba_flash_rom.o)
 .debug_abbrev  0x0000000000001e91      0x3e5 /home/eric_gao/repo/repoe/amebagreen2_gcc_project/build/project_km4ns/asdk/make_rom/fwlib_com/lib_rom_fwlib_com_km4ns.a(ameba_otp_rom.o)
 .debug_abbrev  0x0000000000002276      0x3c3 /home/eric_gao/repo/repoe/amebagreen2_gcc_project/build/project_km4ns/asdk/make_rom/fwlib_com/lib_rom_fwlib_com_km4ns.a(ameba_shell_rom.o)
 .debug_abbrev  0x0000000000002639      0x23d /home/eric_gao/repo/repoe/amebagreen2_gcc_project/build/project_km4ns/asdk/make_rom/fwlib_com/lib_rom_fwlib_com_km4ns.a(ameba_tim_rom.o)
 .debug_abbrev  0x0000000000002876      0x11b /home/eric_gao/repo/repoe/amebagreen2_gcc_project/build/project_km4ns/asdk/make_rom/fwlib_com/lib_rom_fwlib_com_km4ns.a(ameba_backup_reg.o)
 .debug_abbrev  0x0000000000002991      0x38d /home/eric_gao/repo/repoe/amebagreen2_gcc_project/build/project_km4ns/asdk/make_rom/fwlib_com/lib_rom_fwlib_com_km4ns.a(ameba_gpio_rom.o)
 .debug_abbrev  0x0000000000002d1e      0x1e4 /home/eric_gao/repo/repoe/amebagreen2_gcc_project/build/project_km4ns/asdk/make_rom/fwlib_com/lib_rom_fwlib_com_km4ns.a(ameba_pinmux_rom.o)
 .debug_abbrev  0x0000000000002f02       0xe6 /home/eric_gao/repo/repoe/amebagreen2_gcc_project/build/project_km4ns/asdk/make_rom/fwlib_com/lib_rom_fwlib_com_km4ns.a(ameba_rcc_rom.o)
 .debug_abbrev  0x0000000000002fe8      0x34f /home/eric_gao/repo/repoe/amebagreen2_gcc_project/build/project_km4ns/asdk/make_rom/fwlib_com/lib_rom_fwlib_com_km4ns.a(ameba_spinand_rom.o)
 .debug_abbrev  0x0000000000003337      0x3a4 /home/eric_gao/repo/repoe/amebagreen2_gcc_project/build/project_km4ns/asdk/make_rom/fwlib_com/lib_rom_fwlib_com_km4ns.a(ameba_trng.o)
 .debug_abbrev  0x00000000000036db      0x156 /home/eric_gao/repo/repoe/amebagreen2_gcc_project/build/project_km4ns/asdk/make_rom/fwlib_com/lib_rom_fwlib_com_km4ns.a(ameba_chipinfo_rom.o)
 .debug_abbrev  0x0000000000003831      0x371 /home/eric_gao/repo/repoe/amebagreen2_gcc_project/build/project_km4ns/asdk/make_rom/fwlib_com/lib_rom_fwlib_com_km4ns.a(ameba_loguart_rom.o)
 .debug_abbrev  0x0000000000003ba2      0x1cc /home/eric_gao/repo/repoe/amebagreen2_gcc_project/build/project_km4ns/asdk/make_rom/fwlib_com/lib_rom_fwlib_com_km4ns.a(ameba_sdio_rom.o)
 .debug_abbrev  0x0000000000003d6e      0x140 /home/eric_gao/repo/repoe/amebagreen2_gcc_project/build/project_km4ns/asdk/make_rom/fwlib_com/lib_rom_fwlib_com_km4ns.a(ameba_syscfg_rom.o)
 .debug_abbrev  0x0000000000003eae      0x236 /home/eric_gao/repo/repoe/amebagreen2_gcc_project/build/project_km4ns/asdk/make_rom/fwlib_com/lib_rom_fwlib_com_km4ns.a(ameba_uart_rom.o)
 .debug_abbrev  0x00000000000040e4      0x10c /home/eric_gao/repo/repoe/amebagreen2_gcc_project/build/project_km4ns/asdk/make_rom/fwlib_com/lib_rom_fwlib_com_km4ns.a(ameba_clk_rom.o)
 .debug_abbrev  0x00000000000041f0      0x13b /home/eric_gao/repo/repoe/amebagreen2_gcc_project/build/project_km4ns/asdk/make_rom/fwlib_com/lib_rom_fwlib_com_km4ns.a(ameba_delay_rom.o)
 .debug_abbrev  0x000000000000432b      0x252 /home/eric_gao/repo/repoe/amebagreen2_gcc_project/build/project_km4ns/asdk/make_rom/fwlib_com/lib_rom_fwlib_com_km4ns.a(ameba_monitor_rom.o)
 .debug_abbrev  0x000000000000457d      0x15c /home/eric_gao/repo/repoe/amebagreen2_gcc_project/build/project_km4ns/asdk/make_rom/fwlib_com/lib_rom_fwlib_com_km4ns.a(ameba_sema_rom.o)
 .debug_abbrev  0x00000000000046d9      0x1b5 /home/eric_gao/repo/repoe/amebagreen2_gcc_project/build/project_km4ns/asdk/make_rom/fwlib_com/lib_rom_fwlib_com_km4ns.a(ameba_systimer_rom.o)
 .debug_abbrev  0x000000000000488e      0x146 /home/eric_gao/repo/repoe/amebagreen2_gcc_project/build/project_km4ns/asdk/make_rom/fwlib_com/lib_rom_fwlib_com_km4ns.a(ameba_wdg.o)
 .debug_abbrev  0x00000000000049d4       0xd9 /home/eric_gao/repo/repoe/amebagreen2_gcc_project/build/project_km4ns/asdk/make_rom/string/lib_rom_string_km4ns.a(char2num.o)
 .debug_abbrev  0x0000000000004aad       0xc5 /home/eric_gao/repo/repoe/amebagreen2_gcc_project/build/project_km4ns/asdk/make_rom/string/lib_rom_string_km4ns.a(memchr.o)
 .debug_abbrev  0x0000000000004b72       0x8f /home/eric_gao/repo/repoe/amebagreen2_gcc_project/build/project_km4ns/asdk/make_rom/string/lib_rom_string_km4ns.a(memcmp.o)
 .debug_abbrev  0x0000000000004c01       0xc9 /home/eric_gao/repo/repoe/amebagreen2_gcc_project/build/project_km4ns/asdk/make_rom/string/lib_rom_string_km4ns.a(memcpy.o)
 .debug_abbrev  0x0000000000004cca       0xc2 /home/eric_gao/repo/repoe/amebagreen2_gcc_project/build/project_km4ns/asdk/make_rom/string/lib_rom_string_km4ns.a(memmove.o)
 .debug_abbrev  0x0000000000004d8c       0xb6 /home/eric_gao/repo/repoe/amebagreen2_gcc_project/build/project_km4ns/asdk/make_rom/string/lib_rom_string_km4ns.a(memset.o)
 .debug_abbrev  0x0000000000004e42      0x338 /home/eric_gao/repo/repoe/amebagreen2_gcc_project/build/project_km4ns/asdk/make_rom/string/lib_rom_string_km4ns.a(sscanf_minimal.o)
 .debug_abbrev  0x000000000000517a       0x82 /home/eric_gao/repo/repoe/amebagreen2_gcc_project/build/project_km4ns/asdk/make_rom/string/lib_rom_string_km4ns.a(strcmp.o)
 .debug_abbrev  0x00000000000051fc       0xa7 /home/eric_gao/repo/repoe/amebagreen2_gcc_project/build/project_km4ns/asdk/make_rom/string/lib_rom_string_km4ns.a(strcpy.o)
 .debug_abbrev  0x00000000000052a3       0x9d /home/eric_gao/repo/repoe/amebagreen2_gcc_project/build/project_km4ns/asdk/make_rom/string/lib_rom_string_km4ns.a(stricmp.o)
 .debug_abbrev  0x0000000000005340       0x91 /home/eric_gao/repo/repoe/amebagreen2_gcc_project/build/project_km4ns/asdk/make_rom/string/lib_rom_string_km4ns.a(strlen.o)
 .debug_abbrev  0x00000000000053d1       0xb6 /home/eric_gao/repo/repoe/amebagreen2_gcc_project/build/project_km4ns/asdk/make_rom/string/lib_rom_string_km4ns.a(strncpy.o)
 .debug_abbrev  0x0000000000005487       0xb6 /home/eric_gao/repo/repoe/amebagreen2_gcc_project/build/project_km4ns/asdk/make_rom/string/lib_rom_string_km4ns.a(strtol.o)
 .debug_abbrev  0x000000000000553d      0x117 /home/eric_gao/repo/repoe/amebagreen2_gcc_project/build/project_km4ns/asdk/make_rom/string/lib_rom_string_km4ns.a(strtoul.o)
 .debug_abbrev  0x0000000000005654       0x9f /home/eric_gao/repo/repoe/amebagreen2_gcc_project/build/project_km4ns/asdk/make_rom/string/lib_rom_string_km4ns.a(strupr.o)
 .debug_abbrev  0x00000000000056f3      0x15a /home/eric_gao/repo/repoe/amebagreen2_gcc_project/build/project_km4ns/asdk/make_rom/string/lib_rom_string_km4ns.a(strwrap.o)
 .debug_abbrev  0x000000000000584d      0x30e /home/eric_gao/repo/repoe/amebagreen2_gcc_project/build/project_km4ns/asdk/make_rom/stdlib/lib_rom_stdlib_km4ns.a(diag.o)
 .debug_abbrev  0x0000000000005b5b      0x2f0 /home/eric_gao/repo/repoe/amebagreen2_gcc_project/build/project_km4ns/asdk/make_rom/stdlib/lib_rom_stdlib_km4ns.a(log.o)
 .debug_abbrev  0x0000000000005e4b      0x2e2 /home/eric_gao/repo/repoe/amebagreen2_gcc_project/build/project_km4ns/asdk/make_rom/crashdump/lib_rom_crashdump_km4ns.a(ameba_dump_stack.o)
 .debug_abbrev  0x000000000000612d      0x424 /home/eric_gao/repo/repoe/amebagreen2_gcc_project/build/project_km4ns/asdk/make_rom/crashdump/lib_rom_crashdump_km4ns.a(ameba_v8m_crashdump.o)
 .debug_abbrev  0x0000000000006551      0x54f /home/eric_gao/repo/repoe/amebagreen2_gcc_project/build/project_km4ns/asdk/make_rom/os/lib_rom_os_km4ns.a(tasks.o)
 .debug_abbrev  0x0000000000006aa0      0x106 /home/eric_gao/repo/repoe/amebagreen2_gcc_project/build/project_km4ns/asdk/make_rom/os/lib_rom_os_km4ns.a(list.o)
 .debug_abbrev  0x0000000000006ba6      0x28b /home/eric_gao/repo/repoe/amebagreen2_gcc_project/build/project_km4ns/asdk/make_rom/os/lib_rom_os_km4ns.a(croutine.o)
 .debug_abbrev  0x0000000000006e31      0x3f1 /home/eric_gao/repo/repoe/amebagreen2_gcc_project/build/project_km4ns/asdk/make_rom/os/lib_rom_os_km4ns.a(queue.o)
 .debug_abbrev  0x0000000000007222      0x42b /home/eric_gao/repo/repoe/amebagreen2_gcc_project/build/project_km4ns/asdk/make_rom/os/lib_rom_os_km4ns.a(timers.o)
 .debug_abbrev  0x000000000000764d      0x2ac /home/eric_gao/repo/repoe/amebagreen2_gcc_project/build/project_km4ns/asdk/make_rom/os/lib_rom_os_km4ns.a(event_groups.o)
 .debug_abbrev  0x00000000000078f9      0x301 /home/eric_gao/repo/repoe/amebagreen2_gcc_project/build/project_km4ns/asdk/make_rom/os/lib_rom_os_km4ns.a(stream_buffer.o)
 .debug_abbrev  0x0000000000007bfa      0x3ec /home/eric_gao/repo/repoe/amebagreen2_gcc_project/build/project_km4ns/asdk/make_rom/os/lib_rom_os_km4ns.a(port.o)
 .debug_abbrev  0x0000000000007fe6       0xec /home/eric_gao/repo/repoe/amebagreen2_gcc_project/build/project_km4ns/asdk/make_rom/os/lib_rom_os_km4ns.a(portasm.o)
 .debug_abbrev  0x00000000000080d2      0x2ac /home/eric_gao/repo/repoe/amebagreen2_gcc_project/build/project_km4ns/asdk/make_rom/os/lib_rom_os_km4ns.a(heap_5.o)
 .debug_abbrev  0x000000000000837e      0x1b9 /home/eric_gao/repo/repoe/amebagreen2_gcc_project/build/project_km4ns/asdk/make_rom/os/lib_rom_os_km4ns.a(os_cfg.o)
 .debug_abbrev  0x0000000000008537      0x2d5 /home/eric_gao/repo/repoe/amebagreen2_gcc_project/build/project_km4ns/asdk/make_rom/wifi_driver/lib_rom_wifi_driver_km4ns.a(rom_sha1.o)
 .debug_abbrev  0x000000000000880c      0x2fb /home/eric_gao/repo/repoe/amebagreen2_gcc_project/build/project_km4ns/asdk/make_rom/wifi_driver/lib_rom_wifi_driver_km4ns.a(rom_md5.o)
 .debug_abbrev  0x0000000000008b07      0x2d8 /home/eric_gao/repo/repoe/amebagreen2_gcc_project/build/project_km4ns/asdk/make_rom/wifi_driver/lib_rom_wifi_driver_km4ns.a(rom_aes.o)
 .debug_abbrev  0x0000000000008ddf      0x2f3 /home/eric_gao/repo/repoe/amebagreen2_gcc_project/build/project_km4ns/asdk/make_rom/wifi_driver/lib_rom_wifi_driver_km4ns.a(rom_rtw_sha256.o)
 .debug_abbrev  0x00000000000090d2      0x149 /home/eric_gao/repo/repoe/amebagreen2_gcc_project/build/project_km4ns/asdk/make_rom/wifi_driver/lib_rom_wifi_driver_km4ns.a(rom_rtw_dh_groups.o)
 .debug_abbrev  0x000000000000921b      0x1df /home/eric_gao/repo/repoe/amebagreen2_gcc_project/build/project_km4ns/asdk/make_rom/wifi_driver/lib_rom_wifi_driver_km4ns.a(rom_arc4.o)
 .debug_abbrev  0x00000000000093fa      0x14d /home/eric_gao/repo/repoe/amebagreen2_gcc_project/build/project_km4ns/asdk/make_rom/wifi_driver/lib_rom_wifi_driver_km4ns.a(rom_rc4.o)
 .debug_abbrev  0x0000000000009547      0x545 /home/eric_gao/repo/repoe/amebagreen2_gcc_project/build/project_km4ns/asdk/make_rom/wifi_driver/lib_rom_wifi_driver_km4ns.a(rom_rtw_mbedtls_bignum.o)
 .debug_abbrev  0x0000000000009a8c      0x524 /home/eric_gao/repo/repoe/amebagreen2_gcc_project/build/project_km4ns/asdk/make_rom/wifi_driver/lib_rom_wifi_driver_km4ns.a(rom_rtw_mbedtls_ecp.o)
 .debug_abbrev  0x0000000000009fb0      0x332 /home/eric_gao/repo/repoe/amebagreen2_gcc_project/build/project_km4ns/asdk/make_rom/wifi_driver/lib_rom_wifi_driver_km4ns.a(rom_rtw_mbedtls_ecp_curves.o)
 .debug_abbrev  0x000000000000a2e2       0xa6 /home/eric_gao/repo/repoe/amebagreen2_gcc_project/build/project_km4ns/asdk/make_rom/wifi_driver/lib_rom_wifi_driver_km4ns.a(rom_rtw_mbedtls_platform.o)
 .debug_abbrev  0x000000000000a388       0xa4 /home/eric_gao/repo/repoe/amebagreen2_gcc_project/build/project_km4ns/asdk/make_rom/wifi_driver/lib_rom_wifi_driver_km4ns.a(rom_rtw_mbedtls_func_map.o)
 .debug_abbrev  0x000000000000a42c      0x51c /home/eric_gao/repo/repoe/amebagreen2_gcc_project/build/project_km4ns/asdk/make_rom/wifi_driver/lib_rom_wifi_driver_km4ns.a(rom_rtw_security.o)
 .debug_abbrev  0x000000000000a948      0x55e /home/eric_gao/repo/repoe/amebagreen2_gcc_project/build/project_km4ns/asdk/make_rom/wifi_driver/lib_rom_wifi_driver_km4ns.a(rom_wpa_lite_psk.o)
 .debug_abbrev  0x000000000000aea6      0x546 /home/eric_gao/repo/repoe/amebagreen2_gcc_project/build/project_km4ns/asdk/make_rom/wifi_driver/lib_rom_wifi_driver_km4ns.a(rom_wpa_lite_part2.o)
 .debug_abbrev  0x000000000000b3ec      0x5c8 /home/eric_gao/repo/repoe/amebagreen2_gcc_project/build/project_km4ns/asdk/make_rom/wifi_driver/lib_rom_wifi_driver_km4ns.a(rom_wpa_lite_sae.o)
 .debug_abbrev  0x000000000000b9b4      0x5ee /home/eric_gao/repo/repoe/amebagreen2_gcc_project/build/project_km4ns/asdk/make_rom/wifi_driver/lib_rom_wifi_driver_km4ns.a(rom_wpa_lite_sae_crypto.o)
 .debug_abbrev  0x000000000000bfa2      0x418 /home/eric_gao/repo/repoe/amebagreen2_gcc_project/build/project_km4ns/asdk/make_rom/wifi_driver/lib_rom_wifi_driver_km4ns.a(rom_rtw_ieee80211.o)
 .debug_abbrev  0x000000000000c3ba      0x355 /home/eric_gao/repo/repoe/amebagreen2_gcc_project/build/project_km4ns/asdk/make_rom/wifi_driver/lib_rom_wifi_driver_km4ns.a(rom_rtw_ieee80211_part2.o)
 .debug_abbrev  0x000000000000c70f      0x12b /home/eric_gao/repo/repoe/amebagreen2_gcc_project/build/project_km4ns/asdk/make_rom/wifi_driver/lib_rom_wifi_driver_km4ns.a(rom_rtw_probe.o)
 .debug_abbrev  0x000000000000c83a       0x7a /home/eric_gao/repo/repoe/amebagreen2_gcc_project/build/project_km4ns/asdk/make_rom/wifi_driver/lib_rom_wifi_driver_km4ns.a(rom_rtw_auth.o)
 .debug_abbrev  0x000000000000c8b4      0x158 /home/eric_gao/repo/repoe/amebagreen2_gcc_project/build/project_km4ns/asdk/make_rom/wifi_driver/lib_rom_wifi_driver_km4ns.a(rom_rtw_action.o)
 .debug_abbrev  0x000000000000ca0c      0x190 /home/eric_gao/repo/repoe/amebagreen2_gcc_project/build/project_km4ns/asdk/make_rom/wifi_driver/lib_rom_wifi_driver_km4ns.a(rom_rtw_psk.o)
 .debug_abbrev  0x000000000000cb9c      0x21f /home/eric_gao/repo/repoe/amebagreen2_gcc_project/build/project_km4ns/asdk/make_rom/wifi_driver/lib_rom_wifi_driver_km4ns.a(rom_rtw_pmksa_cache.o)
 .debug_abbrev  0x000000000000cdbb      0x26e /home/eric_gao/repo/repoe/amebagreen2_gcc_project/build/project_km4ns/asdk/make_rom/wifi_driver/lib_rom_wifi_driver_km4ns.a(rom_rtw_rf.o)
 .debug_abbrev  0x000000000000d029      0x13f /home/eric_gao/repo/repoe/amebagreen2_gcc_project/build/project_km4ns/asdk/make_rom/wifi_driver/lib_rom_wifi_driver_km4ns.a(rom_rtw_recv.o)
 .debug_abbrev  0x000000000000d168      0x36a /home/eric_gao/repo/repoe/amebagreen2_gcc_project/build/project_km4ns/asdk/make_rom/wifi_driver/lib_rom_wifi_driver_km4ns.a(rom_rtw_beacon.o)
 .debug_abbrev  0x000000000000d4d2      0x31f /home/eric_gao/repo/repoe/amebagreen2_gcc_project/build/project_km4ns/asdk/make_rom/wifi_driver/lib_rom_wifi_driver_km4ns.a(rom_rtw_assoc.o)
 .debug_abbrev  0x000000000000d7f1      0x12d /home/eric_gao/repo/repoe/amebagreen2_gcc_project/build/project_km4ns/asdk/make_rom/wifi_driver/lib_rom_wifi_driver_km4ns.a(rom_rtw_vht.o)
 .debug_abbrev  0x000000000000d91e      0x12b /home/eric_gao/repo/repoe/amebagreen2_gcc_project/build/project_km4ns/asdk/make_rom/wifi_driver/lib_rom_wifi_driver_km4ns.a(rom_rtw_he.o)
 .debug_abbrev  0x000000000000da49      0x215 /home/eric_gao/repo/repoe/amebagreen2_gcc_project/build/project_km4ns/asdk/make_rom/wifi_driver/lib_rom_wifi_driver_km4ns.a(rom_rtw_80211w.o)
 .debug_abbrev  0x000000000000dc5e      0x18f /home/eric_gao/repo/repoe/amebagreen2_gcc_project/build/project_km4ns/asdk/make_rom/wifi_driver/lib_rom_wifi_driver_km4ns.a(rom_rtw_rate.o)
 .debug_abbrev  0x000000000000dded       0xfb /home/eric_gao/repo/repoe/amebagreen2_gcc_project/build/project_km4ns/asdk/make_rom/wifi_driver/lib_rom_wifi_driver_km4ns.a(rom_rtw_chbw.o)
 .debug_abbrev  0x000000000000dee8       0x26 /home/eric_gao/repo/repoe/amebagreen2_gcc_project/build/project_km4ns/asdk/make_rom/wifi_driver/lib_rom_wifi_driver_km4ns.a(rom_rtw_11d.o)
 .debug_abbrev  0x000000000000df0e      0x4cd /home/eric_gao/repo/repoe/amebagreen2_gcc_project/build/project_km4ns/asdk/make_rom/wifi_driver/lib_rom_wifi_driver_km4ns.a(rom_rtw_ht.o)
 .debug_abbrev  0x000000000000e3db      0x3f4 /home/eric_gao/repo/repoe/amebagreen2_gcc_project/build/project_km4ns/asdk/make_rom/wifi_driver/lib_rom_wifi_driver_km4ns.a(rom_rtw_network.o)
 .debug_abbrev  0x000000000000e7cf      0x58f /home/eric_gao/repo/repoe/amebagreen2_gcc_project/build/project_km4ns/asdk/make_rom/wifi_driver/lib_rom_wifi_driver_km4ns.a(rom_rtw_pmksa_cache_part2.o)
 .debug_abbrev  0x000000000000ed5e      0x475 /home/eric_gao/repo/repoe/amebagreen2_gcc_project/build/project_km4ns/asdk/make_rom/wifi_driver/lib_rom_wifi_driver_km4ns.a(rom_rtw_11d_part2.o)
 .debug_abbrev  0x000000000000f1d3      0x639 /home/eric_gao/repo/repoe/amebagreen2_gcc_project/build/project_km4ns/asdk/make_rom/wifi_driver/lib_rom_wifi_driver_km4ns.a(rom_rtw_he_part2.o)
 .debug_abbrev  0x000000000000f80c      0x649 /home/eric_gao/repo/repoe/amebagreen2_gcc_project/build/project_km4ns/asdk/make_rom/wifi_driver/lib_rom_wifi_driver_km4ns.a(rom_rtw_shortcut.o)
 .debug_abbrev  0x000000000000fe55      0x482 /home/eric_gao/repo/repoe/amebagreen2_gcc_project/build/project_km4ns/asdk/make_rom/wifi_driver/lib_rom_wifi_driver_km4ns.a(rom_rtw_setkey.o)
 .debug_abbrev  0x00000000000102d7      0x5e0 /home/eric_gao/repo/repoe/amebagreen2_gcc_project/build/project_km4ns/asdk/make_rom/wifi_driver/lib_rom_wifi_driver_km4ns.a(rom_rtw_beacon_part2.o)
 .debug_abbrev  0x00000000000108b7      0x24d /home/eric_gao/repo/repoe/amebagreen2_gcc_project/build/project_km4ns/asdk/make_rom/wifi_driver/lib_rom_wifi_driver_km4ns.a(rom_rtw_sitesurvey.o)
 .debug_abbrev  0x0000000000010b04      0x5a4 /home/eric_gao/repo/repoe/amebagreen2_gcc_project/build/project_km4ns/asdk/make_rom/wifi_driver/lib_rom_wifi_driver_km4ns.a(rom_rtw_sitesurvey_report.o)
 .debug_abbrev  0x00000000000110a8      0x616 /home/eric_gao/repo/repoe/amebagreen2_gcc_project/build/project_km4ns/asdk/make_rom/wifi_driver/lib_rom_wifi_driver_km4ns.a(rom_rtw_ap_xmit.o)
 .debug_abbrev  0x00000000000116be      0x5ac /home/eric_gao/repo/repoe/amebagreen2_gcc_project/build/project_km4ns/asdk/make_rom/wifi_driver/lib_rom_wifi_driver_km4ns.a(rom_rtw_addba.o)
 .debug_abbrev  0x0000000000011c6a      0x560 /home/eric_gao/repo/repoe/amebagreen2_gcc_project/build/project_km4ns/asdk/make_rom/wifi_driver/lib_rom_wifi_driver_km4ns.a(rom_rtw_80211w_part2.o)
 .debug_abbrev  0x00000000000121ca      0x660 /home/eric_gao/repo/repoe/amebagreen2_gcc_project/build/project_km4ns/asdk/make_rom/wifi_driver/lib_rom_wifi_driver_km4ns.a(rom_rtw_auth_part2.o)
 .debug_abbrev  0x000000000001282a      0x3af /home/eric_gao/repo/repoe/amebagreen2_gcc_project/build/project_km4ns/asdk/make_rom/wifi_driver/lib_rom_wifi_driver_km4ns.a(rom_rtw_action_part2.o)
 .debug_abbrev  0x0000000000012bd9      0x62c /home/eric_gao/repo/repoe/amebagreen2_gcc_project/build/project_km4ns/asdk/make_rom/wifi_driver/lib_rom_wifi_driver_km4ns.a(rom_rtw_join.o)
 .debug_abbrev  0x0000000000013205      0x3cc /home/eric_gao/repo/repoe/amebagreen2_gcc_project/build/project_km4ns/asdk/make_rom/wifi_driver/lib_rom_wifi_driver_km4ns.a(rom_rtw_join_result.o)
 .debug_abbrev  0x00000000000135d1      0x71f /home/eric_gao/repo/repoe/amebagreen2_gcc_project/build/project_km4ns/asdk/make_rom/wifi_driver/lib_rom_wifi_driver_km4ns.a(rom_rtw_assoc_part2.o)
 .debug_abbrev  0x0000000000013cf0      0x52c /home/eric_gao/repo/repoe/amebagreen2_gcc_project/build/project_km4ns/asdk/make_rom/wifi_driver/lib_rom_wifi_driver_km4ns.a(rom_rtw_security_part2.o)
 .debug_abbrev  0x000000000001421c      0x46f /home/eric_gao/repo/repoe/amebagreen2_gcc_project/build/project_km4ns/asdk/make_rom/wifi_driver/lib_rom_wifi_driver_km4ns.a(rom_rtw_vht_part2.o)
 .debug_abbrev  0x000000000001468b      0x7bc /home/eric_gao/repo/repoe/amebagreen2_gcc_project/build/project_km4ns/asdk/make_rom/wifi_driver/lib_rom_wifi_driver_km4ns.a(rom_rtw_xmit.o)
 .debug_abbrev  0x0000000000014e47      0x73d /home/eric_gao/repo/repoe/amebagreen2_gcc_project/build/project_km4ns/asdk/make_rom/wifi_driver/lib_rom_wifi_driver_km4ns.a(rom_rtw_recv_part2.o)
 .debug_abbrev  0x0000000000015584      0x47f /home/eric_gao/repo/repoe/amebagreen2_gcc_project/build/project_km4ns/asdk/make_rom/wifi_driver/lib_rom_wifi_driver_km4ns.a(rom_rtw_recv_reorder.o)
 .debug_abbrev  0x0000000000015a03      0x3c2 /home/eric_gao/repo/repoe/amebagreen2_gcc_project/build/project_km4ns/asdk/make_rom/wifi_driver/lib_rom_wifi_driver_km4ns.a(rom_rtw_mgnt.o)
 .debug_abbrev  0x0000000000015dc5      0x512 /home/eric_gao/repo/repoe/amebagreen2_gcc_project/build/project_km4ns/asdk/make_rom/wifi_driver/lib_rom_wifi_driver_km4ns.a(rom_rtw_recv_defrag.o)
 .debug_abbrev  0x00000000000162d7      0x3d6 /home/eric_gao/repo/repoe/amebagreen2_gcc_project/build/project_km4ns/asdk/make_rom/wifi_driver/lib_rom_wifi_driver_km4ns.a(rom_rtw_state.o)
 .debug_abbrev  0x00000000000166ad      0x458 /home/eric_gao/repo/repoe/amebagreen2_gcc_project/build/project_km4ns/asdk/make_rom/wifi_driver/lib_rom_wifi_driver_km4ns.a(rom_rtw_sta_mgt.o)
 .debug_abbrev  0x0000000000016b05      0x62d /home/eric_gao/repo/repoe/amebagreen2_gcc_project/build/project_km4ns/asdk/make_rom/wifi_driver/lib_rom_wifi_driver_km4ns.a(rom_rtw_ap.o)
 .debug_abbrev  0x0000000000017132      0x33e /home/eric_gao/repo/repoe/amebagreen2_gcc_project/build/project_km4ns/asdk/make_rom/wifi_driver/lib_rom_wifi_driver_km4ns.a(rom_rtw_skbuff.o)
 .debug_abbrev  0x0000000000017470      0x180 /home/eric_gao/repo/repoe/amebagreen2_gcc_project/build/project_km4ns/asdk/make_rom/wifi_driver/lib_rom_wifi_driver_km4ns.a(rom_wifi_hal_ax.o)
 .debug_abbrev  0x00000000000175f0      0x148 /home/eric_gao/repo/repoe/amebagreen2_gcc_project/build/project_km4ns/asdk/make_rom/wifi_driver/lib_rom_wifi_driver_km4ns.a(rom_wifi_hal_bcn.o)
 .debug_abbrev  0x0000000000017738      0x1e5 /home/eric_gao/repo/repoe/amebagreen2_gcc_project/build/project_km4ns/asdk/make_rom/wifi_driver/lib_rom_wifi_driver_km4ns.a(rom_wifi_hal_debug.o)
 .debug_abbrev  0x000000000001791d      0x23d /home/eric_gao/repo/repoe/amebagreen2_gcc_project/build/project_km4ns/asdk/make_rom/wifi_driver/lib_rom_wifi_driver_km4ns.a(rom_wifi_hal_init.o)
 .debug_abbrev  0x0000000000017b5a      0x348 /home/eric_gao/repo/repoe/amebagreen2_gcc_project/build/project_km4ns/asdk/make_rom/wifi_driver/lib_rom_wifi_driver_km4ns.a(rom_wifi_hal_media_access.o)
 .debug_abbrev  0x0000000000017ea2      0x418 /home/eric_gao/repo/repoe/amebagreen2_gcc_project/build/project_km4ns/asdk/make_rom/wifi_driver/lib_rom_wifi_driver_km4ns.a(rom_wifi_hal_misc.o)
 .debug_abbrev  0x00000000000182ba      0x145 /home/eric_gao/repo/repoe/amebagreen2_gcc_project/build/project_km4ns/asdk/make_rom/wifi_driver/lib_rom_wifi_driver_km4ns.a(rom_wifi_hal_rate.o)
 .debug_abbrev  0x00000000000183ff      0x2c9 /home/eric_gao/repo/repoe/amebagreen2_gcc_project/build/project_km4ns/asdk/make_rom/wifi_driver/lib_rom_wifi_driver_km4ns.a(rom_wifi_hal_secure.o)
 .debug_abbrev  0x00000000000186c8      0x156 /home/eric_gao/repo/repoe/amebagreen2_gcc_project/build/project_km4ns/asdk/make_rom/wifi_driver/lib_rom_wifi_driver_km4ns.a(rom_wifi_hal_tsf.o)
 .debug_abbrev  0x000000000001881e      0x1ad /home/eric_gao/repo/repoe/amebagreen2_gcc_project/build/project_km4ns/asdk/make_rom/wifi_driver/lib_rom_wifi_driver_km4ns.a(rom_wifi_hal_txdesc.o)
 .debug_abbrev  0x00000000000189cb      0x1ca /home/eric_gao/repo/repoe/amebagreen2_gcc_project/build/project_km4ns/asdk/make_rom/wifi_driver/lib_rom_wifi_driver_km4ns.a(rom_wifi_hal_rxdesc.o)
 .debug_abbrev  0x0000000000018b95       0xf5 /home/eric_gao/repo/repoe/amebagreen2_gcc_project/build/project_km4ns/asdk/make_rom/wifi_driver/lib_rom_wifi_driver_km4ns.a(rom_wifi_hal_io.o)
 .debug_abbrev  0x0000000000018c8a      0x17f /home/eric_gao/repo/repoe/amebagreen2_gcc_project/build/project_km4ns/asdk/make_rom/wifi_driver/lib_rom_wifi_driver_km4ns.a(rom_hal_debug.o)
 .debug_abbrev  0x0000000000018e09      0x72a /home/eric_gao/repo/repoe/amebagreen2_gcc_project/build/project_km4ns/asdk/make_rom/wifi_driver/lib_rom_wifi_driver_km4ns.a(rom_hal_xmit.o)
 .debug_abbrev  0x0000000000019533      0x588 /home/eric_gao/repo/repoe/amebagreen2_gcc_project/build/project_km4ns/asdk/make_rom/wifi_driver/lib_rom_wifi_driver_km4ns.a(rom_hal_xmit_g1.o)
 .debug_abbrev  0x0000000000019abb      0x298 /home/eric_gao/repo/repoe/amebagreen2_gcc_project/build/project_km4ns/asdk/make_rom/wifi_driver/lib_rom_wifi_driver_km4ns.a(rom_hal_structs.o)
 .debug_abbrev  0x0000000000019d53      0x6a3 /home/eric_gao/repo/repoe/amebagreen2_gcc_project/build/project_km4ns/asdk/make_rom/wifi_driver/lib_rom_wifi_driver_km4ns.a(rom_hal_recv.o)
 .debug_abbrev  0x000000000001a3f6      0x4f1 /home/eric_gao/repo/repoe/amebagreen2_gcc_project/build/project_km4ns/asdk/make_rom/wifi_driver/lib_rom_wifi_driver_km4ns.a(rom_hal_h2c.o)
 .debug_abbrev  0x000000000001a8e7      0x4b3 /home/eric_gao/repo/repoe/amebagreen2_gcc_project/build/project_km4ns/asdk/make_rom/wifi_driver/lib_rom_wifi_driver_km4ns.a(rom_hal_h2c_g1.o)
 .debug_abbrev  0x000000000001ad9a      0x2d6 /home/eric_gao/repo/repoe/amebagreen2_gcc_project/build/project_km4ns/asdk/make_rom/wifi_driver/lib_rom_wifi_driver_km4ns.a(rom_rtw_queue.o)
 .debug_abbrev  0x000000000001b070      0x1b9 /home/eric_gao/repo/repoe/amebagreen2_gcc_project/build/project_km4ns/asdk/make_rom/wifi_driver/lib_rom_wifi_driver_km4ns.a(rom_hal_rom_to_flash.o)

.debug_loc      0x0000000000000000    0x7178b
 .debug_loc     0x0000000000000000       0x15 /home/eric_gao/repo/repoe/amebagreen2_gcc_project/build/project_km4ns/asdk/make_rom/fwlib/lib_rom_fwlib_km4ns.a(ameba_boot_rom.o)
 .debug_loc     0x0000000000000015      0x4a6 /home/eric_gao/repo/repoe/amebagreen2_gcc_project/build/project_km4ns/asdk/make_rom/fwlib/lib_rom_fwlib_km4ns.a(ameba_vector_rom.o)
 .debug_loc     0x00000000000004bb     0x3663 /home/eric_gao/repo/repoe/amebagreen2_gcc_project/build/project_km4ns/asdk/make_rom/fwlib_com/lib_rom_fwlib_com_km4ns.a(ameba_crypto_aes.o)
 .debug_loc     0x0000000000003b1e     0x21fb /home/eric_gao/repo/repoe/amebagreen2_gcc_project/build/project_km4ns/asdk/make_rom/fwlib_com/lib_rom_fwlib_com_km4ns.a(ameba_crypto_sha.o)
 .debug_loc     0x0000000000005d19       0x9f /home/eric_gao/repo/repoe/amebagreen2_gcc_project/build/project_km4ns/asdk/make_rom/fwlib_com/lib_rom_fwlib_com_km4ns.a(ameba_crypto.o)
 .debug_loc     0x0000000000005db8     0x1aac /home/eric_gao/repo/repoe/amebagreen2_gcc_project/build/project_km4ns/asdk/make_rom/fwlib_com/lib_rom_fwlib_com_km4ns.a(ameba_pke_ecc.o)
 .debug_loc     0x0000000000007864      0x46e /home/eric_gao/repo/repoe/amebagreen2_gcc_project/build/project_km4ns/asdk/make_rom/fwlib_com/lib_rom_fwlib_com_km4ns.a(ameba_pke_rsa.o)
 .debug_loc     0x0000000000007cd2      0x4ae /home/eric_gao/repo/repoe/amebagreen2_gcc_project/build/project_km4ns/asdk/make_rom/fwlib_com/lib_rom_fwlib_com_km4ns.a(ameba_pke_common.o)
 .debug_loc     0x0000000000008180       0x66 /home/eric_gao/repo/repoe/amebagreen2_gcc_project/build/project_km4ns/asdk/make_rom/fwlib_com/lib_rom_fwlib_com_km4ns.a(ameba_assert_rom.o)
 .debug_loc     0x00000000000081e6     0x1009 /home/eric_gao/repo/repoe/amebagreen2_gcc_project/build/project_km4ns/asdk/make_rom/fwlib_com/lib_rom_fwlib_com_km4ns.a(ameba_flash_rom.o)
 .debug_loc     0x00000000000091ef     0x1242 /home/eric_gao/repo/repoe/amebagreen2_gcc_project/build/project_km4ns/asdk/make_rom/fwlib_com/lib_rom_fwlib_com_km4ns.a(ameba_otp_rom.o)
 .debug_loc     0x000000000000a431      0x87b /home/eric_gao/repo/repoe/amebagreen2_gcc_project/build/project_km4ns/asdk/make_rom/fwlib_com/lib_rom_fwlib_com_km4ns.a(ameba_shell_rom.o)
 .debug_loc     0x000000000000acac      0x53a /home/eric_gao/repo/repoe/amebagreen2_gcc_project/build/project_km4ns/asdk/make_rom/fwlib_com/lib_rom_fwlib_com_km4ns.a(ameba_tim_rom.o)
 .debug_loc     0x000000000000b1e6      0x1be /home/eric_gao/repo/repoe/amebagreen2_gcc_project/build/project_km4ns/asdk/make_rom/fwlib_com/lib_rom_fwlib_com_km4ns.a(ameba_backup_reg.o)
 .debug_loc     0x000000000000b3a4      0xefd /home/eric_gao/repo/repoe/amebagreen2_gcc_project/build/project_km4ns/asdk/make_rom/fwlib_com/lib_rom_fwlib_com_km4ns.a(ameba_gpio_rom.o)
 .debug_loc     0x000000000000c2a1      0x8cb /home/eric_gao/repo/repoe/amebagreen2_gcc_project/build/project_km4ns/asdk/make_rom/fwlib_com/lib_rom_fwlib_com_km4ns.a(ameba_pinmux_rom.o)
 .debug_loc     0x000000000000cb6c      0x480 /home/eric_gao/repo/repoe/amebagreen2_gcc_project/build/project_km4ns/asdk/make_rom/fwlib_com/lib_rom_fwlib_com_km4ns.a(ameba_rcc_rom.o)
 .debug_loc     0x000000000000cfec     0x1112 /home/eric_gao/repo/repoe/amebagreen2_gcc_project/build/project_km4ns/asdk/make_rom/fwlib_com/lib_rom_fwlib_com_km4ns.a(ameba_spinand_rom.o)
 .debug_loc     0x000000000000e0fe      0x5b7 /home/eric_gao/repo/repoe/amebagreen2_gcc_project/build/project_km4ns/asdk/make_rom/fwlib_com/lib_rom_fwlib_com_km4ns.a(ameba_trng.o)
 .debug_loc     0x000000000000e6b5       0xc4 /home/eric_gao/repo/repoe/amebagreen2_gcc_project/build/project_km4ns/asdk/make_rom/fwlib_com/lib_rom_fwlib_com_km4ns.a(ameba_chipinfo_rom.o)
 .debug_loc     0x000000000000e779      0xfca /home/eric_gao/repo/repoe/amebagreen2_gcc_project/build/project_km4ns/asdk/make_rom/fwlib_com/lib_rom_fwlib_com_km4ns.a(ameba_loguart_rom.o)
 .debug_loc     0x000000000000f743      0x2ae /home/eric_gao/repo/repoe/amebagreen2_gcc_project/build/project_km4ns/asdk/make_rom/fwlib_com/lib_rom_fwlib_com_km4ns.a(ameba_sdio_rom.o)
 .debug_loc     0x000000000000f9f1      0x592 /home/eric_gao/repo/repoe/amebagreen2_gcc_project/build/project_km4ns/asdk/make_rom/fwlib_com/lib_rom_fwlib_com_km4ns.a(ameba_syscfg_rom.o)
 .debug_loc     0x000000000000ff83      0xabd /home/eric_gao/repo/repoe/amebagreen2_gcc_project/build/project_km4ns/asdk/make_rom/fwlib_com/lib_rom_fwlib_com_km4ns.a(ameba_uart_rom.o)
 .debug_loc     0x0000000000010a40       0x18 /home/eric_gao/repo/repoe/amebagreen2_gcc_project/build/project_km4ns/asdk/make_rom/fwlib_com/lib_rom_fwlib_com_km4ns.a(ameba_clk_rom.o)
 .debug_loc     0x0000000000010a58      0x182 /home/eric_gao/repo/repoe/amebagreen2_gcc_project/build/project_km4ns/asdk/make_rom/fwlib_com/lib_rom_fwlib_com_km4ns.a(ameba_delay_rom.o)
 .debug_loc     0x0000000000010bda      0x21c /home/eric_gao/repo/repoe/amebagreen2_gcc_project/build/project_km4ns/asdk/make_rom/fwlib_com/lib_rom_fwlib_com_km4ns.a(ameba_monitor_rom.o)
 .debug_loc     0x0000000000010df6      0x14a /home/eric_gao/repo/repoe/amebagreen2_gcc_project/build/project_km4ns/asdk/make_rom/fwlib_com/lib_rom_fwlib_com_km4ns.a(ameba_sema_rom.o)
 .debug_loc     0x0000000000010f40       0xef /home/eric_gao/repo/repoe/amebagreen2_gcc_project/build/project_km4ns/asdk/make_rom/fwlib_com/lib_rom_fwlib_com_km4ns.a(ameba_systimer_rom.o)
 .debug_loc     0x000000000001102f      0x306 /home/eric_gao/repo/repoe/amebagreen2_gcc_project/build/project_km4ns/asdk/make_rom/fwlib_com/lib_rom_fwlib_com_km4ns.a(ameba_wdg.o)
 .debug_loc     0x0000000000011335      0x307 /home/eric_gao/repo/repoe/amebagreen2_gcc_project/build/project_km4ns/asdk/make_rom/string/lib_rom_string_km4ns.a(char2num.o)
 .debug_loc     0x000000000001163c      0x24f /home/eric_gao/repo/repoe/amebagreen2_gcc_project/build/project_km4ns/asdk/make_rom/string/lib_rom_string_km4ns.a(memchr.o)
 .debug_loc     0x000000000001188b      0x215 /home/eric_gao/repo/repoe/amebagreen2_gcc_project/build/project_km4ns/asdk/make_rom/string/lib_rom_string_km4ns.a(memcmp.o)
 .debug_loc     0x0000000000011aa0      0x1e7 /home/eric_gao/repo/repoe/amebagreen2_gcc_project/build/project_km4ns/asdk/make_rom/string/lib_rom_string_km4ns.a(memcpy.o)
 .debug_loc     0x0000000000011c87      0x2b1 /home/eric_gao/repo/repoe/amebagreen2_gcc_project/build/project_km4ns/asdk/make_rom/string/lib_rom_string_km4ns.a(memmove.o)
 .debug_loc     0x0000000000011f38      0x2c4 /home/eric_gao/repo/repoe/amebagreen2_gcc_project/build/project_km4ns/asdk/make_rom/string/lib_rom_string_km4ns.a(memset.o)
 .debug_loc     0x00000000000121fc      0xa74 /home/eric_gao/repo/repoe/amebagreen2_gcc_project/build/project_km4ns/asdk/make_rom/string/lib_rom_string_km4ns.a(sscanf_minimal.o)
 .debug_loc     0x0000000000012c70      0x132 /home/eric_gao/repo/repoe/amebagreen2_gcc_project/build/project_km4ns/asdk/make_rom/string/lib_rom_string_km4ns.a(strcmp.o)
 .debug_loc     0x0000000000012da2      0x115 /home/eric_gao/repo/repoe/amebagreen2_gcc_project/build/project_km4ns/asdk/make_rom/string/lib_rom_string_km4ns.a(strcpy.o)
 .debug_loc     0x0000000000012eb7      0x198 /home/eric_gao/repo/repoe/amebagreen2_gcc_project/build/project_km4ns/asdk/make_rom/string/lib_rom_string_km4ns.a(stricmp.o)
 .debug_loc     0x000000000001304f       0xd8 /home/eric_gao/repo/repoe/amebagreen2_gcc_project/build/project_km4ns/asdk/make_rom/string/lib_rom_string_km4ns.a(strlen.o)
 .debug_loc     0x0000000000013127      0x1eb /home/eric_gao/repo/repoe/amebagreen2_gcc_project/build/project_km4ns/asdk/make_rom/string/lib_rom_string_km4ns.a(strncpy.o)
 .debug_loc     0x0000000000013312      0x3b2 /home/eric_gao/repo/repoe/amebagreen2_gcc_project/build/project_km4ns/asdk/make_rom/string/lib_rom_string_km4ns.a(strtol.o)
 .debug_loc     0x00000000000136c4      0x57c /home/eric_gao/repo/repoe/amebagreen2_gcc_project/build/project_km4ns/asdk/make_rom/string/lib_rom_string_km4ns.a(strtoul.o)
 .debug_loc     0x0000000000013c40       0x3e /home/eric_gao/repo/repoe/amebagreen2_gcc_project/build/project_km4ns/asdk/make_rom/string/lib_rom_string_km4ns.a(strupr.o)
 .debug_loc     0x0000000000013c7e      0x4ef /home/eric_gao/repo/repoe/amebagreen2_gcc_project/build/project_km4ns/asdk/make_rom/string/lib_rom_string_km4ns.a(strwrap.o)
 .debug_loc     0x000000000001416d     0x1ecc /home/eric_gao/repo/repoe/amebagreen2_gcc_project/build/project_km4ns/asdk/make_rom/stdlib/lib_rom_stdlib_km4ns.a(diag.o)
 .debug_loc     0x0000000000016039      0x634 /home/eric_gao/repo/repoe/amebagreen2_gcc_project/build/project_km4ns/asdk/make_rom/stdlib/lib_rom_stdlib_km4ns.a(log.o)
 .debug_loc     0x000000000001666d      0x285 /home/eric_gao/repo/repoe/amebagreen2_gcc_project/build/project_km4ns/asdk/make_rom/crashdump/lib_rom_crashdump_km4ns.a(ameba_dump_stack.o)
 .debug_loc     0x00000000000168f2      0x6bf /home/eric_gao/repo/repoe/amebagreen2_gcc_project/build/project_km4ns/asdk/make_rom/crashdump/lib_rom_crashdump_km4ns.a(ameba_v8m_crashdump.o)
 .debug_loc     0x0000000000016fb1     0x2fc5 /home/eric_gao/repo/repoe/amebagreen2_gcc_project/build/project_km4ns/asdk/make_rom/os/lib_rom_os_km4ns.a(tasks.o)
 .debug_loc     0x0000000000019f76       0xa0 /home/eric_gao/repo/repoe/amebagreen2_gcc_project/build/project_km4ns/asdk/make_rom/os/lib_rom_os_km4ns.a(list.o)
 .debug_loc     0x000000000001a016      0x318 /home/eric_gao/repo/repoe/amebagreen2_gcc_project/build/project_km4ns/asdk/make_rom/os/lib_rom_os_km4ns.a(croutine.o)
 .debug_loc     0x000000000001a32e     0x2203 /home/eric_gao/repo/repoe/amebagreen2_gcc_project/build/project_km4ns/asdk/make_rom/os/lib_rom_os_km4ns.a(queue.o)
 .debug_loc     0x000000000001c531     0x1127 /home/eric_gao/repo/repoe/amebagreen2_gcc_project/build/project_km4ns/asdk/make_rom/os/lib_rom_os_km4ns.a(timers.o)
 .debug_loc     0x000000000001d658      0xcaf /home/eric_gao/repo/repoe/amebagreen2_gcc_project/build/project_km4ns/asdk/make_rom/os/lib_rom_os_km4ns.a(event_groups.o)
 .debug_loc     0x000000000001e307     0x1704 /home/eric_gao/repo/repoe/amebagreen2_gcc_project/build/project_km4ns/asdk/make_rom/os/lib_rom_os_km4ns.a(stream_buffer.o)
 .debug_loc     0x000000000001fa0b      0x467 /home/eric_gao/repo/repoe/amebagreen2_gcc_project/build/project_km4ns/asdk/make_rom/os/lib_rom_os_km4ns.a(port.o)
 .debug_loc     0x000000000001fe72      0x82c /home/eric_gao/repo/repoe/amebagreen2_gcc_project/build/project_km4ns/asdk/make_rom/os/lib_rom_os_km4ns.a(heap_5.o)
 .debug_loc     0x000000000002069e       0x3f /home/eric_gao/repo/repoe/amebagreen2_gcc_project/build/project_km4ns/asdk/make_rom/os/lib_rom_os_km4ns.a(os_cfg.o)
 .debug_loc     0x00000000000206dd      0xb83 /home/eric_gao/repo/repoe/amebagreen2_gcc_project/build/project_km4ns/asdk/make_rom/wifi_driver/lib_rom_wifi_driver_km4ns.a(rom_sha1.o)
 .debug_loc     0x0000000000021260     0x162b /home/eric_gao/repo/repoe/amebagreen2_gcc_project/build/project_km4ns/asdk/make_rom/wifi_driver/lib_rom_wifi_driver_km4ns.a(rom_md5.o)
 .debug_loc     0x000000000002288b     0x1a76 /home/eric_gao/repo/repoe/amebagreen2_gcc_project/build/project_km4ns/asdk/make_rom/wifi_driver/lib_rom_wifi_driver_km4ns.a(rom_aes.o)
 .debug_loc     0x0000000000024301      0xc32 /home/eric_gao/repo/repoe/amebagreen2_gcc_project/build/project_km4ns/asdk/make_rom/wifi_driver/lib_rom_wifi_driver_km4ns.a(rom_rtw_sha256.o)
 .debug_loc     0x0000000000024f33       0x72 /home/eric_gao/repo/repoe/amebagreen2_gcc_project/build/project_km4ns/asdk/make_rom/wifi_driver/lib_rom_wifi_driver_km4ns.a(rom_rtw_dh_groups.o)
 .debug_loc     0x0000000000024fa5      0x4b3 /home/eric_gao/repo/repoe/amebagreen2_gcc_project/build/project_km4ns/asdk/make_rom/wifi_driver/lib_rom_wifi_driver_km4ns.a(rom_arc4.o)
 .debug_loc     0x0000000000025458      0x9ae /home/eric_gao/repo/repoe/amebagreen2_gcc_project/build/project_km4ns/asdk/make_rom/wifi_driver/lib_rom_wifi_driver_km4ns.a(rom_rc4.o)
 .debug_loc     0x0000000000025e06     0x88fa /home/eric_gao/repo/repoe/amebagreen2_gcc_project/build/project_km4ns/asdk/make_rom/wifi_driver/lib_rom_wifi_driver_km4ns.a(rom_rtw_mbedtls_bignum.o)
 .debug_loc     0x000000000002e700     0x5488 /home/eric_gao/repo/repoe/amebagreen2_gcc_project/build/project_km4ns/asdk/make_rom/wifi_driver/lib_rom_wifi_driver_km4ns.a(rom_rtw_mbedtls_ecp.o)
 .debug_loc     0x0000000000033b88     0x6bc0 /home/eric_gao/repo/repoe/amebagreen2_gcc_project/build/project_km4ns/asdk/make_rom/wifi_driver/lib_rom_wifi_driver_km4ns.a(rom_rtw_mbedtls_ecp_curves.o)
 .debug_loc     0x000000000003a748       0x57 /home/eric_gao/repo/repoe/amebagreen2_gcc_project/build/project_km4ns/asdk/make_rom/wifi_driver/lib_rom_wifi_driver_km4ns.a(rom_rtw_mbedtls_platform.o)
 .debug_loc     0x000000000003a79f     0x2658 /home/eric_gao/repo/repoe/amebagreen2_gcc_project/build/project_km4ns/asdk/make_rom/wifi_driver/lib_rom_wifi_driver_km4ns.a(rom_rtw_security.o)
 .debug_loc     0x000000000003cdf7     0x24f1 /home/eric_gao/repo/repoe/amebagreen2_gcc_project/build/project_km4ns/asdk/make_rom/wifi_driver/lib_rom_wifi_driver_km4ns.a(rom_wpa_lite_psk.o)
 .debug_loc     0x000000000003f2e8     0x26d4 /home/eric_gao/repo/repoe/amebagreen2_gcc_project/build/project_km4ns/asdk/make_rom/wifi_driver/lib_rom_wifi_driver_km4ns.a(rom_wpa_lite_part2.o)
 .debug_loc     0x00000000000419bc     0x2355 /home/eric_gao/repo/repoe/amebagreen2_gcc_project/build/project_km4ns/asdk/make_rom/wifi_driver/lib_rom_wifi_driver_km4ns.a(rom_wpa_lite_sae.o)
 .debug_loc     0x0000000000043d11     0x58f3 /home/eric_gao/repo/repoe/amebagreen2_gcc_project/build/project_km4ns/asdk/make_rom/wifi_driver/lib_rom_wifi_driver_km4ns.a(rom_wpa_lite_sae_crypto.o)
 .debug_loc     0x0000000000049604     0x218c /home/eric_gao/repo/repoe/amebagreen2_gcc_project/build/project_km4ns/asdk/make_rom/wifi_driver/lib_rom_wifi_driver_km4ns.a(rom_rtw_ieee80211.o)
 .debug_loc     0x000000000004b790     0x23a5 /home/eric_gao/repo/repoe/amebagreen2_gcc_project/build/project_km4ns/asdk/make_rom/wifi_driver/lib_rom_wifi_driver_km4ns.a(rom_rtw_ieee80211_part2.o)
 .debug_loc     0x000000000004db35      0x264 /home/eric_gao/repo/repoe/amebagreen2_gcc_project/build/project_km4ns/asdk/make_rom/wifi_driver/lib_rom_wifi_driver_km4ns.a(rom_rtw_probe.o)
 .debug_loc     0x000000000004dd99       0x42 /home/eric_gao/repo/repoe/amebagreen2_gcc_project/build/project_km4ns/asdk/make_rom/wifi_driver/lib_rom_wifi_driver_km4ns.a(rom_rtw_auth.o)
 .debug_loc     0x000000000004dddb      0x3d3 /home/eric_gao/repo/repoe/amebagreen2_gcc_project/build/project_km4ns/asdk/make_rom/wifi_driver/lib_rom_wifi_driver_km4ns.a(rom_rtw_action.o)
 .debug_loc     0x000000000004e1ae      0x7a5 /home/eric_gao/repo/repoe/amebagreen2_gcc_project/build/project_km4ns/asdk/make_rom/wifi_driver/lib_rom_wifi_driver_km4ns.a(rom_rtw_psk.o)
 .debug_loc     0x000000000004e953      0x52d /home/eric_gao/repo/repoe/amebagreen2_gcc_project/build/project_km4ns/asdk/make_rom/wifi_driver/lib_rom_wifi_driver_km4ns.a(rom_rtw_pmksa_cache.o)
 .debug_loc     0x000000000004ee80      0x6fb /home/eric_gao/repo/repoe/amebagreen2_gcc_project/build/project_km4ns/asdk/make_rom/wifi_driver/lib_rom_wifi_driver_km4ns.a(rom_rtw_rf.o)
 .debug_loc     0x000000000004f57b      0x2bc /home/eric_gao/repo/repoe/amebagreen2_gcc_project/build/project_km4ns/asdk/make_rom/wifi_driver/lib_rom_wifi_driver_km4ns.a(rom_rtw_recv.o)
 .debug_loc     0x000000000004f837     0x1d73 /home/eric_gao/repo/repoe/amebagreen2_gcc_project/build/project_km4ns/asdk/make_rom/wifi_driver/lib_rom_wifi_driver_km4ns.a(rom_rtw_beacon.o)
 .debug_loc     0x00000000000515aa     0x114e /home/eric_gao/repo/repoe/amebagreen2_gcc_project/build/project_km4ns/asdk/make_rom/wifi_driver/lib_rom_wifi_driver_km4ns.a(rom_rtw_assoc.o)
 .debug_loc     0x00000000000526f8      0x6e0 /home/eric_gao/repo/repoe/amebagreen2_gcc_project/build/project_km4ns/asdk/make_rom/wifi_driver/lib_rom_wifi_driver_km4ns.a(rom_rtw_vht.o)
 .debug_loc     0x0000000000052dd8      0x796 /home/eric_gao/repo/repoe/amebagreen2_gcc_project/build/project_km4ns/asdk/make_rom/wifi_driver/lib_rom_wifi_driver_km4ns.a(rom_rtw_he.o)
 .debug_loc     0x000000000005356e      0x247 /home/eric_gao/repo/repoe/amebagreen2_gcc_project/build/project_km4ns/asdk/make_rom/wifi_driver/lib_rom_wifi_driver_km4ns.a(rom_rtw_80211w.o)
 .debug_loc     0x00000000000537b5      0x559 /home/eric_gao/repo/repoe/amebagreen2_gcc_project/build/project_km4ns/asdk/make_rom/wifi_driver/lib_rom_wifi_driver_km4ns.a(rom_rtw_rate.o)
 .debug_loc     0x0000000000053d0e      0x670 /home/eric_gao/repo/repoe/amebagreen2_gcc_project/build/project_km4ns/asdk/make_rom/wifi_driver/lib_rom_wifi_driver_km4ns.a(rom_rtw_chbw.o)
 .debug_loc     0x000000000005437e      0x853 /home/eric_gao/repo/repoe/amebagreen2_gcc_project/build/project_km4ns/asdk/make_rom/wifi_driver/lib_rom_wifi_driver_km4ns.a(rom_rtw_ht.o)
 .debug_loc     0x0000000000054bd1      0x141 /home/eric_gao/repo/repoe/amebagreen2_gcc_project/build/project_km4ns/asdk/make_rom/wifi_driver/lib_rom_wifi_driver_km4ns.a(rom_rtw_network.o)
 .debug_loc     0x0000000000054d12      0x80b /home/eric_gao/repo/repoe/amebagreen2_gcc_project/build/project_km4ns/asdk/make_rom/wifi_driver/lib_rom_wifi_driver_km4ns.a(rom_rtw_pmksa_cache_part2.o)
 .debug_loc     0x000000000005551d      0x726 /home/eric_gao/repo/repoe/amebagreen2_gcc_project/build/project_km4ns/asdk/make_rom/wifi_driver/lib_rom_wifi_driver_km4ns.a(rom_rtw_11d_part2.o)
 .debug_loc     0x0000000000055c43     0x132a /home/eric_gao/repo/repoe/amebagreen2_gcc_project/build/project_km4ns/asdk/make_rom/wifi_driver/lib_rom_wifi_driver_km4ns.a(rom_rtw_he_part2.o)
 .debug_loc     0x0000000000056f6d     0x12c5 /home/eric_gao/repo/repoe/amebagreen2_gcc_project/build/project_km4ns/asdk/make_rom/wifi_driver/lib_rom_wifi_driver_km4ns.a(rom_rtw_shortcut.o)
 .debug_loc     0x0000000000058232      0x84a /home/eric_gao/repo/repoe/amebagreen2_gcc_project/build/project_km4ns/asdk/make_rom/wifi_driver/lib_rom_wifi_driver_km4ns.a(rom_rtw_setkey.o)
 .debug_loc     0x0000000000058a7c     0x12ff /home/eric_gao/repo/repoe/amebagreen2_gcc_project/build/project_km4ns/asdk/make_rom/wifi_driver/lib_rom_wifi_driver_km4ns.a(rom_rtw_beacon_part2.o)
 .debug_loc     0x0000000000059d7b      0x1dd /home/eric_gao/repo/repoe/amebagreen2_gcc_project/build/project_km4ns/asdk/make_rom/wifi_driver/lib_rom_wifi_driver_km4ns.a(rom_rtw_sitesurvey.o)
 .debug_loc     0x0000000000059f58      0x989 /home/eric_gao/repo/repoe/amebagreen2_gcc_project/build/project_km4ns/asdk/make_rom/wifi_driver/lib_rom_wifi_driver_km4ns.a(rom_rtw_sitesurvey_report.o)
 .debug_loc     0x000000000005a8e1      0x9eb /home/eric_gao/repo/repoe/amebagreen2_gcc_project/build/project_km4ns/asdk/make_rom/wifi_driver/lib_rom_wifi_driver_km4ns.a(rom_rtw_ap_xmit.o)
 .debug_loc     0x000000000005b2cc      0xbff /home/eric_gao/repo/repoe/amebagreen2_gcc_project/build/project_km4ns/asdk/make_rom/wifi_driver/lib_rom_wifi_driver_km4ns.a(rom_rtw_addba.o)
 .debug_loc     0x000000000005becb      0x78e /home/eric_gao/repo/repoe/amebagreen2_gcc_project/build/project_km4ns/asdk/make_rom/wifi_driver/lib_rom_wifi_driver_km4ns.a(rom_rtw_80211w_part2.o)
 .debug_loc     0x000000000005c659      0xe71 /home/eric_gao/repo/repoe/amebagreen2_gcc_project/build/project_km4ns/asdk/make_rom/wifi_driver/lib_rom_wifi_driver_km4ns.a(rom_rtw_auth_part2.o)
 .debug_loc     0x000000000005d4ca      0x360 /home/eric_gao/repo/repoe/amebagreen2_gcc_project/build/project_km4ns/asdk/make_rom/wifi_driver/lib_rom_wifi_driver_km4ns.a(rom_rtw_action_part2.o)
 .debug_loc     0x000000000005d82a      0xd95 /home/eric_gao/repo/repoe/amebagreen2_gcc_project/build/project_km4ns/asdk/make_rom/wifi_driver/lib_rom_wifi_driver_km4ns.a(rom_rtw_join.o)
 .debug_loc     0x000000000005e5bf      0x45d /home/eric_gao/repo/repoe/amebagreen2_gcc_project/build/project_km4ns/asdk/make_rom/wifi_driver/lib_rom_wifi_driver_km4ns.a(rom_rtw_join_result.o)
 .debug_loc     0x000000000005ea1c     0x1d51 /home/eric_gao/repo/repoe/amebagreen2_gcc_project/build/project_km4ns/asdk/make_rom/wifi_driver/lib_rom_wifi_driver_km4ns.a(rom_rtw_assoc_part2.o)
 .debug_loc     0x000000000006076d     0x14c4 /home/eric_gao/repo/repoe/amebagreen2_gcc_project/build/project_km4ns/asdk/make_rom/wifi_driver/lib_rom_wifi_driver_km4ns.a(rom_rtw_security_part2.o)
 .debug_loc     0x0000000000061c31      0x528 /home/eric_gao/repo/repoe/amebagreen2_gcc_project/build/project_km4ns/asdk/make_rom/wifi_driver/lib_rom_wifi_driver_km4ns.a(rom_rtw_vht_part2.o)
 .debug_loc     0x0000000000062159     0x20f1 /home/eric_gao/repo/repoe/amebagreen2_gcc_project/build/project_km4ns/asdk/make_rom/wifi_driver/lib_rom_wifi_driver_km4ns.a(rom_rtw_xmit.o)
 .debug_loc     0x000000000006424a     0x218f /home/eric_gao/repo/repoe/amebagreen2_gcc_project/build/project_km4ns/asdk/make_rom/wifi_driver/lib_rom_wifi_driver_km4ns.a(rom_rtw_recv_part2.o)
 .debug_loc     0x00000000000663d9      0x638 /home/eric_gao/repo/repoe/amebagreen2_gcc_project/build/project_km4ns/asdk/make_rom/wifi_driver/lib_rom_wifi_driver_km4ns.a(rom_rtw_recv_reorder.o)
 .debug_loc     0x0000000000066a11       0x86 /home/eric_gao/repo/repoe/amebagreen2_gcc_project/build/project_km4ns/asdk/make_rom/wifi_driver/lib_rom_wifi_driver_km4ns.a(rom_rtw_mgnt.o)
 .debug_loc     0x0000000000066a97      0xaef /home/eric_gao/repo/repoe/amebagreen2_gcc_project/build/project_km4ns/asdk/make_rom/wifi_driver/lib_rom_wifi_driver_km4ns.a(rom_rtw_recv_defrag.o)
 .debug_loc     0x0000000000067586      0x1ba /home/eric_gao/repo/repoe/amebagreen2_gcc_project/build/project_km4ns/asdk/make_rom/wifi_driver/lib_rom_wifi_driver_km4ns.a(rom_rtw_state.o)
 .debug_loc     0x0000000000067740      0x437 /home/eric_gao/repo/repoe/amebagreen2_gcc_project/build/project_km4ns/asdk/make_rom/wifi_driver/lib_rom_wifi_driver_km4ns.a(rom_rtw_sta_mgt.o)
 .debug_loc     0x0000000000067b77      0x99e /home/eric_gao/repo/repoe/amebagreen2_gcc_project/build/project_km4ns/asdk/make_rom/wifi_driver/lib_rom_wifi_driver_km4ns.a(rom_rtw_ap.o)
 .debug_loc     0x0000000000068515      0x3b4 /home/eric_gao/repo/repoe/amebagreen2_gcc_project/build/project_km4ns/asdk/make_rom/wifi_driver/lib_rom_wifi_driver_km4ns.a(rom_rtw_skbuff.o)
 .debug_loc     0x00000000000688c9      0x75a /home/eric_gao/repo/repoe/amebagreen2_gcc_project/build/project_km4ns/asdk/make_rom/wifi_driver/lib_rom_wifi_driver_km4ns.a(rom_wifi_hal_ax.o)
 .debug_loc     0x0000000000069023       0xcc /home/eric_gao/repo/repoe/amebagreen2_gcc_project/build/project_km4ns/asdk/make_rom/wifi_driver/lib_rom_wifi_driver_km4ns.a(rom_wifi_hal_bcn.o)
 .debug_loc     0x00000000000690ef      0x7bd /home/eric_gao/repo/repoe/amebagreen2_gcc_project/build/project_km4ns/asdk/make_rom/wifi_driver/lib_rom_wifi_driver_km4ns.a(rom_wifi_hal_debug.o)
 .debug_loc     0x00000000000698ac      0x6d8 /home/eric_gao/repo/repoe/amebagreen2_gcc_project/build/project_km4ns/asdk/make_rom/wifi_driver/lib_rom_wifi_driver_km4ns.a(rom_wifi_hal_init.o)
 .debug_loc     0x0000000000069f84      0xb59 /home/eric_gao/repo/repoe/amebagreen2_gcc_project/build/project_km4ns/asdk/make_rom/wifi_driver/lib_rom_wifi_driver_km4ns.a(rom_wifi_hal_media_access.o)
 .debug_loc     0x000000000006aadd      0x992 /home/eric_gao/repo/repoe/amebagreen2_gcc_project/build/project_km4ns/asdk/make_rom/wifi_driver/lib_rom_wifi_driver_km4ns.a(rom_wifi_hal_misc.o)
 .debug_loc     0x000000000006b46f      0x58a /home/eric_gao/repo/repoe/amebagreen2_gcc_project/build/project_km4ns/asdk/make_rom/wifi_driver/lib_rom_wifi_driver_km4ns.a(rom_wifi_hal_rate.o)
 .debug_loc     0x000000000006b9f9      0x395 /home/eric_gao/repo/repoe/amebagreen2_gcc_project/build/project_km4ns/asdk/make_rom/wifi_driver/lib_rom_wifi_driver_km4ns.a(rom_wifi_hal_secure.o)
 .debug_loc     0x000000000006bd8e      0x256 /home/eric_gao/repo/repoe/amebagreen2_gcc_project/build/project_km4ns/asdk/make_rom/wifi_driver/lib_rom_wifi_driver_km4ns.a(rom_wifi_hal_tsf.o)
 .debug_loc     0x000000000006bfe4      0x4ed /home/eric_gao/repo/repoe/amebagreen2_gcc_project/build/project_km4ns/asdk/make_rom/wifi_driver/lib_rom_wifi_driver_km4ns.a(rom_wifi_hal_txdesc.o)
 .debug_loc     0x000000000006c4d1      0x112 /home/eric_gao/repo/repoe/amebagreen2_gcc_project/build/project_km4ns/asdk/make_rom/wifi_driver/lib_rom_wifi_driver_km4ns.a(rom_wifi_hal_rxdesc.o)
 .debug_loc     0x000000000006c5e3      0x120 /home/eric_gao/repo/repoe/amebagreen2_gcc_project/build/project_km4ns/asdk/make_rom/wifi_driver/lib_rom_wifi_driver_km4ns.a(rom_wifi_hal_io.o)
 .debug_loc     0x000000000006c703      0x549 /home/eric_gao/repo/repoe/amebagreen2_gcc_project/build/project_km4ns/asdk/make_rom/wifi_driver/lib_rom_wifi_driver_km4ns.a(rom_hal_debug.o)
 .debug_loc     0x000000000006cc4c     0x1ad8 /home/eric_gao/repo/repoe/amebagreen2_gcc_project/build/project_km4ns/asdk/make_rom/wifi_driver/lib_rom_wifi_driver_km4ns.a(rom_hal_xmit.o)
 .debug_loc     0x000000000006e724      0xa69 /home/eric_gao/repo/repoe/amebagreen2_gcc_project/build/project_km4ns/asdk/make_rom/wifi_driver/lib_rom_wifi_driver_km4ns.a(rom_hal_xmit_g1.o)
 .debug_loc     0x000000000006f18d     0x13a4 /home/eric_gao/repo/repoe/amebagreen2_gcc_project/build/project_km4ns/asdk/make_rom/wifi_driver/lib_rom_wifi_driver_km4ns.a(rom_hal_recv.o)
 .debug_loc     0x0000000000070531      0xd51 /home/eric_gao/repo/repoe/amebagreen2_gcc_project/build/project_km4ns/asdk/make_rom/wifi_driver/lib_rom_wifi_driver_km4ns.a(rom_hal_h2c.o)
 .debug_loc     0x0000000000071282      0x301 /home/eric_gao/repo/repoe/amebagreen2_gcc_project/build/project_km4ns/asdk/make_rom/wifi_driver/lib_rom_wifi_driver_km4ns.a(rom_hal_h2c_g1.o)
 .debug_loc     0x0000000000071583      0x208 /home/eric_gao/repo/repoe/amebagreen2_gcc_project/build/project_km4ns/asdk/make_rom/wifi_driver/lib_rom_wifi_driver_km4ns.a(rom_rtw_queue.o)

.debug_aranges  0x0000000000000000     0x22d0
 .debug_aranges
                0x0000000000000000       0x30 /home/eric_gao/repo/repoe/amebagreen2_gcc_project/build/project_km4ns/asdk/make_rom/fwlib/lib_rom_fwlib_km4ns.a(ameba_boot_rom.o)
 .debug_aranges
                0x0000000000000030      0x348 /home/eric_gao/repo/repoe/amebagreen2_gcc_project/build/project_km4ns/asdk/make_rom/fwlib/lib_rom_fwlib_km4ns.a(ameba_vector_rom.o)
 .debug_aranges
                0x0000000000000378      0x138 /home/eric_gao/repo/repoe/amebagreen2_gcc_project/build/project_km4ns/asdk/make_rom/fwlib_com/lib_rom_fwlib_com_km4ns.a(ameba_crypto_aes.o)
 .debug_aranges
                0x00000000000004b0       0xe0 /home/eric_gao/repo/repoe/amebagreen2_gcc_project/build/project_km4ns/asdk/make_rom/fwlib_com/lib_rom_fwlib_com_km4ns.a(ameba_crypto_sha.o)
 .debug_aranges
                0x0000000000000590       0x30 /home/eric_gao/repo/repoe/amebagreen2_gcc_project/build/project_km4ns/asdk/make_rom/fwlib_com/lib_rom_fwlib_com_km4ns.a(ameba_crypto.o)
 .debug_aranges
                0x00000000000005c0       0xb8 /home/eric_gao/repo/repoe/amebagreen2_gcc_project/build/project_km4ns/asdk/make_rom/fwlib_com/lib_rom_fwlib_com_km4ns.a(ameba_pke_ecc.o)
 .debug_aranges
                0x0000000000000678       0x28 /home/eric_gao/repo/repoe/amebagreen2_gcc_project/build/project_km4ns/asdk/make_rom/fwlib_com/lib_rom_fwlib_com_km4ns.a(ameba_pke_rsa.o)
 .debug_aranges
                0x00000000000006a0       0x60 /home/eric_gao/repo/repoe/amebagreen2_gcc_project/build/project_km4ns/asdk/make_rom/fwlib_com/lib_rom_fwlib_com_km4ns.a(ameba_pke_common.o)
 .debug_aranges
                0x0000000000000700       0x20 /home/eric_gao/repo/repoe/amebagreen2_gcc_project/build/project_km4ns/asdk/make_rom/fwlib_com/lib_rom_fwlib_com_km4ns.a(ameba_assert_rom.o)
 .debug_aranges
                0x0000000000000720       0xf8 /home/eric_gao/repo/repoe/amebagreen2_gcc_project/build/project_km4ns/asdk/make_rom/fwlib_com/lib_rom_fwlib_com_km4ns.a(ameba_flash_rom.o)
 .debug_aranges
                0x0000000000000818       0xa8 /home/eric_gao/repo/repoe/amebagreen2_gcc_project/build/project_km4ns/asdk/make_rom/fwlib_com/lib_rom_fwlib_com_km4ns.a(ameba_otp_rom.o)
 .debug_aranges
                0x00000000000008c0       0x70 /home/eric_gao/repo/repoe/amebagreen2_gcc_project/build/project_km4ns/asdk/make_rom/fwlib_com/lib_rom_fwlib_com_km4ns.a(ameba_shell_rom.o)
 .debug_aranges
                0x0000000000000930       0x68 /home/eric_gao/repo/repoe/amebagreen2_gcc_project/build/project_km4ns/asdk/make_rom/fwlib_com/lib_rom_fwlib_com_km4ns.a(ameba_tim_rom.o)
 .debug_aranges
                0x0000000000000998       0x38 /home/eric_gao/repo/repoe/amebagreen2_gcc_project/build/project_km4ns/asdk/make_rom/fwlib_com/lib_rom_fwlib_com_km4ns.a(ameba_backup_reg.o)
 .debug_aranges
                0x00000000000009d0       0xb0 /home/eric_gao/repo/repoe/amebagreen2_gcc_project/build/project_km4ns/asdk/make_rom/fwlib_com/lib_rom_fwlib_com_km4ns.a(ameba_gpio_rom.o)
 .debug_aranges
                0x0000000000000a80       0x98 /home/eric_gao/repo/repoe/amebagreen2_gcc_project/build/project_km4ns/asdk/make_rom/fwlib_com/lib_rom_fwlib_com_km4ns.a(ameba_pinmux_rom.o)
 .debug_aranges
                0x0000000000000b18       0x20 /home/eric_gao/repo/repoe/amebagreen2_gcc_project/build/project_km4ns/asdk/make_rom/fwlib_com/lib_rom_fwlib_com_km4ns.a(ameba_rcc_rom.o)
 .debug_aranges
                0x0000000000000b38       0xf8 /home/eric_gao/repo/repoe/amebagreen2_gcc_project/build/project_km4ns/asdk/make_rom/fwlib_com/lib_rom_fwlib_com_km4ns.a(ameba_spinand_rom.o)
 .debug_aranges
                0x0000000000000c30       0x78 /home/eric_gao/repo/repoe/amebagreen2_gcc_project/build/project_km4ns/asdk/make_rom/fwlib_com/lib_rom_fwlib_com_km4ns.a(ameba_trng.o)
 .debug_aranges
                0x0000000000000ca8       0x48 /home/eric_gao/repo/repoe/amebagreen2_gcc_project/build/project_km4ns/asdk/make_rom/fwlib_com/lib_rom_fwlib_com_km4ns.a(ameba_chipinfo_rom.o)
 .debug_aranges
                0x0000000000000cf0      0x168 /home/eric_gao/repo/repoe/amebagreen2_gcc_project/build/project_km4ns/asdk/make_rom/fwlib_com/lib_rom_fwlib_com_km4ns.a(ameba_loguart_rom.o)
 .debug_aranges
                0x0000000000000e58       0xd8 /home/eric_gao/repo/repoe/amebagreen2_gcc_project/build/project_km4ns/asdk/make_rom/fwlib_com/lib_rom_fwlib_com_km4ns.a(ameba_sdio_rom.o)
 .debug_aranges
                0x0000000000000f30      0x158 /home/eric_gao/repo/repoe/amebagreen2_gcc_project/build/project_km4ns/asdk/make_rom/fwlib_com/lib_rom_fwlib_com_km4ns.a(ameba_syscfg_rom.o)
 .debug_aranges
                0x0000000000001088       0xf8 /home/eric_gao/repo/repoe/amebagreen2_gcc_project/build/project_km4ns/asdk/make_rom/fwlib_com/lib_rom_fwlib_com_km4ns.a(ameba_uart_rom.o)
 .debug_aranges
                0x0000000000001180       0x28 /home/eric_gao/repo/repoe/amebagreen2_gcc_project/build/project_km4ns/asdk/make_rom/fwlib_com/lib_rom_fwlib_com_km4ns.a(ameba_clk_rom.o)
 .debug_aranges
                0x00000000000011a8       0x38 /home/eric_gao/repo/repoe/amebagreen2_gcc_project/build/project_km4ns/asdk/make_rom/fwlib_com/lib_rom_fwlib_com_km4ns.a(ameba_delay_rom.o)
 .debug_aranges
                0x00000000000011e0       0x38 /home/eric_gao/repo/repoe/amebagreen2_gcc_project/build/project_km4ns/asdk/make_rom/fwlib_com/lib_rom_fwlib_com_km4ns.a(ameba_monitor_rom.o)
 .debug_aranges
                0x0000000000001218       0x38 /home/eric_gao/repo/repoe/amebagreen2_gcc_project/build/project_km4ns/asdk/make_rom/fwlib_com/lib_rom_fwlib_com_km4ns.a(ameba_sema_rom.o)
 .debug_aranges
                0x0000000000001250       0x38 /home/eric_gao/repo/repoe/amebagreen2_gcc_project/build/project_km4ns/asdk/make_rom/fwlib_com/lib_rom_fwlib_com_km4ns.a(ameba_systimer_rom.o)
 .debug_aranges
                0x0000000000001288       0x60 /home/eric_gao/repo/repoe/amebagreen2_gcc_project/build/project_km4ns/asdk/make_rom/fwlib_com/lib_rom_fwlib_com_km4ns.a(ameba_wdg.o)
 .debug_aranges
                0x00000000000012e8       0x30 /home/eric_gao/repo/repoe/amebagreen2_gcc_project/build/project_km4ns/asdk/make_rom/string/lib_rom_string_km4ns.a(char2num.o)
 .debug_aranges
                0x0000000000001318       0x20 /home/eric_gao/repo/repoe/amebagreen2_gcc_project/build/project_km4ns/asdk/make_rom/string/lib_rom_string_km4ns.a(memchr.o)
 .debug_aranges
                0x0000000000001338       0x20 /home/eric_gao/repo/repoe/amebagreen2_gcc_project/build/project_km4ns/asdk/make_rom/string/lib_rom_string_km4ns.a(memcmp.o)
 .debug_aranges
                0x0000000000001358       0x20 /home/eric_gao/repo/repoe/amebagreen2_gcc_project/build/project_km4ns/asdk/make_rom/string/lib_rom_string_km4ns.a(memcpy.o)
 .debug_aranges
                0x0000000000001378       0x20 /home/eric_gao/repo/repoe/amebagreen2_gcc_project/build/project_km4ns/asdk/make_rom/string/lib_rom_string_km4ns.a(memmove.o)
 .debug_aranges
                0x0000000000001398       0x20 /home/eric_gao/repo/repoe/amebagreen2_gcc_project/build/project_km4ns/asdk/make_rom/string/lib_rom_string_km4ns.a(memset.o)
 .debug_aranges
                0x00000000000013b8       0x30 /home/eric_gao/repo/repoe/amebagreen2_gcc_project/build/project_km4ns/asdk/make_rom/string/lib_rom_string_km4ns.a(sscanf_minimal.o)
 .debug_aranges
                0x00000000000013e8       0x20 /home/eric_gao/repo/repoe/amebagreen2_gcc_project/build/project_km4ns/asdk/make_rom/string/lib_rom_string_km4ns.a(strcmp.o)
 .debug_aranges
                0x0000000000001408       0x20 /home/eric_gao/repo/repoe/amebagreen2_gcc_project/build/project_km4ns/asdk/make_rom/string/lib_rom_string_km4ns.a(strcpy.o)
 .debug_aranges
                0x0000000000001428       0x20 /home/eric_gao/repo/repoe/amebagreen2_gcc_project/build/project_km4ns/asdk/make_rom/string/lib_rom_string_km4ns.a(stricmp.o)
 .debug_aranges
                0x0000000000001448       0x20 /home/eric_gao/repo/repoe/amebagreen2_gcc_project/build/project_km4ns/asdk/make_rom/string/lib_rom_string_km4ns.a(strlen.o)
 .debug_aranges
                0x0000000000001468       0x20 /home/eric_gao/repo/repoe/amebagreen2_gcc_project/build/project_km4ns/asdk/make_rom/string/lib_rom_string_km4ns.a(strncpy.o)
 .debug_aranges
                0x0000000000001488       0x20 /home/eric_gao/repo/repoe/amebagreen2_gcc_project/build/project_km4ns/asdk/make_rom/string/lib_rom_string_km4ns.a(strtol.o)
 .debug_aranges
                0x00000000000014a8       0x20 /home/eric_gao/repo/repoe/amebagreen2_gcc_project/build/project_km4ns/asdk/make_rom/string/lib_rom_string_km4ns.a(strtoul.o)
 .debug_aranges
                0x00000000000014c8       0x20 /home/eric_gao/repo/repoe/amebagreen2_gcc_project/build/project_km4ns/asdk/make_rom/string/lib_rom_string_km4ns.a(strupr.o)
 .debug_aranges
                0x00000000000014e8       0x90 /home/eric_gao/repo/repoe/amebagreen2_gcc_project/build/project_km4ns/asdk/make_rom/string/lib_rom_string_km4ns.a(strwrap.o)
 .debug_aranges
                0x0000000000001578       0xa8 /home/eric_gao/repo/repoe/amebagreen2_gcc_project/build/project_km4ns/asdk/make_rom/stdlib/lib_rom_stdlib_km4ns.a(diag.o)
 .debug_aranges
                0x0000000000001620       0x70 /home/eric_gao/repo/repoe/amebagreen2_gcc_project/build/project_km4ns/asdk/make_rom/stdlib/lib_rom_stdlib_km4ns.a(log.o)
 .debug_aranges
                0x0000000000001690       0x30 /home/eric_gao/repo/repoe/amebagreen2_gcc_project/build/project_km4ns/asdk/make_rom/crashdump/lib_rom_crashdump_km4ns.a(ameba_dump_stack.o)
 .debug_aranges
                0x00000000000016c0       0x50 /home/eric_gao/repo/repoe/amebagreen2_gcc_project/build/project_km4ns/asdk/make_rom/crashdump/lib_rom_crashdump_km4ns.a(ameba_v8m_crashdump.o)
 .debug_aranges
                0x0000000000001710       0x20 /home/eric_gao/repo/repoe/amebagreen2_gcc_project/build/project_km4ns/asdk/make_rom/os/lib_rom_os_km4ns.a(tasks.o)
 .debug_aranges
                0x0000000000001730       0x20 /home/eric_gao/repo/repoe/amebagreen2_gcc_project/build/project_km4ns/asdk/make_rom/os/lib_rom_os_km4ns.a(list.o)
 .debug_aranges
                0x0000000000001750       0x20 /home/eric_gao/repo/repoe/amebagreen2_gcc_project/build/project_km4ns/asdk/make_rom/os/lib_rom_os_km4ns.a(croutine.o)
 .debug_aranges
                0x0000000000001770       0x20 /home/eric_gao/repo/repoe/amebagreen2_gcc_project/build/project_km4ns/asdk/make_rom/os/lib_rom_os_km4ns.a(queue.o)
 .debug_aranges
                0x0000000000001790       0x20 /home/eric_gao/repo/repoe/amebagreen2_gcc_project/build/project_km4ns/asdk/make_rom/os/lib_rom_os_km4ns.a(timers.o)
 .debug_aranges
                0x00000000000017b0       0x20 /home/eric_gao/repo/repoe/amebagreen2_gcc_project/build/project_km4ns/asdk/make_rom/os/lib_rom_os_km4ns.a(event_groups.o)
 .debug_aranges
                0x00000000000017d0       0x20 /home/eric_gao/repo/repoe/amebagreen2_gcc_project/build/project_km4ns/asdk/make_rom/os/lib_rom_os_km4ns.a(stream_buffer.o)
 .debug_aranges
                0x00000000000017f0       0x20 /home/eric_gao/repo/repoe/amebagreen2_gcc_project/build/project_km4ns/asdk/make_rom/os/lib_rom_os_km4ns.a(port.o)
 .debug_aranges
                0x0000000000001810       0x20 /home/eric_gao/repo/repoe/amebagreen2_gcc_project/build/project_km4ns/asdk/make_rom/os/lib_rom_os_km4ns.a(portasm.o)
 .debug_aranges
                0x0000000000001830       0x20 /home/eric_gao/repo/repoe/amebagreen2_gcc_project/build/project_km4ns/asdk/make_rom/os/lib_rom_os_km4ns.a(heap_5.o)
 .debug_aranges
                0x0000000000001850       0x20 /home/eric_gao/repo/repoe/amebagreen2_gcc_project/build/project_km4ns/asdk/make_rom/os/lib_rom_os_km4ns.a(os_cfg.o)
 .debug_aranges
                0x0000000000001870       0x20 /home/eric_gao/repo/repoe/amebagreen2_gcc_project/build/project_km4ns/asdk/make_rom/wifi_driver/lib_rom_wifi_driver_km4ns.a(rom_sha1.o)
 .debug_aranges
                0x0000000000001890       0x20 /home/eric_gao/repo/repoe/amebagreen2_gcc_project/build/project_km4ns/asdk/make_rom/wifi_driver/lib_rom_wifi_driver_km4ns.a(rom_md5.o)
 .debug_aranges
                0x00000000000018b0       0x20 /home/eric_gao/repo/repoe/amebagreen2_gcc_project/build/project_km4ns/asdk/make_rom/wifi_driver/lib_rom_wifi_driver_km4ns.a(rom_aes.o)
 .debug_aranges
                0x00000000000018d0       0x20 /home/eric_gao/repo/repoe/amebagreen2_gcc_project/build/project_km4ns/asdk/make_rom/wifi_driver/lib_rom_wifi_driver_km4ns.a(rom_rtw_sha256.o)
 .debug_aranges
                0x00000000000018f0       0x20 /home/eric_gao/repo/repoe/amebagreen2_gcc_project/build/project_km4ns/asdk/make_rom/wifi_driver/lib_rom_wifi_driver_km4ns.a(rom_rtw_dh_groups.o)
 .debug_aranges
                0x0000000000001910       0x20 /home/eric_gao/repo/repoe/amebagreen2_gcc_project/build/project_km4ns/asdk/make_rom/wifi_driver/lib_rom_wifi_driver_km4ns.a(rom_arc4.o)
 .debug_aranges
                0x0000000000001930       0x20 /home/eric_gao/repo/repoe/amebagreen2_gcc_project/build/project_km4ns/asdk/make_rom/wifi_driver/lib_rom_wifi_driver_km4ns.a(rom_rc4.o)
 .debug_aranges
                0x0000000000001950       0x20 /home/eric_gao/repo/repoe/amebagreen2_gcc_project/build/project_km4ns/asdk/make_rom/wifi_driver/lib_rom_wifi_driver_km4ns.a(rom_rtw_mbedtls_bignum.o)
 .debug_aranges
                0x0000000000001970       0x20 /home/eric_gao/repo/repoe/amebagreen2_gcc_project/build/project_km4ns/asdk/make_rom/wifi_driver/lib_rom_wifi_driver_km4ns.a(rom_rtw_mbedtls_ecp.o)
 .debug_aranges
                0x0000000000001990       0x20 /home/eric_gao/repo/repoe/amebagreen2_gcc_project/build/project_km4ns/asdk/make_rom/wifi_driver/lib_rom_wifi_driver_km4ns.a(rom_rtw_mbedtls_ecp_curves.o)
 .debug_aranges
                0x00000000000019b0       0x20 /home/eric_gao/repo/repoe/amebagreen2_gcc_project/build/project_km4ns/asdk/make_rom/wifi_driver/lib_rom_wifi_driver_km4ns.a(rom_rtw_mbedtls_platform.o)
 .debug_aranges
                0x00000000000019d0       0x18 /home/eric_gao/repo/repoe/amebagreen2_gcc_project/build/project_km4ns/asdk/make_rom/wifi_driver/lib_rom_wifi_driver_km4ns.a(rom_rtw_mbedtls_func_map.o)
 .debug_aranges
                0x00000000000019e8       0x20 /home/eric_gao/repo/repoe/amebagreen2_gcc_project/build/project_km4ns/asdk/make_rom/wifi_driver/lib_rom_wifi_driver_km4ns.a(rom_rtw_security.o)
 .debug_aranges
                0x0000000000001a08       0x20 /home/eric_gao/repo/repoe/amebagreen2_gcc_project/build/project_km4ns/asdk/make_rom/wifi_driver/lib_rom_wifi_driver_km4ns.a(rom_wpa_lite_psk.o)
 .debug_aranges
                0x0000000000001a28       0x20 /home/eric_gao/repo/repoe/amebagreen2_gcc_project/build/project_km4ns/asdk/make_rom/wifi_driver/lib_rom_wifi_driver_km4ns.a(rom_wpa_lite_part2.o)
 .debug_aranges
                0x0000000000001a48       0x20 /home/eric_gao/repo/repoe/amebagreen2_gcc_project/build/project_km4ns/asdk/make_rom/wifi_driver/lib_rom_wifi_driver_km4ns.a(rom_wpa_lite_sae.o)
 .debug_aranges
                0x0000000000001a68       0x20 /home/eric_gao/repo/repoe/amebagreen2_gcc_project/build/project_km4ns/asdk/make_rom/wifi_driver/lib_rom_wifi_driver_km4ns.a(rom_wpa_lite_sae_crypto.o)
 .debug_aranges
                0x0000000000001a88       0x20 /home/eric_gao/repo/repoe/amebagreen2_gcc_project/build/project_km4ns/asdk/make_rom/wifi_driver/lib_rom_wifi_driver_km4ns.a(rom_rtw_ieee80211.o)
 .debug_aranges
                0x0000000000001aa8       0x20 /home/eric_gao/repo/repoe/amebagreen2_gcc_project/build/project_km4ns/asdk/make_rom/wifi_driver/lib_rom_wifi_driver_km4ns.a(rom_rtw_ieee80211_part2.o)
 .debug_aranges
                0x0000000000001ac8       0x20 /home/eric_gao/repo/repoe/amebagreen2_gcc_project/build/project_km4ns/asdk/make_rom/wifi_driver/lib_rom_wifi_driver_km4ns.a(rom_rtw_probe.o)
 .debug_aranges
                0x0000000000001ae8       0x20 /home/eric_gao/repo/repoe/amebagreen2_gcc_project/build/project_km4ns/asdk/make_rom/wifi_driver/lib_rom_wifi_driver_km4ns.a(rom_rtw_auth.o)
 .debug_aranges
                0x0000000000001b08       0x20 /home/eric_gao/repo/repoe/amebagreen2_gcc_project/build/project_km4ns/asdk/make_rom/wifi_driver/lib_rom_wifi_driver_km4ns.a(rom_rtw_action.o)
 .debug_aranges
                0x0000000000001b28       0x20 /home/eric_gao/repo/repoe/amebagreen2_gcc_project/build/project_km4ns/asdk/make_rom/wifi_driver/lib_rom_wifi_driver_km4ns.a(rom_rtw_psk.o)
 .debug_aranges
                0x0000000000001b48       0x20 /home/eric_gao/repo/repoe/amebagreen2_gcc_project/build/project_km4ns/asdk/make_rom/wifi_driver/lib_rom_wifi_driver_km4ns.a(rom_rtw_pmksa_cache.o)
 .debug_aranges
                0x0000000000001b68       0x20 /home/eric_gao/repo/repoe/amebagreen2_gcc_project/build/project_km4ns/asdk/make_rom/wifi_driver/lib_rom_wifi_driver_km4ns.a(rom_rtw_rf.o)
 .debug_aranges
                0x0000000000001b88       0x20 /home/eric_gao/repo/repoe/amebagreen2_gcc_project/build/project_km4ns/asdk/make_rom/wifi_driver/lib_rom_wifi_driver_km4ns.a(rom_rtw_recv.o)
 .debug_aranges
                0x0000000000001ba8       0x20 /home/eric_gao/repo/repoe/amebagreen2_gcc_project/build/project_km4ns/asdk/make_rom/wifi_driver/lib_rom_wifi_driver_km4ns.a(rom_rtw_beacon.o)
 .debug_aranges
                0x0000000000001bc8       0x20 /home/eric_gao/repo/repoe/amebagreen2_gcc_project/build/project_km4ns/asdk/make_rom/wifi_driver/lib_rom_wifi_driver_km4ns.a(rom_rtw_assoc.o)
 .debug_aranges
                0x0000000000001be8       0x20 /home/eric_gao/repo/repoe/amebagreen2_gcc_project/build/project_km4ns/asdk/make_rom/wifi_driver/lib_rom_wifi_driver_km4ns.a(rom_rtw_vht.o)
 .debug_aranges
                0x0000000000001c08       0x20 /home/eric_gao/repo/repoe/amebagreen2_gcc_project/build/project_km4ns/asdk/make_rom/wifi_driver/lib_rom_wifi_driver_km4ns.a(rom_rtw_he.o)
 .debug_aranges
                0x0000000000001c28       0x20 /home/eric_gao/repo/repoe/amebagreen2_gcc_project/build/project_km4ns/asdk/make_rom/wifi_driver/lib_rom_wifi_driver_km4ns.a(rom_rtw_80211w.o)
 .debug_aranges
                0x0000000000001c48       0x20 /home/eric_gao/repo/repoe/amebagreen2_gcc_project/build/project_km4ns/asdk/make_rom/wifi_driver/lib_rom_wifi_driver_km4ns.a(rom_rtw_rate.o)
 .debug_aranges
                0x0000000000001c68       0x20 /home/eric_gao/repo/repoe/amebagreen2_gcc_project/build/project_km4ns/asdk/make_rom/wifi_driver/lib_rom_wifi_driver_km4ns.a(rom_rtw_chbw.o)
 .debug_aranges
                0x0000000000001c88       0x18 /home/eric_gao/repo/repoe/amebagreen2_gcc_project/build/project_km4ns/asdk/make_rom/wifi_driver/lib_rom_wifi_driver_km4ns.a(rom_rtw_11d.o)
 .debug_aranges
                0x0000000000001ca0       0x20 /home/eric_gao/repo/repoe/amebagreen2_gcc_project/build/project_km4ns/asdk/make_rom/wifi_driver/lib_rom_wifi_driver_km4ns.a(rom_rtw_ht.o)
 .debug_aranges
                0x0000000000001cc0       0x20 /home/eric_gao/repo/repoe/amebagreen2_gcc_project/build/project_km4ns/asdk/make_rom/wifi_driver/lib_rom_wifi_driver_km4ns.a(rom_rtw_network.o)
 .debug_aranges
                0x0000000000001ce0       0x20 /home/eric_gao/repo/repoe/amebagreen2_gcc_project/build/project_km4ns/asdk/make_rom/wifi_driver/lib_rom_wifi_driver_km4ns.a(rom_rtw_pmksa_cache_part2.o)
 .debug_aranges
                0x0000000000001d00       0x20 /home/eric_gao/repo/repoe/amebagreen2_gcc_project/build/project_km4ns/asdk/make_rom/wifi_driver/lib_rom_wifi_driver_km4ns.a(rom_rtw_11d_part2.o)
 .debug_aranges
                0x0000000000001d20       0x20 /home/eric_gao/repo/repoe/amebagreen2_gcc_project/build/project_km4ns/asdk/make_rom/wifi_driver/lib_rom_wifi_driver_km4ns.a(rom_rtw_he_part2.o)
 .debug_aranges
                0x0000000000001d40       0x20 /home/eric_gao/repo/repoe/amebagreen2_gcc_project/build/project_km4ns/asdk/make_rom/wifi_driver/lib_rom_wifi_driver_km4ns.a(rom_rtw_shortcut.o)
 .debug_aranges
                0x0000000000001d60       0x20 /home/eric_gao/repo/repoe/amebagreen2_gcc_project/build/project_km4ns/asdk/make_rom/wifi_driver/lib_rom_wifi_driver_km4ns.a(rom_rtw_setkey.o)
 .debug_aranges
                0x0000000000001d80       0x20 /home/eric_gao/repo/repoe/amebagreen2_gcc_project/build/project_km4ns/asdk/make_rom/wifi_driver/lib_rom_wifi_driver_km4ns.a(rom_rtw_beacon_part2.o)
 .debug_aranges
                0x0000000000001da0       0x20 /home/eric_gao/repo/repoe/amebagreen2_gcc_project/build/project_km4ns/asdk/make_rom/wifi_driver/lib_rom_wifi_driver_km4ns.a(rom_rtw_sitesurvey.o)
 .debug_aranges
                0x0000000000001dc0       0x20 /home/eric_gao/repo/repoe/amebagreen2_gcc_project/build/project_km4ns/asdk/make_rom/wifi_driver/lib_rom_wifi_driver_km4ns.a(rom_rtw_sitesurvey_report.o)
 .debug_aranges
                0x0000000000001de0       0x20 /home/eric_gao/repo/repoe/amebagreen2_gcc_project/build/project_km4ns/asdk/make_rom/wifi_driver/lib_rom_wifi_driver_km4ns.a(rom_rtw_ap_xmit.o)
 .debug_aranges
                0x0000000000001e00       0x20 /home/eric_gao/repo/repoe/amebagreen2_gcc_project/build/project_km4ns/asdk/make_rom/wifi_driver/lib_rom_wifi_driver_km4ns.a(rom_rtw_addba.o)
 .debug_aranges
                0x0000000000001e20       0x20 /home/eric_gao/repo/repoe/amebagreen2_gcc_project/build/project_km4ns/asdk/make_rom/wifi_driver/lib_rom_wifi_driver_km4ns.a(rom_rtw_80211w_part2.o)
 .debug_aranges
                0x0000000000001e40       0x20 /home/eric_gao/repo/repoe/amebagreen2_gcc_project/build/project_km4ns/asdk/make_rom/wifi_driver/lib_rom_wifi_driver_km4ns.a(rom_rtw_auth_part2.o)
 .debug_aranges
                0x0000000000001e60       0x20 /home/eric_gao/repo/repoe/amebagreen2_gcc_project/build/project_km4ns/asdk/make_rom/wifi_driver/lib_rom_wifi_driver_km4ns.a(rom_rtw_action_part2.o)
 .debug_aranges
                0x0000000000001e80       0x20 /home/eric_gao/repo/repoe/amebagreen2_gcc_project/build/project_km4ns/asdk/make_rom/wifi_driver/lib_rom_wifi_driver_km4ns.a(rom_rtw_join.o)
 .debug_aranges
                0x0000000000001ea0       0x20 /home/eric_gao/repo/repoe/amebagreen2_gcc_project/build/project_km4ns/asdk/make_rom/wifi_driver/lib_rom_wifi_driver_km4ns.a(rom_rtw_join_result.o)
 .debug_aranges
                0x0000000000001ec0       0x20 /home/eric_gao/repo/repoe/amebagreen2_gcc_project/build/project_km4ns/asdk/make_rom/wifi_driver/lib_rom_wifi_driver_km4ns.a(rom_rtw_assoc_part2.o)
 .debug_aranges
                0x0000000000001ee0       0x20 /home/eric_gao/repo/repoe/amebagreen2_gcc_project/build/project_km4ns/asdk/make_rom/wifi_driver/lib_rom_wifi_driver_km4ns.a(rom_rtw_security_part2.o)
 .debug_aranges
                0x0000000000001f00       0x20 /home/eric_gao/repo/repoe/amebagreen2_gcc_project/build/project_km4ns/asdk/make_rom/wifi_driver/lib_rom_wifi_driver_km4ns.a(rom_rtw_vht_part2.o)
 .debug_aranges
                0x0000000000001f20       0x20 /home/eric_gao/repo/repoe/amebagreen2_gcc_project/build/project_km4ns/asdk/make_rom/wifi_driver/lib_rom_wifi_driver_km4ns.a(rom_rtw_xmit.o)
 .debug_aranges
                0x0000000000001f40       0x20 /home/eric_gao/repo/repoe/amebagreen2_gcc_project/build/project_km4ns/asdk/make_rom/wifi_driver/lib_rom_wifi_driver_km4ns.a(rom_rtw_recv_part2.o)
 .debug_aranges
                0x0000000000001f60       0x20 /home/eric_gao/repo/repoe/amebagreen2_gcc_project/build/project_km4ns/asdk/make_rom/wifi_driver/lib_rom_wifi_driver_km4ns.a(rom_rtw_recv_reorder.o)
 .debug_aranges
                0x0000000000001f80       0x20 /home/eric_gao/repo/repoe/amebagreen2_gcc_project/build/project_km4ns/asdk/make_rom/wifi_driver/lib_rom_wifi_driver_km4ns.a(rom_rtw_mgnt.o)
 .debug_aranges
                0x0000000000001fa0       0x20 /home/eric_gao/repo/repoe/amebagreen2_gcc_project/build/project_km4ns/asdk/make_rom/wifi_driver/lib_rom_wifi_driver_km4ns.a(rom_rtw_recv_defrag.o)
 .debug_aranges
                0x0000000000001fc0       0x20 /home/eric_gao/repo/repoe/amebagreen2_gcc_project/build/project_km4ns/asdk/make_rom/wifi_driver/lib_rom_wifi_driver_km4ns.a(rom_rtw_state.o)
 .debug_aranges
                0x0000000000001fe0       0x20 /home/eric_gao/repo/repoe/amebagreen2_gcc_project/build/project_km4ns/asdk/make_rom/wifi_driver/lib_rom_wifi_driver_km4ns.a(rom_rtw_sta_mgt.o)
 .debug_aranges
                0x0000000000002000       0x20 /home/eric_gao/repo/repoe/amebagreen2_gcc_project/build/project_km4ns/asdk/make_rom/wifi_driver/lib_rom_wifi_driver_km4ns.a(rom_rtw_ap.o)
 .debug_aranges
                0x0000000000002020       0x20 /home/eric_gao/repo/repoe/amebagreen2_gcc_project/build/project_km4ns/asdk/make_rom/wifi_driver/lib_rom_wifi_driver_km4ns.a(rom_rtw_skbuff.o)
 .debug_aranges
                0x0000000000002040       0x20 /home/eric_gao/repo/repoe/amebagreen2_gcc_project/build/project_km4ns/asdk/make_rom/wifi_driver/lib_rom_wifi_driver_km4ns.a(rom_wifi_hal_ax.o)
 .debug_aranges
                0x0000000000002060       0x20 /home/eric_gao/repo/repoe/amebagreen2_gcc_project/build/project_km4ns/asdk/make_rom/wifi_driver/lib_rom_wifi_driver_km4ns.a(rom_wifi_hal_bcn.o)
 .debug_aranges
                0x0000000000002080       0x20 /home/eric_gao/repo/repoe/amebagreen2_gcc_project/build/project_km4ns/asdk/make_rom/wifi_driver/lib_rom_wifi_driver_km4ns.a(rom_wifi_hal_debug.o)
 .debug_aranges
                0x00000000000020a0       0x20 /home/eric_gao/repo/repoe/amebagreen2_gcc_project/build/project_km4ns/asdk/make_rom/wifi_driver/lib_rom_wifi_driver_km4ns.a(rom_wifi_hal_init.o)
 .debug_aranges
                0x00000000000020c0       0x20 /home/eric_gao/repo/repoe/amebagreen2_gcc_project/build/project_km4ns/asdk/make_rom/wifi_driver/lib_rom_wifi_driver_km4ns.a(rom_wifi_hal_media_access.o)
 .debug_aranges
                0x00000000000020e0       0x20 /home/eric_gao/repo/repoe/amebagreen2_gcc_project/build/project_km4ns/asdk/make_rom/wifi_driver/lib_rom_wifi_driver_km4ns.a(rom_wifi_hal_misc.o)
 .debug_aranges
                0x0000000000002100       0x20 /home/eric_gao/repo/repoe/amebagreen2_gcc_project/build/project_km4ns/asdk/make_rom/wifi_driver/lib_rom_wifi_driver_km4ns.a(rom_wifi_hal_rate.o)
 .debug_aranges
                0x0000000000002120       0x20 /home/eric_gao/repo/repoe/amebagreen2_gcc_project/build/project_km4ns/asdk/make_rom/wifi_driver/lib_rom_wifi_driver_km4ns.a(rom_wifi_hal_secure.o)
 .debug_aranges
                0x0000000000002140       0x20 /home/eric_gao/repo/repoe/amebagreen2_gcc_project/build/project_km4ns/asdk/make_rom/wifi_driver/lib_rom_wifi_driver_km4ns.a(rom_wifi_hal_tsf.o)
 .debug_aranges
                0x0000000000002160       0x20 /home/eric_gao/repo/repoe/amebagreen2_gcc_project/build/project_km4ns/asdk/make_rom/wifi_driver/lib_rom_wifi_driver_km4ns.a(rom_wifi_hal_txdesc.o)
 .debug_aranges
                0x0000000000002180       0x20 /home/eric_gao/repo/repoe/amebagreen2_gcc_project/build/project_km4ns/asdk/make_rom/wifi_driver/lib_rom_wifi_driver_km4ns.a(rom_wifi_hal_rxdesc.o)
 .debug_aranges
                0x00000000000021a0       0x20 /home/eric_gao/repo/repoe/amebagreen2_gcc_project/build/project_km4ns/asdk/make_rom/wifi_driver/lib_rom_wifi_driver_km4ns.a(rom_wifi_hal_io.o)
 .debug_aranges
                0x00000000000021c0       0x20 /home/eric_gao/repo/repoe/amebagreen2_gcc_project/build/project_km4ns/asdk/make_rom/wifi_driver/lib_rom_wifi_driver_km4ns.a(rom_hal_debug.o)
 .debug_aranges
                0x00000000000021e0       0x20 /home/eric_gao/repo/repoe/amebagreen2_gcc_project/build/project_km4ns/asdk/make_rom/wifi_driver/lib_rom_wifi_driver_km4ns.a(rom_hal_xmit.o)
 .debug_aranges
                0x0000000000002200       0x20 /home/eric_gao/repo/repoe/amebagreen2_gcc_project/build/project_km4ns/asdk/make_rom/wifi_driver/lib_rom_wifi_driver_km4ns.a(rom_hal_xmit_g1.o)
 .debug_aranges
                0x0000000000002220       0x18 /home/eric_gao/repo/repoe/amebagreen2_gcc_project/build/project_km4ns/asdk/make_rom/wifi_driver/lib_rom_wifi_driver_km4ns.a(rom_hal_structs.o)
 .debug_aranges
                0x0000000000002238       0x20 /home/eric_gao/repo/repoe/amebagreen2_gcc_project/build/project_km4ns/asdk/make_rom/wifi_driver/lib_rom_wifi_driver_km4ns.a(rom_hal_recv.o)
 .debug_aranges
                0x0000000000002258       0x20 /home/eric_gao/repo/repoe/amebagreen2_gcc_project/build/project_km4ns/asdk/make_rom/wifi_driver/lib_rom_wifi_driver_km4ns.a(rom_hal_h2c.o)
 .debug_aranges
                0x0000000000002278       0x20 /home/eric_gao/repo/repoe/amebagreen2_gcc_project/build/project_km4ns/asdk/make_rom/wifi_driver/lib_rom_wifi_driver_km4ns.a(rom_hal_h2c_g1.o)
 .debug_aranges
                0x0000000000002298       0x20 /home/eric_gao/repo/repoe/amebagreen2_gcc_project/build/project_km4ns/asdk/make_rom/wifi_driver/lib_rom_wifi_driver_km4ns.a(rom_rtw_queue.o)
 .debug_aranges
                0x00000000000022b8       0x18 /home/eric_gao/repo/repoe/amebagreen2_gcc_project/build/project_km4ns/asdk/make_rom/wifi_driver/lib_rom_wifi_driver_km4ns.a(rom_hal_rom_to_flash.o)

.debug_ranges   0x0000000000000000     0x6440
 .debug_ranges  0x0000000000000000       0x20 /home/eric_gao/repo/repoe/amebagreen2_gcc_project/build/project_km4ns/asdk/make_rom/fwlib/lib_rom_fwlib_km4ns.a(ameba_boot_rom.o)
 .debug_ranges  0x0000000000000020      0x350 /home/eric_gao/repo/repoe/amebagreen2_gcc_project/build/project_km4ns/asdk/make_rom/fwlib/lib_rom_fwlib_km4ns.a(ameba_vector_rom.o)
 .debug_ranges  0x0000000000000370      0x2f8 /home/eric_gao/repo/repoe/amebagreen2_gcc_project/build/project_km4ns/asdk/make_rom/fwlib_com/lib_rom_fwlib_com_km4ns.a(ameba_crypto_aes.o)
 .debug_ranges  0x0000000000000668      0x280 /home/eric_gao/repo/repoe/amebagreen2_gcc_project/build/project_km4ns/asdk/make_rom/fwlib_com/lib_rom_fwlib_com_km4ns.a(ameba_crypto_sha.o)
 .debug_ranges  0x00000000000008e8       0x38 /home/eric_gao/repo/repoe/amebagreen2_gcc_project/build/project_km4ns/asdk/make_rom/fwlib_com/lib_rom_fwlib_com_km4ns.a(ameba_crypto.o)
 .debug_ranges  0x0000000000000920       0xc8 /home/eric_gao/repo/repoe/amebagreen2_gcc_project/build/project_km4ns/asdk/make_rom/fwlib_com/lib_rom_fwlib_com_km4ns.a(ameba_pke_ecc.o)
 .debug_ranges  0x00000000000009e8       0x18 /home/eric_gao/repo/repoe/amebagreen2_gcc_project/build/project_km4ns/asdk/make_rom/fwlib_com/lib_rom_fwlib_com_km4ns.a(ameba_pke_rsa.o)
 .debug_ranges  0x0000000000000a00       0x50 /home/eric_gao/repo/repoe/amebagreen2_gcc_project/build/project_km4ns/asdk/make_rom/fwlib_com/lib_rom_fwlib_com_km4ns.a(ameba_pke_common.o)
 .debug_ranges  0x0000000000000a50       0x10 /home/eric_gao/repo/repoe/amebagreen2_gcc_project/build/project_km4ns/asdk/make_rom/fwlib_com/lib_rom_fwlib_com_km4ns.a(ameba_assert_rom.o)
 .debug_ranges  0x0000000000000a60       0xe8 /home/eric_gao/repo/repoe/amebagreen2_gcc_project/build/project_km4ns/asdk/make_rom/fwlib_com/lib_rom_fwlib_com_km4ns.a(ameba_flash_rom.o)
 .debug_ranges  0x0000000000000b48       0x98 /home/eric_gao/repo/repoe/amebagreen2_gcc_project/build/project_km4ns/asdk/make_rom/fwlib_com/lib_rom_fwlib_com_km4ns.a(ameba_otp_rom.o)
 .debug_ranges  0x0000000000000be0       0x80 /home/eric_gao/repo/repoe/amebagreen2_gcc_project/build/project_km4ns/asdk/make_rom/fwlib_com/lib_rom_fwlib_com_km4ns.a(ameba_shell_rom.o)
 .debug_ranges  0x0000000000000c60       0x58 /home/eric_gao/repo/repoe/amebagreen2_gcc_project/build/project_km4ns/asdk/make_rom/fwlib_com/lib_rom_fwlib_com_km4ns.a(ameba_tim_rom.o)
 .debug_ranges  0x0000000000000cb8       0x28 /home/eric_gao/repo/repoe/amebagreen2_gcc_project/build/project_km4ns/asdk/make_rom/fwlib_com/lib_rom_fwlib_com_km4ns.a(ameba_backup_reg.o)
 .debug_ranges  0x0000000000000ce0      0x100 /home/eric_gao/repo/repoe/amebagreen2_gcc_project/build/project_km4ns/asdk/make_rom/fwlib_com/lib_rom_fwlib_com_km4ns.a(ameba_gpio_rom.o)
 .debug_ranges  0x0000000000000de0       0x88 /home/eric_gao/repo/repoe/amebagreen2_gcc_project/build/project_km4ns/asdk/make_rom/fwlib_com/lib_rom_fwlib_com_km4ns.a(ameba_pinmux_rom.o)
 .debug_ranges  0x0000000000000e68       0x10 /home/eric_gao/repo/repoe/amebagreen2_gcc_project/build/project_km4ns/asdk/make_rom/fwlib_com/lib_rom_fwlib_com_km4ns.a(ameba_rcc_rom.o)
 .debug_ranges  0x0000000000000e78       0xe8 /home/eric_gao/repo/repoe/amebagreen2_gcc_project/build/project_km4ns/asdk/make_rom/fwlib_com/lib_rom_fwlib_com_km4ns.a(ameba_spinand_rom.o)
 .debug_ranges  0x0000000000000f60       0xf8 /home/eric_gao/repo/repoe/amebagreen2_gcc_project/build/project_km4ns/asdk/make_rom/fwlib_com/lib_rom_fwlib_com_km4ns.a(ameba_trng.o)
 .debug_ranges  0x0000000000001058       0x38 /home/eric_gao/repo/repoe/amebagreen2_gcc_project/build/project_km4ns/asdk/make_rom/fwlib_com/lib_rom_fwlib_com_km4ns.a(ameba_chipinfo_rom.o)
 .debug_ranges  0x0000000000001090      0x288 /home/eric_gao/repo/repoe/amebagreen2_gcc_project/build/project_km4ns/asdk/make_rom/fwlib_com/lib_rom_fwlib_com_km4ns.a(ameba_loguart_rom.o)
 .debug_ranges  0x0000000000001318       0xc8 /home/eric_gao/repo/repoe/amebagreen2_gcc_project/build/project_km4ns/asdk/make_rom/fwlib_com/lib_rom_fwlib_com_km4ns.a(ameba_sdio_rom.o)
 .debug_ranges  0x00000000000013e0      0x160 /home/eric_gao/repo/repoe/amebagreen2_gcc_project/build/project_km4ns/asdk/make_rom/fwlib_com/lib_rom_fwlib_com_km4ns.a(ameba_syscfg_rom.o)
 .debug_ranges  0x0000000000001540       0xe8 /home/eric_gao/repo/repoe/amebagreen2_gcc_project/build/project_km4ns/asdk/make_rom/fwlib_com/lib_rom_fwlib_com_km4ns.a(ameba_uart_rom.o)
 .debug_ranges  0x0000000000001628       0x18 /home/eric_gao/repo/repoe/amebagreen2_gcc_project/build/project_km4ns/asdk/make_rom/fwlib_com/lib_rom_fwlib_com_km4ns.a(ameba_clk_rom.o)
 .debug_ranges  0x0000000000001640       0x50 /home/eric_gao/repo/repoe/amebagreen2_gcc_project/build/project_km4ns/asdk/make_rom/fwlib_com/lib_rom_fwlib_com_km4ns.a(ameba_delay_rom.o)
 .debug_ranges  0x0000000000001690       0x28 /home/eric_gao/repo/repoe/amebagreen2_gcc_project/build/project_km4ns/asdk/make_rom/fwlib_com/lib_rom_fwlib_com_km4ns.a(ameba_monitor_rom.o)
 .debug_ranges  0x00000000000016b8       0x28 /home/eric_gao/repo/repoe/amebagreen2_gcc_project/build/project_km4ns/asdk/make_rom/fwlib_com/lib_rom_fwlib_com_km4ns.a(ameba_sema_rom.o)
 .debug_ranges  0x00000000000016e0       0x28 /home/eric_gao/repo/repoe/amebagreen2_gcc_project/build/project_km4ns/asdk/make_rom/fwlib_com/lib_rom_fwlib_com_km4ns.a(ameba_systimer_rom.o)
 .debug_ranges  0x0000000000001708       0x50 /home/eric_gao/repo/repoe/amebagreen2_gcc_project/build/project_km4ns/asdk/make_rom/fwlib_com/lib_rom_fwlib_com_km4ns.a(ameba_wdg.o)
 .debug_ranges  0x0000000000001758      0x100 /home/eric_gao/repo/repoe/amebagreen2_gcc_project/build/project_km4ns/asdk/make_rom/string/lib_rom_string_km4ns.a(char2num.o)
 .debug_ranges  0x0000000000001858       0x10 /home/eric_gao/repo/repoe/amebagreen2_gcc_project/build/project_km4ns/asdk/make_rom/string/lib_rom_string_km4ns.a(memchr.o)
 .debug_ranges  0x0000000000001868       0x10 /home/eric_gao/repo/repoe/amebagreen2_gcc_project/build/project_km4ns/asdk/make_rom/string/lib_rom_string_km4ns.a(memcmp.o)
 .debug_ranges  0x0000000000001878       0x10 /home/eric_gao/repo/repoe/amebagreen2_gcc_project/build/project_km4ns/asdk/make_rom/string/lib_rom_string_km4ns.a(memcpy.o)
 .debug_ranges  0x0000000000001888       0x10 /home/eric_gao/repo/repoe/amebagreen2_gcc_project/build/project_km4ns/asdk/make_rom/string/lib_rom_string_km4ns.a(memmove.o)
 .debug_ranges  0x0000000000001898       0x10 /home/eric_gao/repo/repoe/amebagreen2_gcc_project/build/project_km4ns/asdk/make_rom/string/lib_rom_string_km4ns.a(memset.o)
 .debug_ranges  0x00000000000018a8       0xa0 /home/eric_gao/repo/repoe/amebagreen2_gcc_project/build/project_km4ns/asdk/make_rom/string/lib_rom_string_km4ns.a(sscanf_minimal.o)
 .debug_ranges  0x0000000000001948       0x10 /home/eric_gao/repo/repoe/amebagreen2_gcc_project/build/project_km4ns/asdk/make_rom/string/lib_rom_string_km4ns.a(strcmp.o)
 .debug_ranges  0x0000000000001958       0x10 /home/eric_gao/repo/repoe/amebagreen2_gcc_project/build/project_km4ns/asdk/make_rom/string/lib_rom_string_km4ns.a(strcpy.o)
 .debug_ranges  0x0000000000001968       0x80 /home/eric_gao/repo/repoe/amebagreen2_gcc_project/build/project_km4ns/asdk/make_rom/string/lib_rom_string_km4ns.a(stricmp.o)
 .debug_ranges  0x00000000000019e8       0x10 /home/eric_gao/repo/repoe/amebagreen2_gcc_project/build/project_km4ns/asdk/make_rom/string/lib_rom_string_km4ns.a(strlen.o)
 .debug_ranges  0x00000000000019f8       0x10 /home/eric_gao/repo/repoe/amebagreen2_gcc_project/build/project_km4ns/asdk/make_rom/string/lib_rom_string_km4ns.a(strncpy.o)
 .debug_ranges  0x0000000000001a08       0x10 /home/eric_gao/repo/repoe/amebagreen2_gcc_project/build/project_km4ns/asdk/make_rom/string/lib_rom_string_km4ns.a(strtol.o)
 .debug_ranges  0x0000000000001a18       0x38 /home/eric_gao/repo/repoe/amebagreen2_gcc_project/build/project_km4ns/asdk/make_rom/string/lib_rom_string_km4ns.a(strtoul.o)
 .debug_ranges  0x0000000000001a50       0x10 /home/eric_gao/repo/repoe/amebagreen2_gcc_project/build/project_km4ns/asdk/make_rom/string/lib_rom_string_km4ns.a(strupr.o)
 .debug_ranges  0x0000000000001a60       0x80 /home/eric_gao/repo/repoe/amebagreen2_gcc_project/build/project_km4ns/asdk/make_rom/string/lib_rom_string_km4ns.a(strwrap.o)
 .debug_ranges  0x0000000000001ae0       0xc8 /home/eric_gao/repo/repoe/amebagreen2_gcc_project/build/project_km4ns/asdk/make_rom/stdlib/lib_rom_stdlib_km4ns.a(diag.o)
 .debug_ranges  0x0000000000001ba8      0x108 /home/eric_gao/repo/repoe/amebagreen2_gcc_project/build/project_km4ns/asdk/make_rom/stdlib/lib_rom_stdlib_km4ns.a(log.o)
 .debug_ranges  0x0000000000001cb0       0x38 /home/eric_gao/repo/repoe/amebagreen2_gcc_project/build/project_km4ns/asdk/make_rom/crashdump/lib_rom_crashdump_km4ns.a(ameba_dump_stack.o)
 .debug_ranges  0x0000000000001ce8       0x90 /home/eric_gao/repo/repoe/amebagreen2_gcc_project/build/project_km4ns/asdk/make_rom/crashdump/lib_rom_crashdump_km4ns.a(ameba_v8m_crashdump.o)
 .debug_ranges  0x0000000000001d78      0x150 /home/eric_gao/repo/repoe/amebagreen2_gcc_project/build/project_km4ns/asdk/make_rom/os/lib_rom_os_km4ns.a(tasks.o)
 .debug_ranges  0x0000000000001ec8       0x40 /home/eric_gao/repo/repoe/amebagreen2_gcc_project/build/project_km4ns/asdk/make_rom/os/lib_rom_os_km4ns.a(croutine.o)
 .debug_ranges  0x0000000000001f08      0x138 /home/eric_gao/repo/repoe/amebagreen2_gcc_project/build/project_km4ns/asdk/make_rom/os/lib_rom_os_km4ns.a(queue.o)
 .debug_ranges  0x0000000000002040       0x30 /home/eric_gao/repo/repoe/amebagreen2_gcc_project/build/project_km4ns/asdk/make_rom/os/lib_rom_os_km4ns.a(timers.o)
 .debug_ranges  0x0000000000002070       0x20 /home/eric_gao/repo/repoe/amebagreen2_gcc_project/build/project_km4ns/asdk/make_rom/os/lib_rom_os_km4ns.a(event_groups.o)
 .debug_ranges  0x0000000000002090       0x30 /home/eric_gao/repo/repoe/amebagreen2_gcc_project/build/project_km4ns/asdk/make_rom/os/lib_rom_os_km4ns.a(heap_5.o)
 .debug_ranges  0x00000000000020c0       0xb0 /home/eric_gao/repo/repoe/amebagreen2_gcc_project/build/project_km4ns/asdk/make_rom/wifi_driver/lib_rom_wifi_driver_km4ns.a(rom_sha1.o)
 .debug_ranges  0x0000000000002170       0xf0 /home/eric_gao/repo/repoe/amebagreen2_gcc_project/build/project_km4ns/asdk/make_rom/wifi_driver/lib_rom_wifi_driver_km4ns.a(rom_md5.o)
 .debug_ranges  0x0000000000002260       0x80 /home/eric_gao/repo/repoe/amebagreen2_gcc_project/build/project_km4ns/asdk/make_rom/wifi_driver/lib_rom_wifi_driver_km4ns.a(rom_rtw_sha256.o)
 .debug_ranges  0x00000000000022e0       0x20 /home/eric_gao/repo/repoe/amebagreen2_gcc_project/build/project_km4ns/asdk/make_rom/wifi_driver/lib_rom_wifi_driver_km4ns.a(rom_arc4.o)
 .debug_ranges  0x0000000000002300      0x948 /home/eric_gao/repo/repoe/amebagreen2_gcc_project/build/project_km4ns/asdk/make_rom/wifi_driver/lib_rom_wifi_driver_km4ns.a(rom_rtw_mbedtls_bignum.o)
 .debug_ranges  0x0000000000002c48      0x478 /home/eric_gao/repo/repoe/amebagreen2_gcc_project/build/project_km4ns/asdk/make_rom/wifi_driver/lib_rom_wifi_driver_km4ns.a(rom_rtw_mbedtls_ecp.o)
 .debug_ranges  0x00000000000030c0      0xdf0 /home/eric_gao/repo/repoe/amebagreen2_gcc_project/build/project_km4ns/asdk/make_rom/wifi_driver/lib_rom_wifi_driver_km4ns.a(rom_rtw_mbedtls_ecp_curves.o)
 .debug_ranges  0x0000000000003eb0      0x3a0 /home/eric_gao/repo/repoe/amebagreen2_gcc_project/build/project_km4ns/asdk/make_rom/wifi_driver/lib_rom_wifi_driver_km4ns.a(rom_rtw_security.o)
 .debug_ranges  0x0000000000004250       0xd8 /home/eric_gao/repo/repoe/amebagreen2_gcc_project/build/project_km4ns/asdk/make_rom/wifi_driver/lib_rom_wifi_driver_km4ns.a(rom_wpa_lite_psk.o)
 .debug_ranges  0x0000000000004328       0xf8 /home/eric_gao/repo/repoe/amebagreen2_gcc_project/build/project_km4ns/asdk/make_rom/wifi_driver/lib_rom_wifi_driver_km4ns.a(rom_wpa_lite_part2.o)
 .debug_ranges  0x0000000000004420      0x168 /home/eric_gao/repo/repoe/amebagreen2_gcc_project/build/project_km4ns/asdk/make_rom/wifi_driver/lib_rom_wifi_driver_km4ns.a(rom_wpa_lite_sae.o)
 .debug_ranges  0x0000000000004588      0x3b8 /home/eric_gao/repo/repoe/amebagreen2_gcc_project/build/project_km4ns/asdk/make_rom/wifi_driver/lib_rom_wifi_driver_km4ns.a(rom_wpa_lite_sae_crypto.o)
 .debug_ranges  0x0000000000004940      0x308 /home/eric_gao/repo/repoe/amebagreen2_gcc_project/build/project_km4ns/asdk/make_rom/wifi_driver/lib_rom_wifi_driver_km4ns.a(rom_rtw_ieee80211.o)
 .debug_ranges  0x0000000000004c48      0x1c0 /home/eric_gao/repo/repoe/amebagreen2_gcc_project/build/project_km4ns/asdk/make_rom/wifi_driver/lib_rom_wifi_driver_km4ns.a(rom_rtw_ieee80211_part2.o)
 .debug_ranges  0x0000000000004e08       0x40 /home/eric_gao/repo/repoe/amebagreen2_gcc_project/build/project_km4ns/asdk/make_rom/wifi_driver/lib_rom_wifi_driver_km4ns.a(rom_rtw_psk.o)
 .debug_ranges  0x0000000000004e48       0x30 /home/eric_gao/repo/repoe/amebagreen2_gcc_project/build/project_km4ns/asdk/make_rom/wifi_driver/lib_rom_wifi_driver_km4ns.a(rom_rtw_pmksa_cache.o)
 .debug_ranges  0x0000000000004e78       0x58 /home/eric_gao/repo/repoe/amebagreen2_gcc_project/build/project_km4ns/asdk/make_rom/wifi_driver/lib_rom_wifi_driver_km4ns.a(rom_rtw_rf.o)
 .debug_ranges  0x0000000000004ed0       0x20 /home/eric_gao/repo/repoe/amebagreen2_gcc_project/build/project_km4ns/asdk/make_rom/wifi_driver/lib_rom_wifi_driver_km4ns.a(rom_rtw_beacon.o)
 .debug_ranges  0x0000000000004ef0       0xd8 /home/eric_gao/repo/repoe/amebagreen2_gcc_project/build/project_km4ns/asdk/make_rom/wifi_driver/lib_rom_wifi_driver_km4ns.a(rom_rtw_assoc.o)
 .debug_ranges  0x0000000000004fc8       0x20 /home/eric_gao/repo/repoe/amebagreen2_gcc_project/build/project_km4ns/asdk/make_rom/wifi_driver/lib_rom_wifi_driver_km4ns.a(rom_rtw_80211w.o)
 .debug_ranges  0x0000000000004fe8       0x18 /home/eric_gao/repo/repoe/amebagreen2_gcc_project/build/project_km4ns/asdk/make_rom/wifi_driver/lib_rom_wifi_driver_km4ns.a(rom_rtw_network.o)
 .debug_ranges  0x0000000000005000       0x50 /home/eric_gao/repo/repoe/amebagreen2_gcc_project/build/project_km4ns/asdk/make_rom/wifi_driver/lib_rom_wifi_driver_km4ns.a(rom_rtw_pmksa_cache_part2.o)
 .debug_ranges  0x0000000000005050       0xd0 /home/eric_gao/repo/repoe/amebagreen2_gcc_project/build/project_km4ns/asdk/make_rom/wifi_driver/lib_rom_wifi_driver_km4ns.a(rom_rtw_11d_part2.o)
 .debug_ranges  0x0000000000005120      0x128 /home/eric_gao/repo/repoe/amebagreen2_gcc_project/build/project_km4ns/asdk/make_rom/wifi_driver/lib_rom_wifi_driver_km4ns.a(rom_rtw_he_part2.o)
 .debug_ranges  0x0000000000005248       0xc8 /home/eric_gao/repo/repoe/amebagreen2_gcc_project/build/project_km4ns/asdk/make_rom/wifi_driver/lib_rom_wifi_driver_km4ns.a(rom_rtw_shortcut.o)
 .debug_ranges  0x0000000000005310       0x70 /home/eric_gao/repo/repoe/amebagreen2_gcc_project/build/project_km4ns/asdk/make_rom/wifi_driver/lib_rom_wifi_driver_km4ns.a(rom_rtw_beacon_part2.o)
 .debug_ranges  0x0000000000005380       0x20 /home/eric_gao/repo/repoe/amebagreen2_gcc_project/build/project_km4ns/asdk/make_rom/wifi_driver/lib_rom_wifi_driver_km4ns.a(rom_rtw_sitesurvey.o)
 .debug_ranges  0x00000000000053a0       0xd8 /home/eric_gao/repo/repoe/amebagreen2_gcc_project/build/project_km4ns/asdk/make_rom/wifi_driver/lib_rom_wifi_driver_km4ns.a(rom_rtw_sitesurvey_report.o)
 .debug_ranges  0x0000000000005478      0x150 /home/eric_gao/repo/repoe/amebagreen2_gcc_project/build/project_km4ns/asdk/make_rom/wifi_driver/lib_rom_wifi_driver_km4ns.a(rom_rtw_ap_xmit.o)
 .debug_ranges  0x00000000000055c8       0x38 /home/eric_gao/repo/repoe/amebagreen2_gcc_project/build/project_km4ns/asdk/make_rom/wifi_driver/lib_rom_wifi_driver_km4ns.a(rom_rtw_addba.o)
 .debug_ranges  0x0000000000005600       0xa0 /home/eric_gao/repo/repoe/amebagreen2_gcc_project/build/project_km4ns/asdk/make_rom/wifi_driver/lib_rom_wifi_driver_km4ns.a(rom_rtw_80211w_part2.o)
 .debug_ranges  0x00000000000056a0       0x68 /home/eric_gao/repo/repoe/amebagreen2_gcc_project/build/project_km4ns/asdk/make_rom/wifi_driver/lib_rom_wifi_driver_km4ns.a(rom_rtw_auth_part2.o)
 .debug_ranges  0x0000000000005708       0x68 /home/eric_gao/repo/repoe/amebagreen2_gcc_project/build/project_km4ns/asdk/make_rom/wifi_driver/lib_rom_wifi_driver_km4ns.a(rom_rtw_join.o)
 .debug_ranges  0x0000000000005770      0x2e0 /home/eric_gao/repo/repoe/amebagreen2_gcc_project/build/project_km4ns/asdk/make_rom/wifi_driver/lib_rom_wifi_driver_km4ns.a(rom_rtw_assoc_part2.o)
 .debug_ranges  0x0000000000005a50       0x18 /home/eric_gao/repo/repoe/amebagreen2_gcc_project/build/project_km4ns/asdk/make_rom/wifi_driver/lib_rom_wifi_driver_km4ns.a(rom_rtw_security_part2.o)
 .debug_ranges  0x0000000000005a68      0x200 /home/eric_gao/repo/repoe/amebagreen2_gcc_project/build/project_km4ns/asdk/make_rom/wifi_driver/lib_rom_wifi_driver_km4ns.a(rom_rtw_xmit.o)
 .debug_ranges  0x0000000000005c68      0x1e8 /home/eric_gao/repo/repoe/amebagreen2_gcc_project/build/project_km4ns/asdk/make_rom/wifi_driver/lib_rom_wifi_driver_km4ns.a(rom_rtw_recv_part2.o)
 .debug_ranges  0x0000000000005e50       0x48 /home/eric_gao/repo/repoe/amebagreen2_gcc_project/build/project_km4ns/asdk/make_rom/wifi_driver/lib_rom_wifi_driver_km4ns.a(rom_rtw_recv_reorder.o)
 .debug_ranges  0x0000000000005e98       0x30 /home/eric_gao/repo/repoe/amebagreen2_gcc_project/build/project_km4ns/asdk/make_rom/wifi_driver/lib_rom_wifi_driver_km4ns.a(rom_rtw_recv_defrag.o)
 .debug_ranges  0x0000000000005ec8       0x18 /home/eric_gao/repo/repoe/amebagreen2_gcc_project/build/project_km4ns/asdk/make_rom/wifi_driver/lib_rom_wifi_driver_km4ns.a(rom_rtw_sta_mgt.o)
 .debug_ranges  0x0000000000005ee0      0x100 /home/eric_gao/repo/repoe/amebagreen2_gcc_project/build/project_km4ns/asdk/make_rom/wifi_driver/lib_rom_wifi_driver_km4ns.a(rom_rtw_ap.o)
 .debug_ranges  0x0000000000005fe0       0x30 /home/eric_gao/repo/repoe/amebagreen2_gcc_project/build/project_km4ns/asdk/make_rom/wifi_driver/lib_rom_wifi_driver_km4ns.a(rom_rtw_skbuff.o)
 .debug_ranges  0x0000000000006010       0x68 /home/eric_gao/repo/repoe/amebagreen2_gcc_project/build/project_km4ns/asdk/make_rom/wifi_driver/lib_rom_wifi_driver_km4ns.a(rom_wifi_hal_debug.o)
 .debug_ranges  0x0000000000006078       0x30 /home/eric_gao/repo/repoe/amebagreen2_gcc_project/build/project_km4ns/asdk/make_rom/wifi_driver/lib_rom_wifi_driver_km4ns.a(rom_wifi_hal_media_access.o)
 .debug_ranges  0x00000000000060a8       0x50 /home/eric_gao/repo/repoe/amebagreen2_gcc_project/build/project_km4ns/asdk/make_rom/wifi_driver/lib_rom_wifi_driver_km4ns.a(rom_wifi_hal_misc.o)
 .debug_ranges  0x00000000000060f8       0x20 /home/eric_gao/repo/repoe/amebagreen2_gcc_project/build/project_km4ns/asdk/make_rom/wifi_driver/lib_rom_wifi_driver_km4ns.a(rom_wifi_hal_secure.o)
 .debug_ranges  0x0000000000006118       0x18 /home/eric_gao/repo/repoe/amebagreen2_gcc_project/build/project_km4ns/asdk/make_rom/wifi_driver/lib_rom_wifi_driver_km4ns.a(rom_wifi_hal_txdesc.o)
 .debug_ranges  0x0000000000006130      0x170 /home/eric_gao/repo/repoe/amebagreen2_gcc_project/build/project_km4ns/asdk/make_rom/wifi_driver/lib_rom_wifi_driver_km4ns.a(rom_hal_xmit.o)
 .debug_ranges  0x00000000000062a0       0x90 /home/eric_gao/repo/repoe/amebagreen2_gcc_project/build/project_km4ns/asdk/make_rom/wifi_driver/lib_rom_wifi_driver_km4ns.a(rom_hal_xmit_g1.o)
 .debug_ranges  0x0000000000006330       0xc8 /home/eric_gao/repo/repoe/amebagreen2_gcc_project/build/project_km4ns/asdk/make_rom/wifi_driver/lib_rom_wifi_driver_km4ns.a(rom_hal_recv.o)
 .debug_ranges  0x00000000000063f8       0x30 /home/eric_gao/repo/repoe/amebagreen2_gcc_project/build/project_km4ns/asdk/make_rom/wifi_driver/lib_rom_wifi_driver_km4ns.a(rom_hal_h2c_g1.o)
 .debug_ranges  0x0000000000006428       0x18 /home/eric_gao/repo/repoe/amebagreen2_gcc_project/build/project_km4ns/asdk/make_rom/wifi_driver/lib_rom_wifi_driver_km4ns.a(rom_rtw_queue.o)

.debug_line     0x0000000000000000    0x64dc2
 .debug_line    0x0000000000000000      0x206 /home/eric_gao/repo/repoe/amebagreen2_gcc_project/build/project_km4ns/asdk/make_rom/fwlib/lib_rom_fwlib_km4ns.a(ameba_boot_rom.o)
 .debug_line    0x0000000000000206      0xb4b /home/eric_gao/repo/repoe/amebagreen2_gcc_project/build/project_km4ns/asdk/make_rom/fwlib/lib_rom_fwlib_km4ns.a(ameba_vector_rom.o)
 .debug_line    0x0000000000000d51     0x1ed8 /home/eric_gao/repo/repoe/amebagreen2_gcc_project/build/project_km4ns/asdk/make_rom/fwlib_com/lib_rom_fwlib_com_km4ns.a(ameba_crypto_aes.o)
 .debug_line    0x0000000000002c29     0x1992 /home/eric_gao/repo/repoe/amebagreen2_gcc_project/build/project_km4ns/asdk/make_rom/fwlib_com/lib_rom_fwlib_com_km4ns.a(ameba_crypto_sha.o)
 .debug_line    0x00000000000045bb      0x352 /home/eric_gao/repo/repoe/amebagreen2_gcc_project/build/project_km4ns/asdk/make_rom/fwlib_com/lib_rom_fwlib_com_km4ns.a(ameba_crypto.o)
 .debug_line    0x000000000000490d     0x15bd /home/eric_gao/repo/repoe/amebagreen2_gcc_project/build/project_km4ns/asdk/make_rom/fwlib_com/lib_rom_fwlib_com_km4ns.a(ameba_pke_ecc.o)
 .debug_line    0x0000000000005eca      0x311 /home/eric_gao/repo/repoe/amebagreen2_gcc_project/build/project_km4ns/asdk/make_rom/fwlib_com/lib_rom_fwlib_com_km4ns.a(ameba_pke_rsa.o)
 .debug_line    0x00000000000061db      0x71a /home/eric_gao/repo/repoe/amebagreen2_gcc_project/build/project_km4ns/asdk/make_rom/fwlib_com/lib_rom_fwlib_com_km4ns.a(ameba_pke_common.o)
 .debug_line    0x00000000000068f5      0x1a0 /home/eric_gao/repo/repoe/amebagreen2_gcc_project/build/project_km4ns/asdk/make_rom/fwlib_com/lib_rom_fwlib_com_km4ns.a(ameba_assert_rom.o)
 .debug_line    0x0000000000006a95      0xe22 /home/eric_gao/repo/repoe/amebagreen2_gcc_project/build/project_km4ns/asdk/make_rom/fwlib_com/lib_rom_fwlib_com_km4ns.a(ameba_flash_rom.o)
 .debug_line    0x00000000000078b7      0xf95 /home/eric_gao/repo/repoe/amebagreen2_gcc_project/build/project_km4ns/asdk/make_rom/fwlib_com/lib_rom_fwlib_com_km4ns.a(ameba_otp_rom.o)
 .debug_line    0x000000000000884c      0x740 /home/eric_gao/repo/repoe/amebagreen2_gcc_project/build/project_km4ns/asdk/make_rom/fwlib_com/lib_rom_fwlib_com_km4ns.a(ameba_shell_rom.o)
 .debug_line    0x0000000000008f8c      0x51c /home/eric_gao/repo/repoe/amebagreen2_gcc_project/build/project_km4ns/asdk/make_rom/fwlib_com/lib_rom_fwlib_com_km4ns.a(ameba_tim_rom.o)
 .debug_line    0x00000000000094a8      0x244 /home/eric_gao/repo/repoe/amebagreen2_gcc_project/build/project_km4ns/asdk/make_rom/fwlib_com/lib_rom_fwlib_com_km4ns.a(ameba_backup_reg.o)
 .debug_line    0x00000000000096ec      0xad8 /home/eric_gao/repo/repoe/amebagreen2_gcc_project/build/project_km4ns/asdk/make_rom/fwlib_com/lib_rom_fwlib_com_km4ns.a(ameba_gpio_rom.o)
 .debug_line    0x000000000000a1c4      0x753 /home/eric_gao/repo/repoe/amebagreen2_gcc_project/build/project_km4ns/asdk/make_rom/fwlib_com/lib_rom_fwlib_com_km4ns.a(ameba_pinmux_rom.o)
 .debug_line    0x000000000000a917      0x2a0 /home/eric_gao/repo/repoe/amebagreen2_gcc_project/build/project_km4ns/asdk/make_rom/fwlib_com/lib_rom_fwlib_com_km4ns.a(ameba_rcc_rom.o)
 .debug_line    0x000000000000abb7      0xeac /home/eric_gao/repo/repoe/amebagreen2_gcc_project/build/project_km4ns/asdk/make_rom/fwlib_com/lib_rom_fwlib_com_km4ns.a(ameba_spinand_rom.o)
 .debug_line    0x000000000000ba63      0x6c0 /home/eric_gao/repo/repoe/amebagreen2_gcc_project/build/project_km4ns/asdk/make_rom/fwlib_com/lib_rom_fwlib_com_km4ns.a(ameba_trng.o)
 .debug_line    0x000000000000c123      0x30c /home/eric_gao/repo/repoe/amebagreen2_gcc_project/build/project_km4ns/asdk/make_rom/fwlib_com/lib_rom_fwlib_com_km4ns.a(ameba_chipinfo_rom.o)
 .debug_line    0x000000000000c42f      0xfdd /home/eric_gao/repo/repoe/amebagreen2_gcc_project/build/project_km4ns/asdk/make_rom/fwlib_com/lib_rom_fwlib_com_km4ns.a(ameba_loguart_rom.o)
 .debug_line    0x000000000000d40c      0x418 /home/eric_gao/repo/repoe/amebagreen2_gcc_project/build/project_km4ns/asdk/make_rom/fwlib_com/lib_rom_fwlib_com_km4ns.a(ameba_sdio_rom.o)
 .debug_line    0x000000000000d824      0x659 /home/eric_gao/repo/repoe/amebagreen2_gcc_project/build/project_km4ns/asdk/make_rom/fwlib_com/lib_rom_fwlib_com_km4ns.a(ameba_syscfg_rom.o)
 .debug_line    0x000000000000de7d      0x882 /home/eric_gao/repo/repoe/amebagreen2_gcc_project/build/project_km4ns/asdk/make_rom/fwlib_com/lib_rom_fwlib_com_km4ns.a(ameba_uart_rom.o)
 .debug_line    0x000000000000e6ff      0x1cd /home/eric_gao/repo/repoe/amebagreen2_gcc_project/build/project_km4ns/asdk/make_rom/fwlib_com/lib_rom_fwlib_com_km4ns.a(ameba_clk_rom.o)
 .debug_line    0x000000000000e8cc      0x241 /home/eric_gao/repo/repoe/amebagreen2_gcc_project/build/project_km4ns/asdk/make_rom/fwlib_com/lib_rom_fwlib_com_km4ns.a(ameba_delay_rom.o)
 .debug_line    0x000000000000eb0d      0x454 /home/eric_gao/repo/repoe/amebagreen2_gcc_project/build/project_km4ns/asdk/make_rom/fwlib_com/lib_rom_fwlib_com_km4ns.a(ameba_monitor_rom.o)
 .debug_line    0x000000000000ef61      0x261 /home/eric_gao/repo/repoe/amebagreen2_gcc_project/build/project_km4ns/asdk/make_rom/fwlib_com/lib_rom_fwlib_com_km4ns.a(ameba_sema_rom.o)
 .debug_line    0x000000000000f1c2      0x25a /home/eric_gao/repo/repoe/amebagreen2_gcc_project/build/project_km4ns/asdk/make_rom/fwlib_com/lib_rom_fwlib_com_km4ns.a(ameba_systimer_rom.o)
 .debug_line    0x000000000000f41c      0x3b2 /home/eric_gao/repo/repoe/amebagreen2_gcc_project/build/project_km4ns/asdk/make_rom/fwlib_com/lib_rom_fwlib_com_km4ns.a(ameba_wdg.o)
 .debug_line    0x000000000000f7ce      0x2ea /home/eric_gao/repo/repoe/amebagreen2_gcc_project/build/project_km4ns/asdk/make_rom/string/lib_rom_string_km4ns.a(char2num.o)
 .debug_line    0x000000000000fab8      0x23c /home/eric_gao/repo/repoe/amebagreen2_gcc_project/build/project_km4ns/asdk/make_rom/string/lib_rom_string_km4ns.a(memchr.o)
 .debug_line    0x000000000000fcf4      0x14f /home/eric_gao/repo/repoe/amebagreen2_gcc_project/build/project_km4ns/asdk/make_rom/string/lib_rom_string_km4ns.a(memcmp.o)
 .debug_line    0x000000000000fe43      0x17c /home/eric_gao/repo/repoe/amebagreen2_gcc_project/build/project_km4ns/asdk/make_rom/string/lib_rom_string_km4ns.a(memcpy.o)
 .debug_line    0x000000000000ffbf      0x1d0 /home/eric_gao/repo/repoe/amebagreen2_gcc_project/build/project_km4ns/asdk/make_rom/string/lib_rom_string_km4ns.a(memmove.o)
 .debug_line    0x000000000001018f      0x25a /home/eric_gao/repo/repoe/amebagreen2_gcc_project/build/project_km4ns/asdk/make_rom/string/lib_rom_string_km4ns.a(memset.o)
 .debug_line    0x00000000000103e9      0x851 /home/eric_gao/repo/repoe/amebagreen2_gcc_project/build/project_km4ns/asdk/make_rom/string/lib_rom_string_km4ns.a(sscanf_minimal.o)
 .debug_line    0x0000000000010c3a      0x105 /home/eric_gao/repo/repoe/amebagreen2_gcc_project/build/project_km4ns/asdk/make_rom/string/lib_rom_string_km4ns.a(strcmp.o)
 .debug_line    0x0000000000010d3f       0xe1 /home/eric_gao/repo/repoe/amebagreen2_gcc_project/build/project_km4ns/asdk/make_rom/string/lib_rom_string_km4ns.a(strcpy.o)
 .debug_line    0x0000000000010e20      0x10f /home/eric_gao/repo/repoe/amebagreen2_gcc_project/build/project_km4ns/asdk/make_rom/string/lib_rom_string_km4ns.a(stricmp.o)
 .debug_line    0x0000000000010f2f      0x131 /home/eric_gao/repo/repoe/amebagreen2_gcc_project/build/project_km4ns/asdk/make_rom/string/lib_rom_string_km4ns.a(strlen.o)
 .debug_line    0x0000000000011060      0x180 /home/eric_gao/repo/repoe/amebagreen2_gcc_project/build/project_km4ns/asdk/make_rom/string/lib_rom_string_km4ns.a(strncpy.o)
 .debug_line    0x00000000000111e0      0x2c3 /home/eric_gao/repo/repoe/amebagreen2_gcc_project/build/project_km4ns/asdk/make_rom/string/lib_rom_string_km4ns.a(strtol.o)
 .debug_line    0x00000000000114a3      0x28b /home/eric_gao/repo/repoe/amebagreen2_gcc_project/build/project_km4ns/asdk/make_rom/string/lib_rom_string_km4ns.a(strtoul.o)
 .debug_line    0x000000000001172e      0x14c /home/eric_gao/repo/repoe/amebagreen2_gcc_project/build/project_km4ns/asdk/make_rom/string/lib_rom_string_km4ns.a(strupr.o)
 .debug_line    0x000000000001187a      0x325 /home/eric_gao/repo/repoe/amebagreen2_gcc_project/build/project_km4ns/asdk/make_rom/string/lib_rom_string_km4ns.a(strwrap.o)
 .debug_line    0x0000000000011b9f      0xbb1 /home/eric_gao/repo/repoe/amebagreen2_gcc_project/build/project_km4ns/asdk/make_rom/stdlib/lib_rom_stdlib_km4ns.a(diag.o)
 .debug_line    0x0000000000012750      0x816 /home/eric_gao/repo/repoe/amebagreen2_gcc_project/build/project_km4ns/asdk/make_rom/stdlib/lib_rom_stdlib_km4ns.a(log.o)
 .debug_line    0x0000000000012f66      0x3b5 /home/eric_gao/repo/repoe/amebagreen2_gcc_project/build/project_km4ns/asdk/make_rom/crashdump/lib_rom_crashdump_km4ns.a(ameba_dump_stack.o)
 .debug_line    0x000000000001331b      0xbf0 /home/eric_gao/repo/repoe/amebagreen2_gcc_project/build/project_km4ns/asdk/make_rom/crashdump/lib_rom_crashdump_km4ns.a(ameba_v8m_crashdump.o)
 .debug_line    0x0000000000013f0b     0x2b68 /home/eric_gao/repo/repoe/amebagreen2_gcc_project/build/project_km4ns/asdk/make_rom/os/lib_rom_os_km4ns.a(tasks.o)
 .debug_line    0x0000000000016a73      0x37c /home/eric_gao/repo/repoe/amebagreen2_gcc_project/build/project_km4ns/asdk/make_rom/os/lib_rom_os_km4ns.a(list.o)
 .debug_line    0x0000000000016def      0x6bb /home/eric_gao/repo/repoe/amebagreen2_gcc_project/build/project_km4ns/asdk/make_rom/os/lib_rom_os_km4ns.a(croutine.o)
 .debug_line    0x00000000000174aa     0x1af1 /home/eric_gao/repo/repoe/amebagreen2_gcc_project/build/project_km4ns/asdk/make_rom/os/lib_rom_os_km4ns.a(queue.o)
 .debug_line    0x0000000000018f9b      0xc25 /home/eric_gao/repo/repoe/amebagreen2_gcc_project/build/project_km4ns/asdk/make_rom/os/lib_rom_os_km4ns.a(timers.o)
 .debug_line    0x0000000000019bc0      0x7f5 /home/eric_gao/repo/repoe/amebagreen2_gcc_project/build/project_km4ns/asdk/make_rom/os/lib_rom_os_km4ns.a(event_groups.o)
 .debug_line    0x000000000001a3b5      0xd5c /home/eric_gao/repo/repoe/amebagreen2_gcc_project/build/project_km4ns/asdk/make_rom/os/lib_rom_os_km4ns.a(stream_buffer.o)
 .debug_line    0x000000000001b111      0x855 /home/eric_gao/repo/repoe/amebagreen2_gcc_project/build/project_km4ns/asdk/make_rom/os/lib_rom_os_km4ns.a(port.o)
 .debug_line    0x000000000001b966      0x23d /home/eric_gao/repo/repoe/amebagreen2_gcc_project/build/project_km4ns/asdk/make_rom/os/lib_rom_os_km4ns.a(portasm.o)
 .debug_line    0x000000000001bba3      0x912 /home/eric_gao/repo/repoe/amebagreen2_gcc_project/build/project_km4ns/asdk/make_rom/os/lib_rom_os_km4ns.a(heap_5.o)
 .debug_line    0x000000000001c4b5      0x258 /home/eric_gao/repo/repoe/amebagreen2_gcc_project/build/project_km4ns/asdk/make_rom/os/lib_rom_os_km4ns.a(os_cfg.o)
 .debug_line    0x000000000001c70d      0xa09 /home/eric_gao/repo/repoe/amebagreen2_gcc_project/build/project_km4ns/asdk/make_rom/wifi_driver/lib_rom_wifi_driver_km4ns.a(rom_sha1.o)
 .debug_line    0x000000000001d116      0xcf7 /home/eric_gao/repo/repoe/amebagreen2_gcc_project/build/project_km4ns/asdk/make_rom/wifi_driver/lib_rom_wifi_driver_km4ns.a(rom_md5.o)
 .debug_line    0x000000000001de0d     0x2ed4 /home/eric_gao/repo/repoe/amebagreen2_gcc_project/build/project_km4ns/asdk/make_rom/wifi_driver/lib_rom_wifi_driver_km4ns.a(rom_aes.o)
 .debug_line    0x0000000000020ce1      0xa61 /home/eric_gao/repo/repoe/amebagreen2_gcc_project/build/project_km4ns/asdk/make_rom/wifi_driver/lib_rom_wifi_driver_km4ns.a(rom_rtw_sha256.o)
 .debug_line    0x0000000000021742      0x217 /home/eric_gao/repo/repoe/amebagreen2_gcc_project/build/project_km4ns/asdk/make_rom/wifi_driver/lib_rom_wifi_driver_km4ns.a(rom_rtw_dh_groups.o)
 .debug_line    0x0000000000021959      0x418 /home/eric_gao/repo/repoe/amebagreen2_gcc_project/build/project_km4ns/asdk/make_rom/wifi_driver/lib_rom_wifi_driver_km4ns.a(rom_arc4.o)
 .debug_line    0x0000000000021d71      0x6ba /home/eric_gao/repo/repoe/amebagreen2_gcc_project/build/project_km4ns/asdk/make_rom/wifi_driver/lib_rom_wifi_driver_km4ns.a(rom_rc4.o)
 .debug_line    0x000000000002242b     0x628a /home/eric_gao/repo/repoe/amebagreen2_gcc_project/build/project_km4ns/asdk/make_rom/wifi_driver/lib_rom_wifi_driver_km4ns.a(rom_rtw_mbedtls_bignum.o)
 .debug_line    0x00000000000286b5     0x3664 /home/eric_gao/repo/repoe/amebagreen2_gcc_project/build/project_km4ns/asdk/make_rom/wifi_driver/lib_rom_wifi_driver_km4ns.a(rom_rtw_mbedtls_ecp.o)
 .debug_line    0x000000000002bd19     0x4734 /home/eric_gao/repo/repoe/amebagreen2_gcc_project/build/project_km4ns/asdk/make_rom/wifi_driver/lib_rom_wifi_driver_km4ns.a(rom_rtw_mbedtls_ecp_curves.o)
 .debug_line    0x000000000003044d      0x13b /home/eric_gao/repo/repoe/amebagreen2_gcc_project/build/project_km4ns/asdk/make_rom/wifi_driver/lib_rom_wifi_driver_km4ns.a(rom_rtw_mbedtls_platform.o)
 .debug_line    0x0000000000030588      0x10a /home/eric_gao/repo/repoe/amebagreen2_gcc_project/build/project_km4ns/asdk/make_rom/wifi_driver/lib_rom_wifi_driver_km4ns.a(rom_rtw_mbedtls_func_map.o)
 .debug_line    0x0000000000030692     0x1d92 /home/eric_gao/repo/repoe/amebagreen2_gcc_project/build/project_km4ns/asdk/make_rom/wifi_driver/lib_rom_wifi_driver_km4ns.a(rom_rtw_security.o)
 .debug_line    0x0000000000032424     0x106e /home/eric_gao/repo/repoe/amebagreen2_gcc_project/build/project_km4ns/asdk/make_rom/wifi_driver/lib_rom_wifi_driver_km4ns.a(rom_wpa_lite_psk.o)
 .debug_line    0x0000000000033492     0x11cb /home/eric_gao/repo/repoe/amebagreen2_gcc_project/build/project_km4ns/asdk/make_rom/wifi_driver/lib_rom_wifi_driver_km4ns.a(rom_wpa_lite_part2.o)
 .debug_line    0x000000000003465d     0x1682 /home/eric_gao/repo/repoe/amebagreen2_gcc_project/build/project_km4ns/asdk/make_rom/wifi_driver/lib_rom_wifi_driver_km4ns.a(rom_wpa_lite_sae.o)
 .debug_line    0x0000000000035cdf     0x237d /home/eric_gao/repo/repoe/amebagreen2_gcc_project/build/project_km4ns/asdk/make_rom/wifi_driver/lib_rom_wifi_driver_km4ns.a(rom_wpa_lite_sae_crypto.o)
 .debug_line    0x000000000003805c     0x127c /home/eric_gao/repo/repoe/amebagreen2_gcc_project/build/project_km4ns/asdk/make_rom/wifi_driver/lib_rom_wifi_driver_km4ns.a(rom_rtw_ieee80211.o)
 .debug_line    0x00000000000392d8     0x140a /home/eric_gao/repo/repoe/amebagreen2_gcc_project/build/project_km4ns/asdk/make_rom/wifi_driver/lib_rom_wifi_driver_km4ns.a(rom_rtw_ieee80211_part2.o)
 .debug_line    0x000000000003a6e2      0x30c /home/eric_gao/repo/repoe/amebagreen2_gcc_project/build/project_km4ns/asdk/make_rom/wifi_driver/lib_rom_wifi_driver_km4ns.a(rom_rtw_probe.o)
 .debug_line    0x000000000003a9ee      0x143 /home/eric_gao/repo/repoe/amebagreen2_gcc_project/build/project_km4ns/asdk/make_rom/wifi_driver/lib_rom_wifi_driver_km4ns.a(rom_rtw_auth.o)
 .debug_line    0x000000000003ab31      0x2aa /home/eric_gao/repo/repoe/amebagreen2_gcc_project/build/project_km4ns/asdk/make_rom/wifi_driver/lib_rom_wifi_driver_km4ns.a(rom_rtw_action.o)
 .debug_line    0x000000000003addb      0x66d /home/eric_gao/repo/repoe/amebagreen2_gcc_project/build/project_km4ns/asdk/make_rom/wifi_driver/lib_rom_wifi_driver_km4ns.a(rom_rtw_psk.o)
 .debug_line    0x000000000003b448      0x4b5 /home/eric_gao/repo/repoe/amebagreen2_gcc_project/build/project_km4ns/asdk/make_rom/wifi_driver/lib_rom_wifi_driver_km4ns.a(rom_rtw_pmksa_cache.o)
 .debug_line    0x000000000003b8fd      0x4bd /home/eric_gao/repo/repoe/amebagreen2_gcc_project/build/project_km4ns/asdk/make_rom/wifi_driver/lib_rom_wifi_driver_km4ns.a(rom_rtw_rf.o)
 .debug_line    0x000000000003bdba      0x326 /home/eric_gao/repo/repoe/amebagreen2_gcc_project/build/project_km4ns/asdk/make_rom/wifi_driver/lib_rom_wifi_driver_km4ns.a(rom_rtw_recv.o)
 .debug_line    0x000000000003c0e0     0x110c /home/eric_gao/repo/repoe/amebagreen2_gcc_project/build/project_km4ns/asdk/make_rom/wifi_driver/lib_rom_wifi_driver_km4ns.a(rom_rtw_beacon.o)
 .debug_line    0x000000000003d1ec     0x103e /home/eric_gao/repo/repoe/amebagreen2_gcc_project/build/project_km4ns/asdk/make_rom/wifi_driver/lib_rom_wifi_driver_km4ns.a(rom_rtw_assoc.o)
 .debug_line    0x000000000003e22a      0x425 /home/eric_gao/repo/repoe/amebagreen2_gcc_project/build/project_km4ns/asdk/make_rom/wifi_driver/lib_rom_wifi_driver_km4ns.a(rom_rtw_vht.o)
 .debug_line    0x000000000003e64f      0x3ba /home/eric_gao/repo/repoe/amebagreen2_gcc_project/build/project_km4ns/asdk/make_rom/wifi_driver/lib_rom_wifi_driver_km4ns.a(rom_rtw_he.o)
 .debug_line    0x000000000003ea09      0x520 /home/eric_gao/repo/repoe/amebagreen2_gcc_project/build/project_km4ns/asdk/make_rom/wifi_driver/lib_rom_wifi_driver_km4ns.a(rom_rtw_80211w.o)
 .debug_line    0x000000000003ef29      0x3a5 /home/eric_gao/repo/repoe/amebagreen2_gcc_project/build/project_km4ns/asdk/make_rom/wifi_driver/lib_rom_wifi_driver_km4ns.a(rom_rtw_rate.o)
 .debug_line    0x000000000003f2ce      0x2f2 /home/eric_gao/repo/repoe/amebagreen2_gcc_project/build/project_km4ns/asdk/make_rom/wifi_driver/lib_rom_wifi_driver_km4ns.a(rom_rtw_chbw.o)
 .debug_line    0x000000000003f5c0       0x4e /home/eric_gao/repo/repoe/amebagreen2_gcc_project/build/project_km4ns/asdk/make_rom/wifi_driver/lib_rom_wifi_driver_km4ns.a(rom_rtw_11d.o)
 .debug_line    0x000000000003f60e      0xada /home/eric_gao/repo/repoe/amebagreen2_gcc_project/build/project_km4ns/asdk/make_rom/wifi_driver/lib_rom_wifi_driver_km4ns.a(rom_rtw_ht.o)
 .debug_line    0x00000000000400e8      0x667 /home/eric_gao/repo/repoe/amebagreen2_gcc_project/build/project_km4ns/asdk/make_rom/wifi_driver/lib_rom_wifi_driver_km4ns.a(rom_rtw_network.o)
 .debug_line    0x000000000004074f      0x998 /home/eric_gao/repo/repoe/amebagreen2_gcc_project/build/project_km4ns/asdk/make_rom/wifi_driver/lib_rom_wifi_driver_km4ns.a(rom_rtw_pmksa_cache_part2.o)
 .debug_line    0x00000000000410e7      0x9df /home/eric_gao/repo/repoe/amebagreen2_gcc_project/build/project_km4ns/asdk/make_rom/wifi_driver/lib_rom_wifi_driver_km4ns.a(rom_rtw_11d_part2.o)
 .debug_line    0x0000000000041ac6     0x1229 /home/eric_gao/repo/repoe/amebagreen2_gcc_project/build/project_km4ns/asdk/make_rom/wifi_driver/lib_rom_wifi_driver_km4ns.a(rom_rtw_he_part2.o)
 .debug_line    0x0000000000042cef      0xf53 /home/eric_gao/repo/repoe/amebagreen2_gcc_project/build/project_km4ns/asdk/make_rom/wifi_driver/lib_rom_wifi_driver_km4ns.a(rom_rtw_shortcut.o)
 .debug_line    0x0000000000043c42      0x9d3 /home/eric_gao/repo/repoe/amebagreen2_gcc_project/build/project_km4ns/asdk/make_rom/wifi_driver/lib_rom_wifi_driver_km4ns.a(rom_rtw_setkey.o)
 .debug_line    0x0000000000044615     0x127d /home/eric_gao/repo/repoe/amebagreen2_gcc_project/build/project_km4ns/asdk/make_rom/wifi_driver/lib_rom_wifi_driver_km4ns.a(rom_rtw_beacon_part2.o)
 .debug_line    0x0000000000045892      0x6ca /home/eric_gao/repo/repoe/amebagreen2_gcc_project/build/project_km4ns/asdk/make_rom/wifi_driver/lib_rom_wifi_driver_km4ns.a(rom_rtw_sitesurvey.o)
 .debug_line    0x0000000000045f5c      0xdc7 /home/eric_gao/repo/repoe/amebagreen2_gcc_project/build/project_km4ns/asdk/make_rom/wifi_driver/lib_rom_wifi_driver_km4ns.a(rom_rtw_sitesurvey_report.o)
 .debug_line    0x0000000000046d23      0xd8c /home/eric_gao/repo/repoe/amebagreen2_gcc_project/build/project_km4ns/asdk/make_rom/wifi_driver/lib_rom_wifi_driver_km4ns.a(rom_rtw_ap_xmit.o)
 .debug_line    0x0000000000047aaf      0xd4f /home/eric_gao/repo/repoe/amebagreen2_gcc_project/build/project_km4ns/asdk/make_rom/wifi_driver/lib_rom_wifi_driver_km4ns.a(rom_rtw_addba.o)
 .debug_line    0x00000000000487fe      0xb1a /home/eric_gao/repo/repoe/amebagreen2_gcc_project/build/project_km4ns/asdk/make_rom/wifi_driver/lib_rom_wifi_driver_km4ns.a(rom_rtw_80211w_part2.o)
 .debug_line    0x0000000000049318     0x15ea /home/eric_gao/repo/repoe/amebagreen2_gcc_project/build/project_km4ns/asdk/make_rom/wifi_driver/lib_rom_wifi_driver_km4ns.a(rom_rtw_auth_part2.o)
 .debug_line    0x000000000004a902      0x6c1 /home/eric_gao/repo/repoe/amebagreen2_gcc_project/build/project_km4ns/asdk/make_rom/wifi_driver/lib_rom_wifi_driver_km4ns.a(rom_rtw_action_part2.o)
 .debug_line    0x000000000004afc3     0x1538 /home/eric_gao/repo/repoe/amebagreen2_gcc_project/build/project_km4ns/asdk/make_rom/wifi_driver/lib_rom_wifi_driver_km4ns.a(rom_rtw_join.o)
 .debug_line    0x000000000004c4fb      0x9ec /home/eric_gao/repo/repoe/amebagreen2_gcc_project/build/project_km4ns/asdk/make_rom/wifi_driver/lib_rom_wifi_driver_km4ns.a(rom_rtw_join_result.o)
 .debug_line    0x000000000004cee7     0x20bf /home/eric_gao/repo/repoe/amebagreen2_gcc_project/build/project_km4ns/asdk/make_rom/wifi_driver/lib_rom_wifi_driver_km4ns.a(rom_rtw_assoc_part2.o)
 .debug_line    0x000000000004efa6     0x1513 /home/eric_gao/repo/repoe/amebagreen2_gcc_project/build/project_km4ns/asdk/make_rom/wifi_driver/lib_rom_wifi_driver_km4ns.a(rom_rtw_security_part2.o)
 .debug_line    0x00000000000504b9      0xb73 /home/eric_gao/repo/repoe/amebagreen2_gcc_project/build/project_km4ns/asdk/make_rom/wifi_driver/lib_rom_wifi_driver_km4ns.a(rom_rtw_vht_part2.o)
 .debug_line    0x000000000005102c     0x2342 /home/eric_gao/repo/repoe/amebagreen2_gcc_project/build/project_km4ns/asdk/make_rom/wifi_driver/lib_rom_wifi_driver_km4ns.a(rom_rtw_xmit.o)
 .debug_line    0x000000000005336e     0x1d29 /home/eric_gao/repo/repoe/amebagreen2_gcc_project/build/project_km4ns/asdk/make_rom/wifi_driver/lib_rom_wifi_driver_km4ns.a(rom_rtw_recv_part2.o)
 .debug_line    0x0000000000055097      0xa2b /home/eric_gao/repo/repoe/amebagreen2_gcc_project/build/project_km4ns/asdk/make_rom/wifi_driver/lib_rom_wifi_driver_km4ns.a(rom_rtw_recv_reorder.o)
 .debug_line    0x0000000000055ac2      0x623 /home/eric_gao/repo/repoe/amebagreen2_gcc_project/build/project_km4ns/asdk/make_rom/wifi_driver/lib_rom_wifi_driver_km4ns.a(rom_rtw_mgnt.o)
 .debug_line    0x00000000000560e5      0xaac /home/eric_gao/repo/repoe/amebagreen2_gcc_project/build/project_km4ns/asdk/make_rom/wifi_driver/lib_rom_wifi_driver_km4ns.a(rom_rtw_recv_defrag.o)
 .debug_line    0x0000000000056b91      0x6f6 /home/eric_gao/repo/repoe/amebagreen2_gcc_project/build/project_km4ns/asdk/make_rom/wifi_driver/lib_rom_wifi_driver_km4ns.a(rom_rtw_state.o)
 .debug_line    0x0000000000057287      0x9fc /home/eric_gao/repo/repoe/amebagreen2_gcc_project/build/project_km4ns/asdk/make_rom/wifi_driver/lib_rom_wifi_driver_km4ns.a(rom_rtw_sta_mgt.o)
 .debug_line    0x0000000000057c83     0x1468 /home/eric_gao/repo/repoe/amebagreen2_gcc_project/build/project_km4ns/asdk/make_rom/wifi_driver/lib_rom_wifi_driver_km4ns.a(rom_rtw_ap.o)
 .debug_line    0x00000000000590eb      0x666 /home/eric_gao/repo/repoe/amebagreen2_gcc_project/build/project_km4ns/asdk/make_rom/wifi_driver/lib_rom_wifi_driver_km4ns.a(rom_rtw_skbuff.o)
 .debug_line    0x0000000000059751      0x617 /home/eric_gao/repo/repoe/amebagreen2_gcc_project/build/project_km4ns/asdk/make_rom/wifi_driver/lib_rom_wifi_driver_km4ns.a(rom_wifi_hal_ax.o)
 .debug_line    0x0000000000059d68      0x256 /home/eric_gao/repo/repoe/amebagreen2_gcc_project/build/project_km4ns/asdk/make_rom/wifi_driver/lib_rom_wifi_driver_km4ns.a(rom_wifi_hal_bcn.o)
 .debug_line    0x0000000000059fbe      0xc3c /home/eric_gao/repo/repoe/amebagreen2_gcc_project/build/project_km4ns/asdk/make_rom/wifi_driver/lib_rom_wifi_driver_km4ns.a(rom_wifi_hal_debug.o)
 .debug_line    0x000000000005abfa      0xb2f /home/eric_gao/repo/repoe/amebagreen2_gcc_project/build/project_km4ns/asdk/make_rom/wifi_driver/lib_rom_wifi_driver_km4ns.a(rom_wifi_hal_init.o)
 .debug_line    0x000000000005b729      0xcf9 /home/eric_gao/repo/repoe/amebagreen2_gcc_project/build/project_km4ns/asdk/make_rom/wifi_driver/lib_rom_wifi_driver_km4ns.a(rom_wifi_hal_media_access.o)
 .debug_line    0x000000000005c422      0x967 /home/eric_gao/repo/repoe/amebagreen2_gcc_project/build/project_km4ns/asdk/make_rom/wifi_driver/lib_rom_wifi_driver_km4ns.a(rom_wifi_hal_misc.o)
 .debug_line    0x000000000005cd89      0x3c4 /home/eric_gao/repo/repoe/amebagreen2_gcc_project/build/project_km4ns/asdk/make_rom/wifi_driver/lib_rom_wifi_driver_km4ns.a(rom_wifi_hal_rate.o)
 .debug_line    0x000000000005d14d      0x571 /home/eric_gao/repo/repoe/amebagreen2_gcc_project/build/project_km4ns/asdk/make_rom/wifi_driver/lib_rom_wifi_driver_km4ns.a(rom_wifi_hal_secure.o)
 .debug_line    0x000000000005d6be      0x3f5 /home/eric_gao/repo/repoe/amebagreen2_gcc_project/build/project_km4ns/asdk/make_rom/wifi_driver/lib_rom_wifi_driver_km4ns.a(rom_wifi_hal_tsf.o)
 .debug_line    0x000000000005dab3      0x50e /home/eric_gao/repo/repoe/amebagreen2_gcc_project/build/project_km4ns/asdk/make_rom/wifi_driver/lib_rom_wifi_driver_km4ns.a(rom_wifi_hal_txdesc.o)
 .debug_line    0x000000000005dfc1      0x4ff /home/eric_gao/repo/repoe/amebagreen2_gcc_project/build/project_km4ns/asdk/make_rom/wifi_driver/lib_rom_wifi_driver_km4ns.a(rom_wifi_hal_rxdesc.o)
 .debug_line    0x000000000005e4c0      0x204 /home/eric_gao/repo/repoe/amebagreen2_gcc_project/build/project_km4ns/asdk/make_rom/wifi_driver/lib_rom_wifi_driver_km4ns.a(rom_wifi_hal_io.o)
 .debug_line    0x000000000005e6c4      0x67a /home/eric_gao/repo/repoe/amebagreen2_gcc_project/build/project_km4ns/asdk/make_rom/wifi_driver/lib_rom_wifi_driver_km4ns.a(rom_hal_debug.o)
 .debug_line    0x000000000005ed3e     0x1d18 /home/eric_gao/repo/repoe/amebagreen2_gcc_project/build/project_km4ns/asdk/make_rom/wifi_driver/lib_rom_wifi_driver_km4ns.a(rom_hal_xmit.o)
 .debug_line    0x0000000000060a56      0xd7c /home/eric_gao/repo/repoe/amebagreen2_gcc_project/build/project_km4ns/asdk/make_rom/wifi_driver/lib_rom_wifi_driver_km4ns.a(rom_hal_xmit_g1.o)
 .debug_line    0x00000000000617d2      0x3fb /home/eric_gao/repo/repoe/amebagreen2_gcc_project/build/project_km4ns/asdk/make_rom/wifi_driver/lib_rom_wifi_driver_km4ns.a(rom_hal_structs.o)
 .debug_line    0x0000000000061bcd     0x13bd /home/eric_gao/repo/repoe/amebagreen2_gcc_project/build/project_km4ns/asdk/make_rom/wifi_driver/lib_rom_wifi_driver_km4ns.a(rom_hal_recv.o)
 .debug_line    0x0000000000062f8a     0x104f /home/eric_gao/repo/repoe/amebagreen2_gcc_project/build/project_km4ns/asdk/make_rom/wifi_driver/lib_rom_wifi_driver_km4ns.a(rom_hal_h2c.o)
 .debug_line    0x0000000000063fd9      0x7d6 /home/eric_gao/repo/repoe/amebagreen2_gcc_project/build/project_km4ns/asdk/make_rom/wifi_driver/lib_rom_wifi_driver_km4ns.a(rom_hal_h2c_g1.o)
 .debug_line    0x00000000000647af      0x3a1 /home/eric_gao/repo/repoe/amebagreen2_gcc_project/build/project_km4ns/asdk/make_rom/wifi_driver/lib_rom_wifi_driver_km4ns.a(rom_rtw_queue.o)
 .debug_line    0x0000000000064b50      0x272 /home/eric_gao/repo/repoe/amebagreen2_gcc_project/build/project_km4ns/asdk/make_rom/wifi_driver/lib_rom_wifi_driver_km4ns.a(rom_hal_rom_to_flash.o)

.debug_str      0x0000000000000000    0xa29cb
 .debug_str     0x0000000000000000      0x40d /home/eric_gao/repo/repoe/amebagreen2_gcc_project/build/project_km4ns/asdk/make_rom/fwlib/lib_rom_fwlib_km4ns.a(ameba_boot_rom.o)
 .debug_str     0x000000000000040d      0xf83 /home/eric_gao/repo/repoe/amebagreen2_gcc_project/build/project_km4ns/asdk/make_rom/fwlib/lib_rom_fwlib_km4ns.a(ameba_vector_rom.o)
 .debug_str     0x0000000000001390     0x1123 /home/eric_gao/repo/repoe/amebagreen2_gcc_project/build/project_km4ns/asdk/make_rom/fwlib_com/lib_rom_fwlib_com_km4ns.a(ameba_crypto_aes.o)
 .debug_str     0x00000000000024b3      0xfa9 /home/eric_gao/repo/repoe/amebagreen2_gcc_project/build/project_km4ns/asdk/make_rom/fwlib_com/lib_rom_fwlib_com_km4ns.a(ameba_crypto_sha.o)
 .debug_str     0x000000000000345c      0x846 /home/eric_gao/repo/repoe/amebagreen2_gcc_project/build/project_km4ns/asdk/make_rom/fwlib_com/lib_rom_fwlib_com_km4ns.a(ameba_crypto.o)
 .debug_str     0x0000000000003ca2     0x13fc /home/eric_gao/repo/repoe/amebagreen2_gcc_project/build/project_km4ns/asdk/make_rom/fwlib_com/lib_rom_fwlib_com_km4ns.a(ameba_pke_ecc.o)
 .debug_str     0x000000000000509e      0x3e5 /home/eric_gao/repo/repoe/amebagreen2_gcc_project/build/project_km4ns/asdk/make_rom/fwlib_com/lib_rom_fwlib_com_km4ns.a(ameba_pke_rsa.o)
 .debug_str     0x0000000000005483      0x5a6 /home/eric_gao/repo/repoe/amebagreen2_gcc_project/build/project_km4ns/asdk/make_rom/fwlib_com/lib_rom_fwlib_com_km4ns.a(ameba_pke_common.o)
 .debug_str     0x0000000000005a29      0x2e6 /home/eric_gao/repo/repoe/amebagreen2_gcc_project/build/project_km4ns/asdk/make_rom/fwlib_com/lib_rom_fwlib_com_km4ns.a(ameba_assert_rom.o)
 .debug_str     0x0000000000005d0f      0xc0c /home/eric_gao/repo/repoe/amebagreen2_gcc_project/build/project_km4ns/asdk/make_rom/fwlib_com/lib_rom_fwlib_com_km4ns.a(ameba_flash_rom.o)
 .debug_str     0x000000000000691b      0x815 /home/eric_gao/repo/repoe/amebagreen2_gcc_project/build/project_km4ns/asdk/make_rom/fwlib_com/lib_rom_fwlib_com_km4ns.a(ameba_otp_rom.o)
 .debug_str     0x0000000000007130      0x921 /home/eric_gao/repo/repoe/amebagreen2_gcc_project/build/project_km4ns/asdk/make_rom/fwlib_com/lib_rom_fwlib_com_km4ns.a(ameba_shell_rom.o)
 .debug_str     0x0000000000007a51      0x914 /home/eric_gao/repo/repoe/amebagreen2_gcc_project/build/project_km4ns/asdk/make_rom/fwlib_com/lib_rom_fwlib_com_km4ns.a(ameba_tim_rom.o)
 .debug_str     0x0000000000008365      0x2bf /home/eric_gao/repo/repoe/amebagreen2_gcc_project/build/project_km4ns/asdk/make_rom/fwlib_com/lib_rom_fwlib_com_km4ns.a(ameba_backup_reg.o)
 .debug_str     0x0000000000008624      0x730 /home/eric_gao/repo/repoe/amebagreen2_gcc_project/build/project_km4ns/asdk/make_rom/fwlib_com/lib_rom_fwlib_com_km4ns.a(ameba_gpio_rom.o)
 .debug_str     0x0000000000008d54      0x41f /home/eric_gao/repo/repoe/amebagreen2_gcc_project/build/project_km4ns/asdk/make_rom/fwlib_com/lib_rom_fwlib_com_km4ns.a(ameba_pinmux_rom.o)
 .debug_str     0x0000000000009173      0x2de /home/eric_gao/repo/repoe/amebagreen2_gcc_project/build/project_km4ns/asdk/make_rom/fwlib_com/lib_rom_fwlib_com_km4ns.a(ameba_rcc_rom.o)
 .debug_str     0x0000000000009451      0xc56 /home/eric_gao/repo/repoe/amebagreen2_gcc_project/build/project_km4ns/asdk/make_rom/fwlib_com/lib_rom_fwlib_com_km4ns.a(ameba_spinand_rom.o)
 .debug_str     0x000000000000a0a7      0x639 /home/eric_gao/repo/repoe/amebagreen2_gcc_project/build/project_km4ns/asdk/make_rom/fwlib_com/lib_rom_fwlib_com_km4ns.a(ameba_trng.o)
 .debug_str     0x000000000000a6e0      0x38f /home/eric_gao/repo/repoe/amebagreen2_gcc_project/build/project_km4ns/asdk/make_rom/fwlib_com/lib_rom_fwlib_com_km4ns.a(ameba_chipinfo_rom.o)
 .debug_str     0x000000000000aa6f     0x1082 /home/eric_gao/repo/repoe/amebagreen2_gcc_project/build/project_km4ns/asdk/make_rom/fwlib_com/lib_rom_fwlib_com_km4ns.a(ameba_loguart_rom.o)
 .debug_str     0x000000000000baf1      0x692 /home/eric_gao/repo/repoe/amebagreen2_gcc_project/build/project_km4ns/asdk/make_rom/fwlib_com/lib_rom_fwlib_com_km4ns.a(ameba_sdio_rom.o)
 .debug_str     0x000000000000c183      0x5e5 /home/eric_gao/repo/repoe/amebagreen2_gcc_project/build/project_km4ns/asdk/make_rom/fwlib_com/lib_rom_fwlib_com_km4ns.a(ameba_syscfg_rom.o)
 .debug_str     0x000000000000c768      0x647 /home/eric_gao/repo/repoe/amebagreen2_gcc_project/build/project_km4ns/asdk/make_rom/fwlib_com/lib_rom_fwlib_com_km4ns.a(ameba_uart_rom.o)
 .debug_str     0x000000000000cdaf      0x2ed /home/eric_gao/repo/repoe/amebagreen2_gcc_project/build/project_km4ns/asdk/make_rom/fwlib_com/lib_rom_fwlib_com_km4ns.a(ameba_clk_rom.o)
 .debug_str     0x000000000000d09c      0x345 /home/eric_gao/repo/repoe/amebagreen2_gcc_project/build/project_km4ns/asdk/make_rom/fwlib_com/lib_rom_fwlib_com_km4ns.a(ameba_delay_rom.o)
 .debug_str     0x000000000000d3e1      0x4e2 /home/eric_gao/repo/repoe/amebagreen2_gcc_project/build/project_km4ns/asdk/make_rom/fwlib_com/lib_rom_fwlib_com_km4ns.a(ameba_monitor_rom.o)
 .debug_str     0x000000000000d8c3      0x2e6 /home/eric_gao/repo/repoe/amebagreen2_gcc_project/build/project_km4ns/asdk/make_rom/fwlib_com/lib_rom_fwlib_com_km4ns.a(ameba_sema_rom.o)
 .debug_str     0x000000000000dba9      0x7e5 /home/eric_gao/repo/repoe/amebagreen2_gcc_project/build/project_km4ns/asdk/make_rom/fwlib_com/lib_rom_fwlib_com_km4ns.a(ameba_systimer_rom.o)
 .debug_str     0x000000000000e38e      0x386 /home/eric_gao/repo/repoe/amebagreen2_gcc_project/build/project_km4ns/asdk/make_rom/fwlib_com/lib_rom_fwlib_com_km4ns.a(ameba_wdg.o)
 .debug_str     0x000000000000e714      0x249 /home/eric_gao/repo/repoe/amebagreen2_gcc_project/build/project_km4ns/asdk/make_rom/string/lib_rom_string_km4ns.a(char2num.o)
 .debug_str     0x000000000000e95d      0x257 /home/eric_gao/repo/repoe/amebagreen2_gcc_project/build/project_km4ns/asdk/make_rom/string/lib_rom_string_km4ns.a(memchr.o)
 .debug_str     0x000000000000ebb4      0x229 /home/eric_gao/repo/repoe/amebagreen2_gcc_project/build/project_km4ns/asdk/make_rom/string/lib_rom_string_km4ns.a(memcmp.o)
 .debug_str     0x000000000000eddd      0x250 /home/eric_gao/repo/repoe/amebagreen2_gcc_project/build/project_km4ns/asdk/make_rom/string/lib_rom_string_km4ns.a(memcpy.o)
 .debug_str     0x000000000000f02d      0x25c /home/eric_gao/repo/repoe/amebagreen2_gcc_project/build/project_km4ns/asdk/make_rom/string/lib_rom_string_km4ns.a(memmove.o)
 .debug_str     0x000000000000f289      0x251 /home/eric_gao/repo/repoe/amebagreen2_gcc_project/build/project_km4ns/asdk/make_rom/string/lib_rom_string_km4ns.a(memset.o)
 .debug_str     0x000000000000f4da      0x3cc /home/eric_gao/repo/repoe/amebagreen2_gcc_project/build/project_km4ns/asdk/make_rom/string/lib_rom_string_km4ns.a(sscanf_minimal.o)
 .debug_str     0x000000000000f8a6      0x222 /home/eric_gao/repo/repoe/amebagreen2_gcc_project/build/project_km4ns/asdk/make_rom/string/lib_rom_string_km4ns.a(strcmp.o)
 .debug_str     0x000000000000fac8      0x244 /home/eric_gao/repo/repoe/amebagreen2_gcc_project/build/project_km4ns/asdk/make_rom/string/lib_rom_string_km4ns.a(strcpy.o)
 .debug_str     0x000000000000fd0c      0x23c /home/eric_gao/repo/repoe/amebagreen2_gcc_project/build/project_km4ns/asdk/make_rom/string/lib_rom_string_km4ns.a(stricmp.o)
 .debug_str     0x000000000000ff48      0x23c /home/eric_gao/repo/repoe/amebagreen2_gcc_project/build/project_km4ns/asdk/make_rom/string/lib_rom_string_km4ns.a(strlen.o)
 .debug_str     0x0000000000010184      0x253 /home/eric_gao/repo/repoe/amebagreen2_gcc_project/build/project_km4ns/asdk/make_rom/string/lib_rom_string_km4ns.a(strncpy.o)
 .debug_str     0x00000000000103d7      0x253 /home/eric_gao/repo/repoe/amebagreen2_gcc_project/build/project_km4ns/asdk/make_rom/string/lib_rom_string_km4ns.a(strtol.o)
 .debug_str     0x000000000001062a      0x261 /home/eric_gao/repo/repoe/amebagreen2_gcc_project/build/project_km4ns/asdk/make_rom/string/lib_rom_string_km4ns.a(strtoul.o)
 .debug_str     0x000000000001088b      0x240 /home/eric_gao/repo/repoe/amebagreen2_gcc_project/build/project_km4ns/asdk/make_rom/string/lib_rom_string_km4ns.a(strupr.o)
 .debug_str     0x0000000000010acb      0x3f7 /home/eric_gao/repo/repoe/amebagreen2_gcc_project/build/project_km4ns/asdk/make_rom/string/lib_rom_string_km4ns.a(strwrap.o)
 .debug_str     0x0000000000010ec2      0x49d /home/eric_gao/repo/repoe/amebagreen2_gcc_project/build/project_km4ns/asdk/make_rom/stdlib/lib_rom_stdlib_km4ns.a(diag.o)
 .debug_str     0x000000000001135f      0x4c3 /home/eric_gao/repo/repoe/amebagreen2_gcc_project/build/project_km4ns/asdk/make_rom/stdlib/lib_rom_stdlib_km4ns.a(log.o)
 .debug_str     0x0000000000011822      0x4b3 /home/eric_gao/repo/repoe/amebagreen2_gcc_project/build/project_km4ns/asdk/make_rom/crashdump/lib_rom_crashdump_km4ns.a(ameba_dump_stack.o)
 .debug_str     0x0000000000011cd5     0x126a /home/eric_gao/repo/repoe/amebagreen2_gcc_project/build/project_km4ns/asdk/make_rom/crashdump/lib_rom_crashdump_km4ns.a(ameba_v8m_crashdump.o)
 .debug_str     0x0000000000012f3f     0x1de7 /home/eric_gao/repo/repoe/amebagreen2_gcc_project/build/project_km4ns/asdk/make_rom/os/lib_rom_os_km4ns.a(tasks.o)
 .debug_str     0x0000000000014d26      0x39f /home/eric_gao/repo/repoe/amebagreen2_gcc_project/build/project_km4ns/asdk/make_rom/os/lib_rom_os_km4ns.a(list.o)
 .debug_str     0x00000000000150c5      0x679 /home/eric_gao/repo/repoe/amebagreen2_gcc_project/build/project_km4ns/asdk/make_rom/os/lib_rom_os_km4ns.a(croutine.o)
 .debug_str     0x000000000001573e     0x1136 /home/eric_gao/repo/repoe/amebagreen2_gcc_project/build/project_km4ns/asdk/make_rom/os/lib_rom_os_km4ns.a(queue.o)
 .debug_str     0x0000000000016874     0x1250 /home/eric_gao/repo/repoe/amebagreen2_gcc_project/build/project_km4ns/asdk/make_rom/os/lib_rom_os_km4ns.a(timers.o)
 .debug_str     0x0000000000017ac4      0x888 /home/eric_gao/repo/repoe/amebagreen2_gcc_project/build/project_km4ns/asdk/make_rom/os/lib_rom_os_km4ns.a(event_groups.o)
 .debug_str     0x000000000001834c      0xa35 /home/eric_gao/repo/repoe/amebagreen2_gcc_project/build/project_km4ns/asdk/make_rom/os/lib_rom_os_km4ns.a(stream_buffer.o)
 .debug_str     0x0000000000018d81      0xe73 /home/eric_gao/repo/repoe/amebagreen2_gcc_project/build/project_km4ns/asdk/make_rom/os/lib_rom_os_km4ns.a(port.o)
 .debug_str     0x0000000000019bf4      0x391 /home/eric_gao/repo/repoe/amebagreen2_gcc_project/build/project_km4ns/asdk/make_rom/os/lib_rom_os_km4ns.a(portasm.o)
 .debug_str     0x0000000000019f85      0x89f /home/eric_gao/repo/repoe/amebagreen2_gcc_project/build/project_km4ns/asdk/make_rom/os/lib_rom_os_km4ns.a(heap_5.o)
 .debug_str     0x000000000001a824      0x846 /home/eric_gao/repo/repoe/amebagreen2_gcc_project/build/project_km4ns/asdk/make_rom/os/lib_rom_os_km4ns.a(os_cfg.o)
 .debug_str     0x000000000001b06a      0x3bc /home/eric_gao/repo/repoe/amebagreen2_gcc_project/build/project_km4ns/asdk/make_rom/wifi_driver/lib_rom_wifi_driver_km4ns.a(rom_sha1.o)
 .debug_str     0x000000000001b426      0x398 /home/eric_gao/repo/repoe/amebagreen2_gcc_project/build/project_km4ns/asdk/make_rom/wifi_driver/lib_rom_wifi_driver_km4ns.a(rom_md5.o)
 .debug_str     0x000000000001b7be      0x487 /home/eric_gao/repo/repoe/amebagreen2_gcc_project/build/project_km4ns/asdk/make_rom/wifi_driver/lib_rom_wifi_driver_km4ns.a(rom_aes.o)
 .debug_str     0x000000000001bc45      0x48a /home/eric_gao/repo/repoe/amebagreen2_gcc_project/build/project_km4ns/asdk/make_rom/wifi_driver/lib_rom_wifi_driver_km4ns.a(rom_rtw_sha256.o)
 .debug_str     0x000000000001c0cf      0x549 /home/eric_gao/repo/repoe/amebagreen2_gcc_project/build/project_km4ns/asdk/make_rom/wifi_driver/lib_rom_wifi_driver_km4ns.a(rom_rtw_dh_groups.o)
 .debug_str     0x000000000001c618      0x319 /home/eric_gao/repo/repoe/amebagreen2_gcc_project/build/project_km4ns/asdk/make_rom/wifi_driver/lib_rom_wifi_driver_km4ns.a(rom_arc4.o)
 .debug_str     0x000000000001c931      0x252 /home/eric_gao/repo/repoe/amebagreen2_gcc_project/build/project_km4ns/asdk/make_rom/wifi_driver/lib_rom_wifi_driver_km4ns.a(rom_rc4.o)
 .debug_str     0x000000000001cb83      0x724 /home/eric_gao/repo/repoe/amebagreen2_gcc_project/build/project_km4ns/asdk/make_rom/wifi_driver/lib_rom_wifi_driver_km4ns.a(rom_rtw_mbedtls_bignum.o)
 .debug_str     0x000000000001d2a7      0xaf2 /home/eric_gao/repo/repoe/amebagreen2_gcc_project/build/project_km4ns/asdk/make_rom/wifi_driver/lib_rom_wifi_driver_km4ns.a(rom_rtw_mbedtls_ecp.o)
 .debug_str     0x000000000001dd99      0x728 /home/eric_gao/repo/repoe/amebagreen2_gcc_project/build/project_km4ns/asdk/make_rom/wifi_driver/lib_rom_wifi_driver_km4ns.a(rom_rtw_mbedtls_ecp_curves.o)
 .debug_str     0x000000000001e4c1      0x259 /home/eric_gao/repo/repoe/amebagreen2_gcc_project/build/project_km4ns/asdk/make_rom/wifi_driver/lib_rom_wifi_driver_km4ns.a(rom_rtw_mbedtls_platform.o)
 .debug_str     0x000000000001e71a      0x274 /home/eric_gao/repo/repoe/amebagreen2_gcc_project/build/project_km4ns/asdk/make_rom/wifi_driver/lib_rom_wifi_driver_km4ns.a(rom_rtw_mbedtls_func_map.o)
 .debug_str     0x000000000001e98e      0x7a7 /home/eric_gao/repo/repoe/amebagreen2_gcc_project/build/project_km4ns/asdk/make_rom/wifi_driver/lib_rom_wifi_driver_km4ns.a(rom_rtw_security.o)
 .debug_str     0x000000000001f135      0xb83 /home/eric_gao/repo/repoe/amebagreen2_gcc_project/build/project_km4ns/asdk/make_rom/wifi_driver/lib_rom_wifi_driver_km4ns.a(rom_wpa_lite_psk.o)
 .debug_str     0x000000000001fcb8      0xbf9 /home/eric_gao/repo/repoe/amebagreen2_gcc_project/build/project_km4ns/asdk/make_rom/wifi_driver/lib_rom_wifi_driver_km4ns.a(rom_wpa_lite_part2.o)
 .debug_str     0x00000000000208b1     0x107d /home/eric_gao/repo/repoe/amebagreen2_gcc_project/build/project_km4ns/asdk/make_rom/wifi_driver/lib_rom_wifi_driver_km4ns.a(rom_wpa_lite_sae.o)
 .debug_str     0x000000000002192e     0x1103 /home/eric_gao/repo/repoe/amebagreen2_gcc_project/build/project_km4ns/asdk/make_rom/wifi_driver/lib_rom_wifi_driver_km4ns.a(rom_wpa_lite_sae_crypto.o)
 .debug_str     0x0000000000022a31      0xbab /home/eric_gao/repo/repoe/amebagreen2_gcc_project/build/project_km4ns/asdk/make_rom/wifi_driver/lib_rom_wifi_driver_km4ns.a(rom_rtw_ieee80211.o)
 .debug_str     0x00000000000235dc     0x214d /home/eric_gao/repo/repoe/amebagreen2_gcc_project/build/project_km4ns/asdk/make_rom/wifi_driver/lib_rom_wifi_driver_km4ns.a(rom_rtw_ieee80211_part2.o)
 .debug_str     0x0000000000025729      0x2ed /home/eric_gao/repo/repoe/amebagreen2_gcc_project/build/project_km4ns/asdk/make_rom/wifi_driver/lib_rom_wifi_driver_km4ns.a(rom_rtw_probe.o)
 .debug_str     0x0000000000025a16      0x283 /home/eric_gao/repo/repoe/amebagreen2_gcc_project/build/project_km4ns/asdk/make_rom/wifi_driver/lib_rom_wifi_driver_km4ns.a(rom_rtw_auth.o)
 .debug_str     0x0000000000025c99      0x5da /home/eric_gao/repo/repoe/amebagreen2_gcc_project/build/project_km4ns/asdk/make_rom/wifi_driver/lib_rom_wifi_driver_km4ns.a(rom_rtw_action.o)
 .debug_str     0x0000000000026273      0x5aa /home/eric_gao/repo/repoe/amebagreen2_gcc_project/build/project_km4ns/asdk/make_rom/wifi_driver/lib_rom_wifi_driver_km4ns.a(rom_rtw_psk.o)
 .debug_str     0x000000000002681d      0x38e /home/eric_gao/repo/repoe/amebagreen2_gcc_project/build/project_km4ns/asdk/make_rom/wifi_driver/lib_rom_wifi_driver_km4ns.a(rom_rtw_pmksa_cache.o)
 .debug_str     0x0000000000026bab      0x583 /home/eric_gao/repo/repoe/amebagreen2_gcc_project/build/project_km4ns/asdk/make_rom/wifi_driver/lib_rom_wifi_driver_km4ns.a(rom_rtw_rf.o)
 .debug_str     0x000000000002712e      0x370 /home/eric_gao/repo/repoe/amebagreen2_gcc_project/build/project_km4ns/asdk/make_rom/wifi_driver/lib_rom_wifi_driver_km4ns.a(rom_rtw_recv.o)
 .debug_str     0x000000000002749e      0xfef /home/eric_gao/repo/repoe/amebagreen2_gcc_project/build/project_km4ns/asdk/make_rom/wifi_driver/lib_rom_wifi_driver_km4ns.a(rom_rtw_beacon.o)
 .debug_str     0x000000000002848d     0x1486 /home/eric_gao/repo/repoe/amebagreen2_gcc_project/build/project_km4ns/asdk/make_rom/wifi_driver/lib_rom_wifi_driver_km4ns.a(rom_rtw_assoc.o)
 .debug_str     0x0000000000029913      0xa28 /home/eric_gao/repo/repoe/amebagreen2_gcc_project/build/project_km4ns/asdk/make_rom/wifi_driver/lib_rom_wifi_driver_km4ns.a(rom_rtw_vht.o)
 .debug_str     0x000000000002a33b      0xa81 /home/eric_gao/repo/repoe/amebagreen2_gcc_project/build/project_km4ns/asdk/make_rom/wifi_driver/lib_rom_wifi_driver_km4ns.a(rom_rtw_he.o)
 .debug_str     0x000000000002adbc      0x7f7 /home/eric_gao/repo/repoe/amebagreen2_gcc_project/build/project_km4ns/asdk/make_rom/wifi_driver/lib_rom_wifi_driver_km4ns.a(rom_rtw_80211w.o)
 .debug_str     0x000000000002b5b3      0x41d /home/eric_gao/repo/repoe/amebagreen2_gcc_project/build/project_km4ns/asdk/make_rom/wifi_driver/lib_rom_wifi_driver_km4ns.a(rom_rtw_rate.o)
 .debug_str     0x000000000002b9d0      0x428 /home/eric_gao/repo/repoe/amebagreen2_gcc_project/build/project_km4ns/asdk/make_rom/wifi_driver/lib_rom_wifi_driver_km4ns.a(rom_rtw_chbw.o)
 .debug_str     0x000000000002bdf8      0x225 /home/eric_gao/repo/repoe/amebagreen2_gcc_project/build/project_km4ns/asdk/make_rom/wifi_driver/lib_rom_wifi_driver_km4ns.a(rom_rtw_11d.o)
 .debug_str     0x000000000002c01d     0x3040 /home/eric_gao/repo/repoe/amebagreen2_gcc_project/build/project_km4ns/asdk/make_rom/wifi_driver/lib_rom_wifi_driver_km4ns.a(rom_rtw_ht.o)
 .debug_str     0x000000000002f05d     0x2bc7 /home/eric_gao/repo/repoe/amebagreen2_gcc_project/build/project_km4ns/asdk/make_rom/wifi_driver/lib_rom_wifi_driver_km4ns.a(rom_rtw_network.o)
 .debug_str     0x0000000000031c24     0x2da6 /home/eric_gao/repo/repoe/amebagreen2_gcc_project/build/project_km4ns/asdk/make_rom/wifi_driver/lib_rom_wifi_driver_km4ns.a(rom_rtw_pmksa_cache_part2.o)
 .debug_str     0x00000000000349ca     0x2d20 /home/eric_gao/repo/repoe/amebagreen2_gcc_project/build/project_km4ns/asdk/make_rom/wifi_driver/lib_rom_wifi_driver_km4ns.a(rom_rtw_11d_part2.o)
 .debug_str     0x00000000000376ea     0x33d1 /home/eric_gao/repo/repoe/amebagreen2_gcc_project/build/project_km4ns/asdk/make_rom/wifi_driver/lib_rom_wifi_driver_km4ns.a(rom_rtw_he_part2.o)
 .debug_str     0x000000000003aabb     0x3218 /home/eric_gao/repo/repoe/amebagreen2_gcc_project/build/project_km4ns/asdk/make_rom/wifi_driver/lib_rom_wifi_driver_km4ns.a(rom_rtw_shortcut.o)
 .debug_str     0x000000000003dcd3     0x309b /home/eric_gao/repo/repoe/amebagreen2_gcc_project/build/project_km4ns/asdk/make_rom/wifi_driver/lib_rom_wifi_driver_km4ns.a(rom_rtw_setkey.o)
 .debug_str     0x0000000000040d6e     0x3974 /home/eric_gao/repo/repoe/amebagreen2_gcc_project/build/project_km4ns/asdk/make_rom/wifi_driver/lib_rom_wifi_driver_km4ns.a(rom_rtw_beacon_part2.o)
 .debug_str     0x00000000000446e2      0x8cd /home/eric_gao/repo/repoe/amebagreen2_gcc_project/build/project_km4ns/asdk/make_rom/wifi_driver/lib_rom_wifi_driver_km4ns.a(rom_rtw_sitesurvey.o)
 .debug_str     0x0000000000044faf     0x3432 /home/eric_gao/repo/repoe/amebagreen2_gcc_project/build/project_km4ns/asdk/make_rom/wifi_driver/lib_rom_wifi_driver_km4ns.a(rom_rtw_sitesurvey_report.o)
 .debug_str     0x00000000000483e1     0x32e8 /home/eric_gao/repo/repoe/amebagreen2_gcc_project/build/project_km4ns/asdk/make_rom/wifi_driver/lib_rom_wifi_driver_km4ns.a(rom_rtw_ap_xmit.o)
 .debug_str     0x000000000004b6c9     0x3744 /home/eric_gao/repo/repoe/amebagreen2_gcc_project/build/project_km4ns/asdk/make_rom/wifi_driver/lib_rom_wifi_driver_km4ns.a(rom_rtw_addba.o)
 .debug_str     0x000000000004ee0d     0x350c /home/eric_gao/repo/repoe/amebagreen2_gcc_project/build/project_km4ns/asdk/make_rom/wifi_driver/lib_rom_wifi_driver_km4ns.a(rom_rtw_80211w_part2.o)
 .debug_str     0x0000000000052319     0x4373 /home/eric_gao/repo/repoe/amebagreen2_gcc_project/build/project_km4ns/asdk/make_rom/wifi_driver/lib_rom_wifi_driver_km4ns.a(rom_rtw_auth_part2.o)
 .debug_str     0x000000000005668c     0x2d11 /home/eric_gao/repo/repoe/amebagreen2_gcc_project/build/project_km4ns/asdk/make_rom/wifi_driver/lib_rom_wifi_driver_km4ns.a(rom_rtw_action_part2.o)
 .debug_str     0x000000000005939d     0x473b /home/eric_gao/repo/repoe/amebagreen2_gcc_project/build/project_km4ns/asdk/make_rom/wifi_driver/lib_rom_wifi_driver_km4ns.a(rom_rtw_join.o)
 .debug_str     0x000000000005dad8     0x2eb3 /home/eric_gao/repo/repoe/amebagreen2_gcc_project/build/project_km4ns/asdk/make_rom/wifi_driver/lib_rom_wifi_driver_km4ns.a(rom_rtw_join_result.o)
 .debug_str     0x000000000006098b     0x54d2 /home/eric_gao/repo/repoe/amebagreen2_gcc_project/build/project_km4ns/asdk/make_rom/wifi_driver/lib_rom_wifi_driver_km4ns.a(rom_rtw_assoc_part2.o)
 .debug_str     0x0000000000065e5d     0x3b3d /home/eric_gao/repo/repoe/amebagreen2_gcc_project/build/project_km4ns/asdk/make_rom/wifi_driver/lib_rom_wifi_driver_km4ns.a(rom_rtw_security_part2.o)
 .debug_str     0x000000000006999a     0x3ca2 /home/eric_gao/repo/repoe/amebagreen2_gcc_project/build/project_km4ns/asdk/make_rom/wifi_driver/lib_rom_wifi_driver_km4ns.a(rom_rtw_vht_part2.o)
 .debug_str     0x000000000006d63c     0x3b13 /home/eric_gao/repo/repoe/amebagreen2_gcc_project/build/project_km4ns/asdk/make_rom/wifi_driver/lib_rom_wifi_driver_km4ns.a(rom_rtw_xmit.o)
 .debug_str     0x000000000007114f     0x41ff /home/eric_gao/repo/repoe/amebagreen2_gcc_project/build/project_km4ns/asdk/make_rom/wifi_driver/lib_rom_wifi_driver_km4ns.a(rom_rtw_recv_part2.o)
 .debug_str     0x000000000007534e     0x2da0 /home/eric_gao/repo/repoe/amebagreen2_gcc_project/build/project_km4ns/asdk/make_rom/wifi_driver/lib_rom_wifi_driver_km4ns.a(rom_rtw_recv_reorder.o)
 .debug_str     0x00000000000780ee     0x2f55 /home/eric_gao/repo/repoe/amebagreen2_gcc_project/build/project_km4ns/asdk/make_rom/wifi_driver/lib_rom_wifi_driver_km4ns.a(rom_rtw_mgnt.o)
 .debug_str     0x000000000007b043     0x2fe6 /home/eric_gao/repo/repoe/amebagreen2_gcc_project/build/project_km4ns/asdk/make_rom/wifi_driver/lib_rom_wifi_driver_km4ns.a(rom_rtw_recv_defrag.o)
 .debug_str     0x000000000007e029     0x317d /home/eric_gao/repo/repoe/amebagreen2_gcc_project/build/project_km4ns/asdk/make_rom/wifi_driver/lib_rom_wifi_driver_km4ns.a(rom_rtw_state.o)
 .debug_str     0x00000000000811a6     0x30b2 /home/eric_gao/repo/repoe/amebagreen2_gcc_project/build/project_km4ns/asdk/make_rom/wifi_driver/lib_rom_wifi_driver_km4ns.a(rom_rtw_sta_mgt.o)
 .debug_str     0x0000000000084258     0x3a13 /home/eric_gao/repo/repoe/amebagreen2_gcc_project/build/project_km4ns/asdk/make_rom/wifi_driver/lib_rom_wifi_driver_km4ns.a(rom_rtw_ap.o)
 .debug_str     0x0000000000087c6b      0x738 /home/eric_gao/repo/repoe/amebagreen2_gcc_project/build/project_km4ns/asdk/make_rom/wifi_driver/lib_rom_wifi_driver_km4ns.a(rom_rtw_skbuff.o)
 .debug_str     0x00000000000883a3      0x4e5 /home/eric_gao/repo/repoe/amebagreen2_gcc_project/build/project_km4ns/asdk/make_rom/wifi_driver/lib_rom_wifi_driver_km4ns.a(rom_wifi_hal_ax.o)
 .debug_str     0x0000000000088888      0x35d /home/eric_gao/repo/repoe/amebagreen2_gcc_project/build/project_km4ns/asdk/make_rom/wifi_driver/lib_rom_wifi_driver_km4ns.a(rom_wifi_hal_bcn.o)
 .debug_str     0x0000000000088be5      0x508 /home/eric_gao/repo/repoe/amebagreen2_gcc_project/build/project_km4ns/asdk/make_rom/wifi_driver/lib_rom_wifi_driver_km4ns.a(rom_wifi_hal_debug.o)
 .debug_str     0x00000000000890ed      0x6d9 /home/eric_gao/repo/repoe/amebagreen2_gcc_project/build/project_km4ns/asdk/make_rom/wifi_driver/lib_rom_wifi_driver_km4ns.a(rom_wifi_hal_init.o)
 .debug_str     0x00000000000897c6      0x870 /home/eric_gao/repo/repoe/amebagreen2_gcc_project/build/project_km4ns/asdk/make_rom/wifi_driver/lib_rom_wifi_driver_km4ns.a(rom_wifi_hal_media_access.o)
 .debug_str     0x000000000008a036      0xf97 /home/eric_gao/repo/repoe/amebagreen2_gcc_project/build/project_km4ns/asdk/make_rom/wifi_driver/lib_rom_wifi_driver_km4ns.a(rom_wifi_hal_misc.o)
 .debug_str     0x000000000008afcd      0xa2c /home/eric_gao/repo/repoe/amebagreen2_gcc_project/build/project_km4ns/asdk/make_rom/wifi_driver/lib_rom_wifi_driver_km4ns.a(rom_wifi_hal_rate.o)
 .debug_str     0x000000000008b9f9      0x95a /home/eric_gao/repo/repoe/amebagreen2_gcc_project/build/project_km4ns/asdk/make_rom/wifi_driver/lib_rom_wifi_driver_km4ns.a(rom_wifi_hal_secure.o)
 .debug_str     0x000000000008c353      0x3d7 /home/eric_gao/repo/repoe/amebagreen2_gcc_project/build/project_km4ns/asdk/make_rom/wifi_driver/lib_rom_wifi_driver_km4ns.a(rom_wifi_hal_tsf.o)
 .debug_str     0x000000000008c72a      0x90c /home/eric_gao/repo/repoe/amebagreen2_gcc_project/build/project_km4ns/asdk/make_rom/wifi_driver/lib_rom_wifi_driver_km4ns.a(rom_wifi_hal_txdesc.o)
 .debug_str     0x000000000008d036      0x63a /home/eric_gao/repo/repoe/amebagreen2_gcc_project/build/project_km4ns/asdk/make_rom/wifi_driver/lib_rom_wifi_driver_km4ns.a(rom_wifi_hal_rxdesc.o)
 .debug_str     0x000000000008d670      0x355 /home/eric_gao/repo/repoe/amebagreen2_gcc_project/build/project_km4ns/asdk/make_rom/wifi_driver/lib_rom_wifi_driver_km4ns.a(rom_wifi_hal_io.o)
 .debug_str     0x000000000008d9c5      0x56b /home/eric_gao/repo/repoe/amebagreen2_gcc_project/build/project_km4ns/asdk/make_rom/wifi_driver/lib_rom_wifi_driver_km4ns.a(rom_hal_debug.o)
 .debug_str     0x000000000008df30     0x3b2f /home/eric_gao/repo/repoe/amebagreen2_gcc_project/build/project_km4ns/asdk/make_rom/wifi_driver/lib_rom_wifi_driver_km4ns.a(rom_hal_xmit.o)
 .debug_str     0x0000000000091a5f     0x30ee /home/eric_gao/repo/repoe/amebagreen2_gcc_project/build/project_km4ns/asdk/make_rom/wifi_driver/lib_rom_wifi_driver_km4ns.a(rom_hal_xmit_g1.o)
 .debug_str     0x0000000000094b4d     0x26d5 /home/eric_gao/repo/repoe/amebagreen2_gcc_project/build/project_km4ns/asdk/make_rom/wifi_driver/lib_rom_wifi_driver_km4ns.a(rom_hal_structs.o)
 .debug_str     0x0000000000097222     0x3316 /home/eric_gao/repo/repoe/amebagreen2_gcc_project/build/project_km4ns/asdk/make_rom/wifi_driver/lib_rom_wifi_driver_km4ns.a(rom_hal_recv.o)
 .debug_str     0x000000000009a538     0x3476 /home/eric_gao/repo/repoe/amebagreen2_gcc_project/build/project_km4ns/asdk/make_rom/wifi_driver/lib_rom_wifi_driver_km4ns.a(rom_hal_h2c.o)
 .debug_str     0x000000000009d9ae     0x3291 /home/eric_gao/repo/repoe/amebagreen2_gcc_project/build/project_km4ns/asdk/make_rom/wifi_driver/lib_rom_wifi_driver_km4ns.a(rom_hal_h2c_g1.o)
 .debug_str     0x00000000000a0c3f      0xed9 /home/eric_gao/repo/repoe/amebagreen2_gcc_project/build/project_km4ns/asdk/make_rom/wifi_driver/lib_rom_wifi_driver_km4ns.a(rom_rtw_queue.o)
 .debug_str     0x00000000000a1b18      0xeb3 /home/eric_gao/repo/repoe/amebagreen2_gcc_project/build/project_km4ns/asdk/make_rom/wifi_driver/lib_rom_wifi_driver_km4ns.a(rom_hal_rom_to_flash.o)

.comment        0x0000000000000000     0x1f27
 .comment       0x0000000000000000       0x37 /home/eric_gao/repo/repoe/amebagreen2_gcc_project/build/project_km4ns/asdk/make_rom/fwlib/lib_rom_fwlib_km4ns.a(ameba_boot_rom.o)
 .comment       0x0000000000000037       0x37 /home/eric_gao/repo/repoe/amebagreen2_gcc_project/build/project_km4ns/asdk/make_rom/fwlib/lib_rom_fwlib_km4ns.a(ameba_vector_rom.o)
 .comment       0x000000000000006e       0x37 /home/eric_gao/repo/repoe/amebagreen2_gcc_project/build/project_km4ns/asdk/make_rom/fwlib_com/lib_rom_fwlib_com_km4ns.a(ameba_crypto_aes.o)
 .comment       0x00000000000000a5       0x37 /home/eric_gao/repo/repoe/amebagreen2_gcc_project/build/project_km4ns/asdk/make_rom/fwlib_com/lib_rom_fwlib_com_km4ns.a(ameba_crypto_sha.o)
 .comment       0x00000000000000dc       0x37 /home/eric_gao/repo/repoe/amebagreen2_gcc_project/build/project_km4ns/asdk/make_rom/fwlib_com/lib_rom_fwlib_com_km4ns.a(ameba_crypto.o)
 .comment       0x0000000000000113       0x37 /home/eric_gao/repo/repoe/amebagreen2_gcc_project/build/project_km4ns/asdk/make_rom/fwlib_com/lib_rom_fwlib_com_km4ns.a(ameba_pke_ecc.o)
 .comment       0x000000000000014a       0x37 /home/eric_gao/repo/repoe/amebagreen2_gcc_project/build/project_km4ns/asdk/make_rom/fwlib_com/lib_rom_fwlib_com_km4ns.a(ameba_pke_rsa.o)
 .comment       0x0000000000000181       0x37 /home/eric_gao/repo/repoe/amebagreen2_gcc_project/build/project_km4ns/asdk/make_rom/fwlib_com/lib_rom_fwlib_com_km4ns.a(ameba_pke_common.o)
 .comment       0x00000000000001b8       0x37 /home/eric_gao/repo/repoe/amebagreen2_gcc_project/build/project_km4ns/asdk/make_rom/fwlib_com/lib_rom_fwlib_com_km4ns.a(ameba_assert_rom.o)
 .comment       0x00000000000001ef       0x37 /home/eric_gao/repo/repoe/amebagreen2_gcc_project/build/project_km4ns/asdk/make_rom/fwlib_com/lib_rom_fwlib_com_km4ns.a(ameba_flash_rom.o)
 .comment       0x0000000000000226       0x37 /home/eric_gao/repo/repoe/amebagreen2_gcc_project/build/project_km4ns/asdk/make_rom/fwlib_com/lib_rom_fwlib_com_km4ns.a(ameba_otp_rom.o)
 .comment       0x000000000000025d       0x37 /home/eric_gao/repo/repoe/amebagreen2_gcc_project/build/project_km4ns/asdk/make_rom/fwlib_com/lib_rom_fwlib_com_km4ns.a(ameba_shell_rom.o)
 .comment       0x0000000000000294       0x37 /home/eric_gao/repo/repoe/amebagreen2_gcc_project/build/project_km4ns/asdk/make_rom/fwlib_com/lib_rom_fwlib_com_km4ns.a(ameba_tim_rom.o)
 .comment       0x00000000000002cb       0x37 /home/eric_gao/repo/repoe/amebagreen2_gcc_project/build/project_km4ns/asdk/make_rom/fwlib_com/lib_rom_fwlib_com_km4ns.a(ameba_backup_reg.o)
 .comment       0x0000000000000302       0x37 /home/eric_gao/repo/repoe/amebagreen2_gcc_project/build/project_km4ns/asdk/make_rom/fwlib_com/lib_rom_fwlib_com_km4ns.a(ameba_gpio_rom.o)
 .comment       0x0000000000000339       0x37 /home/eric_gao/repo/repoe/amebagreen2_gcc_project/build/project_km4ns/asdk/make_rom/fwlib_com/lib_rom_fwlib_com_km4ns.a(ameba_pinmux_rom.o)
 .comment       0x0000000000000370       0x37 /home/eric_gao/repo/repoe/amebagreen2_gcc_project/build/project_km4ns/asdk/make_rom/fwlib_com/lib_rom_fwlib_com_km4ns.a(ameba_rcc_rom.o)
 .comment       0x00000000000003a7       0x37 /home/eric_gao/repo/repoe/amebagreen2_gcc_project/build/project_km4ns/asdk/make_rom/fwlib_com/lib_rom_fwlib_com_km4ns.a(ameba_spinand_rom.o)
 .comment       0x00000000000003de       0x37 /home/eric_gao/repo/repoe/amebagreen2_gcc_project/build/project_km4ns/asdk/make_rom/fwlib_com/lib_rom_fwlib_com_km4ns.a(ameba_trng.o)
 .comment       0x0000000000000415       0x37 /home/eric_gao/repo/repoe/amebagreen2_gcc_project/build/project_km4ns/asdk/make_rom/fwlib_com/lib_rom_fwlib_com_km4ns.a(ameba_chipinfo_rom.o)
 .comment       0x000000000000044c       0x37 /home/eric_gao/repo/repoe/amebagreen2_gcc_project/build/project_km4ns/asdk/make_rom/fwlib_com/lib_rom_fwlib_com_km4ns.a(ameba_loguart_rom.o)
 .comment       0x0000000000000483       0x37 /home/eric_gao/repo/repoe/amebagreen2_gcc_project/build/project_km4ns/asdk/make_rom/fwlib_com/lib_rom_fwlib_com_km4ns.a(ameba_sdio_rom.o)
 .comment       0x00000000000004ba       0x37 /home/eric_gao/repo/repoe/amebagreen2_gcc_project/build/project_km4ns/asdk/make_rom/fwlib_com/lib_rom_fwlib_com_km4ns.a(ameba_syscfg_rom.o)
 .comment       0x00000000000004f1       0x37 /home/eric_gao/repo/repoe/amebagreen2_gcc_project/build/project_km4ns/asdk/make_rom/fwlib_com/lib_rom_fwlib_com_km4ns.a(ameba_uart_rom.o)
 .comment       0x0000000000000528       0x37 /home/eric_gao/repo/repoe/amebagreen2_gcc_project/build/project_km4ns/asdk/make_rom/fwlib_com/lib_rom_fwlib_com_km4ns.a(ameba_clk_rom.o)
 .comment       0x000000000000055f       0x37 /home/eric_gao/repo/repoe/amebagreen2_gcc_project/build/project_km4ns/asdk/make_rom/fwlib_com/lib_rom_fwlib_com_km4ns.a(ameba_delay_rom.o)
 .comment       0x0000000000000596       0x37 /home/eric_gao/repo/repoe/amebagreen2_gcc_project/build/project_km4ns/asdk/make_rom/fwlib_com/lib_rom_fwlib_com_km4ns.a(ameba_monitor_rom.o)
 .comment       0x00000000000005cd       0x37 /home/eric_gao/repo/repoe/amebagreen2_gcc_project/build/project_km4ns/asdk/make_rom/fwlib_com/lib_rom_fwlib_com_km4ns.a(ameba_sema_rom.o)
 .comment       0x0000000000000604       0x37 /home/eric_gao/repo/repoe/amebagreen2_gcc_project/build/project_km4ns/asdk/make_rom/fwlib_com/lib_rom_fwlib_com_km4ns.a(ameba_systimer_rom.o)
 .comment       0x000000000000063b       0x37 /home/eric_gao/repo/repoe/amebagreen2_gcc_project/build/project_km4ns/asdk/make_rom/fwlib_com/lib_rom_fwlib_com_km4ns.a(ameba_wdg.o)
 .comment       0x0000000000000672       0x37 /home/eric_gao/repo/repoe/amebagreen2_gcc_project/build/project_km4ns/asdk/make_rom/string/lib_rom_string_km4ns.a(char2num.o)
 .comment       0x00000000000006a9       0x37 /home/eric_gao/repo/repoe/amebagreen2_gcc_project/build/project_km4ns/asdk/make_rom/string/lib_rom_string_km4ns.a(memchr.o)
 .comment       0x00000000000006e0       0x37 /home/eric_gao/repo/repoe/amebagreen2_gcc_project/build/project_km4ns/asdk/make_rom/string/lib_rom_string_km4ns.a(memcmp.o)
 .comment       0x0000000000000717       0x37 /home/eric_gao/repo/repoe/amebagreen2_gcc_project/build/project_km4ns/asdk/make_rom/string/lib_rom_string_km4ns.a(memcpy.o)
 .comment       0x000000000000074e       0x37 /home/eric_gao/repo/repoe/amebagreen2_gcc_project/build/project_km4ns/asdk/make_rom/string/lib_rom_string_km4ns.a(memmove.o)
 .comment       0x0000000000000785       0x37 /home/eric_gao/repo/repoe/amebagreen2_gcc_project/build/project_km4ns/asdk/make_rom/string/lib_rom_string_km4ns.a(memset.o)
 .comment       0x00000000000007bc       0x37 /home/eric_gao/repo/repoe/amebagreen2_gcc_project/build/project_km4ns/asdk/make_rom/string/lib_rom_string_km4ns.a(sscanf_minimal.o)
 .comment       0x00000000000007f3       0x37 /home/eric_gao/repo/repoe/amebagreen2_gcc_project/build/project_km4ns/asdk/make_rom/string/lib_rom_string_km4ns.a(strcmp.o)
 .comment       0x000000000000082a       0x37 /home/eric_gao/repo/repoe/amebagreen2_gcc_project/build/project_km4ns/asdk/make_rom/string/lib_rom_string_km4ns.a(strcpy.o)
 .comment       0x0000000000000861       0x37 /home/eric_gao/repo/repoe/amebagreen2_gcc_project/build/project_km4ns/asdk/make_rom/string/lib_rom_string_km4ns.a(stricmp.o)
 .comment       0x0000000000000898       0x37 /home/eric_gao/repo/repoe/amebagreen2_gcc_project/build/project_km4ns/asdk/make_rom/string/lib_rom_string_km4ns.a(strlen.o)
 .comment       0x00000000000008cf       0x37 /home/eric_gao/repo/repoe/amebagreen2_gcc_project/build/project_km4ns/asdk/make_rom/string/lib_rom_string_km4ns.a(strncpy.o)
 .comment       0x0000000000000906       0x37 /home/eric_gao/repo/repoe/amebagreen2_gcc_project/build/project_km4ns/asdk/make_rom/string/lib_rom_string_km4ns.a(strtol.o)
 .comment       0x000000000000093d       0x37 /home/eric_gao/repo/repoe/amebagreen2_gcc_project/build/project_km4ns/asdk/make_rom/string/lib_rom_string_km4ns.a(strtoul.o)
 .comment       0x0000000000000974       0x37 /home/eric_gao/repo/repoe/amebagreen2_gcc_project/build/project_km4ns/asdk/make_rom/string/lib_rom_string_km4ns.a(strupr.o)
 .comment       0x00000000000009ab       0x37 /home/eric_gao/repo/repoe/amebagreen2_gcc_project/build/project_km4ns/asdk/make_rom/string/lib_rom_string_km4ns.a(strwrap.o)
 .comment       0x00000000000009e2       0x37 /home/eric_gao/repo/repoe/amebagreen2_gcc_project/build/project_km4ns/asdk/make_rom/stdlib/lib_rom_stdlib_km4ns.a(diag.o)
 .comment       0x0000000000000a19       0x37 /home/eric_gao/repo/repoe/amebagreen2_gcc_project/build/project_km4ns/asdk/make_rom/stdlib/lib_rom_stdlib_km4ns.a(log.o)
 .comment       0x0000000000000a50       0x37 /home/eric_gao/repo/repoe/amebagreen2_gcc_project/build/project_km4ns/asdk/make_rom/crashdump/lib_rom_crashdump_km4ns.a(ameba_dump_stack.o)
 .comment       0x0000000000000a87       0x37 /home/eric_gao/repo/repoe/amebagreen2_gcc_project/build/project_km4ns/asdk/make_rom/crashdump/lib_rom_crashdump_km4ns.a(ameba_v8m_crashdump.o)
 .comment       0x0000000000000abe       0x37 /home/eric_gao/repo/repoe/amebagreen2_gcc_project/build/project_km4ns/asdk/make_rom/os/lib_rom_os_km4ns.a(tasks.o)
 .comment       0x0000000000000af5       0x37 /home/eric_gao/repo/repoe/amebagreen2_gcc_project/build/project_km4ns/asdk/make_rom/os/lib_rom_os_km4ns.a(list.o)
 .comment       0x0000000000000b2c       0x37 /home/eric_gao/repo/repoe/amebagreen2_gcc_project/build/project_km4ns/asdk/make_rom/os/lib_rom_os_km4ns.a(croutine.o)
 .comment       0x0000000000000b63       0x37 /home/eric_gao/repo/repoe/amebagreen2_gcc_project/build/project_km4ns/asdk/make_rom/os/lib_rom_os_km4ns.a(queue.o)
 .comment       0x0000000000000b9a       0x37 /home/eric_gao/repo/repoe/amebagreen2_gcc_project/build/project_km4ns/asdk/make_rom/os/lib_rom_os_km4ns.a(timers.o)
 .comment       0x0000000000000bd1       0x37 /home/eric_gao/repo/repoe/amebagreen2_gcc_project/build/project_km4ns/asdk/make_rom/os/lib_rom_os_km4ns.a(event_groups.o)
 .comment       0x0000000000000c08       0x37 /home/eric_gao/repo/repoe/amebagreen2_gcc_project/build/project_km4ns/asdk/make_rom/os/lib_rom_os_km4ns.a(stream_buffer.o)
 .comment       0x0000000000000c3f       0x37 /home/eric_gao/repo/repoe/amebagreen2_gcc_project/build/project_km4ns/asdk/make_rom/os/lib_rom_os_km4ns.a(port.o)
 .comment       0x0000000000000c76       0x37 /home/eric_gao/repo/repoe/amebagreen2_gcc_project/build/project_km4ns/asdk/make_rom/os/lib_rom_os_km4ns.a(portasm.o)
 .comment       0x0000000000000cad       0x37 /home/eric_gao/repo/repoe/amebagreen2_gcc_project/build/project_km4ns/asdk/make_rom/os/lib_rom_os_km4ns.a(heap_5.o)
 .comment       0x0000000000000ce4       0x37 /home/eric_gao/repo/repoe/amebagreen2_gcc_project/build/project_km4ns/asdk/make_rom/os/lib_rom_os_km4ns.a(os_cfg.o)
 .comment       0x0000000000000d1b       0x37 /home/eric_gao/repo/repoe/amebagreen2_gcc_project/build/project_km4ns/asdk/make_rom/wifi_driver/lib_rom_wifi_driver_km4ns.a(rom_sha1.o)
 .comment       0x0000000000000d52       0x37 /home/eric_gao/repo/repoe/amebagreen2_gcc_project/build/project_km4ns/asdk/make_rom/wifi_driver/lib_rom_wifi_driver_km4ns.a(rom_md5.o)
 .comment       0x0000000000000d89       0x37 /home/eric_gao/repo/repoe/amebagreen2_gcc_project/build/project_km4ns/asdk/make_rom/wifi_driver/lib_rom_wifi_driver_km4ns.a(rom_aes.o)
 .comment       0x0000000000000dc0       0x37 /home/eric_gao/repo/repoe/amebagreen2_gcc_project/build/project_km4ns/asdk/make_rom/wifi_driver/lib_rom_wifi_driver_km4ns.a(rom_rtw_sha256.o)
 .comment       0x0000000000000df7       0x37 /home/eric_gao/repo/repoe/amebagreen2_gcc_project/build/project_km4ns/asdk/make_rom/wifi_driver/lib_rom_wifi_driver_km4ns.a(rom_rtw_dh_groups.o)
 .comment       0x0000000000000e2e       0x37 /home/eric_gao/repo/repoe/amebagreen2_gcc_project/build/project_km4ns/asdk/make_rom/wifi_driver/lib_rom_wifi_driver_km4ns.a(rom_arc4.o)
 .comment       0x0000000000000e65       0x37 /home/eric_gao/repo/repoe/amebagreen2_gcc_project/build/project_km4ns/asdk/make_rom/wifi_driver/lib_rom_wifi_driver_km4ns.a(rom_rc4.o)
 .comment       0x0000000000000e9c       0x37 /home/eric_gao/repo/repoe/amebagreen2_gcc_project/build/project_km4ns/asdk/make_rom/wifi_driver/lib_rom_wifi_driver_km4ns.a(rom_rtw_mbedtls_bignum.o)
 .comment       0x0000000000000ed3       0x37 /home/eric_gao/repo/repoe/amebagreen2_gcc_project/build/project_km4ns/asdk/make_rom/wifi_driver/lib_rom_wifi_driver_km4ns.a(rom_rtw_mbedtls_ecp.o)
 .comment       0x0000000000000f0a       0x37 /home/eric_gao/repo/repoe/amebagreen2_gcc_project/build/project_km4ns/asdk/make_rom/wifi_driver/lib_rom_wifi_driver_km4ns.a(rom_rtw_mbedtls_ecp_curves.o)
 .comment       0x0000000000000f41       0x37 /home/eric_gao/repo/repoe/amebagreen2_gcc_project/build/project_km4ns/asdk/make_rom/wifi_driver/lib_rom_wifi_driver_km4ns.a(rom_rtw_mbedtls_platform.o)
 .comment       0x0000000000000f78       0x37 /home/eric_gao/repo/repoe/amebagreen2_gcc_project/build/project_km4ns/asdk/make_rom/wifi_driver/lib_rom_wifi_driver_km4ns.a(rom_rtw_mbedtls_func_map.o)
 .comment       0x0000000000000faf       0x37 /home/eric_gao/repo/repoe/amebagreen2_gcc_project/build/project_km4ns/asdk/make_rom/wifi_driver/lib_rom_wifi_driver_km4ns.a(rom_rtw_security.o)
 .comment       0x0000000000000fe6       0x37 /home/eric_gao/repo/repoe/amebagreen2_gcc_project/build/project_km4ns/asdk/make_rom/wifi_driver/lib_rom_wifi_driver_km4ns.a(rom_wpa_lite_psk.o)
 .comment       0x000000000000101d       0x37 /home/eric_gao/repo/repoe/amebagreen2_gcc_project/build/project_km4ns/asdk/make_rom/wifi_driver/lib_rom_wifi_driver_km4ns.a(rom_wpa_lite_part2.o)
 .comment       0x0000000000001054       0x37 /home/eric_gao/repo/repoe/amebagreen2_gcc_project/build/project_km4ns/asdk/make_rom/wifi_driver/lib_rom_wifi_driver_km4ns.a(rom_wpa_lite_sae.o)
 .comment       0x000000000000108b       0x37 /home/eric_gao/repo/repoe/amebagreen2_gcc_project/build/project_km4ns/asdk/make_rom/wifi_driver/lib_rom_wifi_driver_km4ns.a(rom_wpa_lite_sae_crypto.o)
 .comment       0x00000000000010c2       0x37 /home/eric_gao/repo/repoe/amebagreen2_gcc_project/build/project_km4ns/asdk/make_rom/wifi_driver/lib_rom_wifi_driver_km4ns.a(rom_rtw_ieee80211.o)
 .comment       0x00000000000010f9       0x37 /home/eric_gao/repo/repoe/amebagreen2_gcc_project/build/project_km4ns/asdk/make_rom/wifi_driver/lib_rom_wifi_driver_km4ns.a(rom_rtw_ieee80211_part2.o)
 .comment       0x0000000000001130       0x37 /home/eric_gao/repo/repoe/amebagreen2_gcc_project/build/project_km4ns/asdk/make_rom/wifi_driver/lib_rom_wifi_driver_km4ns.a(rom_rtw_probe.o)
 .comment       0x0000000000001167       0x37 /home/eric_gao/repo/repoe/amebagreen2_gcc_project/build/project_km4ns/asdk/make_rom/wifi_driver/lib_rom_wifi_driver_km4ns.a(rom_rtw_auth.o)
 .comment       0x000000000000119e       0x37 /home/eric_gao/repo/repoe/amebagreen2_gcc_project/build/project_km4ns/asdk/make_rom/wifi_driver/lib_rom_wifi_driver_km4ns.a(rom_rtw_action.o)
 .comment       0x00000000000011d5       0x37 /home/eric_gao/repo/repoe/amebagreen2_gcc_project/build/project_km4ns/asdk/make_rom/wifi_driver/lib_rom_wifi_driver_km4ns.a(rom_rtw_psk.o)
 .comment       0x000000000000120c       0x37 /home/eric_gao/repo/repoe/amebagreen2_gcc_project/build/project_km4ns/asdk/make_rom/wifi_driver/lib_rom_wifi_driver_km4ns.a(rom_rtw_pmksa_cache.o)
 .comment       0x0000000000001243       0x37 /home/eric_gao/repo/repoe/amebagreen2_gcc_project/build/project_km4ns/asdk/make_rom/wifi_driver/lib_rom_wifi_driver_km4ns.a(rom_rtw_rf.o)
 .comment       0x000000000000127a       0x37 /home/eric_gao/repo/repoe/amebagreen2_gcc_project/build/project_km4ns/asdk/make_rom/wifi_driver/lib_rom_wifi_driver_km4ns.a(rom_rtw_recv.o)
 .comment       0x00000000000012b1       0x37 /home/eric_gao/repo/repoe/amebagreen2_gcc_project/build/project_km4ns/asdk/make_rom/wifi_driver/lib_rom_wifi_driver_km4ns.a(rom_rtw_beacon.o)
 .comment       0x00000000000012e8       0x37 /home/eric_gao/repo/repoe/amebagreen2_gcc_project/build/project_km4ns/asdk/make_rom/wifi_driver/lib_rom_wifi_driver_km4ns.a(rom_rtw_assoc.o)
 .comment       0x000000000000131f       0x37 /home/eric_gao/repo/repoe/amebagreen2_gcc_project/build/project_km4ns/asdk/make_rom/wifi_driver/lib_rom_wifi_driver_km4ns.a(rom_rtw_vht.o)
 .comment       0x0000000000001356       0x37 /home/eric_gao/repo/repoe/amebagreen2_gcc_project/build/project_km4ns/asdk/make_rom/wifi_driver/lib_rom_wifi_driver_km4ns.a(rom_rtw_he.o)
 .comment       0x000000000000138d       0x37 /home/eric_gao/repo/repoe/amebagreen2_gcc_project/build/project_km4ns/asdk/make_rom/wifi_driver/lib_rom_wifi_driver_km4ns.a(rom_rtw_80211w.o)
 .comment       0x00000000000013c4       0x37 /home/eric_gao/repo/repoe/amebagreen2_gcc_project/build/project_km4ns/asdk/make_rom/wifi_driver/lib_rom_wifi_driver_km4ns.a(rom_rtw_rate.o)
 .comment       0x00000000000013fb       0x37 /home/eric_gao/repo/repoe/amebagreen2_gcc_project/build/project_km4ns/asdk/make_rom/wifi_driver/lib_rom_wifi_driver_km4ns.a(rom_rtw_chbw.o)
 .comment       0x0000000000001432       0x37 /home/eric_gao/repo/repoe/amebagreen2_gcc_project/build/project_km4ns/asdk/make_rom/wifi_driver/lib_rom_wifi_driver_km4ns.a(rom_rtw_11d.o)
 .comment       0x0000000000001469       0x37 /home/eric_gao/repo/repoe/amebagreen2_gcc_project/build/project_km4ns/asdk/make_rom/wifi_driver/lib_rom_wifi_driver_km4ns.a(rom_rtw_ht.o)
 .comment       0x00000000000014a0       0x37 /home/eric_gao/repo/repoe/amebagreen2_gcc_project/build/project_km4ns/asdk/make_rom/wifi_driver/lib_rom_wifi_driver_km4ns.a(rom_rtw_network.o)
 .comment       0x00000000000014d7       0x37 /home/eric_gao/repo/repoe/amebagreen2_gcc_project/build/project_km4ns/asdk/make_rom/wifi_driver/lib_rom_wifi_driver_km4ns.a(rom_rtw_pmksa_cache_part2.o)
 .comment       0x000000000000150e       0x37 /home/eric_gao/repo/repoe/amebagreen2_gcc_project/build/project_km4ns/asdk/make_rom/wifi_driver/lib_rom_wifi_driver_km4ns.a(rom_rtw_11d_part2.o)
 .comment       0x0000000000001545       0x37 /home/eric_gao/repo/repoe/amebagreen2_gcc_project/build/project_km4ns/asdk/make_rom/wifi_driver/lib_rom_wifi_driver_km4ns.a(rom_rtw_he_part2.o)
 .comment       0x000000000000157c       0x37 /home/eric_gao/repo/repoe/amebagreen2_gcc_project/build/project_km4ns/asdk/make_rom/wifi_driver/lib_rom_wifi_driver_km4ns.a(rom_rtw_shortcut.o)
 .comment       0x00000000000015b3       0x37 /home/eric_gao/repo/repoe/amebagreen2_gcc_project/build/project_km4ns/asdk/make_rom/wifi_driver/lib_rom_wifi_driver_km4ns.a(rom_rtw_setkey.o)
 .comment       0x00000000000015ea       0x37 /home/eric_gao/repo/repoe/amebagreen2_gcc_project/build/project_km4ns/asdk/make_rom/wifi_driver/lib_rom_wifi_driver_km4ns.a(rom_rtw_beacon_part2.o)
 .comment       0x0000000000001621       0x37 /home/eric_gao/repo/repoe/amebagreen2_gcc_project/build/project_km4ns/asdk/make_rom/wifi_driver/lib_rom_wifi_driver_km4ns.a(rom_rtw_sitesurvey.o)
 .comment       0x0000000000001658       0x37 /home/eric_gao/repo/repoe/amebagreen2_gcc_project/build/project_km4ns/asdk/make_rom/wifi_driver/lib_rom_wifi_driver_km4ns.a(rom_rtw_sitesurvey_report.o)
 .comment       0x000000000000168f       0x37 /home/eric_gao/repo/repoe/amebagreen2_gcc_project/build/project_km4ns/asdk/make_rom/wifi_driver/lib_rom_wifi_driver_km4ns.a(rom_rtw_ap_xmit.o)
 .comment       0x00000000000016c6       0x37 /home/eric_gao/repo/repoe/amebagreen2_gcc_project/build/project_km4ns/asdk/make_rom/wifi_driver/lib_rom_wifi_driver_km4ns.a(rom_rtw_addba.o)
 .comment       0x00000000000016fd       0x37 /home/eric_gao/repo/repoe/amebagreen2_gcc_project/build/project_km4ns/asdk/make_rom/wifi_driver/lib_rom_wifi_driver_km4ns.a(rom_rtw_80211w_part2.o)
 .comment       0x0000000000001734       0x37 /home/eric_gao/repo/repoe/amebagreen2_gcc_project/build/project_km4ns/asdk/make_rom/wifi_driver/lib_rom_wifi_driver_km4ns.a(rom_rtw_auth_part2.o)
 .comment       0x000000000000176b       0x37 /home/eric_gao/repo/repoe/amebagreen2_gcc_project/build/project_km4ns/asdk/make_rom/wifi_driver/lib_rom_wifi_driver_km4ns.a(rom_rtw_action_part2.o)
 .comment       0x00000000000017a2       0x37 /home/eric_gao/repo/repoe/amebagreen2_gcc_project/build/project_km4ns/asdk/make_rom/wifi_driver/lib_rom_wifi_driver_km4ns.a(rom_rtw_join.o)
 .comment       0x00000000000017d9       0x37 /home/eric_gao/repo/repoe/amebagreen2_gcc_project/build/project_km4ns/asdk/make_rom/wifi_driver/lib_rom_wifi_driver_km4ns.a(rom_rtw_join_result.o)
 .comment       0x0000000000001810       0x37 /home/eric_gao/repo/repoe/amebagreen2_gcc_project/build/project_km4ns/asdk/make_rom/wifi_driver/lib_rom_wifi_driver_km4ns.a(rom_rtw_assoc_part2.o)
 .comment       0x0000000000001847       0x37 /home/eric_gao/repo/repoe/amebagreen2_gcc_project/build/project_km4ns/asdk/make_rom/wifi_driver/lib_rom_wifi_driver_km4ns.a(rom_rtw_security_part2.o)
 .comment       0x000000000000187e       0x37 /home/eric_gao/repo/repoe/amebagreen2_gcc_project/build/project_km4ns/asdk/make_rom/wifi_driver/lib_rom_wifi_driver_km4ns.a(rom_rtw_vht_part2.o)
 .comment       0x00000000000018b5       0x37 /home/eric_gao/repo/repoe/amebagreen2_gcc_project/build/project_km4ns/asdk/make_rom/wifi_driver/lib_rom_wifi_driver_km4ns.a(rom_rtw_xmit.o)
 .comment       0x00000000000018ec       0x37 /home/eric_gao/repo/repoe/amebagreen2_gcc_project/build/project_km4ns/asdk/make_rom/wifi_driver/lib_rom_wifi_driver_km4ns.a(rom_rtw_recv_part2.o)
 .comment       0x0000000000001923       0x37 /home/eric_gao/repo/repoe/amebagreen2_gcc_project/build/project_km4ns/asdk/make_rom/wifi_driver/lib_rom_wifi_driver_km4ns.a(rom_rtw_recv_reorder.o)
 .comment       0x000000000000195a       0x37 /home/eric_gao/repo/repoe/amebagreen2_gcc_project/build/project_km4ns/asdk/make_rom/wifi_driver/lib_rom_wifi_driver_km4ns.a(rom_rtw_mgnt.o)
 .comment       0x0000000000001991       0x37 /home/eric_gao/repo/repoe/amebagreen2_gcc_project/build/project_km4ns/asdk/make_rom/wifi_driver/lib_rom_wifi_driver_km4ns.a(rom_rtw_recv_defrag.o)
 .comment       0x00000000000019c8       0x37 /home/eric_gao/repo/repoe/amebagreen2_gcc_project/build/project_km4ns/asdk/make_rom/wifi_driver/lib_rom_wifi_driver_km4ns.a(rom_rtw_state.o)
 .comment       0x00000000000019ff       0x37 /home/eric_gao/repo/repoe/amebagreen2_gcc_project/build/project_km4ns/asdk/make_rom/wifi_driver/lib_rom_wifi_driver_km4ns.a(rom_rtw_sta_mgt.o)
 .comment       0x0000000000001a36       0x37 /home/eric_gao/repo/repoe/amebagreen2_gcc_project/build/project_km4ns/asdk/make_rom/wifi_driver/lib_rom_wifi_driver_km4ns.a(rom_rtw_ap.o)
 .comment       0x0000000000001a6d       0x37 /home/eric_gao/repo/repoe/amebagreen2_gcc_project/build/project_km4ns/asdk/make_rom/wifi_driver/lib_rom_wifi_driver_km4ns.a(rom_rtw_skbuff.o)
 .comment       0x0000000000001aa4       0x37 /home/eric_gao/repo/repoe/amebagreen2_gcc_project/build/project_km4ns/asdk/make_rom/wifi_driver/lib_rom_wifi_driver_km4ns.a(rom_wifi_hal_ax.o)
 .comment       0x0000000000001adb       0x37 /home/eric_gao/repo/repoe/amebagreen2_gcc_project/build/project_km4ns/asdk/make_rom/wifi_driver/lib_rom_wifi_driver_km4ns.a(rom_wifi_hal_bcn.o)
 .comment       0x0000000000001b12       0x37 /home/eric_gao/repo/repoe/amebagreen2_gcc_project/build/project_km4ns/asdk/make_rom/wifi_driver/lib_rom_wifi_driver_km4ns.a(rom_wifi_hal_debug.o)
 .comment       0x0000000000001b49       0x37 /home/eric_gao/repo/repoe/amebagreen2_gcc_project/build/project_km4ns/asdk/make_rom/wifi_driver/lib_rom_wifi_driver_km4ns.a(rom_wifi_hal_init.o)
 .comment       0x0000000000001b80       0x37 /home/eric_gao/repo/repoe/amebagreen2_gcc_project/build/project_km4ns/asdk/make_rom/wifi_driver/lib_rom_wifi_driver_km4ns.a(rom_wifi_hal_media_access.o)
 .comment       0x0000000000001bb7       0x37 /home/eric_gao/repo/repoe/amebagreen2_gcc_project/build/project_km4ns/asdk/make_rom/wifi_driver/lib_rom_wifi_driver_km4ns.a(rom_wifi_hal_misc.o)
 .comment       0x0000000000001bee       0x37 /home/eric_gao/repo/repoe/amebagreen2_gcc_project/build/project_km4ns/asdk/make_rom/wifi_driver/lib_rom_wifi_driver_km4ns.a(rom_wifi_hal_rate.o)
 .comment       0x0000000000001c25       0x37 /home/eric_gao/repo/repoe/amebagreen2_gcc_project/build/project_km4ns/asdk/make_rom/wifi_driver/lib_rom_wifi_driver_km4ns.a(rom_wifi_hal_secure.o)
 .comment       0x0000000000001c5c       0x37 /home/eric_gao/repo/repoe/amebagreen2_gcc_project/build/project_km4ns/asdk/make_rom/wifi_driver/lib_rom_wifi_driver_km4ns.a(rom_wifi_hal_tsf.o)
 .comment       0x0000000000001c93       0x37 /home/eric_gao/repo/repoe/amebagreen2_gcc_project/build/project_km4ns/asdk/make_rom/wifi_driver/lib_rom_wifi_driver_km4ns.a(rom_wifi_hal_txdesc.o)
 .comment       0x0000000000001cca       0x37 /home/eric_gao/repo/repoe/amebagreen2_gcc_project/build/project_km4ns/asdk/make_rom/wifi_driver/lib_rom_wifi_driver_km4ns.a(rom_wifi_hal_rxdesc.o)
 .comment       0x0000000000001d01       0x37 /home/eric_gao/repo/repoe/amebagreen2_gcc_project/build/project_km4ns/asdk/make_rom/wifi_driver/lib_rom_wifi_driver_km4ns.a(rom_wifi_hal_io.o)
 .comment       0x0000000000001d38       0x37 /home/eric_gao/repo/repoe/amebagreen2_gcc_project/build/project_km4ns/asdk/make_rom/wifi_driver/lib_rom_wifi_driver_km4ns.a(rom_hal_debug.o)
 .comment       0x0000000000001d6f       0x37 /home/eric_gao/repo/repoe/amebagreen2_gcc_project/build/project_km4ns/asdk/make_rom/wifi_driver/lib_rom_wifi_driver_km4ns.a(rom_hal_xmit.o)
 .comment       0x0000000000001da6       0x37 /home/eric_gao/repo/repoe/amebagreen2_gcc_project/build/project_km4ns/asdk/make_rom/wifi_driver/lib_rom_wifi_driver_km4ns.a(rom_hal_xmit_g1.o)
 .comment       0x0000000000001ddd       0x37 /home/eric_gao/repo/repoe/amebagreen2_gcc_project/build/project_km4ns/asdk/make_rom/wifi_driver/lib_rom_wifi_driver_km4ns.a(rom_hal_structs.o)
 .comment       0x0000000000001e14       0x37 /home/eric_gao/repo/repoe/amebagreen2_gcc_project/build/project_km4ns/asdk/make_rom/wifi_driver/lib_rom_wifi_driver_km4ns.a(rom_hal_recv.o)
 .comment       0x0000000000001e4b       0x37 /home/eric_gao/repo/repoe/amebagreen2_gcc_project/build/project_km4ns/asdk/make_rom/wifi_driver/lib_rom_wifi_driver_km4ns.a(rom_hal_h2c.o)
 .comment       0x0000000000001e82       0x37 /home/eric_gao/repo/repoe/amebagreen2_gcc_project/build/project_km4ns/asdk/make_rom/wifi_driver/lib_rom_wifi_driver_km4ns.a(rom_hal_h2c_g1.o)
 .comment       0x0000000000001eb9       0x37 /home/eric_gao/repo/repoe/amebagreen2_gcc_project/build/project_km4ns/asdk/make_rom/wifi_driver/lib_rom_wifi_driver_km4ns.a(rom_rtw_queue.o)
 .comment       0x0000000000001ef0       0x37 /home/eric_gao/repo/repoe/amebagreen2_gcc_project/build/project_km4ns/asdk/make_rom/wifi_driver/lib_rom_wifi_driver_km4ns.a(rom_hal_rom_to_flash.o)

.ARM.attributes
                0x0000000000000000       0x32
 .ARM.attributes
                0x0000000000000000       0x34 /home/eric_gao/repo/repoe/amebagreen2_gcc_project/build/project_km4ns/asdk/make_rom/fwlib/lib_rom_fwlib_km4ns.a(ameba_boot_rom.o)
 .ARM.attributes
                0x0000000000000034       0x34 /home/eric_gao/repo/repoe/amebagreen2_gcc_project/build/project_km4ns/asdk/make_rom/fwlib/lib_rom_fwlib_km4ns.a(ameba_vector_rom.o)
 .ARM.attributes
                0x0000000000000068       0x22 /home/eric_gao/repo/repoe/amebagreen2_gcc_project/build/project_km4ns/asdk/make_rom/fwlib/lib_rom_fwlib_km4ns.a(ameba_vectors.o)
 .ARM.attributes
                0x000000000000008a       0x34 /home/eric_gao/repo/repoe/amebagreen2_gcc_project/build/project_km4ns/asdk/make_rom/fwlib_com/lib_rom_fwlib_com_km4ns.a(ameba_crypto_aes.o)
 .ARM.attributes
                0x00000000000000be       0x34 /home/eric_gao/repo/repoe/amebagreen2_gcc_project/build/project_km4ns/asdk/make_rom/fwlib_com/lib_rom_fwlib_com_km4ns.a(ameba_crypto_sha.o)
 .ARM.attributes
                0x00000000000000f2       0x34 /home/eric_gao/repo/repoe/amebagreen2_gcc_project/build/project_km4ns/asdk/make_rom/fwlib_com/lib_rom_fwlib_com_km4ns.a(ameba_crypto.o)
 .ARM.attributes
                0x0000000000000126       0x34 /home/eric_gao/repo/repoe/amebagreen2_gcc_project/build/project_km4ns/asdk/make_rom/fwlib_com/lib_rom_fwlib_com_km4ns.a(ameba_pke_ecc.o)
 .ARM.attributes
                0x000000000000015a       0x34 /home/eric_gao/repo/repoe/amebagreen2_gcc_project/build/project_km4ns/asdk/make_rom/fwlib_com/lib_rom_fwlib_com_km4ns.a(ameba_pke_rsa.o)
 .ARM.attributes
                0x000000000000018e       0x34 /home/eric_gao/repo/repoe/amebagreen2_gcc_project/build/project_km4ns/asdk/make_rom/fwlib_com/lib_rom_fwlib_com_km4ns.a(ameba_pke_common.o)
 .ARM.attributes
                0x00000000000001c2       0x34 /home/eric_gao/repo/repoe/amebagreen2_gcc_project/build/project_km4ns/asdk/make_rom/fwlib_com/lib_rom_fwlib_com_km4ns.a(ameba_assert_rom.o)
 .ARM.attributes
                0x00000000000001f6       0x34 /home/eric_gao/repo/repoe/amebagreen2_gcc_project/build/project_km4ns/asdk/make_rom/fwlib_com/lib_rom_fwlib_com_km4ns.a(ameba_flash_rom.o)
 .ARM.attributes
                0x000000000000022a       0x34 /home/eric_gao/repo/repoe/amebagreen2_gcc_project/build/project_km4ns/asdk/make_rom/fwlib_com/lib_rom_fwlib_com_km4ns.a(ameba_otp_rom.o)
 .ARM.attributes
                0x000000000000025e       0x34 /home/eric_gao/repo/repoe/amebagreen2_gcc_project/build/project_km4ns/asdk/make_rom/fwlib_com/lib_rom_fwlib_com_km4ns.a(ameba_shell_rom.o)
 .ARM.attributes
                0x0000000000000292       0x34 /home/eric_gao/repo/repoe/amebagreen2_gcc_project/build/project_km4ns/asdk/make_rom/fwlib_com/lib_rom_fwlib_com_km4ns.a(ameba_tim_rom.o)
 .ARM.attributes
                0x00000000000002c6       0x34 /home/eric_gao/repo/repoe/amebagreen2_gcc_project/build/project_km4ns/asdk/make_rom/fwlib_com/lib_rom_fwlib_com_km4ns.a(ameba_backup_reg.o)
 .ARM.attributes
                0x00000000000002fa       0x34 /home/eric_gao/repo/repoe/amebagreen2_gcc_project/build/project_km4ns/asdk/make_rom/fwlib_com/lib_rom_fwlib_com_km4ns.a(ameba_gpio_rom.o)
 .ARM.attributes
                0x000000000000032e       0x34 /home/eric_gao/repo/repoe/amebagreen2_gcc_project/build/project_km4ns/asdk/make_rom/fwlib_com/lib_rom_fwlib_com_km4ns.a(ameba_pinmux_rom.o)
 .ARM.attributes
                0x0000000000000362       0x34 /home/eric_gao/repo/repoe/amebagreen2_gcc_project/build/project_km4ns/asdk/make_rom/fwlib_com/lib_rom_fwlib_com_km4ns.a(ameba_rcc_rom.o)
 .ARM.attributes
                0x0000000000000396       0x34 /home/eric_gao/repo/repoe/amebagreen2_gcc_project/build/project_km4ns/asdk/make_rom/fwlib_com/lib_rom_fwlib_com_km4ns.a(ameba_spinand_rom.o)
 .ARM.attributes
                0x00000000000003ca       0x34 /home/eric_gao/repo/repoe/amebagreen2_gcc_project/build/project_km4ns/asdk/make_rom/fwlib_com/lib_rom_fwlib_com_km4ns.a(ameba_trng.o)
 .ARM.attributes
                0x00000000000003fe       0x34 /home/eric_gao/repo/repoe/amebagreen2_gcc_project/build/project_km4ns/asdk/make_rom/fwlib_com/lib_rom_fwlib_com_km4ns.a(ameba_chipinfo_rom.o)
 .ARM.attributes
                0x0000000000000432       0x34 /home/eric_gao/repo/repoe/amebagreen2_gcc_project/build/project_km4ns/asdk/make_rom/fwlib_com/lib_rom_fwlib_com_km4ns.a(ameba_loguart_rom.o)
 .ARM.attributes
                0x0000000000000466       0x34 /home/eric_gao/repo/repoe/amebagreen2_gcc_project/build/project_km4ns/asdk/make_rom/fwlib_com/lib_rom_fwlib_com_km4ns.a(ameba_sdio_rom.o)
 .ARM.attributes
                0x000000000000049a       0x34 /home/eric_gao/repo/repoe/amebagreen2_gcc_project/build/project_km4ns/asdk/make_rom/fwlib_com/lib_rom_fwlib_com_km4ns.a(ameba_syscfg_rom.o)
 .ARM.attributes
                0x00000000000004ce       0x34 /home/eric_gao/repo/repoe/amebagreen2_gcc_project/build/project_km4ns/asdk/make_rom/fwlib_com/lib_rom_fwlib_com_km4ns.a(ameba_uart_rom.o)
 .ARM.attributes
                0x0000000000000502       0x34 /home/eric_gao/repo/repoe/amebagreen2_gcc_project/build/project_km4ns/asdk/make_rom/fwlib_com/lib_rom_fwlib_com_km4ns.a(ameba_clk_rom.o)
 .ARM.attributes
                0x0000000000000536       0x34 /home/eric_gao/repo/repoe/amebagreen2_gcc_project/build/project_km4ns/asdk/make_rom/fwlib_com/lib_rom_fwlib_com_km4ns.a(ameba_delay_rom.o)
 .ARM.attributes
                0x000000000000056a       0x34 /home/eric_gao/repo/repoe/amebagreen2_gcc_project/build/project_km4ns/asdk/make_rom/fwlib_com/lib_rom_fwlib_com_km4ns.a(ameba_monitor_rom.o)
 .ARM.attributes
                0x000000000000059e       0x34 /home/eric_gao/repo/repoe/amebagreen2_gcc_project/build/project_km4ns/asdk/make_rom/fwlib_com/lib_rom_fwlib_com_km4ns.a(ameba_sema_rom.o)
 .ARM.attributes
                0x00000000000005d2       0x34 /home/eric_gao/repo/repoe/amebagreen2_gcc_project/build/project_km4ns/asdk/make_rom/fwlib_com/lib_rom_fwlib_com_km4ns.a(ameba_systimer_rom.o)
 .ARM.attributes
                0x0000000000000606       0x34 /home/eric_gao/repo/repoe/amebagreen2_gcc_project/build/project_km4ns/asdk/make_rom/fwlib_com/lib_rom_fwlib_com_km4ns.a(ameba_wdg.o)
 .ARM.attributes
                0x000000000000063a       0x34 /home/eric_gao/repo/repoe/amebagreen2_gcc_project/build/project_km4ns/asdk/make_rom/string/lib_rom_string_km4ns.a(char2num.o)
 .ARM.attributes
                0x000000000000066e       0x34 /home/eric_gao/repo/repoe/amebagreen2_gcc_project/build/project_km4ns/asdk/make_rom/string/lib_rom_string_km4ns.a(memchr.o)
 .ARM.attributes
                0x00000000000006a2       0x34 /home/eric_gao/repo/repoe/amebagreen2_gcc_project/build/project_km4ns/asdk/make_rom/string/lib_rom_string_km4ns.a(memcmp.o)
 .ARM.attributes
                0x00000000000006d6       0x34 /home/eric_gao/repo/repoe/amebagreen2_gcc_project/build/project_km4ns/asdk/make_rom/string/lib_rom_string_km4ns.a(memcpy.o)
 .ARM.attributes
                0x000000000000070a       0x34 /home/eric_gao/repo/repoe/amebagreen2_gcc_project/build/project_km4ns/asdk/make_rom/string/lib_rom_string_km4ns.a(memmove.o)
 .ARM.attributes
                0x000000000000073e       0x34 /home/eric_gao/repo/repoe/amebagreen2_gcc_project/build/project_km4ns/asdk/make_rom/string/lib_rom_string_km4ns.a(memset.o)
 .ARM.attributes
                0x0000000000000772       0x34 /home/eric_gao/repo/repoe/amebagreen2_gcc_project/build/project_km4ns/asdk/make_rom/string/lib_rom_string_km4ns.a(sscanf_minimal.o)
 .ARM.attributes
                0x00000000000007a6       0x34 /home/eric_gao/repo/repoe/amebagreen2_gcc_project/build/project_km4ns/asdk/make_rom/string/lib_rom_string_km4ns.a(strcmp.o)
 .ARM.attributes
                0x00000000000007da       0x34 /home/eric_gao/repo/repoe/amebagreen2_gcc_project/build/project_km4ns/asdk/make_rom/string/lib_rom_string_km4ns.a(strcpy.o)
 .ARM.attributes
                0x000000000000080e       0x34 /home/eric_gao/repo/repoe/amebagreen2_gcc_project/build/project_km4ns/asdk/make_rom/string/lib_rom_string_km4ns.a(stricmp.o)
 .ARM.attributes
                0x0000000000000842       0x34 /home/eric_gao/repo/repoe/amebagreen2_gcc_project/build/project_km4ns/asdk/make_rom/string/lib_rom_string_km4ns.a(strlen.o)
 .ARM.attributes
                0x0000000000000876       0x34 /home/eric_gao/repo/repoe/amebagreen2_gcc_project/build/project_km4ns/asdk/make_rom/string/lib_rom_string_km4ns.a(strncpy.o)
 .ARM.attributes
                0x00000000000008aa       0x34 /home/eric_gao/repo/repoe/amebagreen2_gcc_project/build/project_km4ns/asdk/make_rom/string/lib_rom_string_km4ns.a(strtol.o)
 .ARM.attributes
                0x00000000000008de       0x34 /home/eric_gao/repo/repoe/amebagreen2_gcc_project/build/project_km4ns/asdk/make_rom/string/lib_rom_string_km4ns.a(strtoul.o)
 .ARM.attributes
                0x0000000000000912       0x34 /home/eric_gao/repo/repoe/amebagreen2_gcc_project/build/project_km4ns/asdk/make_rom/string/lib_rom_string_km4ns.a(strupr.o)
 .ARM.attributes
                0x0000000000000946       0x34 /home/eric_gao/repo/repoe/amebagreen2_gcc_project/build/project_km4ns/asdk/make_rom/string/lib_rom_string_km4ns.a(strwrap.o)
 .ARM.attributes
                0x000000000000097a       0x34 /home/eric_gao/repo/repoe/amebagreen2_gcc_project/build/project_km4ns/asdk/make_rom/stdlib/lib_rom_stdlib_km4ns.a(diag.o)
 .ARM.attributes
                0x00000000000009ae       0x34 /home/eric_gao/repo/repoe/amebagreen2_gcc_project/build/project_km4ns/asdk/make_rom/stdlib/lib_rom_stdlib_km4ns.a(log.o)
 .ARM.attributes
                0x00000000000009e2       0x34 /home/eric_gao/repo/repoe/amebagreen2_gcc_project/build/project_km4ns/asdk/make_rom/crashdump/lib_rom_crashdump_km4ns.a(ameba_dump_stack.o)
 .ARM.attributes
                0x0000000000000a16       0x34 /home/eric_gao/repo/repoe/amebagreen2_gcc_project/build/project_km4ns/asdk/make_rom/crashdump/lib_rom_crashdump_km4ns.a(ameba_v8m_crashdump.o)
 .ARM.attributes
                0x0000000000000a4a       0x34 /home/eric_gao/repo/repoe/amebagreen2_gcc_project/build/project_km4ns/asdk/make_rom/os/lib_rom_os_km4ns.a(tasks.o)
 .ARM.attributes
                0x0000000000000a7e       0x34 /home/eric_gao/repo/repoe/amebagreen2_gcc_project/build/project_km4ns/asdk/make_rom/os/lib_rom_os_km4ns.a(list.o)
 .ARM.attributes
                0x0000000000000ab2       0x34 /home/eric_gao/repo/repoe/amebagreen2_gcc_project/build/project_km4ns/asdk/make_rom/os/lib_rom_os_km4ns.a(croutine.o)
 .ARM.attributes
                0x0000000000000ae6       0x34 /home/eric_gao/repo/repoe/amebagreen2_gcc_project/build/project_km4ns/asdk/make_rom/os/lib_rom_os_km4ns.a(queue.o)
 .ARM.attributes
                0x0000000000000b1a       0x34 /home/eric_gao/repo/repoe/amebagreen2_gcc_project/build/project_km4ns/asdk/make_rom/os/lib_rom_os_km4ns.a(timers.o)
 .ARM.attributes
                0x0000000000000b4e       0x34 /home/eric_gao/repo/repoe/amebagreen2_gcc_project/build/project_km4ns/asdk/make_rom/os/lib_rom_os_km4ns.a(event_groups.o)
 .ARM.attributes
                0x0000000000000b82       0x34 /home/eric_gao/repo/repoe/amebagreen2_gcc_project/build/project_km4ns/asdk/make_rom/os/lib_rom_os_km4ns.a(stream_buffer.o)
 .ARM.attributes
                0x0000000000000bb6       0x34 /home/eric_gao/repo/repoe/amebagreen2_gcc_project/build/project_km4ns/asdk/make_rom/os/lib_rom_os_km4ns.a(port.o)
 .ARM.attributes
                0x0000000000000bea       0x34 /home/eric_gao/repo/repoe/amebagreen2_gcc_project/build/project_km4ns/asdk/make_rom/os/lib_rom_os_km4ns.a(portasm.o)
 .ARM.attributes
                0x0000000000000c1e       0x34 /home/eric_gao/repo/repoe/amebagreen2_gcc_project/build/project_km4ns/asdk/make_rom/os/lib_rom_os_km4ns.a(heap_5.o)
 .ARM.attributes
                0x0000000000000c52       0x34 /home/eric_gao/repo/repoe/amebagreen2_gcc_project/build/project_km4ns/asdk/make_rom/os/lib_rom_os_km4ns.a(os_cfg.o)
 .ARM.attributes
                0x0000000000000c86       0x34 /home/eric_gao/repo/repoe/amebagreen2_gcc_project/build/project_km4ns/asdk/make_rom/wifi_driver/lib_rom_wifi_driver_km4ns.a(rom_sha1.o)
 .ARM.attributes
                0x0000000000000cba       0x34 /home/eric_gao/repo/repoe/amebagreen2_gcc_project/build/project_km4ns/asdk/make_rom/wifi_driver/lib_rom_wifi_driver_km4ns.a(rom_md5.o)
 .ARM.attributes
                0x0000000000000cee       0x34 /home/eric_gao/repo/repoe/amebagreen2_gcc_project/build/project_km4ns/asdk/make_rom/wifi_driver/lib_rom_wifi_driver_km4ns.a(rom_aes.o)
 .ARM.attributes
                0x0000000000000d22       0x34 /home/eric_gao/repo/repoe/amebagreen2_gcc_project/build/project_km4ns/asdk/make_rom/wifi_driver/lib_rom_wifi_driver_km4ns.a(rom_rtw_sha256.o)
 .ARM.attributes
                0x0000000000000d56       0x34 /home/eric_gao/repo/repoe/amebagreen2_gcc_project/build/project_km4ns/asdk/make_rom/wifi_driver/lib_rom_wifi_driver_km4ns.a(rom_rtw_dh_groups.o)
 .ARM.attributes
                0x0000000000000d8a       0x34 /home/eric_gao/repo/repoe/amebagreen2_gcc_project/build/project_km4ns/asdk/make_rom/wifi_driver/lib_rom_wifi_driver_km4ns.a(rom_arc4.o)
 .ARM.attributes
                0x0000000000000dbe       0x34 /home/eric_gao/repo/repoe/amebagreen2_gcc_project/build/project_km4ns/asdk/make_rom/wifi_driver/lib_rom_wifi_driver_km4ns.a(rom_rc4.o)
 .ARM.attributes
                0x0000000000000df2       0x34 /home/eric_gao/repo/repoe/amebagreen2_gcc_project/build/project_km4ns/asdk/make_rom/wifi_driver/lib_rom_wifi_driver_km4ns.a(rom_rtw_mbedtls_bignum.o)
 .ARM.attributes
                0x0000000000000e26       0x34 /home/eric_gao/repo/repoe/amebagreen2_gcc_project/build/project_km4ns/asdk/make_rom/wifi_driver/lib_rom_wifi_driver_km4ns.a(rom_rtw_mbedtls_ecp.o)
 .ARM.attributes
                0x0000000000000e5a       0x34 /home/eric_gao/repo/repoe/amebagreen2_gcc_project/build/project_km4ns/asdk/make_rom/wifi_driver/lib_rom_wifi_driver_km4ns.a(rom_rtw_mbedtls_ecp_curves.o)
 .ARM.attributes
                0x0000000000000e8e       0x34 /home/eric_gao/repo/repoe/amebagreen2_gcc_project/build/project_km4ns/asdk/make_rom/wifi_driver/lib_rom_wifi_driver_km4ns.a(rom_rtw_mbedtls_platform.o)
 .ARM.attributes
                0x0000000000000ec2       0x34 /home/eric_gao/repo/repoe/amebagreen2_gcc_project/build/project_km4ns/asdk/make_rom/wifi_driver/lib_rom_wifi_driver_km4ns.a(rom_rtw_mbedtls_func_map.o)
 .ARM.attributes
                0x0000000000000ef6       0x34 /home/eric_gao/repo/repoe/amebagreen2_gcc_project/build/project_km4ns/asdk/make_rom/wifi_driver/lib_rom_wifi_driver_km4ns.a(rom_rtw_security.o)
 .ARM.attributes
                0x0000000000000f2a       0x34 /home/eric_gao/repo/repoe/amebagreen2_gcc_project/build/project_km4ns/asdk/make_rom/wifi_driver/lib_rom_wifi_driver_km4ns.a(rom_wpa_lite_psk.o)
 .ARM.attributes
                0x0000000000000f5e       0x34 /home/eric_gao/repo/repoe/amebagreen2_gcc_project/build/project_km4ns/asdk/make_rom/wifi_driver/lib_rom_wifi_driver_km4ns.a(rom_wpa_lite_part2.o)
 .ARM.attributes
                0x0000000000000f92       0x34 /home/eric_gao/repo/repoe/amebagreen2_gcc_project/build/project_km4ns/asdk/make_rom/wifi_driver/lib_rom_wifi_driver_km4ns.a(rom_wpa_lite_sae.o)
 .ARM.attributes
                0x0000000000000fc6       0x34 /home/eric_gao/repo/repoe/amebagreen2_gcc_project/build/project_km4ns/asdk/make_rom/wifi_driver/lib_rom_wifi_driver_km4ns.a(rom_wpa_lite_sae_crypto.o)
 .ARM.attributes
                0x0000000000000ffa       0x34 /home/eric_gao/repo/repoe/amebagreen2_gcc_project/build/project_km4ns/asdk/make_rom/wifi_driver/lib_rom_wifi_driver_km4ns.a(rom_rtw_ieee80211.o)
 .ARM.attributes
                0x000000000000102e       0x34 /home/eric_gao/repo/repoe/amebagreen2_gcc_project/build/project_km4ns/asdk/make_rom/wifi_driver/lib_rom_wifi_driver_km4ns.a(rom_rtw_ieee80211_part2.o)
 .ARM.attributes
                0x0000000000001062       0x34 /home/eric_gao/repo/repoe/amebagreen2_gcc_project/build/project_km4ns/asdk/make_rom/wifi_driver/lib_rom_wifi_driver_km4ns.a(rom_rtw_probe.o)
 .ARM.attributes
                0x0000000000001096       0x34 /home/eric_gao/repo/repoe/amebagreen2_gcc_project/build/project_km4ns/asdk/make_rom/wifi_driver/lib_rom_wifi_driver_km4ns.a(rom_rtw_auth.o)
 .ARM.attributes
                0x00000000000010ca       0x34 /home/eric_gao/repo/repoe/amebagreen2_gcc_project/build/project_km4ns/asdk/make_rom/wifi_driver/lib_rom_wifi_driver_km4ns.a(rom_rtw_action.o)
 .ARM.attributes
                0x00000000000010fe       0x34 /home/eric_gao/repo/repoe/amebagreen2_gcc_project/build/project_km4ns/asdk/make_rom/wifi_driver/lib_rom_wifi_driver_km4ns.a(rom_rtw_psk.o)
 .ARM.attributes
                0x0000000000001132       0x34 /home/eric_gao/repo/repoe/amebagreen2_gcc_project/build/project_km4ns/asdk/make_rom/wifi_driver/lib_rom_wifi_driver_km4ns.a(rom_rtw_pmksa_cache.o)
 .ARM.attributes
                0x0000000000001166       0x34 /home/eric_gao/repo/repoe/amebagreen2_gcc_project/build/project_km4ns/asdk/make_rom/wifi_driver/lib_rom_wifi_driver_km4ns.a(rom_rtw_rf.o)
 .ARM.attributes
                0x000000000000119a       0x34 /home/eric_gao/repo/repoe/amebagreen2_gcc_project/build/project_km4ns/asdk/make_rom/wifi_driver/lib_rom_wifi_driver_km4ns.a(rom_rtw_recv.o)
 .ARM.attributes
                0x00000000000011ce       0x34 /home/eric_gao/repo/repoe/amebagreen2_gcc_project/build/project_km4ns/asdk/make_rom/wifi_driver/lib_rom_wifi_driver_km4ns.a(rom_rtw_beacon.o)
 .ARM.attributes
                0x0000000000001202       0x34 /home/eric_gao/repo/repoe/amebagreen2_gcc_project/build/project_km4ns/asdk/make_rom/wifi_driver/lib_rom_wifi_driver_km4ns.a(rom_rtw_assoc.o)
 .ARM.attributes
                0x0000000000001236       0x34 /home/eric_gao/repo/repoe/amebagreen2_gcc_project/build/project_km4ns/asdk/make_rom/wifi_driver/lib_rom_wifi_driver_km4ns.a(rom_rtw_vht.o)
 .ARM.attributes
                0x000000000000126a       0x34 /home/eric_gao/repo/repoe/amebagreen2_gcc_project/build/project_km4ns/asdk/make_rom/wifi_driver/lib_rom_wifi_driver_km4ns.a(rom_rtw_he.o)
 .ARM.attributes
                0x000000000000129e       0x34 /home/eric_gao/repo/repoe/amebagreen2_gcc_project/build/project_km4ns/asdk/make_rom/wifi_driver/lib_rom_wifi_driver_km4ns.a(rom_rtw_80211w.o)
 .ARM.attributes
                0x00000000000012d2       0x34 /home/eric_gao/repo/repoe/amebagreen2_gcc_project/build/project_km4ns/asdk/make_rom/wifi_driver/lib_rom_wifi_driver_km4ns.a(rom_rtw_rate.o)
 .ARM.attributes
                0x0000000000001306       0x34 /home/eric_gao/repo/repoe/amebagreen2_gcc_project/build/project_km4ns/asdk/make_rom/wifi_driver/lib_rom_wifi_driver_km4ns.a(rom_rtw_chbw.o)
 .ARM.attributes
                0x000000000000133a       0x34 /home/eric_gao/repo/repoe/amebagreen2_gcc_project/build/project_km4ns/asdk/make_rom/wifi_driver/lib_rom_wifi_driver_km4ns.a(rom_rtw_11d.o)
 .ARM.attributes
                0x000000000000136e       0x34 /home/eric_gao/repo/repoe/amebagreen2_gcc_project/build/project_km4ns/asdk/make_rom/wifi_driver/lib_rom_wifi_driver_km4ns.a(rom_rtw_ht.o)
 .ARM.attributes
                0x00000000000013a2       0x34 /home/eric_gao/repo/repoe/amebagreen2_gcc_project/build/project_km4ns/asdk/make_rom/wifi_driver/lib_rom_wifi_driver_km4ns.a(rom_rtw_network.o)
 .ARM.attributes
                0x00000000000013d6       0x34 /home/eric_gao/repo/repoe/amebagreen2_gcc_project/build/project_km4ns/asdk/make_rom/wifi_driver/lib_rom_wifi_driver_km4ns.a(rom_rtw_pmksa_cache_part2.o)
 .ARM.attributes
                0x000000000000140a       0x34 /home/eric_gao/repo/repoe/amebagreen2_gcc_project/build/project_km4ns/asdk/make_rom/wifi_driver/lib_rom_wifi_driver_km4ns.a(rom_rtw_11d_part2.o)
 .ARM.attributes
                0x000000000000143e       0x34 /home/eric_gao/repo/repoe/amebagreen2_gcc_project/build/project_km4ns/asdk/make_rom/wifi_driver/lib_rom_wifi_driver_km4ns.a(rom_rtw_he_part2.o)
 .ARM.attributes
                0x0000000000001472       0x34 /home/eric_gao/repo/repoe/amebagreen2_gcc_project/build/project_km4ns/asdk/make_rom/wifi_driver/lib_rom_wifi_driver_km4ns.a(rom_rtw_shortcut.o)
 .ARM.attributes
                0x00000000000014a6       0x34 /home/eric_gao/repo/repoe/amebagreen2_gcc_project/build/project_km4ns/asdk/make_rom/wifi_driver/lib_rom_wifi_driver_km4ns.a(rom_rtw_setkey.o)
 .ARM.attributes
                0x00000000000014da       0x34 /home/eric_gao/repo/repoe/amebagreen2_gcc_project/build/project_km4ns/asdk/make_rom/wifi_driver/lib_rom_wifi_driver_km4ns.a(rom_rtw_beacon_part2.o)
 .ARM.attributes
                0x000000000000150e       0x34 /home/eric_gao/repo/repoe/amebagreen2_gcc_project/build/project_km4ns/asdk/make_rom/wifi_driver/lib_rom_wifi_driver_km4ns.a(rom_rtw_sitesurvey.o)
 .ARM.attributes
                0x0000000000001542       0x34 /home/eric_gao/repo/repoe/amebagreen2_gcc_project/build/project_km4ns/asdk/make_rom/wifi_driver/lib_rom_wifi_driver_km4ns.a(rom_rtw_sitesurvey_report.o)
 .ARM.attributes
                0x0000000000001576       0x34 /home/eric_gao/repo/repoe/amebagreen2_gcc_project/build/project_km4ns/asdk/make_rom/wifi_driver/lib_rom_wifi_driver_km4ns.a(rom_rtw_ap_xmit.o)
 .ARM.attributes
                0x00000000000015aa       0x34 /home/eric_gao/repo/repoe/amebagreen2_gcc_project/build/project_km4ns/asdk/make_rom/wifi_driver/lib_rom_wifi_driver_km4ns.a(rom_rtw_addba.o)
 .ARM.attributes
                0x00000000000015de       0x34 /home/eric_gao/repo/repoe/amebagreen2_gcc_project/build/project_km4ns/asdk/make_rom/wifi_driver/lib_rom_wifi_driver_km4ns.a(rom_rtw_80211w_part2.o)
 .ARM.attributes
                0x0000000000001612       0x34 /home/eric_gao/repo/repoe/amebagreen2_gcc_project/build/project_km4ns/asdk/make_rom/wifi_driver/lib_rom_wifi_driver_km4ns.a(rom_rtw_auth_part2.o)
 .ARM.attributes
                0x0000000000001646       0x34 /home/eric_gao/repo/repoe/amebagreen2_gcc_project/build/project_km4ns/asdk/make_rom/wifi_driver/lib_rom_wifi_driver_km4ns.a(rom_rtw_action_part2.o)
 .ARM.attributes
                0x000000000000167a       0x34 /home/eric_gao/repo/repoe/amebagreen2_gcc_project/build/project_km4ns/asdk/make_rom/wifi_driver/lib_rom_wifi_driver_km4ns.a(rom_rtw_join.o)
 .ARM.attributes
                0x00000000000016ae       0x34 /home/eric_gao/repo/repoe/amebagreen2_gcc_project/build/project_km4ns/asdk/make_rom/wifi_driver/lib_rom_wifi_driver_km4ns.a(rom_rtw_join_result.o)
 .ARM.attributes
                0x00000000000016e2       0x34 /home/eric_gao/repo/repoe/amebagreen2_gcc_project/build/project_km4ns/asdk/make_rom/wifi_driver/lib_rom_wifi_driver_km4ns.a(rom_rtw_assoc_part2.o)
 .ARM.attributes
                0x0000000000001716       0x34 /home/eric_gao/repo/repoe/amebagreen2_gcc_project/build/project_km4ns/asdk/make_rom/wifi_driver/lib_rom_wifi_driver_km4ns.a(rom_rtw_security_part2.o)
 .ARM.attributes
                0x000000000000174a       0x34 /home/eric_gao/repo/repoe/amebagreen2_gcc_project/build/project_km4ns/asdk/make_rom/wifi_driver/lib_rom_wifi_driver_km4ns.a(rom_rtw_vht_part2.o)
 .ARM.attributes
                0x000000000000177e       0x34 /home/eric_gao/repo/repoe/amebagreen2_gcc_project/build/project_km4ns/asdk/make_rom/wifi_driver/lib_rom_wifi_driver_km4ns.a(rom_rtw_xmit.o)
 .ARM.attributes
                0x00000000000017b2       0x34 /home/eric_gao/repo/repoe/amebagreen2_gcc_project/build/project_km4ns/asdk/make_rom/wifi_driver/lib_rom_wifi_driver_km4ns.a(rom_rtw_recv_part2.o)
 .ARM.attributes
                0x00000000000017e6       0x34 /home/eric_gao/repo/repoe/amebagreen2_gcc_project/build/project_km4ns/asdk/make_rom/wifi_driver/lib_rom_wifi_driver_km4ns.a(rom_rtw_recv_reorder.o)
 .ARM.attributes
                0x000000000000181a       0x34 /home/eric_gao/repo/repoe/amebagreen2_gcc_project/build/project_km4ns/asdk/make_rom/wifi_driver/lib_rom_wifi_driver_km4ns.a(rom_rtw_mgnt.o)
 .ARM.attributes
                0x000000000000184e       0x34 /home/eric_gao/repo/repoe/amebagreen2_gcc_project/build/project_km4ns/asdk/make_rom/wifi_driver/lib_rom_wifi_driver_km4ns.a(rom_rtw_recv_defrag.o)
 .ARM.attributes
                0x0000000000001882       0x34 /home/eric_gao/repo/repoe/amebagreen2_gcc_project/build/project_km4ns/asdk/make_rom/wifi_driver/lib_rom_wifi_driver_km4ns.a(rom_rtw_state.o)
 .ARM.attributes
                0x00000000000018b6       0x34 /home/eric_gao/repo/repoe/amebagreen2_gcc_project/build/project_km4ns/asdk/make_rom/wifi_driver/lib_rom_wifi_driver_km4ns.a(rom_rtw_sta_mgt.o)
 .ARM.attributes
                0x00000000000018ea       0x34 /home/eric_gao/repo/repoe/amebagreen2_gcc_project/build/project_km4ns/asdk/make_rom/wifi_driver/lib_rom_wifi_driver_km4ns.a(rom_rtw_ap.o)
 .ARM.attributes
                0x000000000000191e       0x34 /home/eric_gao/repo/repoe/amebagreen2_gcc_project/build/project_km4ns/asdk/make_rom/wifi_driver/lib_rom_wifi_driver_km4ns.a(rom_rtw_skbuff.o)
 .ARM.attributes
                0x0000000000001952       0x34 /home/eric_gao/repo/repoe/amebagreen2_gcc_project/build/project_km4ns/asdk/make_rom/wifi_driver/lib_rom_wifi_driver_km4ns.a(rom_wifi_hal_ax.o)
 .ARM.attributes
                0x0000000000001986       0x34 /home/eric_gao/repo/repoe/amebagreen2_gcc_project/build/project_km4ns/asdk/make_rom/wifi_driver/lib_rom_wifi_driver_km4ns.a(rom_wifi_hal_bcn.o)
 .ARM.attributes
                0x00000000000019ba       0x34 /home/eric_gao/repo/repoe/amebagreen2_gcc_project/build/project_km4ns/asdk/make_rom/wifi_driver/lib_rom_wifi_driver_km4ns.a(rom_wifi_hal_debug.o)
 .ARM.attributes
                0x00000000000019ee       0x34 /home/eric_gao/repo/repoe/amebagreen2_gcc_project/build/project_km4ns/asdk/make_rom/wifi_driver/lib_rom_wifi_driver_km4ns.a(rom_wifi_hal_init.o)
 .ARM.attributes
                0x0000000000001a22       0x34 /home/eric_gao/repo/repoe/amebagreen2_gcc_project/build/project_km4ns/asdk/make_rom/wifi_driver/lib_rom_wifi_driver_km4ns.a(rom_wifi_hal_media_access.o)
 .ARM.attributes
                0x0000000000001a56       0x34 /home/eric_gao/repo/repoe/amebagreen2_gcc_project/build/project_km4ns/asdk/make_rom/wifi_driver/lib_rom_wifi_driver_km4ns.a(rom_wifi_hal_misc.o)
 .ARM.attributes
                0x0000000000001a8a       0x34 /home/eric_gao/repo/repoe/amebagreen2_gcc_project/build/project_km4ns/asdk/make_rom/wifi_driver/lib_rom_wifi_driver_km4ns.a(rom_wifi_hal_rate.o)
 .ARM.attributes
                0x0000000000001abe       0x34 /home/eric_gao/repo/repoe/amebagreen2_gcc_project/build/project_km4ns/asdk/make_rom/wifi_driver/lib_rom_wifi_driver_km4ns.a(rom_wifi_hal_secure.o)
 .ARM.attributes
                0x0000000000001af2       0x34 /home/eric_gao/repo/repoe/amebagreen2_gcc_project/build/project_km4ns/asdk/make_rom/wifi_driver/lib_rom_wifi_driver_km4ns.a(rom_wifi_hal_tsf.o)
 .ARM.attributes
                0x0000000000001b26       0x34 /home/eric_gao/repo/repoe/amebagreen2_gcc_project/build/project_km4ns/asdk/make_rom/wifi_driver/lib_rom_wifi_driver_km4ns.a(rom_wifi_hal_txdesc.o)
 .ARM.attributes
                0x0000000000001b5a       0x34 /home/eric_gao/repo/repoe/amebagreen2_gcc_project/build/project_km4ns/asdk/make_rom/wifi_driver/lib_rom_wifi_driver_km4ns.a(rom_wifi_hal_rxdesc.o)
 .ARM.attributes
                0x0000000000001b8e       0x34 /home/eric_gao/repo/repoe/amebagreen2_gcc_project/build/project_km4ns/asdk/make_rom/wifi_driver/lib_rom_wifi_driver_km4ns.a(rom_wifi_hal_io.o)
 .ARM.attributes
                0x0000000000001bc2       0x34 /home/eric_gao/repo/repoe/amebagreen2_gcc_project/build/project_km4ns/asdk/make_rom/wifi_driver/lib_rom_wifi_driver_km4ns.a(rom_hal_debug.o)
 .ARM.attributes
                0x0000000000001bf6       0x34 /home/eric_gao/repo/repoe/amebagreen2_gcc_project/build/project_km4ns/asdk/make_rom/wifi_driver/lib_rom_wifi_driver_km4ns.a(rom_hal_xmit.o)
 .ARM.attributes
                0x0000000000001c2a       0x34 /home/eric_gao/repo/repoe/amebagreen2_gcc_project/build/project_km4ns/asdk/make_rom/wifi_driver/lib_rom_wifi_driver_km4ns.a(rom_hal_xmit_g1.o)
 .ARM.attributes
                0x0000000000001c5e       0x34 /home/eric_gao/repo/repoe/amebagreen2_gcc_project/build/project_km4ns/asdk/make_rom/wifi_driver/lib_rom_wifi_driver_km4ns.a(rom_hal_structs.o)
 .ARM.attributes
                0x0000000000001c92       0x34 /home/eric_gao/repo/repoe/amebagreen2_gcc_project/build/project_km4ns/asdk/make_rom/wifi_driver/lib_rom_wifi_driver_km4ns.a(rom_hal_recv.o)
 .ARM.attributes
                0x0000000000001cc6       0x34 /home/eric_gao/repo/repoe/amebagreen2_gcc_project/build/project_km4ns/asdk/make_rom/wifi_driver/lib_rom_wifi_driver_km4ns.a(rom_hal_h2c.o)
 .ARM.attributes
                0x0000000000001cfa       0x34 /home/eric_gao/repo/repoe/amebagreen2_gcc_project/build/project_km4ns/asdk/make_rom/wifi_driver/lib_rom_wifi_driver_km4ns.a(rom_hal_h2c_g1.o)
 .ARM.attributes
                0x0000000000001d2e       0x34 /home/eric_gao/repo/repoe/amebagreen2_gcc_project/build/project_km4ns/asdk/make_rom/wifi_driver/lib_rom_wifi_driver_km4ns.a(rom_rtw_queue.o)
 .ARM.attributes
                0x0000000000001d62       0x34 /home/eric_gao/repo/repoe/amebagreen2_gcc_project/build/project_km4ns/asdk/make_rom/wifi_driver/lib_rom_wifi_driver_km4ns.a(rom_hal_rom_to_flash.o)

.debug_frame    0x0000000000000000     0xbf98
 .debug_frame   0x0000000000000000       0x50 /home/eric_gao/repo/repoe/amebagreen2_gcc_project/build/project_km4ns/asdk/make_rom/fwlib/lib_rom_fwlib_km4ns.a(ameba_boot_rom.o)
 .debug_frame   0x0000000000000050      0x6a0 /home/eric_gao/repo/repoe/amebagreen2_gcc_project/build/project_km4ns/asdk/make_rom/fwlib/lib_rom_fwlib_km4ns.a(ameba_vector_rom.o)
 .debug_frame   0x00000000000006f0      0x454 /home/eric_gao/repo/repoe/amebagreen2_gcc_project/build/project_km4ns/asdk/make_rom/fwlib_com/lib_rom_fwlib_com_km4ns.a(ameba_crypto_aes.o)
 .debug_frame   0x0000000000000b44      0x2b4 /home/eric_gao/repo/repoe/amebagreen2_gcc_project/build/project_km4ns/asdk/make_rom/fwlib_com/lib_rom_fwlib_com_km4ns.a(ameba_crypto_sha.o)
 .debug_frame   0x0000000000000df8       0x6c /home/eric_gao/repo/repoe/amebagreen2_gcc_project/build/project_km4ns/asdk/make_rom/fwlib_com/lib_rom_fwlib_com_km4ns.a(ameba_crypto.o)
 .debug_frame   0x0000000000000e64      0x2f4 /home/eric_gao/repo/repoe/amebagreen2_gcc_project/build/project_km4ns/asdk/make_rom/fwlib_com/lib_rom_fwlib_com_km4ns.a(ameba_pke_ecc.o)
 .debug_frame   0x0000000000001158       0x58 /home/eric_gao/repo/repoe/amebagreen2_gcc_project/build/project_km4ns/asdk/make_rom/fwlib_com/lib_rom_fwlib_com_km4ns.a(ameba_pke_rsa.o)
 .debug_frame   0x00000000000011b0      0x118 /home/eric_gao/repo/repoe/amebagreen2_gcc_project/build/project_km4ns/asdk/make_rom/fwlib_com/lib_rom_fwlib_com_km4ns.a(ameba_pke_common.o)
 .debug_frame   0x00000000000012c8       0x28 /home/eric_gao/repo/repoe/amebagreen2_gcc_project/build/project_km4ns/asdk/make_rom/fwlib_com/lib_rom_fwlib_com_km4ns.a(ameba_assert_rom.o)
 .debug_frame   0x00000000000012f0      0x368 /home/eric_gao/repo/repoe/amebagreen2_gcc_project/build/project_km4ns/asdk/make_rom/fwlib_com/lib_rom_fwlib_com_km4ns.a(ameba_flash_rom.o)
 .debug_frame   0x0000000000001658      0x258 /home/eric_gao/repo/repoe/amebagreen2_gcc_project/build/project_km4ns/asdk/make_rom/fwlib_com/lib_rom_fwlib_com_km4ns.a(ameba_otp_rom.o)
 .debug_frame   0x00000000000018b0      0x15c /home/eric_gao/repo/repoe/amebagreen2_gcc_project/build/project_km4ns/asdk/make_rom/fwlib_com/lib_rom_fwlib_com_km4ns.a(ameba_shell_rom.o)
 .debug_frame   0x0000000000001a0c       0xe8 /home/eric_gao/repo/repoe/amebagreen2_gcc_project/build/project_km4ns/asdk/make_rom/fwlib_com/lib_rom_fwlib_com_km4ns.a(ameba_tim_rom.o)
 .debug_frame   0x0000000000001af4       0x70 /home/eric_gao/repo/repoe/amebagreen2_gcc_project/build/project_km4ns/asdk/make_rom/fwlib_com/lib_rom_fwlib_com_km4ns.a(ameba_backup_reg.o)
 .debug_frame   0x0000000000001b64      0x1e8 /home/eric_gao/repo/repoe/amebagreen2_gcc_project/build/project_km4ns/asdk/make_rom/fwlib_com/lib_rom_fwlib_com_km4ns.a(ameba_gpio_rom.o)
 .debug_frame   0x0000000000001d4c      0x18c /home/eric_gao/repo/repoe/amebagreen2_gcc_project/build/project_km4ns/asdk/make_rom/fwlib_com/lib_rom_fwlib_com_km4ns.a(ameba_pinmux_rom.o)
 .debug_frame   0x0000000000001ed8       0x38 /home/eric_gao/repo/repoe/amebagreen2_gcc_project/build/project_km4ns/asdk/make_rom/fwlib_com/lib_rom_fwlib_com_km4ns.a(ameba_rcc_rom.o)
 .debug_frame   0x0000000000001f10      0x34c /home/eric_gao/repo/repoe/amebagreen2_gcc_project/build/project_km4ns/asdk/make_rom/fwlib_com/lib_rom_fwlib_com_km4ns.a(ameba_spinand_rom.o)
 .debug_frame   0x000000000000225c      0x11c /home/eric_gao/repo/repoe/amebagreen2_gcc_project/build/project_km4ns/asdk/make_rom/fwlib_com/lib_rom_fwlib_com_km4ns.a(ameba_trng.o)
 .debug_frame   0x0000000000002378       0xb4 /home/eric_gao/repo/repoe/amebagreen2_gcc_project/build/project_km4ns/asdk/make_rom/fwlib_com/lib_rom_fwlib_com_km4ns.a(ameba_chipinfo_rom.o)
 .debug_frame   0x000000000000242c      0x398 /home/eric_gao/repo/repoe/amebagreen2_gcc_project/build/project_km4ns/asdk/make_rom/fwlib_com/lib_rom_fwlib_com_km4ns.a(ameba_loguart_rom.o)
 .debug_frame   0x00000000000027c4      0x1a8 /home/eric_gao/repo/repoe/amebagreen2_gcc_project/build/project_km4ns/asdk/make_rom/fwlib_com/lib_rom_fwlib_com_km4ns.a(ameba_sdio_rom.o)
 .debug_frame   0x000000000000296c      0x2d8 /home/eric_gao/repo/repoe/amebagreen2_gcc_project/build/project_km4ns/asdk/make_rom/fwlib_com/lib_rom_fwlib_com_km4ns.a(ameba_syscfg_rom.o)
 .debug_frame   0x0000000000002c44      0x264 /home/eric_gao/repo/repoe/amebagreen2_gcc_project/build/project_km4ns/asdk/make_rom/fwlib_com/lib_rom_fwlib_com_km4ns.a(ameba_uart_rom.o)
 .debug_frame   0x0000000000002ea8       0x40 /home/eric_gao/repo/repoe/amebagreen2_gcc_project/build/project_km4ns/asdk/make_rom/fwlib_com/lib_rom_fwlib_com_km4ns.a(ameba_clk_rom.o)
 .debug_frame   0x0000000000002ee8       0x64 /home/eric_gao/repo/repoe/amebagreen2_gcc_project/build/project_km4ns/asdk/make_rom/fwlib_com/lib_rom_fwlib_com_km4ns.a(ameba_delay_rom.o)
 .debug_frame   0x0000000000002f4c       0x78 /home/eric_gao/repo/repoe/amebagreen2_gcc_project/build/project_km4ns/asdk/make_rom/fwlib_com/lib_rom_fwlib_com_km4ns.a(ameba_monitor_rom.o)
 .debug_frame   0x0000000000002fc4       0x70 /home/eric_gao/repo/repoe/amebagreen2_gcc_project/build/project_km4ns/asdk/make_rom/fwlib_com/lib_rom_fwlib_com_km4ns.a(ameba_sema_rom.o)
 .debug_frame   0x0000000000003034       0x74 /home/eric_gao/repo/repoe/amebagreen2_gcc_project/build/project_km4ns/asdk/make_rom/fwlib_com/lib_rom_fwlib_com_km4ns.a(ameba_systimer_rom.o)
 .debug_frame   0x00000000000030a8       0xf4 /home/eric_gao/repo/repoe/amebagreen2_gcc_project/build/project_km4ns/asdk/make_rom/fwlib_com/lib_rom_fwlib_com_km4ns.a(ameba_wdg.o)
 .debug_frame   0x000000000000319c       0x40 /home/eric_gao/repo/repoe/amebagreen2_gcc_project/build/project_km4ns/asdk/make_rom/string/lib_rom_string_km4ns.a(char2num.o)
 .debug_frame   0x00000000000031dc       0x2c /home/eric_gao/repo/repoe/amebagreen2_gcc_project/build/project_km4ns/asdk/make_rom/string/lib_rom_string_km4ns.a(memchr.o)
 .debug_frame   0x0000000000003208       0x2c /home/eric_gao/repo/repoe/amebagreen2_gcc_project/build/project_km4ns/asdk/make_rom/string/lib_rom_string_km4ns.a(memcmp.o)
 .debug_frame   0x0000000000003234       0x30 /home/eric_gao/repo/repoe/amebagreen2_gcc_project/build/project_km4ns/asdk/make_rom/string/lib_rom_string_km4ns.a(memcpy.o)
 .debug_frame   0x0000000000003264       0x2c /home/eric_gao/repo/repoe/amebagreen2_gcc_project/build/project_km4ns/asdk/make_rom/string/lib_rom_string_km4ns.a(memmove.o)
 .debug_frame   0x0000000000003290       0x2c /home/eric_gao/repo/repoe/amebagreen2_gcc_project/build/project_km4ns/asdk/make_rom/string/lib_rom_string_km4ns.a(memset.o)
 .debug_frame   0x00000000000032bc       0x80 /home/eric_gao/repo/repoe/amebagreen2_gcc_project/build/project_km4ns/asdk/make_rom/string/lib_rom_string_km4ns.a(sscanf_minimal.o)
 .debug_frame   0x000000000000333c       0x28 /home/eric_gao/repo/repoe/amebagreen2_gcc_project/build/project_km4ns/asdk/make_rom/string/lib_rom_string_km4ns.a(strcmp.o)
 .debug_frame   0x0000000000003364       0x28 /home/eric_gao/repo/repoe/amebagreen2_gcc_project/build/project_km4ns/asdk/make_rom/string/lib_rom_string_km4ns.a(strcpy.o)
 .debug_frame   0x000000000000338c       0x38 /home/eric_gao/repo/repoe/amebagreen2_gcc_project/build/project_km4ns/asdk/make_rom/string/lib_rom_string_km4ns.a(stricmp.o)
 .debug_frame   0x00000000000033c4       0x20 /home/eric_gao/repo/repoe/amebagreen2_gcc_project/build/project_km4ns/asdk/make_rom/string/lib_rom_string_km4ns.a(strlen.o)
 .debug_frame   0x00000000000033e4       0x2c /home/eric_gao/repo/repoe/amebagreen2_gcc_project/build/project_km4ns/asdk/make_rom/string/lib_rom_string_km4ns.a(strncpy.o)
 .debug_frame   0x0000000000003410       0x38 /home/eric_gao/repo/repoe/amebagreen2_gcc_project/build/project_km4ns/asdk/make_rom/string/lib_rom_string_km4ns.a(strtol.o)
 .debug_frame   0x0000000000003448       0x34 /home/eric_gao/repo/repoe/amebagreen2_gcc_project/build/project_km4ns/asdk/make_rom/string/lib_rom_string_km4ns.a(strtoul.o)
 .debug_frame   0x000000000000347c       0x20 /home/eric_gao/repo/repoe/amebagreen2_gcc_project/build/project_km4ns/asdk/make_rom/string/lib_rom_string_km4ns.a(strupr.o)
 .debug_frame   0x000000000000349c      0x144 /home/eric_gao/repo/repoe/amebagreen2_gcc_project/build/project_km4ns/asdk/make_rom/string/lib_rom_string_km4ns.a(strwrap.o)
 .debug_frame   0x00000000000035e0      0x2b8 /home/eric_gao/repo/repoe/amebagreen2_gcc_project/build/project_km4ns/asdk/make_rom/stdlib/lib_rom_stdlib_km4ns.a(diag.o)
 .debug_frame   0x0000000000003898      0x1c0 /home/eric_gao/repo/repoe/amebagreen2_gcc_project/build/project_km4ns/asdk/make_rom/stdlib/lib_rom_stdlib_km4ns.a(log.o)
 .debug_frame   0x0000000000003a58       0x54 /home/eric_gao/repo/repoe/amebagreen2_gcc_project/build/project_km4ns/asdk/make_rom/crashdump/lib_rom_crashdump_km4ns.a(ameba_dump_stack.o)
 .debug_frame   0x0000000000003aac       0xf8 /home/eric_gao/repo/repoe/amebagreen2_gcc_project/build/project_km4ns/asdk/make_rom/crashdump/lib_rom_crashdump_km4ns.a(ameba_v8m_crashdump.o)
 .debug_frame   0x0000000000003ba4      0x91c /home/eric_gao/repo/repoe/amebagreen2_gcc_project/build/project_km4ns/asdk/make_rom/os/lib_rom_os_km4ns.a(tasks.o)
 .debug_frame   0x00000000000044c0       0x70 /home/eric_gao/repo/repoe/amebagreen2_gcc_project/build/project_km4ns/asdk/make_rom/os/lib_rom_os_km4ns.a(list.o)
 .debug_frame   0x0000000000004530       0xf4 /home/eric_gao/repo/repoe/amebagreen2_gcc_project/build/project_km4ns/asdk/make_rom/os/lib_rom_os_km4ns.a(croutine.o)
 .debug_frame   0x0000000000004624      0x5bc /home/eric_gao/repo/repoe/amebagreen2_gcc_project/build/project_km4ns/asdk/make_rom/os/lib_rom_os_km4ns.a(queue.o)
 .debug_frame   0x0000000000004be0      0x3a4 /home/eric_gao/repo/repoe/amebagreen2_gcc_project/build/project_km4ns/asdk/make_rom/os/lib_rom_os_km4ns.a(timers.o)
 .debug_frame   0x0000000000004f84      0x17c /home/eric_gao/repo/repoe/amebagreen2_gcc_project/build/project_km4ns/asdk/make_rom/os/lib_rom_os_km4ns.a(event_groups.o)
 .debug_frame   0x0000000000005100      0x318 /home/eric_gao/repo/repoe/amebagreen2_gcc_project/build/project_km4ns/asdk/make_rom/os/lib_rom_os_km4ns.a(stream_buffer.o)
 .debug_frame   0x0000000000005418      0x1d8 /home/eric_gao/repo/repoe/amebagreen2_gcc_project/build/project_km4ns/asdk/make_rom/os/lib_rom_os_km4ns.a(port.o)
 .debug_frame   0x00000000000055f0       0xc0 /home/eric_gao/repo/repoe/amebagreen2_gcc_project/build/project_km4ns/asdk/make_rom/os/lib_rom_os_km4ns.a(portasm.o)
 .debug_frame   0x00000000000056b0      0x134 /home/eric_gao/repo/repoe/amebagreen2_gcc_project/build/project_km4ns/asdk/make_rom/os/lib_rom_os_km4ns.a(heap_5.o)
 .debug_frame   0x00000000000057e4      0x100 /home/eric_gao/repo/repoe/amebagreen2_gcc_project/build/project_km4ns/asdk/make_rom/os/lib_rom_os_km4ns.a(os_cfg.o)
 .debug_frame   0x00000000000058e4       0xfc /home/eric_gao/repo/repoe/amebagreen2_gcc_project/build/project_km4ns/asdk/make_rom/wifi_driver/lib_rom_wifi_driver_km4ns.a(rom_sha1.o)
 .debug_frame   0x00000000000059e0       0xe4 /home/eric_gao/repo/repoe/amebagreen2_gcc_project/build/project_km4ns/asdk/make_rom/wifi_driver/lib_rom_wifi_driver_km4ns.a(rom_md5.o)
 .debug_frame   0x0000000000005ac4      0x16c /home/eric_gao/repo/repoe/amebagreen2_gcc_project/build/project_km4ns/asdk/make_rom/wifi_driver/lib_rom_wifi_driver_km4ns.a(rom_aes.o)
 .debug_frame   0x0000000000005c30      0x12c /home/eric_gao/repo/repoe/amebagreen2_gcc_project/build/project_km4ns/asdk/make_rom/wifi_driver/lib_rom_wifi_driver_km4ns.a(rom_rtw_sha256.o)
 .debug_frame   0x0000000000005d5c       0x34 /home/eric_gao/repo/repoe/amebagreen2_gcc_project/build/project_km4ns/asdk/make_rom/wifi_driver/lib_rom_wifi_driver_km4ns.a(rom_rtw_dh_groups.o)
 .debug_frame   0x0000000000005d90       0x8c /home/eric_gao/repo/repoe/amebagreen2_gcc_project/build/project_km4ns/asdk/make_rom/wifi_driver/lib_rom_wifi_driver_km4ns.a(rom_arc4.o)
 .debug_frame   0x0000000000005e1c       0x54 /home/eric_gao/repo/repoe/amebagreen2_gcc_project/build/project_km4ns/asdk/make_rom/wifi_driver/lib_rom_wifi_driver_km4ns.a(rom_rc4.o)
 .debug_frame   0x0000000000005e70      0x4fc /home/eric_gao/repo/repoe/amebagreen2_gcc_project/build/project_km4ns/asdk/make_rom/wifi_driver/lib_rom_wifi_driver_km4ns.a(rom_rtw_mbedtls_bignum.o)
 .debug_frame   0x000000000000636c      0x558 /home/eric_gao/repo/repoe/amebagreen2_gcc_project/build/project_km4ns/asdk/make_rom/wifi_driver/lib_rom_wifi_driver_km4ns.a(rom_rtw_mbedtls_ecp.o)
 .debug_frame   0x00000000000068c4       0xfc /home/eric_gao/repo/repoe/amebagreen2_gcc_project/build/project_km4ns/asdk/make_rom/wifi_driver/lib_rom_wifi_driver_km4ns.a(rom_rtw_mbedtls_ecp_curves.o)
 .debug_frame   0x00000000000069c0       0x20 /home/eric_gao/repo/repoe/amebagreen2_gcc_project/build/project_km4ns/asdk/make_rom/wifi_driver/lib_rom_wifi_driver_km4ns.a(rom_rtw_mbedtls_platform.o)
 .debug_frame   0x00000000000069e0      0x2d4 /home/eric_gao/repo/repoe/amebagreen2_gcc_project/build/project_km4ns/asdk/make_rom/wifi_driver/lib_rom_wifi_driver_km4ns.a(rom_rtw_security.o)
 .debug_frame   0x0000000000006cb4      0x3b0 /home/eric_gao/repo/repoe/amebagreen2_gcc_project/build/project_km4ns/asdk/make_rom/wifi_driver/lib_rom_wifi_driver_km4ns.a(rom_wpa_lite_psk.o)
 .debug_frame   0x0000000000007064      0x32c /home/eric_gao/repo/repoe/amebagreen2_gcc_project/build/project_km4ns/asdk/make_rom/wifi_driver/lib_rom_wifi_driver_km4ns.a(rom_wpa_lite_part2.o)
 .debug_frame   0x0000000000007390      0x388 /home/eric_gao/repo/repoe/amebagreen2_gcc_project/build/project_km4ns/asdk/make_rom/wifi_driver/lib_rom_wifi_driver_km4ns.a(rom_wpa_lite_sae.o)
 .debug_frame   0x0000000000007718      0x408 /home/eric_gao/repo/repoe/amebagreen2_gcc_project/build/project_km4ns/asdk/make_rom/wifi_driver/lib_rom_wifi_driver_km4ns.a(rom_wpa_lite_sae_crypto.o)
 .debug_frame   0x0000000000007b20      0x2f8 /home/eric_gao/repo/repoe/amebagreen2_gcc_project/build/project_km4ns/asdk/make_rom/wifi_driver/lib_rom_wifi_driver_km4ns.a(rom_rtw_ieee80211.o)
 .debug_frame   0x0000000000007e18      0x33c /home/eric_gao/repo/repoe/amebagreen2_gcc_project/build/project_km4ns/asdk/make_rom/wifi_driver/lib_rom_wifi_driver_km4ns.a(rom_rtw_ieee80211_part2.o)
 .debug_frame   0x0000000000008154       0x70 /home/eric_gao/repo/repoe/amebagreen2_gcc_project/build/project_km4ns/asdk/make_rom/wifi_driver/lib_rom_wifi_driver_km4ns.a(rom_rtw_probe.o)
 .debug_frame   0x00000000000081c4       0x20 /home/eric_gao/repo/repoe/amebagreen2_gcc_project/build/project_km4ns/asdk/make_rom/wifi_driver/lib_rom_wifi_driver_km4ns.a(rom_rtw_auth.o)
 .debug_frame   0x00000000000081e4       0x3c /home/eric_gao/repo/repoe/amebagreen2_gcc_project/build/project_km4ns/asdk/make_rom/wifi_driver/lib_rom_wifi_driver_km4ns.a(rom_rtw_action.o)
 .debug_frame   0x0000000000008220       0xbc /home/eric_gao/repo/repoe/amebagreen2_gcc_project/build/project_km4ns/asdk/make_rom/wifi_driver/lib_rom_wifi_driver_km4ns.a(rom_rtw_psk.o)
 .debug_frame   0x00000000000082dc       0x74 /home/eric_gao/repo/repoe/amebagreen2_gcc_project/build/project_km4ns/asdk/make_rom/wifi_driver/lib_rom_wifi_driver_km4ns.a(rom_rtw_pmksa_cache.o)
 .debug_frame   0x0000000000008350       0x78 /home/eric_gao/repo/repoe/amebagreen2_gcc_project/build/project_km4ns/asdk/make_rom/wifi_driver/lib_rom_wifi_driver_km4ns.a(rom_rtw_rf.o)
 .debug_frame   0x00000000000083c8       0x70 /home/eric_gao/repo/repoe/amebagreen2_gcc_project/build/project_km4ns/asdk/make_rom/wifi_driver/lib_rom_wifi_driver_km4ns.a(rom_rtw_recv.o)
 .debug_frame   0x0000000000008438      0x204 /home/eric_gao/repo/repoe/amebagreen2_gcc_project/build/project_km4ns/asdk/make_rom/wifi_driver/lib_rom_wifi_driver_km4ns.a(rom_rtw_beacon.o)
 .debug_frame   0x000000000000863c      0x118 /home/eric_gao/repo/repoe/amebagreen2_gcc_project/build/project_km4ns/asdk/make_rom/wifi_driver/lib_rom_wifi_driver_km4ns.a(rom_rtw_assoc.o)
 .debug_frame   0x0000000000008754       0x8c /home/eric_gao/repo/repoe/amebagreen2_gcc_project/build/project_km4ns/asdk/make_rom/wifi_driver/lib_rom_wifi_driver_km4ns.a(rom_rtw_vht.o)
 .debug_frame   0x00000000000087e0       0x90 /home/eric_gao/repo/repoe/amebagreen2_gcc_project/build/project_km4ns/asdk/make_rom/wifi_driver/lib_rom_wifi_driver_km4ns.a(rom_rtw_he.o)
 .debug_frame   0x0000000000008870       0x78 /home/eric_gao/repo/repoe/amebagreen2_gcc_project/build/project_km4ns/asdk/make_rom/wifi_driver/lib_rom_wifi_driver_km4ns.a(rom_rtw_80211w.o)
 .debug_frame   0x00000000000088e8       0xd4 /home/eric_gao/repo/repoe/amebagreen2_gcc_project/build/project_km4ns/asdk/make_rom/wifi_driver/lib_rom_wifi_driver_km4ns.a(rom_rtw_rate.o)
 .debug_frame   0x00000000000089bc       0x40 /home/eric_gao/repo/repoe/amebagreen2_gcc_project/build/project_km4ns/asdk/make_rom/wifi_driver/lib_rom_wifi_driver_km4ns.a(rom_rtw_chbw.o)
 .debug_frame   0x00000000000089fc       0xf8 /home/eric_gao/repo/repoe/amebagreen2_gcc_project/build/project_km4ns/asdk/make_rom/wifi_driver/lib_rom_wifi_driver_km4ns.a(rom_rtw_ht.o)
 .debug_frame   0x0000000000008af4       0x50 /home/eric_gao/repo/repoe/amebagreen2_gcc_project/build/project_km4ns/asdk/make_rom/wifi_driver/lib_rom_wifi_driver_km4ns.a(rom_rtw_network.o)
 .debug_frame   0x0000000000008b44      0x130 /home/eric_gao/repo/repoe/amebagreen2_gcc_project/build/project_km4ns/asdk/make_rom/wifi_driver/lib_rom_wifi_driver_km4ns.a(rom_rtw_pmksa_cache_part2.o)
 .debug_frame   0x0000000000008c74       0xc4 /home/eric_gao/repo/repoe/amebagreen2_gcc_project/build/project_km4ns/asdk/make_rom/wifi_driver/lib_rom_wifi_driver_km4ns.a(rom_rtw_11d_part2.o)
 .debug_frame   0x0000000000008d38      0x1cc /home/eric_gao/repo/repoe/amebagreen2_gcc_project/build/project_km4ns/asdk/make_rom/wifi_driver/lib_rom_wifi_driver_km4ns.a(rom_rtw_he_part2.o)
 .debug_frame   0x0000000000008f04      0x140 /home/eric_gao/repo/repoe/amebagreen2_gcc_project/build/project_km4ns/asdk/make_rom/wifi_driver/lib_rom_wifi_driver_km4ns.a(rom_rtw_shortcut.o)
 .debug_frame   0x0000000000009044       0xec /home/eric_gao/repo/repoe/amebagreen2_gcc_project/build/project_km4ns/asdk/make_rom/wifi_driver/lib_rom_wifi_driver_km4ns.a(rom_rtw_setkey.o)
 .debug_frame   0x0000000000009130      0x174 /home/eric_gao/repo/repoe/amebagreen2_gcc_project/build/project_km4ns/asdk/make_rom/wifi_driver/lib_rom_wifi_driver_km4ns.a(rom_rtw_beacon_part2.o)
 .debug_frame   0x00000000000092a4       0x64 /home/eric_gao/repo/repoe/amebagreen2_gcc_project/build/project_km4ns/asdk/make_rom/wifi_driver/lib_rom_wifi_driver_km4ns.a(rom_rtw_sitesurvey.o)
 .debug_frame   0x0000000000009308      0x110 /home/eric_gao/repo/repoe/amebagreen2_gcc_project/build/project_km4ns/asdk/make_rom/wifi_driver/lib_rom_wifi_driver_km4ns.a(rom_rtw_sitesurvey_report.o)
 .debug_frame   0x0000000000009418      0x138 /home/eric_gao/repo/repoe/amebagreen2_gcc_project/build/project_km4ns/asdk/make_rom/wifi_driver/lib_rom_wifi_driver_km4ns.a(rom_rtw_ap_xmit.o)
 .debug_frame   0x0000000000009550      0x130 /home/eric_gao/repo/repoe/amebagreen2_gcc_project/build/project_km4ns/asdk/make_rom/wifi_driver/lib_rom_wifi_driver_km4ns.a(rom_rtw_addba.o)
 .debug_frame   0x0000000000009680       0xbc /home/eric_gao/repo/repoe/amebagreen2_gcc_project/build/project_km4ns/asdk/make_rom/wifi_driver/lib_rom_wifi_driver_km4ns.a(rom_rtw_80211w_part2.o)
 .debug_frame   0x000000000000973c      0x100 /home/eric_gao/repo/repoe/amebagreen2_gcc_project/build/project_km4ns/asdk/make_rom/wifi_driver/lib_rom_wifi_driver_km4ns.a(rom_rtw_auth_part2.o)
 .debug_frame   0x000000000000983c       0x54 /home/eric_gao/repo/repoe/amebagreen2_gcc_project/build/project_km4ns/asdk/make_rom/wifi_driver/lib_rom_wifi_driver_km4ns.a(rom_rtw_action_part2.o)
 .debug_frame   0x0000000000009890      0x1e0 /home/eric_gao/repo/repoe/amebagreen2_gcc_project/build/project_km4ns/asdk/make_rom/wifi_driver/lib_rom_wifi_driver_km4ns.a(rom_rtw_join.o)
 .debug_frame   0x0000000000009a70       0x68 /home/eric_gao/repo/repoe/amebagreen2_gcc_project/build/project_km4ns/asdk/make_rom/wifi_driver/lib_rom_wifi_driver_km4ns.a(rom_rtw_join_result.o)
 .debug_frame   0x0000000000009ad8      0x24c /home/eric_gao/repo/repoe/amebagreen2_gcc_project/build/project_km4ns/asdk/make_rom/wifi_driver/lib_rom_wifi_driver_km4ns.a(rom_rtw_assoc_part2.o)
 .debug_frame   0x0000000000009d24      0x178 /home/eric_gao/repo/repoe/amebagreen2_gcc_project/build/project_km4ns/asdk/make_rom/wifi_driver/lib_rom_wifi_driver_km4ns.a(rom_rtw_security_part2.o)
 .debug_frame   0x0000000000009e9c       0xc4 /home/eric_gao/repo/repoe/amebagreen2_gcc_project/build/project_km4ns/asdk/make_rom/wifi_driver/lib_rom_wifi_driver_km4ns.a(rom_rtw_vht_part2.o)
 .debug_frame   0x0000000000009f60      0x348 /home/eric_gao/repo/repoe/amebagreen2_gcc_project/build/project_km4ns/asdk/make_rom/wifi_driver/lib_rom_wifi_driver_km4ns.a(rom_rtw_xmit.o)
 .debug_frame   0x000000000000a2a8      0x344 /home/eric_gao/repo/repoe/amebagreen2_gcc_project/build/project_km4ns/asdk/make_rom/wifi_driver/lib_rom_wifi_driver_km4ns.a(rom_rtw_recv_part2.o)
 .debug_frame   0x000000000000a5ec       0xc0 /home/eric_gao/repo/repoe/amebagreen2_gcc_project/build/project_km4ns/asdk/make_rom/wifi_driver/lib_rom_wifi_driver_km4ns.a(rom_rtw_recv_reorder.o)
 .debug_frame   0x000000000000a6ac       0x40 /home/eric_gao/repo/repoe/amebagreen2_gcc_project/build/project_km4ns/asdk/make_rom/wifi_driver/lib_rom_wifi_driver_km4ns.a(rom_rtw_mgnt.o)
 .debug_frame   0x000000000000a6ec      0x100 /home/eric_gao/repo/repoe/amebagreen2_gcc_project/build/project_km4ns/asdk/make_rom/wifi_driver/lib_rom_wifi_driver_km4ns.a(rom_rtw_recv_defrag.o)
 .debug_frame   0x000000000000a7ec      0x1d8 /home/eric_gao/repo/repoe/amebagreen2_gcc_project/build/project_km4ns/asdk/make_rom/wifi_driver/lib_rom_wifi_driver_km4ns.a(rom_rtw_state.o)
 .debug_frame   0x000000000000a9c4       0xc8 /home/eric_gao/repo/repoe/amebagreen2_gcc_project/build/project_km4ns/asdk/make_rom/wifi_driver/lib_rom_wifi_driver_km4ns.a(rom_rtw_sta_mgt.o)
 .debug_frame   0x000000000000aa8c      0x180 /home/eric_gao/repo/repoe/amebagreen2_gcc_project/build/project_km4ns/asdk/make_rom/wifi_driver/lib_rom_wifi_driver_km4ns.a(rom_rtw_ap.o)
 .debug_frame   0x000000000000ac0c       0xe4 /home/eric_gao/repo/repoe/amebagreen2_gcc_project/build/project_km4ns/asdk/make_rom/wifi_driver/lib_rom_wifi_driver_km4ns.a(rom_rtw_skbuff.o)
 .debug_frame   0x000000000000acf0       0xb8 /home/eric_gao/repo/repoe/amebagreen2_gcc_project/build/project_km4ns/asdk/make_rom/wifi_driver/lib_rom_wifi_driver_km4ns.a(rom_wifi_hal_ax.o)
 .debug_frame   0x000000000000ada8       0x74 /home/eric_gao/repo/repoe/amebagreen2_gcc_project/build/project_km4ns/asdk/make_rom/wifi_driver/lib_rom_wifi_driver_km4ns.a(rom_wifi_hal_bcn.o)
 .debug_frame   0x000000000000ae1c      0x198 /home/eric_gao/repo/repoe/amebagreen2_gcc_project/build/project_km4ns/asdk/make_rom/wifi_driver/lib_rom_wifi_driver_km4ns.a(rom_wifi_hal_debug.o)
 .debug_frame   0x000000000000afb4      0x1e0 /home/eric_gao/repo/repoe/amebagreen2_gcc_project/build/project_km4ns/asdk/make_rom/wifi_driver/lib_rom_wifi_driver_km4ns.a(rom_wifi_hal_init.o)
 .debug_frame   0x000000000000b194      0x180 /home/eric_gao/repo/repoe/amebagreen2_gcc_project/build/project_km4ns/asdk/make_rom/wifi_driver/lib_rom_wifi_driver_km4ns.a(rom_wifi_hal_media_access.o)
 .debug_frame   0x000000000000b314      0x164 /home/eric_gao/repo/repoe/amebagreen2_gcc_project/build/project_km4ns/asdk/make_rom/wifi_driver/lib_rom_wifi_driver_km4ns.a(rom_wifi_hal_misc.o)
 .debug_frame   0x000000000000b478       0x5c /home/eric_gao/repo/repoe/amebagreen2_gcc_project/build/project_km4ns/asdk/make_rom/wifi_driver/lib_rom_wifi_driver_km4ns.a(rom_wifi_hal_rate.o)
 .debug_frame   0x000000000000b4d4       0xb4 /home/eric_gao/repo/repoe/amebagreen2_gcc_project/build/project_km4ns/asdk/make_rom/wifi_driver/lib_rom_wifi_driver_km4ns.a(rom_wifi_hal_secure.o)
 .debug_frame   0x000000000000b588       0x94 /home/eric_gao/repo/repoe/amebagreen2_gcc_project/build/project_km4ns/asdk/make_rom/wifi_driver/lib_rom_wifi_driver_km4ns.a(rom_wifi_hal_tsf.o)
 .debug_frame   0x000000000000b61c       0x94 /home/eric_gao/repo/repoe/amebagreen2_gcc_project/build/project_km4ns/asdk/make_rom/wifi_driver/lib_rom_wifi_driver_km4ns.a(rom_wifi_hal_txdesc.o)
 .debug_frame   0x000000000000b6b0       0x68 /home/eric_gao/repo/repoe/amebagreen2_gcc_project/build/project_km4ns/asdk/make_rom/wifi_driver/lib_rom_wifi_driver_km4ns.a(rom_wifi_hal_rxdesc.o)
 .debug_frame   0x000000000000b718       0x70 /home/eric_gao/repo/repoe/amebagreen2_gcc_project/build/project_km4ns/asdk/make_rom/wifi_driver/lib_rom_wifi_driver_km4ns.a(rom_wifi_hal_io.o)
 .debug_frame   0x000000000000b788       0xfc /home/eric_gao/repo/repoe/amebagreen2_gcc_project/build/project_km4ns/asdk/make_rom/wifi_driver/lib_rom_wifi_driver_km4ns.a(rom_hal_debug.o)
 .debug_frame   0x000000000000b884      0x21c /home/eric_gao/repo/repoe/amebagreen2_gcc_project/build/project_km4ns/asdk/make_rom/wifi_driver/lib_rom_wifi_driver_km4ns.a(rom_hal_xmit.o)
 .debug_frame   0x000000000000baa0      0x114 /home/eric_gao/repo/repoe/amebagreen2_gcc_project/build/project_km4ns/asdk/make_rom/wifi_driver/lib_rom_wifi_driver_km4ns.a(rom_hal_xmit_g1.o)
 .debug_frame   0x000000000000bbb4      0x12c /home/eric_gao/repo/repoe/amebagreen2_gcc_project/build/project_km4ns/asdk/make_rom/wifi_driver/lib_rom_wifi_driver_km4ns.a(rom_hal_recv.o)
 .debug_frame   0x000000000000bce0      0x194 /home/eric_gao/repo/repoe/amebagreen2_gcc_project/build/project_km4ns/asdk/make_rom/wifi_driver/lib_rom_wifi_driver_km4ns.a(rom_hal_h2c.o)
 .debug_frame   0x000000000000be74       0x94 /home/eric_gao/repo/repoe/amebagreen2_gcc_project/build/project_km4ns/asdk/make_rom/wifi_driver/lib_rom_wifi_driver_km4ns.a(rom_hal_h2c_g1.o)
 .debug_frame   0x000000000000bf08       0x90 /home/eric_gao/repo/repoe/amebagreen2_gcc_project/build/project_km4ns/asdk/make_rom/wifi_driver/lib_rom_wifi_driver_km4ns.a(rom_rtw_queue.o)
