
D:/0code/v03slave/Lite/project/realtek_amebaLite_va0_example/GCC-RELEASE/project_km4/asdk/image/target_rom_ns.axf:     file format elf32-littlearm


Disassembly of section .rom.text:

0001e000 <rtl_crypto_aes_cbc_init-0x1c00>:
	...

0001fc00 <rtl_crypto_aes_cbc_init>:
   1fc00:	4b11      	ldr	r3, [pc, #68]	; (1fc48 <rtl_crypto_aes_cbc_init+0x48>)
   1fc02:	b570      	push	{r4, r5, r6, lr}
   1fc04:	781b      	ldrb	r3, [r3, #0]
   1fc06:	4604      	mov	r4, r0
   1fc08:	460d      	mov	r5, r1
   1fc0a:	2b01      	cmp	r3, #1
   1fc0c:	d10d      	bne.n	1fc2a <rtl_crypto_aes_cbc_init+0x2a>
   1fc0e:	b1bc      	cbz	r4, 1fc40 <rtl_crypto_aes_cbc_init+0x40>
   1fc10:	07a3      	lsls	r3, r4, #30
   1fc12:	d112      	bne.n	1fc3a <rtl_crypto_aes_cbc_init+0x3a>
   1fc14:	2d20      	cmp	r5, #32
   1fc16:	d80d      	bhi.n	1fc34 <rtl_crypto_aes_cbc_init+0x34>
   1fc18:	4622      	mov	r2, r4
   1fc1a:	4c0c      	ldr	r4, [pc, #48]	; (1fc4c <rtl_crypto_aes_cbc_init+0x4c>)
   1fc1c:	462b      	mov	r3, r5
   1fc1e:	2121      	movs	r1, #33	; 0x21
   1fc20:	46a4      	mov	ip, r4
   1fc22:	4809      	ldr	r0, [pc, #36]	; (1fc48 <rtl_crypto_aes_cbc_init+0x48>)
   1fc24:	e8bd 4070 	ldmia.w	sp!, {r4, r5, r6, lr}
   1fc28:	4760      	bx	ip
   1fc2a:	2126      	movs	r1, #38	; 0x26
   1fc2c:	4808      	ldr	r0, [pc, #32]	; (1fc50 <rtl_crypto_aes_cbc_init+0x50>)
   1fc2e:	f000 fac3 	bl	201b8 <io_assert_failed>
   1fc32:	e7ec      	b.n	1fc0e <rtl_crypto_aes_cbc_init+0xe>
   1fc34:	f06f 0006 	mvn.w	r0, #6
   1fc38:	bd70      	pop	{r4, r5, r6, pc}
   1fc3a:	f06f 0005 	mvn.w	r0, #5
   1fc3e:	bd70      	pop	{r4, r5, r6, pc}
   1fc40:	f06f 0003 	mvn.w	r0, #3
   1fc44:	bd70      	pop	{r4, r5, r6, pc}
   1fc46:	bf00      	nop
   1fc48:	20004200 	.word	0x20004200
   1fc4c:	00021b85 	.word	0x00021b85
   1fc50:	00041478 	.word	0x00041478

0001fc54 <rtl_crypto_aes_cbc_encrypt>:
   1fc54:	b530      	push	{r4, r5, lr}
   1fc56:	b087      	sub	sp, #28
   1fc58:	461d      	mov	r5, r3
   1fc5a:	9b0a      	ldr	r3, [sp, #40]	; 0x28
   1fc5c:	b1c2      	cbz	r2, 1fc90 <rtl_crypto_aes_cbc_encrypt+0x3c>
   1fc5e:	0794      	lsls	r4, r2, #30
   1fc60:	d119      	bne.n	1fc96 <rtl_crypto_aes_cbc_encrypt+0x42>
   1fc62:	2d10      	cmp	r5, #16
   1fc64:	d111      	bne.n	1fc8a <rtl_crypto_aes_cbc_encrypt+0x36>
   1fc66:	b198      	cbz	r0, 1fc90 <rtl_crypto_aes_cbc_encrypt+0x3c>
   1fc68:	fab3 f483 	clz	r4, r3
   1fc6c:	0964      	lsrs	r4, r4, #5
   1fc6e:	b17b      	cbz	r3, 1fc90 <rtl_crypto_aes_cbc_encrypt+0x3c>
   1fc70:	9303      	str	r3, [sp, #12]
   1fc72:	4613      	mov	r3, r2
   1fc74:	9404      	str	r4, [sp, #16]
   1fc76:	460a      	mov	r2, r1
   1fc78:	9500      	str	r5, [sp, #0]
   1fc7a:	4601      	mov	r1, r0
   1fc7c:	4807      	ldr	r0, [pc, #28]	; (1fc9c <rtl_crypto_aes_cbc_encrypt+0x48>)
   1fc7e:	e9cd 4401 	strd	r4, r4, [sp, #4]
   1fc82:	4c07      	ldr	r4, [pc, #28]	; (1fca0 <rtl_crypto_aes_cbc_encrypt+0x4c>)
   1fc84:	47a0      	blx	r4
   1fc86:	b007      	add	sp, #28
   1fc88:	bd30      	pop	{r4, r5, pc}
   1fc8a:	f06f 0008 	mvn.w	r0, #8
   1fc8e:	e7fa      	b.n	1fc86 <rtl_crypto_aes_cbc_encrypt+0x32>
   1fc90:	f06f 0003 	mvn.w	r0, #3
   1fc94:	e7f7      	b.n	1fc86 <rtl_crypto_aes_cbc_encrypt+0x32>
   1fc96:	f06f 0005 	mvn.w	r0, #5
   1fc9a:	e7f4      	b.n	1fc86 <rtl_crypto_aes_cbc_encrypt+0x32>
   1fc9c:	20004200 	.word	0x20004200
   1fca0:	00021ba5 	.word	0x00021ba5

0001fca4 <rtl_crypto_aes_cbc_decrypt>:
   1fca4:	b530      	push	{r4, r5, lr}
   1fca6:	b087      	sub	sp, #28
   1fca8:	461d      	mov	r5, r3
   1fcaa:	9b0a      	ldr	r3, [sp, #40]	; 0x28
   1fcac:	b1c2      	cbz	r2, 1fce0 <rtl_crypto_aes_cbc_decrypt+0x3c>
   1fcae:	0794      	lsls	r4, r2, #30
   1fcb0:	d119      	bne.n	1fce6 <rtl_crypto_aes_cbc_decrypt+0x42>
   1fcb2:	2d10      	cmp	r5, #16
   1fcb4:	d111      	bne.n	1fcda <rtl_crypto_aes_cbc_decrypt+0x36>
   1fcb6:	b198      	cbz	r0, 1fce0 <rtl_crypto_aes_cbc_decrypt+0x3c>
   1fcb8:	fab3 f483 	clz	r4, r3
   1fcbc:	0964      	lsrs	r4, r4, #5
   1fcbe:	b17b      	cbz	r3, 1fce0 <rtl_crypto_aes_cbc_decrypt+0x3c>
   1fcc0:	9303      	str	r3, [sp, #12]
   1fcc2:	4613      	mov	r3, r2
   1fcc4:	9404      	str	r4, [sp, #16]
   1fcc6:	460a      	mov	r2, r1
   1fcc8:	9500      	str	r5, [sp, #0]
   1fcca:	4601      	mov	r1, r0
   1fccc:	4807      	ldr	r0, [pc, #28]	; (1fcec <rtl_crypto_aes_cbc_decrypt+0x48>)
   1fcce:	e9cd 4401 	strd	r4, r4, [sp, #4]
   1fcd2:	4c07      	ldr	r4, [pc, #28]	; (1fcf0 <rtl_crypto_aes_cbc_decrypt+0x4c>)
   1fcd4:	47a0      	blx	r4
   1fcd6:	b007      	add	sp, #28
   1fcd8:	bd30      	pop	{r4, r5, pc}
   1fcda:	f06f 0008 	mvn.w	r0, #8
   1fcde:	e7fa      	b.n	1fcd6 <rtl_crypto_aes_cbc_decrypt+0x32>
   1fce0:	f06f 0003 	mvn.w	r0, #3
   1fce4:	e7f7      	b.n	1fcd6 <rtl_crypto_aes_cbc_decrypt+0x32>
   1fce6:	f06f 0005 	mvn.w	r0, #5
   1fcea:	e7f4      	b.n	1fcd6 <rtl_crypto_aes_cbc_decrypt+0x32>
   1fcec:	20004200 	.word	0x20004200
   1fcf0:	00021bd9 	.word	0x00021bd9

0001fcf4 <rtl_crypto_aes_ecb_init>:
   1fcf4:	4b11      	ldr	r3, [pc, #68]	; (1fd3c <rtl_crypto_aes_ecb_init+0x48>)
   1fcf6:	b570      	push	{r4, r5, r6, lr}
   1fcf8:	781b      	ldrb	r3, [r3, #0]
   1fcfa:	4604      	mov	r4, r0
   1fcfc:	460d      	mov	r5, r1
   1fcfe:	2b01      	cmp	r3, #1
   1fd00:	d10d      	bne.n	1fd1e <rtl_crypto_aes_ecb_init+0x2a>
   1fd02:	b1bc      	cbz	r4, 1fd34 <rtl_crypto_aes_ecb_init+0x40>
   1fd04:	07a3      	lsls	r3, r4, #30
   1fd06:	d112      	bne.n	1fd2e <rtl_crypto_aes_ecb_init+0x3a>
   1fd08:	2d20      	cmp	r5, #32
   1fd0a:	d80d      	bhi.n	1fd28 <rtl_crypto_aes_ecb_init+0x34>
   1fd0c:	4622      	mov	r2, r4
   1fd0e:	4c0c      	ldr	r4, [pc, #48]	; (1fd40 <rtl_crypto_aes_ecb_init+0x4c>)
   1fd10:	462b      	mov	r3, r5
   1fd12:	2120      	movs	r1, #32
   1fd14:	46a4      	mov	ip, r4
   1fd16:	4809      	ldr	r0, [pc, #36]	; (1fd3c <rtl_crypto_aes_ecb_init+0x48>)
   1fd18:	e8bd 4070 	ldmia.w	sp!, {r4, r5, r6, lr}
   1fd1c:	4760      	bx	ip
   1fd1e:	218b      	movs	r1, #139	; 0x8b
   1fd20:	4808      	ldr	r0, [pc, #32]	; (1fd44 <rtl_crypto_aes_ecb_init+0x50>)
   1fd22:	f000 fa49 	bl	201b8 <io_assert_failed>
   1fd26:	e7ec      	b.n	1fd02 <rtl_crypto_aes_ecb_init+0xe>
   1fd28:	f06f 0006 	mvn.w	r0, #6
   1fd2c:	bd70      	pop	{r4, r5, r6, pc}
   1fd2e:	f06f 0005 	mvn.w	r0, #5
   1fd32:	bd70      	pop	{r4, r5, r6, pc}
   1fd34:	f06f 0003 	mvn.w	r0, #3
   1fd38:	bd70      	pop	{r4, r5, r6, pc}
   1fd3a:	bf00      	nop
   1fd3c:	20004200 	.word	0x20004200
   1fd40:	00021b85 	.word	0x00021b85
   1fd44:	00041490 	.word	0x00041490

0001fd48 <rtl_crypto_aes_ecb_encrypt>:
   1fd48:	b570      	push	{r4, r5, r6, lr}
   1fd4a:	b086      	sub	sp, #24
   1fd4c:	9e0a      	ldr	r6, [sp, #40]	; 0x28
   1fd4e:	b188      	cbz	r0, 1fd74 <rtl_crypto_aes_ecb_encrypt+0x2c>
   1fd50:	fab6 f486 	clz	r4, r6
   1fd54:	0964      	lsrs	r4, r4, #5
   1fd56:	b16e      	cbz	r6, 1fd74 <rtl_crypto_aes_ecb_encrypt+0x2c>
   1fd58:	461d      	mov	r5, r3
   1fd5a:	9404      	str	r4, [sp, #16]
   1fd5c:	4613      	mov	r3, r2
   1fd5e:	9603      	str	r6, [sp, #12]
   1fd60:	460a      	mov	r2, r1
   1fd62:	9500      	str	r5, [sp, #0]
   1fd64:	4601      	mov	r1, r0
   1fd66:	4805      	ldr	r0, [pc, #20]	; (1fd7c <rtl_crypto_aes_ecb_encrypt+0x34>)
   1fd68:	e9cd 4401 	strd	r4, r4, [sp, #4]
   1fd6c:	4c04      	ldr	r4, [pc, #16]	; (1fd80 <rtl_crypto_aes_ecb_encrypt+0x38>)
   1fd6e:	47a0      	blx	r4
   1fd70:	b006      	add	sp, #24
   1fd72:	bd70      	pop	{r4, r5, r6, pc}
   1fd74:	f06f 0003 	mvn.w	r0, #3
   1fd78:	e7fa      	b.n	1fd70 <rtl_crypto_aes_ecb_encrypt+0x28>
   1fd7a:	bf00      	nop
   1fd7c:	20004200 	.word	0x20004200
   1fd80:	00021ba5 	.word	0x00021ba5

0001fd84 <rtl_crypto_aes_ecb_decrypt>:
   1fd84:	b570      	push	{r4, r5, r6, lr}
   1fd86:	b086      	sub	sp, #24
   1fd88:	9e0a      	ldr	r6, [sp, #40]	; 0x28
   1fd8a:	b188      	cbz	r0, 1fdb0 <rtl_crypto_aes_ecb_decrypt+0x2c>
   1fd8c:	fab6 f486 	clz	r4, r6
   1fd90:	0964      	lsrs	r4, r4, #5
   1fd92:	b16e      	cbz	r6, 1fdb0 <rtl_crypto_aes_ecb_decrypt+0x2c>
   1fd94:	461d      	mov	r5, r3
   1fd96:	9404      	str	r4, [sp, #16]
   1fd98:	4613      	mov	r3, r2
   1fd9a:	9603      	str	r6, [sp, #12]
   1fd9c:	460a      	mov	r2, r1
   1fd9e:	9500      	str	r5, [sp, #0]
   1fda0:	4601      	mov	r1, r0
   1fda2:	4805      	ldr	r0, [pc, #20]	; (1fdb8 <rtl_crypto_aes_ecb_decrypt+0x34>)
   1fda4:	e9cd 4401 	strd	r4, r4, [sp, #4]
   1fda8:	4c04      	ldr	r4, [pc, #16]	; (1fdbc <rtl_crypto_aes_ecb_decrypt+0x38>)
   1fdaa:	47a0      	blx	r4
   1fdac:	b006      	add	sp, #24
   1fdae:	bd70      	pop	{r4, r5, r6, pc}
   1fdb0:	f06f 0003 	mvn.w	r0, #3
   1fdb4:	e7fa      	b.n	1fdac <rtl_crypto_aes_ecb_decrypt+0x28>
   1fdb6:	bf00      	nop
   1fdb8:	20004200 	.word	0x20004200
   1fdbc:	00021bd9 	.word	0x00021bd9

0001fdc0 <rtl_crypto_aes_ctr_init>:
   1fdc0:	4b11      	ldr	r3, [pc, #68]	; (1fe08 <rtl_crypto_aes_ctr_init+0x48>)
   1fdc2:	b570      	push	{r4, r5, r6, lr}
   1fdc4:	781b      	ldrb	r3, [r3, #0]
   1fdc6:	4604      	mov	r4, r0
   1fdc8:	460d      	mov	r5, r1
   1fdca:	2b01      	cmp	r3, #1
   1fdcc:	d10d      	bne.n	1fdea <rtl_crypto_aes_ctr_init+0x2a>
   1fdce:	b1bc      	cbz	r4, 1fe00 <rtl_crypto_aes_ctr_init+0x40>
   1fdd0:	07a3      	lsls	r3, r4, #30
   1fdd2:	d112      	bne.n	1fdfa <rtl_crypto_aes_ctr_init+0x3a>
   1fdd4:	2d20      	cmp	r5, #32
   1fdd6:	d80d      	bhi.n	1fdf4 <rtl_crypto_aes_ctr_init+0x34>
   1fdd8:	4622      	mov	r2, r4
   1fdda:	4c0c      	ldr	r4, [pc, #48]	; (1fe0c <rtl_crypto_aes_ctr_init+0x4c>)
   1fddc:	462b      	mov	r3, r5
   1fdde:	2124      	movs	r1, #36	; 0x24
   1fde0:	46a4      	mov	ip, r4
   1fde2:	4809      	ldr	r0, [pc, #36]	; (1fe08 <rtl_crypto_aes_ctr_init+0x48>)
   1fde4:	e8bd 4070 	ldmia.w	sp!, {r4, r5, r6, lr}
   1fde8:	4760      	bx	ip
   1fdea:	21de      	movs	r1, #222	; 0xde
   1fdec:	4808      	ldr	r0, [pc, #32]	; (1fe10 <rtl_crypto_aes_ctr_init+0x50>)
   1fdee:	f000 f9e3 	bl	201b8 <io_assert_failed>
   1fdf2:	e7ec      	b.n	1fdce <rtl_crypto_aes_ctr_init+0xe>
   1fdf4:	f06f 0006 	mvn.w	r0, #6
   1fdf8:	bd70      	pop	{r4, r5, r6, pc}
   1fdfa:	f06f 0005 	mvn.w	r0, #5
   1fdfe:	bd70      	pop	{r4, r5, r6, pc}
   1fe00:	f06f 0003 	mvn.w	r0, #3
   1fe04:	bd70      	pop	{r4, r5, r6, pc}
   1fe06:	bf00      	nop
   1fe08:	20004200 	.word	0x20004200
   1fe0c:	00021b85 	.word	0x00021b85
   1fe10:	000414a8 	.word	0x000414a8

0001fe14 <rtl_crypto_aes_ctr_encrypt>:
   1fe14:	b530      	push	{r4, r5, lr}
   1fe16:	b087      	sub	sp, #28
   1fe18:	461d      	mov	r5, r3
   1fe1a:	9b0a      	ldr	r3, [sp, #40]	; 0x28
   1fe1c:	b19a      	cbz	r2, 1fe46 <rtl_crypto_aes_ctr_encrypt+0x32>
   1fe1e:	0794      	lsls	r4, r2, #30
   1fe20:	d114      	bne.n	1fe4c <rtl_crypto_aes_ctr_encrypt+0x38>
   1fe22:	b180      	cbz	r0, 1fe46 <rtl_crypto_aes_ctr_encrypt+0x32>
   1fe24:	fab3 f483 	clz	r4, r3
   1fe28:	0964      	lsrs	r4, r4, #5
   1fe2a:	b163      	cbz	r3, 1fe46 <rtl_crypto_aes_ctr_encrypt+0x32>
   1fe2c:	9303      	str	r3, [sp, #12]
   1fe2e:	4613      	mov	r3, r2
   1fe30:	9404      	str	r4, [sp, #16]
   1fe32:	460a      	mov	r2, r1
   1fe34:	9500      	str	r5, [sp, #0]
   1fe36:	4601      	mov	r1, r0
   1fe38:	4806      	ldr	r0, [pc, #24]	; (1fe54 <rtl_crypto_aes_ctr_encrypt+0x40>)
   1fe3a:	e9cd 4401 	strd	r4, r4, [sp, #4]
   1fe3e:	4c06      	ldr	r4, [pc, #24]	; (1fe58 <rtl_crypto_aes_ctr_encrypt+0x44>)
   1fe40:	47a0      	blx	r4
   1fe42:	b007      	add	sp, #28
   1fe44:	bd30      	pop	{r4, r5, pc}
   1fe46:	f06f 0003 	mvn.w	r0, #3
   1fe4a:	e7fa      	b.n	1fe42 <rtl_crypto_aes_ctr_encrypt+0x2e>
   1fe4c:	f06f 0005 	mvn.w	r0, #5
   1fe50:	e7f7      	b.n	1fe42 <rtl_crypto_aes_ctr_encrypt+0x2e>
   1fe52:	bf00      	nop
   1fe54:	20004200 	.word	0x20004200
   1fe58:	00021ba5 	.word	0x00021ba5

0001fe5c <rtl_crypto_aes_ctr_decrypt>:
   1fe5c:	b530      	push	{r4, r5, lr}
   1fe5e:	b087      	sub	sp, #28
   1fe60:	461d      	mov	r5, r3
   1fe62:	9b0a      	ldr	r3, [sp, #40]	; 0x28
   1fe64:	b19a      	cbz	r2, 1fe8e <rtl_crypto_aes_ctr_decrypt+0x32>
   1fe66:	0794      	lsls	r4, r2, #30
   1fe68:	d114      	bne.n	1fe94 <rtl_crypto_aes_ctr_decrypt+0x38>
   1fe6a:	b180      	cbz	r0, 1fe8e <rtl_crypto_aes_ctr_decrypt+0x32>
   1fe6c:	fab3 f483 	clz	r4, r3
   1fe70:	0964      	lsrs	r4, r4, #5
   1fe72:	b163      	cbz	r3, 1fe8e <rtl_crypto_aes_ctr_decrypt+0x32>
   1fe74:	9303      	str	r3, [sp, #12]
   1fe76:	4613      	mov	r3, r2
   1fe78:	9404      	str	r4, [sp, #16]
   1fe7a:	460a      	mov	r2, r1
   1fe7c:	9500      	str	r5, [sp, #0]
   1fe7e:	4601      	mov	r1, r0
   1fe80:	4806      	ldr	r0, [pc, #24]	; (1fe9c <rtl_crypto_aes_ctr_decrypt+0x40>)
   1fe82:	e9cd 4401 	strd	r4, r4, [sp, #4]
   1fe86:	4c06      	ldr	r4, [pc, #24]	; (1fea0 <rtl_crypto_aes_ctr_decrypt+0x44>)
   1fe88:	47a0      	blx	r4
   1fe8a:	b007      	add	sp, #28
   1fe8c:	bd30      	pop	{r4, r5, pc}
   1fe8e:	f06f 0003 	mvn.w	r0, #3
   1fe92:	e7fa      	b.n	1fe8a <rtl_crypto_aes_ctr_decrypt+0x2e>
   1fe94:	f06f 0005 	mvn.w	r0, #5
   1fe98:	e7f7      	b.n	1fe8a <rtl_crypto_aes_ctr_decrypt+0x2e>
   1fe9a:	bf00      	nop
   1fe9c:	20004200 	.word	0x20004200
   1fea0:	00021bd9 	.word	0x00021bd9

0001fea4 <rtl_crypto_aes_cfb_init>:
   1fea4:	4b11      	ldr	r3, [pc, #68]	; (1feec <rtl_crypto_aes_cfb_init+0x48>)
   1fea6:	b570      	push	{r4, r5, r6, lr}
   1fea8:	781b      	ldrb	r3, [r3, #0]
   1feaa:	4604      	mov	r4, r0
   1feac:	460d      	mov	r5, r1
   1feae:	2b01      	cmp	r3, #1
   1feb0:	d10d      	bne.n	1fece <rtl_crypto_aes_cfb_init+0x2a>
   1feb2:	b1c4      	cbz	r4, 1fee6 <rtl_crypto_aes_cfb_init+0x42>
   1feb4:	07a3      	lsls	r3, r4, #30
   1feb6:	d113      	bne.n	1fee0 <rtl_crypto_aes_cfb_init+0x3c>
   1feb8:	2d20      	cmp	r5, #32
   1feba:	d80e      	bhi.n	1feda <rtl_crypto_aes_cfb_init+0x36>
   1febc:	4622      	mov	r2, r4
   1febe:	4c0c      	ldr	r4, [pc, #48]	; (1fef0 <rtl_crypto_aes_cfb_init+0x4c>)
   1fec0:	462b      	mov	r3, r5
   1fec2:	2122      	movs	r1, #34	; 0x22
   1fec4:	46a4      	mov	ip, r4
   1fec6:	4809      	ldr	r0, [pc, #36]	; (1feec <rtl_crypto_aes_cfb_init+0x48>)
   1fec8:	e8bd 4070 	ldmia.w	sp!, {r4, r5, r6, lr}
   1fecc:	4760      	bx	ip
   1fece:	f44f 719e 	mov.w	r1, #316	; 0x13c
   1fed2:	4808      	ldr	r0, [pc, #32]	; (1fef4 <rtl_crypto_aes_cfb_init+0x50>)
   1fed4:	f000 f970 	bl	201b8 <io_assert_failed>
   1fed8:	e7eb      	b.n	1feb2 <rtl_crypto_aes_cfb_init+0xe>
   1feda:	f06f 0006 	mvn.w	r0, #6
   1fede:	bd70      	pop	{r4, r5, r6, pc}
   1fee0:	f06f 0005 	mvn.w	r0, #5
   1fee4:	bd70      	pop	{r4, r5, r6, pc}
   1fee6:	f06f 0003 	mvn.w	r0, #3
   1feea:	bd70      	pop	{r4, r5, r6, pc}
   1feec:	20004200 	.word	0x20004200
   1fef0:	00021b85 	.word	0x00021b85
   1fef4:	000414c0 	.word	0x000414c0

0001fef8 <rtl_crypto_aes_cfb_encrypt>:
   1fef8:	b530      	push	{r4, r5, lr}
   1fefa:	b087      	sub	sp, #28
   1fefc:	461d      	mov	r5, r3
   1fefe:	9b0a      	ldr	r3, [sp, #40]	; 0x28
   1ff00:	b19a      	cbz	r2, 1ff2a <rtl_crypto_aes_cfb_encrypt+0x32>
   1ff02:	0794      	lsls	r4, r2, #30
   1ff04:	d114      	bne.n	1ff30 <rtl_crypto_aes_cfb_encrypt+0x38>
   1ff06:	b180      	cbz	r0, 1ff2a <rtl_crypto_aes_cfb_encrypt+0x32>
   1ff08:	fab3 f483 	clz	r4, r3
   1ff0c:	0964      	lsrs	r4, r4, #5
   1ff0e:	b163      	cbz	r3, 1ff2a <rtl_crypto_aes_cfb_encrypt+0x32>
   1ff10:	9303      	str	r3, [sp, #12]
   1ff12:	4613      	mov	r3, r2
   1ff14:	9404      	str	r4, [sp, #16]
   1ff16:	460a      	mov	r2, r1
   1ff18:	9500      	str	r5, [sp, #0]
   1ff1a:	4601      	mov	r1, r0
   1ff1c:	4806      	ldr	r0, [pc, #24]	; (1ff38 <rtl_crypto_aes_cfb_encrypt+0x40>)
   1ff1e:	e9cd 4401 	strd	r4, r4, [sp, #4]
   1ff22:	4c06      	ldr	r4, [pc, #24]	; (1ff3c <rtl_crypto_aes_cfb_encrypt+0x44>)
   1ff24:	47a0      	blx	r4
   1ff26:	b007      	add	sp, #28
   1ff28:	bd30      	pop	{r4, r5, pc}
   1ff2a:	f06f 0003 	mvn.w	r0, #3
   1ff2e:	e7fa      	b.n	1ff26 <rtl_crypto_aes_cfb_encrypt+0x2e>
   1ff30:	f06f 0005 	mvn.w	r0, #5
   1ff34:	e7f7      	b.n	1ff26 <rtl_crypto_aes_cfb_encrypt+0x2e>
   1ff36:	bf00      	nop
   1ff38:	20004200 	.word	0x20004200
   1ff3c:	00021ba5 	.word	0x00021ba5

0001ff40 <rtl_crypto_aes_cfb_decrypt>:
   1ff40:	b530      	push	{r4, r5, lr}
   1ff42:	b087      	sub	sp, #28
   1ff44:	461d      	mov	r5, r3
   1ff46:	9b0a      	ldr	r3, [sp, #40]	; 0x28
   1ff48:	b19a      	cbz	r2, 1ff72 <rtl_crypto_aes_cfb_decrypt+0x32>
   1ff4a:	0794      	lsls	r4, r2, #30
   1ff4c:	d114      	bne.n	1ff78 <rtl_crypto_aes_cfb_decrypt+0x38>
   1ff4e:	b180      	cbz	r0, 1ff72 <rtl_crypto_aes_cfb_decrypt+0x32>
   1ff50:	fab3 f483 	clz	r4, r3
   1ff54:	0964      	lsrs	r4, r4, #5
   1ff56:	b163      	cbz	r3, 1ff72 <rtl_crypto_aes_cfb_decrypt+0x32>
   1ff58:	9303      	str	r3, [sp, #12]
   1ff5a:	4613      	mov	r3, r2
   1ff5c:	9404      	str	r4, [sp, #16]
   1ff5e:	460a      	mov	r2, r1
   1ff60:	9500      	str	r5, [sp, #0]
   1ff62:	4601      	mov	r1, r0
   1ff64:	4806      	ldr	r0, [pc, #24]	; (1ff80 <rtl_crypto_aes_cfb_decrypt+0x40>)
   1ff66:	e9cd 4401 	strd	r4, r4, [sp, #4]
   1ff6a:	4c06      	ldr	r4, [pc, #24]	; (1ff84 <rtl_crypto_aes_cfb_decrypt+0x44>)
   1ff6c:	47a0      	blx	r4
   1ff6e:	b007      	add	sp, #28
   1ff70:	bd30      	pop	{r4, r5, pc}
   1ff72:	f06f 0003 	mvn.w	r0, #3
   1ff76:	e7fa      	b.n	1ff6e <rtl_crypto_aes_cfb_decrypt+0x2e>
   1ff78:	f06f 0005 	mvn.w	r0, #5
   1ff7c:	e7f7      	b.n	1ff6e <rtl_crypto_aes_cfb_decrypt+0x2e>
   1ff7e:	bf00      	nop
   1ff80:	20004200 	.word	0x20004200
   1ff84:	00021bd9 	.word	0x00021bd9

0001ff88 <rtl_crypto_aes_ofb_init>:
   1ff88:	4b11      	ldr	r3, [pc, #68]	; (1ffd0 <rtl_crypto_aes_ofb_init+0x48>)
   1ff8a:	b570      	push	{r4, r5, r6, lr}
   1ff8c:	781b      	ldrb	r3, [r3, #0]
   1ff8e:	4604      	mov	r4, r0
   1ff90:	460d      	mov	r5, r1
   1ff92:	2b01      	cmp	r3, #1
   1ff94:	d10d      	bne.n	1ffb2 <rtl_crypto_aes_ofb_init+0x2a>
   1ff96:	b1c4      	cbz	r4, 1ffca <rtl_crypto_aes_ofb_init+0x42>
   1ff98:	07a3      	lsls	r3, r4, #30
   1ff9a:	d113      	bne.n	1ffc4 <rtl_crypto_aes_ofb_init+0x3c>
   1ff9c:	2d20      	cmp	r5, #32
   1ff9e:	d80e      	bhi.n	1ffbe <rtl_crypto_aes_ofb_init+0x36>
   1ffa0:	4622      	mov	r2, r4
   1ffa2:	4c0c      	ldr	r4, [pc, #48]	; (1ffd4 <rtl_crypto_aes_ofb_init+0x4c>)
   1ffa4:	462b      	mov	r3, r5
   1ffa6:	2123      	movs	r1, #35	; 0x23
   1ffa8:	46a4      	mov	ip, r4
   1ffaa:	4809      	ldr	r0, [pc, #36]	; (1ffd0 <rtl_crypto_aes_ofb_init+0x48>)
   1ffac:	e8bd 4070 	ldmia.w	sp!, {r4, r5, r6, lr}
   1ffb0:	4760      	bx	ip
   1ffb2:	f44f 71cd 	mov.w	r1, #410	; 0x19a
   1ffb6:	4808      	ldr	r0, [pc, #32]	; (1ffd8 <rtl_crypto_aes_ofb_init+0x50>)
   1ffb8:	f000 f8fe 	bl	201b8 <io_assert_failed>
   1ffbc:	e7eb      	b.n	1ff96 <rtl_crypto_aes_ofb_init+0xe>
   1ffbe:	f06f 0006 	mvn.w	r0, #6
   1ffc2:	bd70      	pop	{r4, r5, r6, pc}
   1ffc4:	f06f 0005 	mvn.w	r0, #5
   1ffc8:	bd70      	pop	{r4, r5, r6, pc}
   1ffca:	f06f 0003 	mvn.w	r0, #3
   1ffce:	bd70      	pop	{r4, r5, r6, pc}
   1ffd0:	20004200 	.word	0x20004200
   1ffd4:	00021b85 	.word	0x00021b85
   1ffd8:	000414d8 	.word	0x000414d8

0001ffdc <rtl_crypto_aes_ofb_encrypt>:
   1ffdc:	b530      	push	{r4, r5, lr}
   1ffde:	b087      	sub	sp, #28
   1ffe0:	461d      	mov	r5, r3
   1ffe2:	9b0a      	ldr	r3, [sp, #40]	; 0x28
   1ffe4:	b19a      	cbz	r2, 2000e <rtl_crypto_aes_ofb_encrypt+0x32>
   1ffe6:	0794      	lsls	r4, r2, #30
   1ffe8:	d114      	bne.n	20014 <rtl_crypto_aes_ofb_encrypt+0x38>
   1ffea:	b180      	cbz	r0, 2000e <rtl_crypto_aes_ofb_encrypt+0x32>
   1ffec:	fab3 f483 	clz	r4, r3
   1fff0:	0964      	lsrs	r4, r4, #5
   1fff2:	b163      	cbz	r3, 2000e <rtl_crypto_aes_ofb_encrypt+0x32>
   1fff4:	9303      	str	r3, [sp, #12]
   1fff6:	4613      	mov	r3, r2
   1fff8:	9404      	str	r4, [sp, #16]
   1fffa:	460a      	mov	r2, r1
   1fffc:	9500      	str	r5, [sp, #0]
   1fffe:	4601      	mov	r1, r0
   20000:	4806      	ldr	r0, [pc, #24]	; (2001c <rtl_crypto_aes_ofb_encrypt+0x40>)
   20002:	e9cd 4401 	strd	r4, r4, [sp, #4]
   20006:	4c06      	ldr	r4, [pc, #24]	; (20020 <rtl_crypto_aes_ofb_encrypt+0x44>)
   20008:	47a0      	blx	r4
   2000a:	b007      	add	sp, #28
   2000c:	bd30      	pop	{r4, r5, pc}
   2000e:	f06f 0003 	mvn.w	r0, #3
   20012:	e7fa      	b.n	2000a <rtl_crypto_aes_ofb_encrypt+0x2e>
   20014:	f06f 0005 	mvn.w	r0, #5
   20018:	e7f7      	b.n	2000a <rtl_crypto_aes_ofb_encrypt+0x2e>
   2001a:	bf00      	nop
   2001c:	20004200 	.word	0x20004200
   20020:	00021ba5 	.word	0x00021ba5

00020024 <rtl_crypto_aes_ofb_decrypt>:
   20024:	b530      	push	{r4, r5, lr}
   20026:	b087      	sub	sp, #28
   20028:	461d      	mov	r5, r3
   2002a:	9b0a      	ldr	r3, [sp, #40]	; 0x28
   2002c:	b19a      	cbz	r2, 20056 <rtl_crypto_aes_ofb_decrypt+0x32>
   2002e:	0794      	lsls	r4, r2, #30
   20030:	d114      	bne.n	2005c <rtl_crypto_aes_ofb_decrypt+0x38>
   20032:	b180      	cbz	r0, 20056 <rtl_crypto_aes_ofb_decrypt+0x32>
   20034:	fab3 f483 	clz	r4, r3
   20038:	0964      	lsrs	r4, r4, #5
   2003a:	b163      	cbz	r3, 20056 <rtl_crypto_aes_ofb_decrypt+0x32>
   2003c:	9303      	str	r3, [sp, #12]
   2003e:	4613      	mov	r3, r2
   20040:	9404      	str	r4, [sp, #16]
   20042:	460a      	mov	r2, r1
   20044:	9500      	str	r5, [sp, #0]
   20046:	4601      	mov	r1, r0
   20048:	4806      	ldr	r0, [pc, #24]	; (20064 <rtl_crypto_aes_ofb_decrypt+0x40>)
   2004a:	e9cd 4401 	strd	r4, r4, [sp, #4]
   2004e:	4c06      	ldr	r4, [pc, #24]	; (20068 <rtl_crypto_aes_ofb_decrypt+0x44>)
   20050:	47a0      	blx	r4
   20052:	b007      	add	sp, #28
   20054:	bd30      	pop	{r4, r5, pc}
   20056:	f06f 0003 	mvn.w	r0, #3
   2005a:	e7fa      	b.n	20052 <rtl_crypto_aes_ofb_decrypt+0x2e>
   2005c:	f06f 0005 	mvn.w	r0, #5
   20060:	e7f7      	b.n	20052 <rtl_crypto_aes_ofb_decrypt+0x2e>
   20062:	bf00      	nop
   20064:	20004200 	.word	0x20004200
   20068:	00021bd9 	.word	0x00021bd9

0002006c <rtl_crypto_aes_gcm_init>:
   2006c:	4b11      	ldr	r3, [pc, #68]	; (200b4 <rtl_crypto_aes_gcm_init+0x48>)
   2006e:	b570      	push	{r4, r5, r6, lr}
   20070:	781b      	ldrb	r3, [r3, #0]
   20072:	4604      	mov	r4, r0
   20074:	460d      	mov	r5, r1
   20076:	2b01      	cmp	r3, #1
   20078:	d10d      	bne.n	20096 <rtl_crypto_aes_gcm_init+0x2a>
   2007a:	b1c4      	cbz	r4, 200ae <rtl_crypto_aes_gcm_init+0x42>
   2007c:	07a3      	lsls	r3, r4, #30
   2007e:	d113      	bne.n	200a8 <rtl_crypto_aes_gcm_init+0x3c>
   20080:	2d20      	cmp	r5, #32
   20082:	d80e      	bhi.n	200a2 <rtl_crypto_aes_gcm_init+0x36>
   20084:	4622      	mov	r2, r4
   20086:	4c0c      	ldr	r4, [pc, #48]	; (200b8 <rtl_crypto_aes_gcm_init+0x4c>)
   20088:	462b      	mov	r3, r5
   2008a:	2128      	movs	r1, #40	; 0x28
   2008c:	46a4      	mov	ip, r4
   2008e:	4809      	ldr	r0, [pc, #36]	; (200b4 <rtl_crypto_aes_gcm_init+0x48>)
   20090:	e8bd 4070 	ldmia.w	sp!, {r4, r5, r6, lr}
   20094:	4760      	bx	ip
   20096:	f44f 71fc 	mov.w	r1, #504	; 0x1f8
   2009a:	4808      	ldr	r0, [pc, #32]	; (200bc <rtl_crypto_aes_gcm_init+0x50>)
   2009c:	f000 f88c 	bl	201b8 <io_assert_failed>
   200a0:	e7eb      	b.n	2007a <rtl_crypto_aes_gcm_init+0xe>
   200a2:	f06f 0006 	mvn.w	r0, #6
   200a6:	bd70      	pop	{r4, r5, r6, pc}
   200a8:	f06f 0005 	mvn.w	r0, #5
   200ac:	bd70      	pop	{r4, r5, r6, pc}
   200ae:	f06f 0003 	mvn.w	r0, #3
   200b2:	bd70      	pop	{r4, r5, r6, pc}
   200b4:	20004200 	.word	0x20004200
   200b8:	00021b85 	.word	0x00021b85
   200bc:	000414f0 	.word	0x000414f0

000200c0 <rtl_crypto_aes_gcm_encrypt>:
   200c0:	e92d 43f0 	stmdb	sp!, {r4, r5, r6, r7, r8, r9, lr}
   200c4:	b087      	sub	sp, #28
   200c6:	e9dd 970f 	ldrd	r9, r7, [sp, #60]	; 0x3c
   200ca:	b33a      	cbz	r2, 2011c <rtl_crypto_aes_gcm_encrypt+0x5c>
   200cc:	460e      	mov	r6, r1
   200ce:	4611      	mov	r1, r2
   200d0:	078a      	lsls	r2, r1, #30
   200d2:	d126      	bne.n	20122 <rtl_crypto_aes_gcm_encrypt+0x62>
   200d4:	4604      	mov	r4, r0
   200d6:	b308      	cbz	r0, 2011c <rtl_crypto_aes_gcm_encrypt+0x5c>
   200d8:	461d      	mov	r5, r3
   200da:	07ab      	lsls	r3, r5, #30
   200dc:	d121      	bne.n	20122 <rtl_crypto_aes_gcm_encrypt+0x62>
   200de:	f1b9 0f00 	cmp.w	r9, #0
   200e2:	d01b      	beq.n	2011c <rtl_crypto_aes_gcm_encrypt+0x5c>
   200e4:	b1d7      	cbz	r7, 2011c <rtl_crypto_aes_gcm_encrypt+0x5c>
   200e6:	220c      	movs	r2, #12
   200e8:	f8df 804c 	ldr.w	r8, [pc, #76]	; 20138 <rtl_crypto_aes_gcm_encrypt+0x78>
   200ec:	480e      	ldr	r0, [pc, #56]	; (20128 <rtl_crypto_aes_gcm_encrypt+0x68>)
   200ee:	47c0      	blx	r8
   200f0:	2204      	movs	r2, #4
   200f2:	490e      	ldr	r1, [pc, #56]	; (2012c <rtl_crypto_aes_gcm_encrypt+0x6c>)
   200f4:	480e      	ldr	r0, [pc, #56]	; (20130 <rtl_crypto_aes_gcm_encrypt+0x70>)
   200f6:	47c0      	blx	r8
   200f8:	2010      	movs	r0, #16
   200fa:	4b0b      	ldr	r3, [pc, #44]	; (20128 <rtl_crypto_aes_gcm_encrypt+0x68>)
   200fc:	4621      	mov	r1, r4
   200fe:	9000      	str	r0, [sp, #0]
   20100:	4632      	mov	r2, r6
   20102:	980e      	ldr	r0, [sp, #56]	; 0x38
   20104:	4c0b      	ldr	r4, [pc, #44]	; (20134 <rtl_crypto_aes_gcm_encrypt+0x74>)
   20106:	9704      	str	r7, [sp, #16]
   20108:	f8cd 900c 	str.w	r9, [sp, #12]
   2010c:	e9cd 5001 	strd	r5, r0, [sp, #4]
   20110:	f5a3 70b4 	sub.w	r0, r3, #360	; 0x168
   20114:	47a0      	blx	r4
   20116:	b007      	add	sp, #28
   20118:	e8bd 83f0 	ldmia.w	sp!, {r4, r5, r6, r7, r8, r9, pc}
   2011c:	f06f 0003 	mvn.w	r0, #3
   20120:	e7f9      	b.n	20116 <rtl_crypto_aes_gcm_encrypt+0x56>
   20122:	f06f 0005 	mvn.w	r0, #5
   20126:	e7f6      	b.n	20116 <rtl_crypto_aes_gcm_encrypt+0x56>
   20128:	20004368 	.word	0x20004368
   2012c:	00041020 	.word	0x00041020
   20130:	20004374 	.word	0x20004374
   20134:	00021ba5 	.word	0x00021ba5
   20138:	00028f1d 	.word	0x00028f1d

0002013c <rtl_crypto_aes_gcm_decrypt>:
   2013c:	e92d 43f0 	stmdb	sp!, {r4, r5, r6, r7, r8, r9, lr}
   20140:	b087      	sub	sp, #28
   20142:	e9dd 970f 	ldrd	r9, r7, [sp, #60]	; 0x3c
   20146:	b33a      	cbz	r2, 20198 <rtl_crypto_aes_gcm_decrypt+0x5c>
   20148:	460e      	mov	r6, r1
   2014a:	4611      	mov	r1, r2
   2014c:	078a      	lsls	r2, r1, #30
   2014e:	d126      	bne.n	2019e <rtl_crypto_aes_gcm_decrypt+0x62>
   20150:	4604      	mov	r4, r0
   20152:	b308      	cbz	r0, 20198 <rtl_crypto_aes_gcm_decrypt+0x5c>
   20154:	461d      	mov	r5, r3
   20156:	07ab      	lsls	r3, r5, #30
   20158:	d121      	bne.n	2019e <rtl_crypto_aes_gcm_decrypt+0x62>
   2015a:	f1b9 0f00 	cmp.w	r9, #0
   2015e:	d01b      	beq.n	20198 <rtl_crypto_aes_gcm_decrypt+0x5c>
   20160:	b1d7      	cbz	r7, 20198 <rtl_crypto_aes_gcm_decrypt+0x5c>
   20162:	220c      	movs	r2, #12
   20164:	f8df 804c 	ldr.w	r8, [pc, #76]	; 201b4 <rtl_crypto_aes_gcm_decrypt+0x78>
   20168:	480e      	ldr	r0, [pc, #56]	; (201a4 <rtl_crypto_aes_gcm_decrypt+0x68>)
   2016a:	47c0      	blx	r8
   2016c:	2204      	movs	r2, #4
   2016e:	490e      	ldr	r1, [pc, #56]	; (201a8 <rtl_crypto_aes_gcm_decrypt+0x6c>)
   20170:	480e      	ldr	r0, [pc, #56]	; (201ac <rtl_crypto_aes_gcm_decrypt+0x70>)
   20172:	47c0      	blx	r8
   20174:	2010      	movs	r0, #16
   20176:	4b0b      	ldr	r3, [pc, #44]	; (201a4 <rtl_crypto_aes_gcm_decrypt+0x68>)
   20178:	4621      	mov	r1, r4
   2017a:	9000      	str	r0, [sp, #0]
   2017c:	4632      	mov	r2, r6
   2017e:	980e      	ldr	r0, [sp, #56]	; 0x38
   20180:	4c0b      	ldr	r4, [pc, #44]	; (201b0 <rtl_crypto_aes_gcm_decrypt+0x74>)
   20182:	9704      	str	r7, [sp, #16]
   20184:	f8cd 900c 	str.w	r9, [sp, #12]
   20188:	e9cd 5001 	strd	r5, r0, [sp, #4]
   2018c:	f5a3 70b4 	sub.w	r0, r3, #360	; 0x168
   20190:	47a0      	blx	r4
   20192:	b007      	add	sp, #28
   20194:	e8bd 83f0 	ldmia.w	sp!, {r4, r5, r6, r7, r8, r9, pc}
   20198:	f06f 0003 	mvn.w	r0, #3
   2019c:	e7f9      	b.n	20192 <rtl_crypto_aes_gcm_decrypt+0x56>
   2019e:	f06f 0005 	mvn.w	r0, #5
   201a2:	e7f6      	b.n	20192 <rtl_crypto_aes_gcm_decrypt+0x56>
   201a4:	20004368 	.word	0x20004368
   201a8:	00041020 	.word	0x00041020
   201ac:	20004374 	.word	0x20004374
   201b0:	00021bd9 	.word	0x00021bd9
   201b4:	00028f1d 	.word	0x00028f1d

000201b8 <io_assert_failed>:
   201b8:	b508      	push	{r3, lr}
   201ba:	4b05      	ldr	r3, [pc, #20]	; (201d0 <io_assert_failed+0x18>)
   201bc:	681b      	ldr	r3, [r3, #0]
   201be:	039b      	lsls	r3, r3, #14
   201c0:	d400      	bmi.n	201c4 <io_assert_failed+0xc>
   201c2:	e7fe      	b.n	201c2 <io_assert_failed+0xa>
   201c4:	460a      	mov	r2, r1
   201c6:	4601      	mov	r1, r0
   201c8:	4802      	ldr	r0, [pc, #8]	; (201d4 <io_assert_failed+0x1c>)
   201ca:	f008 f8ff 	bl	283cc <DiagPrintf>
   201ce:	e7f8      	b.n	201c2 <io_assert_failed+0xa>
   201d0:	20004004 	.word	0x20004004
   201d4:	00041508 	.word	0x00041508

000201d8 <BKUP_Write>:
   201d8:	2803      	cmp	r0, #3
   201da:	b538      	push	{r3, r4, r5, lr}
   201dc:	4604      	mov	r4, r0
   201de:	460d      	mov	r5, r1
   201e0:	d803      	bhi.n	201ea <BKUP_Write+0x12>
   201e2:	00a4      	lsls	r4, r4, #2
   201e4:	4b05      	ldr	r3, [pc, #20]	; (201fc <BKUP_Write+0x24>)
   201e6:	511d      	str	r5, [r3, r4]
   201e8:	bd38      	pop	{r3, r4, r5, pc}
   201ea:	211f      	movs	r1, #31
   201ec:	4804      	ldr	r0, [pc, #16]	; (20200 <BKUP_Write+0x28>)
   201ee:	f7ff ffe3 	bl	201b8 <io_assert_failed>
   201f2:	4b02      	ldr	r3, [pc, #8]	; (201fc <BKUP_Write+0x24>)
   201f4:	00a4      	lsls	r4, r4, #2
   201f6:	511d      	str	r5, [r3, r4]
   201f8:	bd38      	pop	{r3, r4, r5, pc}
   201fa:	bf00      	nop
   201fc:	4100c0e0 	.word	0x4100c0e0
   20200:	00041540 	.word	0x00041540

00020204 <BKUP_Read>:
   20204:	2803      	cmp	r0, #3
   20206:	b510      	push	{r4, lr}
   20208:	4604      	mov	r4, r0
   2020a:	d803      	bhi.n	20214 <BKUP_Read+0x10>
   2020c:	00a4      	lsls	r4, r4, #2
   2020e:	4b05      	ldr	r3, [pc, #20]	; (20224 <BKUP_Read+0x20>)
   20210:	5918      	ldr	r0, [r3, r4]
   20212:	bd10      	pop	{r4, pc}
   20214:	212e      	movs	r1, #46	; 0x2e
   20216:	4804      	ldr	r0, [pc, #16]	; (20228 <BKUP_Read+0x24>)
   20218:	f7ff ffce 	bl	201b8 <io_assert_failed>
   2021c:	4b01      	ldr	r3, [pc, #4]	; (20224 <BKUP_Read+0x20>)
   2021e:	00a4      	lsls	r4, r4, #2
   20220:	5918      	ldr	r0, [r3, r4]
   20222:	bd10      	pop	{r4, pc}
   20224:	4100c0e0 	.word	0x4100c0e0
   20228:	0004154c 	.word	0x0004154c

0002022c <BKUP_Set>:
   2022c:	2803      	cmp	r0, #3
   2022e:	b538      	push	{r3, r4, r5, lr}
   20230:	4604      	mov	r4, r0
   20232:	460d      	mov	r5, r1
   20234:	d805      	bhi.n	20242 <BKUP_Set+0x16>
   20236:	00a4      	lsls	r4, r4, #2
   20238:	4b04      	ldr	r3, [pc, #16]	; (2024c <BKUP_Set+0x20>)
   2023a:	591a      	ldr	r2, [r3, r4]
   2023c:	432a      	orrs	r2, r5
   2023e:	511a      	str	r2, [r3, r4]
   20240:	bd38      	pop	{r3, r4, r5, pc}
   20242:	213e      	movs	r1, #62	; 0x3e
   20244:	4802      	ldr	r0, [pc, #8]	; (20250 <BKUP_Set+0x24>)
   20246:	f7ff ffb7 	bl	201b8 <io_assert_failed>
   2024a:	e7f4      	b.n	20236 <BKUP_Set+0xa>
   2024c:	4100c0e0 	.word	0x4100c0e0
   20250:	00041558 	.word	0x00041558

00020254 <BKUP_Clear>:
   20254:	2803      	cmp	r0, #3
   20256:	b538      	push	{r3, r4, r5, lr}
   20258:	4604      	mov	r4, r0
   2025a:	460d      	mov	r5, r1
   2025c:	d806      	bhi.n	2026c <BKUP_Clear+0x18>
   2025e:	00a4      	lsls	r4, r4, #2
   20260:	4b05      	ldr	r3, [pc, #20]	; (20278 <BKUP_Clear+0x24>)
   20262:	591a      	ldr	r2, [r3, r4]
   20264:	ea22 0205 	bic.w	r2, r2, r5
   20268:	511a      	str	r2, [r3, r4]
   2026a:	bd38      	pop	{r3, r4, r5, pc}
   2026c:	214e      	movs	r1, #78	; 0x4e
   2026e:	4803      	ldr	r0, [pc, #12]	; (2027c <BKUP_Clear+0x28>)
   20270:	f7ff ffa2 	bl	201b8 <io_assert_failed>
   20274:	e7f3      	b.n	2025e <BKUP_Clear+0xa>
   20276:	bf00      	nop
   20278:	4100c0e0 	.word	0x4100c0e0
   2027c:	00041564 	.word	0x00041564

00020280 <XTAL_ClkGet>:
   20280:	4b04      	ldr	r3, [pc, #16]	; (20294 <XTAL_ClkGet+0x14>)
   20282:	4a05      	ldr	r2, [pc, #20]	; (20298 <XTAL_ClkGet+0x18>)
   20284:	f8d3 321c 	ldr.w	r3, [r3, #540]	; 0x21c
   20288:	f003 030f 	and.w	r3, r3, #15
   2028c:	f852 0023 	ldr.w	r0, [r2, r3, lsl #2]
   20290:	4770      	bx	lr
   20292:	bf00      	nop
   20294:	4100c000 	.word	0x4100c000
   20298:	00041024 	.word	0x00041024

0002029c <CPU_ClkSrc_Set>:
   2029c:	4a05      	ldr	r2, [pc, #20]	; (202b4 <CPU_ClkSrc_Set+0x18>)
   2029e:	0040      	lsls	r0, r0, #1
   202a0:	f8d2 3218 	ldr.w	r3, [r2, #536]	; 0x218
   202a4:	f000 0006 	and.w	r0, r0, #6
   202a8:	f023 0306 	bic.w	r3, r3, #6
   202ac:	4318      	orrs	r0, r3
   202ae:	f8c2 0218 	str.w	r0, [r2, #536]	; 0x218
   202b2:	4770      	bx	lr
   202b4:	4100c000 	.word	0x4100c000

000202b8 <CPU_ClkSrc_Get>:
   202b8:	4b02      	ldr	r3, [pc, #8]	; (202c4 <CPU_ClkSrc_Get+0xc>)
   202ba:	f8d3 0218 	ldr.w	r0, [r3, #536]	; 0x218
   202be:	f3c0 0041 	ubfx	r0, r0, #1, #2
   202c2:	4770      	bx	lr
   202c4:	4100c000 	.word	0x4100c000

000202c8 <PLL_ClkGet>:
   202c8:	2802      	cmp	r0, #2
   202ca:	b570      	push	{r4, r5, r6, lr}
   202cc:	d018      	beq.n	20300 <PLL_ClkGet+0x38>
   202ce:	2803      	cmp	r0, #3
   202d0:	d114      	bne.n	202fc <PLL_ClkGet+0x34>
   202d2:	4a10      	ldr	r2, [pc, #64]	; (20314 <PLL_ClkGet+0x4c>)
   202d4:	6d54      	ldr	r4, [r2, #84]	; 0x54
   202d6:	6dd6      	ldr	r6, [r2, #92]	; 0x5c
   202d8:	6dd5      	ldr	r5, [r2, #92]	; 0x5c
   202da:	f3c4 1445 	ubfx	r4, r4, #5, #6
   202de:	0cf6      	lsrs	r6, r6, #19
   202e0:	f3c5 4502 	ubfx	r5, r5, #16, #3
   202e4:	4b0c      	ldr	r3, [pc, #48]	; (20318 <PLL_ClkGet+0x50>)
   202e6:	3402      	adds	r4, #2
   202e8:	4798      	blx	r3
   202ea:	0c03      	lsrs	r3, r0, #16
   202ec:	08c2      	lsrs	r2, r0, #3
   202ee:	fb06 f303 	mul.w	r3, r6, r3
   202f2:	fb05 3302 	mla	r3, r5, r2, r3
   202f6:	fb00 3004 	mla	r0, r0, r4, r3
   202fa:	bd70      	pop	{r4, r5, r6, pc}
   202fc:	2000      	movs	r0, #0
   202fe:	bd70      	pop	{r4, r5, r6, pc}
   20300:	4a04      	ldr	r2, [pc, #16]	; (20314 <PLL_ClkGet+0x4c>)
   20302:	6c54      	ldr	r4, [r2, #68]	; 0x44
   20304:	6cd6      	ldr	r6, [r2, #76]	; 0x4c
   20306:	6cd5      	ldr	r5, [r2, #76]	; 0x4c
   20308:	f3c4 1445 	ubfx	r4, r4, #5, #6
   2030c:	0cf6      	lsrs	r6, r6, #19
   2030e:	f3c5 4502 	ubfx	r5, r5, #16, #3
   20312:	e7e7      	b.n	202e4 <PLL_ClkGet+0x1c>
   20314:	4100c400 	.word	0x4100c400
   20318:	00020281 	.word	0x00020281

0002031c <CPU_ClkGet>:
   2031c:	b570      	push	{r4, r5, r6, lr}
   2031e:	4d1a      	ldr	r5, [pc, #104]	; (20388 <CPU_ClkGet+0x6c>)
   20320:	4b1a      	ldr	r3, [pc, #104]	; (2038c <CPU_ClkGet+0x70>)
   20322:	f8d5 6218 	ldr.w	r6, [r5, #536]	; 0x218
   20326:	f8d5 4228 	ldr.w	r4, [r5, #552]	; 0x228
   2032a:	4798      	blx	r3
   2032c:	2801      	cmp	r0, #1
   2032e:	f3c4 1481 	ubfx	r4, r4, #6, #2
   20332:	d018      	beq.n	20366 <CPU_ClkGet+0x4a>
   20334:	f8d5 0220 	ldr.w	r0, [r5, #544]	; 0x220
   20338:	2c01      	cmp	r4, #1
   2033a:	bf0c      	ite	eq
   2033c:	f000 000f 	andeq.w	r0, r0, #15
   20340:	f3c0 1003 	ubfxne	r0, r0, #4, #4
   20344:	1c44      	adds	r4, r0, #1
   20346:	f3c6 0041 	ubfx	r0, r6, #1, #2
   2034a:	2802      	cmp	r0, #2
   2034c:	d006      	beq.n	2035c <CPU_ClkGet+0x40>
   2034e:	2803      	cmp	r0, #3
   20350:	d004      	beq.n	2035c <CPU_ClkGet+0x40>
   20352:	07f3      	lsls	r3, r6, #31
   20354:	d513      	bpl.n	2037e <CPU_ClkGet+0x62>
   20356:	4b0e      	ldr	r3, [pc, #56]	; (20390 <CPU_ClkGet+0x74>)
   20358:	4798      	blx	r3
   2035a:	bd70      	pop	{r4, r5, r6, pc}
   2035c:	4b0d      	ldr	r3, [pc, #52]	; (20394 <CPU_ClkGet+0x78>)
   2035e:	4798      	blx	r3
   20360:	fbb0 f0f4 	udiv	r0, r0, r4
   20364:	bd70      	pop	{r4, r5, r6, pc}
   20366:	f8d5 02b4 	ldr.w	r0, [r5, #692]	; 0x2b4
   2036a:	2c01      	cmp	r4, #1
   2036c:	bf0c      	ite	eq
   2036e:	f3c0 4007 	ubfxeq	r0, r0, #16, #8
   20372:	0e00      	lsrne	r0, r0, #24
   20374:	b128      	cbz	r0, 20382 <CPU_ClkGet+0x66>
   20376:	4b08      	ldr	r3, [pc, #32]	; (20398 <CPU_ClkGet+0x7c>)
   20378:	fb03 f000 	mul.w	r0, r3, r0
   2037c:	bd70      	pop	{r4, r5, r6, pc}
   2037e:	4807      	ldr	r0, [pc, #28]	; (2039c <CPU_ClkGet+0x80>)
   20380:	bd70      	pop	{r4, r5, r6, pc}
   20382:	4807      	ldr	r0, [pc, #28]	; (203a0 <CPU_ClkGet+0x84>)
   20384:	bd70      	pop	{r4, r5, r6, pc}
   20386:	bf00      	nop
   20388:	4100c000 	.word	0x4100c000
   2038c:	00025e2d 	.word	0x00025e2d
   20390:	00020281 	.word	0x00020281
   20394:	000202c9 	.word	0x000202c9
   20398:	000f4240 	.word	0x000f4240
   2039c:	003d0900 	.word	0x003d0900
   203a0:	02625a00 	.word	0x02625a00

000203a4 <CRYPTO_MemDump>:
   203a4:	2800      	cmp	r0, #0
   203a6:	d076      	beq.n	20496 <CRYPTO_MemDump+0xf2>
   203a8:	e92d 4ff0 	stmdb	sp!, {r4, r5, r6, r7, r8, r9, sl, fp, lr}
   203ac:	460e      	mov	r6, r1
   203ae:	b083      	sub	sp, #12
   203b0:	b339      	cbz	r1, 20402 <CRYPTO_MemDump+0x5e>
   203b2:	4f39      	ldr	r7, [pc, #228]	; (20498 <CRYPTO_MemDump+0xf4>)
   203b4:	4682      	mov	sl, r0
   203b6:	6838      	ldr	r0, [r7, #0]
   203b8:	2a00      	cmp	r2, #0
   203ba:	d03d      	beq.n	20438 <CRYPTO_MemDump+0x94>
   203bc:	f410 3000 	ands.w	r0, r0, #131072	; 0x20000
   203c0:	d135      	bne.n	2042e <CRYPTO_MemDump+0x8a>
   203c2:	f006 030f 	and.w	r3, r6, #15
   203c6:	0936      	lsrs	r6, r6, #4
   203c8:	f04f 0b00 	mov.w	fp, #0
   203cc:	f8df 90e0 	ldr.w	r9, [pc, #224]	; 204b0 <CRYPTO_MemDump+0x10c>
   203d0:	f106 0801 	add.w	r8, r6, #1
   203d4:	9301      	str	r3, [sp, #4]
   203d6:	45b3      	cmp	fp, r6
   203d8:	d043      	beq.n	20462 <CRYPTO_MemDump+0xbe>
   203da:	2510      	movs	r5, #16
   203dc:	2800      	cmp	r0, #0
   203de:	d145      	bne.n	2046c <CRYPTO_MemDump+0xc8>
   203e0:	2400      	movs	r4, #0
   203e2:	2c08      	cmp	r4, #8
   203e4:	d010      	beq.n	20408 <CRYPTO_MemDump+0x64>
   203e6:	b9c8      	cbnz	r0, 2041c <CRYPTO_MemDump+0x78>
   203e8:	3401      	adds	r4, #1
   203ea:	42a5      	cmp	r5, r4
   203ec:	d1f9      	bne.n	203e2 <CRYPTO_MemDump+0x3e>
   203ee:	2c10      	cmp	r4, #16
   203f0:	d125      	bne.n	2043e <CRYPTO_MemDump+0x9a>
   203f2:	f10b 0b01 	add.w	fp, fp, #1
   203f6:	f10a 0a10 	add.w	sl, sl, #16
   203fa:	45d8      	cmp	r8, fp
   203fc:	dceb      	bgt.n	203d6 <CRYPTO_MemDump+0x32>
   203fe:	2800      	cmp	r0, #0
   20400:	d13c      	bne.n	2047c <CRYPTO_MemDump+0xd8>
   20402:	b003      	add	sp, #12
   20404:	e8bd 8ff0 	ldmia.w	sp!, {r4, r5, r6, r7, r8, r9, sl, fp, pc}
   20408:	2800      	cmp	r0, #0
   2040a:	d0ed      	beq.n	203e8 <CRYPTO_MemDump+0x44>
   2040c:	4823      	ldr	r0, [pc, #140]	; (2049c <CRYPTO_MemDump+0xf8>)
   2040e:	f007 ffdd 	bl	283cc <DiagPrintf>
   20412:	6838      	ldr	r0, [r7, #0]
   20414:	f400 3000 	and.w	r0, r0, #131072	; 0x20000
   20418:	2800      	cmp	r0, #0
   2041a:	d0e5      	beq.n	203e8 <CRYPTO_MemDump+0x44>
   2041c:	f81a 1004 	ldrb.w	r1, [sl, r4]
   20420:	4648      	mov	r0, r9
   20422:	f007 ffd3 	bl	283cc <DiagPrintf>
   20426:	6838      	ldr	r0, [r7, #0]
   20428:	f400 3000 	and.w	r0, r0, #131072	; 0x20000
   2042c:	e7dc      	b.n	203e8 <CRYPTO_MemDump+0x44>
   2042e:	4611      	mov	r1, r2
   20430:	481b      	ldr	r0, [pc, #108]	; (204a0 <CRYPTO_MemDump+0xfc>)
   20432:	f007 ffcb 	bl	283cc <DiagPrintf>
   20436:	6838      	ldr	r0, [r7, #0]
   20438:	f400 3000 	and.w	r0, r0, #131072	; 0x20000
   2043c:	e7c1      	b.n	203c2 <CRYPTO_MemDump+0x1e>
   2043e:	2c07      	cmp	r4, #7
   20440:	dc00      	bgt.n	20444 <CRYPTO_MemDump+0xa0>
   20442:	bb08      	cbnz	r0, 20488 <CRYPTO_MemDump+0xe4>
   20444:	f1c4 0410 	rsb	r4, r4, #16
   20448:	4d16      	ldr	r5, [pc, #88]	; (204a4 <CRYPTO_MemDump+0x100>)
   2044a:	b918      	cbnz	r0, 20454 <CRYPTO_MemDump+0xb0>
   2044c:	3c01      	subs	r4, #1
   2044e:	d0d0      	beq.n	203f2 <CRYPTO_MemDump+0x4e>
   20450:	2800      	cmp	r0, #0
   20452:	d0fb      	beq.n	2044c <CRYPTO_MemDump+0xa8>
   20454:	4628      	mov	r0, r5
   20456:	f007 ffb9 	bl	283cc <DiagPrintf>
   2045a:	6838      	ldr	r0, [r7, #0]
   2045c:	f400 3000 	and.w	r0, r0, #131072	; 0x20000
   20460:	e7f4      	b.n	2044c <CRYPTO_MemDump+0xa8>
   20462:	9d01      	ldr	r5, [sp, #4]
   20464:	2d00      	cmp	r5, #0
   20466:	d0ca      	beq.n	203fe <CRYPTO_MemDump+0x5a>
   20468:	2800      	cmp	r0, #0
   2046a:	d0b9      	beq.n	203e0 <CRYPTO_MemDump+0x3c>
   2046c:	4651      	mov	r1, sl
   2046e:	480e      	ldr	r0, [pc, #56]	; (204a8 <CRYPTO_MemDump+0x104>)
   20470:	f007 ffac 	bl	283cc <DiagPrintf>
   20474:	6838      	ldr	r0, [r7, #0]
   20476:	f400 3000 	and.w	r0, r0, #131072	; 0x20000
   2047a:	e7b1      	b.n	203e0 <CRYPTO_MemDump+0x3c>
   2047c:	480b      	ldr	r0, [pc, #44]	; (204ac <CRYPTO_MemDump+0x108>)
   2047e:	b003      	add	sp, #12
   20480:	e8bd 4ff0 	ldmia.w	sp!, {r4, r5, r6, r7, r8, r9, sl, fp, lr}
   20484:	f007 bfa2 	b.w	283cc <DiagPrintf>
   20488:	4804      	ldr	r0, [pc, #16]	; (2049c <CRYPTO_MemDump+0xf8>)
   2048a:	f007 ff9f 	bl	283cc <DiagPrintf>
   2048e:	6838      	ldr	r0, [r7, #0]
   20490:	f400 3000 	and.w	r0, r0, #131072	; 0x20000
   20494:	e7d6      	b.n	20444 <CRYPTO_MemDump+0xa0>
   20496:	4770      	bx	lr
   20498:	20004004 	.word	0x20004004
   2049c:	00041580 	.word	0x00041580
   204a0:	00041570 	.word	0x00041570
   204a4:	0004158c 	.word	0x0004158c
   204a8:	00041574 	.word	0x00041574
   204ac:	00041594 	.word	0x00041594
   204b0:	00041584 	.word	0x00041584

000204b4 <CRYPTO_SetSrcDesc>:
   204b4:	b570      	push	{r4, r5, r6, lr}
   204b6:	4606      	mov	r6, r0
   204b8:	460d      	mov	r5, r1
   204ba:	b9ca      	cbnz	r2, 204f0 <CRYPTO_SetSrcDesc+0x3c>
   204bc:	4a19      	ldr	r2, [pc, #100]	; (20524 <CRYPTO_SetSrcDesc+0x70>)
   204be:	4b1a      	ldr	r3, [pc, #104]	; (20528 <CRYPTO_SetSrcDesc+0x74>)
   204c0:	e843 f300 	tt	r3, r3
   204c4:	f413 0f80 	tst.w	r3, #4194304	; 0x400000
   204c8:	4c18      	ldr	r4, [pc, #96]	; (2052c <CRYPTO_SetSrcDesc+0x78>)
   204ca:	bf18      	it	ne
   204cc:	4614      	movne	r4, r2
   204ce:	f44f 1c80 	mov.w	ip, #1048576	; 0x100000
   204d2:	e002      	b.n	204da <CRYPTO_SetSrcDesc+0x26>
   204d4:	f1bc 0c01 	subs.w	ip, ip, #1
   204d8:	d01a      	beq.n	20510 <CRYPTO_SetSrcDesc+0x5c>
   204da:	6823      	ldr	r3, [r4, #0]
   204dc:	b2db      	uxtb	r3, r3
   204de:	2b00      	cmp	r3, #0
   204e0:	d0f8      	beq.n	204d4 <CRYPTO_SetSrcDesc+0x20>
   204e2:	4b13      	ldr	r3, [pc, #76]	; (20530 <CRYPTO_SetSrcDesc+0x7c>)
   204e4:	689b      	ldr	r3, [r3, #8]
   204e6:	049a      	lsls	r2, r3, #18
   204e8:	d40c      	bmi.n	20504 <CRYPTO_SetSrcDesc+0x50>
   204ea:	6066      	str	r6, [r4, #4]
   204ec:	60a5      	str	r5, [r4, #8]
   204ee:	bd70      	pop	{r4, r5, r6, pc}
   204f0:	4a10      	ldr	r2, [pc, #64]	; (20534 <CRYPTO_SetSrcDesc+0x80>)
   204f2:	4b0d      	ldr	r3, [pc, #52]	; (20528 <CRYPTO_SetSrcDesc+0x74>)
   204f4:	e843 f300 	tt	r3, r3
   204f8:	f413 0f80 	tst.w	r3, #4194304	; 0x400000
   204fc:	4c0e      	ldr	r4, [pc, #56]	; (20538 <CRYPTO_SetSrcDesc+0x84>)
   204fe:	bf18      	it	ne
   20500:	4614      	movne	r4, r2
   20502:	e7e4      	b.n	204ce <CRYPTO_SetSrcDesc+0x1a>
   20504:	462a      	mov	r2, r5
   20506:	4631      	mov	r1, r6
   20508:	480c      	ldr	r0, [pc, #48]	; (2053c <CRYPTO_SetSrcDesc+0x88>)
   2050a:	f007 ff5f 	bl	283cc <DiagPrintf>
   2050e:	e7ec      	b.n	204ea <CRYPTO_SetSrcDesc+0x36>
   20510:	4b07      	ldr	r3, [pc, #28]	; (20530 <CRYPTO_SetSrcDesc+0x7c>)
   20512:	681b      	ldr	r3, [r3, #0]
   20514:	049b      	lsls	r3, r3, #18
   20516:	d5ea      	bpl.n	204ee <CRYPTO_SetSrcDesc+0x3a>
   20518:	4809      	ldr	r0, [pc, #36]	; (20540 <CRYPTO_SetSrcDesc+0x8c>)
   2051a:	e8bd 4070 	ldmia.w	sp!, {r4, r5, r6, lr}
   2051e:	f007 bf55 	b.w	283cc <DiagPrintf>
   20522:	bf00      	nop
   20524:	50100000 	.word	0x50100000
   20528:	000283cd 	.word	0x000283cd
   2052c:	40100000 	.word	0x40100000
   20530:	20004004 	.word	0x20004004
   20534:	50108000 	.word	0x50108000
   20538:	40108000 	.word	0x40108000
   2053c:	00041598 	.word	0x00041598
   20540:	000415cc 	.word	0x000415cc

00020544 <CRYPTO_SetDstDesc>:
   20544:	b570      	push	{r4, r5, r6, lr}
   20546:	4606      	mov	r6, r0
   20548:	460d      	mov	r5, r1
   2054a:	b9fa      	cbnz	r2, 2058c <CRYPTO_SetDstDesc+0x48>
   2054c:	4a18      	ldr	r2, [pc, #96]	; (205b0 <CRYPTO_SetDstDesc+0x6c>)
   2054e:	4b19      	ldr	r3, [pc, #100]	; (205b4 <CRYPTO_SetDstDesc+0x70>)
   20550:	e843 f300 	tt	r3, r3
   20554:	f413 0f80 	tst.w	r3, #4194304	; 0x400000
   20558:	4c17      	ldr	r4, [pc, #92]	; (205b8 <CRYPTO_SetDstDesc+0x74>)
   2055a:	bf18      	it	ne
   2055c:	4614      	movne	r4, r2
   2055e:	f504 5480 	add.w	r4, r4, #4096	; 0x1000
   20562:	6823      	ldr	r3, [r4, #0]
   20564:	b2db      	uxtb	r3, r3
   20566:	b133      	cbz	r3, 20576 <CRYPTO_SetDstDesc+0x32>
   20568:	4b14      	ldr	r3, [pc, #80]	; (205bc <CRYPTO_SetDstDesc+0x78>)
   2056a:	689b      	ldr	r3, [r3, #8]
   2056c:	049a      	lsls	r2, r3, #18
   2056e:	d417      	bmi.n	205a0 <CRYPTO_SetDstDesc+0x5c>
   20570:	6066      	str	r6, [r4, #4]
   20572:	60a5      	str	r5, [r4, #8]
   20574:	bd70      	pop	{r4, r5, r6, pc}
   20576:	4b11      	ldr	r3, [pc, #68]	; (205bc <CRYPTO_SetDstDesc+0x78>)
   20578:	681b      	ldr	r3, [r3, #0]
   2057a:	049b      	lsls	r3, r3, #18
   2057c:	d5fa      	bpl.n	20574 <CRYPTO_SetDstDesc+0x30>
   2057e:	6821      	ldr	r1, [r4, #0]
   20580:	480f      	ldr	r0, [pc, #60]	; (205c0 <CRYPTO_SetDstDesc+0x7c>)
   20582:	b2c9      	uxtb	r1, r1
   20584:	e8bd 4070 	ldmia.w	sp!, {r4, r5, r6, lr}
   20588:	f007 bf20 	b.w	283cc <DiagPrintf>
   2058c:	4a0d      	ldr	r2, [pc, #52]	; (205c4 <CRYPTO_SetDstDesc+0x80>)
   2058e:	4b09      	ldr	r3, [pc, #36]	; (205b4 <CRYPTO_SetDstDesc+0x70>)
   20590:	e843 f300 	tt	r3, r3
   20594:	f413 0f80 	tst.w	r3, #4194304	; 0x400000
   20598:	4c0b      	ldr	r4, [pc, #44]	; (205c8 <CRYPTO_SetDstDesc+0x84>)
   2059a:	bf18      	it	ne
   2059c:	4614      	movne	r4, r2
   2059e:	e7de      	b.n	2055e <CRYPTO_SetDstDesc+0x1a>
   205a0:	462a      	mov	r2, r5
   205a2:	4631      	mov	r1, r6
   205a4:	4809      	ldr	r0, [pc, #36]	; (205cc <CRYPTO_SetDstDesc+0x88>)
   205a6:	f007 ff11 	bl	283cc <DiagPrintf>
   205aa:	6066      	str	r6, [r4, #4]
   205ac:	60a5      	str	r5, [r4, #8]
   205ae:	e7e1      	b.n	20574 <CRYPTO_SetDstDesc+0x30>
   205b0:	50100000 	.word	0x50100000
   205b4:	000283cd 	.word	0x000283cd
   205b8:	40100000 	.word	0x40100000
   205bc:	20004004 	.word	0x20004004
   205c0:	00041638 	.word	0x00041638
   205c4:	50108000 	.word	0x50108000
   205c8:	40108000 	.word	0x40108000
   205cc:	00041604 	.word	0x00041604

000205d0 <CRYPTO_CleanCmdOk>:
   205d0:	b9a0      	cbnz	r0, 205fc <CRYPTO_CleanCmdOk+0x2c>
   205d2:	490f      	ldr	r1, [pc, #60]	; (20610 <CRYPTO_CleanCmdOk+0x40>)
   205d4:	4a0f      	ldr	r2, [pc, #60]	; (20614 <CRYPTO_CleanCmdOk+0x44>)
   205d6:	e842 f200 	tt	r2, r2
   205da:	f412 0f80 	tst.w	r2, #4194304	; 0x400000
   205de:	4b0e      	ldr	r3, [pc, #56]	; (20618 <CRYPTO_CleanCmdOk+0x48>)
   205e0:	bf18      	it	ne
   205e2:	460b      	movne	r3, r1
   205e4:	691a      	ldr	r2, [r3, #16]
   205e6:	6919      	ldr	r1, [r3, #16]
   205e8:	0212      	lsls	r2, r2, #8
   205ea:	f402 027f 	and.w	r2, r2, #16711680	; 0xff0000
   205ee:	430a      	orrs	r2, r1
   205f0:	611a      	str	r2, [r3, #16]
   205f2:	691a      	ldr	r2, [r3, #16]
   205f4:	f042 0210 	orr.w	r2, r2, #16
   205f8:	611a      	str	r2, [r3, #16]
   205fa:	4770      	bx	lr
   205fc:	4907      	ldr	r1, [pc, #28]	; (2061c <CRYPTO_CleanCmdOk+0x4c>)
   205fe:	4a05      	ldr	r2, [pc, #20]	; (20614 <CRYPTO_CleanCmdOk+0x44>)
   20600:	e842 f200 	tt	r2, r2
   20604:	f412 0f80 	tst.w	r2, #4194304	; 0x400000
   20608:	4b05      	ldr	r3, [pc, #20]	; (20620 <CRYPTO_CleanCmdOk+0x50>)
   2060a:	bf18      	it	ne
   2060c:	460b      	movne	r3, r1
   2060e:	e7e9      	b.n	205e4 <CRYPTO_CleanCmdOk+0x14>
   20610:	50100000 	.word	0x50100000
   20614:	000283cd 	.word	0x000283cd
   20618:	40100000 	.word	0x40100000
   2061c:	50108000 	.word	0x50108000
   20620:	40108000 	.word	0x40108000

00020624 <CRYPTO_ClearAllINT>:
   20624:	b508      	push	{r3, lr}
   20626:	b970      	cbnz	r0, 20646 <CRYPTO_ClearAllINT+0x22>
   20628:	490c      	ldr	r1, [pc, #48]	; (2065c <CRYPTO_ClearAllINT+0x38>)
   2062a:	4a0d      	ldr	r2, [pc, #52]	; (20660 <CRYPTO_ClearAllINT+0x3c>)
   2062c:	e842 f200 	tt	r2, r2
   20630:	f412 0f80 	tst.w	r2, #4194304	; 0x400000
   20634:	4b0b      	ldr	r3, [pc, #44]	; (20664 <CRYPTO_ClearAllINT+0x40>)
   20636:	bf18      	it	ne
   20638:	460b      	movne	r3, r1
   2063a:	f64f 71ff 	movw	r1, #65535	; 0xffff
   2063e:	4a0a      	ldr	r2, [pc, #40]	; (20668 <CRYPTO_ClearAllINT+0x44>)
   20640:	61d9      	str	r1, [r3, #28]
   20642:	4790      	blx	r2
   20644:	bd08      	pop	{r3, pc}
   20646:	4909      	ldr	r1, [pc, #36]	; (2066c <CRYPTO_ClearAllINT+0x48>)
   20648:	4a05      	ldr	r2, [pc, #20]	; (20660 <CRYPTO_ClearAllINT+0x3c>)
   2064a:	e842 f200 	tt	r2, r2
   2064e:	f412 0f80 	tst.w	r2, #4194304	; 0x400000
   20652:	4b07      	ldr	r3, [pc, #28]	; (20670 <CRYPTO_ClearAllINT+0x4c>)
   20654:	bf18      	it	ne
   20656:	460b      	movne	r3, r1
   20658:	e7ef      	b.n	2063a <CRYPTO_ClearAllINT+0x16>
   2065a:	bf00      	nop
   2065c:	50100000 	.word	0x50100000
   20660:	000283cd 	.word	0x000283cd
   20664:	40100000 	.word	0x40100000
   20668:	000205d1 	.word	0x000205d1
   2066c:	50108000 	.word	0x50108000
   20670:	40108000 	.word	0x40108000

00020674 <CRYPTO_SetCmdBuf>:
   20674:	b570      	push	{r4, r5, r6, lr}
   20676:	4604      	mov	r4, r0
   20678:	4ba7      	ldr	r3, [pc, #668]	; (20918 <CRYPTO_SetCmdBuf+0x2a4>)
   2067a:	2220      	movs	r2, #32
   2067c:	2100      	movs	r1, #0
   2067e:	f500 70c4 	add.w	r0, r0, #392	; 0x188
   20682:	6ce6      	ldr	r6, [r4, #76]	; 0x4c
   20684:	6d65      	ldr	r5, [r4, #84]	; 0x54
   20686:	4798      	blx	r3
   20688:	68e3      	ldr	r3, [r4, #12]
   2068a:	3301      	adds	r3, #1
   2068c:	d066      	beq.n	2075c <CRYPTO_SetCmdBuf+0xe8>
   2068e:	f894 318a 	ldrb.w	r3, [r4, #394]	; 0x18a
   20692:	f894 202c 	ldrb.w	r2, [r4, #44]	; 0x2c
   20696:	f023 037c 	bic.w	r3, r3, #124	; 0x7c
   2069a:	2a01      	cmp	r2, #1
   2069c:	f043 0344 	orr.w	r3, r3, #68	; 0x44
   206a0:	f884 318a 	strb.w	r3, [r4, #394]	; 0x18a
   206a4:	d04d      	beq.n	20742 <CRYPTO_SetCmdBuf+0xce>
   206a6:	7c63      	ldrb	r3, [r4, #17]
   206a8:	7c22      	ldrb	r2, [r4, #16]
   206aa:	b303      	cbz	r3, 206ee <CRYPTO_SetCmdBuf+0x7a>
   206ac:	f894 318f 	ldrb.w	r3, [r4, #399]	; 0x18f
   206b0:	f063 0355 	orn	r3, r3, #85	; 0x55
   206b4:	f884 318f 	strb.w	r3, [r4, #399]	; 0x18f
   206b8:	2a00      	cmp	r2, #0
   206ba:	f000 809c 	beq.w	207f6 <CRYPTO_SetCmdBuf+0x182>
   206be:	f894 3189 	ldrb.w	r3, [r4, #393]	; 0x189
   206c2:	f894 202d 	ldrb.w	r2, [r4, #45]	; 0x2d
   206c6:	f043 0320 	orr.w	r3, r3, #32
   206ca:	2a01      	cmp	r2, #1
   206cc:	f884 3189 	strb.w	r3, [r4, #393]	; 0x189
   206d0:	f000 80f3 	beq.w	208ba <CRYPTO_SetCmdBuf+0x246>
   206d4:	09ad      	lsrs	r5, r5, #6
   206d6:	f8a4 5192 	strh.w	r5, [r4, #402]	; 0x192
   206da:	f894 318a 	ldrb.w	r3, [r4, #394]	; 0x18a
   206de:	f003 037d 	and.w	r3, r3, #125	; 0x7d
   206e2:	f884 318a 	strb.w	r3, [r4, #394]	; 0x18a
   206e6:	2340      	movs	r3, #64	; 0x40
   206e8:	f884 318b 	strb.w	r3, [r4, #395]	; 0x18b
   206ec:	bd70      	pop	{r4, r5, r6, pc}
   206ee:	7ca3      	ldrb	r3, [r4, #18]
   206f0:	2b00      	cmp	r3, #0
   206f2:	d176      	bne.n	207e2 <CRYPTO_SetCmdBuf+0x16e>
   206f4:	7d23      	ldrb	r3, [r4, #20]
   206f6:	2b00      	cmp	r3, #0
   206f8:	d0de      	beq.n	206b8 <CRYPTO_SetCmdBuf+0x44>
   206fa:	2b1c      	cmp	r3, #28
   206fc:	f000 80ef 	beq.w	208de <CRYPTO_SetCmdBuf+0x26a>
   20700:	2b20      	cmp	r3, #32
   20702:	f000 8099 	beq.w	20838 <CRYPTO_SetCmdBuf+0x1c4>
   20706:	2b30      	cmp	r3, #48	; 0x30
   20708:	f000 80a1 	beq.w	2084e <CRYPTO_SetCmdBuf+0x1da>
   2070c:	2b40      	cmp	r3, #64	; 0x40
   2070e:	d1d3      	bne.n	206b8 <CRYPTO_SetCmdBuf+0x44>
   20710:	f8d4 3188 	ldr.w	r3, [r4, #392]	; 0x188
   20714:	2105      	movs	r1, #5
   20716:	f361 3390 	bfi	r3, r1, #14, #3
   2071a:	f8c4 3188 	str.w	r3, [r4, #392]	; 0x188
   2071e:	2a00      	cmp	r2, #0
   20720:	f000 809f 	beq.w	20862 <CRYPTO_SetCmdBuf+0x1ee>
   20724:	f894 3189 	ldrb.w	r3, [r4, #393]	; 0x189
   20728:	f894 202d 	ldrb.w	r2, [r4, #45]	; 0x2d
   2072c:	f043 0320 	orr.w	r3, r3, #32
   20730:	2a01      	cmp	r2, #1
   20732:	f884 3189 	strb.w	r3, [r4, #393]	; 0x189
   20736:	f000 80dd 	beq.w	208f4 <CRYPTO_SetCmdBuf+0x280>
   2073a:	09ed      	lsrs	r5, r5, #7
   2073c:	f8a4 5192 	strh.w	r5, [r4, #402]	; 0x192
   20740:	e7cb      	b.n	206da <CRYPTO_SetCmdBuf+0x66>
   20742:	b2db      	uxtb	r3, r3
   20744:	2200      	movs	r2, #0
   20746:	f043 0320 	orr.w	r3, r3, #32
   2074a:	f884 202c 	strb.w	r2, [r4, #44]	; 0x2c
   2074e:	7c22      	ldrb	r2, [r4, #16]
   20750:	f884 318a 	strb.w	r3, [r4, #394]	; 0x18a
   20754:	7c63      	ldrb	r3, [r4, #17]
   20756:	2b00      	cmp	r3, #0
   20758:	d0c9      	beq.n	206ee <CRYPTO_SetCmdBuf+0x7a>
   2075a:	e7a7      	b.n	206ac <CRYPTO_SetCmdBuf+0x38>
   2075c:	f894 2188 	ldrb.w	r2, [r4, #392]	; 0x188
   20760:	6863      	ldr	r3, [r4, #4]
   20762:	f363 0203 	bfi	r2, r3, #0, #4
   20766:	f884 2188 	strb.w	r2, [r4, #392]	; 0x188
   2076a:	7a22      	ldrb	r2, [r4, #8]
   2076c:	b362      	cbz	r2, 207c8 <CRYPTO_SetCmdBuf+0x154>
   2076e:	f894 2188 	ldrb.w	r2, [r4, #392]	; 0x188
   20772:	f36f 1205 	bfc	r2, #4, #2
   20776:	f884 2188 	strb.w	r2, [r4, #392]	; 0x188
   2077a:	6c62      	ldr	r2, [r4, #68]	; 0x44
   2077c:	2a18      	cmp	r2, #24
   2077e:	f000 8085 	beq.w	2088c <CRYPTO_SetCmdBuf+0x218>
   20782:	2a20      	cmp	r2, #32
   20784:	f000 808a 	beq.w	2089c <CRYPTO_SetCmdBuf+0x228>
   20788:	2a10      	cmp	r2, #16
   2078a:	f000 808f 	beq.w	208ac <CRYPTO_SetCmdBuf+0x238>
   2078e:	f894 218c 	ldrb.w	r2, [r4, #396]	; 0x18c
   20792:	350f      	adds	r5, #15
   20794:	f003 030f 	and.w	r3, r3, #15
   20798:	69a1      	ldr	r1, [r4, #24]
   2079a:	092d      	lsrs	r5, r5, #4
   2079c:	f361 1207 	bfi	r2, r1, #4, #4
   207a0:	2b08      	cmp	r3, #8
   207a2:	f8a4 5192 	strh.w	r5, [r4, #402]	; 0x192
   207a6:	f884 218c 	strb.w	r2, [r4, #396]	; 0x18c
   207aa:	d10d      	bne.n	207c8 <CRYPTO_SetCmdBuf+0x154>
   207ac:	360f      	adds	r6, #15
   207ae:	f894 3191 	ldrb.w	r3, [r4, #401]	; 0x191
   207b2:	b2d2      	uxtb	r2, r2
   207b4:	69e1      	ldr	r1, [r4, #28]
   207b6:	0936      	lsrs	r6, r6, #4
   207b8:	f361 0203 	bfi	r2, r1, #0, #4
   207bc:	f366 0305 	bfi	r3, r6, #0, #6
   207c0:	f884 218c 	strb.w	r2, [r4, #396]	; 0x18c
   207c4:	f884 3191 	strb.w	r3, [r4, #401]	; 0x191
   207c8:	7a63      	ldrb	r3, [r4, #9]
   207ca:	2b00      	cmp	r3, #0
   207cc:	d18b      	bne.n	206e6 <CRYPTO_SetCmdBuf+0x72>
   207ce:	f894 3188 	ldrb.w	r3, [r4, #392]	; 0x188
   207d2:	f043 0380 	orr.w	r3, r3, #128	; 0x80
   207d6:	f884 3188 	strb.w	r3, [r4, #392]	; 0x188
   207da:	2340      	movs	r3, #64	; 0x40
   207dc:	f884 318b 	strb.w	r3, [r4, #395]	; 0x18b
   207e0:	bd70      	pop	{r4, r5, r6, pc}
   207e2:	f8d4 3188 	ldr.w	r3, [r4, #392]	; 0x188
   207e6:	2101      	movs	r1, #1
   207e8:	f361 3390 	bfi	r3, r1, #14, #3
   207ec:	f8c4 3188 	str.w	r3, [r4, #392]	; 0x188
   207f0:	2a00      	cmp	r2, #0
   207f2:	f47f af64 	bne.w	206be <CRYPTO_SetCmdBuf+0x4a>
   207f6:	f894 302d 	ldrb.w	r3, [r4, #45]	; 0x2d
   207fa:	2b01      	cmp	r3, #1
   207fc:	f47f af6a 	bne.w	206d4 <CRYPTO_SetCmdBuf+0x60>
   20800:	f894 118c 	ldrb.w	r1, [r4, #396]	; 0x18c
   20804:	f105 020f 	add.w	r2, r5, #15
   20808:	69a0      	ldr	r0, [r4, #24]
   2080a:	6b23      	ldr	r3, [r4, #48]	; 0x30
   2080c:	0912      	lsrs	r2, r2, #4
   2080e:	f360 1107 	bfi	r1, r0, #4, #4
   20812:	00db      	lsls	r3, r3, #3
   20814:	f8a4 2192 	strh.w	r2, [r4, #402]	; 0x192
   20818:	f884 118c 	strb.w	r1, [r4, #396]	; 0x18c
   2081c:	f8c4 3194 	str.w	r3, [r4, #404]	; 0x194
   20820:	f894 318a 	ldrb.w	r3, [r4, #394]	; 0x18a
   20824:	f003 037d 	and.w	r3, r3, #125	; 0x7d
   20828:	f043 0302 	orr.w	r3, r3, #2
   2082c:	f884 318a 	strb.w	r3, [r4, #394]	; 0x18a
   20830:	2340      	movs	r3, #64	; 0x40
   20832:	f884 318b 	strb.w	r3, [r4, #395]	; 0x18b
   20836:	bd70      	pop	{r4, r5, r6, pc}
   20838:	f8d4 3188 	ldr.w	r3, [r4, #392]	; 0x188
   2083c:	2103      	movs	r1, #3
   2083e:	f361 3390 	bfi	r3, r1, #14, #3
   20842:	f8c4 3188 	str.w	r3, [r4, #392]	; 0x188
   20846:	2a00      	cmp	r2, #0
   20848:	f47f af39 	bne.w	206be <CRYPTO_SetCmdBuf+0x4a>
   2084c:	e7d3      	b.n	207f6 <CRYPTO_SetCmdBuf+0x182>
   2084e:	f8d4 3188 	ldr.w	r3, [r4, #392]	; 0x188
   20852:	2104      	movs	r1, #4
   20854:	f361 3390 	bfi	r3, r1, #14, #3
   20858:	f8c4 3188 	str.w	r3, [r4, #392]	; 0x188
   2085c:	2a00      	cmp	r2, #0
   2085e:	f47f af61 	bne.w	20724 <CRYPTO_SetCmdBuf+0xb0>
   20862:	f894 302d 	ldrb.w	r3, [r4, #45]	; 0x2d
   20866:	2b01      	cmp	r3, #1
   20868:	f47f af67 	bne.w	2073a <CRYPTO_SetCmdBuf+0xc6>
   2086c:	f894 218c 	ldrb.w	r2, [r4, #396]	; 0x18c
   20870:	350f      	adds	r5, #15
   20872:	69a1      	ldr	r1, [r4, #24]
   20874:	6b23      	ldr	r3, [r4, #48]	; 0x30
   20876:	092d      	lsrs	r5, r5, #4
   20878:	f361 1207 	bfi	r2, r1, #4, #4
   2087c:	00db      	lsls	r3, r3, #3
   2087e:	f8a4 5192 	strh.w	r5, [r4, #402]	; 0x192
   20882:	f884 218c 	strb.w	r2, [r4, #396]	; 0x18c
   20886:	f8c4 3194 	str.w	r3, [r4, #404]	; 0x194
   2088a:	e7c9      	b.n	20820 <CRYPTO_SetCmdBuf+0x1ac>
   2088c:	f894 2189 	ldrb.w	r2, [r4, #393]	; 0x189
   20890:	2101      	movs	r1, #1
   20892:	f361 0201 	bfi	r2, r1, #0, #2
   20896:	f884 2189 	strb.w	r2, [r4, #393]	; 0x189
   2089a:	e778      	b.n	2078e <CRYPTO_SetCmdBuf+0x11a>
   2089c:	f894 2189 	ldrb.w	r2, [r4, #393]	; 0x189
   208a0:	2102      	movs	r1, #2
   208a2:	f361 0201 	bfi	r2, r1, #0, #2
   208a6:	f884 2189 	strb.w	r2, [r4, #393]	; 0x189
   208aa:	e770      	b.n	2078e <CRYPTO_SetCmdBuf+0x11a>
   208ac:	f894 2189 	ldrb.w	r2, [r4, #393]	; 0x189
   208b0:	f36f 0201 	bfc	r2, #0, #2
   208b4:	f884 2189 	strb.w	r2, [r4, #393]	; 0x189
   208b8:	e769      	b.n	2078e <CRYPTO_SetCmdBuf+0x11a>
   208ba:	6b23      	ldr	r3, [r4, #48]	; 0x30
   208bc:	350f      	adds	r5, #15
   208be:	f894 218c 	ldrb.w	r2, [r4, #396]	; 0x18c
   208c2:	69a1      	ldr	r1, [r4, #24]
   208c4:	00db      	lsls	r3, r3, #3
   208c6:	092d      	lsrs	r5, r5, #4
   208c8:	f361 1207 	bfi	r2, r1, #4, #4
   208cc:	f503 7300 	add.w	r3, r3, #512	; 0x200
   208d0:	f8a4 5192 	strh.w	r5, [r4, #402]	; 0x192
   208d4:	f884 218c 	strb.w	r2, [r4, #396]	; 0x18c
   208d8:	f8c4 3194 	str.w	r3, [r4, #404]	; 0x194
   208dc:	e7a0      	b.n	20820 <CRYPTO_SetCmdBuf+0x1ac>
   208de:	f8d4 3188 	ldr.w	r3, [r4, #392]	; 0x188
   208e2:	2102      	movs	r1, #2
   208e4:	f361 3390 	bfi	r3, r1, #14, #3
   208e8:	f8c4 3188 	str.w	r3, [r4, #392]	; 0x188
   208ec:	2a00      	cmp	r2, #0
   208ee:	f47f aee6 	bne.w	206be <CRYPTO_SetCmdBuf+0x4a>
   208f2:	e780      	b.n	207f6 <CRYPTO_SetCmdBuf+0x182>
   208f4:	6b23      	ldr	r3, [r4, #48]	; 0x30
   208f6:	350f      	adds	r5, #15
   208f8:	f894 218c 	ldrb.w	r2, [r4, #396]	; 0x18c
   208fc:	69a1      	ldr	r1, [r4, #24]
   208fe:	00db      	lsls	r3, r3, #3
   20900:	092d      	lsrs	r5, r5, #4
   20902:	f361 1207 	bfi	r2, r1, #4, #4
   20906:	f503 6380 	add.w	r3, r3, #1024	; 0x400
   2090a:	f8a4 5192 	strh.w	r5, [r4, #402]	; 0x192
   2090e:	f884 218c 	strb.w	r2, [r4, #396]	; 0x18c
   20912:	f8c4 3194 	str.w	r3, [r4, #404]	; 0x194
   20916:	e783      	b.n	20820 <CRYPTO_SetCmdBuf+0x1ac>
   20918:	000290e5 	.word	0x000290e5

0002091c <CRYPTO_SrcDescKeyIv>:
   2091c:	e92d 4ff0 	stmdb	sp!, {r4, r5, r6, r7, r8, r9, sl, fp, lr}
   20920:	461d      	mov	r5, r3
   20922:	f890 302d 	ldrb.w	r3, [r0, #45]	; 0x2d
   20926:	b083      	sub	sp, #12
   20928:	f04f 0a00 	mov.w	sl, #0
   2092c:	3b00      	subs	r3, #0
   2092e:	4604      	mov	r4, r0
   20930:	460e      	mov	r6, r1
   20932:	4617      	mov	r7, r2
   20934:	bf18      	it	ne
   20936:	2301      	movne	r3, #1
   20938:	f8dd 8030 	ldr.w	r8, [sp, #48]	; 0x30
   2093c:	f504 7bc4 	add.w	fp, r4, #392	; 0x188
   20940:	019b      	lsls	r3, r3, #6
   20942:	f443 43c6 	orr.w	r3, r3, #25344	; 0x6300
   20946:	f363 4a1f 	bfi	sl, r3, #16, #16
   2094a:	f7ff fe93 	bl	20674 <CRYPTO_SetCmdBuf>
   2094e:	4bb5      	ldr	r3, [pc, #724]	; (20c24 <CRYPTO_SrcDescKeyIv+0x308>)
   20950:	695b      	ldr	r3, [r3, #20]
   20952:	03d8      	lsls	r0, r3, #15
   20954:	d516      	bpl.n	20984 <CRYPTO_SrcDescKeyIv+0x68>
   20956:	f01b 0f1f 	tst.w	fp, #31
   2095a:	f040 80c7 	bne.w	20aec <CRYPTO_SrcDescKeyIv+0x1d0>
   2095e:	f3bf 8f4f 	dsb	sy
   20962:	2120      	movs	r1, #32
   20964:	465a      	mov	r2, fp
   20966:	4411      	add	r1, r2
   20968:	f102 0320 	add.w	r3, r2, #32
   2096c:	48ad      	ldr	r0, [pc, #692]	; (20c24 <CRYPTO_SrcDescKeyIv+0x308>)
   2096e:	428b      	cmp	r3, r1
   20970:	f8c0 2270 	str.w	r2, [r0, #624]	; 0x270
   20974:	461a      	mov	r2, r3
   20976:	f103 0320 	add.w	r3, r3, #32
   2097a:	d1f8      	bne.n	2096e <CRYPTO_SrcDescKeyIv+0x52>
   2097c:	f3bf 8f4f 	dsb	sy
   20980:	f3bf 8f6f 	isb	sy
   20984:	f8df 92b8 	ldr.w	r9, [pc, #696]	; 20c40 <CRYPTO_SrcDescKeyIv+0x324>
   20988:	f8d9 3008 	ldr.w	r3, [r9, #8]
   2098c:	0499      	lsls	r1, r3, #18
   2098e:	f100 8122 	bmi.w	20bd6 <CRYPTO_SrcDescKeyIv+0x2ba>
   20992:	4659      	mov	r1, fp
   20994:	4650      	mov	r0, sl
   20996:	4642      	mov	r2, r8
   20998:	f7ff fd8c 	bl	204b4 <CRYPTO_SetSrcDesc>
   2099c:	6863      	ldr	r3, [r4, #4]
   2099e:	3301      	adds	r3, #1
   209a0:	d037      	beq.n	20a12 <CRYPTO_SrcDescKeyIv+0xf6>
   209a2:	48a0      	ldr	r0, [pc, #640]	; (20c24 <CRYPTO_SrcDescKeyIv+0x308>)
   209a4:	2100      	movs	r1, #0
   209a6:	6c63      	ldr	r3, [r4, #68]	; 0x44
   209a8:	6942      	ldr	r2, [r0, #20]
   209aa:	f3c3 0b83 	ubfx	fp, r3, #2, #4
   209ae:	f8d4 a048 	ldr.w	sl, [r4, #72]	; 0x48
   209b2:	03d2      	lsls	r2, r2, #15
   209b4:	f04b 4bc0 	orr.w	fp, fp, #1610612736	; 0x60000000
   209b8:	d521      	bpl.n	209fe <CRYPTO_SrcDescKeyIv+0xe2>
   209ba:	ea0a 0203 	and.w	r2, sl, r3
   209be:	3201      	adds	r2, #1
   209c0:	f000 8169 	beq.w	20c96 <CRYPTO_SrcDescKeyIv+0x37a>
   209c4:	f01a 0f1f 	tst.w	sl, #31
   209c8:	f040 814f 	bne.w	20c6a <CRYPTO_SrcDescKeyIv+0x34e>
   209cc:	461a      	mov	r2, r3
   209ce:	4650      	mov	r0, sl
   209d0:	f3bf 8f4f 	dsb	sy
   209d4:	2a00      	cmp	r2, #0
   209d6:	dd0e      	ble.n	209f6 <CRYPTO_SrcDescKeyIv+0xda>
   209d8:	1e51      	subs	r1, r2, #1
   209da:	f100 0220 	add.w	r2, r0, #32
   209de:	f8df c244 	ldr.w	ip, [pc, #580]	; 20c24 <CRYPTO_SrcDescKeyIv+0x308>
   209e2:	f021 011f 	bic.w	r1, r1, #31
   209e6:	4411      	add	r1, r2
   209e8:	428a      	cmp	r2, r1
   209ea:	f8cc 0270 	str.w	r0, [ip, #624]	; 0x270
   209ee:	4610      	mov	r0, r2
   209f0:	f102 0220 	add.w	r2, r2, #32
   209f4:	d1f8      	bne.n	209e8 <CRYPTO_SrcDescKeyIv+0xcc>
   209f6:	f3bf 8f4f 	dsb	sy
   209fa:	f3bf 8f6f 	isb	sy
   209fe:	f8d9 2008 	ldr.w	r2, [r9, #8]
   20a02:	0492      	lsls	r2, r2, #18
   20a04:	f100 80d5 	bmi.w	20bb2 <CRYPTO_SrcDescKeyIv+0x296>
   20a08:	4651      	mov	r1, sl
   20a0a:	4658      	mov	r0, fp
   20a0c:	4642      	mov	r2, r8
   20a0e:	f7ff fd51 	bl	204b4 <CRYPTO_SetSrcDesc>
   20a12:	b3ae      	cbz	r6, 20a80 <CRYPTO_SrcDescKeyIv+0x164>
   20a14:	b3a7      	cbz	r7, 20a80 <CRYPTO_SrcDescKeyIv+0x164>
   20a16:	4983      	ldr	r1, [pc, #524]	; (20c24 <CRYPTO_SrcDescKeyIv+0x308>)
   20a18:	ea4f 0a87 	mov.w	sl, r7, lsl #2
   20a1c:	2200      	movs	r2, #0
   20a1e:	694b      	ldr	r3, [r1, #20]
   20a20:	f00a 0af0 	and.w	sl, sl, #240	; 0xf0
   20a24:	03d8      	lsls	r0, r3, #15
   20a26:	f04a 4ac0 	orr.w	sl, sl, #1610612736	; 0x60000000
   20a2a:	d51f      	bpl.n	20a6c <CRYPTO_SrcDescKeyIv+0x150>
   20a2c:	ea06 0307 	and.w	r3, r6, r7
   20a30:	3301      	adds	r3, #1
   20a32:	f000 8161 	beq.w	20cf8 <CRYPTO_SrcDescKeyIv+0x3dc>
   20a36:	06f3      	lsls	r3, r6, #27
   20a38:	f040 8120 	bne.w	20c7c <CRYPTO_SrcDescKeyIv+0x360>
   20a3c:	463b      	mov	r3, r7
   20a3e:	4631      	mov	r1, r6
   20a40:	f3bf 8f4f 	dsb	sy
   20a44:	2b00      	cmp	r3, #0
   20a46:	dd0d      	ble.n	20a64 <CRYPTO_SrcDescKeyIv+0x148>
   20a48:	1e5a      	subs	r2, r3, #1
   20a4a:	f101 0320 	add.w	r3, r1, #32
   20a4e:	4875      	ldr	r0, [pc, #468]	; (20c24 <CRYPTO_SrcDescKeyIv+0x308>)
   20a50:	f022 021f 	bic.w	r2, r2, #31
   20a54:	441a      	add	r2, r3
   20a56:	4293      	cmp	r3, r2
   20a58:	f8c0 1270 	str.w	r1, [r0, #624]	; 0x270
   20a5c:	4619      	mov	r1, r3
   20a5e:	f103 0320 	add.w	r3, r3, #32
   20a62:	d1f8      	bne.n	20a56 <CRYPTO_SrcDescKeyIv+0x13a>
   20a64:	f3bf 8f4f 	dsb	sy
   20a68:	f3bf 8f6f 	isb	sy
   20a6c:	f8d9 3008 	ldr.w	r3, [r9, #8]
   20a70:	0498      	lsls	r0, r3, #18
   20a72:	f100 80ca 	bmi.w	20c0a <CRYPTO_SrcDescKeyIv+0x2ee>
   20a76:	4631      	mov	r1, r6
   20a78:	4650      	mov	r0, sl
   20a7a:	4642      	mov	r2, r8
   20a7c:	f7ff fd1a 	bl	204b4 <CRYPTO_SetSrcDesc>
   20a80:	7c23      	ldrb	r3, [r4, #16]
   20a82:	b35b      	cbz	r3, 20adc <CRYPTO_SrcDescKeyIv+0x1c0>
   20a84:	4b67      	ldr	r3, [pc, #412]	; (20c24 <CRYPTO_SrcDescKeyIv+0x308>)
   20a86:	f104 0664 	add.w	r6, r4, #100	; 0x64
   20a8a:	f8df a1b8 	ldr.w	sl, [pc, #440]	; 20c44 <CRYPTO_SrcDescKeyIv+0x328>
   20a8e:	695b      	ldr	r3, [r3, #20]
   20a90:	03d9      	lsls	r1, r3, #15
   20a92:	d519      	bpl.n	20ac8 <CRYPTO_SrcDescKeyIv+0x1ac>
   20a94:	06f2      	lsls	r2, r6, #27
   20a96:	f040 80aa 	bne.w	20bee <CRYPTO_SrcDescKeyIv+0x2d2>
   20a9a:	f3bf 8f4f 	dsb	sy
   20a9e:	f44f 7382 	mov.w	r3, #260	; 0x104
   20aa2:	4632      	mov	r2, r6
   20aa4:	1e59      	subs	r1, r3, #1
   20aa6:	f102 0320 	add.w	r3, r2, #32
   20aaa:	485e      	ldr	r0, [pc, #376]	; (20c24 <CRYPTO_SrcDescKeyIv+0x308>)
   20aac:	f021 011f 	bic.w	r1, r1, #31
   20ab0:	4419      	add	r1, r3
   20ab2:	428b      	cmp	r3, r1
   20ab4:	f8c0 2270 	str.w	r2, [r0, #624]	; 0x270
   20ab8:	461a      	mov	r2, r3
   20aba:	f103 0320 	add.w	r3, r3, #32
   20abe:	d1f8      	bne.n	20ab2 <CRYPTO_SrcDescKeyIv+0x196>
   20ac0:	f3bf 8f4f 	dsb	sy
   20ac4:	f3bf 8f6f 	isb	sy
   20ac8:	f8d9 3008 	ldr.w	r3, [r9, #8]
   20acc:	049b      	lsls	r3, r3, #18
   20ace:	f100 80bb 	bmi.w	20c48 <CRYPTO_SrcDescKeyIv+0x32c>
   20ad2:	4631      	mov	r1, r6
   20ad4:	4650      	mov	r0, sl
   20ad6:	4642      	mov	r2, r8
   20ad8:	f7ff fcec 	bl	204b4 <CRYPTO_SetSrcDesc>
   20adc:	b11d      	cbz	r5, 20ae6 <CRYPTO_SrcDescKeyIv+0x1ca>
   20ade:	f895 304a 	ldrb.w	r3, [r5, #74]	; 0x4a
   20ae2:	2b01      	cmp	r3, #1
   20ae4:	d014      	beq.n	20b10 <CRYPTO_SrcDescKeyIv+0x1f4>
   20ae6:	b003      	add	sp, #12
   20ae8:	e8bd 8ff0 	ldmia.w	sp!, {r4, r5, r6, r7, r8, r9, sl, fp, pc}
   20aec:	f204 11a7 	addw	r1, r4, #423	; 0x1a7
   20af0:	f02b 021f 	bic.w	r2, fp, #31
   20af4:	f021 011f 	bic.w	r1, r1, #31
   20af8:	3120      	adds	r1, #32
   20afa:	1a89      	subs	r1, r1, r2
   20afc:	f3bf 8f4f 	dsb	sy
   20b00:	2900      	cmp	r1, #0
   20b02:	f73f af30 	bgt.w	20966 <CRYPTO_SrcDescKeyIv+0x4a>
   20b06:	f3bf 8f4f 	dsb	sy
   20b0a:	f3bf 8f6f 	isb	sy
   20b0e:	e739      	b.n	20984 <CRYPTO_SrcDescKeyIv+0x68>
   20b10:	6aa4      	ldr	r4, [r4, #40]	; 0x28
   20b12:	2c1c      	cmp	r4, #28
   20b14:	f000 80bb 	beq.w	20c8e <CRYPTO_SrcDescKeyIv+0x372>
   20b18:	2c30      	cmp	r4, #48	; 0x30
   20b1a:	f000 8112 	beq.w	20d42 <CRYPTO_SrcDescKeyIv+0x426>
   20b1e:	08a1      	lsrs	r1, r4, #2
   20b20:	f3c4 0685 	ubfx	r6, r4, #2, #6
   20b24:	f895 304b 	ldrb.w	r3, [r5, #75]	; 0x4b
   20b28:	2b01      	cmp	r3, #1
   20b2a:	f000 8106 	beq.w	20d3a <CRYPTO_SrcDescKeyIv+0x41e>
   20b2e:	78ab      	ldrb	r3, [r5, #2]
   20b30:	2b01      	cmp	r3, #1
   20b32:	d009      	beq.n	20b48 <CRYPTO_SrcDescKeyIv+0x22c>
   20b34:	b141      	cbz	r1, 20b48 <CRYPTO_SrcDescKeyIv+0x22c>
   20b36:	1d2b      	adds	r3, r5, #4
   20b38:	eb03 0181 	add.w	r1, r3, r1, lsl #2
   20b3c:	f853 2f04 	ldr.w	r2, [r3, #4]!
   20b40:	ba12      	rev	r2, r2
   20b42:	428b      	cmp	r3, r1
   20b44:	601a      	str	r2, [r3, #0]
   20b46:	d1f9      	bne.n	20b3c <CRYPTO_SrcDescKeyIv+0x220>
   20b48:	4836      	ldr	r0, [pc, #216]	; (20c24 <CRYPTO_SrcDescKeyIv+0x308>)
   20b4a:	f105 0108 	add.w	r1, r5, #8
   20b4e:	6943      	ldr	r3, [r0, #20]
   20b50:	03df      	lsls	r7, r3, #15
   20b52:	d525      	bpl.n	20ba0 <CRYPTO_SrcDescKeyIv+0x284>
   20b54:	ea01 0304 	and.w	r3, r1, r4
   20b58:	3301      	adds	r3, #1
   20b5a:	f000 80f6 	beq.w	20d4a <CRYPTO_SrcDescKeyIv+0x42e>
   20b5e:	06cb      	lsls	r3, r1, #27
   20b60:	f000 8110 	beq.w	20d84 <CRYPTO_SrcDescKeyIv+0x468>
   20b64:	1deb      	adds	r3, r5, #7
   20b66:	f021 001f 	bic.w	r0, r1, #31
   20b6a:	4423      	add	r3, r4
   20b6c:	f023 031f 	bic.w	r3, r3, #31
   20b70:	3320      	adds	r3, #32
   20b72:	1a1c      	subs	r4, r3, r0
   20b74:	f3bf 8f4f 	dsb	sy
   20b78:	2c00      	cmp	r4, #0
   20b7a:	dd0d      	ble.n	20b98 <CRYPTO_SrcDescKeyIv+0x27c>
   20b7c:	1e63      	subs	r3, r4, #1
   20b7e:	4c29      	ldr	r4, [pc, #164]	; (20c24 <CRYPTO_SrcDescKeyIv+0x308>)
   20b80:	f023 021f 	bic.w	r2, r3, #31
   20b84:	f100 0320 	add.w	r3, r0, #32
   20b88:	441a      	add	r2, r3
   20b8a:	429a      	cmp	r2, r3
   20b8c:	f8c4 0270 	str.w	r0, [r4, #624]	; 0x270
   20b90:	4618      	mov	r0, r3
   20b92:	f103 0320 	add.w	r3, r3, #32
   20b96:	d1f8      	bne.n	20b8a <CRYPTO_SrcDescKeyIv+0x26e>
   20b98:	f3bf 8f4f 	dsb	sy
   20b9c:	f3bf 8f6f 	isb	sy
   20ba0:	f446 40c0 	orr.w	r0, r6, #24576	; 0x6000
   20ba4:	4642      	mov	r2, r8
   20ba6:	0400      	lsls	r0, r0, #16
   20ba8:	f7ff fc84 	bl	204b4 <CRYPTO_SetSrcDesc>
   20bac:	b003      	add	sp, #12
   20bae:	e8bd 8ff0 	ldmia.w	sp!, {r4, r5, r6, r7, r8, r9, sl, fp, pc}
   20bb2:	4652      	mov	r2, sl
   20bb4:	491c      	ldr	r1, [pc, #112]	; (20c28 <CRYPTO_SrcDescKeyIv+0x30c>)
   20bb6:	481d      	ldr	r0, [pc, #116]	; (20c2c <CRYPTO_SrcDescKeyIv+0x310>)
   20bb8:	9301      	str	r3, [sp, #4]
   20bba:	f007 fc07 	bl	283cc <DiagPrintf>
   20bbe:	9b01      	ldr	r3, [sp, #4]
   20bc0:	4650      	mov	r0, sl
   20bc2:	4a1b      	ldr	r2, [pc, #108]	; (20c30 <CRYPTO_SrcDescKeyIv+0x314>)
   20bc4:	4619      	mov	r1, r3
   20bc6:	4b1b      	ldr	r3, [pc, #108]	; (20c34 <CRYPTO_SrcDescKeyIv+0x318>)
   20bc8:	4798      	blx	r3
   20bca:	4651      	mov	r1, sl
   20bcc:	4658      	mov	r0, fp
   20bce:	4642      	mov	r2, r8
   20bd0:	f7ff fc70 	bl	204b4 <CRYPTO_SetSrcDesc>
   20bd4:	e71d      	b.n	20a12 <CRYPTO_SrcDescKeyIv+0xf6>
   20bd6:	465a      	mov	r2, fp
   20bd8:	4913      	ldr	r1, [pc, #76]	; (20c28 <CRYPTO_SrcDescKeyIv+0x30c>)
   20bda:	2320      	movs	r3, #32
   20bdc:	4813      	ldr	r0, [pc, #76]	; (20c2c <CRYPTO_SrcDescKeyIv+0x310>)
   20bde:	f007 fbf5 	bl	283cc <DiagPrintf>
   20be2:	4a15      	ldr	r2, [pc, #84]	; (20c38 <CRYPTO_SrcDescKeyIv+0x31c>)
   20be4:	2120      	movs	r1, #32
   20be6:	4658      	mov	r0, fp
   20be8:	4b12      	ldr	r3, [pc, #72]	; (20c34 <CRYPTO_SrcDescKeyIv+0x318>)
   20bea:	4798      	blx	r3
   20bec:	e6d1      	b.n	20992 <CRYPTO_SrcDescKeyIv+0x76>
   20bee:	f204 1367 	addw	r3, r4, #359	; 0x167
   20bf2:	f026 021f 	bic.w	r2, r6, #31
   20bf6:	f023 031f 	bic.w	r3, r3, #31
   20bfa:	3320      	adds	r3, #32
   20bfc:	1a9b      	subs	r3, r3, r2
   20bfe:	f3bf 8f4f 	dsb	sy
   20c02:	2b00      	cmp	r3, #0
   20c04:	f73f af4e 	bgt.w	20aa4 <CRYPTO_SrcDescKeyIv+0x188>
   20c08:	e75a      	b.n	20ac0 <CRYPTO_SrcDescKeyIv+0x1a4>
   20c0a:	4632      	mov	r2, r6
   20c0c:	463b      	mov	r3, r7
   20c0e:	4906      	ldr	r1, [pc, #24]	; (20c28 <CRYPTO_SrcDescKeyIv+0x30c>)
   20c10:	4806      	ldr	r0, [pc, #24]	; (20c2c <CRYPTO_SrcDescKeyIv+0x310>)
   20c12:	f007 fbdb 	bl	283cc <DiagPrintf>
   20c16:	4639      	mov	r1, r7
   20c18:	4a08      	ldr	r2, [pc, #32]	; (20c3c <CRYPTO_SrcDescKeyIv+0x320>)
   20c1a:	4630      	mov	r0, r6
   20c1c:	4b05      	ldr	r3, [pc, #20]	; (20c34 <CRYPTO_SrcDescKeyIv+0x318>)
   20c1e:	4798      	blx	r3
   20c20:	e729      	b.n	20a76 <CRYPTO_SrcDescKeyIv+0x15a>
   20c22:	bf00      	nop
   20c24:	e000ed00 	.word	0xe000ed00
   20c28:	00041678 	.word	0x00041678
   20c2c:	00041690 	.word	0x00041690
   20c30:	000416d0 	.word	0x000416d0
   20c34:	000203a5 	.word	0x000203a5
   20c38:	000416bc 	.word	0x000416bc
   20c3c:	000416d8 	.word	0x000416d8
   20c40:	20004004 	.word	0x20004004
   20c44:	60004000 	.word	0x60004000
   20c48:	4632      	mov	r2, r6
   20c4a:	494f      	ldr	r1, [pc, #316]	; (20d88 <CRYPTO_SrcDescKeyIv+0x46c>)
   20c4c:	2380      	movs	r3, #128	; 0x80
   20c4e:	484f      	ldr	r0, [pc, #316]	; (20d8c <CRYPTO_SrcDescKeyIv+0x470>)
   20c50:	f007 fbbc 	bl	283cc <DiagPrintf>
   20c54:	4630      	mov	r0, r6
   20c56:	4a4e      	ldr	r2, [pc, #312]	; (20d90 <CRYPTO_SrcDescKeyIv+0x474>)
   20c58:	2180      	movs	r1, #128	; 0x80
   20c5a:	4b4e      	ldr	r3, [pc, #312]	; (20d94 <CRYPTO_SrcDescKeyIv+0x478>)
   20c5c:	4798      	blx	r3
   20c5e:	4631      	mov	r1, r6
   20c60:	4650      	mov	r0, sl
   20c62:	4642      	mov	r2, r8
   20c64:	f7ff fc26 	bl	204b4 <CRYPTO_SetSrcDesc>
   20c68:	e738      	b.n	20adc <CRYPTO_SrcDescKeyIv+0x1c0>
   20c6a:	1e5a      	subs	r2, r3, #1
   20c6c:	f02a 001f 	bic.w	r0, sl, #31
   20c70:	4452      	add	r2, sl
   20c72:	f022 021f 	bic.w	r2, r2, #31
   20c76:	3220      	adds	r2, #32
   20c78:	1a12      	subs	r2, r2, r0
   20c7a:	e6a9      	b.n	209d0 <CRYPTO_SrcDescKeyIv+0xb4>
   20c7c:	1e7b      	subs	r3, r7, #1
   20c7e:	f026 011f 	bic.w	r1, r6, #31
   20c82:	4433      	add	r3, r6
   20c84:	f023 031f 	bic.w	r3, r3, #31
   20c88:	3320      	adds	r3, #32
   20c8a:	1a5b      	subs	r3, r3, r1
   20c8c:	e6d8      	b.n	20a40 <CRYPTO_SrcDescKeyIv+0x124>
   20c8e:	2108      	movs	r1, #8
   20c90:	2420      	movs	r4, #32
   20c92:	460e      	mov	r6, r1
   20c94:	e746      	b.n	20b24 <CRYPTO_SrcDescKeyIv+0x208>
   20c96:	f8c0 1084 	str.w	r1, [r0, #132]	; 0x84
   20c9a:	f3bf 8f4f 	dsb	sy
   20c9e:	f8d0 2080 	ldr.w	r2, [r0, #128]	; 0x80
   20ca2:	f8cd 8030 	str.w	r8, [sp, #48]	; 0x30
   20ca6:	46a8      	mov	r8, r5
   20ca8:	f3c2 3e4e 	ubfx	lr, r2, #13, #15
   20cac:	f3c2 02c9 	ubfx	r2, r2, #3, #10
   20cb0:	4625      	mov	r5, r4
   20cb2:	461c      	mov	r4, r3
   20cb4:	ea4f 1e4e 	mov.w	lr, lr, lsl #5
   20cb8:	4613      	mov	r3, r2
   20cba:	f643 7ce0 	movw	ip, #16352	; 0x3fe0
   20cbe:	461a      	mov	r2, r3
   20cc0:	ea0e 0c0c 	and.w	ip, lr, ip
   20cc4:	ea4c 7182 	orr.w	r1, ip, r2, lsl #30
   20cc8:	3a01      	subs	r2, #1
   20cca:	f8c0 1274 	str.w	r1, [r0, #628]	; 0x274
   20cce:	d2f9      	bcs.n	20cc4 <CRYPTO_SrcDescKeyIv+0x3a8>
   20cd0:	f1ae 0e20 	sub.w	lr, lr, #32
   20cd4:	f11e 0f20 	cmn.w	lr, #32
   20cd8:	d1ef      	bne.n	20cba <CRYPTO_SrcDescKeyIv+0x39e>
   20cda:	4623      	mov	r3, r4
   20cdc:	462c      	mov	r4, r5
   20cde:	4645      	mov	r5, r8
   20ce0:	f8dd 8030 	ldr.w	r8, [sp, #48]	; 0x30
   20ce4:	f3bf 8f4f 	dsb	sy
   20ce8:	f3bf 8f6f 	isb	sy
   20cec:	f8d9 2008 	ldr.w	r2, [r9, #8]
   20cf0:	0492      	lsls	r2, r2, #18
   20cf2:	f57f ae89 	bpl.w	20a08 <CRYPTO_SrcDescKeyIv+0xec>
   20cf6:	e75c      	b.n	20bb2 <CRYPTO_SrcDescKeyIv+0x296>
   20cf8:	f8c1 2084 	str.w	r2, [r1, #132]	; 0x84
   20cfc:	f3bf 8f4f 	dsb	sy
   20d00:	f8d1 3080 	ldr.w	r3, [r1, #128]	; 0x80
   20d04:	f643 7be0 	movw	fp, #16352	; 0x3fe0
   20d08:	f3c3 3c4e 	ubfx	ip, r3, #13, #15
   20d0c:	f3c3 0ec9 	ubfx	lr, r3, #3, #10
   20d10:	ea4f 1c4c 	mov.w	ip, ip, lsl #5
   20d14:	ea0c 000b 	and.w	r0, ip, fp
   20d18:	4673      	mov	r3, lr
   20d1a:	ea40 7283 	orr.w	r2, r0, r3, lsl #30
   20d1e:	3b01      	subs	r3, #1
   20d20:	f8c1 2274 	str.w	r2, [r1, #628]	; 0x274
   20d24:	d2f9      	bcs.n	20d1a <CRYPTO_SrcDescKeyIv+0x3fe>
   20d26:	f1ac 0c20 	sub.w	ip, ip, #32
   20d2a:	f11c 0f20 	cmn.w	ip, #32
   20d2e:	d1f1      	bne.n	20d14 <CRYPTO_SrcDescKeyIv+0x3f8>
   20d30:	f3bf 8f4f 	dsb	sy
   20d34:	f3bf 8f6f 	isb	sy
   20d38:	e698      	b.n	20a6c <CRYPTO_SrcDescKeyIv+0x150>
   20d3a:	2300      	movs	r3, #0
   20d3c:	f885 304b 	strb.w	r3, [r5, #75]	; 0x4b
   20d40:	e702      	b.n	20b48 <CRYPTO_SrcDescKeyIv+0x22c>
   20d42:	2110      	movs	r1, #16
   20d44:	2440      	movs	r4, #64	; 0x40
   20d46:	460e      	mov	r6, r1
   20d48:	e6ec      	b.n	20b24 <CRYPTO_SrcDescKeyIv+0x208>
   20d4a:	2300      	movs	r3, #0
   20d4c:	f8c0 3084 	str.w	r3, [r0, #132]	; 0x84
   20d50:	f3bf 8f4f 	dsb	sy
   20d54:	f8d0 7080 	ldr.w	r7, [r0, #128]	; 0x80
   20d58:	f643 7ce0 	movw	ip, #16352	; 0x3fe0
   20d5c:	f3c7 354e 	ubfx	r5, r7, #13, #15
   20d60:	f3c7 07c9 	ubfx	r7, r7, #3, #10
   20d64:	016d      	lsls	r5, r5, #5
   20d66:	ea05 040c 	and.w	r4, r5, ip
   20d6a:	463b      	mov	r3, r7
   20d6c:	ea44 7283 	orr.w	r2, r4, r3, lsl #30
   20d70:	3b01      	subs	r3, #1
   20d72:	f8c0 2274 	str.w	r2, [r0, #628]	; 0x274
   20d76:	1c5a      	adds	r2, r3, #1
   20d78:	d1f8      	bne.n	20d6c <CRYPTO_SrcDescKeyIv+0x450>
   20d7a:	3d20      	subs	r5, #32
   20d7c:	f115 0f20 	cmn.w	r5, #32
   20d80:	d1f1      	bne.n	20d66 <CRYPTO_SrcDescKeyIv+0x44a>
   20d82:	e709      	b.n	20b98 <CRYPTO_SrcDescKeyIv+0x27c>
   20d84:	4608      	mov	r0, r1
   20d86:	e6f5      	b.n	20b74 <CRYPTO_SrcDescKeyIv+0x258>
   20d88:	00041678 	.word	0x00041678
   20d8c:	00041690 	.word	0x00041690
   20d90:	000416e0 	.word	0x000416e0
   20d94:	000203a5 	.word	0x000203a5

00020d98 <CRYPTO_Reset>:
   20d98:	b410      	push	{r4}
   20d9a:	4a0d      	ldr	r2, [pc, #52]	; (20dd0 <CRYPTO_Reset+0x38>)
   20d9c:	2001      	movs	r0, #1
   20d9e:	e842 f200 	tt	r2, r2
   20da2:	4c0c      	ldr	r4, [pc, #48]	; (20dd4 <CRYPTO_Reset+0x3c>)
   20da4:	f412 0f80 	tst.w	r2, #4194304	; 0x400000
   20da8:	4b0b      	ldr	r3, [pc, #44]	; (20dd8 <CRYPTO_Reset+0x40>)
   20daa:	f44f 1280 	mov.w	r2, #1048576	; 0x100000
   20dae:	bf18      	it	ne
   20db0:	4623      	movne	r3, r4
   20db2:	490a      	ldr	r1, [pc, #40]	; (20ddc <CRYPTO_Reset+0x44>)
   20db4:	f85d 4b04 	ldr.w	r4, [sp], #4
   20db8:	6118      	str	r0, [r3, #16]
   20dba:	631a      	str	r2, [r3, #48]	; 0x30
   20dbc:	6b1a      	ldr	r2, [r3, #48]	; 0x30
   20dbe:	f042 0206 	orr.w	r2, r2, #6
   20dc2:	631a      	str	r2, [r3, #48]	; 0x30
   20dc4:	6b1a      	ldr	r2, [r3, #48]	; 0x30
   20dc6:	f442 62c2 	orr.w	r2, r2, #1552	; 0x610
   20dca:	631a      	str	r2, [r3, #48]	; 0x30
   20dcc:	6199      	str	r1, [r3, #24]
   20dce:	4770      	bx	lr
   20dd0:	000283cd 	.word	0x000283cd
   20dd4:	50100000 	.word	0x50100000
   20dd8:	40100000 	.word	0x40100000
   20ddc:	01010000 	.word	0x01010000

00020de0 <CRYPTO_SHA_Reset>:
   20de0:	b410      	push	{r4}
   20de2:	4a0d      	ldr	r2, [pc, #52]	; (20e18 <CRYPTO_SHA_Reset+0x38>)
   20de4:	2001      	movs	r0, #1
   20de6:	e842 f200 	tt	r2, r2
   20dea:	4c0c      	ldr	r4, [pc, #48]	; (20e1c <CRYPTO_SHA_Reset+0x3c>)
   20dec:	f412 0f80 	tst.w	r2, #4194304	; 0x400000
   20df0:	4b0b      	ldr	r3, [pc, #44]	; (20e20 <CRYPTO_SHA_Reset+0x40>)
   20df2:	f44f 1280 	mov.w	r2, #1048576	; 0x100000
   20df6:	bf18      	it	ne
   20df8:	4623      	movne	r3, r4
   20dfa:	490a      	ldr	r1, [pc, #40]	; (20e24 <CRYPTO_SHA_Reset+0x44>)
   20dfc:	f85d 4b04 	ldr.w	r4, [sp], #4
   20e00:	6118      	str	r0, [r3, #16]
   20e02:	631a      	str	r2, [r3, #48]	; 0x30
   20e04:	6b1a      	ldr	r2, [r3, #48]	; 0x30
   20e06:	f042 0206 	orr.w	r2, r2, #6
   20e0a:	631a      	str	r2, [r3, #48]	; 0x30
   20e0c:	6b1a      	ldr	r2, [r3, #48]	; 0x30
   20e0e:	f442 62c2 	orr.w	r2, r2, #1552	; 0x610
   20e12:	631a      	str	r2, [r3, #48]	; 0x30
   20e14:	6199      	str	r1, [r3, #24]
   20e16:	4770      	bx	lr
   20e18:	000283cd 	.word	0x000283cd
   20e1c:	50108000 	.word	0x50108000
   20e20:	40108000 	.word	0x40108000
   20e24:	01010000 	.word	0x01010000

00020e28 <CRYPTO_SetSecurityModeAD>:
   20e28:	e92d 43f8 	stmdb	sp!, {r3, r4, r5, r6, r7, r8, r9, lr}
   20e2c:	460d      	mov	r5, r1
   20e2e:	4616      	mov	r6, r2
   20e30:	4699      	mov	r9, r3
   20e32:	4604      	mov	r4, r0
   20e34:	e9dd 8709 	ldrd	r8, r7, [sp, #36]	; 0x24
   20e38:	2800      	cmp	r0, #0
   20e3a:	f000 80ac 	beq.w	20f96 <CRYPTO_SetSecurityModeAD+0x16e>
   20e3e:	7823      	ldrb	r3, [r4, #0]
   20e40:	2b01      	cmp	r3, #1
   20e42:	d004      	beq.n	20e4e <CRYPTO_SetSecurityModeAD+0x26>
   20e44:	f44f 711c 	mov.w	r1, #624	; 0x270
   20e48:	4863      	ldr	r0, [pc, #396]	; (20fd8 <CRYPTO_SetSecurityModeAD+0x1b0>)
   20e4a:	f7ff f9b5 	bl	201b8 <io_assert_failed>
   20e4e:	2f40      	cmp	r7, #64	; 0x40
   20e50:	f200 80a7 	bhi.w	20fa2 <CRYPTO_SetSecurityModeAD+0x17a>
   20e54:	2300      	movs	r3, #0
   20e56:	1c69      	adds	r1, r5, #1
   20e58:	6065      	str	r5, [r4, #4]
   20e5a:	8123      	strh	r3, [r4, #8]
   20e5c:	d008      	beq.n	20e70 <CRYPTO_SetSecurityModeAD+0x48>
   20e5e:	f005 0330 	and.w	r3, r5, #48	; 0x30
   20e62:	2b20      	cmp	r3, #32
   20e64:	d07a      	beq.n	20f5c <CRYPTO_SetSecurityModeAD+0x134>
   20e66:	f085 0580 	eor.w	r5, r5, #128	; 0x80
   20e6a:	f3c5 15c0 	ubfx	r5, r5, #7, #1
   20e6e:	7265      	strb	r5, [r4, #9]
   20e70:	1c72      	adds	r2, r6, #1
   20e72:	60e6      	str	r6, [r4, #12]
   20e74:	f000 8081 	beq.w	20f7a <CRYPTO_SetSecurityModeAD+0x152>
   20e78:	f006 0303 	and.w	r3, r6, #3
   20e7c:	f3c6 0280 	ubfx	r2, r6, #2, #1
   20e80:	7422      	strb	r2, [r4, #16]
   20e82:	f1a3 0202 	sub.w	r2, r3, #2
   20e86:	2b01      	cmp	r3, #1
   20e88:	fab2 f282 	clz	r2, r2
   20e8c:	ea4f 1252 	mov.w	r2, r2, lsr #5
   20e90:	7462      	strb	r2, [r4, #17]
   20e92:	fab3 f283 	clz	r2, r3
   20e96:	ea4f 1252 	mov.w	r2, r2, lsr #5
   20e9a:	74a2      	strb	r2, [r4, #18]
   20e9c:	bf0c      	ite	eq
   20e9e:	2201      	moveq	r2, #1
   20ea0:	2200      	movne	r2, #0
   20ea2:	74e2      	strb	r2, [r4, #19]
   20ea4:	d13f      	bne.n	20f26 <CRYPTO_SetSecurityModeAD+0xfe>
   20ea6:	f006 03f0 	and.w	r3, r6, #240	; 0xf0
   20eaa:	2b40      	cmp	r3, #64	; 0x40
   20eac:	f000 8086 	beq.w	20fbc <CRYPTO_SetSecurityModeAD+0x194>
   20eb0:	d869      	bhi.n	20f86 <CRYPTO_SetSecurityModeAD+0x15e>
   20eb2:	2b10      	cmp	r3, #16
   20eb4:	d06c      	beq.n	20f90 <CRYPTO_SetSecurityModeAD+0x168>
   20eb6:	2b20      	cmp	r3, #32
   20eb8:	d179      	bne.n	20fae <CRYPTO_SetSecurityModeAD+0x186>
   20eba:	7523      	strb	r3, [r4, #20]
   20ebc:	62a3      	str	r3, [r4, #40]	; 0x28
   20ebe:	9b08      	ldr	r3, [sp, #32]
   20ec0:	6227      	str	r7, [r4, #32]
   20ec2:	e9c4 3911 	strd	r3, r9, [r4, #68]	; 0x44
   20ec6:	2f00      	cmp	r7, #0
   20ec8:	d038      	beq.n	20f3c <CRYPTO_SetSecurityModeAD+0x114>
   20eca:	7d23      	ldrb	r3, [r4, #20]
   20ecc:	f104 0064 	add.w	r0, r4, #100	; 0x64
   20ed0:	2b30      	cmp	r3, #48	; 0x30
   20ed2:	65e0      	str	r0, [r4, #92]	; 0x5c
   20ed4:	d045      	beq.n	20f62 <CRYPTO_SetSecurityModeAD+0x13a>
   20ed6:	2b40      	cmp	r3, #64	; 0x40
   20ed8:	d043      	beq.n	20f62 <CRYPTO_SetSecurityModeAD+0x13a>
   20eda:	f104 03a4 	add.w	r3, r4, #164	; 0xa4
   20ede:	2240      	movs	r2, #64	; 0x40
   20ee0:	2136      	movs	r1, #54	; 0x36
   20ee2:	4d3e      	ldr	r5, [pc, #248]	; (20fdc <CRYPTO_SetSecurityModeAD+0x1b4>)
   20ee4:	6623      	str	r3, [r4, #96]	; 0x60
   20ee6:	47a8      	blx	r5
   20ee8:	2240      	movs	r2, #64	; 0x40
   20eea:	215c      	movs	r1, #92	; 0x5c
   20eec:	6e20      	ldr	r0, [r4, #96]	; 0x60
   20eee:	47a8      	blx	r5
   20ef0:	4b3b      	ldr	r3, [pc, #236]	; (20fe0 <CRYPTO_SetSecurityModeAD+0x1b8>)
   20ef2:	681d      	ldr	r5, [r3, #0]
   20ef4:	bb25      	cbnz	r5, 20f40 <CRYPTO_SetSecurityModeAD+0x118>
   20ef6:	f1b8 0f00 	cmp.w	r8, #0
   20efa:	d067      	beq.n	20fcc <CRYPTO_SetSecurityModeAD+0x1a4>
   20efc:	f8c4 8024 	str.w	r8, [r4, #36]	; 0x24
   20f00:	e001      	b.n	20f06 <CRYPTO_SetSecurityModeAD+0xde>
   20f02:	f8d4 8024 	ldr.w	r8, [r4, #36]	; 0x24
   20f06:	6de2      	ldr	r2, [r4, #92]	; 0x5c
   20f08:	f818 3005 	ldrb.w	r3, [r8, r5]
   20f0c:	5d51      	ldrb	r1, [r2, r5]
   20f0e:	404b      	eors	r3, r1
   20f10:	5553      	strb	r3, [r2, r5]
   20f12:	6e22      	ldr	r2, [r4, #96]	; 0x60
   20f14:	6a63      	ldr	r3, [r4, #36]	; 0x24
   20f16:	5d51      	ldrb	r1, [r2, r5]
   20f18:	5d5b      	ldrb	r3, [r3, r5]
   20f1a:	404b      	eors	r3, r1
   20f1c:	5553      	strb	r3, [r2, r5]
   20f1e:	3501      	adds	r5, #1
   20f20:	42af      	cmp	r7, r5
   20f22:	d1ee      	bne.n	20f02 <CRYPTO_SetSecurityModeAD+0xda>
   20f24:	e00c      	b.n	20f40 <CRYPTO_SetSecurityModeAD+0x118>
   20f26:	2200      	movs	r2, #0
   20f28:	7522      	strb	r2, [r4, #20]
   20f2a:	b993      	cbnz	r3, 20f52 <CRYPTO_SetSecurityModeAD+0x12a>
   20f2c:	2314      	movs	r3, #20
   20f2e:	6227      	str	r7, [r4, #32]
   20f30:	62a3      	str	r3, [r4, #40]	; 0x28
   20f32:	9b08      	ldr	r3, [sp, #32]
   20f34:	e9c4 3911 	strd	r3, r9, [r4, #68]	; 0x44
   20f38:	2f00      	cmp	r7, #0
   20f3a:	d1c6      	bne.n	20eca <CRYPTO_SetSecurityModeAD+0xa2>
   20f3c:	e9c4 7717 	strd	r7, r7, [r4, #92]	; 0x5c
   20f40:	3601      	adds	r6, #1
   20f42:	d003      	beq.n	20f4c <CRYPTO_SetSecurityModeAD+0x124>
   20f44:	2201      	movs	r2, #1
   20f46:	2300      	movs	r3, #0
   20f48:	85a2      	strh	r2, [r4, #44]	; 0x2c
   20f4a:	6323      	str	r3, [r4, #48]	; 0x30
   20f4c:	2000      	movs	r0, #0
   20f4e:	e8bd 83f8 	ldmia.w	sp!, {r3, r4, r5, r6, r7, r8, r9, pc}
   20f52:	2b02      	cmp	r3, #2
   20f54:	d114      	bne.n	20f80 <CRYPTO_SetSecurityModeAD+0x158>
   20f56:	2310      	movs	r3, #16
   20f58:	62a3      	str	r3, [r4, #40]	; 0x28
   20f5a:	e7b0      	b.n	20ebe <CRYPTO_SetSecurityModeAD+0x96>
   20f5c:	2301      	movs	r3, #1
   20f5e:	7223      	strb	r3, [r4, #8]
   20f60:	e781      	b.n	20e66 <CRYPTO_SetSecurityModeAD+0x3e>
   20f62:	f104 03e4 	add.w	r3, r4, #228	; 0xe4
   20f66:	2280      	movs	r2, #128	; 0x80
   20f68:	2136      	movs	r1, #54	; 0x36
   20f6a:	4d1c      	ldr	r5, [pc, #112]	; (20fdc <CRYPTO_SetSecurityModeAD+0x1b4>)
   20f6c:	6623      	str	r3, [r4, #96]	; 0x60
   20f6e:	47a8      	blx	r5
   20f70:	2280      	movs	r2, #128	; 0x80
   20f72:	215c      	movs	r1, #92	; 0x5c
   20f74:	6e20      	ldr	r0, [r4, #96]	; 0x60
   20f76:	47a8      	blx	r5
   20f78:	e7ba      	b.n	20ef0 <CRYPTO_SetSecurityModeAD+0xc8>
   20f7a:	2300      	movs	r3, #0
   20f7c:	6123      	str	r3, [r4, #16]
   20f7e:	7523      	strb	r3, [r4, #20]
   20f80:	2300      	movs	r3, #0
   20f82:	62a3      	str	r3, [r4, #40]	; 0x28
   20f84:	e79b      	b.n	20ebe <CRYPTO_SetSecurityModeAD+0x96>
   20f86:	2b80      	cmp	r3, #128	; 0x80
   20f88:	d111      	bne.n	20fae <CRYPTO_SetSecurityModeAD+0x186>
   20f8a:	2340      	movs	r3, #64	; 0x40
   20f8c:	7523      	strb	r3, [r4, #20]
   20f8e:	e795      	b.n	20ebc <CRYPTO_SetSecurityModeAD+0x94>
   20f90:	231c      	movs	r3, #28
   20f92:	7523      	strb	r3, [r4, #20]
   20f94:	e7f5      	b.n	20f82 <CRYPTO_SetSecurityModeAD+0x15a>
   20f96:	f240 216f 	movw	r1, #623	; 0x26f
   20f9a:	480f      	ldr	r0, [pc, #60]	; (20fd8 <CRYPTO_SetSecurityModeAD+0x1b0>)
   20f9c:	f7ff f90c 	bl	201b8 <io_assert_failed>
   20fa0:	e74d      	b.n	20e3e <CRYPTO_SetSecurityModeAD+0x16>
   20fa2:	f44f 711d 	mov.w	r1, #628	; 0x274
   20fa6:	480c      	ldr	r0, [pc, #48]	; (20fd8 <CRYPTO_SetSecurityModeAD+0x1b0>)
   20fa8:	f7ff f906 	bl	201b8 <io_assert_failed>
   20fac:	e752      	b.n	20e54 <CRYPTO_SetSecurityModeAD+0x2c>
   20fae:	4b0d      	ldr	r3, [pc, #52]	; (20fe4 <CRYPTO_SetSecurityModeAD+0x1bc>)
   20fb0:	681b      	ldr	r3, [r3, #0]
   20fb2:	049b      	lsls	r3, r3, #18
   20fb4:	d405      	bmi.n	20fc2 <CRYPTO_SetSecurityModeAD+0x19a>
   20fb6:	2300      	movs	r3, #0
   20fb8:	7523      	strb	r3, [r4, #20]
   20fba:	e7e2      	b.n	20f82 <CRYPTO_SetSecurityModeAD+0x15a>
   20fbc:	2330      	movs	r3, #48	; 0x30
   20fbe:	7523      	strb	r3, [r4, #20]
   20fc0:	e7df      	b.n	20f82 <CRYPTO_SetSecurityModeAD+0x15a>
   20fc2:	4631      	mov	r1, r6
   20fc4:	4808      	ldr	r0, [pc, #32]	; (20fe8 <CRYPTO_SetSecurityModeAD+0x1c0>)
   20fc6:	f007 fa01 	bl	283cc <DiagPrintf>
   20fca:	e7f4      	b.n	20fb6 <CRYPTO_SetSecurityModeAD+0x18e>
   20fcc:	f240 21cf 	movw	r1, #719	; 0x2cf
   20fd0:	4801      	ldr	r0, [pc, #4]	; (20fd8 <CRYPTO_SetSecurityModeAD+0x1b0>)
   20fd2:	f7ff f8f1 	bl	201b8 <io_assert_failed>
   20fd6:	e791      	b.n	20efc <CRYPTO_SetSecurityModeAD+0xd4>
   20fd8:	000417cc 	.word	0x000417cc
   20fdc:	000290e5 	.word	0x000290e5
   20fe0:	200041e0 	.word	0x200041e0
   20fe4:	20004004 	.word	0x20004004
   20fe8:	000416e8 	.word	0x000416e8

00020fec <CRYPTO_Init>:
   20fec:	2800      	cmp	r0, #0
   20fee:	4a06      	ldr	r2, [pc, #24]	; (21008 <CRYPTO_Init+0x1c>)
   20ff0:	4b06      	ldr	r3, [pc, #24]	; (2100c <CRYPTO_Init+0x20>)
   20ff2:	b510      	push	{r4, lr}
   20ff4:	4604      	mov	r4, r0
   20ff6:	bf14      	ite	ne
   20ff8:	4604      	movne	r4, r0
   20ffa:	4614      	moveq	r4, r2
   20ffc:	4620      	mov	r0, r4
   20ffe:	4798      	blx	r3
   21000:	2301      	movs	r3, #1
   21002:	2000      	movs	r0, #0
   21004:	8023      	strh	r3, [r4, #0]
   21006:	bd10      	pop	{r4, pc}
   21008:	20004200 	.word	0x20004200
   2100c:	00020d99 	.word	0x00020d99

00021010 <CRYPTO_SHA_Init>:
   21010:	2800      	cmp	r0, #0
   21012:	4a06      	ldr	r2, [pc, #24]	; (2102c <CRYPTO_SHA_Init+0x1c>)
   21014:	4b06      	ldr	r3, [pc, #24]	; (21030 <CRYPTO_SHA_Init+0x20>)
   21016:	b510      	push	{r4, lr}
   21018:	4604      	mov	r4, r0
   2101a:	bf14      	ite	ne
   2101c:	4604      	movne	r4, r0
   2101e:	4614      	moveq	r4, r2
   21020:	4620      	mov	r0, r4
   21022:	4798      	blx	r3
   21024:	2301      	movs	r3, #1
   21026:	2000      	movs	r0, #0
   21028:	8023      	strh	r3, [r4, #0]
   2102a:	bd10      	pop	{r4, pc}
   2102c:	20004440 	.word	0x20004440
   21030:	00020de1 	.word	0x00020de1

00021034 <CRYPTO_OTPKey_Init>:
   21034:	b510      	push	{r4, lr}
   21036:	4b12      	ldr	r3, [pc, #72]	; (21080 <CRYPTO_OTPKey_Init+0x4c>)
   21038:	4c12      	ldr	r4, [pc, #72]	; (21084 <CRYPTO_OTPKey_Init+0x50>)
   2103a:	e843 f300 	tt	r3, r3
   2103e:	f413 0f80 	tst.w	r3, #4194304	; 0x400000
   21042:	4a11      	ldr	r2, [pc, #68]	; (21088 <CRYPTO_OTPKey_Init+0x54>)
   21044:	bf18      	it	ne
   21046:	4622      	movne	r2, r4
   21048:	2901      	cmp	r1, #1
   2104a:	d003      	beq.n	21054 <CRYPTO_OTPKey_Init+0x20>
   2104c:	2300      	movs	r3, #0
   2104e:	4618      	mov	r0, r3
   21050:	6353      	str	r3, [r2, #52]	; 0x34
   21052:	bd10      	pop	{r4, pc}
   21054:	2803      	cmp	r0, #3
   21056:	d805      	bhi.n	21064 <CRYPTO_OTPKey_Init+0x30>
   21058:	0743      	lsls	r3, r0, #29
   2105a:	2000      	movs	r0, #0
   2105c:	f043 4300 	orr.w	r3, r3, #2147483648	; 0x80000000
   21060:	6353      	str	r3, [r2, #52]	; 0x34
   21062:	bd10      	pop	{r4, pc}
   21064:	4b09      	ldr	r3, [pc, #36]	; (2108c <CRYPTO_OTPKey_Init+0x58>)
   21066:	681b      	ldr	r3, [r3, #0]
   21068:	039b      	lsls	r3, r3, #14
   2106a:	d402      	bmi.n	21072 <CRYPTO_OTPKey_Init+0x3e>
   2106c:	f04f 30ff 	mov.w	r0, #4294967295
   21070:	bd10      	pop	{r4, pc}
   21072:	4807      	ldr	r0, [pc, #28]	; (21090 <CRYPTO_OTPKey_Init+0x5c>)
   21074:	f007 f9aa 	bl	283cc <DiagPrintf>
   21078:	f04f 30ff 	mov.w	r0, #4294967295
   2107c:	bd10      	pop	{r4, pc}
   2107e:	bf00      	nop
   21080:	000283cd 	.word	0x000283cd
   21084:	50100000 	.word	0x50100000
   21088:	40100000 	.word	0x40100000
   2108c:	20004004 	.word	0x20004004
   21090:	00041724 	.word	0x00041724

00021094 <CRYPTO_OTPKey_SHA_Init>:
   21094:	b510      	push	{r4, lr}
   21096:	4b16      	ldr	r3, [pc, #88]	; (210f0 <CRYPTO_OTPKey_SHA_Init+0x5c>)
   21098:	4c16      	ldr	r4, [pc, #88]	; (210f4 <CRYPTO_OTPKey_SHA_Init+0x60>)
   2109a:	e843 f300 	tt	r3, r3
   2109e:	f413 0f80 	tst.w	r3, #4194304	; 0x400000
   210a2:	4a15      	ldr	r2, [pc, #84]	; (210f8 <CRYPTO_OTPKey_SHA_Init+0x64>)
   210a4:	bf18      	it	ne
   210a6:	4622      	movne	r2, r4
   210a8:	2901      	cmp	r1, #1
   210aa:	d005      	beq.n	210b8 <CRYPTO_OTPKey_SHA_Init+0x24>
   210ac:	2300      	movs	r3, #0
   210ae:	4913      	ldr	r1, [pc, #76]	; (210fc <CRYPTO_OTPKey_SHA_Init+0x68>)
   210b0:	4618      	mov	r0, r3
   210b2:	600b      	str	r3, [r1, #0]
   210b4:	6353      	str	r3, [r2, #52]	; 0x34
   210b6:	bd10      	pop	{r4, pc}
   210b8:	4b10      	ldr	r3, [pc, #64]	; (210fc <CRYPTO_OTPKey_SHA_Init+0x68>)
   210ba:	6019      	str	r1, [r3, #0]
   210bc:	b168      	cbz	r0, 210da <CRYPTO_OTPKey_SHA_Init+0x46>
   210be:	2801      	cmp	r0, #1
   210c0:	d006      	beq.n	210d0 <CRYPTO_OTPKey_SHA_Init+0x3c>
   210c2:	4b0f      	ldr	r3, [pc, #60]	; (21100 <CRYPTO_OTPKey_SHA_Init+0x6c>)
   210c4:	681b      	ldr	r3, [r3, #0]
   210c6:	039b      	lsls	r3, r3, #14
   210c8:	d40b      	bmi.n	210e2 <CRYPTO_OTPKey_SHA_Init+0x4e>
   210ca:	f04f 30ff 	mov.w	r0, #4294967295
   210ce:	bd10      	pop	{r4, pc}
   210d0:	f04f 4360 	mov.w	r3, #3758096384	; 0xe0000000
   210d4:	2000      	movs	r0, #0
   210d6:	6353      	str	r3, [r2, #52]	; 0x34
   210d8:	bd10      	pop	{r4, pc}
   210da:	f04f 4300 	mov.w	r3, #2147483648	; 0x80000000
   210de:	6353      	str	r3, [r2, #52]	; 0x34
   210e0:	bd10      	pop	{r4, pc}
   210e2:	4808      	ldr	r0, [pc, #32]	; (21104 <CRYPTO_OTPKey_SHA_Init+0x70>)
   210e4:	f007 f972 	bl	283cc <DiagPrintf>
   210e8:	f04f 30ff 	mov.w	r0, #4294967295
   210ec:	bd10      	pop	{r4, pc}
   210ee:	bf00      	nop
   210f0:	000283cd 	.word	0x000283cd
   210f4:	50108000 	.word	0x50108000
   210f8:	40108000 	.word	0x40108000
   210fc:	200041e0 	.word	0x200041e0
   21100:	20004004 	.word	0x20004004
   21104:	00041724 	.word	0x00041724

00021108 <CRYPTO_Cache_Sync>:
   21108:	e92d 4ff0 	stmdb	sp!, {r4, r5, r6, r7, r8, r9, sl, fp, lr}
   2110c:	1847      	adds	r7, r0, r1
   2110e:	b08b      	sub	sp, #44	; 0x2c
   21110:	2300      	movs	r3, #0
   21112:	f010 081f 	ands.w	r8, r0, #31
   21116:	f007 091f 	and.w	r9, r7, #31
   2111a:	4605      	mov	r5, r0
   2111c:	460c      	mov	r4, r1
   2111e:	4606      	mov	r6, r0
   21120:	f8cd 9004 	str.w	r9, [sp, #4]
   21124:	e9cd 3302 	strd	r3, r3, [sp, #8]
   21128:	e9cd 3304 	strd	r3, r3, [sp, #16]
   2112c:	e9cd 3306 	strd	r3, r3, [sp, #24]
   21130:	e9cd 3308 	strd	r3, r3, [sp, #32]
   21134:	d133      	bne.n	2119e <CRYPTO_Cache_Sync+0x96>
   21136:	f1b9 0f00 	cmp.w	r9, #0
   2113a:	d005      	beq.n	21148 <CRYPTO_Cache_Sync+0x40>
   2113c:	ea85 0307 	eor.w	r3, r5, r7
   21140:	f033 031f 	bics.w	r3, r3, #31
   21144:	f040 8088 	bne.w	21258 <CRYPTO_Cache_Sync+0x150>
   21148:	495a      	ldr	r1, [pc, #360]	; (212b4 <CRYPTO_Cache_Sync+0x1ac>)
   2114a:	694b      	ldr	r3, [r1, #20]
   2114c:	03d8      	lsls	r0, r3, #15
   2114e:	d523      	bpl.n	21198 <CRYPTO_Cache_Sync+0x90>
   21150:	ea05 0304 	and.w	r3, r5, r4
   21154:	3301      	adds	r3, #1
   21156:	d058      	beq.n	2120a <CRYPTO_Cache_Sync+0x102>
   21158:	f1b8 0f00 	cmp.w	r8, #0
   2115c:	d006      	beq.n	2116c <CRYPTO_Cache_Sync+0x64>
   2115e:	1e7c      	subs	r4, r7, #1
   21160:	f025 061f 	bic.w	r6, r5, #31
   21164:	f024 041f 	bic.w	r4, r4, #31
   21168:	3420      	adds	r4, #32
   2116a:	1ba4      	subs	r4, r4, r6
   2116c:	f3bf 8f4f 	dsb	sy
   21170:	2c00      	cmp	r4, #0
   21172:	dd0d      	ble.n	21190 <CRYPTO_Cache_Sync+0x88>
   21174:	1e62      	subs	r2, r4, #1
   21176:	f106 0320 	add.w	r3, r6, #32
   2117a:	494e      	ldr	r1, [pc, #312]	; (212b4 <CRYPTO_Cache_Sync+0x1ac>)
   2117c:	f022 021f 	bic.w	r2, r2, #31
   21180:	441a      	add	r2, r3
   21182:	429a      	cmp	r2, r3
   21184:	f8c1 625c 	str.w	r6, [r1, #604]	; 0x25c
   21188:	461e      	mov	r6, r3
   2118a:	f103 0320 	add.w	r3, r3, #32
   2118e:	d1f8      	bne.n	21182 <CRYPTO_Cache_Sync+0x7a>
   21190:	f3bf 8f4f 	dsb	sy
   21194:	f3bf 8f6f 	isb	sy
   21198:	b00b      	add	sp, #44	; 0x2c
   2119a:	e8bd 8ff0 	ldmia.w	sp!, {r4, r5, r6, r7, r8, r9, sl, fp, pc}
   2119e:	f020 0b1f 	bic.w	fp, r0, #31
   211a2:	f10d 0a08 	add.w	sl, sp, #8
   211a6:	4b44      	ldr	r3, [pc, #272]	; (212b8 <CRYPTO_Cache_Sync+0x1b0>)
   211a8:	2220      	movs	r2, #32
   211aa:	4659      	mov	r1, fp
   211ac:	4650      	mov	r0, sl
   211ae:	9300      	str	r3, [sp, #0]
   211b0:	4798      	blx	r3
   211b2:	4a40      	ldr	r2, [pc, #256]	; (212b4 <CRYPTO_Cache_Sync+0x1ac>)
   211b4:	6951      	ldr	r1, [r2, #20]
   211b6:	03cb      	lsls	r3, r1, #15
   211b8:	d507      	bpl.n	211ca <CRYPTO_Cache_Sync+0xc2>
   211ba:	f3bf 8f4f 	dsb	sy
   211be:	f8c2 b25c 	str.w	fp, [r2, #604]	; 0x25c
   211c2:	f3bf 8f4f 	dsb	sy
   211c6:	f3bf 8f6f 	isb	sy
   211ca:	ea85 0107 	eor.w	r1, r5, r7
   211ce:	fa5f f288 	uxtb.w	r2, r8
   211d2:	eb0a 0008 	add.w	r0, sl, r8
   211d6:	f031 031f 	bics.w	r3, r1, #31
   211da:	d037      	beq.n	2124c <CRYPTO_Cache_Sync+0x144>
   211dc:	f1c2 0220 	rsb	r2, r2, #32
   211e0:	4629      	mov	r1, r5
   211e2:	9b00      	ldr	r3, [sp, #0]
   211e4:	4798      	blx	r3
   211e6:	4651      	mov	r1, sl
   211e8:	2220      	movs	r2, #32
   211ea:	4658      	mov	r0, fp
   211ec:	9b00      	ldr	r3, [sp, #0]
   211ee:	4798      	blx	r3
   211f0:	4a30      	ldr	r2, [pc, #192]	; (212b4 <CRYPTO_Cache_Sync+0x1ac>)
   211f2:	6951      	ldr	r1, [r2, #20]
   211f4:	03c8      	lsls	r0, r1, #15
   211f6:	d59e      	bpl.n	21136 <CRYPTO_Cache_Sync+0x2e>
   211f8:	f3bf 8f4f 	dsb	sy
   211fc:	f8c2 b268 	str.w	fp, [r2, #616]	; 0x268
   21200:	f3bf 8f4f 	dsb	sy
   21204:	f3bf 8f6f 	isb	sy
   21208:	e795      	b.n	21136 <CRYPTO_Cache_Sync+0x2e>
   2120a:	2300      	movs	r3, #0
   2120c:	f8c1 3084 	str.w	r3, [r1, #132]	; 0x84
   21210:	f3bf 8f4f 	dsb	sy
   21214:	f8d1 5080 	ldr.w	r5, [r1, #128]	; 0x80
   21218:	f643 76e0 	movw	r6, #16352	; 0x3fe0
   2121c:	f3c5 344e 	ubfx	r4, r5, #13, #15
   21220:	f3c5 05c9 	ubfx	r5, r5, #3, #10
   21224:	0164      	lsls	r4, r4, #5
   21226:	ea04 0006 	and.w	r0, r4, r6
   2122a:	462b      	mov	r3, r5
   2122c:	ea40 7283 	orr.w	r2, r0, r3, lsl #30
   21230:	3b01      	subs	r3, #1
   21232:	f8c1 2260 	str.w	r2, [r1, #608]	; 0x260
   21236:	1c5a      	adds	r2, r3, #1
   21238:	d1f8      	bne.n	2122c <CRYPTO_Cache_Sync+0x124>
   2123a:	3c20      	subs	r4, #32
   2123c:	f114 0f20 	cmn.w	r4, #32
   21240:	d1f1      	bne.n	21226 <CRYPTO_Cache_Sync+0x11e>
   21242:	f3bf 8f4f 	dsb	sy
   21246:	f3bf 8f6f 	isb	sy
   2124a:	e7a5      	b.n	21198 <CRYPTO_Cache_Sync+0x90>
   2124c:	9b01      	ldr	r3, [sp, #4]
   2124e:	4629      	mov	r1, r5
   21250:	1a9a      	subs	r2, r3, r2
   21252:	9b00      	ldr	r3, [sp, #0]
   21254:	4798      	blx	r3
   21256:	e7c6      	b.n	211e6 <CRYPTO_Cache_Sync+0xde>
   21258:	f027 091f 	bic.w	r9, r7, #31
   2125c:	f10d 0a08 	add.w	sl, sp, #8
   21260:	4b15      	ldr	r3, [pc, #84]	; (212b8 <CRYPTO_Cache_Sync+0x1b0>)
   21262:	2220      	movs	r2, #32
   21264:	4649      	mov	r1, r9
   21266:	4650      	mov	r0, sl
   21268:	9300      	str	r3, [sp, #0]
   2126a:	4798      	blx	r3
   2126c:	4b11      	ldr	r3, [pc, #68]	; (212b4 <CRYPTO_Cache_Sync+0x1ac>)
   2126e:	695a      	ldr	r2, [r3, #20]
   21270:	03d1      	lsls	r1, r2, #15
   21272:	d507      	bpl.n	21284 <CRYPTO_Cache_Sync+0x17c>
   21274:	f3bf 8f4f 	dsb	sy
   21278:	f8c3 925c 	str.w	r9, [r3, #604]	; 0x25c
   2127c:	f3bf 8f4f 	dsb	sy
   21280:	f3bf 8f6f 	isb	sy
   21284:	9a01      	ldr	r2, [sp, #4]
   21286:	4649      	mov	r1, r9
   21288:	9b00      	ldr	r3, [sp, #0]
   2128a:	4650      	mov	r0, sl
   2128c:	4798      	blx	r3
   2128e:	2220      	movs	r2, #32
   21290:	9b00      	ldr	r3, [sp, #0]
   21292:	4651      	mov	r1, sl
   21294:	4648      	mov	r0, r9
   21296:	4798      	blx	r3
   21298:	4b06      	ldr	r3, [pc, #24]	; (212b4 <CRYPTO_Cache_Sync+0x1ac>)
   2129a:	695a      	ldr	r2, [r3, #20]
   2129c:	03d2      	lsls	r2, r2, #15
   2129e:	f57f af53 	bpl.w	21148 <CRYPTO_Cache_Sync+0x40>
   212a2:	f3bf 8f4f 	dsb	sy
   212a6:	f8c3 9268 	str.w	r9, [r3, #616]	; 0x268
   212aa:	f3bf 8f4f 	dsb	sy
   212ae:	f3bf 8f6f 	isb	sy
   212b2:	e749      	b.n	21148 <CRYPTO_Cache_Sync+0x40>
   212b4:	e000ed00 	.word	0xe000ed00
   212b8:	00028f1d 	.word	0x00028f1d

000212bc <CRYPTO_ProcessAD>:
   212bc:	e92d 4ff0 	stmdb	sp!, {r4, r5, r6, r7, r8, r9, sl, fp, lr}
   212c0:	4698      	mov	r8, r3
   212c2:	b089      	sub	sp, #36	; 0x24
   212c4:	7a03      	ldrb	r3, [r0, #8]
   212c6:	4683      	mov	fp, r0
   212c8:	460e      	mov	r6, r1
   212ca:	4615      	mov	r5, r2
   212cc:	f8dd a05c 	ldr.w	sl, [sp, #92]	; 0x5c
   212d0:	2b00      	cmp	r3, #0
   212d2:	f000 81e7 	beq.w	216a4 <CRYPTO_ProcessAD+0x3e8>
   212d6:	4b7c      	ldr	r3, [pc, #496]	; (214c8 <CRYPTO_ProcessAD+0x20c>)
   212d8:	f04f 0900 	mov.w	r9, #0
   212dc:	e843 f300 	tt	r3, r3
   212e0:	f413 0f80 	tst.w	r3, #4194304	; 0x400000
   212e4:	4b79      	ldr	r3, [pc, #484]	; (214cc <CRYPTO_ProcessAD+0x210>)
   212e6:	4f7a      	ldr	r7, [pc, #488]	; (214d0 <CRYPTO_ProcessAD+0x214>)
   212e8:	bf18      	it	ne
   212ea:	461f      	movne	r7, r3
   212ec:	2e00      	cmp	r6, #0
   212ee:	f000 81e7 	beq.w	216c0 <CRYPTO_ProcessAD+0x404>
   212f2:	f89b 3000 	ldrb.w	r3, [fp]
   212f6:	2b01      	cmp	r3, #1
   212f8:	d004      	beq.n	21304 <CRYPTO_ProcessAD+0x48>
   212fa:	f44f 716c 	mov.w	r1, #944	; 0x3b0
   212fe:	4875      	ldr	r0, [pc, #468]	; (214d4 <CRYPTO_ProcessAD+0x218>)
   21300:	f7fe ff5a 	bl	201b8 <io_assert_failed>
   21304:	4b74      	ldr	r3, [pc, #464]	; (214d8 <CRYPTO_ProcessAD+0x21c>)
   21306:	4648      	mov	r0, r9
   21308:	4798      	blx	r3
   2130a:	9b14      	ldr	r3, [sp, #80]	; 0x50
   2130c:	f8db 2028 	ldr.w	r2, [fp, #40]	; 0x28
   21310:	f8cb 304c 	str.w	r3, [fp, #76]	; 0x4c
   21314:	f005 030f 	and.w	r3, r5, #15
   21318:	f8cb 5054 	str.w	r5, [fp, #84]	; 0x54
   2131c:	f8cb 3018 	str.w	r3, [fp, #24]
   21320:	425b      	negs	r3, r3
   21322:	9203      	str	r2, [sp, #12]
   21324:	f003 030f 	and.w	r3, r3, #15
   21328:	f8cb 3058 	str.w	r3, [fp, #88]	; 0x58
   2132c:	9b14      	ldr	r3, [sp, #80]	; 0x50
   2132e:	f003 030f 	and.w	r3, r3, #15
   21332:	f8cb 301c 	str.w	r3, [fp, #28]
   21336:	425b      	negs	r3, r3
   21338:	f003 030f 	and.w	r3, r3, #15
   2133c:	f8cb 3050 	str.w	r3, [fp, #80]	; 0x50
   21340:	f8db 300c 	ldr.w	r3, [fp, #12]
   21344:	3301      	adds	r3, #1
   21346:	f000 81d2 	beq.w	216ee <CRYPTO_ProcessAD+0x432>
   2134a:	f8db 3030 	ldr.w	r3, [fp, #48]	; 0x30
   2134e:	442b      	add	r3, r5
   21350:	f8cb 3030 	str.w	r3, [fp, #48]	; 0x30
   21354:	f1ba 0f00 	cmp.w	sl, #0
   21358:	d013      	beq.n	21382 <CRYPTO_ProcessAD+0xc6>
   2135a:	f8da 305c 	ldr.w	r3, [sl, #92]	; 0x5c
   2135e:	2b00      	cmp	r3, #0
   21360:	f000 823d 	beq.w	217de <CRYPTO_ProcessAD+0x522>
   21364:	2301      	movs	r3, #1
   21366:	f88b 302d 	strb.w	r3, [fp, #45]	; 0x2d
   2136a:	9b15      	ldr	r3, [sp, #84]	; 0x54
   2136c:	2b00      	cmp	r3, #0
   2136e:	d047      	beq.n	21400 <CRYPTO_ProcessAD+0x144>
   21370:	f89a 304a 	ldrb.w	r3, [sl, #74]	; 0x4a
   21374:	2b01      	cmp	r3, #1
   21376:	d10a      	bne.n	2138e <CRYPTO_ProcessAD+0xd2>
   21378:	f8da 305c 	ldr.w	r3, [sl, #92]	; 0x5c
   2137c:	2b01      	cmp	r3, #1
   2137e:	d006      	beq.n	2138e <CRYPTO_ProcessAD+0xd2>
   21380:	e236      	b.n	217f0 <CRYPTO_ProcessAD+0x534>
   21382:	2301      	movs	r3, #1
   21384:	f88b 302d 	strb.w	r3, [fp, #45]	; 0x2d
   21388:	9b15      	ldr	r3, [sp, #84]	; 0x54
   2138a:	2b00      	cmp	r3, #0
   2138c:	d038      	beq.n	21400 <CRYPTO_ProcessAD+0x144>
   2138e:	2370      	movs	r3, #112	; 0x70
   21390:	2000      	movs	r0, #0
   21392:	f363 601f 	bfi	r0, r3, #24, #8
   21396:	9b03      	ldr	r3, [sp, #12]
   21398:	f363 0007 	bfi	r0, r3, #0, #8
   2139c:	4b4f      	ldr	r3, [pc, #316]	; (214dc <CRYPTO_ProcessAD+0x220>)
   2139e:	695a      	ldr	r2, [r3, #20]
   213a0:	03d2      	lsls	r2, r2, #15
   213a2:	d529      	bpl.n	213f8 <CRYPTO_ProcessAD+0x13c>
   213a4:	9a15      	ldr	r2, [sp, #84]	; 0x54
   213a6:	9903      	ldr	r1, [sp, #12]
   213a8:	400a      	ands	r2, r1
   213aa:	3201      	adds	r2, #1
   213ac:	f000 82ee 	beq.w	2198c <CRYPTO_ProcessAD+0x6d0>
   213b0:	9b15      	ldr	r3, [sp, #84]	; 0x54
   213b2:	06dc      	lsls	r4, r3, #27
   213b4:	f000 830e 	beq.w	219d4 <CRYPTO_ProcessAD+0x718>
   213b8:	9a03      	ldr	r2, [sp, #12]
   213ba:	4413      	add	r3, r2
   213bc:	9a15      	ldr	r2, [sp, #84]	; 0x54
   213be:	3b01      	subs	r3, #1
   213c0:	f022 011f 	bic.w	r1, r2, #31
   213c4:	f023 031f 	bic.w	r3, r3, #31
   213c8:	3320      	adds	r3, #32
   213ca:	1a5b      	subs	r3, r3, r1
   213cc:	f3bf 8f4f 	dsb	sy
   213d0:	2b00      	cmp	r3, #0
   213d2:	dd0d      	ble.n	213f0 <CRYPTO_ProcessAD+0x134>
   213d4:	1e5a      	subs	r2, r3, #1
   213d6:	f101 0320 	add.w	r3, r1, #32
   213da:	4c40      	ldr	r4, [pc, #256]	; (214dc <CRYPTO_ProcessAD+0x220>)
   213dc:	f022 021f 	bic.w	r2, r2, #31
   213e0:	441a      	add	r2, r3
   213e2:	429a      	cmp	r2, r3
   213e4:	f8c4 1270 	str.w	r1, [r4, #624]	; 0x270
   213e8:	4619      	mov	r1, r3
   213ea:	f103 0320 	add.w	r3, r3, #32
   213ee:	d1f8      	bne.n	213e2 <CRYPTO_ProcessAD+0x126>
   213f0:	f3bf 8f4f 	dsb	sy
   213f4:	f3bf 8f6f 	isb	sy
   213f8:	464a      	mov	r2, r9
   213fa:	9915      	ldr	r1, [sp, #84]	; 0x54
   213fc:	f7ff f8a2 	bl	20544 <CRYPTO_SetDstDesc>
   21400:	4653      	mov	r3, sl
   21402:	4641      	mov	r1, r8
   21404:	9a12      	ldr	r2, [sp, #72]	; 0x48
   21406:	4658      	mov	r0, fp
   21408:	f8cd 9000 	str.w	r9, [sp]
   2140c:	f04f 4480 	mov.w	r4, #1073741824	; 0x40000000
   21410:	f7ff fa84 	bl	2091c <CRYPTO_SrcDescKeyIv>
   21414:	9b13      	ldr	r3, [sp, #76]	; 0x4c
   21416:	2b00      	cmp	r3, #0
   21418:	f000 81de 	beq.w	217d8 <CRYPTO_ProcessAD+0x51c>
   2141c:	492f      	ldr	r1, [pc, #188]	; (214dc <CRYPTO_ProcessAD+0x220>)
   2141e:	694b      	ldr	r3, [r1, #20]
   21420:	03d8      	lsls	r0, r3, #15
   21422:	d521      	bpl.n	21468 <CRYPTO_ProcessAD+0x1ac>
   21424:	e9dd 3213 	ldrd	r3, r2, [sp, #76]	; 0x4c
   21428:	4013      	ands	r3, r2
   2142a:	3301      	adds	r3, #1
   2142c:	f000 823c 	beq.w	218a8 <CRYPTO_ProcessAD+0x5ec>
   21430:	9b13      	ldr	r3, [sp, #76]	; 0x4c
   21432:	06da      	lsls	r2, r3, #27
   21434:	f040 8217 	bne.w	21866 <CRYPTO_ProcessAD+0x5aa>
   21438:	e9dd 1313 	ldrd	r1, r3, [sp, #76]	; 0x4c
   2143c:	f3bf 8f4f 	dsb	sy
   21440:	2b00      	cmp	r3, #0
   21442:	dd0d      	ble.n	21460 <CRYPTO_ProcessAD+0x1a4>
   21444:	1e5a      	subs	r2, r3, #1
   21446:	f101 0320 	add.w	r3, r1, #32
   2144a:	4824      	ldr	r0, [pc, #144]	; (214dc <CRYPTO_ProcessAD+0x220>)
   2144c:	f022 021f 	bic.w	r2, r2, #31
   21450:	441a      	add	r2, r3
   21452:	429a      	cmp	r2, r3
   21454:	f8c0 1270 	str.w	r1, [r0, #624]	; 0x270
   21458:	4619      	mov	r1, r3
   2145a:	f103 0320 	add.w	r3, r3, #32
   2145e:	d1f8      	bne.n	21452 <CRYPTO_ProcessAD+0x196>
   21460:	f3bf 8f4f 	dsb	sy
   21464:	f3bf 8f6f 	isb	sy
   21468:	9b14      	ldr	r3, [sp, #80]	; 0x50
   2146a:	2b10      	cmp	r3, #16
   2146c:	f240 8138 	bls.w	216e0 <CRYPTO_ProcessAD+0x424>
   21470:	f8dd 804c 	ldr.w	r8, [sp, #76]	; 0x4c
   21474:	9a14      	ldr	r2, [sp, #80]	; 0x50
   21476:	4643      	mov	r3, r8
   21478:	f8df a074 	ldr.w	sl, [pc, #116]	; 214f0 <CRYPTO_ProcessAD+0x234>
   2147c:	4413      	add	r3, r2
   2147e:	e9cd 7504 	strd	r7, r5, [sp, #16]
   21482:	461f      	mov	r7, r3
   21484:	e00c      	b.n	214a0 <CRYPTO_ProcessAD+0x1e4>
   21486:	4641      	mov	r1, r8
   21488:	f108 0810 	add.w	r8, r8, #16
   2148c:	4620      	mov	r0, r4
   2148e:	464a      	mov	r2, r9
   21490:	f7ff f810 	bl	204b4 <CRYPTO_SetSrcDesc>
   21494:	eba7 0308 	sub.w	r3, r7, r8
   21498:	f04f 4480 	mov.w	r4, #1073741824	; 0x40000000
   2149c:	2b10      	cmp	r3, #16
   2149e:	d929      	bls.n	214f4 <CRYPTO_ProcessAD+0x238>
   214a0:	f8da 2008 	ldr.w	r2, [sl, #8]
   214a4:	2510      	movs	r5, #16
   214a6:	0493      	lsls	r3, r2, #18
   214a8:	f365 240c 	bfi	r4, r5, #8, #5
   214ac:	d5eb      	bpl.n	21486 <CRYPTO_ProcessAD+0x1ca>
   214ae:	462b      	mov	r3, r5
   214b0:	4642      	mov	r2, r8
   214b2:	490b      	ldr	r1, [pc, #44]	; (214e0 <CRYPTO_ProcessAD+0x224>)
   214b4:	480b      	ldr	r0, [pc, #44]	; (214e4 <CRYPTO_ProcessAD+0x228>)
   214b6:	f006 ff89 	bl	283cc <DiagPrintf>
   214ba:	4a0b      	ldr	r2, [pc, #44]	; (214e8 <CRYPTO_ProcessAD+0x22c>)
   214bc:	4629      	mov	r1, r5
   214be:	4640      	mov	r0, r8
   214c0:	4b0a      	ldr	r3, [pc, #40]	; (214ec <CRYPTO_ProcessAD+0x230>)
   214c2:	4798      	blx	r3
   214c4:	e7df      	b.n	21486 <CRYPTO_ProcessAD+0x1ca>
   214c6:	bf00      	nop
   214c8:	000283cd 	.word	0x000283cd
   214cc:	50100000 	.word	0x50100000
   214d0:	40100000 	.word	0x40100000
   214d4:	000417e8 	.word	0x000417e8
   214d8:	00020625 	.word	0x00020625
   214dc:	e000ed00 	.word	0xe000ed00
   214e0:	00041678 	.word	0x00041678
   214e4:	00041690 	.word	0x00041690
   214e8:	00041738 	.word	0x00041738
   214ec:	000203a5 	.word	0x000203a5
   214f0:	20004004 	.word	0x20004004
   214f4:	9b14      	ldr	r3, [sp, #80]	; 0x50
   214f6:	9a14      	ldr	r2, [sp, #80]	; 0x50
   214f8:	3b11      	subs	r3, #17
   214fa:	9813      	ldr	r0, [sp, #76]	; 0x4c
   214fc:	3a10      	subs	r2, #16
   214fe:	091b      	lsrs	r3, r3, #4
   21500:	1c59      	adds	r1, r3, #1
   21502:	ebc3 7303 	rsb	r3, r3, r3, lsl #28
   21506:	eb00 1101 	add.w	r1, r0, r1, lsl #4
   2150a:	eb02 1303 	add.w	r3, r2, r3, lsl #4
   2150e:	9113      	str	r1, [sp, #76]	; 0x4c
   21510:	9314      	str	r3, [sp, #80]	; 0x50
   21512:	e9dd 7504 	ldrd	r7, r5, [sp, #16]
   21516:	9b14      	ldr	r3, [sp, #80]	; 0x50
   21518:	f363 240c 	bfi	r4, r3, #8, #5
   2151c:	f8da 3008 	ldr.w	r3, [sl, #8]
   21520:	0498      	lsls	r0, r3, #18
   21522:	f100 820e 	bmi.w	21942 <CRYPTO_ProcessAD+0x686>
   21526:	4620      	mov	r0, r4
   21528:	9913      	ldr	r1, [sp, #76]	; 0x4c
   2152a:	464a      	mov	r2, r9
   2152c:	f04f 4480 	mov.w	r4, #1073741824	; 0x40000000
   21530:	f7fe ffc0 	bl	204b4 <CRYPTO_SetSrcDesc>
   21534:	f8db 3050 	ldr.w	r3, [fp, #80]	; 0x50
   21538:	b1fb      	cbz	r3, 2157a <CRYPTO_ProcessAD+0x2be>
   2153a:	f363 240c 	bfi	r4, r3, #8, #5
   2153e:	4bb6      	ldr	r3, [pc, #728]	; (21818 <CRYPTO_ProcessAD+0x55c>)
   21540:	f8df 82e0 	ldr.w	r8, [pc, #736]	; 21824 <CRYPTO_ProcessAD+0x568>
   21544:	695a      	ldr	r2, [r3, #20]
   21546:	03d1      	lsls	r1, r2, #15
   21548:	d50b      	bpl.n	21562 <CRYPTO_ProcessAD+0x2a6>
   2154a:	f3bf 8f4f 	dsb	sy
   2154e:	f108 0220 	add.w	r2, r8, #32
   21552:	f8c3 8270 	str.w	r8, [r3, #624]	; 0x270
   21556:	f8c3 2270 	str.w	r2, [r3, #624]	; 0x270
   2155a:	f3bf 8f4f 	dsb	sy
   2155e:	f3bf 8f6f 	isb	sy
   21562:	f8da 3008 	ldr.w	r3, [sl, #8]
   21566:	049a      	lsls	r2, r3, #18
   21568:	f100 81f7 	bmi.w	2195a <CRYPTO_ProcessAD+0x69e>
   2156c:	4620      	mov	r0, r4
   2156e:	4641      	mov	r1, r8
   21570:	464a      	mov	r2, r9
   21572:	f04f 4480 	mov.w	r4, #1073741824	; 0x40000000
   21576:	f7fe ff9d 	bl	204b4 <CRYPTO_SetSrcDesc>
   2157a:	b31e      	cbz	r6, 215c4 <CRYPTO_ProcessAD+0x308>
   2157c:	49a6      	ldr	r1, [pc, #664]	; (21818 <CRYPTO_ProcessAD+0x55c>)
   2157e:	694b      	ldr	r3, [r1, #20]
   21580:	03db      	lsls	r3, r3, #15
   21582:	d51f      	bpl.n	215c4 <CRYPTO_ProcessAD+0x308>
   21584:	ea06 0305 	and.w	r3, r6, r5
   21588:	3301      	adds	r3, #1
   2158a:	f000 81af 	beq.w	218ec <CRYPTO_ProcessAD+0x630>
   2158e:	06f0      	lsls	r0, r6, #27
   21590:	f040 8160 	bne.w	21854 <CRYPTO_ProcessAD+0x598>
   21594:	462b      	mov	r3, r5
   21596:	4631      	mov	r1, r6
   21598:	f3bf 8f4f 	dsb	sy
   2159c:	2b00      	cmp	r3, #0
   2159e:	dd0d      	ble.n	215bc <CRYPTO_ProcessAD+0x300>
   215a0:	1e5a      	subs	r2, r3, #1
   215a2:	f101 0320 	add.w	r3, r1, #32
   215a6:	489c      	ldr	r0, [pc, #624]	; (21818 <CRYPTO_ProcessAD+0x55c>)
   215a8:	f022 021f 	bic.w	r2, r2, #31
   215ac:	441a      	add	r2, r3
   215ae:	4293      	cmp	r3, r2
   215b0:	f8c0 1270 	str.w	r1, [r0, #624]	; 0x270
   215b4:	4619      	mov	r1, r3
   215b6:	f103 0320 	add.w	r3, r3, #32
   215ba:	d1f8      	bne.n	215ae <CRYPTO_ProcessAD+0x2f2>
   215bc:	f3bf 8f4f 	dsb	sy
   215c0:	f3bf 8f6f 	isb	sy
   215c4:	f643 78f0 	movw	r8, #16368	; 0x3ff0
   215c8:	4545      	cmp	r5, r8
   215ca:	d90e      	bls.n	215ea <CRYPTO_ProcessAD+0x32e>
   215cc:	4620      	mov	r0, r4
   215ce:	eba5 0508 	sub.w	r5, r5, r8
   215d2:	f368 309b 	bfi	r0, r8, #14, #14
   215d6:	4631      	mov	r1, r6
   215d8:	464a      	mov	r2, r9
   215da:	f7fe ff6b 	bl	204b4 <CRYPTO_SetSrcDesc>
   215de:	4545      	cmp	r5, r8
   215e0:	4446      	add	r6, r8
   215e2:	f04f 4080 	mov.w	r0, #1073741824	; 0x40000000
   215e6:	d8f2      	bhi.n	215ce <CRYPTO_ProcessAD+0x312>
   215e8:	4604      	mov	r4, r0
   215ea:	f8db 3058 	ldr.w	r3, [fp, #88]	; 0x58
   215ee:	2b00      	cmp	r3, #0
   215f0:	d056      	beq.n	216a0 <CRYPTO_ProcessAD+0x3e4>
   215f2:	f3c4 7400 	ubfx	r4, r4, #28, #1
   215f6:	03ab      	lsls	r3, r5, #14
   215f8:	4888      	ldr	r0, [pc, #544]	; (2181c <CRYPTO_ProcessAD+0x560>)
   215fa:	4631      	mov	r1, r6
   215fc:	464a      	mov	r2, r9
   215fe:	ea43 7404 	orr.w	r4, r3, r4, lsl #28
   21602:	4020      	ands	r0, r4
   21604:	f040 4080 	orr.w	r0, r0, #1073741824	; 0x40000000
   21608:	f7fe ff54 	bl	204b4 <CRYPTO_SetSrcDesc>
   2160c:	f8da 3008 	ldr.w	r3, [sl, #8]
   21610:	0499      	lsls	r1, r3, #18
   21612:	f100 80d5 	bmi.w	217c0 <CRYPTO_ProcessAD+0x504>
   21616:	f8db 3058 	ldr.w	r3, [fp, #88]	; 0x58
   2161a:	b1fb      	cbz	r3, 2165c <CRYPTO_ProcessAD+0x3a0>
   2161c:	4c80      	ldr	r4, [pc, #512]	; (21820 <CRYPTO_ProcessAD+0x564>)
   2161e:	4d81      	ldr	r5, [pc, #516]	; (21824 <CRYPTO_ProcessAD+0x568>)
   21620:	ea04 3483 	and.w	r4, r4, r3, lsl #14
   21624:	4b7c      	ldr	r3, [pc, #496]	; (21818 <CRYPTO_ProcessAD+0x55c>)
   21626:	695a      	ldr	r2, [r3, #20]
   21628:	f044 44a0 	orr.w	r4, r4, #1342177280	; 0x50000000
   2162c:	03d2      	lsls	r2, r2, #15
   2162e:	d50b      	bpl.n	21648 <CRYPTO_ProcessAD+0x38c>
   21630:	f3bf 8f4f 	dsb	sy
   21634:	f105 0220 	add.w	r2, r5, #32
   21638:	f8c3 5270 	str.w	r5, [r3, #624]	; 0x270
   2163c:	f8c3 2270 	str.w	r2, [r3, #624]	; 0x270
   21640:	f3bf 8f4f 	dsb	sy
   21644:	f3bf 8f6f 	isb	sy
   21648:	f8da 3008 	ldr.w	r3, [sl, #8]
   2164c:	049e      	lsls	r6, r3, #18
   2164e:	f100 811d 	bmi.w	2188c <CRYPTO_ProcessAD+0x5d0>
   21652:	464a      	mov	r2, r9
   21654:	4629      	mov	r1, r5
   21656:	4620      	mov	r0, r4
   21658:	f7fe ff2c 	bl	204b4 <CRYPTO_SetSrcDesc>
   2165c:	4b72      	ldr	r3, [pc, #456]	; (21828 <CRYPTO_ProcessAD+0x56c>)
   2165e:	e006      	b.n	2166e <CRYPTO_ProcessAD+0x3b2>
   21660:	69fa      	ldr	r2, [r7, #28]
   21662:	9207      	str	r2, [sp, #28]
   21664:	9a07      	ldr	r2, [sp, #28]
   21666:	bb8a      	cbnz	r2, 216cc <CRYPTO_ProcessAD+0x410>
   21668:	3b01      	subs	r3, #1
   2166a:	f000 8184 	beq.w	21976 <CRYPTO_ProcessAD+0x6ba>
   2166e:	693a      	ldr	r2, [r7, #16]
   21670:	06d4      	lsls	r4, r2, #27
   21672:	d5f5      	bpl.n	21660 <CRYPTO_ProcessAD+0x3a4>
   21674:	9b15      	ldr	r3, [sp, #84]	; 0x54
   21676:	b14b      	cbz	r3, 2168c <CRYPTO_ProcessAD+0x3d0>
   21678:	f8db 300c 	ldr.w	r3, [fp, #12]
   2167c:	9815      	ldr	r0, [sp, #84]	; 0x54
   2167e:	3301      	adds	r3, #1
   21680:	bf14      	ite	ne
   21682:	9903      	ldrne	r1, [sp, #12]
   21684:	f8db 1054 	ldreq.w	r1, [fp, #84]	; 0x54
   21688:	f7ff fd3e 	bl	21108 <CRYPTO_Cache_Sync>
   2168c:	9b16      	ldr	r3, [sp, #88]	; 0x58
   2168e:	b11b      	cbz	r3, 21698 <CRYPTO_ProcessAD+0x3dc>
   21690:	2110      	movs	r1, #16
   21692:	4618      	mov	r0, r3
   21694:	f7ff fd38 	bl	21108 <CRYPTO_Cache_Sync>
   21698:	2000      	movs	r0, #0
   2169a:	b009      	add	sp, #36	; 0x24
   2169c:	e8bd 8ff0 	ldmia.w	sp!, {r4, r5, r6, r7, r8, r9, sl, fp, pc}
   216a0:	2401      	movs	r4, #1
   216a2:	e7a8      	b.n	215f6 <CRYPTO_ProcessAD+0x33a>
   216a4:	4a61      	ldr	r2, [pc, #388]	; (2182c <CRYPTO_ProcessAD+0x570>)
   216a6:	f04f 0901 	mov.w	r9, #1
   216aa:	4b61      	ldr	r3, [pc, #388]	; (21830 <CRYPTO_ProcessAD+0x574>)
   216ac:	e843 f300 	tt	r3, r3
   216b0:	f413 0f80 	tst.w	r3, #4194304	; 0x400000
   216b4:	4f5f      	ldr	r7, [pc, #380]	; (21834 <CRYPTO_ProcessAD+0x578>)
   216b6:	bf18      	it	ne
   216b8:	4617      	movne	r7, r2
   216ba:	2e00      	cmp	r6, #0
   216bc:	f47f ae19 	bne.w	212f2 <CRYPTO_ProcessAD+0x36>
   216c0:	f240 31ad 	movw	r1, #941	; 0x3ad
   216c4:	485c      	ldr	r0, [pc, #368]	; (21838 <CRYPTO_ProcessAD+0x57c>)
   216c6:	f7fe fd77 	bl	201b8 <io_assert_failed>
   216ca:	e612      	b.n	212f2 <CRYPTO_ProcessAD+0x36>
   216cc:	f8da 3000 	ldr.w	r3, [sl]
   216d0:	0498      	lsls	r0, r3, #18
   216d2:	f100 812d 	bmi.w	21930 <CRYPTO_ProcessAD+0x674>
   216d6:	f04f 30ff 	mov.w	r0, #4294967295
   216da:	b009      	add	sp, #36	; 0x24
   216dc:	e8bd 8ff0 	ldmia.w	sp!, {r4, r5, r6, r7, r8, r9, sl, fp, pc}
   216e0:	9b14      	ldr	r3, [sp, #80]	; 0x50
   216e2:	f8df a16c 	ldr.w	sl, [pc, #364]	; 21850 <CRYPTO_ProcessAD+0x594>
   216e6:	2b00      	cmp	r3, #0
   216e8:	f43f af24 	beq.w	21534 <CRYPTO_ProcessAD+0x278>
   216ec:	e713      	b.n	21516 <CRYPTO_ProcessAD+0x25a>
   216ee:	9b15      	ldr	r3, [sp, #84]	; 0x54
   216f0:	2b00      	cmp	r3, #0
   216f2:	f000 8169 	beq.w	219c8 <CRYPTO_ProcessAD+0x70c>
   216f6:	2368      	movs	r3, #104	; 0x68
   216f8:	2000      	movs	r0, #0
   216fa:	f363 601f 	bfi	r0, r3, #24, #8
   216fe:	9b16      	ldr	r3, [sp, #88]	; 0x58
   21700:	f365 0017 	bfi	r0, r5, #0, #24
   21704:	2b00      	cmp	r3, #0
   21706:	f000 80b9 	beq.w	2187c <CRYPTO_ProcessAD+0x5c0>
   2170a:	4b43      	ldr	r3, [pc, #268]	; (21818 <CRYPTO_ProcessAD+0x55c>)
   2170c:	f36f 701c 	bfc	r0, #28, #1
   21710:	695b      	ldr	r3, [r3, #20]
   21712:	03d9      	lsls	r1, r3, #15
   21714:	f140 8170 	bpl.w	219f8 <CRYPTO_ProcessAD+0x73c>
   21718:	9b15      	ldr	r3, [sp, #84]	; 0x54
   2171a:	402b      	ands	r3, r5
   2171c:	3301      	adds	r3, #1
   2171e:	f000 8170 	beq.w	21a02 <CRYPTO_ProcessAD+0x746>
   21722:	9b15      	ldr	r3, [sp, #84]	; 0x54
   21724:	06da      	lsls	r2, r3, #27
   21726:	f000 818b 	beq.w	21a40 <CRYPTO_ProcessAD+0x784>
   2172a:	3b01      	subs	r3, #1
   2172c:	9a15      	ldr	r2, [sp, #84]	; 0x54
   2172e:	442b      	add	r3, r5
   21730:	f022 011f 	bic.w	r1, r2, #31
   21734:	f023 031f 	bic.w	r3, r3, #31
   21738:	3320      	adds	r3, #32
   2173a:	1a5b      	subs	r3, r3, r1
   2173c:	f3bf 8f4f 	dsb	sy
   21740:	2b00      	cmp	r3, #0
   21742:	dd0d      	ble.n	21760 <CRYPTO_ProcessAD+0x4a4>
   21744:	1e5a      	subs	r2, r3, #1
   21746:	f101 0320 	add.w	r3, r1, #32
   2174a:	4c33      	ldr	r4, [pc, #204]	; (21818 <CRYPTO_ProcessAD+0x55c>)
   2174c:	f022 021f 	bic.w	r2, r2, #31
   21750:	441a      	add	r2, r3
   21752:	4293      	cmp	r3, r2
   21754:	f8c4 1270 	str.w	r1, [r4, #624]	; 0x270
   21758:	4619      	mov	r1, r3
   2175a:	f103 0320 	add.w	r3, r3, #32
   2175e:	d1f8      	bne.n	21752 <CRYPTO_ProcessAD+0x496>
   21760:	f3bf 8f4f 	dsb	sy
   21764:	f3bf 8f6f 	isb	sy
   21768:	464a      	mov	r2, r9
   2176a:	9915      	ldr	r1, [sp, #84]	; 0x54
   2176c:	f7fe feea 	bl	20544 <CRYPTO_SetDstDesc>
   21770:	9b16      	ldr	r3, [sp, #88]	; 0x58
   21772:	2b00      	cmp	r3, #0
   21774:	f43f ae44 	beq.w	21400 <CRYPTO_ProcessAD+0x144>
   21778:	4830      	ldr	r0, [pc, #192]	; (2183c <CRYPTO_ProcessAD+0x580>)
   2177a:	4b27      	ldr	r3, [pc, #156]	; (21818 <CRYPTO_ProcessAD+0x55c>)
   2177c:	695b      	ldr	r3, [r3, #20]
   2177e:	03db      	lsls	r3, r3, #15
   21780:	d519      	bpl.n	217b6 <CRYPTO_ProcessAD+0x4fa>
   21782:	9b16      	ldr	r3, [sp, #88]	; 0x58
   21784:	06dc      	lsls	r4, r3, #27
   21786:	f040 8128 	bne.w	219da <CRYPTO_ProcessAD+0x71e>
   2178a:	f3bf 8f4f 	dsb	sy
   2178e:	2310      	movs	r3, #16
   21790:	9a16      	ldr	r2, [sp, #88]	; 0x58
   21792:	1e59      	subs	r1, r3, #1
   21794:	f102 0320 	add.w	r3, r2, #32
   21798:	4c1f      	ldr	r4, [pc, #124]	; (21818 <CRYPTO_ProcessAD+0x55c>)
   2179a:	f021 011f 	bic.w	r1, r1, #31
   2179e:	4419      	add	r1, r3
   217a0:	4299      	cmp	r1, r3
   217a2:	f8c4 2270 	str.w	r2, [r4, #624]	; 0x270
   217a6:	461a      	mov	r2, r3
   217a8:	f103 0320 	add.w	r3, r3, #32
   217ac:	d1f8      	bne.n	217a0 <CRYPTO_ProcessAD+0x4e4>
   217ae:	f3bf 8f4f 	dsb	sy
   217b2:	f3bf 8f6f 	isb	sy
   217b6:	464a      	mov	r2, r9
   217b8:	9916      	ldr	r1, [sp, #88]	; 0x58
   217ba:	f7fe fec3 	bl	20544 <CRYPTO_SetDstDesc>
   217be:	e61f      	b.n	21400 <CRYPTO_ProcessAD+0x144>
   217c0:	4632      	mov	r2, r6
   217c2:	462b      	mov	r3, r5
   217c4:	491e      	ldr	r1, [pc, #120]	; (21840 <CRYPTO_ProcessAD+0x584>)
   217c6:	481f      	ldr	r0, [pc, #124]	; (21844 <CRYPTO_ProcessAD+0x588>)
   217c8:	f006 fe00 	bl	283cc <DiagPrintf>
   217cc:	4629      	mov	r1, r5
   217ce:	4630      	mov	r0, r6
   217d0:	4a1d      	ldr	r2, [pc, #116]	; (21848 <CRYPTO_ProcessAD+0x58c>)
   217d2:	4b1e      	ldr	r3, [pc, #120]	; (2184c <CRYPTO_ProcessAD+0x590>)
   217d4:	4798      	blx	r3
   217d6:	e71e      	b.n	21616 <CRYPTO_ProcessAD+0x35a>
   217d8:	f8df a074 	ldr.w	sl, [pc, #116]	; 21850 <CRYPTO_ProcessAD+0x594>
   217dc:	e6cd      	b.n	2157a <CRYPTO_ProcessAD+0x2be>
   217de:	9b15      	ldr	r3, [sp, #84]	; 0x54
   217e0:	2b00      	cmp	r3, #0
   217e2:	f43f ae0d 	beq.w	21400 <CRYPTO_ProcessAD+0x144>
   217e6:	f89a 304a 	ldrb.w	r3, [sl, #74]	; 0x4a
   217ea:	2b01      	cmp	r3, #1
   217ec:	f47f adcf 	bne.w	2138e <CRYPTO_ProcessAD+0xd2>
   217f0:	9b03      	ldr	r3, [sp, #12]
   217f2:	2b1c      	cmp	r3, #28
   217f4:	f000 8127 	beq.w	21a46 <CRYPTO_ProcessAD+0x78a>
   217f8:	2b30      	cmp	r3, #48	; 0x30
   217fa:	f47f adc8 	bne.w	2138e <CRYPTO_ProcessAD+0xd2>
   217fe:	2340      	movs	r3, #64	; 0x40
   21800:	461a      	mov	r2, r3
   21802:	9303      	str	r3, [sp, #12]
   21804:	4b04      	ldr	r3, [pc, #16]	; (21818 <CRYPTO_ProcessAD+0x55c>)
   21806:	f04f 40e0 	mov.w	r0, #1879048192	; 0x70000000
   2180a:	695b      	ldr	r3, [r3, #20]
   2180c:	f362 0007 	bfi	r0, r2, #0, #8
   21810:	03da      	lsls	r2, r3, #15
   21812:	f53f adcd 	bmi.w	213b0 <CRYPTO_ProcessAD+0xf4>
   21816:	e5ef      	b.n	213f8 <CRYPTO_ProcessAD+0x13c>
   21818:	e000ed00 	.word	0xe000ed00
   2181c:	1fffc000 	.word	0x1fffc000
   21820:	0fffc000 	.word	0x0fffc000
   21824:	20004680 	.word	0x20004680
   21828:	000f4240 	.word	0x000f4240
   2182c:	50108000 	.word	0x50108000
   21830:	000283cd 	.word	0x000283cd
   21834:	40108000 	.word	0x40108000
   21838:	000417e8 	.word	0x000417e8
   2183c:	50000010 	.word	0x50000010
   21840:	00041678 	.word	0x00041678
   21844:	00041690 	.word	0x00041690
   21848:	00041750 	.word	0x00041750
   2184c:	000203a5 	.word	0x000203a5
   21850:	20004004 	.word	0x20004004
   21854:	1e6b      	subs	r3, r5, #1
   21856:	f026 011f 	bic.w	r1, r6, #31
   2185a:	4433      	add	r3, r6
   2185c:	f023 031f 	bic.w	r3, r3, #31
   21860:	3320      	adds	r3, #32
   21862:	1a5b      	subs	r3, r3, r1
   21864:	e698      	b.n	21598 <CRYPTO_ProcessAD+0x2dc>
   21866:	9a14      	ldr	r2, [sp, #80]	; 0x50
   21868:	3b01      	subs	r3, #1
   2186a:	4413      	add	r3, r2
   2186c:	9a13      	ldr	r2, [sp, #76]	; 0x4c
   2186e:	f023 031f 	bic.w	r3, r3, #31
   21872:	f022 011f 	bic.w	r1, r2, #31
   21876:	3320      	adds	r3, #32
   21878:	1a5b      	subs	r3, r3, r1
   2187a:	e5df      	b.n	2143c <CRYPTO_ProcessAD+0x180>
   2187c:	4b74      	ldr	r3, [pc, #464]	; (21a50 <CRYPTO_ProcessAD+0x794>)
   2187e:	f040 5080 	orr.w	r0, r0, #268435456	; 0x10000000
   21882:	695b      	ldr	r3, [r3, #20]
   21884:	03db      	lsls	r3, r3, #15
   21886:	f53f af47 	bmi.w	21718 <CRYPTO_ProcessAD+0x45c>
   2188a:	e5b5      	b.n	213f8 <CRYPTO_ProcessAD+0x13c>
   2188c:	f3c4 368d 	ubfx	r6, r4, #14, #14
   21890:	4a70      	ldr	r2, [pc, #448]	; (21a54 <CRYPTO_ProcessAD+0x798>)
   21892:	4971      	ldr	r1, [pc, #452]	; (21a58 <CRYPTO_ProcessAD+0x79c>)
   21894:	4633      	mov	r3, r6
   21896:	4871      	ldr	r0, [pc, #452]	; (21a5c <CRYPTO_ProcessAD+0x7a0>)
   21898:	f006 fd98 	bl	283cc <DiagPrintf>
   2189c:	4631      	mov	r1, r6
   2189e:	4a70      	ldr	r2, [pc, #448]	; (21a60 <CRYPTO_ProcessAD+0x7a4>)
   218a0:	486c      	ldr	r0, [pc, #432]	; (21a54 <CRYPTO_ProcessAD+0x798>)
   218a2:	4b70      	ldr	r3, [pc, #448]	; (21a64 <CRYPTO_ProcessAD+0x7a8>)
   218a4:	4798      	blx	r3
   218a6:	e6d4      	b.n	21652 <CRYPTO_ProcessAD+0x396>
   218a8:	2300      	movs	r3, #0
   218aa:	f8c1 3084 	str.w	r3, [r1, #132]	; 0x84
   218ae:	f3bf 8f4f 	dsb	sy
   218b2:	f8d1 3080 	ldr.w	r3, [r1, #128]	; 0x80
   218b6:	f643 78e0 	movw	r8, #16352	; 0x3fe0
   218ba:	f3c3 3c4e 	ubfx	ip, r3, #13, #15
   218be:	f3c3 0ec9 	ubfx	lr, r3, #3, #10
   218c2:	ea4f 1c4c 	mov.w	ip, ip, lsl #5
   218c6:	ea0c 0008 	and.w	r0, ip, r8
   218ca:	4673      	mov	r3, lr
   218cc:	ea40 7283 	orr.w	r2, r0, r3, lsl #30
   218d0:	3b01      	subs	r3, #1
   218d2:	f8c1 2274 	str.w	r2, [r1, #628]	; 0x274
   218d6:	d2f9      	bcs.n	218cc <CRYPTO_ProcessAD+0x610>
   218d8:	f1ac 0c20 	sub.w	ip, ip, #32
   218dc:	f11c 0f20 	cmn.w	ip, #32
   218e0:	d1f1      	bne.n	218c6 <CRYPTO_ProcessAD+0x60a>
   218e2:	f3bf 8f4f 	dsb	sy
   218e6:	f3bf 8f6f 	isb	sy
   218ea:	e5bd      	b.n	21468 <CRYPTO_ProcessAD+0x1ac>
   218ec:	2300      	movs	r3, #0
   218ee:	f8c1 3084 	str.w	r3, [r1, #132]	; 0x84
   218f2:	f3bf 8f4f 	dsb	sy
   218f6:	f8d1 3080 	ldr.w	r3, [r1, #128]	; 0x80
   218fa:	f643 78e0 	movw	r8, #16352	; 0x3fe0
   218fe:	f3c3 3c4e 	ubfx	ip, r3, #13, #15
   21902:	f3c3 0ec9 	ubfx	lr, r3, #3, #10
   21906:	ea4f 1c4c 	mov.w	ip, ip, lsl #5
   2190a:	ea0c 0008 	and.w	r0, ip, r8
   2190e:	4673      	mov	r3, lr
   21910:	ea40 7283 	orr.w	r2, r0, r3, lsl #30
   21914:	3b01      	subs	r3, #1
   21916:	f8c1 2274 	str.w	r2, [r1, #628]	; 0x274
   2191a:	d2f9      	bcs.n	21910 <CRYPTO_ProcessAD+0x654>
   2191c:	f1ac 0c20 	sub.w	ip, ip, #32
   21920:	f11c 0f20 	cmn.w	ip, #32
   21924:	d1f1      	bne.n	2190a <CRYPTO_ProcessAD+0x64e>
   21926:	f3bf 8f4f 	dsb	sy
   2192a:	f3bf 8f6f 	isb	sy
   2192e:	e649      	b.n	215c4 <CRYPTO_ProcessAD+0x308>
   21930:	9907      	ldr	r1, [sp, #28]
   21932:	484d      	ldr	r0, [pc, #308]	; (21a68 <CRYPTO_ProcessAD+0x7ac>)
   21934:	f006 fd4a 	bl	283cc <DiagPrintf>
   21938:	f04f 30ff 	mov.w	r0, #4294967295
   2193c:	b009      	add	sp, #36	; 0x24
   2193e:	e8bd 8ff0 	ldmia.w	sp!, {r4, r5, r6, r7, r8, r9, sl, fp, pc}
   21942:	9a13      	ldr	r2, [sp, #76]	; 0x4c
   21944:	9b14      	ldr	r3, [sp, #80]	; 0x50
   21946:	4944      	ldr	r1, [pc, #272]	; (21a58 <CRYPTO_ProcessAD+0x79c>)
   21948:	4844      	ldr	r0, [pc, #272]	; (21a5c <CRYPTO_ProcessAD+0x7a0>)
   2194a:	f006 fd3f 	bl	283cc <DiagPrintf>
   2194e:	9914      	ldr	r1, [sp, #80]	; 0x50
   21950:	4a46      	ldr	r2, [pc, #280]	; (21a6c <CRYPTO_ProcessAD+0x7b0>)
   21952:	9813      	ldr	r0, [sp, #76]	; 0x4c
   21954:	4b43      	ldr	r3, [pc, #268]	; (21a64 <CRYPTO_ProcessAD+0x7a8>)
   21956:	4798      	blx	r3
   21958:	e5e5      	b.n	21526 <CRYPTO_ProcessAD+0x26a>
   2195a:	f8db 3050 	ldr.w	r3, [fp, #80]	; 0x50
   2195e:	4a3d      	ldr	r2, [pc, #244]	; (21a54 <CRYPTO_ProcessAD+0x798>)
   21960:	493d      	ldr	r1, [pc, #244]	; (21a58 <CRYPTO_ProcessAD+0x79c>)
   21962:	483e      	ldr	r0, [pc, #248]	; (21a5c <CRYPTO_ProcessAD+0x7a0>)
   21964:	f006 fd32 	bl	283cc <DiagPrintf>
   21968:	4a41      	ldr	r2, [pc, #260]	; (21a70 <CRYPTO_ProcessAD+0x7b4>)
   2196a:	f8db 1050 	ldr.w	r1, [fp, #80]	; 0x50
   2196e:	4839      	ldr	r0, [pc, #228]	; (21a54 <CRYPTO_ProcessAD+0x798>)
   21970:	4b3c      	ldr	r3, [pc, #240]	; (21a64 <CRYPTO_ProcessAD+0x7a8>)
   21972:	4798      	blx	r3
   21974:	e5fa      	b.n	2156c <CRYPTO_ProcessAD+0x2b0>
   21976:	f8da 3000 	ldr.w	r3, [sl]
   2197a:	0499      	lsls	r1, r3, #18
   2197c:	f57f aeab 	bpl.w	216d6 <CRYPTO_ProcessAD+0x41a>
   21980:	483c      	ldr	r0, [pc, #240]	; (21a74 <CRYPTO_ProcessAD+0x7b8>)
   21982:	f006 fd23 	bl	283cc <DiagPrintf>
   21986:	f04f 30ff 	mov.w	r0, #4294967295
   2198a:	e686      	b.n	2169a <CRYPTO_ProcessAD+0x3de>
   2198c:	2200      	movs	r2, #0
   2198e:	f8c3 2084 	str.w	r2, [r3, #132]	; 0x84
   21992:	f3bf 8f4f 	dsb	sy
   21996:	f8d3 2080 	ldr.w	r2, [r3, #128]	; 0x80
   2199a:	f3c2 3c4e 	ubfx	ip, r2, #13, #15
   2199e:	f3c2 0ec9 	ubfx	lr, r2, #3, #10
   219a2:	ea4f 1c4c 	mov.w	ip, ip, lsl #5
   219a6:	f643 74e0 	movw	r4, #16352	; 0x3fe0
   219aa:	4672      	mov	r2, lr
   219ac:	ea0c 0404 	and.w	r4, ip, r4
   219b0:	ea44 7182 	orr.w	r1, r4, r2, lsl #30
   219b4:	3a01      	subs	r2, #1
   219b6:	f8c3 1274 	str.w	r1, [r3, #628]	; 0x274
   219ba:	d2f9      	bcs.n	219b0 <CRYPTO_ProcessAD+0x6f4>
   219bc:	f1ac 0c20 	sub.w	ip, ip, #32
   219c0:	f11c 0f20 	cmn.w	ip, #32
   219c4:	d1ef      	bne.n	219a6 <CRYPTO_ProcessAD+0x6ea>
   219c6:	e513      	b.n	213f0 <CRYPTO_ProcessAD+0x134>
   219c8:	9b16      	ldr	r3, [sp, #88]	; 0x58
   219ca:	2b00      	cmp	r3, #0
   219cc:	f43f ad18 	beq.w	21400 <CRYPTO_ProcessAD+0x144>
   219d0:	4829      	ldr	r0, [pc, #164]	; (21a78 <CRYPTO_ProcessAD+0x7bc>)
   219d2:	e6d2      	b.n	2177a <CRYPTO_ProcessAD+0x4be>
   219d4:	9b03      	ldr	r3, [sp, #12]
   219d6:	9915      	ldr	r1, [sp, #84]	; 0x54
   219d8:	e4f8      	b.n	213cc <CRYPTO_ProcessAD+0x110>
   219da:	9b16      	ldr	r3, [sp, #88]	; 0x58
   219dc:	9a16      	ldr	r2, [sp, #88]	; 0x58
   219de:	330f      	adds	r3, #15
   219e0:	f022 021f 	bic.w	r2, r2, #31
   219e4:	f023 031f 	bic.w	r3, r3, #31
   219e8:	3320      	adds	r3, #32
   219ea:	1a9b      	subs	r3, r3, r2
   219ec:	f3bf 8f4f 	dsb	sy
   219f0:	2b00      	cmp	r3, #0
   219f2:	f73f aece 	bgt.w	21792 <CRYPTO_ProcessAD+0x4d6>
   219f6:	e6da      	b.n	217ae <CRYPTO_ProcessAD+0x4f2>
   219f8:	464a      	mov	r2, r9
   219fa:	9915      	ldr	r1, [sp, #84]	; 0x54
   219fc:	f7fe fda2 	bl	20544 <CRYPTO_SetDstDesc>
   21a00:	e6ba      	b.n	21778 <CRYPTO_ProcessAD+0x4bc>
   21a02:	4c13      	ldr	r4, [pc, #76]	; (21a50 <CRYPTO_ProcessAD+0x794>)
   21a04:	2300      	movs	r3, #0
   21a06:	f8c4 3084 	str.w	r3, [r4, #132]	; 0x84
   21a0a:	f3bf 8f4f 	dsb	sy
   21a0e:	f8d4 3080 	ldr.w	r3, [r4, #128]	; 0x80
   21a12:	f3c3 3c4e 	ubfx	ip, r3, #13, #15
   21a16:	f3c3 0ec9 	ubfx	lr, r3, #3, #10
   21a1a:	ea4f 1c4c 	mov.w	ip, ip, lsl #5
   21a1e:	f643 71e0 	movw	r1, #16352	; 0x3fe0
   21a22:	4673      	mov	r3, lr
   21a24:	ea0c 0101 	and.w	r1, ip, r1
   21a28:	ea41 7283 	orr.w	r2, r1, r3, lsl #30
   21a2c:	3b01      	subs	r3, #1
   21a2e:	f8c4 2274 	str.w	r2, [r4, #628]	; 0x274
   21a32:	d2f9      	bcs.n	21a28 <CRYPTO_ProcessAD+0x76c>
   21a34:	f1ac 0c20 	sub.w	ip, ip, #32
   21a38:	f11c 0f20 	cmn.w	ip, #32
   21a3c:	d1ef      	bne.n	21a1e <CRYPTO_ProcessAD+0x762>
   21a3e:	e68f      	b.n	21760 <CRYPTO_ProcessAD+0x4a4>
   21a40:	462b      	mov	r3, r5
   21a42:	9915      	ldr	r1, [sp, #84]	; 0x54
   21a44:	e67a      	b.n	2173c <CRYPTO_ProcessAD+0x480>
   21a46:	2320      	movs	r3, #32
   21a48:	461a      	mov	r2, r3
   21a4a:	9303      	str	r3, [sp, #12]
   21a4c:	e6da      	b.n	21804 <CRYPTO_ProcessAD+0x548>
   21a4e:	bf00      	nop
   21a50:	e000ed00 	.word	0xe000ed00
   21a54:	20004680 	.word	0x20004680
   21a58:	00041678 	.word	0x00041678
   21a5c:	00041690 	.word	0x00041690
   21a60:	0004175c 	.word	0x0004175c
   21a64:	000203a5 	.word	0x000203a5
   21a68:	0004176c 	.word	0x0004176c
   21a6c:	00041738 	.word	0x00041738
   21a70:	00041740 	.word	0x00041740
   21a74:	000417a0 	.word	0x000417a0
   21a78:	70000010 	.word	0x70000010

00021a7c <CRYPTO_SendSeqBuf>:
   21a7c:	e92d 4ff0 	stmdb	sp!, {r4, r5, r6, r7, r8, r9, sl, fp, lr}
   21a80:	f891 3049 	ldrb.w	r3, [r1, #73]	; 0x49
   21a84:	b089      	sub	sp, #36	; 0x24
   21a86:	4c3b      	ldr	r4, [pc, #236]	; (21b74 <CRYPTO_SendSeqBuf+0xf8>)
   21a88:	4688      	mov	r8, r1
   21a8a:	2b30      	cmp	r3, #48	; 0x30
   21a8c:	4681      	mov	r9, r0
   21a8e:	f8d4 729c 	ldr.w	r7, [r4, #668]	; 0x29c
   21a92:	f894 52a0 	ldrb.w	r5, [r4, #672]	; 0x2a0
   21a96:	d01b      	beq.n	21ad0 <CRYPTO_SendSeqBuf+0x54>
   21a98:	2b40      	cmp	r3, #64	; 0x40
   21a9a:	d019      	beq.n	21ad0 <CRYPTO_SendSeqBuf+0x54>
   21a9c:	2340      	movs	r3, #64	; 0x40
   21a9e:	9307      	str	r3, [sp, #28]
   21aa0:	9b07      	ldr	r3, [sp, #28]
   21aa2:	f505 70d4 	add.w	r0, r5, #424	; 0x1a8
   21aa6:	f8df a0d8 	ldr.w	sl, [pc, #216]	; 21b80 <CRYPTO_SendSeqBuf+0x104>
   21aaa:	1b5d      	subs	r5, r3, r5
   21aac:	f8d4 1298 	ldr.w	r1, [r4, #664]	; 0x298
   21ab0:	4450      	add	r0, sl
   21ab2:	42af      	cmp	r7, r5
   21ab4:	da0f      	bge.n	21ad6 <CRYPTO_SendSeqBuf+0x5a>
   21ab6:	463a      	mov	r2, r7
   21ab8:	4b2f      	ldr	r3, [pc, #188]	; (21b78 <CRYPTO_SendSeqBuf+0xfc>)
   21aba:	4798      	blx	r3
   21abc:	f894 22a0 	ldrb.w	r2, [r4, #672]	; 0x2a0
   21ac0:	2300      	movs	r3, #0
   21ac2:	4417      	add	r7, r2
   21ac4:	f884 72a0 	strb.w	r7, [r4, #672]	; 0x2a0
   21ac8:	4618      	mov	r0, r3
   21aca:	b009      	add	sp, #36	; 0x24
   21acc:	e8bd 8ff0 	ldmia.w	sp!, {r4, r5, r6, r7, r8, r9, sl, fp, pc}
   21ad0:	2380      	movs	r3, #128	; 0x80
   21ad2:	9307      	str	r3, [sp, #28]
   21ad4:	e7e4      	b.n	21aa0 <CRYPTO_SendSeqBuf+0x24>
   21ad6:	462a      	mov	r2, r5
   21ad8:	4b27      	ldr	r3, [pc, #156]	; (21b78 <CRYPTO_SendSeqBuf+0xfc>)
   21ada:	4798      	blx	r3
   21adc:	f50a 7bd4 	add.w	fp, sl, #424	; 0x1a8
   21ae0:	2300      	movs	r3, #0
   21ae2:	9a07      	ldr	r2, [sp, #28]
   21ae4:	4650      	mov	r0, sl
   21ae6:	4659      	mov	r1, fp
   21ae8:	9304      	str	r3, [sp, #16]
   21aea:	9300      	str	r3, [sp, #0]
   21aec:	4e23      	ldr	r6, [pc, #140]	; (21b7c <CRYPTO_SendSeqBuf+0x100>)
   21aee:	f8cd 8014 	str.w	r8, [sp, #20]
   21af2:	f8cd 900c 	str.w	r9, [sp, #12]
   21af6:	e9cd 3301 	strd	r3, r3, [sp, #4]
   21afa:	47b0      	blx	r6
   21afc:	4603      	mov	r3, r0
   21afe:	2800      	cmp	r0, #0
   21b00:	d1e2      	bne.n	21ac8 <CRYPTO_SendSeqBuf+0x4c>
   21b02:	9a07      	ldr	r2, [sp, #28]
   21b04:	1b7f      	subs	r7, r7, r5
   21b06:	f8d4 1298 	ldr.w	r1, [r4, #664]	; 0x298
   21b0a:	1e56      	subs	r6, r2, #1
   21b0c:	f884 02a0 	strb.w	r0, [r4, #672]	; 0x2a0
   21b10:	4429      	add	r1, r5
   21b12:	f8c4 729c 	str.w	r7, [r4, #668]	; 0x29c
   21b16:	ea27 0506 	bic.w	r5, r7, r6
   21b1a:	403e      	ands	r6, r7
   21b1c:	f8c4 1298 	str.w	r1, [r4, #664]	; 0x298
   21b20:	2d00      	cmp	r5, #0
   21b22:	dc06      	bgt.n	21b32 <CRYPTO_SendSeqBuf+0xb6>
   21b24:	b9de      	cbnz	r6, 21b5e <CRYPTO_SendSeqBuf+0xe2>
   21b26:	4618      	mov	r0, r3
   21b28:	f884 62a0 	strb.w	r6, [r4, #672]	; 0x2a0
   21b2c:	b009      	add	sp, #36	; 0x24
   21b2e:	e8bd 8ff0 	ldmia.w	sp!, {r4, r5, r6, r7, r8, r9, sl, fp, pc}
   21b32:	4650      	mov	r0, sl
   21b34:	462a      	mov	r2, r5
   21b36:	4f11      	ldr	r7, [pc, #68]	; (21b7c <CRYPTO_SendSeqBuf+0x100>)
   21b38:	f8cd 8014 	str.w	r8, [sp, #20]
   21b3c:	f8cd 900c 	str.w	r9, [sp, #12]
   21b40:	9304      	str	r3, [sp, #16]
   21b42:	9300      	str	r3, [sp, #0]
   21b44:	9307      	str	r3, [sp, #28]
   21b46:	e9cd 3301 	strd	r3, r3, [sp, #4]
   21b4a:	47b8      	blx	r7
   21b4c:	b980      	cbnz	r0, 21b70 <CRYPTO_SendSeqBuf+0xf4>
   21b4e:	f8d4 2298 	ldr.w	r2, [r4, #664]	; 0x298
   21b52:	9b07      	ldr	r3, [sp, #28]
   21b54:	442a      	add	r2, r5
   21b56:	f8c4 2298 	str.w	r2, [r4, #664]	; 0x298
   21b5a:	2e00      	cmp	r6, #0
   21b5c:	d0e3      	beq.n	21b26 <CRYPTO_SendSeqBuf+0xaa>
   21b5e:	9307      	str	r3, [sp, #28]
   21b60:	4658      	mov	r0, fp
   21b62:	4b05      	ldr	r3, [pc, #20]	; (21b78 <CRYPTO_SendSeqBuf+0xfc>)
   21b64:	4632      	mov	r2, r6
   21b66:	f8d4 1298 	ldr.w	r1, [r4, #664]	; 0x298
   21b6a:	4798      	blx	r3
   21b6c:	9b07      	ldr	r3, [sp, #28]
   21b6e:	e7da      	b.n	21b26 <CRYPTO_SendSeqBuf+0xaa>
   21b70:	4603      	mov	r3, r0
   21b72:	e7a9      	b.n	21ac8 <CRYPTO_SendSeqBuf+0x4c>
   21b74:	200041e0 	.word	0x200041e0
   21b78:	00028f1d 	.word	0x00028f1d
   21b7c:	000212bd 	.word	0x000212bd
   21b80:	20004440 	.word	0x20004440

00021b84 <CRYPTO_CipherInit>:
   21b84:	b530      	push	{r4, r5, lr}
   21b86:	2400      	movs	r4, #0
   21b88:	b085      	sub	sp, #20
   21b8a:	461d      	mov	r5, r3
   21b8c:	4613      	mov	r3, r2
   21b8e:	f04f 32ff 	mov.w	r2, #4294967295
   21b92:	9500      	str	r5, [sp, #0]
   21b94:	e9cd 4401 	strd	r4, r4, [sp, #4]
   21b98:	4c01      	ldr	r4, [pc, #4]	; (21ba0 <CRYPTO_CipherInit+0x1c>)
   21b9a:	47a0      	blx	r4
   21b9c:	b005      	add	sp, #20
   21b9e:	bd30      	pop	{r4, r5, pc}
   21ba0:	00020e29 	.word	0x00020e29

00021ba4 <CRYPTO_CipherEncryptAD>:
   21ba4:	b530      	push	{r4, r5, lr}
   21ba6:	2400      	movs	r4, #0
   21ba8:	b087      	sub	sp, #28
   21baa:	7244      	strb	r4, [r0, #9]
   21bac:	9405      	str	r4, [sp, #20]
   21bae:	6844      	ldr	r4, [r0, #4]
   21bb0:	9d0b      	ldr	r5, [sp, #44]	; 0x2c
   21bb2:	f044 0480 	orr.w	r4, r4, #128	; 0x80
   21bb6:	6044      	str	r4, [r0, #4]
   21bb8:	9501      	str	r5, [sp, #4]
   21bba:	9d0c      	ldr	r5, [sp, #48]	; 0x30
   21bbc:	9c0a      	ldr	r4, [sp, #40]	; 0x28
   21bbe:	9502      	str	r5, [sp, #8]
   21bc0:	9d0d      	ldr	r5, [sp, #52]	; 0x34
   21bc2:	9400      	str	r4, [sp, #0]
   21bc4:	9503      	str	r5, [sp, #12]
   21bc6:	9d0e      	ldr	r5, [sp, #56]	; 0x38
   21bc8:	4c02      	ldr	r4, [pc, #8]	; (21bd4 <CRYPTO_CipherEncryptAD+0x30>)
   21bca:	9504      	str	r5, [sp, #16]
   21bcc:	47a0      	blx	r4
   21bce:	b007      	add	sp, #28
   21bd0:	bd30      	pop	{r4, r5, pc}
   21bd2:	bf00      	nop
   21bd4:	000212bd 	.word	0x000212bd

00021bd8 <CRYPTO_CipherDecryptAD>:
   21bd8:	b510      	push	{r4, lr}
   21bda:	b086      	sub	sp, #24
   21bdc:	9c08      	ldr	r4, [sp, #32]
   21bde:	9400      	str	r4, [sp, #0]
   21be0:	6844      	ldr	r4, [r0, #4]
   21be2:	f084 0480 	eor.w	r4, r4, #128	; 0x80
   21be6:	6044      	str	r4, [r0, #4]
   21be8:	9c09      	ldr	r4, [sp, #36]	; 0x24
   21bea:	9401      	str	r4, [sp, #4]
   21bec:	9c0a      	ldr	r4, [sp, #40]	; 0x28
   21bee:	9402      	str	r4, [sp, #8]
   21bf0:	9c0b      	ldr	r4, [sp, #44]	; 0x2c
   21bf2:	9403      	str	r4, [sp, #12]
   21bf4:	9c0c      	ldr	r4, [sp, #48]	; 0x30
   21bf6:	9404      	str	r4, [sp, #16]
   21bf8:	2401      	movs	r4, #1
   21bfa:	7244      	strb	r4, [r0, #9]
   21bfc:	2400      	movs	r4, #0
   21bfe:	9405      	str	r4, [sp, #20]
   21c00:	4c01      	ldr	r4, [pc, #4]	; (21c08 <CRYPTO_CipherDecryptAD+0x30>)
   21c02:	47a0      	blx	r4
   21c04:	b006      	add	sp, #24
   21c06:	bd10      	pop	{r4, pc}
   21c08:	000212bd 	.word	0x000212bd
   21c0c:	00000000 	.word	0x00000000

00021c10 <DelayNop>:
   21c10:	f1a0 0001 	sub.w	r0, r0, #1
   21c14:	2800      	cmp	r0, #0
   21c16:	bf00      	nop
   21c18:	d1fa      	bne.n	21c10 <DelayNop>
   21c1a:	4770      	bx	lr

00021c1c <DelayUs>:
   21c1c:	4a1a      	ldr	r2, [pc, #104]	; (21c88 <DelayUs+0x6c>)
   21c1e:	4b1b      	ldr	r3, [pc, #108]	; (21c8c <DelayUs+0x70>)
   21c20:	f8d2 2228 	ldr.w	r2, [r2, #552]	; 0x228
   21c24:	681b      	ldr	r3, [r3, #0]
   21c26:	f3c2 1181 	ubfx	r1, r2, #6, #2
   21c2a:	b530      	push	{r4, r5, lr}
   21c2c:	2504      	movs	r5, #4
   21c2e:	b085      	sub	sp, #20
   21c30:	2407      	movs	r4, #7
   21c32:	e9cd 5400 	strd	r5, r4, [sp]
   21c36:	b9d3      	cbnz	r3, 21c6e <DelayUs+0x52>
   21c38:	f3c2 2201 	ubfx	r2, r2, #8, #2
   21c3c:	f44f 7396 	mov.w	r3, #300	; 0x12c
   21c40:	2a01      	cmp	r2, #1
   21c42:	e9cd 3302 	strd	r3, r3, [sp, #8]
   21c46:	d01c      	beq.n	21c82 <DelayUs+0x66>
   21c48:	ab04      	add	r3, sp, #16
   21c4a:	eb03 0381 	add.w	r3, r3, r1, lsl #2
   21c4e:	0089      	lsls	r1, r1, #2
   21c50:	f853 2c08 	ldr.w	r2, [r3, #-8]
   21c54:	ab04      	add	r3, sp, #16
   21c56:	fb02 f000 	mul.w	r0, r2, r0
   21c5a:	4419      	add	r1, r3
   21c5c:	f851 3c10 	ldr.w	r3, [r1, #-16]
   21c60:	fbb0 f0f3 	udiv	r0, r0, r3
   21c64:	b108      	cbz	r0, 21c6a <DelayUs+0x4e>
   21c66:	4b0a      	ldr	r3, [pc, #40]	; (21c90 <DelayUs+0x74>)
   21c68:	4798      	blx	r3
   21c6a:	b005      	add	sp, #20
   21c6c:	bd30      	pop	{r4, r5, pc}
   21c6e:	aa04      	add	r2, sp, #16
   21c70:	fb00 f303 	mul.w	r3, r0, r3
   21c74:	eb02 0181 	add.w	r1, r2, r1, lsl #2
   21c78:	f851 0c10 	ldr.w	r0, [r1, #-16]
   21c7c:	fbb3 f0f0 	udiv	r0, r3, r0
   21c80:	e7f0      	b.n	21c64 <DelayUs+0x48>
   21c82:	2228      	movs	r2, #40	; 0x28
   21c84:	0089      	lsls	r1, r1, #2
   21c86:	e7e5      	b.n	21c54 <DelayUs+0x38>
   21c88:	4100c000 	.word	0x4100c000
   21c8c:	200046dc 	.word	0x200046dc
   21c90:	00021c11 	.word	0x00021c11

00021c94 <DelayMs>:
   21c94:	f44f 727a 	mov.w	r2, #1000	; 0x3e8
   21c98:	b508      	push	{r3, lr}
   21c9a:	fb02 f000 	mul.w	r0, r2, r0
   21c9e:	4b01      	ldr	r3, [pc, #4]	; (21ca4 <DelayMs+0x10>)
   21ca0:	4798      	blx	r3
   21ca2:	bd08      	pop	{r3, pc}
   21ca4:	00021c1d 	.word	0x00021c1d

00021ca8 <ECDSA_BufSub>:
   21ca8:	b380      	cbz	r0, 21d0c <ECDSA_BufSub+0x64>
   21caa:	eb01 0380 	add.w	r3, r1, r0, lsl #2
   21cae:	b570      	push	{r4, r5, r6, lr}
   21cb0:	e001      	b.n	21cb6 <ECDSA_BufSub+0xe>
   21cb2:	3801      	subs	r0, #1
   21cb4:	d029      	beq.n	21d0a <ECDSA_BufSub+0x62>
   21cb6:	f853 4d04 	ldr.w	r4, [r3, #-4]!
   21cba:	2c00      	cmp	r4, #0
   21cbc:	d0f9      	beq.n	21cb2 <ECDSA_BufSub+0xa>
   21cbe:	2300      	movs	r3, #0
   21cc0:	f1a2 0c04 	sub.w	ip, r2, #4
   21cc4:	469e      	mov	lr, r3
   21cc6:	f85c 5f04 	ldr.w	r5, [ip, #4]!
   21cca:	f10e 0e01 	add.w	lr, lr, #1
   21cce:	1aec      	subs	r4, r5, r3
   21cd0:	429d      	cmp	r5, r3
   21cd2:	f8cc 4000 	str.w	r4, [ip]
   21cd6:	bf28      	it	cs
   21cd8:	2300      	movcs	r3, #0
   21cda:	f851 5b04 	ldr.w	r5, [r1], #4
   21cde:	bf38      	it	cc
   21ce0:	2301      	movcc	r3, #1
   21ce2:	1b66      	subs	r6, r4, r5
   21ce4:	42ac      	cmp	r4, r5
   21ce6:	bf38      	it	cc
   21ce8:	3301      	addcc	r3, #1
   21cea:	4586      	cmp	lr, r0
   21cec:	f8cc 6000 	str.w	r6, [ip]
   21cf0:	d1e9      	bne.n	21cc6 <ECDSA_BufSub+0x1e>
   21cf2:	eb02 028e 	add.w	r2, r2, lr, lsl #2
   21cf6:	b143      	cbz	r3, 21d0a <ECDSA_BufSub+0x62>
   21cf8:	6810      	ldr	r0, [r2, #0]
   21cfa:	4619      	mov	r1, r3
   21cfc:	1ac4      	subs	r4, r0, r3
   21cfe:	4288      	cmp	r0, r1
   21d00:	f04f 0301 	mov.w	r3, #1
   21d04:	f842 4b04 	str.w	r4, [r2], #4
   21d08:	d3f6      	bcc.n	21cf8 <ECDSA_BufSub+0x50>
   21d0a:	bd70      	pop	{r4, r5, r6, pc}
   21d0c:	4770      	bx	lr
   21d0e:	bf00      	nop

00021d10 <ECDSA_BufCmp>:
   21d10:	2900      	cmp	r1, #0
   21d12:	b430      	push	{r4, r5}
   21d14:	dd08      	ble.n	21d28 <ECDSA_BufCmp+0x18>
   21d16:	eb00 0381 	add.w	r3, r0, r1, lsl #2
   21d1a:	e001      	b.n	21d20 <ECDSA_BufCmp+0x10>
   21d1c:	3901      	subs	r1, #1
   21d1e:	d003      	beq.n	21d28 <ECDSA_BufCmp+0x18>
   21d20:	f853 4d04 	ldr.w	r4, [r3, #-4]!
   21d24:	2c00      	cmp	r4, #0
   21d26:	d0f9      	beq.n	21d1c <ECDSA_BufCmp+0xc>
   21d28:	f102 0420 	add.w	r4, r2, #32
   21d2c:	2308      	movs	r3, #8
   21d2e:	f854 5d04 	ldr.w	r5, [r4, #-4]!
   21d32:	b915      	cbnz	r5, 21d3a <ECDSA_BufCmp+0x2a>
   21d34:	3b01      	subs	r3, #1
   21d36:	d1fa      	bne.n	21d2e <ECDSA_BufCmp+0x1e>
   21d38:	b199      	cbz	r1, 21d62 <ECDSA_BufCmp+0x52>
   21d3a:	428b      	cmp	r3, r1
   21d3c:	db10      	blt.n	21d60 <ECDSA_BufCmp+0x50>
   21d3e:	dc13      	bgt.n	21d68 <ECDSA_BufCmp+0x58>
   21d40:	2900      	cmp	r1, #0
   21d42:	dd16      	ble.n	21d72 <ECDSA_BufCmp+0x62>
   21d44:	eb00 0381 	add.w	r3, r0, r1, lsl #2
   21d48:	eb02 0181 	add.w	r1, r2, r1, lsl #2
   21d4c:	e002      	b.n	21d54 <ECDSA_BufCmp+0x44>
   21d4e:	d30b      	bcc.n	21d68 <ECDSA_BufCmp+0x58>
   21d50:	4298      	cmp	r0, r3
   21d52:	d00e      	beq.n	21d72 <ECDSA_BufCmp+0x62>
   21d54:	f853 4d04 	ldr.w	r4, [r3, #-4]!
   21d58:	f851 2d04 	ldr.w	r2, [r1, #-4]!
   21d5c:	4294      	cmp	r4, r2
   21d5e:	d9f6      	bls.n	21d4e <ECDSA_BufCmp+0x3e>
   21d60:	2101      	movs	r1, #1
   21d62:	4608      	mov	r0, r1
   21d64:	bc30      	pop	{r4, r5}
   21d66:	4770      	bx	lr
   21d68:	f04f 31ff 	mov.w	r1, #4294967295
   21d6c:	bc30      	pop	{r4, r5}
   21d6e:	4608      	mov	r0, r1
   21d70:	4770      	bx	lr
   21d72:	2100      	movs	r1, #0
   21d74:	e7f5      	b.n	21d62 <ECDSA_BufCmp+0x52>
   21d76:	bf00      	nop

00021d78 <ECDSA_HashBuf_Setting>:
   21d78:	e92d 4ff0 	stmdb	sp!, {r4, r5, r6, r7, r8, r9, sl, fp, lr}
   21d7c:	b083      	sub	sp, #12
   21d7e:	4693      	mov	fp, r2
   21d80:	4682      	mov	sl, r0
   21d82:	4688      	mov	r8, r1
   21d84:	6842      	ldr	r2, [r0, #4]
   21d86:	af00      	add	r7, sp, #0
   21d88:	3207      	adds	r2, #7
   21d8a:	08d2      	lsrs	r2, r2, #3
   21d8c:	429a      	cmp	r2, r3
   21d8e:	bf28      	it	cs
   21d90:	461a      	movcs	r2, r3
   21d92:	4614      	mov	r4, r2
   21d94:	2a00      	cmp	r2, #0
   21d96:	f000 8092 	beq.w	21ebe <ECDSA_HashBuf_Setting+0x146>
   21d9a:	f10b 33ff 	add.w	r3, fp, #4294967295
   21d9e:	2600      	movs	r6, #0
   21da0:	e002      	b.n	21da8 <ECDSA_HashBuf_Setting+0x30>
   21da2:	3601      	adds	r6, #1
   21da4:	42b4      	cmp	r4, r6
   21da6:	d003      	beq.n	21db0 <ECDSA_HashBuf_Setting+0x38>
   21da8:	f813 2f01 	ldrb.w	r2, [r3, #1]!
   21dac:	2a00      	cmp	r2, #0
   21dae:	d0f8      	beq.n	21da2 <ECDSA_HashBuf_Setting+0x2a>
   21db0:	1ba6      	subs	r6, r4, r6
   21db2:	2100      	movs	r1, #0
   21db4:	2220      	movs	r2, #32
   21db6:	f016 0303 	ands.w	r3, r6, #3
   21dba:	bf18      	it	ne
   21dbc:	2301      	movne	r3, #1
   21dbe:	eb03 0396 	add.w	r3, r3, r6, lsr #2
   21dc2:	ea4f 0983 	mov.w	r9, r3, lsl #2
   21dc6:	607b      	str	r3, [r7, #4]
   21dc8:	4b43      	ldr	r3, [pc, #268]	; (21ed8 <ECDSA_HashBuf_Setting+0x160>)
   21dca:	f109 0007 	add.w	r0, r9, #7
   21dce:	f020 0007 	bic.w	r0, r0, #7
   21dd2:	ebad 0d00 	sub.w	sp, sp, r0
   21dd6:	4640      	mov	r0, r8
   21dd8:	4798      	blx	r3
   21dda:	464a      	mov	r2, r9
   21ddc:	466d      	mov	r5, sp
   21dde:	2100      	movs	r1, #0
   21de0:	4b3d      	ldr	r3, [pc, #244]	; (21ed8 <ECDSA_HashBuf_Setting+0x160>)
   21de2:	4628      	mov	r0, r5
   21de4:	4798      	blx	r3
   21de6:	eb0b 0004 	add.w	r0, fp, r4
   21dea:	2200      	movs	r2, #0
   21dec:	ea4f 0cc2 	mov.w	ip, r2, lsl #3
   21df0:	f810 3d01 	ldrb.w	r3, [r0, #-1]!
   21df4:	0891      	lsrs	r1, r2, #2
   21df6:	3201      	adds	r2, #1
   21df8:	f00c 0c18 	and.w	ip, ip, #24
   21dfc:	f855 6021 	ldr.w	r6, [r5, r1, lsl #2]
   21e00:	4294      	cmp	r4, r2
   21e02:	fa03 f30c 	lsl.w	r3, r3, ip
   21e06:	ea43 0306 	orr.w	r3, r3, r6
   21e0a:	f845 3021 	str.w	r3, [r5, r1, lsl #2]
   21e0e:	d1ed      	bne.n	21dec <ECDSA_HashBuf_Setting+0x74>
   21e10:	f8da 2004 	ldr.w	r2, [sl, #4]
   21e14:	00e3      	lsls	r3, r4, #3
   21e16:	ebb2 0fc4 	cmp.w	r2, r4, lsl #3
   21e1a:	d237      	bcs.n	21e8c <ECDSA_HashBuf_Setting+0x114>
   21e1c:	1a9b      	subs	r3, r3, r2
   21e1e:	2b1f      	cmp	r3, #31
   21e20:	f003 011f 	and.w	r1, r3, #31
   21e24:	d91d      	bls.n	21e62 <ECDSA_HashBuf_Setting+0xea>
   21e26:	687a      	ldr	r2, [r7, #4]
   21e28:	0958      	lsrs	r0, r3, #5
   21e2a:	ebb2 1353 	subs.w	r3, r2, r3, lsr #5
   21e2e:	d00b      	beq.n	21e48 <ECDSA_HashBuf_Setting+0xd0>
   21e30:	eb05 0080 	add.w	r0, r5, r0, lsl #2
   21e34:	1f2c      	subs	r4, r5, #4
   21e36:	2200      	movs	r2, #0
   21e38:	3804      	subs	r0, #4
   21e3a:	3201      	adds	r2, #1
   21e3c:	f850 cf04 	ldr.w	ip, [r0, #4]!
   21e40:	429a      	cmp	r2, r3
   21e42:	f844 cf04 	str.w	ip, [r4, #4]!
   21e46:	d1f8      	bne.n	21e3a <ECDSA_HashBuf_Setting+0xc2>
   21e48:	687a      	ldr	r2, [r7, #4]
   21e4a:	4293      	cmp	r3, r2
   21e4c:	d209      	bcs.n	21e62 <ECDSA_HashBuf_Setting+0xea>
   21e4e:	eb05 0383 	add.w	r3, r5, r3, lsl #2
   21e52:	1f2a      	subs	r2, r5, #4
   21e54:	2000      	movs	r0, #0
   21e56:	3b04      	subs	r3, #4
   21e58:	444a      	add	r2, r9
   21e5a:	f843 0f04 	str.w	r0, [r3, #4]!
   21e5e:	429a      	cmp	r2, r3
   21e60:	d1fb      	bne.n	21e5a <ECDSA_HashBuf_Setting+0xe2>
   21e62:	b199      	cbz	r1, 21e8c <ECDSA_HashBuf_Setting+0x114>
   21e64:	687c      	ldr	r4, [r7, #4]
   21e66:	b18c      	cbz	r4, 21e8c <ECDSA_HashBuf_Setting+0x114>
   21e68:	f1a9 0004 	sub.w	r0, r9, #4
   21e6c:	f1c1 0e20 	rsb	lr, r1, #32
   21e70:	2300      	movs	r3, #0
   21e72:	4428      	add	r0, r5
   21e74:	f8d0 c000 	ldr.w	ip, [r0]
   21e78:	3c01      	subs	r4, #1
   21e7a:	fa2c f201 	lsr.w	r2, ip, r1
   21e7e:	ea42 0203 	orr.w	r2, r2, r3
   21e82:	fa0c f30e 	lsl.w	r3, ip, lr
   21e86:	f840 2904 	str.w	r2, [r0], #-4
   21e8a:	d1f3      	bne.n	21e74 <ECDSA_HashBuf_Setting+0xfc>
   21e8c:	687c      	ldr	r4, [r7, #4]
   21e8e:	4628      	mov	r0, r5
   21e90:	f8da 200c 	ldr.w	r2, [sl, #12]
   21e94:	4621      	mov	r1, r4
   21e96:	4b11      	ldr	r3, [pc, #68]	; (21edc <ECDSA_HashBuf_Setting+0x164>)
   21e98:	4798      	blx	r3
   21e9a:	2800      	cmp	r0, #0
   21e9c:	db05      	blt.n	21eaa <ECDSA_HashBuf_Setting+0x132>
   21e9e:	462a      	mov	r2, r5
   21ea0:	f8da 100c 	ldr.w	r1, [sl, #12]
   21ea4:	4620      	mov	r0, r4
   21ea6:	4b0e      	ldr	r3, [pc, #56]	; (21ee0 <ECDSA_HashBuf_Setting+0x168>)
   21ea8:	4798      	blx	r3
   21eaa:	464a      	mov	r2, r9
   21eac:	4629      	mov	r1, r5
   21eae:	4640      	mov	r0, r8
   21eb0:	4b0c      	ldr	r3, [pc, #48]	; (21ee4 <ECDSA_HashBuf_Setting+0x16c>)
   21eb2:	4798      	blx	r3
   21eb4:	2000      	movs	r0, #0
   21eb6:	370c      	adds	r7, #12
   21eb8:	46bd      	mov	sp, r7
   21eba:	e8bd 8ff0 	ldmia.w	sp!, {r4, r5, r6, r7, r8, r9, sl, fp, pc}
   21ebe:	2220      	movs	r2, #32
   21ec0:	4621      	mov	r1, r4
   21ec2:	4e05      	ldr	r6, [pc, #20]	; (21ed8 <ECDSA_HashBuf_Setting+0x160>)
   21ec4:	4640      	mov	r0, r8
   21ec6:	47b0      	blx	r6
   21ec8:	4622      	mov	r2, r4
   21eca:	4621      	mov	r1, r4
   21ecc:	4668      	mov	r0, sp
   21ece:	47b0      	blx	r6
   21ed0:	466d      	mov	r5, sp
   21ed2:	46a1      	mov	r9, r4
   21ed4:	607c      	str	r4, [r7, #4]
   21ed6:	e7d9      	b.n	21e8c <ECDSA_HashBuf_Setting+0x114>
   21ed8:	000290e5 	.word	0x000290e5
   21edc:	00021d11 	.word	0x00021d11
   21ee0:	00021ca9 	.word	0x00021ca9
   21ee4:	00028f1d 	.word	0x00028f1d

00021ee8 <ECDSA_CurveSel>:
   21ee8:	68c2      	ldr	r2, [r0, #12]
   21eea:	680b      	ldr	r3, [r1, #0]
   21eec:	f022 0203 	bic.w	r2, r2, #3
   21ef0:	3b01      	subs	r3, #1
   21ef2:	b570      	push	{r4, r5, r6, lr}
   21ef4:	4604      	mov	r4, r0
   21ef6:	60c2      	str	r2, [r0, #12]
   21ef8:	2b0b      	cmp	r3, #11
   21efa:	d807      	bhi.n	21f0c <ECDSA_CurveSel+0x24>
   21efc:	e8df f003 	tbb	[pc, r3]
   21f00:	0649461f 	.word	0x0649461f
   21f04:	06065406 	.word	0x06065406
   21f08:	08666358 	.word	0x08666358
   21f0c:	4833      	ldr	r0, [pc, #204]	; (21fdc <ECDSA_CurveSel+0xf4>)
   21f0e:	bd70      	pop	{r4, r5, r6, pc}
   21f10:	f44f 7380 	mov.w	r3, #256	; 0x100
   21f14:	4a32      	ldr	r2, [pc, #200]	; (21fe0 <ECDSA_CurveSel+0xf8>)
   21f16:	e9c1 3301 	strd	r3, r3, [r1, #4]
   21f1a:	60ca      	str	r2, [r1, #12]
   21f1c:	2100      	movs	r1, #0
   21f1e:	460a      	mov	r2, r1
   21f20:	eb04 0381 	add.w	r3, r4, r1, lsl #2
   21f24:	3101      	adds	r1, #1
   21f26:	2908      	cmp	r1, #8
   21f28:	611a      	str	r2, [r3, #16]
   21f2a:	631a      	str	r2, [r3, #48]	; 0x30
   21f2c:	f8c3 2110 	str.w	r2, [r3, #272]	; 0x110
   21f30:	f8c3 2130 	str.w	r2, [r3, #304]	; 0x130
   21f34:	f8c3 2150 	str.w	r2, [r3, #336]	; 0x150
   21f38:	d1f2      	bne.n	21f20 <ECDSA_CurveSel+0x38>
   21f3a:	2000      	movs	r0, #0
   21f3c:	bd70      	pop	{r4, r5, r6, pc}
   21f3e:	4d29      	ldr	r5, [pc, #164]	; (21fe4 <ECDSA_CurveSel+0xfc>)
   21f40:	23c0      	movs	r3, #192	; 0xc0
   21f42:	2220      	movs	r2, #32
   21f44:	60cd      	str	r5, [r1, #12]
   21f46:	e9c1 3301 	strd	r3, r3, [r1, #4]
   21f4a:	4e27      	ldr	r6, [pc, #156]	; (21fe8 <ECDSA_CurveSel+0x100>)
   21f4c:	18a9      	adds	r1, r5, r2
   21f4e:	f104 0050 	add.w	r0, r4, #80	; 0x50
   21f52:	47b0      	blx	r6
   21f54:	2220      	movs	r2, #32
   21f56:	f105 0140 	add.w	r1, r5, #64	; 0x40
   21f5a:	f104 0070 	add.w	r0, r4, #112	; 0x70
   21f5e:	47b0      	blx	r6
   21f60:	2220      	movs	r2, #32
   21f62:	f105 0160 	add.w	r1, r5, #96	; 0x60
   21f66:	f504 70b8 	add.w	r0, r4, #368	; 0x170
   21f6a:	47b0      	blx	r6
   21f6c:	2220      	movs	r2, #32
   21f6e:	f105 0180 	add.w	r1, r5, #128	; 0x80
   21f72:	f504 70c8 	add.w	r0, r4, #400	; 0x190
   21f76:	47b0      	blx	r6
   21f78:	2220      	movs	r2, #32
   21f7a:	4629      	mov	r1, r5
   21f7c:	f504 70d8 	add.w	r0, r4, #432	; 0x1b0
   21f80:	47b0      	blx	r6
   21f82:	68e3      	ldr	r3, [r4, #12]
   21f84:	f043 0303 	orr.w	r3, r3, #3
   21f88:	60e3      	str	r3, [r4, #12]
   21f8a:	e7c7      	b.n	21f1c <ECDSA_CurveSel+0x34>
   21f8c:	4d17      	ldr	r5, [pc, #92]	; (21fec <ECDSA_CurveSel+0x104>)
   21f8e:	23e0      	movs	r3, #224	; 0xe0
   21f90:	e7d7      	b.n	21f42 <ECDSA_CurveSel+0x5a>
   21f92:	68c3      	ldr	r3, [r0, #12]
   21f94:	f44f 7280 	mov.w	r2, #256	; 0x100
   21f98:	4815      	ldr	r0, [pc, #84]	; (21ff0 <ECDSA_CurveSel+0x108>)
   21f9a:	f043 0301 	orr.w	r3, r3, #1
   21f9e:	60c8      	str	r0, [r1, #12]
   21fa0:	e9c1 2201 	strd	r2, r2, [r1, #4]
   21fa4:	60e3      	str	r3, [r4, #12]
   21fa6:	e7b9      	b.n	21f1c <ECDSA_CurveSel+0x34>
   21fa8:	4d12      	ldr	r5, [pc, #72]	; (21ff4 <ECDSA_CurveSel+0x10c>)
   21faa:	f44f 7380 	mov.w	r3, #256	; 0x100
   21fae:	e7c8      	b.n	21f42 <ECDSA_CurveSel+0x5a>
   21fb0:	68c3      	ldr	r3, [r0, #12]
   21fb2:	f44f 7280 	mov.w	r2, #256	; 0x100
   21fb6:	4810      	ldr	r0, [pc, #64]	; (21ff8 <ECDSA_CurveSel+0x110>)
   21fb8:	f043 0302 	orr.w	r3, r3, #2
   21fbc:	60c8      	str	r0, [r1, #12]
   21fbe:	e9c1 2201 	strd	r2, r2, [r1, #4]
   21fc2:	60e3      	str	r3, [r4, #12]
   21fc4:	e7aa      	b.n	21f1c <ECDSA_CurveSel+0x34>
   21fc6:	4d0d      	ldr	r5, [pc, #52]	; (21ffc <ECDSA_CurveSel+0x114>)
   21fc8:	23c0      	movs	r3, #192	; 0xc0
   21fca:	e7ba      	b.n	21f42 <ECDSA_CurveSel+0x5a>
   21fcc:	22e1      	movs	r2, #225	; 0xe1
   21fce:	4d0c      	ldr	r5, [pc, #48]	; (22000 <ECDSA_CurveSel+0x118>)
   21fd0:	23e0      	movs	r3, #224	; 0xe0
   21fd2:	604a      	str	r2, [r1, #4]
   21fd4:	2220      	movs	r2, #32
   21fd6:	e9c1 3502 	strd	r3, r5, [r1, #8]
   21fda:	e7b6      	b.n	21f4a <ECDSA_CurveSel+0x62>
   21fdc:	ffffe080 	.word	0xffffe080
   21fe0:	00041064 	.word	0x00041064
   21fe4:	00041204 	.word	0x00041204
   21fe8:	00028f1d 	.word	0x00028f1d
   21fec:	000412a4 	.word	0x000412a4
   21ff0:	00041084 	.word	0x00041084
   21ff4:	00041344 	.word	0x00041344
   21ff8:	000410a4 	.word	0x000410a4
   21ffc:	000410c4 	.word	0x000410c4
   22000:	00041164 	.word	0x00041164

00022004 <ECDSA_EngRst>:
   22004:	6802      	ldr	r2, [r0, #0]
   22006:	f240 1301 	movw	r3, #257	; 0x101
   2200a:	4313      	orrs	r3, r2
   2200c:	6003      	str	r3, [r0, #0]
   2200e:	6803      	ldr	r3, [r0, #0]
   22010:	f023 0301 	bic.w	r3, r3, #1
   22014:	6003      	str	r3, [r0, #0]
   22016:	4770      	bx	lr

00022018 <ECDSA_Cmd>:
   22018:	6803      	ldr	r3, [r0, #0]
   2201a:	b139      	cbz	r1, 2202c <ECDSA_Cmd+0x14>
   2201c:	f443 7380 	orr.w	r3, r3, #256	; 0x100
   22020:	6003      	str	r3, [r0, #0]
   22022:	6883      	ldr	r3, [r0, #8]
   22024:	f043 0301 	orr.w	r3, r3, #1
   22028:	6083      	str	r3, [r0, #8]
   2202a:	4770      	bx	lr
   2202c:	f423 7380 	bic.w	r3, r3, #256	; 0x100
   22030:	6003      	str	r3, [r0, #0]
   22032:	6883      	ldr	r3, [r0, #8]
   22034:	f023 0303 	bic.w	r3, r3, #3
   22038:	6083      	str	r3, [r0, #8]
   2203a:	4770      	bx	lr

0002203c <ECDSA_KeyGen>:
   2203c:	e92d 42f0 	stmdb	sp!, {r4, r5, r6, r7, r9, lr}
   22040:	b086      	sub	sp, #24
   22042:	461e      	mov	r6, r3
   22044:	4b2c      	ldr	r3, [pc, #176]	; (220f8 <ECDSA_KeyGen+0xbc>)
   22046:	4604      	mov	r4, r0
   22048:	9102      	str	r1, [sp, #8]
   2204a:	a902      	add	r1, sp, #8
   2204c:	4615      	mov	r5, r2
   2204e:	f8dd 9034 	ldr.w	r9, [sp, #52]	; 0x34
   22052:	4798      	blx	r3
   22054:	4607      	mov	r7, r0
   22056:	2800      	cmp	r0, #0
   22058:	d13d      	bne.n	220d6 <ECDSA_KeyGen+0x9a>
   2205a:	68e3      	ldr	r3, [r4, #12]
   2205c:	f1b9 0f02 	cmp.w	r9, #2
   22060:	9a03      	ldr	r2, [sp, #12]
   22062:	f023 030c 	bic.w	r3, r3, #12
   22066:	ea4f 02d2 	mov.w	r2, r2, lsr #3
   2206a:	60e3      	str	r3, [r4, #12]
   2206c:	68e3      	ldr	r3, [r4, #12]
   2206e:	f043 0308 	orr.w	r3, r3, #8
   22072:	60e3      	str	r3, [r4, #12]
   22074:	68e3      	ldr	r3, [r4, #12]
   22076:	f423 5340 	bic.w	r3, r3, #12288	; 0x3000
   2207a:	60e3      	str	r3, [r4, #12]
   2207c:	d839      	bhi.n	220f2 <ECDSA_KeyGen+0xb6>
   2207e:	f1b9 0f00 	cmp.w	r9, #0
   22082:	d02c      	beq.n	220de <ECDSA_KeyGen+0xa2>
   22084:	68e3      	ldr	r3, [r4, #12]
   22086:	ea43 3309 	orr.w	r3, r3, r9, lsl #12
   2208a:	60e3      	str	r3, [r4, #12]
   2208c:	f04f 0c00 	mov.w	ip, #0
   22090:	eb04 018c 	add.w	r1, r4, ip, lsl #2
   22094:	f10c 0c01 	add.w	ip, ip, #1
   22098:	6d0d      	ldr	r5, [r1, #80]	; 0x50
   2209a:	f1bc 0f08 	cmp.w	ip, #8
   2209e:	610d      	str	r5, [r1, #16]
   220a0:	6f0d      	ldr	r5, [r1, #112]	; 0x70
   220a2:	630d      	str	r5, [r1, #48]	; 0x30
   220a4:	d1f4      	bne.n	22090 <ECDSA_KeyGen+0x54>
   220a6:	2101      	movs	r1, #1
   220a8:	4620      	mov	r0, r4
   220aa:	4b14      	ldr	r3, [pc, #80]	; (220fc <ECDSA_KeyGen+0xc0>)
   220ac:	9201      	str	r2, [sp, #4]
   220ae:	4798      	blx	r3
   220b0:	4913      	ldr	r1, [pc, #76]	; (22100 <ECDSA_KeyGen+0xc4>)
   220b2:	9a01      	ldr	r2, [sp, #4]
   220b4:	e001      	b.n	220ba <ECDSA_KeyGen+0x7e>
   220b6:	3901      	subs	r1, #1
   220b8:	d019      	beq.n	220ee <ECDSA_KeyGen+0xb2>
   220ba:	68a5      	ldr	r5, [r4, #8]
   220bc:	05eb      	lsls	r3, r5, #23
   220be:	d5fa      	bpl.n	220b6 <ECDSA_KeyGen+0x7a>
   220c0:	f104 0190 	add.w	r1, r4, #144	; 0x90
   220c4:	4630      	mov	r0, r6
   220c6:	4d0f      	ldr	r5, [pc, #60]	; (22104 <ECDSA_KeyGen+0xc8>)
   220c8:	9201      	str	r2, [sp, #4]
   220ca:	47a8      	blx	r5
   220cc:	9a01      	ldr	r2, [sp, #4]
   220ce:	f104 01b0 	add.w	r1, r4, #176	; 0xb0
   220d2:	980c      	ldr	r0, [sp, #48]	; 0x30
   220d4:	47a8      	blx	r5
   220d6:	4638      	mov	r0, r7
   220d8:	b006      	add	sp, #24
   220da:	e8bd 82f0 	ldmia.w	sp!, {r4, r5, r6, r7, r9, pc}
   220de:	4629      	mov	r1, r5
   220e0:	f504 70a8 	add.w	r0, r4, #336	; 0x150
   220e4:	4b07      	ldr	r3, [pc, #28]	; (22104 <ECDSA_KeyGen+0xc8>)
   220e6:	9201      	str	r2, [sp, #4]
   220e8:	4798      	blx	r3
   220ea:	9a01      	ldr	r2, [sp, #4]
   220ec:	e7ce      	b.n	2208c <ECDSA_KeyGen+0x50>
   220ee:	4f06      	ldr	r7, [pc, #24]	; (22108 <ECDSA_KeyGen+0xcc>)
   220f0:	e7f1      	b.n	220d6 <ECDSA_KeyGen+0x9a>
   220f2:	4f06      	ldr	r7, [pc, #24]	; (2210c <ECDSA_KeyGen+0xd0>)
   220f4:	e7ef      	b.n	220d6 <ECDSA_KeyGen+0x9a>
   220f6:	bf00      	nop
   220f8:	00021ee9 	.word	0x00021ee9
   220fc:	00022019 	.word	0x00022019
   22100:	01312d00 	.word	0x01312d00
   22104:	00028f1d 	.word	0x00028f1d
   22108:	ffffe100 	.word	0xffffe100
   2210c:	ffffe400 	.word	0xffffe400

00022110 <ECDSA_Sign>:
   22110:	e92d 47f0 	stmdb	sp!, {r4, r5, r6, r7, r8, r9, sl, lr}
   22114:	b08c      	sub	sp, #48	; 0x30
   22116:	4699      	mov	r9, r3
   22118:	4b3f      	ldr	r3, [pc, #252]	; (22218 <ECDSA_Sign+0x108>)
   2211a:	4604      	mov	r4, r0
   2211c:	9100      	str	r1, [sp, #0]
   2211e:	4669      	mov	r1, sp
   22120:	4616      	mov	r6, r2
   22122:	f8dd 8068 	ldr.w	r8, [sp, #104]	; 0x68
   22126:	4798      	blx	r3
   22128:	4605      	mov	r5, r0
   2212a:	b118      	cbz	r0, 22134 <ECDSA_Sign+0x24>
   2212c:	4628      	mov	r0, r5
   2212e:	b00c      	add	sp, #48	; 0x30
   22130:	e8bd 87f0 	ldmia.w	sp!, {r4, r5, r6, r7, r8, r9, sl, pc}
   22134:	e9dd 2314 	ldrd	r2, r3, [sp, #80]	; 0x50
   22138:	4668      	mov	r0, sp
   2213a:	a904      	add	r1, sp, #16
   2213c:	f8df a0f0 	ldr.w	sl, [pc, #240]	; 22230 <ECDSA_Sign+0x120>
   22140:	9f01      	ldr	r7, [sp, #4]
   22142:	47d0      	blx	sl
   22144:	68e3      	ldr	r3, [r4, #12]
   22146:	f1b8 0f02 	cmp.w	r8, #2
   2214a:	ea4f 07d7 	mov.w	r7, r7, lsr #3
   2214e:	f023 030c 	bic.w	r3, r3, #12
   22152:	60e3      	str	r3, [r4, #12]
   22154:	68e3      	ldr	r3, [r4, #12]
   22156:	f043 0304 	orr.w	r3, r3, #4
   2215a:	60e3      	str	r3, [r4, #12]
   2215c:	68e3      	ldr	r3, [r4, #12]
   2215e:	f423 5340 	bic.w	r3, r3, #12288	; 0x3000
   22162:	60e3      	str	r3, [r4, #12]
   22164:	d855      	bhi.n	22212 <ECDSA_Sign+0x102>
   22166:	f104 0a10 	add.w	sl, r4, #16
   2216a:	f1b8 0f00 	cmp.w	r8, #0
   2216e:	d047      	beq.n	22200 <ECDSA_Sign+0xf0>
   22170:	68e3      	ldr	r3, [r4, #12]
   22172:	ea43 3308 	orr.w	r3, r3, r8, lsl #12
   22176:	f8df 80bc 	ldr.w	r8, [pc, #188]	; 22234 <ECDSA_Sign+0x124>
   2217a:	60e3      	str	r3, [r4, #12]
   2217c:	4631      	mov	r1, r6
   2217e:	463a      	mov	r2, r7
   22180:	4650      	mov	r0, sl
   22182:	47c0      	blx	r8
   22184:	463a      	mov	r2, r7
   22186:	4649      	mov	r1, r9
   22188:	f104 0030 	add.w	r0, r4, #48	; 0x30
   2218c:	47c0      	blx	r8
   2218e:	a904      	add	r1, sp, #16
   22190:	2220      	movs	r2, #32
   22192:	f504 70a8 	add.w	r0, r4, #336	; 0x150
   22196:	47c0      	blx	r8
   22198:	4b20      	ldr	r3, [pc, #128]	; (2221c <ECDSA_Sign+0x10c>)
   2219a:	2101      	movs	r1, #1
   2219c:	4620      	mov	r0, r4
   2219e:	4798      	blx	r3
   221a0:	68a3      	ldr	r3, [r4, #8]
   221a2:	f043 0304 	orr.w	r3, r3, #4
   221a6:	60a3      	str	r3, [r4, #8]
   221a8:	4b1d      	ldr	r3, [pc, #116]	; (22220 <ECDSA_Sign+0x110>)
   221aa:	e005      	b.n	221b8 <ECDSA_Sign+0xa8>
   221ac:	3b01      	subs	r3, #1
   221ae:	d02e      	beq.n	2220e <ECDSA_Sign+0xfe>
   221b0:	68a1      	ldr	r1, [r4, #8]
   221b2:	f411 3f7c 	tst.w	r1, #258048	; 0x3f000
   221b6:	d11e      	bne.n	221f6 <ECDSA_Sign+0xe6>
   221b8:	68a1      	ldr	r1, [r4, #8]
   221ba:	05ca      	lsls	r2, r1, #23
   221bc:	d5f6      	bpl.n	221ac <ECDSA_Sign+0x9c>
   221be:	9b16      	ldr	r3, [sp, #88]	; 0x58
   221c0:	b123      	cbz	r3, 221cc <ECDSA_Sign+0xbc>
   221c2:	463a      	mov	r2, r7
   221c4:	f104 0190 	add.w	r1, r4, #144	; 0x90
   221c8:	4618      	mov	r0, r3
   221ca:	47c0      	blx	r8
   221cc:	9b17      	ldr	r3, [sp, #92]	; 0x5c
   221ce:	b123      	cbz	r3, 221da <ECDSA_Sign+0xca>
   221d0:	463a      	mov	r2, r7
   221d2:	f104 01b0 	add.w	r1, r4, #176	; 0xb0
   221d6:	4618      	mov	r0, r3
   221d8:	47c0      	blx	r8
   221da:	463a      	mov	r2, r7
   221dc:	f104 01d0 	add.w	r1, r4, #208	; 0xd0
   221e0:	9818      	ldr	r0, [sp, #96]	; 0x60
   221e2:	47c0      	blx	r8
   221e4:	463a      	mov	r2, r7
   221e6:	f104 01f0 	add.w	r1, r4, #240	; 0xf0
   221ea:	9819      	ldr	r0, [sp, #100]	; 0x64
   221ec:	47c0      	blx	r8
   221ee:	4628      	mov	r0, r5
   221f0:	b00c      	add	sp, #48	; 0x30
   221f2:	e8bd 87f0 	ldmia.w	sp!, {r4, r5, r6, r7, r8, r9, sl, pc}
   221f6:	4d0b      	ldr	r5, [pc, #44]	; (22224 <ECDSA_Sign+0x114>)
   221f8:	4628      	mov	r0, r5
   221fa:	b00c      	add	sp, #48	; 0x30
   221fc:	e8bd 87f0 	ldmia.w	sp!, {r4, r5, r6, r7, r8, r9, sl, pc}
   22200:	463a      	mov	r2, r7
   22202:	4631      	mov	r1, r6
   22204:	4650      	mov	r0, sl
   22206:	f8df 802c 	ldr.w	r8, [pc, #44]	; 22234 <ECDSA_Sign+0x124>
   2220a:	47c0      	blx	r8
   2220c:	e7b6      	b.n	2217c <ECDSA_Sign+0x6c>
   2220e:	4d06      	ldr	r5, [pc, #24]	; (22228 <ECDSA_Sign+0x118>)
   22210:	e78c      	b.n	2212c <ECDSA_Sign+0x1c>
   22212:	4d06      	ldr	r5, [pc, #24]	; (2222c <ECDSA_Sign+0x11c>)
   22214:	e78a      	b.n	2212c <ECDSA_Sign+0x1c>
   22216:	bf00      	nop
   22218:	00021ee9 	.word	0x00021ee9
   2221c:	00022019 	.word	0x00022019
   22220:	01312d00 	.word	0x01312d00
   22224:	ffffe200 	.word	0xffffe200
   22228:	ffffe180 	.word	0xffffe180
   2222c:	ffffe400 	.word	0xffffe400
   22230:	00021d79 	.word	0x00021d79
   22234:	00028f1d 	.word	0x00028f1d

00022238 <ECDSA_Verify>:
   22238:	e92d 41f0 	stmdb	sp!, {r4, r5, r6, r7, r8, lr}
   2223c:	b08c      	sub	sp, #48	; 0x30
   2223e:	461f      	mov	r7, r3
   22240:	4b2c      	ldr	r3, [pc, #176]	; (222f4 <ECDSA_Verify+0xbc>)
   22242:	4604      	mov	r4, r0
   22244:	9100      	str	r1, [sp, #0]
   22246:	4669      	mov	r1, sp
   22248:	4616      	mov	r6, r2
   2224a:	4798      	blx	r3
   2224c:	4605      	mov	r5, r0
   2224e:	b118      	cbz	r0, 22258 <ECDSA_Verify+0x20>
   22250:	4628      	mov	r0, r5
   22252:	b00c      	add	sp, #48	; 0x30
   22254:	e8bd 81f0 	ldmia.w	sp!, {r4, r5, r6, r7, r8, pc}
   22258:	68e1      	ldr	r1, [r4, #12]
   2225a:	4632      	mov	r2, r6
   2225c:	9e01      	ldr	r6, [sp, #4]
   2225e:	463b      	mov	r3, r7
   22260:	f021 010c 	bic.w	r1, r1, #12
   22264:	4668      	mov	r0, sp
   22266:	08f6      	lsrs	r6, r6, #3
   22268:	f8df 80a4 	ldr.w	r8, [pc, #164]	; 22310 <ECDSA_Verify+0xd8>
   2226c:	60e1      	str	r1, [r4, #12]
   2226e:	68e1      	ldr	r1, [r4, #12]
   22270:	4f21      	ldr	r7, [pc, #132]	; (222f8 <ECDSA_Verify+0xc0>)
   22272:	60e1      	str	r1, [r4, #12]
   22274:	a904      	add	r1, sp, #16
   22276:	47c0      	blx	r8
   22278:	4632      	mov	r2, r6
   2227a:	9912      	ldr	r1, [sp, #72]	; 0x48
   2227c:	f104 0010 	add.w	r0, r4, #16
   22280:	47b8      	blx	r7
   22282:	4632      	mov	r2, r6
   22284:	9913      	ldr	r1, [sp, #76]	; 0x4c
   22286:	f104 0030 	add.w	r0, r4, #48	; 0x30
   2228a:	47b8      	blx	r7
   2228c:	4632      	mov	r2, r6
   2228e:	9914      	ldr	r1, [sp, #80]	; 0x50
   22290:	f504 7088 	add.w	r0, r4, #272	; 0x110
   22294:	47b8      	blx	r7
   22296:	4632      	mov	r2, r6
   22298:	9915      	ldr	r1, [sp, #84]	; 0x54
   2229a:	f504 7098 	add.w	r0, r4, #304	; 0x130
   2229e:	47b8      	blx	r7
   222a0:	2220      	movs	r2, #32
   222a2:	a904      	add	r1, sp, #16
   222a4:	f504 70a8 	add.w	r0, r4, #336	; 0x150
   222a8:	47b8      	blx	r7
   222aa:	4b14      	ldr	r3, [pc, #80]	; (222fc <ECDSA_Verify+0xc4>)
   222ac:	2101      	movs	r1, #1
   222ae:	4620      	mov	r0, r4
   222b0:	4798      	blx	r3
   222b2:	68a2      	ldr	r2, [r4, #8]
   222b4:	4b12      	ldr	r3, [pc, #72]	; (22300 <ECDSA_Verify+0xc8>)
   222b6:	f042 0204 	orr.w	r2, r2, #4
   222ba:	60a2      	str	r2, [r4, #8]
   222bc:	e005      	b.n	222ca <ECDSA_Verify+0x92>
   222be:	3b01      	subs	r3, #1
   222c0:	d015      	beq.n	222ee <ECDSA_Verify+0xb6>
   222c2:	68a2      	ldr	r2, [r4, #8]
   222c4:	f412 3f43 	tst.w	r2, #199680	; 0x30c00
   222c8:	d10c      	bne.n	222e4 <ECDSA_Verify+0xac>
   222ca:	68a2      	ldr	r2, [r4, #8]
   222cc:	05d2      	lsls	r2, r2, #23
   222ce:	d5f6      	bpl.n	222be <ECDSA_Verify+0x86>
   222d0:	68a2      	ldr	r2, [r4, #8]
   222d2:	4b0c      	ldr	r3, [pc, #48]	; (22304 <ECDSA_Verify+0xcc>)
   222d4:	f412 7f00 	tst.w	r2, #512	; 0x200
   222d8:	bf08      	it	eq
   222da:	461d      	moveq	r5, r3
   222dc:	4628      	mov	r0, r5
   222de:	b00c      	add	sp, #48	; 0x30
   222e0:	e8bd 81f0 	ldmia.w	sp!, {r4, r5, r6, r7, r8, pc}
   222e4:	4d08      	ldr	r5, [pc, #32]	; (22308 <ECDSA_Verify+0xd0>)
   222e6:	4628      	mov	r0, r5
   222e8:	b00c      	add	sp, #48	; 0x30
   222ea:	e8bd 81f0 	ldmia.w	sp!, {r4, r5, r6, r7, r8, pc}
   222ee:	4d07      	ldr	r5, [pc, #28]	; (2230c <ECDSA_Verify+0xd4>)
   222f0:	e7ae      	b.n	22250 <ECDSA_Verify+0x18>
   222f2:	bf00      	nop
   222f4:	00021ee9 	.word	0x00021ee9
   222f8:	00028f1d 	.word	0x00028f1d
   222fc:	00022019 	.word	0x00022019
   22300:	01312d00 	.word	0x01312d00
   22304:	ffffe380 	.word	0xffffe380
   22308:	ffffe300 	.word	0xffffe300
   2230c:	ffffe280 	.word	0xffffe280
   22310:	00021d79 	.word	0x00021d79

00022314 <ECDSA_ECDH_Compute_Shared>:
   22314:	e92d 47f0 	stmdb	sp!, {r4, r5, r6, r7, r8, r9, sl, lr}
   22318:	b084      	sub	sp, #16
   2231a:	461f      	mov	r7, r3
   2231c:	4b2e      	ldr	r3, [pc, #184]	; (223d8 <ECDSA_ECDH_Compute_Shared+0xc4>)
   2231e:	4604      	mov	r4, r0
   22320:	9100      	str	r1, [sp, #0]
   22322:	4669      	mov	r1, sp
   22324:	4690      	mov	r8, r2
   22326:	9d0f      	ldr	r5, [sp, #60]	; 0x3c
   22328:	4798      	blx	r3
   2232a:	4606      	mov	r6, r0
   2232c:	b118      	cbz	r0, 22336 <ECDSA_ECDH_Compute_Shared+0x22>
   2232e:	4630      	mov	r0, r6
   22330:	b004      	add	sp, #16
   22332:	e8bd 87f0 	ldmia.w	sp!, {r4, r5, r6, r7, r8, r9, sl, pc}
   22336:	68e3      	ldr	r3, [r4, #12]
   22338:	f104 0010 	add.w	r0, r4, #16
   2233c:	9a01      	ldr	r2, [sp, #4]
   2233e:	f023 030c 	bic.w	r3, r3, #12
   22342:	990c      	ldr	r1, [sp, #48]	; 0x30
   22344:	ea4f 0ad2 	mov.w	sl, r2, lsr #3
   22348:	f8df 90a4 	ldr.w	r9, [pc, #164]	; 223f0 <ECDSA_ECDH_Compute_Shared+0xdc>
   2234c:	60e3      	str	r3, [r4, #12]
   2234e:	68e3      	ldr	r3, [r4, #12]
   22350:	4652      	mov	r2, sl
   22352:	f043 0308 	orr.w	r3, r3, #8
   22356:	60e3      	str	r3, [r4, #12]
   22358:	68e3      	ldr	r3, [r4, #12]
   2235a:	f423 5340 	bic.w	r3, r3, #12288	; 0x3000
   2235e:	60e3      	str	r3, [r4, #12]
   22360:	47c8      	blx	r9
   22362:	4652      	mov	r2, sl
   22364:	990d      	ldr	r1, [sp, #52]	; 0x34
   22366:	f104 0030 	add.w	r0, r4, #48	; 0x30
   2236a:	47c8      	blx	r9
   2236c:	2d02      	cmp	r5, #2
   2236e:	d830      	bhi.n	223d2 <ECDSA_ECDH_Compute_Shared+0xbe>
   22370:	b33d      	cbz	r5, 223c2 <ECDSA_ECDH_Compute_Shared+0xae>
   22372:	68e3      	ldr	r3, [r4, #12]
   22374:	ea43 3505 	orr.w	r5, r3, r5, lsl #12
   22378:	60e5      	str	r5, [r4, #12]
   2237a:	2101      	movs	r1, #1
   2237c:	4620      	mov	r0, r4
   2237e:	4b17      	ldr	r3, [pc, #92]	; (223dc <ECDSA_ECDH_Compute_Shared+0xc8>)
   22380:	4798      	blx	r3
   22382:	4917      	ldr	r1, [pc, #92]	; (223e0 <ECDSA_ECDH_Compute_Shared+0xcc>)
   22384:	e005      	b.n	22392 <ECDSA_ECDH_Compute_Shared+0x7e>
   22386:	3901      	subs	r1, #1
   22388:	d021      	beq.n	223ce <ECDSA_ECDH_Compute_Shared+0xba>
   2238a:	68a5      	ldr	r5, [r4, #8]
   2238c:	f415 3f43 	tst.w	r5, #199680	; 0x30c00
   22390:	d112      	bne.n	223b8 <ECDSA_ECDH_Compute_Shared+0xa4>
   22392:	68a5      	ldr	r5, [r4, #8]
   22394:	05eb      	lsls	r3, r5, #23
   22396:	d5f6      	bpl.n	22386 <ECDSA_ECDH_Compute_Shared+0x72>
   22398:	4640      	mov	r0, r8
   2239a:	4652      	mov	r2, sl
   2239c:	f104 0190 	add.w	r1, r4, #144	; 0x90
   223a0:	47c8      	blx	r9
   223a2:	2f00      	cmp	r7, #0
   223a4:	d0c3      	beq.n	2232e <ECDSA_ECDH_Compute_Shared+0x1a>
   223a6:	4652      	mov	r2, sl
   223a8:	f104 01b0 	add.w	r1, r4, #176	; 0xb0
   223ac:	4638      	mov	r0, r7
   223ae:	47c8      	blx	r9
   223b0:	4630      	mov	r0, r6
   223b2:	b004      	add	sp, #16
   223b4:	e8bd 87f0 	ldmia.w	sp!, {r4, r5, r6, r7, r8, r9, sl, pc}
   223b8:	4e0a      	ldr	r6, [pc, #40]	; (223e4 <ECDSA_ECDH_Compute_Shared+0xd0>)
   223ba:	4630      	mov	r0, r6
   223bc:	b004      	add	sp, #16
   223be:	e8bd 87f0 	ldmia.w	sp!, {r4, r5, r6, r7, r8, r9, sl, pc}
   223c2:	4652      	mov	r2, sl
   223c4:	990e      	ldr	r1, [sp, #56]	; 0x38
   223c6:	f504 70a8 	add.w	r0, r4, #336	; 0x150
   223ca:	47c8      	blx	r9
   223cc:	e7d5      	b.n	2237a <ECDSA_ECDH_Compute_Shared+0x66>
   223ce:	4e06      	ldr	r6, [pc, #24]	; (223e8 <ECDSA_ECDH_Compute_Shared+0xd4>)
   223d0:	e7ad      	b.n	2232e <ECDSA_ECDH_Compute_Shared+0x1a>
   223d2:	4e06      	ldr	r6, [pc, #24]	; (223ec <ECDSA_ECDH_Compute_Shared+0xd8>)
   223d4:	e7ab      	b.n	2232e <ECDSA_ECDH_Compute_Shared+0x1a>
   223d6:	bf00      	nop
   223d8:	00021ee9 	.word	0x00021ee9
   223dc:	00022019 	.word	0x00022019
   223e0:	01312d00 	.word	0x01312d00
   223e4:	ffffe300 	.word	0xffffe300
   223e8:	ffffe280 	.word	0xffffe280
   223ec:	ffffe400 	.word	0xffffe400
   223f0:	00028f1d 	.word	0x00028f1d

000223f4 <ECDSA_Basic_Func>:
   223f4:	e92d 41f0 	stmdb	sp!, {r4, r5, r6, r7, r8, lr}
   223f8:	460e      	mov	r6, r1
   223fa:	b084      	sub	sp, #16
   223fc:	4617      	mov	r7, r2
   223fe:	4604      	mov	r4, r0
   22400:	4a2c      	ldr	r2, [pc, #176]	; (224b4 <ECDSA_Basic_Func+0xc0>)
   22402:	2108      	movs	r1, #8
   22404:	4630      	mov	r0, r6
   22406:	4d2c      	ldr	r5, [pc, #176]	; (224b8 <ECDSA_Basic_Func+0xc4>)
   22408:	4698      	mov	r8, r3
   2240a:	47a8      	blx	r5
   2240c:	2800      	cmp	r0, #0
   2240e:	da4c      	bge.n	224aa <ECDSA_Basic_Func+0xb6>
   22410:	4a28      	ldr	r2, [pc, #160]	; (224b4 <ECDSA_Basic_Func+0xc0>)
   22412:	2108      	movs	r1, #8
   22414:	4638      	mov	r0, r7
   22416:	47a8      	blx	r5
   22418:	2800      	cmp	r0, #0
   2241a:	da46      	bge.n	224aa <ECDSA_Basic_Func+0xb6>
   2241c:	230c      	movs	r3, #12
   2241e:	4669      	mov	r1, sp
   22420:	4620      	mov	r0, r4
   22422:	9300      	str	r3, [sp, #0]
   22424:	4b25      	ldr	r3, [pc, #148]	; (224bc <ECDSA_Basic_Func+0xc8>)
   22426:	4798      	blx	r3
   22428:	4605      	mov	r5, r0
   2242a:	b118      	cbz	r0, 22434 <ECDSA_Basic_Func+0x40>
   2242c:	4628      	mov	r0, r5
   2242e:	b004      	add	sp, #16
   22430:	e8bd 81f0 	ldmia.w	sp!, {r4, r5, r6, r7, r8, pc}
   22434:	68e3      	ldr	r3, [r4, #12]
   22436:	4631      	mov	r1, r6
   22438:	f104 0010 	add.w	r0, r4, #16
   2243c:	4e20      	ldr	r6, [pc, #128]	; (224c0 <ECDSA_Basic_Func+0xcc>)
   2243e:	f023 030c 	bic.w	r3, r3, #12
   22442:	60e3      	str	r3, [r4, #12]
   22444:	68e3      	ldr	r3, [r4, #12]
   22446:	f043 030c 	orr.w	r3, r3, #12
   2244a:	60e3      	str	r3, [r4, #12]
   2244c:	68e3      	ldr	r3, [r4, #12]
   2244e:	f023 0370 	bic.w	r3, r3, #112	; 0x70
   22452:	60e3      	str	r3, [r4, #12]
   22454:	9b0a      	ldr	r3, [sp, #40]	; 0x28
   22456:	68e2      	ldr	r2, [r4, #12]
   22458:	011b      	lsls	r3, r3, #4
   2245a:	f003 0370 	and.w	r3, r3, #112	; 0x70
   2245e:	4313      	orrs	r3, r2
   22460:	2220      	movs	r2, #32
   22462:	60e3      	str	r3, [r4, #12]
   22464:	47b0      	blx	r6
   22466:	2220      	movs	r2, #32
   22468:	4639      	mov	r1, r7
   2246a:	f104 0030 	add.w	r0, r4, #48	; 0x30
   2246e:	47b0      	blx	r6
   22470:	2101      	movs	r1, #1
   22472:	4620      	mov	r0, r4
   22474:	4b13      	ldr	r3, [pc, #76]	; (224c4 <ECDSA_Basic_Func+0xd0>)
   22476:	4798      	blx	r3
   22478:	4a13      	ldr	r2, [pc, #76]	; (224c8 <ECDSA_Basic_Func+0xd4>)
   2247a:	e005      	b.n	22488 <ECDSA_Basic_Func+0x94>
   2247c:	3a01      	subs	r2, #1
   2247e:	d016      	beq.n	224ae <ECDSA_Basic_Func+0xba>
   22480:	68a1      	ldr	r1, [r4, #8]
   22482:	f411 3f43 	tst.w	r1, #199680	; 0x30c00
   22486:	d10b      	bne.n	224a0 <ECDSA_Basic_Func+0xac>
   22488:	68a1      	ldr	r1, [r4, #8]
   2248a:	05cb      	lsls	r3, r1, #23
   2248c:	d5f6      	bpl.n	2247c <ECDSA_Basic_Func+0x88>
   2248e:	2220      	movs	r2, #32
   22490:	f104 0190 	add.w	r1, r4, #144	; 0x90
   22494:	4640      	mov	r0, r8
   22496:	47b0      	blx	r6
   22498:	4628      	mov	r0, r5
   2249a:	b004      	add	sp, #16
   2249c:	e8bd 81f0 	ldmia.w	sp!, {r4, r5, r6, r7, r8, pc}
   224a0:	4d0a      	ldr	r5, [pc, #40]	; (224cc <ECDSA_Basic_Func+0xd8>)
   224a2:	4628      	mov	r0, r5
   224a4:	b004      	add	sp, #16
   224a6:	e8bd 81f0 	ldmia.w	sp!, {r4, r5, r6, r7, r8, pc}
   224aa:	4d09      	ldr	r5, [pc, #36]	; (224d0 <ECDSA_Basic_Func+0xdc>)
   224ac:	e7be      	b.n	2242c <ECDSA_Basic_Func+0x38>
   224ae:	4d09      	ldr	r5, [pc, #36]	; (224d4 <ECDSA_Basic_Func+0xe0>)
   224b0:	e7bc      	b.n	2242c <ECDSA_Basic_Func+0x38>
   224b2:	bf00      	nop
   224b4:	000413e4 	.word	0x000413e4
   224b8:	00021d11 	.word	0x00021d11
   224bc:	00021ee9 	.word	0x00021ee9
   224c0:	00028f1d 	.word	0x00028f1d
   224c4:	00022019 	.word	0x00022019
   224c8:	01312d00 	.word	0x01312d00
   224cc:	ffffe500 	.word	0xffffe500
   224d0:	ffffe580 	.word	0xffffe580
   224d4:	ffffe480 	.word	0xffffe480

000224d8 <FLASH_Config.constprop.0>:
   224d8:	4a25      	ldr	r2, [pc, #148]	; (22570 <FLASH_Config.constprop.0+0x98>)
   224da:	2100      	movs	r1, #0
   224dc:	4b25      	ldr	r3, [pc, #148]	; (22574 <FLASH_Config.constprop.0+0x9c>)
   224de:	b410      	push	{r4}
   224e0:	7950      	ldrb	r0, [r2, #5]
   224e2:	2401      	movs	r4, #1
   224e4:	6099      	str	r1, [r3, #8]
   224e6:	6158      	str	r0, [r3, #20]
   224e8:	6cd0      	ldr	r0, [r2, #76]	; 0x4c
   224ea:	611c      	str	r4, [r3, #16]
   224ec:	f8c3 00e0 	str.w	r0, [r3, #224]	; 0xe0
   224f0:	e9d2 0407 	ldrd	r0, r4, [r2, #28]
   224f4:	f8c3 40e8 	str.w	r4, [r3, #232]	; 0xe8
   224f8:	f8c3 00e4 	str.w	r0, [r3, #228]	; 0xe4
   224fc:	e9d2 0409 	ldrd	r0, r4, [r2, #36]	; 0x24
   22500:	f8c3 40f0 	str.w	r4, [r3, #240]	; 0xf0
   22504:	f8c3 00ec 	str.w	r0, [r3, #236]	; 0xec
   22508:	f8c3 10f4 	str.w	r1, [r3, #244]	; 0xf4
   2250c:	f8c3 1108 	str.w	r1, [r3, #264]	; 0x108
   22510:	f8c3 10f8 	str.w	r1, [r3, #248]	; 0xf8
   22514:	f8c3 10fc 	str.w	r1, [r3, #252]	; 0xfc
   22518:	f8c3 1100 	str.w	r1, [r3, #256]	; 0x100
   2251c:	f8c3 1104 	str.w	r1, [r3, #260]	; 0x104
   22520:	f8d3 0110 	ldr.w	r0, [r3, #272]	; 0x110
   22524:	f892 1064 	ldrb.w	r1, [r2, #100]	; 0x64
   22528:	f040 0001 	orr.w	r0, r0, #1
   2252c:	f892 405b 	ldrb.w	r4, [r2, #91]	; 0x5b
   22530:	040a      	lsls	r2, r1, #16
   22532:	f8c3 0110 	str.w	r0, [r3, #272]	; 0x110
   22536:	f8d3 0110 	ldr.w	r0, [r3, #272]	; 0x110
   2253a:	f402 2170 	and.w	r1, r2, #983040	; 0xf0000
   2253e:	f020 0006 	bic.w	r0, r0, #6
   22542:	f8c3 0110 	str.w	r0, [r3, #272]	; 0x110
   22546:	f8d3 211c 	ldr.w	r2, [r3, #284]	; 0x11c
   2254a:	f422 2270 	bic.w	r2, r2, #983040	; 0xf0000
   2254e:	430a      	orrs	r2, r1
   22550:	f8c3 211c 	str.w	r2, [r3, #284]	; 0x11c
   22554:	f8d3 2118 	ldr.w	r2, [r3, #280]	; 0x118
   22558:	f422 2273 	bic.w	r2, r2, #995328	; 0xf3000
   2255c:	430a      	orrs	r2, r1
   2255e:	f442 5280 	orr.w	r2, r2, #4096	; 0x1000
   22562:	f8c3 2118 	str.w	r2, [r3, #280]	; 0x118
   22566:	f8c3 412c 	str.w	r4, [r3, #300]	; 0x12c
   2256a:	f85d 4b04 	ldr.w	r4, [sp], #4
   2256e:	4770      	bx	lr
   22570:	20004014 	.word	0x20004014
   22574:	4100a000 	.word	0x4100a000

00022578 <FLASH_SetSpiMode>:
   22578:	1842      	adds	r2, r0, r1
   2257a:	2300      	movs	r3, #0
   2257c:	b570      	push	{r4, r5, r6, lr}
   2257e:	4c41      	ldr	r4, [pc, #260]	; (22684 <FLASH_SetSpiMode+0x10c>)
   22580:	f890 e005 	ldrb.w	lr, [r0, #5]
   22584:	f892 205e 	ldrb.w	r2, [r2, #94]	; 0x5e
   22588:	60a3      	str	r3, [r4, #8]
   2258a:	fb12 f20e 	smulbb	r2, r2, lr
   2258e:	f890 305d 	ldrb.w	r3, [r0, #93]	; 0x5d
   22592:	f8d4 511c 	ldr.w	r5, [r4, #284]	; 0x11c
   22596:	0052      	lsls	r2, r2, #1
   22598:	4e3b      	ldr	r6, [pc, #236]	; (22688 <FLASH_SetSpiMode+0x110>)
   2259a:	031b      	lsls	r3, r3, #12
   2259c:	ea05 0c06 	and.w	ip, r5, r6
   225a0:	b292      	uxth	r2, r2
   225a2:	b29b      	uxth	r3, r3
   225a4:	ea43 030c 	orr.w	r3, r3, ip
   225a8:	f3c2 0c0b 	ubfx	ip, r2, #0, #12
   225ac:	ea43 030c 	orr.w	r3, r3, ip
   225b0:	fa1f fc8c 	uxth.w	ip, ip
   225b4:	f8c4 311c 	str.w	r3, [r4, #284]	; 0x11c
   225b8:	f890 5065 	ldrb.w	r5, [r0, #101]	; 0x65
   225bc:	b11d      	cbz	r5, 225c6 <FLASH_SetSpiMode+0x4e>
   225be:	2904      	cmp	r1, #4
   225c0:	d018      	beq.n	225f4 <FLASH_SetSpiMode+0x7c>
   225c2:	2902      	cmp	r1, #2
   225c4:	d03c      	beq.n	22640 <FLASH_SetSpiMode+0xc8>
   225c6:	4c2f      	ldr	r4, [pc, #188]	; (22684 <FLASH_SetSpiMode+0x10c>)
   225c8:	3901      	subs	r1, #1
   225ca:	4a30      	ldr	r2, [pc, #192]	; (2268c <FLASH_SetSpiMode+0x114>)
   225cc:	f8d4 6118 	ldr.w	r6, [r4, #280]	; 0x118
   225d0:	4b2d      	ldr	r3, [pc, #180]	; (22688 <FLASH_SetSpiMode+0x110>)
   225d2:	4032      	ands	r2, r6
   225d4:	ea42 020c 	orr.w	r2, r2, ip
   225d8:	f8c4 2118 	str.w	r2, [r4, #280]	; 0x118
   225dc:	6822      	ldr	r2, [r4, #0]
   225de:	f8d4 4120 	ldr.w	r4, [r4, #288]	; 0x120
   225e2:	f422 127c 	bic.w	r2, r2, #4128768	; 0x3f0000
   225e6:	4023      	ands	r3, r4
   225e8:	2903      	cmp	r1, #3
   225ea:	d848      	bhi.n	2267e <FLASH_SetSpiMode+0x106>
   225ec:	e8df f001 	tbb	[pc, r1]
   225f0:	13213940 	.word	0x13213940
   225f4:	f8d4 1118 	ldr.w	r1, [r4, #280]	; 0x118
   225f8:	eba2 028e 	sub.w	r2, r2, lr, lsl #2
   225fc:	4b23      	ldr	r3, [pc, #140]	; (2268c <FLASH_SetSpiMode+0x114>)
   225fe:	f3c2 020b 	ubfx	r2, r2, #0, #12
   22602:	400b      	ands	r3, r1
   22604:	431a      	orrs	r2, r3
   22606:	f8c4 2118 	str.w	r2, [r4, #280]	; 0x118
   2260a:	6822      	ldr	r2, [r4, #0]
   2260c:	f8d4 3120 	ldr.w	r3, [r4, #288]	; 0x120
   22610:	f422 127c 	bic.w	r2, r2, #4128768	; 0x3f0000
   22614:	4033      	ands	r3, r6
   22616:	6c81      	ldr	r1, [r0, #72]	; 0x48
   22618:	f442 2220 	orr.w	r2, r2, #655360	; 0xa0000
   2261c:	430b      	orrs	r3, r1
   2261e:	21eb      	movs	r1, #235	; 0xeb
   22620:	6081      	str	r1, [r0, #8]
   22622:	b10d      	cbz	r5, 22628 <FLASH_SetSpiMode+0xb0>
   22624:	f443 5300 	orr.w	r3, r3, #8192	; 0x2000
   22628:	4916      	ldr	r1, [pc, #88]	; (22684 <FLASH_SetSpiMode+0x10c>)
   2262a:	f8c1 3120 	str.w	r3, [r1, #288]	; 0x120
   2262e:	600a      	str	r2, [r1, #0]
   22630:	bd70      	pop	{r4, r5, r6, pc}
   22632:	6c41      	ldr	r1, [r0, #68]	; 0x44
   22634:	f442 2200 	orr.w	r2, r2, #524288	; 0x80000
   22638:	430b      	orrs	r3, r1
   2263a:	216b      	movs	r1, #107	; 0x6b
   2263c:	6081      	str	r1, [r0, #8]
   2263e:	e7f0      	b.n	22622 <FLASH_SetSpiMode+0xaa>
   22640:	f8d4 1118 	ldr.w	r1, [r4, #280]	; 0x118
   22644:	eba2 02ce 	sub.w	r2, r2, lr, lsl #3
   22648:	4b10      	ldr	r3, [pc, #64]	; (2268c <FLASH_SetSpiMode+0x114>)
   2264a:	f3c2 020b 	ubfx	r2, r2, #0, #12
   2264e:	400b      	ands	r3, r1
   22650:	431a      	orrs	r2, r3
   22652:	f8c4 2118 	str.w	r2, [r4, #280]	; 0x118
   22656:	6822      	ldr	r2, [r4, #0]
   22658:	f8d4 3120 	ldr.w	r3, [r4, #288]	; 0x120
   2265c:	f422 127c 	bic.w	r2, r2, #4128768	; 0x3f0000
   22660:	4033      	ands	r3, r6
   22662:	6c01      	ldr	r1, [r0, #64]	; 0x40
   22664:	f442 22a0 	orr.w	r2, r2, #327680	; 0x50000
   22668:	430b      	orrs	r3, r1
   2266a:	21bb      	movs	r1, #187	; 0xbb
   2266c:	6081      	str	r1, [r0, #8]
   2266e:	e7d8      	b.n	22622 <FLASH_SetSpiMode+0xaa>
   22670:	6bc1      	ldr	r1, [r0, #60]	; 0x3c
   22672:	f442 2280 	orr.w	r2, r2, #262144	; 0x40000
   22676:	430b      	orrs	r3, r1
   22678:	213b      	movs	r1, #59	; 0x3b
   2267a:	6081      	str	r1, [r0, #8]
   2267c:	e7d1      	b.n	22622 <FLASH_SetSpiMode+0xaa>
   2267e:	2103      	movs	r1, #3
   22680:	6081      	str	r1, [r0, #8]
   22682:	e7ce      	b.n	22622 <FLASH_SetSpiMode+0xaa>
   22684:	4100a000 	.word	0x4100a000
   22688:	ffff0000 	.word	0xffff0000
   2268c:	fffff000 	.word	0xfffff000

00022690 <FLASH_RxCmd>:
   22690:	b5f8      	push	{r3, r4, r5, r6, r7, lr}
   22692:	4c1c      	ldr	r4, [pc, #112]	; (22704 <FLASH_RxCmd+0x74>)
   22694:	4607      	mov	r7, r0
   22696:	2001      	movs	r0, #1
   22698:	460d      	mov	r5, r1
   2269a:	4616      	mov	r6, r2
   2269c:	f000 f87c 	bl	22798 <FLASH_UserModeEn>
   226a0:	2100      	movs	r1, #0
   226a2:	4819      	ldr	r0, [pc, #100]	; (22708 <FLASH_RxCmd+0x78>)
   226a4:	f7ff ff68 	bl	22578 <FLASH_SetSpiMode>
   226a8:	f8d4 3118 	ldr.w	r3, [r4, #280]	; 0x118
   226ac:	1e72      	subs	r2, r6, #1
   226ae:	f423 2370 	bic.w	r3, r3, #983040	; 0xf0000
   226b2:	1951      	adds	r1, r2, r5
   226b4:	f8c4 3118 	str.w	r3, [r4, #280]	; 0x118
   226b8:	f025 437f 	bic.w	r3, r5, #4278190080	; 0xff000000
   226bc:	6063      	str	r3, [r4, #4]
   226be:	2300      	movs	r3, #0
   226c0:	f8c4 3130 	str.w	r3, [r4, #304]	; 0x130
   226c4:	4b11      	ldr	r3, [pc, #68]	; (2270c <FLASH_RxCmd+0x7c>)
   226c6:	6820      	ldr	r0, [r4, #0]
   226c8:	4003      	ands	r3, r0
   226ca:	f443 7340 	orr.w	r3, r3, #768	; 0x300
   226ce:	6023      	str	r3, [r4, #0]
   226d0:	2301      	movs	r3, #1
   226d2:	f884 7060 	strb.w	r7, [r4, #96]	; 0x60
   226d6:	60a3      	str	r3, [r4, #8]
   226d8:	e002      	b.n	226e0 <FLASH_RxCmd+0x50>
   226da:	6aa3      	ldr	r3, [r4, #40]	; 0x28
   226dc:	071b      	lsls	r3, r3, #28
   226de:	d40c      	bmi.n	226fa <FLASH_RxCmd+0x6a>
   226e0:	428a      	cmp	r2, r1
   226e2:	d1fa      	bne.n	226da <FLASH_RxCmd+0x4a>
   226e4:	2004      	movs	r0, #4
   226e6:	f000 f813 	bl	22710 <FLASH_WaitBusy>
   226ea:	4807      	ldr	r0, [pc, #28]	; (22708 <FLASH_RxCmd+0x78>)
   226ec:	7901      	ldrb	r1, [r0, #4]
   226ee:	f7ff ff43 	bl	22578 <FLASH_SetSpiMode>
   226f2:	2000      	movs	r0, #0
   226f4:	e8bd 40f8 	ldmia.w	sp!, {r3, r4, r5, r6, r7, lr}
   226f8:	e04e      	b.n	22798 <FLASH_UserModeEn>
   226fa:	f894 3060 	ldrb.w	r3, [r4, #96]	; 0x60
   226fe:	f802 3f01 	strb.w	r3, [r2, #1]!
   22702:	e7ed      	b.n	226e0 <FLASH_RxCmd+0x50>
   22704:	4100a000 	.word	0x4100a000
   22708:	20004014 	.word	0x20004014
   2270c:	fff0fcff 	.word	0xfff0fcff

00022710 <FLASH_WaitBusy>:
   22710:	2200      	movs	r2, #0
   22712:	b570      	push	{r4, r5, r6, lr}
   22714:	4613      	mov	r3, r2
   22716:	b082      	sub	sp, #8
   22718:	4e1d      	ldr	r6, [pc, #116]	; (22790 <FLASH_WaitBusy+0x80>)
   2271a:	4604      	mov	r4, r0
   2271c:	4d1d      	ldr	r5, [pc, #116]	; (22794 <FLASH_WaitBusy+0x84>)
   2271e:	f88d 2007 	strb.w	r2, [sp, #7]
   22722:	b934      	cbnz	r4, 22732 <FLASH_WaitBusy+0x22>
   22724:	6aab      	ldr	r3, [r5, #40]	; 0x28
   22726:	f003 0301 	and.w	r3, r3, #1
   2272a:	2b00      	cmp	r3, #0
   2272c:	d1f9      	bne.n	22722 <FLASH_WaitBusy+0x12>
   2272e:	b002      	add	sp, #8
   22730:	bd70      	pop	{r4, r5, r6, pc}
   22732:	2c04      	cmp	r4, #4
   22734:	d017      	beq.n	22766 <FLASH_WaitBusy+0x56>
   22736:	2c01      	cmp	r4, #1
   22738:	d01b      	beq.n	22772 <FLASH_WaitBusy+0x62>
   2273a:	2c03      	cmp	r4, #3
   2273c:	d1f5      	bne.n	2272a <FLASH_WaitBusy+0x1a>
   2273e:	f10d 0207 	add.w	r2, sp, #7
   22742:	2101      	movs	r1, #1
   22744:	f896 0052 	ldrb.w	r0, [r6, #82]	; 0x52
   22748:	f7ff ffa2 	bl	22690 <FLASH_RxCmd>
   2274c:	f89d 3007 	ldrb.w	r3, [sp, #7]
   22750:	6972      	ldr	r2, [r6, #20]
   22752:	4213      	tst	r3, r2
   22754:	d0f3      	beq.n	2273e <FLASH_WaitBusy+0x2e>
   22756:	6932      	ldr	r2, [r6, #16]
   22758:	4213      	tst	r3, r2
   2275a:	bf14      	ite	ne
   2275c:	2301      	movne	r3, #1
   2275e:	2300      	moveq	r3, #0
   22760:	2b00      	cmp	r3, #0
   22762:	d1de      	bne.n	22722 <FLASH_WaitBusy+0x12>
   22764:	e7e3      	b.n	2272e <FLASH_WaitBusy+0x1e>
   22766:	68ab      	ldr	r3, [r5, #8]
   22768:	f003 0301 	and.w	r3, r3, #1
   2276c:	2b00      	cmp	r3, #0
   2276e:	d1d8      	bne.n	22722 <FLASH_WaitBusy+0x12>
   22770:	e7dd      	b.n	2272e <FLASH_WaitBusy+0x1e>
   22772:	f10d 0207 	add.w	r2, sp, #7
   22776:	4621      	mov	r1, r4
   22778:	f896 0052 	ldrb.w	r0, [r6, #82]	; 0x52
   2277c:	f7ff ff88 	bl	22690 <FLASH_RxCmd>
   22780:	f89d 3007 	ldrb.w	r3, [sp, #7]
   22784:	6932      	ldr	r2, [r6, #16]
   22786:	4013      	ands	r3, r2
   22788:	2b00      	cmp	r3, #0
   2278a:	d1ca      	bne.n	22722 <FLASH_WaitBusy+0x12>
   2278c:	e7cf      	b.n	2272e <FLASH_WaitBusy+0x1e>
   2278e:	bf00      	nop
   22790:	20004014 	.word	0x20004014
   22794:	4100a000 	.word	0x4100a000

00022798 <FLASH_UserModeEn>:
   22798:	b510      	push	{r4, lr}
   2279a:	4604      	mov	r4, r0
   2279c:	2000      	movs	r0, #0
   2279e:	f7ff ffb7 	bl	22710 <FLASH_WaitBusy>
   227a2:	4a05      	ldr	r2, [pc, #20]	; (227b8 <FLASH_UserModeEn+0x20>)
   227a4:	6813      	ldr	r3, [r2, #0]
   227a6:	b11c      	cbz	r4, 227b0 <FLASH_UserModeEn+0x18>
   227a8:	f043 4300 	orr.w	r3, r3, #2147483648	; 0x80000000
   227ac:	6013      	str	r3, [r2, #0]
   227ae:	bd10      	pop	{r4, pc}
   227b0:	f023 4300 	bic.w	r3, r3, #2147483648	; 0x80000000
   227b4:	6013      	str	r3, [r2, #0]
   227b6:	bd10      	pop	{r4, pc}
   227b8:	4100a000 	.word	0x4100a000

000227bc <FLASH_RxData>:
   227bc:	e92d 41f0 	stmdb	sp!, {r4, r5, r6, r7, r8, lr}
   227c0:	460e      	mov	r6, r1
   227c2:	4615      	mov	r5, r2
   227c4:	461c      	mov	r4, r3
   227c6:	2800      	cmp	r0, #0
   227c8:	d058      	beq.n	2287c <FLASH_RxData+0xc0>
   227ca:	4607      	mov	r7, r0
   227cc:	f8df 80bc 	ldr.w	r8, [pc, #188]	; 2288c <FLASH_RxData+0xd0>
   227d0:	2001      	movs	r0, #1
   227d2:	f7ff ffe1 	bl	22798 <FLASH_UserModeEn>
   227d6:	4b2c      	ldr	r3, [pc, #176]	; (22888 <FLASH_RxData+0xcc>)
   227d8:	2000      	movs	r0, #0
   227da:	f025 427f 	bic.w	r2, r5, #4278190080	; 0xff000000
   227de:	6819      	ldr	r1, [r3, #0]
   227e0:	f441 7140 	orr.w	r1, r1, #768	; 0x300
   227e4:	6019      	str	r1, [r3, #0]
   227e6:	605a      	str	r2, [r3, #4]
   227e8:	f8c3 0130 	str.w	r0, [r3, #304]	; 0x130
   227ec:	f8d3 3118 	ldr.w	r3, [r3, #280]	; 0x118
   227f0:	f898 1065 	ldrb.w	r1, [r8, #101]	; 0x65
   227f4:	f423 2370 	bic.w	r3, r3, #983040	; 0xf0000
   227f8:	f898 0064 	ldrb.w	r0, [r8, #100]	; 0x64
   227fc:	2900      	cmp	r1, #0
   227fe:	d038      	beq.n	22872 <FLASH_RxData+0xb6>
   22800:	1c42      	adds	r2, r0, #1
   22802:	0412      	lsls	r2, r2, #16
   22804:	f402 2270 	and.w	r2, r2, #983040	; 0xf0000
   22808:	4313      	orrs	r3, r2
   2280a:	4a1f      	ldr	r2, [pc, #124]	; (22888 <FLASH_RxData+0xcc>)
   2280c:	2804      	cmp	r0, #4
   2280e:	f8c2 3118 	str.w	r3, [r2, #280]	; 0x118
   22812:	f04f 0301 	mov.w	r3, #1
   22816:	6113      	str	r3, [r2, #16]
   22818:	f882 7060 	strb.w	r7, [r2, #96]	; 0x60
   2281c:	d102      	bne.n	22824 <FLASH_RxData+0x68>
   2281e:	0e33      	lsrs	r3, r6, #24
   22820:	f882 3060 	strb.w	r3, [r2, #96]	; 0x60
   22824:	f3c6 4207 	ubfx	r2, r6, #16, #8
   22828:	4b17      	ldr	r3, [pc, #92]	; (22888 <FLASH_RxData+0xcc>)
   2282a:	f883 2060 	strb.w	r2, [r3, #96]	; 0x60
   2282e:	f3c6 2207 	ubfx	r2, r6, #8, #8
   22832:	b2f6      	uxtb	r6, r6
   22834:	f883 2060 	strb.w	r2, [r3, #96]	; 0x60
   22838:	f883 6060 	strb.w	r6, [r3, #96]	; 0x60
   2283c:	b111      	cbz	r1, 22844 <FLASH_RxData+0x88>
   2283e:	2200      	movs	r2, #0
   22840:	f883 2060 	strb.w	r2, [r3, #96]	; 0x60
   22844:	4810      	ldr	r0, [pc, #64]	; (22888 <FLASH_RxData+0xcc>)
   22846:	2301      	movs	r3, #1
   22848:	1e61      	subs	r1, r4, #1
   2284a:	6083      	str	r3, [r0, #8]
   2284c:	194a      	adds	r2, r1, r5
   2284e:	e002      	b.n	22856 <FLASH_RxData+0x9a>
   22850:	6a83      	ldr	r3, [r0, #40]	; 0x28
   22852:	071b      	lsls	r3, r3, #28
   22854:	d408      	bmi.n	22868 <FLASH_RxData+0xac>
   22856:	4291      	cmp	r1, r2
   22858:	d1fa      	bne.n	22850 <FLASH_RxData+0x94>
   2285a:	2004      	movs	r0, #4
   2285c:	f7ff ff58 	bl	22710 <FLASH_WaitBusy>
   22860:	2000      	movs	r0, #0
   22862:	e8bd 41f0 	ldmia.w	sp!, {r4, r5, r6, r7, r8, lr}
   22866:	e797      	b.n	22798 <FLASH_UserModeEn>
   22868:	f890 3060 	ldrb.w	r3, [r0, #96]	; 0x60
   2286c:	f801 3f01 	strb.w	r3, [r1, #1]!
   22870:	e7f1      	b.n	22856 <FLASH_RxData+0x9a>
   22872:	0402      	lsls	r2, r0, #16
   22874:	f402 2270 	and.w	r2, r2, #983040	; 0xf0000
   22878:	4313      	orrs	r3, r2
   2287a:	e7c6      	b.n	2280a <FLASH_RxData+0x4e>
   2287c:	f8df 800c 	ldr.w	r8, [pc, #12]	; 2288c <FLASH_RxData+0xd0>
   22880:	f898 7008 	ldrb.w	r7, [r8, #8]
   22884:	e7a4      	b.n	227d0 <FLASH_RxData+0x14>
   22886:	bf00      	nop
   22888:	4100a000 	.word	0x4100a000
   2288c:	20004014 	.word	0x20004014

00022890 <FLASH_TxCmd>:
   22890:	e92d 41f0 	stmdb	sp!, {r4, r5, r6, r7, r8, lr}
   22894:	4606      	mov	r6, r0
   22896:	2001      	movs	r0, #1
   22898:	460d      	mov	r5, r1
   2289a:	4614      	mov	r4, r2
   2289c:	f7ff ff7c 	bl	22798 <FLASH_UserModeEn>
   228a0:	4b13      	ldr	r3, [pc, #76]	; (228f0 <FLASH_TxCmd+0x60>)
   228a2:	4a14      	ldr	r2, [pc, #80]	; (228f4 <FLASH_TxCmd+0x64>)
   228a4:	f8d3 8118 	ldr.w	r8, [r3, #280]	; 0x118
   228a8:	681f      	ldr	r7, [r3, #0]
   228aa:	6819      	ldr	r1, [r3, #0]
   228ac:	400a      	ands	r2, r1
   228ae:	601a      	str	r2, [r3, #0]
   228b0:	f8d3 2118 	ldr.w	r2, [r3, #280]	; 0x118
   228b4:	f422 2270 	bic.w	r2, r2, #983040	; 0xf0000
   228b8:	f8c3 2118 	str.w	r2, [r3, #280]	; 0x118
   228bc:	2200      	movs	r2, #0
   228be:	605a      	str	r2, [r3, #4]
   228c0:	f8c3 5130 	str.w	r5, [r3, #304]	; 0x130
   228c4:	f883 6060 	strb.w	r6, [r3, #96]	; 0x60
   228c8:	b13d      	cbz	r5, 228da <FLASH_TxCmd+0x4a>
   228ca:	4622      	mov	r2, r4
   228cc:	1960      	adds	r0, r4, r5
   228ce:	f812 1b01 	ldrb.w	r1, [r2], #1
   228d2:	4282      	cmp	r2, r0
   228d4:	f883 1060 	strb.w	r1, [r3, #96]	; 0x60
   228d8:	d1f9      	bne.n	228ce <FLASH_TxCmd+0x3e>
   228da:	4c05      	ldr	r4, [pc, #20]	; (228f0 <FLASH_TxCmd+0x60>)
   228dc:	2301      	movs	r3, #1
   228de:	2004      	movs	r0, #4
   228e0:	60a3      	str	r3, [r4, #8]
   228e2:	f7ff ff15 	bl	22710 <FLASH_WaitBusy>
   228e6:	f8c4 8118 	str.w	r8, [r4, #280]	; 0x118
   228ea:	6027      	str	r7, [r4, #0]
   228ec:	e8bd 81f0 	ldmia.w	sp!, {r4, r5, r6, r7, r8, pc}
   228f0:	4100a000 	.word	0x4100a000
   228f4:	ffc0fcff 	.word	0xffc0fcff

000228f8 <FLASH_WriteEn>:
   228f8:	b508      	push	{r3, lr}
   228fa:	2001      	movs	r0, #1
   228fc:	f7ff ff08 	bl	22710 <FLASH_WaitBusy>
   22900:	4b05      	ldr	r3, [pc, #20]	; (22918 <FLASH_WriteEn+0x20>)
   22902:	2200      	movs	r2, #0
   22904:	f893 0050 	ldrb.w	r0, [r3, #80]	; 0x50
   22908:	4611      	mov	r1, r2
   2290a:	f7ff ffc1 	bl	22890 <FLASH_TxCmd>
   2290e:	2003      	movs	r0, #3
   22910:	e8bd 4008 	ldmia.w	sp!, {r3, lr}
   22914:	f7ff befc 	b.w	22710 <FLASH_WaitBusy>
   22918:	20004014 	.word	0x20004014

0002291c <FLASH_TxData>:
   2291c:	e92d 41f0 	stmdb	sp!, {r4, r5, r6, r7, r8, lr}
   22920:	fa5f f880 	uxtb.w	r8, r0
   22924:	4605      	mov	r5, r0
   22926:	460c      	mov	r4, r1
   22928:	4616      	mov	r6, r2
   2292a:	eb08 0301 	add.w	r3, r8, r1
   2292e:	f5b3 7f80 	cmp.w	r3, #256	; 0x100
   22932:	d85e      	bhi.n	229f2 <FLASH_TxData+0xd6>
   22934:	f7ff ffe0 	bl	228f8 <FLASH_WriteEn>
   22938:	2001      	movs	r0, #1
   2293a:	f7ff ff2d 	bl	22798 <FLASH_UserModeEn>
   2293e:	4b31      	ldr	r3, [pc, #196]	; (22a04 <FLASH_TxData+0xe8>)
   22940:	4931      	ldr	r1, [pc, #196]	; (22a08 <FLASH_TxData+0xec>)
   22942:	681f      	ldr	r7, [r3, #0]
   22944:	f891 0064 	ldrb.w	r0, [r1, #100]	; 0x64
   22948:	4a30      	ldr	r2, [pc, #192]	; (22a0c <FLASH_TxData+0xf0>)
   2294a:	6819      	ldr	r1, [r3, #0]
   2294c:	2804      	cmp	r0, #4
   2294e:	ea02 0201 	and.w	r2, r2, r1
   22952:	601a      	str	r2, [r3, #0]
   22954:	ea4f 4200 	mov.w	r2, r0, lsl #16
   22958:	f8d3 1118 	ldr.w	r1, [r3, #280]	; 0x118
   2295c:	f402 2270 	and.w	r2, r2, #983040	; 0xf0000
   22960:	f421 2170 	bic.w	r1, r1, #983040	; 0xf0000
   22964:	ea42 0201 	orr.w	r2, r2, r1
   22968:	f8c3 2118 	str.w	r2, [r3, #280]	; 0x118
   2296c:	f04f 0200 	mov.w	r2, #0
   22970:	605a      	str	r2, [r3, #4]
   22972:	f024 427f 	bic.w	r2, r4, #4278190080	; 0xff000000
   22976:	f8c3 2130 	str.w	r2, [r3, #304]	; 0x130
   2297a:	f04f 0202 	mov.w	r2, #2
   2297e:	f883 2060 	strb.w	r2, [r3, #96]	; 0x60
   22982:	d102      	bne.n	2298a <FLASH_TxData+0x6e>
   22984:	0e2a      	lsrs	r2, r5, #24
   22986:	f883 2060 	strb.w	r2, [r3, #96]	; 0x60
   2298a:	491e      	ldr	r1, [pc, #120]	; (22a04 <FLASH_TxData+0xe8>)
   2298c:	f3c5 4307 	ubfx	r3, r5, #16, #8
   22990:	f3c5 2507 	ubfx	r5, r5, #8, #8
   22994:	f881 3060 	strb.w	r3, [r1, #96]	; 0x60
   22998:	f881 5060 	strb.w	r5, [r1, #96]	; 0x60
   2299c:	f881 8060 	strb.w	r8, [r1, #96]	; 0x60
   229a0:	b36c      	cbz	r4, 229fe <FLASH_TxData+0xe2>
   229a2:	1e70      	subs	r0, r6, #1
   229a4:	2300      	movs	r3, #0
   229a6:	e006      	b.n	229b6 <FLASH_TxData+0x9a>
   229a8:	3301      	adds	r3, #1
   229aa:	f810 5f01 	ldrb.w	r5, [r0, #1]!
   229ae:	429c      	cmp	r4, r3
   229b0:	f881 5060 	strb.w	r5, [r1, #96]	; 0x60
   229b4:	d002      	beq.n	229bc <FLASH_TxData+0xa0>
   229b6:	6a8d      	ldr	r5, [r1, #40]	; 0x28
   229b8:	07ad      	lsls	r5, r5, #30
   229ba:	d4f5      	bmi.n	229a8 <FLASH_TxData+0x8c>
   229bc:	2201      	movs	r2, #1
   229be:	4911      	ldr	r1, [pc, #68]	; (22a04 <FLASH_TxData+0xe8>)
   229c0:	608a      	str	r2, [r1, #8]
   229c2:	1e5a      	subs	r2, r3, #1
   229c4:	4416      	add	r6, r2
   229c6:	e002      	b.n	229ce <FLASH_TxData+0xb2>
   229c8:	6a8a      	ldr	r2, [r1, #40]	; 0x28
   229ca:	0792      	lsls	r2, r2, #30
   229cc:	d40b      	bmi.n	229e6 <FLASH_TxData+0xca>
   229ce:	42a3      	cmp	r3, r4
   229d0:	d3fa      	bcc.n	229c8 <FLASH_TxData+0xac>
   229d2:	2004      	movs	r0, #4
   229d4:	f7ff fe9c 	bl	22710 <FLASH_WaitBusy>
   229d8:	4b0a      	ldr	r3, [pc, #40]	; (22a04 <FLASH_TxData+0xe8>)
   229da:	2001      	movs	r0, #1
   229dc:	601f      	str	r7, [r3, #0]
   229de:	e8bd 41f0 	ldmia.w	sp!, {r4, r5, r6, r7, r8, lr}
   229e2:	f7ff be95 	b.w	22710 <FLASH_WaitBusy>
   229e6:	f816 2f01 	ldrb.w	r2, [r6, #1]!
   229ea:	3301      	adds	r3, #1
   229ec:	f881 2060 	strb.w	r2, [r1, #96]	; 0x60
   229f0:	e7ed      	b.n	229ce <FLASH_TxData+0xb2>
   229f2:	f240 1195 	movw	r1, #405	; 0x195
   229f6:	4806      	ldr	r0, [pc, #24]	; (22a10 <FLASH_TxData+0xf4>)
   229f8:	f7fd fbde 	bl	201b8 <io_assert_failed>
   229fc:	e79a      	b.n	22934 <FLASH_TxData+0x18>
   229fe:	4623      	mov	r3, r4
   22a00:	e7dc      	b.n	229bc <FLASH_TxData+0xa0>
   22a02:	bf00      	nop
   22a04:	4100a000 	.word	0x4100a000
   22a08:	20004014 	.word	0x20004014
   22a0c:	ffc0fcff 	.word	0xffc0fcff
   22a10:	000417fc 	.word	0x000417fc

00022a14 <FLASH_SetStatus>:
   22a14:	b510      	push	{r4, lr}
   22a16:	460c      	mov	r4, r1
   22a18:	b082      	sub	sp, #8
   22a1a:	9001      	str	r0, [sp, #4]
   22a1c:	9200      	str	r2, [sp, #0]
   22a1e:	f7ff ff6b 	bl	228f8 <FLASH_WriteEn>
   22a22:	b2e1      	uxtb	r1, r4
   22a24:	e9dd 2000 	ldrd	r2, r0, [sp]
   22a28:	f7ff ff32 	bl	22890 <FLASH_TxCmd>
   22a2c:	2001      	movs	r0, #1
   22a2e:	b002      	add	sp, #8
   22a30:	e8bd 4010 	ldmia.w	sp!, {r4, lr}
   22a34:	f7ff be6c 	b.w	22710 <FLASH_WaitBusy>

00022a38 <FLASH_Erase>:
   22a38:	2802      	cmp	r0, #2
   22a3a:	b5f0      	push	{r4, r5, r6, r7, lr}
   22a3c:	4605      	mov	r5, r0
   22a3e:	b083      	sub	sp, #12
   22a40:	460c      	mov	r4, r1
   22a42:	d834      	bhi.n	22aae <FLASH_Erase+0x76>
   22a44:	4f28      	ldr	r7, [pc, #160]	; (22ae8 <FLASH_Erase+0xb0>)
   22a46:	f3c4 4107 	ubfx	r1, r4, #16, #8
   22a4a:	f3c4 2207 	ubfx	r2, r4, #8, #8
   22a4e:	b2e3      	uxtb	r3, r4
   22a50:	f897 6064 	ldrb.w	r6, [r7, #100]	; 0x64
   22a54:	2e04      	cmp	r6, #4
   22a56:	d012      	beq.n	22a7e <FLASH_Erase+0x46>
   22a58:	2603      	movs	r6, #3
   22a5a:	f88d 1004 	strb.w	r1, [sp, #4]
   22a5e:	f88d 2005 	strb.w	r2, [sp, #5]
   22a62:	f88d 3006 	strb.w	r3, [sp, #6]
   22a66:	f7ff ff47 	bl	228f8 <FLASH_WriteEn>
   22a6a:	b1ad      	cbz	r5, 22a98 <FLASH_Erase+0x60>
   22a6c:	2d01      	cmp	r5, #1
   22a6e:	d02f      	beq.n	22ad0 <FLASH_Erase+0x98>
   22a70:	2d02      	cmp	r5, #2
   22a72:	d022      	beq.n	22aba <FLASH_Erase+0x82>
   22a74:	2001      	movs	r0, #1
   22a76:	f7ff fe4b 	bl	22710 <FLASH_WaitBusy>
   22a7a:	b003      	add	sp, #12
   22a7c:	bdf0      	pop	{r4, r5, r6, r7, pc}
   22a7e:	0e24      	lsrs	r4, r4, #24
   22a80:	f88d 1005 	strb.w	r1, [sp, #5]
   22a84:	f88d 2006 	strb.w	r2, [sp, #6]
   22a88:	f88d 4004 	strb.w	r4, [sp, #4]
   22a8c:	f88d 3007 	strb.w	r3, [sp, #7]
   22a90:	f7ff ff32 	bl	228f8 <FLASH_WriteEn>
   22a94:	2d00      	cmp	r5, #0
   22a96:	d1e9      	bne.n	22a6c <FLASH_Erase+0x34>
   22a98:	462a      	mov	r2, r5
   22a9a:	4629      	mov	r1, r5
   22a9c:	f897 0056 	ldrb.w	r0, [r7, #86]	; 0x56
   22aa0:	f7ff fef6 	bl	22890 <FLASH_TxCmd>
   22aa4:	2001      	movs	r0, #1
   22aa6:	f7ff fe33 	bl	22710 <FLASH_WaitBusy>
   22aaa:	b003      	add	sp, #12
   22aac:	bdf0      	pop	{r4, r5, r6, r7, pc}
   22aae:	f240 2127 	movw	r1, #551	; 0x227
   22ab2:	480e      	ldr	r0, [pc, #56]	; (22aec <FLASH_Erase+0xb4>)
   22ab4:	f7fd fb80 	bl	201b8 <io_assert_failed>
   22ab8:	e7c4      	b.n	22a44 <FLASH_Erase+0xc>
   22aba:	aa01      	add	r2, sp, #4
   22abc:	4631      	mov	r1, r6
   22abe:	f897 0058 	ldrb.w	r0, [r7, #88]	; 0x58
   22ac2:	f7ff fee5 	bl	22890 <FLASH_TxCmd>
   22ac6:	2001      	movs	r0, #1
   22ac8:	f7ff fe22 	bl	22710 <FLASH_WaitBusy>
   22acc:	b003      	add	sp, #12
   22ace:	bdf0      	pop	{r4, r5, r6, r7, pc}
   22ad0:	aa01      	add	r2, sp, #4
   22ad2:	4631      	mov	r1, r6
   22ad4:	f897 0057 	ldrb.w	r0, [r7, #87]	; 0x57
   22ad8:	f7ff feda 	bl	22890 <FLASH_TxCmd>
   22adc:	2001      	movs	r0, #1
   22ade:	f7ff fe17 	bl	22710 <FLASH_WaitBusy>
   22ae2:	b003      	add	sp, #12
   22ae4:	bdf0      	pop	{r4, r5, r6, r7, pc}
   22ae6:	bf00      	nop
   22ae8:	20004014 	.word	0x20004014
   22aec:	0004180c 	.word	0x0004180c

00022af0 <FLASH_DeepPowerDown>:
   22af0:	2801      	cmp	r0, #1
   22af2:	b508      	push	{r3, lr}
   22af4:	d00e      	beq.n	22b14 <FLASH_DeepPowerDown+0x24>
   22af6:	2200      	movs	r2, #0
   22af8:	4b0f      	ldr	r3, [pc, #60]	; (22b38 <FLASH_DeepPowerDown+0x48>)
   22afa:	4611      	mov	r1, r2
   22afc:	f893 0059 	ldrb.w	r0, [r3, #89]	; 0x59
   22b00:	f7ff fec6 	bl	22890 <FLASH_TxCmd>
   22b04:	2064      	movs	r0, #100	; 0x64
   22b06:	4b0d      	ldr	r3, [pc, #52]	; (22b3c <FLASH_DeepPowerDown+0x4c>)
   22b08:	4798      	blx	r3
   22b0a:	2001      	movs	r0, #1
   22b0c:	e8bd 4008 	ldmia.w	sp!, {r3, lr}
   22b10:	f7ff bdfe 	b.w	22710 <FLASH_WaitBusy>
   22b14:	4b0a      	ldr	r3, [pc, #40]	; (22b40 <FLASH_DeepPowerDown+0x50>)
   22b16:	4798      	blx	r3
   22b18:	b900      	cbnz	r0, 22b1c <FLASH_DeepPowerDown+0x2c>
   22b1a:	bd08      	pop	{r3, pc}
   22b1c:	f7ff feec 	bl	228f8 <FLASH_WriteEn>
   22b20:	4b05      	ldr	r3, [pc, #20]	; (22b38 <FLASH_DeepPowerDown+0x48>)
   22b22:	2200      	movs	r2, #0
   22b24:	f893 005a 	ldrb.w	r0, [r3, #90]	; 0x5a
   22b28:	4611      	mov	r1, r2
   22b2a:	f7ff feb1 	bl	22890 <FLASH_TxCmd>
   22b2e:	2000      	movs	r0, #0
   22b30:	e8bd 4008 	ldmia.w	sp!, {r3, lr}
   22b34:	e630      	b.n	22798 <FLASH_UserModeEn>
   22b36:	bf00      	nop
   22b38:	20004014 	.word	0x20004014
   22b3c:	00021c1d 	.word	0x00021c1d
   22b40:	00025eed 	.word	0x00025eed

00022b44 <FLASH_WaitBusy_Timeout>:
   22b44:	b5f0      	push	{r4, r5, r6, r7, lr}
   22b46:	2300      	movs	r3, #0
   22b48:	b083      	sub	sp, #12
   22b4a:	4f1e      	ldr	r7, [pc, #120]	; (22bc4 <FLASH_WaitBusy_Timeout+0x80>)
   22b4c:	4604      	mov	r4, r0
   22b4e:	461d      	mov	r5, r3
   22b50:	461a      	mov	r2, r3
   22b52:	4e1d      	ldr	r6, [pc, #116]	; (22bc8 <FLASH_WaitBusy_Timeout+0x84>)
   22b54:	f88d 3007 	strb.w	r3, [sp, #7]
   22b58:	e006      	b.n	22b68 <FLASH_WaitBusy_Timeout+0x24>
   22b5a:	2c03      	cmp	r4, #3
   22b5c:	ea4f 1353 	mov.w	r3, r3, lsr #5
   22b60:	d019      	beq.n	22b96 <FLASH_WaitBusy_Timeout+0x52>
   22b62:	42b5      	cmp	r5, r6
   22b64:	d815      	bhi.n	22b92 <FLASH_WaitBusy_Timeout+0x4e>
   22b66:	b9a3      	cbnz	r3, 22b92 <FLASH_WaitBusy_Timeout+0x4e>
   22b68:	2c01      	cmp	r4, #1
   22b6a:	fab2 f382 	clz	r3, r2
   22b6e:	d1f4      	bne.n	22b5a <FLASH_WaitBusy_Timeout+0x16>
   22b70:	f10d 0207 	add.w	r2, sp, #7
   22b74:	4621      	mov	r1, r4
   22b76:	f897 0052 	ldrb.w	r0, [r7, #82]	; 0x52
   22b7a:	3501      	adds	r5, #1
   22b7c:	f7ff fd88 	bl	22690 <FLASH_RxCmd>
   22b80:	693b      	ldr	r3, [r7, #16]
   22b82:	f89d 2007 	ldrb.w	r2, [sp, #7]
   22b86:	401a      	ands	r2, r3
   22b88:	bf0c      	ite	eq
   22b8a:	2301      	moveq	r3, #1
   22b8c:	2300      	movne	r3, #0
   22b8e:	42b5      	cmp	r5, r6
   22b90:	d9e9      	bls.n	22b66 <FLASH_WaitBusy_Timeout+0x22>
   22b92:	b003      	add	sp, #12
   22b94:	bdf0      	pop	{r4, r5, r6, r7, pc}
   22b96:	2101      	movs	r1, #1
   22b98:	f10d 0207 	add.w	r2, sp, #7
   22b9c:	f897 0052 	ldrb.w	r0, [r7, #82]	; 0x52
   22ba0:	440d      	add	r5, r1
   22ba2:	f7ff fd75 	bl	22690 <FLASH_RxCmd>
   22ba6:	f89d 1007 	ldrb.w	r1, [sp, #7]
   22baa:	2201      	movs	r2, #1
   22bac:	697b      	ldr	r3, [r7, #20]
   22bae:	400b      	ands	r3, r1
   22bb0:	d0d7      	beq.n	22b62 <FLASH_WaitBusy_Timeout+0x1e>
   22bb2:	693b      	ldr	r3, [r7, #16]
   22bb4:	4019      	ands	r1, r3
   22bb6:	2900      	cmp	r1, #0
   22bb8:	bf06      	itte	eq
   22bba:	2200      	moveq	r2, #0
   22bbc:	2301      	moveq	r3, #1
   22bbe:	2300      	movne	r3, #0
   22bc0:	e7cf      	b.n	22b62 <FLASH_WaitBusy_Timeout+0x1e>
   22bc2:	bf00      	nop
   22bc4:	20004014 	.word	0x20004014
   22bc8:	001312d0 	.word	0x001312d0

00022bcc <FLASH_WriteEn_Timeout>:
   22bcc:	b508      	push	{r3, lr}
   22bce:	2001      	movs	r0, #1
   22bd0:	f7ff ffb8 	bl	22b44 <FLASH_WaitBusy_Timeout>
   22bd4:	4b05      	ldr	r3, [pc, #20]	; (22bec <FLASH_WriteEn_Timeout+0x20>)
   22bd6:	2200      	movs	r2, #0
   22bd8:	f893 0050 	ldrb.w	r0, [r3, #80]	; 0x50
   22bdc:	4611      	mov	r1, r2
   22bde:	f7ff fe57 	bl	22890 <FLASH_TxCmd>
   22be2:	2003      	movs	r0, #3
   22be4:	e8bd 4008 	ldmia.w	sp!, {r3, lr}
   22be8:	f7ff bfac 	b.w	22b44 <FLASH_WaitBusy_Timeout>
   22bec:	20004014 	.word	0x20004014

00022bf0 <FLASH_SetStatusBits>:
   22bf0:	b5f0      	push	{r4, r5, r6, r7, lr}
   22bf2:	4c31      	ldr	r4, [pc, #196]	; (22cb8 <FLASH_SetStatusBits+0xc8>)
   22bf4:	b083      	sub	sp, #12
   22bf6:	460e      	mov	r6, r1
   22bf8:	4605      	mov	r5, r0
   22bfa:	aa01      	add	r2, sp, #4
   22bfc:	0a07      	lsrs	r7, r0, #8
   22bfe:	2101      	movs	r1, #1
   22c00:	f894 0052 	ldrb.w	r0, [r4, #82]	; 0x52
   22c04:	f7ff fd44 	bl	22690 <FLASH_RxCmd>
   22c08:	2e01      	cmp	r6, #1
   22c0a:	f89d 0004 	ldrb.w	r0, [sp, #4]
   22c0e:	d03e      	beq.n	22c8e <FLASH_SetStatusBits+0x9e>
   22c10:	ea20 0505 	bic.w	r5, r0, r5
   22c14:	69a3      	ldr	r3, [r4, #24]
   22c16:	f88d 5004 	strb.w	r5, [sp, #4]
   22c1a:	bb4b      	cbnz	r3, 22c70 <FLASH_SetStatusBits+0x80>
   22c1c:	2501      	movs	r5, #1
   22c1e:	f894 3055 	ldrb.w	r3, [r4, #85]	; 0x55
   22c22:	b963      	cbnz	r3, 22c3e <FLASH_SetStatusBits+0x4e>
   22c24:	f7ff fe68 	bl	228f8 <FLASH_WriteEn>
   22c28:	aa01      	add	r2, sp, #4
   22c2a:	4629      	mov	r1, r5
   22c2c:	f894 0054 	ldrb.w	r0, [r4, #84]	; 0x54
   22c30:	f7ff fe2e 	bl	22890 <FLASH_TxCmd>
   22c34:	2001      	movs	r0, #1
   22c36:	f7ff fd6b 	bl	22710 <FLASH_WaitBusy>
   22c3a:	b003      	add	sp, #12
   22c3c:	bdf0      	pop	{r4, r5, r6, r7, pc}
   22c3e:	f7ff fe5b 	bl	228f8 <FLASH_WriteEn>
   22c42:	aa01      	add	r2, sp, #4
   22c44:	2101      	movs	r1, #1
   22c46:	f894 0054 	ldrb.w	r0, [r4, #84]	; 0x54
   22c4a:	f7ff fe21 	bl	22890 <FLASH_TxCmd>
   22c4e:	2001      	movs	r0, #1
   22c50:	f7ff fd5e 	bl	22710 <FLASH_WaitBusy>
   22c54:	f7ff fe50 	bl	228f8 <FLASH_WriteEn>
   22c58:	f894 0055 	ldrb.w	r0, [r4, #85]	; 0x55
   22c5c:	f10d 0205 	add.w	r2, sp, #5
   22c60:	2101      	movs	r1, #1
   22c62:	f7ff fe15 	bl	22890 <FLASH_TxCmd>
   22c66:	2001      	movs	r0, #1
   22c68:	f7ff fd52 	bl	22710 <FLASH_WaitBusy>
   22c6c:	b003      	add	sp, #12
   22c6e:	bdf0      	pop	{r4, r5, r6, r7, pc}
   22c70:	f10d 0205 	add.w	r2, sp, #5
   22c74:	2101      	movs	r1, #1
   22c76:	f894 0053 	ldrb.w	r0, [r4, #83]	; 0x53
   22c7a:	2502      	movs	r5, #2
   22c7c:	f7ff fd08 	bl	22690 <FLASH_RxCmd>
   22c80:	f89d 3005 	ldrb.w	r3, [sp, #5]
   22c84:	ea23 0707 	bic.w	r7, r3, r7
   22c88:	f88d 7005 	strb.w	r7, [sp, #5]
   22c8c:	e7c7      	b.n	22c1e <FLASH_SetStatusBits+0x2e>
   22c8e:	4305      	orrs	r5, r0
   22c90:	69a3      	ldr	r3, [r4, #24]
   22c92:	f88d 5004 	strb.w	r5, [sp, #4]
   22c96:	2b00      	cmp	r3, #0
   22c98:	d0c0      	beq.n	22c1c <FLASH_SetStatusBits+0x2c>
   22c9a:	f10d 0205 	add.w	r2, sp, #5
   22c9e:	4631      	mov	r1, r6
   22ca0:	f894 0053 	ldrb.w	r0, [r4, #83]	; 0x53
   22ca4:	2502      	movs	r5, #2
   22ca6:	f7ff fcf3 	bl	22690 <FLASH_RxCmd>
   22caa:	f89d 3005 	ldrb.w	r3, [sp, #5]
   22cae:	431f      	orrs	r7, r3
   22cb0:	f88d 7005 	strb.w	r7, [sp, #5]
   22cb4:	e7b3      	b.n	22c1e <FLASH_SetStatusBits+0x2e>
   22cb6:	bf00      	nop
   22cb8:	20004014 	.word	0x20004014

00022cbc <FLASH_StructInit_Micron>:
   22cbc:	2103      	movs	r1, #3
   22cbe:	2300      	movs	r3, #0
   22cc0:	2201      	movs	r2, #1
   22cc2:	6001      	str	r1, [r0, #0]
   22cc4:	f8a0 1064 	strh.w	r1, [r0, #100]	; 0x64
   22cc8:	2102      	movs	r1, #2
   22cca:	7142      	strb	r2, [r0, #5]
   22ccc:	f880 305d 	strb.w	r3, [r0, #93]	; 0x5d
   22cd0:	60c3      	str	r3, [r0, #12]
   22cd2:	6102      	str	r2, [r0, #16]
   22cd4:	22bb      	movs	r2, #187	; 0xbb
   22cd6:	63c1      	str	r1, [r0, #60]	; 0x3c
   22cd8:	b410      	push	{r4}
   22cda:	f44f 64a0 	mov.w	r4, #1280	; 0x500
   22cde:	f8a0 405e 	strh.w	r4, [r0, #94]	; 0x5e
   22ce2:	4c11      	ldr	r4, [pc, #68]	; (22d28 <FLASH_StructInit_Micron+0x6c>)
   22ce4:	e9c0 1305 	strd	r1, r3, [r0, #20]
   22ce8:	6604      	str	r4, [r0, #96]	; 0x60
   22cea:	236b      	movs	r3, #107	; 0x6b
   22cec:	243b      	movs	r4, #59	; 0x3b
   22cee:	2108      	movs	r1, #8
   22cf0:	6243      	str	r3, [r0, #36]	; 0x24
   22cf2:	23eb      	movs	r3, #235	; 0xeb
   22cf4:	e9c0 4207 	strd	r4, r2, [r0, #28]
   22cf8:	2404      	movs	r4, #4
   22cfa:	6283      	str	r3, [r0, #40]	; 0x28
   22cfc:	23a2      	movs	r3, #162	; 0xa2
   22cfe:	e9c0 4110 	strd	r4, r1, [r0, #64]	; 0x40
   22d02:	2110      	movs	r1, #16
   22d04:	4c09      	ldr	r4, [pc, #36]	; (22d2c <FLASH_StructInit_Micron+0x70>)
   22d06:	62c3      	str	r3, [r0, #44]	; 0x2c
   22d08:	23d2      	movs	r3, #210	; 0xd2
   22d0a:	e9c0 1212 	strd	r1, r2, [r0, #72]	; 0x48
   22d0e:	4a08      	ldr	r2, [pc, #32]	; (22d30 <FLASH_StructInit_Micron+0x74>)
   22d10:	4908      	ldr	r1, [pc, #32]	; (22d34 <FLASH_StructInit_Micron+0x78>)
   22d12:	6303      	str	r3, [r0, #48]	; 0x30
   22d14:	2312      	movs	r3, #18
   22d16:	6581      	str	r1, [r0, #88]	; 0x58
   22d18:	e9c0 4214 	strd	r4, r2, [r0, #80]	; 0x50
   22d1c:	2232      	movs	r2, #50	; 0x32
   22d1e:	f85d 4b04 	ldr.w	r4, [sp], #4
   22d22:	e9c0 230d 	strd	r2, r3, [r0, #52]	; 0x34
   22d26:	4770      	bx	lr
   22d28:	00090905 	.word	0x00090905
   22d2c:	00059f06 	.word	0x00059f06
   22d30:	d8c70001 	.word	0xd8c70001
   22d34:	00b9ab20 	.word	0x00b9ab20

00022d38 <FLASH_StructInit_MXIC>:
   22d38:	2201      	movs	r2, #1
   22d3a:	2300      	movs	r3, #0
   22d3c:	2102      	movs	r1, #2
   22d3e:	6002      	str	r2, [r0, #0]
   22d40:	7142      	strb	r2, [r0, #5]
   22d42:	6102      	str	r2, [r0, #16]
   22d44:	223b      	movs	r2, #59	; 0x3b
   22d46:	f880 305d 	strb.w	r3, [r0, #93]	; 0x5d
   22d4a:	62c3      	str	r3, [r0, #44]	; 0x2c
   22d4c:	6141      	str	r1, [r0, #20]
   22d4e:	63c1      	str	r1, [r0, #60]	; 0x3c
   22d50:	2104      	movs	r1, #4
   22d52:	b410      	push	{r4}
   22d54:	e9c0 3206 	strd	r3, r2, [r0, #24]
   22d58:	f44f 6400 	mov.w	r4, #2048	; 0x800
   22d5c:	22bb      	movs	r2, #187	; 0xbb
   22d5e:	6401      	str	r1, [r0, #64]	; 0x40
   22d60:	2110      	movs	r1, #16
   22d62:	f8a0 405e 	strh.w	r4, [r0, #94]	; 0x5e
   22d66:	4c10      	ldr	r4, [pc, #64]	; (22da8 <FLASH_StructInit_MXIC+0x70>)
   22d68:	6202      	str	r2, [r0, #32]
   22d6a:	6604      	str	r4, [r0, #96]	; 0x60
   22d6c:	2403      	movs	r4, #3
   22d6e:	64c2      	str	r2, [r0, #76]	; 0x4c
   22d70:	f8a0 4064 	strh.w	r4, [r0, #100]	; 0x64
   22d74:	2440      	movs	r4, #64	; 0x40
   22d76:	4a0d      	ldr	r2, [pc, #52]	; (22dac <FLASH_StructInit_MXIC+0x74>)
   22d78:	60c4      	str	r4, [r0, #12]
   22d7a:	2408      	movs	r4, #8
   22d7c:	e9c0 330c 	strd	r3, r3, [r0, #48]	; 0x30
   22d80:	2338      	movs	r3, #56	; 0x38
   22d82:	6383      	str	r3, [r0, #56]	; 0x38
   22d84:	4b0a      	ldr	r3, [pc, #40]	; (22db0 <FLASH_StructInit_MXIC+0x78>)
   22d86:	6503      	str	r3, [r0, #80]	; 0x50
   22d88:	f503 0334 	add.w	r3, r3, #11796480	; 0xb40000
   22d8c:	f603 431a 	addw	r3, r3, #3098	; 0xc1a
   22d90:	e9c0 2315 	strd	r2, r3, [r0, #84]	; 0x54
   22d94:	226b      	movs	r2, #107	; 0x6b
   22d96:	23eb      	movs	r3, #235	; 0xeb
   22d98:	e9c0 4111 	strd	r4, r1, [r0, #68]	; 0x44
   22d9c:	e9c0 2309 	strd	r2, r3, [r0, #36]	; 0x24
   22da0:	f85d 4b04 	ldr.w	r4, [sp], #4
   22da4:	4770      	bx	lr
   22da6:	bf00      	nop
   22da8:	00060804 	.word	0x00060804
   22dac:	d8600001 	.word	0xd8600001
   22db0:	00059f06 	.word	0x00059f06

00022db4 <FLASH_StructInit_GD>:
   22db4:	b410      	push	{r4}
   22db6:	2405      	movs	r4, #5
   22db8:	2201      	movs	r2, #1
   22dba:	2102      	movs	r1, #2
   22dbc:	2300      	movs	r3, #0
   22dbe:	6004      	str	r4, [r0, #0]
   22dc0:	f44f 6400 	mov.w	r4, #2048	; 0x800
   22dc4:	7142      	strb	r2, [r0, #5]
   22dc6:	f8a0 405e 	strh.w	r4, [r0, #94]	; 0x5e
   22dca:	4c15      	ldr	r4, [pc, #84]	; (22e20 <FLASH_StructInit_GD+0x6c>)
   22dcc:	6182      	str	r2, [r0, #24]
   22dce:	6604      	str	r4, [r0, #96]	; 0x60
   22dd0:	2403      	movs	r4, #3
   22dd2:	f880 305d 	strb.w	r3, [r0, #93]	; 0x5d
   22dd6:	63c1      	str	r1, [r0, #60]	; 0x3c
   22dd8:	f8a0 4064 	strh.w	r4, [r0, #100]	; 0x64
   22ddc:	f44f 7400 	mov.w	r4, #512	; 0x200
   22de0:	62c3      	str	r3, [r0, #44]	; 0x2c
   22de2:	60c4      	str	r4, [r0, #12]
   22de4:	2432      	movs	r4, #50	; 0x32
   22de6:	e9c0 2104 	strd	r2, r1, [r0, #16]
   22dea:	223b      	movs	r2, #59	; 0x3b
   22dec:	2104      	movs	r1, #4
   22dee:	6384      	str	r4, [r0, #56]	; 0x38
   22df0:	61c2      	str	r2, [r0, #28]
   22df2:	22bb      	movs	r2, #187	; 0xbb
   22df4:	6401      	str	r1, [r0, #64]	; 0x40
   22df6:	2108      	movs	r1, #8
   22df8:	4c0a      	ldr	r4, [pc, #40]	; (22e24 <FLASH_StructInit_GD+0x70>)
   22dfa:	6202      	str	r2, [r0, #32]
   22dfc:	6441      	str	r1, [r0, #68]	; 0x44
   22dfe:	490a      	ldr	r1, [pc, #40]	; (22e28 <FLASH_StructInit_GD+0x74>)
   22e00:	e9c0 330c 	strd	r3, r3, [r0, #48]	; 0x30
   22e04:	2310      	movs	r3, #16
   22e06:	e9c0 3212 	strd	r3, r2, [r0, #72]	; 0x48
   22e0a:	4b08      	ldr	r3, [pc, #32]	; (22e2c <FLASH_StructInit_GD+0x78>)
   22e0c:	226b      	movs	r2, #107	; 0x6b
   22e0e:	6583      	str	r3, [r0, #88]	; 0x58
   22e10:	23eb      	movs	r3, #235	; 0xeb
   22e12:	e9c0 4114 	strd	r4, r1, [r0, #80]	; 0x50
   22e16:	e9c0 2309 	strd	r2, r3, [r0, #36]	; 0x24
   22e1a:	f85d 4b04 	ldr.w	r4, [sp], #4
   22e1e:	4770      	bx	lr
   22e20:	00060804 	.word	0x00060804
   22e24:	35059f06 	.word	0x35059f06
   22e28:	d8600001 	.word	0xd8600001
   22e2c:	00b9ab20 	.word	0x00b9ab20

00022e30 <FLASH_StructInit>:
   22e30:	2300      	movs	r3, #0
   22e32:	2102      	movs	r1, #2
   22e34:	2201      	movs	r2, #1
   22e36:	f880 305d 	strb.w	r3, [r0, #93]	; 0x5d
   22e3a:	7142      	strb	r2, [r0, #5]
   22e3c:	6182      	str	r2, [r0, #24]
   22e3e:	62c3      	str	r3, [r0, #44]	; 0x2c
   22e40:	6001      	str	r1, [r0, #0]
   22e42:	63c1      	str	r1, [r0, #60]	; 0x3c
   22e44:	b410      	push	{r4}
   22e46:	f44f 6400 	mov.w	r4, #2048	; 0x800
   22e4a:	e9c0 2104 	strd	r2, r1, [r0, #16]
   22e4e:	f8a0 405e 	strh.w	r4, [r0, #94]	; 0x5e
   22e52:	223b      	movs	r2, #59	; 0x3b
   22e54:	4c11      	ldr	r4, [pc, #68]	; (22e9c <FLASH_StructInit+0x6c>)
   22e56:	2104      	movs	r1, #4
   22e58:	61c2      	str	r2, [r0, #28]
   22e5a:	22bb      	movs	r2, #187	; 0xbb
   22e5c:	6604      	str	r4, [r0, #96]	; 0x60
   22e5e:	2403      	movs	r4, #3
   22e60:	6202      	str	r2, [r0, #32]
   22e62:	f8a0 4064 	strh.w	r4, [r0, #100]	; 0x64
   22e66:	f44f 7400 	mov.w	r4, #512	; 0x200
   22e6a:	64c2      	str	r2, [r0, #76]	; 0x4c
   22e6c:	4a0c      	ldr	r2, [pc, #48]	; (22ea0 <FLASH_StructInit+0x70>)
   22e6e:	60c4      	str	r4, [r0, #12]
   22e70:	2408      	movs	r4, #8
   22e72:	6401      	str	r1, [r0, #64]	; 0x40
   22e74:	2110      	movs	r1, #16
   22e76:	e9c0 330c 	strd	r3, r3, [r0, #48]	; 0x30
   22e7a:	2332      	movs	r3, #50	; 0x32
   22e7c:	6383      	str	r3, [r0, #56]	; 0x38
   22e7e:	4b09      	ldr	r3, [pc, #36]	; (22ea4 <FLASH_StructInit+0x74>)
   22e80:	6503      	str	r3, [r0, #80]	; 0x50
   22e82:	4b09      	ldr	r3, [pc, #36]	; (22ea8 <FLASH_StructInit+0x78>)
   22e84:	e9c0 2315 	strd	r2, r3, [r0, #84]	; 0x54
   22e88:	226b      	movs	r2, #107	; 0x6b
   22e8a:	23eb      	movs	r3, #235	; 0xeb
   22e8c:	e9c0 4111 	strd	r4, r1, [r0, #68]	; 0x44
   22e90:	e9c0 2309 	strd	r2, r3, [r0, #36]	; 0x24
   22e94:	f85d 4b04 	ldr.w	r4, [sp], #4
   22e98:	4770      	bx	lr
   22e9a:	bf00      	nop
   22e9c:	00060804 	.word	0x00060804
   22ea0:	d8600001 	.word	0xd8600001
   22ea4:	35059f06 	.word	0x35059f06
   22ea8:	00b9ab20 	.word	0x00b9ab20

00022eac <FLASH_Init>:
   22eac:	b510      	push	{r4, lr}
   22eae:	4604      	mov	r4, r0
   22eb0:	f7ff fb12 	bl	224d8 <FLASH_Config.constprop.0>
   22eb4:	4803      	ldr	r0, [pc, #12]	; (22ec4 <FLASH_Init+0x18>)
   22eb6:	4621      	mov	r1, r4
   22eb8:	7104      	strb	r4, [r0, #4]
   22eba:	f7ff fb5d 	bl	22578 <FLASH_SetSpiMode>
   22ebe:	2001      	movs	r0, #1
   22ec0:	bd10      	pop	{r4, pc}
   22ec2:	bf00      	nop
   22ec4:	20004014 	.word	0x20004014

00022ec8 <FLASH_Wait_Boot_Finish>:
   22ec8:	4a02      	ldr	r2, [pc, #8]	; (22ed4 <FLASH_Wait_Boot_Finish+0xc>)
   22eca:	6a93      	ldr	r3, [r2, #40]	; 0x28
   22ecc:	061b      	lsls	r3, r3, #24
   22ece:	d5fc      	bpl.n	22eca <FLASH_Wait_Boot_Finish+0x2>
   22ed0:	4770      	bx	lr
   22ed2:	bf00      	nop
   22ed4:	4100a000 	.word	0x4100a000

00022ed8 <FLASH_CalibrationPLLSel>:
   22ed8:	4b01      	ldr	r3, [pc, #4]	; (22ee0 <FLASH_CalibrationPLLSel+0x8>)
   22eda:	7018      	strb	r0, [r3, #0]
   22edc:	4770      	bx	lr
   22ede:	bf00      	nop
   22ee0:	200046e0 	.word	0x200046e0

00022ee4 <FLASH_CalibrationPLL_GetSrc>:
   22ee4:	4b01      	ldr	r3, [pc, #4]	; (22eec <FLASH_CalibrationPLL_GetSrc+0x8>)
   22ee6:	7818      	ldrb	r0, [r3, #0]
   22ee8:	4770      	bx	lr
   22eea:	bf00      	nop
   22eec:	200046e0 	.word	0x200046e0

00022ef0 <FLASH_Calibration_PSPLL_Open>:
   22ef0:	4b10      	ldr	r3, [pc, #64]	; (22f34 <FLASH_Calibration_PSPLL_Open+0x44>)
   22ef2:	200a      	movs	r0, #10
   22ef4:	4a10      	ldr	r2, [pc, #64]	; (22f38 <FLASH_Calibration_PSPLL_Open+0x48>)
   22ef6:	b510      	push	{r4, lr}
   22ef8:	781b      	ldrb	r3, [r3, #0]
   22efa:	4c10      	ldr	r4, [pc, #64]	; (22f3c <FLASH_Calibration_PSPLL_Open+0x4c>)
   22efc:	b163      	cbz	r3, 22f18 <FLASH_Calibration_PSPLL_Open+0x28>
   22efe:	6e63      	ldr	r3, [r4, #100]	; 0x64
   22f00:	f423 4380 	bic.w	r3, r3, #16384	; 0x4000
   22f04:	f443 4180 	orr.w	r1, r3, #16384	; 0x4000
   22f08:	6663      	str	r3, [r4, #100]	; 0x64
   22f0a:	6661      	str	r1, [r4, #100]	; 0x64
   22f0c:	4790      	blx	r2
   22f0e:	6e63      	ldr	r3, [r4, #100]	; 0x64
   22f10:	f043 0318 	orr.w	r3, r3, #24
   22f14:	6663      	str	r3, [r4, #100]	; 0x64
   22f16:	bd10      	pop	{r4, pc}
   22f18:	6ea3      	ldr	r3, [r4, #104]	; 0x68
   22f1a:	f423 4380 	bic.w	r3, r3, #16384	; 0x4000
   22f1e:	f443 4180 	orr.w	r1, r3, #16384	; 0x4000
   22f22:	66a3      	str	r3, [r4, #104]	; 0x68
   22f24:	66a1      	str	r1, [r4, #104]	; 0x68
   22f26:	4790      	blx	r2
   22f28:	6ea3      	ldr	r3, [r4, #104]	; 0x68
   22f2a:	f043 0318 	orr.w	r3, r3, #24
   22f2e:	66a3      	str	r3, [r4, #104]	; 0x68
   22f30:	bd10      	pop	{r4, pc}
   22f32:	bf00      	nop
   22f34:	200046e0 	.word	0x200046e0
   22f38:	00021c1d 	.word	0x00021c1d
   22f3c:	4100c400 	.word	0x4100c400

00022f40 <FLASH_Calibration_PSPLL_Close>:
   22f40:	4b0b      	ldr	r3, [pc, #44]	; (22f70 <FLASH_Calibration_PSPLL_Close+0x30>)
   22f42:	781b      	ldrb	r3, [r3, #0]
   22f44:	b14b      	cbz	r3, 22f5a <FLASH_Calibration_PSPLL_Close+0x1a>
   22f46:	4b0b      	ldr	r3, [pc, #44]	; (22f74 <FLASH_Calibration_PSPLL_Close+0x34>)
   22f48:	6e5a      	ldr	r2, [r3, #100]	; 0x64
   22f4a:	f022 0218 	bic.w	r2, r2, #24
   22f4e:	665a      	str	r2, [r3, #100]	; 0x64
   22f50:	6e5a      	ldr	r2, [r3, #100]	; 0x64
   22f52:	f422 4280 	bic.w	r2, r2, #16384	; 0x4000
   22f56:	665a      	str	r2, [r3, #100]	; 0x64
   22f58:	4770      	bx	lr
   22f5a:	4b06      	ldr	r3, [pc, #24]	; (22f74 <FLASH_Calibration_PSPLL_Close+0x34>)
   22f5c:	6e9a      	ldr	r2, [r3, #104]	; 0x68
   22f5e:	f022 0218 	bic.w	r2, r2, #24
   22f62:	669a      	str	r2, [r3, #104]	; 0x68
   22f64:	6e9a      	ldr	r2, [r3, #104]	; 0x68
   22f66:	f422 4280 	bic.w	r2, r2, #16384	; 0x4000
   22f6a:	669a      	str	r2, [r3, #104]	; 0x68
   22f6c:	4770      	bx	lr
   22f6e:	bf00      	nop
   22f70:	200046e0 	.word	0x200046e0
   22f74:	4100c400 	.word	0x4100c400

00022f78 <FLASH_CalibrationPLLPSCmd>:
   22f78:	4b0c      	ldr	r3, [pc, #48]	; (22fac <FLASH_CalibrationPLLPSCmd+0x34>)
   22f7a:	781b      	ldrb	r3, [r3, #0]
   22f7c:	b153      	cbz	r3, 22f94 <FLASH_CalibrationPLLPSCmd+0x1c>
   22f7e:	4b0c      	ldr	r3, [pc, #48]	; (22fb0 <FLASH_CalibrationPLLPSCmd+0x38>)
   22f80:	2801      	cmp	r0, #1
   22f82:	4a0b      	ldr	r2, [pc, #44]	; (22fb0 <FLASH_CalibrationPLLPSCmd+0x38>)
   22f84:	6e5b      	ldr	r3, [r3, #100]	; 0x64
   22f86:	bf0c      	ite	eq
   22f88:	f043 0310 	orreq.w	r3, r3, #16
   22f8c:	f023 0310 	bicne.w	r3, r3, #16
   22f90:	6653      	str	r3, [r2, #100]	; 0x64
   22f92:	4770      	bx	lr
   22f94:	4b06      	ldr	r3, [pc, #24]	; (22fb0 <FLASH_CalibrationPLLPSCmd+0x38>)
   22f96:	2801      	cmp	r0, #1
   22f98:	4a05      	ldr	r2, [pc, #20]	; (22fb0 <FLASH_CalibrationPLLPSCmd+0x38>)
   22f9a:	6e9b      	ldr	r3, [r3, #104]	; 0x68
   22f9c:	bf0c      	ite	eq
   22f9e:	f043 0310 	orreq.w	r3, r3, #16
   22fa2:	f023 0310 	bicne.w	r3, r3, #16
   22fa6:	6693      	str	r3, [r2, #104]	; 0x68
   22fa8:	4770      	bx	lr
   22faa:	bf00      	nop
   22fac:	200046e0 	.word	0x200046e0
   22fb0:	4100c400 	.word	0x4100c400

00022fb4 <FLASH_CalibrationPLLPS_Shift>:
   22fb4:	4b08      	ldr	r3, [pc, #32]	; (22fd8 <FLASH_CalibrationPLLPS_Shift+0x24>)
   22fb6:	f000 0007 	and.w	r0, r0, #7
   22fba:	4a08      	ldr	r2, [pc, #32]	; (22fdc <FLASH_CalibrationPLLPS_Shift+0x28>)
   22fbc:	781b      	ldrb	r3, [r3, #0]
   22fbe:	b12b      	cbz	r3, 22fcc <FLASH_CalibrationPLLPS_Shift+0x18>
   22fc0:	6e53      	ldr	r3, [r2, #100]	; 0x64
   22fc2:	f023 0307 	bic.w	r3, r3, #7
   22fc6:	4318      	orrs	r0, r3
   22fc8:	6650      	str	r0, [r2, #100]	; 0x64
   22fca:	4770      	bx	lr
   22fcc:	6e93      	ldr	r3, [r2, #104]	; 0x68
   22fce:	f023 0307 	bic.w	r3, r3, #7
   22fd2:	4318      	orrs	r0, r3
   22fd4:	6690      	str	r0, [r2, #104]	; 0x68
   22fd6:	4770      	bx	lr
   22fd8:	200046e0 	.word	0x200046e0
   22fdc:	4100c400 	.word	0x4100c400

00022fe0 <FLASH_PLLInit_ClockDiv>:
   22fe0:	2200      	movs	r2, #0
   22fe2:	f44f 6180 	mov.w	r1, #1024	; 0x400
   22fe6:	b538      	push	{r3, r4, r5, lr}
   22fe8:	4604      	mov	r4, r0
   22fea:	4d1a      	ldr	r5, [pc, #104]	; (23054 <FLASH_PLLInit_ClockDiv+0x74>)
   22fec:	4610      	mov	r0, r2
   22fee:	47a8      	blx	r5
   22ff0:	4a19      	ldr	r2, [pc, #100]	; (23058 <FLASH_PLLInit_ClockDiv+0x78>)
   22ff2:	f8d2 325c 	ldr.w	r3, [r2, #604]	; 0x25c
   22ff6:	f423 5300 	bic.w	r3, r3, #8192	; 0x2000
   22ffa:	f8c2 325c 	str.w	r3, [r2, #604]	; 0x25c
   22ffe:	f7ff ff77 	bl	22ef0 <FLASH_Calibration_PSPLL_Open>
   23002:	4b16      	ldr	r3, [pc, #88]	; (2305c <FLASH_PLLInit_ClockDiv+0x7c>)
   23004:	7818      	ldrb	r0, [r3, #0]
   23006:	b310      	cbz	r0, 2304e <FLASH_PLLInit_ClockDiv+0x6e>
   23008:	2001      	movs	r0, #1
   2300a:	4b15      	ldr	r3, [pc, #84]	; (23060 <FLASH_PLLInit_ClockDiv+0x80>)
   2300c:	4798      	blx	r3
   2300e:	4912      	ldr	r1, [pc, #72]	; (23058 <FLASH_PLLInit_ClockDiv+0x78>)
   23010:	0224      	lsls	r4, r4, #8
   23012:	230a      	movs	r3, #10
   23014:	f8d1 225c 	ldr.w	r2, [r1, #604]	; 0x25c
   23018:	f404 6470 	and.w	r4, r4, #3840	; 0xf00
   2301c:	f422 6270 	bic.w	r2, r2, #3840	; 0xf00
   23020:	4314      	orrs	r4, r2
   23022:	f8c1 425c 	str.w	r4, [r1, #604]	; 0x25c
   23026:	f8d1 225c 	ldr.w	r2, [r1, #604]	; 0x25c
   2302a:	f442 5200 	orr.w	r2, r2, #8192	; 0x2000
   2302e:	f8c1 225c 	str.w	r2, [r1, #604]	; 0x25c
   23032:	e001      	b.n	23038 <FLASH_PLLInit_ClockDiv+0x58>
   23034:	07d2      	lsls	r2, r2, #31
   23036:	d403      	bmi.n	23040 <FLASH_PLLInit_ClockDiv+0x60>
   23038:	3b01      	subs	r3, #1
   2303a:	f8d1 225c 	ldr.w	r2, [r1, #604]	; 0x25c
   2303e:	d1f9      	bne.n	23034 <FLASH_PLLInit_ClockDiv+0x54>
   23040:	f44f 6180 	mov.w	r1, #1024	; 0x400
   23044:	2201      	movs	r2, #1
   23046:	4608      	mov	r0, r1
   23048:	47a8      	blx	r5
   2304a:	2001      	movs	r0, #1
   2304c:	bd38      	pop	{r3, r4, r5, pc}
   2304e:	4b04      	ldr	r3, [pc, #16]	; (23060 <FLASH_PLLInit_ClockDiv+0x80>)
   23050:	4798      	blx	r3
   23052:	e7dc      	b.n	2300e <FLASH_PLLInit_ClockDiv+0x2e>
   23054:	00024d01 	.word	0x00024d01
   23058:	4100c000 	.word	0x4100c000
   2305c:	200046e0 	.word	0x200046e0
   23060:	00024e1d 	.word	0x00024e1d

00023064 <FLASH_CalibrationPhase>:
   23064:	2200      	movs	r2, #0
   23066:	b5f8      	push	{r3, r4, r5, r6, r7, lr}
   23068:	4c20      	ldr	r4, [pc, #128]	; (230ec <FLASH_CalibrationPhase+0x88>)
   2306a:	4605      	mov	r5, r0
   2306c:	460f      	mov	r7, r1
   2306e:	4610      	mov	r0, r2
   23070:	f44f 6180 	mov.w	r1, #1024	; 0x400
   23074:	4e1e      	ldr	r6, [pc, #120]	; (230f0 <FLASH_CalibrationPhase+0x8c>)
   23076:	47b0      	blx	r6
   23078:	f8d4 325c 	ldr.w	r3, [r4, #604]	; 0x25c
   2307c:	f423 5340 	bic.w	r3, r3, #12288	; 0x3000
   23080:	f8c4 325c 	str.w	r3, [r4, #604]	; 0x25c
   23084:	230a      	movs	r3, #10
   23086:	e000      	b.n	2308a <FLASH_CalibrationPhase+0x26>
   23088:	b123      	cbz	r3, 23094 <FLASH_CalibrationPhase+0x30>
   2308a:	f8d4 225c 	ldr.w	r2, [r4, #604]	; 0x25c
   2308e:	3b01      	subs	r3, #1
   23090:	0792      	lsls	r2, r2, #30
   23092:	d1f9      	bne.n	23088 <FLASH_CalibrationPhase+0x24>
   23094:	4c15      	ldr	r4, [pc, #84]	; (230ec <FLASH_CalibrationPhase+0x88>)
   23096:	2000      	movs	r0, #0
   23098:	f7ff ff6e 	bl	22f78 <FLASH_CalibrationPLLPSCmd>
   2309c:	4638      	mov	r0, r7
   2309e:	f7ff ff89 	bl	22fb4 <FLASH_CalibrationPLLPS_Shift>
   230a2:	f8d4 325c 	ldr.w	r3, [r4, #604]	; 0x25c
   230a6:	00ad      	lsls	r5, r5, #2
   230a8:	2001      	movs	r0, #1
   230aa:	f023 037c 	bic.w	r3, r3, #124	; 0x7c
   230ae:	f005 057c 	and.w	r5, r5, #124	; 0x7c
   230b2:	431d      	orrs	r5, r3
   230b4:	f8c4 525c 	str.w	r5, [r4, #604]	; 0x25c
   230b8:	f7ff ff5e 	bl	22f78 <FLASH_CalibrationPLLPSCmd>
   230bc:	f8d4 325c 	ldr.w	r3, [r4, #604]	; 0x25c
   230c0:	220a      	movs	r2, #10
   230c2:	f443 5340 	orr.w	r3, r3, #12288	; 0x3000
   230c6:	f8c4 325c 	str.w	r3, [r4, #604]	; 0x25c
   230ca:	e000      	b.n	230ce <FLASH_CalibrationPhase+0x6a>
   230cc:	b132      	cbz	r2, 230dc <FLASH_CalibrationPhase+0x78>
   230ce:	f8d4 325c 	ldr.w	r3, [r4, #604]	; 0x25c
   230d2:	3a01      	subs	r2, #1
   230d4:	f003 0303 	and.w	r3, r3, #3
   230d8:	2b03      	cmp	r3, #3
   230da:	d1f7      	bne.n	230cc <FLASH_CalibrationPhase+0x68>
   230dc:	2000      	movs	r0, #0
   230de:	2201      	movs	r2, #1
   230e0:	f44f 6180 	mov.w	r1, #1024	; 0x400
   230e4:	47b0      	blx	r6
   230e6:	2001      	movs	r0, #1
   230e8:	bdf8      	pop	{r3, r4, r5, r6, r7, pc}
   230ea:	bf00      	nop
   230ec:	4100c000 	.word	0x4100c000
   230f0:	00024d01 	.word	0x00024d01

000230f4 <FLASH_CalibrationPhaseIdx>:
   230f4:	f000 0107 	and.w	r1, r0, #7
   230f8:	08c0      	lsrs	r0, r0, #3
   230fa:	f7ff bfb3 	b.w	23064 <FLASH_CalibrationPhase>
   230fe:	bf00      	nop

00023100 <FLASH_CalibrationNewCmd>:
   23100:	b508      	push	{r3, lr}
   23102:	f7ff ff39 	bl	22f78 <FLASH_CalibrationPLLPSCmd>
   23106:	4b07      	ldr	r3, [pc, #28]	; (23124 <FLASH_CalibrationNewCmd+0x24>)
   23108:	2801      	cmp	r0, #1
   2310a:	4a06      	ldr	r2, [pc, #24]	; (23124 <FLASH_CalibrationNewCmd+0x24>)
   2310c:	f8d3 325c 	ldr.w	r3, [r3, #604]	; 0x25c
   23110:	f04f 0001 	mov.w	r0, #1
   23114:	bf0c      	ite	eq
   23116:	f443 4300 	orreq.w	r3, r3, #32768	; 0x8000
   2311a:	f423 4300 	bicne.w	r3, r3, #32768	; 0x8000
   2311e:	f8c2 325c 	str.w	r3, [r2, #604]	; 0x25c
   23122:	bd08      	pop	{r3, pc}
   23124:	4100c000 	.word	0x4100c000

00023128 <FLASH_CalibrationNew>:
   23128:	e92d 4ff0 	stmdb	sp!, {r4, r5, r6, r7, r8, r9, sl, fp, lr}
   2312c:	b089      	sub	sp, #36	; 0x24
   2312e:	4698      	mov	r8, r3
   23130:	4681      	mov	r9, r0
   23132:	4b60      	ldr	r3, [pc, #384]	; (232b4 <FLASH_CalibrationNew+0x18c>)
   23134:	f89d 5048 	ldrb.w	r5, [sp, #72]	; 0x48
   23138:	4692      	mov	sl, r2
   2313a:	485f      	ldr	r0, [pc, #380]	; (232b8 <FLASH_CalibrationNew+0x190>)
   2313c:	f89d 404c 	ldrb.w	r4, [sp, #76]	; 0x4c
   23140:	9505      	str	r5, [sp, #20]
   23142:	4798      	blx	r3
   23144:	4b5c      	ldr	r3, [pc, #368]	; (232b8 <FLASH_CalibrationNew+0x190>)
   23146:	2000      	movs	r0, #0
   23148:	4a5c      	ldr	r2, [pc, #368]	; (232bc <FLASH_CalibrationNew+0x194>)
   2314a:	ea4f 0bd4 	mov.w	fp, r4, lsr #3
   2314e:	795b      	ldrb	r3, [r3, #5]
   23150:	6153      	str	r3, [r2, #20]
   23152:	032b      	lsls	r3, r5, #12
   23154:	f8d2 111c 	ldr.w	r1, [r2, #284]	; 0x11c
   23158:	b29b      	uxth	r3, r3
   2315a:	f421 4170 	bic.w	r1, r1, #61440	; 0xf000
   2315e:	430b      	orrs	r3, r1
   23160:	f8c2 311c 	str.w	r3, [r2, #284]	; 0x11c
   23164:	f7ff ffcc 	bl	23100 <FLASH_CalibrationNewCmd>
   23168:	2001      	movs	r0, #1
   2316a:	f7ff ffc9 	bl	23100 <FLASH_CalibrationNewCmd>
   2316e:	f004 0307 	and.w	r3, r4, #7
   23172:	4554      	cmp	r4, sl
   23174:	9302      	str	r3, [sp, #8]
   23176:	f200 8093 	bhi.w	232a0 <FLASH_CalibrationNew+0x178>
   2317a:	f04f 33ff 	mov.w	r3, #4294967295
   2317e:	2600      	movs	r6, #0
   23180:	4f4f      	ldr	r7, [pc, #316]	; (232c0 <FLASH_CalibrationNew+0x198>)
   23182:	f04f 6500 	mov.w	r5, #134217728	; 0x8000000
   23186:	9304      	str	r3, [sp, #16]
   23188:	9303      	str	r3, [sp, #12]
   2318a:	e00e      	b.n	231aa <FLASH_CalibrationNew+0x82>
   2318c:	9b03      	ldr	r3, [sp, #12]
   2318e:	3301      	adds	r3, #1
   23190:	d059      	beq.n	23246 <FLASH_CalibrationNew+0x11e>
   23192:	4446      	add	r6, r8
   23194:	9404      	str	r4, [sp, #16]
   23196:	eb08 0304 	add.w	r3, r8, r4
   2319a:	b2dc      	uxtb	r4, r3
   2319c:	f3c3 0bc4 	ubfx	fp, r3, #3, #5
   231a0:	f003 0307 	and.w	r3, r3, #7
   231a4:	45a2      	cmp	sl, r4
   231a6:	9302      	str	r3, [sp, #8]
   231a8:	d350      	bcc.n	2324c <FLASH_CalibrationNew+0x124>
   231aa:	4620      	mov	r0, r4
   231ac:	f7ff ffa2 	bl	230f4 <FLASH_CalibrationPhaseIdx>
   231b0:	697b      	ldr	r3, [r7, #20]
   231b2:	03db      	lsls	r3, r3, #15
   231b4:	d507      	bpl.n	231c6 <FLASH_CalibrationNew+0x9e>
   231b6:	f3bf 8f4f 	dsb	sy
   231ba:	f8c7 525c 	str.w	r5, [r7, #604]	; 0x25c
   231be:	f3bf 8f4f 	dsb	sy
   231c2:	f3bf 8f6f 	isb	sy
   231c6:	6829      	ldr	r1, [r5, #0]
   231c8:	f899 3007 	ldrb.w	r3, [r9, #7]
   231cc:	9106      	str	r1, [sp, #24]
   231ce:	686a      	ldr	r2, [r5, #4]
   231d0:	9207      	str	r2, [sp, #28]
   231d2:	b11b      	cbz	r3, 231dc <FLASH_CalibrationNew+0xb4>
   231d4:	4b3b      	ldr	r3, [pc, #236]	; (232c4 <FLASH_CalibrationNew+0x19c>)
   231d6:	681b      	ldr	r3, [r3, #0]
   231d8:	0398      	lsls	r0, r3, #14
   231da:	d443      	bmi.n	23264 <FLASH_CalibrationNew+0x13c>
   231dc:	2208      	movs	r2, #8
   231de:	493a      	ldr	r1, [pc, #232]	; (232c8 <FLASH_CalibrationNew+0x1a0>)
   231e0:	a806      	add	r0, sp, #24
   231e2:	4b3a      	ldr	r3, [pc, #232]	; (232cc <FLASH_CalibrationNew+0x1a4>)
   231e4:	4798      	blx	r3
   231e6:	2800      	cmp	r0, #0
   231e8:	d0d0      	beq.n	2318c <FLASH_CalibrationNew+0x64>
   231ea:	2e00      	cmp	r6, #0
   231ec:	d0d3      	beq.n	23196 <FLASH_CalibrationNew+0x6e>
   231ee:	9b03      	ldr	r3, [sp, #12]
   231f0:	eba4 0408 	sub.w	r4, r4, r8
   231f4:	041b      	lsls	r3, r3, #16
   231f6:	ea43 6404 	orr.w	r4, r3, r4, lsl #24
   231fa:	f899 3007 	ldrb.w	r3, [r9, #7]
   231fe:	2b00      	cmp	r3, #0
   23200:	d037      	beq.n	23272 <FLASH_CalibrationNew+0x14a>
   23202:	4d30      	ldr	r5, [pc, #192]	; (232c4 <FLASH_CalibrationNew+0x19c>)
   23204:	682b      	ldr	r3, [r5, #0]
   23206:	0399      	lsls	r1, r3, #14
   23208:	d439      	bmi.n	2327e <FLASH_CalibrationNew+0x156>
   2320a:	b166      	cbz	r6, 23226 <FLASH_CalibrationNew+0xfe>
   2320c:	9b03      	ldr	r3, [sp, #12]
   2320e:	eb03 0166 	add.w	r1, r3, r6, asr #1
   23212:	f899 3007 	ldrb.w	r3, [r9, #7]
   23216:	b2c9      	uxtb	r1, r1
   23218:	f889 1063 	strb.w	r1, [r9, #99]	; 0x63
   2321c:	b11b      	cbz	r3, 23226 <FLASH_CalibrationNew+0xfe>
   2321e:	4b29      	ldr	r3, [pc, #164]	; (232c4 <FLASH_CalibrationNew+0x19c>)
   23220:	681b      	ldr	r3, [r3, #0]
   23222:	039b      	lsls	r3, r3, #14
   23224:	d442      	bmi.n	232ac <FLASH_CalibrationNew+0x184>
   23226:	2000      	movs	r0, #0
   23228:	f7ff ff6a 	bl	23100 <FLASH_CalibrationNewCmd>
   2322c:	4b22      	ldr	r3, [pc, #136]	; (232b8 <FLASH_CalibrationNew+0x190>)
   2322e:	4822      	ldr	r0, [pc, #136]	; (232b8 <FLASH_CalibrationNew+0x190>)
   23230:	799a      	ldrb	r2, [r3, #6]
   23232:	7919      	ldrb	r1, [r3, #4]
   23234:	4b21      	ldr	r3, [pc, #132]	; (232bc <FLASH_CalibrationNew+0x194>)
   23236:	615a      	str	r2, [r3, #20]
   23238:	4b1e      	ldr	r3, [pc, #120]	; (232b4 <FLASH_CalibrationNew+0x18c>)
   2323a:	4798      	blx	r3
   2323c:	ea46 0004 	orr.w	r0, r6, r4
   23240:	b009      	add	sp, #36	; 0x24
   23242:	e8bd 8ff0 	ldmia.w	sp!, {r4, r5, r6, r7, r8, r9, sl, fp, pc}
   23246:	2601      	movs	r6, #1
   23248:	9403      	str	r4, [sp, #12]
   2324a:	e7a3      	b.n	23194 <FLASH_CalibrationNew+0x6c>
   2324c:	9b04      	ldr	r3, [sp, #16]
   2324e:	061c      	lsls	r4, r3, #24
   23250:	9b03      	ldr	r3, [sp, #12]
   23252:	ea44 4403 	orr.w	r4, r4, r3, lsl #16
   23256:	f899 3007 	ldrb.w	r3, [r9, #7]
   2325a:	2b00      	cmp	r3, #0
   2325c:	d1d1      	bne.n	23202 <FLASH_CalibrationNew+0xda>
   2325e:	2e00      	cmp	r6, #0
   23260:	d1d4      	bne.n	2320c <FLASH_CalibrationNew+0xe4>
   23262:	e7e0      	b.n	23226 <FLASH_CalibrationNew+0xfe>
   23264:	9b02      	ldr	r3, [sp, #8]
   23266:	481a      	ldr	r0, [pc, #104]	; (232d0 <FLASH_CalibrationNew+0x1a8>)
   23268:	9300      	str	r3, [sp, #0]
   2326a:	465b      	mov	r3, fp
   2326c:	f005 f8ae 	bl	283cc <DiagPrintf>
   23270:	e7b4      	b.n	231dc <FLASH_CalibrationNew+0xb4>
   23272:	9b03      	ldr	r3, [sp, #12]
   23274:	eb03 0366 	add.w	r3, r3, r6, asr #1
   23278:	f889 3063 	strb.w	r3, [r9, #99]	; 0x63
   2327c:	e7d3      	b.n	23226 <FLASH_CalibrationNew+0xfe>
   2327e:	9b02      	ldr	r3, [sp, #8]
   23280:	465a      	mov	r2, fp
   23282:	9905      	ldr	r1, [sp, #20]
   23284:	4813      	ldr	r0, [pc, #76]	; (232d4 <FLASH_CalibrationNew+0x1ac>)
   23286:	f005 f8a1 	bl	283cc <DiagPrintf>
   2328a:	682b      	ldr	r3, [r5, #0]
   2328c:	039a      	lsls	r2, r3, #14
   2328e:	d5bc      	bpl.n	2320a <FLASH_CalibrationNew+0xe2>
   23290:	4632      	mov	r2, r6
   23292:	9903      	ldr	r1, [sp, #12]
   23294:	4810      	ldr	r0, [pc, #64]	; (232d8 <FLASH_CalibrationNew+0x1b0>)
   23296:	f005 f899 	bl	283cc <DiagPrintf>
   2329a:	2e00      	cmp	r6, #0
   2329c:	d1b6      	bne.n	2320c <FLASH_CalibrationNew+0xe4>
   2329e:	e7c2      	b.n	23226 <FLASH_CalibrationNew+0xfe>
   232a0:	f04f 33ff 	mov.w	r3, #4294967295
   232a4:	4c0d      	ldr	r4, [pc, #52]	; (232dc <FLASH_CalibrationNew+0x1b4>)
   232a6:	2600      	movs	r6, #0
   232a8:	9303      	str	r3, [sp, #12]
   232aa:	e7d4      	b.n	23256 <FLASH_CalibrationNew+0x12e>
   232ac:	480c      	ldr	r0, [pc, #48]	; (232e0 <FLASH_CalibrationNew+0x1b8>)
   232ae:	f005 f88d 	bl	283cc <DiagPrintf>
   232b2:	e7b8      	b.n	23226 <FLASH_CalibrationNew+0xfe>
   232b4:	00022579 	.word	0x00022579
   232b8:	20004014 	.word	0x20004014
   232bc:	4100a000 	.word	0x4100a000
   232c0:	e000ed00 	.word	0xe000ed00
   232c4:	20004004 	.word	0x20004004
   232c8:	00041404 	.word	0x00041404
   232cc:	00028ebd 	.word	0x00028ebd
   232d0:	00041818 	.word	0x00041818
   232d4:	00041850 	.word	0x00041850
   232d8:	00041890 	.word	0x00041890
   232dc:	ffff0000 	.word	0xffff0000
   232e0:	000418cc 	.word	0x000418cc

000232e4 <FLASH_Read_HandShake_Cmd>:
   232e4:	4b0c      	ldr	r3, [pc, #48]	; (23318 <FLASH_Read_HandShake_Cmd+0x34>)
   232e6:	0440      	lsls	r0, r0, #17
   232e8:	f8d3 225c 	ldr.w	r2, [r3, #604]	; 0x25c
   232ec:	f400 10f0 	and.w	r0, r0, #1966080	; 0x1e0000
   232f0:	f422 12f0 	bic.w	r2, r2, #1966080	; 0x1e0000
   232f4:	4310      	orrs	r0, r2
   232f6:	f8c3 025c 	str.w	r0, [r3, #604]	; 0x25c
   232fa:	f8d3 325c 	ldr.w	r3, [r3, #604]	; 0x25c
   232fe:	b129      	cbz	r1, 2330c <FLASH_Read_HandShake_Cmd+0x28>
   23300:	f443 3380 	orr.w	r3, r3, #65536	; 0x10000
   23304:	4a04      	ldr	r2, [pc, #16]	; (23318 <FLASH_Read_HandShake_Cmd+0x34>)
   23306:	f8c2 325c 	str.w	r3, [r2, #604]	; 0x25c
   2330a:	4770      	bx	lr
   2330c:	f423 3380 	bic.w	r3, r3, #65536	; 0x10000
   23310:	4a01      	ldr	r2, [pc, #4]	; (23318 <FLASH_Read_HandShake_Cmd+0x34>)
   23312:	f8c2 325c 	str.w	r3, [r2, #604]	; 0x25c
   23316:	4770      	bx	lr
   23318:	4100c000 	.word	0x4100c000

0002331c <FLASH_Read_HandShake>:
   2331c:	b5f0      	push	{r4, r5, r6, r7, lr}
   2331e:	4d2b      	ldr	r5, [pc, #172]	; (233cc <FLASH_Read_HandShake+0xb0>)
   23320:	4614      	mov	r4, r2
   23322:	b083      	sub	sp, #12
   23324:	4607      	mov	r7, r0
   23326:	4e2a      	ldr	r6, [pc, #168]	; (233d0 <FLASH_Read_HandShake+0xb4>)
   23328:	4628      	mov	r0, r5
   2332a:	47b0      	blx	r6
   2332c:	4b29      	ldr	r3, [pc, #164]	; (233d4 <FLASH_Read_HandShake+0xb8>)
   2332e:	796a      	ldrb	r2, [r5, #5]
   23330:	1ca1      	adds	r1, r4, #2
   23332:	4620      	mov	r0, r4
   23334:	615a      	str	r2, [r3, #20]
   23336:	0309      	lsls	r1, r1, #12
   23338:	f8d3 211c 	ldr.w	r2, [r3, #284]	; 0x11c
   2333c:	b289      	uxth	r1, r1
   2333e:	f422 4270 	bic.w	r2, r2, #61440	; 0xf000
   23342:	4311      	orrs	r1, r2
   23344:	f8c3 111c 	str.w	r1, [r3, #284]	; 0x11c
   23348:	2101      	movs	r1, #1
   2334a:	f7ff ffcb 	bl	232e4 <FLASH_Read_HandShake_Cmd>
   2334e:	4b22      	ldr	r3, [pc, #136]	; (233d8 <FLASH_Read_HandShake+0xbc>)
   23350:	695a      	ldr	r2, [r3, #20]
   23352:	03d2      	lsls	r2, r2, #15
   23354:	d509      	bpl.n	2336a <FLASH_Read_HandShake+0x4e>
   23356:	f3bf 8f4f 	dsb	sy
   2335a:	f04f 6200 	mov.w	r2, #134217728	; 0x8000000
   2335e:	f8c3 225c 	str.w	r2, [r3, #604]	; 0x25c
   23362:	f3bf 8f4f 	dsb	sy
   23366:	f3bf 8f6f 	isb	sy
   2336a:	f04f 6300 	mov.w	r3, #134217728	; 0x8000000
   2336e:	79f8      	ldrb	r0, [r7, #7]
   23370:	6819      	ldr	r1, [r3, #0]
   23372:	9100      	str	r1, [sp, #0]
   23374:	685a      	ldr	r2, [r3, #4]
   23376:	9201      	str	r2, [sp, #4]
   23378:	b118      	cbz	r0, 23382 <FLASH_Read_HandShake+0x66>
   2337a:	4b18      	ldr	r3, [pc, #96]	; (233dc <FLASH_Read_HandShake+0xc0>)
   2337c:	681b      	ldr	r3, [r3, #0]
   2337e:	039b      	lsls	r3, r3, #14
   23380:	d41f      	bmi.n	233c2 <FLASH_Read_HandShake+0xa6>
   23382:	2208      	movs	r2, #8
   23384:	4916      	ldr	r1, [pc, #88]	; (233e0 <FLASH_Read_HandShake+0xc4>)
   23386:	4668      	mov	r0, sp
   23388:	4b16      	ldr	r3, [pc, #88]	; (233e4 <FLASH_Read_HandShake+0xc8>)
   2338a:	4798      	blx	r3
   2338c:	b160      	cbz	r0, 233a8 <FLASH_Read_HandShake+0x8c>
   2338e:	4620      	mov	r0, r4
   23390:	2100      	movs	r1, #0
   23392:	f7ff ffa7 	bl	232e4 <FLASH_Read_HandShake_Cmd>
   23396:	79aa      	ldrb	r2, [r5, #6]
   23398:	4b0e      	ldr	r3, [pc, #56]	; (233d4 <FLASH_Read_HandShake+0xb8>)
   2339a:	7929      	ldrb	r1, [r5, #4]
   2339c:	480b      	ldr	r0, [pc, #44]	; (233cc <FLASH_Read_HandShake+0xb0>)
   2339e:	615a      	str	r2, [r3, #20]
   233a0:	47b0      	blx	r6
   233a2:	2000      	movs	r0, #0
   233a4:	b003      	add	sp, #12
   233a6:	bdf0      	pop	{r4, r5, r6, r7, pc}
   233a8:	4601      	mov	r1, r0
   233aa:	4620      	mov	r0, r4
   233ac:	f7ff ff9a 	bl	232e4 <FLASH_Read_HandShake_Cmd>
   233b0:	79aa      	ldrb	r2, [r5, #6]
   233b2:	4b08      	ldr	r3, [pc, #32]	; (233d4 <FLASH_Read_HandShake+0xb8>)
   233b4:	7929      	ldrb	r1, [r5, #4]
   233b6:	4805      	ldr	r0, [pc, #20]	; (233cc <FLASH_Read_HandShake+0xb0>)
   233b8:	615a      	str	r2, [r3, #20]
   233ba:	47b0      	blx	r6
   233bc:	2001      	movs	r0, #1
   233be:	b003      	add	sp, #12
   233c0:	bdf0      	pop	{r4, r5, r6, r7, pc}
   233c2:	4623      	mov	r3, r4
   233c4:	4808      	ldr	r0, [pc, #32]	; (233e8 <FLASH_Read_HandShake+0xcc>)
   233c6:	f005 f801 	bl	283cc <DiagPrintf>
   233ca:	e7da      	b.n	23382 <FLASH_Read_HandShake+0x66>
   233cc:	20004014 	.word	0x20004014
   233d0:	00022579 	.word	0x00022579
   233d4:	4100a000 	.word	0x4100a000
   233d8:	e000ed00 	.word	0xe000ed00
   233dc:	20004004 	.word	0x20004004
   233e0:	00041404 	.word	0x00041404
   233e4:	00028ebd 	.word	0x00028ebd
   233e8:	000418f8 	.word	0x000418f8

000233ec <FLASH_Calibration>:
   233ec:	e92d 4ff0 	stmdb	sp!, {r4, r5, r6, r7, r8, r9, sl, fp, lr}
   233f0:	4c3c      	ldr	r4, [pc, #240]	; (234e4 <FLASH_Calibration+0xf8>)
   233f2:	b087      	sub	sp, #28
   233f4:	7945      	ldrb	r5, [r0, #5]
   233f6:	4617      	mov	r7, r2
   233f8:	6963      	ldr	r3, [r4, #20]
   233fa:	4680      	mov	r8, r0
   233fc:	2000      	movs	r0, #0
   233fe:	9503      	str	r5, [sp, #12]
   23400:	9301      	str	r3, [sp, #4]
   23402:	f8d4 311c 	ldr.w	r3, [r4, #284]	; 0x11c
   23406:	9302      	str	r3, [sp, #8]
   23408:	f7ff fe7a 	bl	23100 <FLASH_CalibrationNewCmd>
   2340c:	4836      	ldr	r0, [pc, #216]	; (234e8 <FLASH_Calibration+0xfc>)
   2340e:	4b37      	ldr	r3, [pc, #220]	; (234ec <FLASH_Calibration+0x100>)
   23410:	4798      	blx	r3
   23412:	6165      	str	r5, [r4, #20]
   23414:	eb17 0745 	adds.w	r7, r7, r5, lsl #1
   23418:	d05c      	beq.n	234d4 <FLASH_Calibration+0xe8>
   2341a:	f04f 0900 	mov.w	r9, #0
   2341e:	f04f 33ff 	mov.w	r3, #4294967295
   23422:	f8df a0dc 	ldr.w	sl, [pc, #220]	; 23500 <FLASH_Calibration+0x114>
   23426:	f04f 6500 	mov.w	r5, #134217728	; 0x8000000
   2342a:	4e31      	ldr	r6, [pc, #196]	; (234f0 <FLASH_Calibration+0x104>)
   2342c:	464a      	mov	r2, r9
   2342e:	46cb      	mov	fp, r9
   23430:	9300      	str	r3, [sp, #0]
   23432:	f8d4 111c 	ldr.w	r1, [r4, #284]	; 0x11c
   23436:	0313      	lsls	r3, r2, #12
   23438:	f421 4170 	bic.w	r1, r1, #61440	; 0xf000
   2343c:	b29b      	uxth	r3, r3
   2343e:	430b      	orrs	r3, r1
   23440:	f8c4 311c 	str.w	r3, [r4, #284]	; 0x11c
   23444:	6973      	ldr	r3, [r6, #20]
   23446:	03db      	lsls	r3, r3, #15
   23448:	d507      	bpl.n	2345a <FLASH_Calibration+0x6e>
   2344a:	f3bf 8f4f 	dsb	sy
   2344e:	f8c6 525c 	str.w	r5, [r6, #604]	; 0x25c
   23452:	f3bf 8f4f 	dsb	sy
   23456:	f3bf 8f6f 	isb	sy
   2345a:	f898 3007 	ldrb.w	r3, [r8, #7]
   2345e:	4825      	ldr	r0, [pc, #148]	; (234f4 <FLASH_Calibration+0x108>)
   23460:	6829      	ldr	r1, [r5, #0]
   23462:	b113      	cbz	r3, 2346a <FLASH_Calibration+0x7e>
   23464:	6803      	ldr	r3, [r0, #0]
   23466:	0398      	lsls	r0, r3, #14
   23468:	d42b      	bmi.n	234c2 <FLASH_Calibration+0xd6>
   2346a:	f8da 3000 	ldr.w	r3, [sl]
   2346e:	428b      	cmp	r3, r1
   23470:	d107      	bne.n	23482 <FLASH_Calibration+0x96>
   23472:	9b00      	ldr	r3, [sp, #0]
   23474:	f109 0901 	add.w	r9, r9, #1
   23478:	f04f 0b01 	mov.w	fp, #1
   2347c:	3301      	adds	r3, #1
   2347e:	bf08      	it	eq
   23480:	9200      	streq	r2, [sp, #0]
   23482:	3201      	adds	r2, #1
   23484:	4297      	cmp	r7, r2
   23486:	d1d4      	bne.n	23432 <FLASH_Calibration+0x46>
   23488:	f1b9 0f00 	cmp.w	r9, #0
   2348c:	d00b      	beq.n	234a6 <FLASH_Calibration+0xba>
   2348e:	9b00      	ldr	r3, [sp, #0]
   23490:	f898 2007 	ldrb.w	r2, [r8, #7]
   23494:	eb03 0169 	add.w	r1, r3, r9, asr #1
   23498:	f888 105d 	strb.w	r1, [r8, #93]	; 0x5d
   2349c:	b11a      	cbz	r2, 234a6 <FLASH_Calibration+0xba>
   2349e:	4a15      	ldr	r2, [pc, #84]	; (234f4 <FLASH_Calibration+0x108>)
   234a0:	6812      	ldr	r2, [r2, #0]
   234a2:	0393      	lsls	r3, r2, #14
   234a4:	d418      	bmi.n	234d8 <FLASH_Calibration+0xec>
   234a6:	4810      	ldr	r0, [pc, #64]	; (234e8 <FLASH_Calibration+0xfc>)
   234a8:	4b10      	ldr	r3, [pc, #64]	; (234ec <FLASH_Calibration+0x100>)
   234aa:	7901      	ldrb	r1, [r0, #4]
   234ac:	4798      	blx	r3
   234ae:	9a01      	ldr	r2, [sp, #4]
   234b0:	4b0c      	ldr	r3, [pc, #48]	; (234e4 <FLASH_Calibration+0xf8>)
   234b2:	4658      	mov	r0, fp
   234b4:	615a      	str	r2, [r3, #20]
   234b6:	9a02      	ldr	r2, [sp, #8]
   234b8:	f8c3 211c 	str.w	r2, [r3, #284]	; 0x11c
   234bc:	b007      	add	sp, #28
   234be:	e8bd 8ff0 	ldmia.w	sp!, {r4, r5, r6, r7, r8, r9, sl, fp, pc}
   234c2:	9b03      	ldr	r3, [sp, #12]
   234c4:	480c      	ldr	r0, [pc, #48]	; (234f8 <FLASH_Calibration+0x10c>)
   234c6:	9205      	str	r2, [sp, #20]
   234c8:	9104      	str	r1, [sp, #16]
   234ca:	f004 ff7f 	bl	283cc <DiagPrintf>
   234ce:	e9dd 1204 	ldrd	r1, r2, [sp, #16]
   234d2:	e7ca      	b.n	2346a <FLASH_Calibration+0x7e>
   234d4:	46bb      	mov	fp, r7
   234d6:	e7e6      	b.n	234a6 <FLASH_Calibration+0xba>
   234d8:	9a03      	ldr	r2, [sp, #12]
   234da:	4808      	ldr	r0, [pc, #32]	; (234fc <FLASH_Calibration+0x110>)
   234dc:	f004 ff76 	bl	283cc <DiagPrintf>
   234e0:	e7e1      	b.n	234a6 <FLASH_Calibration+0xba>
   234e2:	bf00      	nop
   234e4:	4100a000 	.word	0x4100a000
   234e8:	20004014 	.word	0x20004014
   234ec:	00022579 	.word	0x00022579
   234f0:	e000ed00 	.word	0xe000ed00
   234f4:	20004004 	.word	0x20004004
   234f8:	00041928 	.word	0x00041928
   234fc:	00041958 	.word	0x00041958
   23500:	00041404 	.word	0x00041404

00023504 <GPIO_INTMode>:
   23504:	b510      	push	{r4, lr}
   23506:	4c20      	ldr	r4, [pc, #128]	; (23588 <GPIO_INTMode+0x84>)
   23508:	468e      	mov	lr, r1
   2350a:	e844 f400 	tt	r4, r4
   2350e:	f414 0f80 	tst.w	r4, #4194304	; 0x400000
   23512:	f000 011f 	and.w	r1, r0, #31
   23516:	4c1d      	ldr	r4, [pc, #116]	; (2358c <GPIO_INTMode+0x88>)
   23518:	f3c0 1041 	ubfx	r0, r0, #5, #2
   2351c:	d00d      	beq.n	2353a <GPIO_INTMode+0x36>
   2351e:	f854 4020 	ldr.w	r4, [r4, r0, lsl #2]
   23522:	2001      	movs	r0, #1
   23524:	f1be 0f01 	cmp.w	lr, #1
   23528:	fa00 fc01 	lsl.w	ip, r0, r1
   2352c:	ea6f 000c 	mvn.w	r0, ip
   23530:	d007      	beq.n	23542 <GPIO_INTMode+0x3e>
   23532:	6b23      	ldr	r3, [r4, #48]	; 0x30
   23534:	4018      	ands	r0, r3
   23536:	6320      	str	r0, [r4, #48]	; 0x30
   23538:	bd10      	pop	{r4, pc}
   2353a:	eb04 0080 	add.w	r0, r4, r0, lsl #2
   2353e:	6884      	ldr	r4, [r0, #8]
   23540:	e7ef      	b.n	23522 <GPIO_INTMode+0x1e>
   23542:	2a02      	cmp	r2, #2
   23544:	d01a      	beq.n	2357c <GPIO_INTMode+0x78>
   23546:	408a      	lsls	r2, r1
   23548:	fa03 f101 	lsl.w	r1, r3, r1
   2354c:	6ea3      	ldr	r3, [r4, #104]	; 0x68
   2354e:	4003      	ands	r3, r0
   23550:	66a3      	str	r3, [r4, #104]	; 0x68
   23552:	6ba3      	ldr	r3, [r4, #56]	; 0x38
   23554:	4003      	ands	r3, r0
   23556:	4313      	orrs	r3, r2
   23558:	63a3      	str	r3, [r4, #56]	; 0x38
   2355a:	6be3      	ldr	r3, [r4, #60]	; 0x3c
   2355c:	4003      	ands	r3, r0
   2355e:	430b      	orrs	r3, r1
   23560:	63e3      	str	r3, [r4, #60]	; 0x3c
   23562:	6ca3      	ldr	r3, [r4, #72]	; 0x48
   23564:	4018      	ands	r0, r3
   23566:	9b02      	ldr	r3, [sp, #8]
   23568:	2b01      	cmp	r3, #1
   2356a:	bf08      	it	eq
   2356c:	ea40 000c 	orreq.w	r0, r0, ip
   23570:	64a0      	str	r0, [r4, #72]	; 0x48
   23572:	6b20      	ldr	r0, [r4, #48]	; 0x30
   23574:	ea4c 0000 	orr.w	r0, ip, r0
   23578:	6320      	str	r0, [r4, #48]	; 0x30
   2357a:	bd10      	pop	{r4, pc}
   2357c:	6ea3      	ldr	r3, [r4, #104]	; 0x68
   2357e:	ea4c 0303 	orr.w	r3, ip, r3
   23582:	66a3      	str	r3, [r4, #104]	; 0x68
   23584:	e7ed      	b.n	23562 <GPIO_INTMode+0x5e>
   23586:	bf00      	nop
   23588:	000283cd 	.word	0x000283cd
   2358c:	0004140c 	.word	0x0004140c

00023590 <GPIO_INTConfig>:
   23590:	4b0e      	ldr	r3, [pc, #56]	; (235cc <GPIO_INTConfig+0x3c>)
   23592:	f000 0c1f 	and.w	ip, r0, #31
   23596:	e843 f300 	tt	r3, r3
   2359a:	f413 0f80 	tst.w	r3, #4194304	; 0x400000
   2359e:	f3c0 1041 	ubfx	r0, r0, #5, #2
   235a2:	4b0b      	ldr	r3, [pc, #44]	; (235d0 <GPIO_INTConfig+0x40>)
   235a4:	d00a      	beq.n	235bc <GPIO_INTConfig+0x2c>
   235a6:	f853 2020 	ldr.w	r2, [r3, r0, lsl #2]
   235aa:	2301      	movs	r3, #1
   235ac:	fa03 f30c 	lsl.w	r3, r3, ip
   235b0:	64d3      	str	r3, [r2, #76]	; 0x4c
   235b2:	6b50      	ldr	r0, [r2, #52]	; 0x34
   235b4:	b931      	cbnz	r1, 235c4 <GPIO_INTConfig+0x34>
   235b6:	4303      	orrs	r3, r0
   235b8:	6353      	str	r3, [r2, #52]	; 0x34
   235ba:	4770      	bx	lr
   235bc:	eb03 0080 	add.w	r0, r3, r0, lsl #2
   235c0:	6882      	ldr	r2, [r0, #8]
   235c2:	e7f2      	b.n	235aa <GPIO_INTConfig+0x1a>
   235c4:	ea20 0303 	bic.w	r3, r0, r3
   235c8:	6353      	str	r3, [r2, #52]	; 0x34
   235ca:	4770      	bx	lr
   235cc:	000283cd 	.word	0x000283cd
   235d0:	0004140c 	.word	0x0004140c

000235d4 <GPIO_INTHandler>:
   235d4:	e92d 43f8 	stmdb	sp!, {r3, r4, r5, r6, r7, r8, r9, lr}
   235d8:	4b26      	ldr	r3, [pc, #152]	; (23674 <GPIO_INTHandler+0xa0>)
   235da:	6d06      	ldr	r6, [r0, #80]	; 0x50
   235dc:	4298      	cmp	r0, r3
   235de:	6c05      	ldr	r5, [r0, #64]	; 0x40
   235e0:	64c5      	str	r5, [r0, #76]	; 0x4c
   235e2:	d00d      	beq.n	23600 <GPIO_INTHandler+0x2c>
   235e4:	f103 5380 	add.w	r3, r3, #268435456	; 0x10000000
   235e8:	4298      	cmp	r0, r3
   235ea:	d009      	beq.n	23600 <GPIO_INTHandler+0x2c>
   235ec:	4b22      	ldr	r3, [pc, #136]	; (23678 <GPIO_INTHandler+0xa4>)
   235ee:	4298      	cmp	r0, r3
   235f0:	d023      	beq.n	2363a <GPIO_INTHandler+0x66>
   235f2:	f103 5380 	add.w	r3, r3, #268435456	; 0x10000000
   235f6:	4298      	cmp	r0, r3
   235f8:	d01f      	beq.n	2363a <GPIO_INTHandler+0x66>
   235fa:	2000      	movs	r0, #0
   235fc:	e8bd 83f8 	ldmia.w	sp!, {r3, r4, r5, r6, r7, r8, r9, pc}
   23600:	f8df 8080 	ldr.w	r8, [pc, #128]	; 23684 <GPIO_INTHandler+0xb0>
   23604:	2400      	movs	r4, #0
   23606:	2701      	movs	r7, #1
   23608:	f108 0980 	add.w	r9, r8, #128	; 0x80
   2360c:	fa07 f304 	lsl.w	r3, r7, r4
   23610:	422b      	tst	r3, r5
   23612:	d00c      	beq.n	2362e <GPIO_INTHandler+0x5a>
   23614:	f858 2024 	ldr.w	r2, [r8, r4, lsl #2]
   23618:	0420      	lsls	r0, r4, #16
   2361a:	b142      	cbz	r2, 2362e <GPIO_INTHandler+0x5a>
   2361c:	4233      	tst	r3, r6
   2361e:	f040 0102 	orr.w	r1, r0, #2
   23622:	bf18      	it	ne
   23624:	f040 0101 	orrne.w	r1, r0, #1
   23628:	f859 0024 	ldr.w	r0, [r9, r4, lsl #2]
   2362c:	4790      	blx	r2
   2362e:	3401      	adds	r4, #1
   23630:	2c20      	cmp	r4, #32
   23632:	d1eb      	bne.n	2360c <GPIO_INTHandler+0x38>
   23634:	2000      	movs	r0, #0
   23636:	e8bd 83f8 	ldmia.w	sp!, {r3, r4, r5, r6, r7, r8, r9, pc}
   2363a:	4f10      	ldr	r7, [pc, #64]	; (2367c <GPIO_INTHandler+0xa8>)
   2363c:	2400      	movs	r4, #0
   2363e:	f8df 9048 	ldr.w	r9, [pc, #72]	; 23688 <GPIO_INTHandler+0xb4>
   23642:	f107 0880 	add.w	r8, r7, #128	; 0x80
   23646:	2301      	movs	r3, #1
   23648:	40a3      	lsls	r3, r4
   2364a:	422b      	tst	r3, r5
   2364c:	d00c      	beq.n	23668 <GPIO_INTHandler+0x94>
   2364e:	f857 2024 	ldr.w	r2, [r7, r4, lsl #2]
   23652:	0420      	lsls	r0, r4, #16
   23654:	b142      	cbz	r2, 23668 <GPIO_INTHandler+0x94>
   23656:	4233      	tst	r3, r6
   23658:	4909      	ldr	r1, [pc, #36]	; (23680 <GPIO_INTHandler+0xac>)
   2365a:	bf0c      	ite	eq
   2365c:	ea40 0109 	orreq.w	r1, r0, r9
   23660:	4301      	orrne	r1, r0
   23662:	f858 0024 	ldr.w	r0, [r8, r4, lsl #2]
   23666:	4790      	blx	r2
   23668:	3401      	adds	r4, #1
   2366a:	2c14      	cmp	r4, #20
   2366c:	d1eb      	bne.n	23646 <GPIO_INTHandler+0x72>
   2366e:	2000      	movs	r0, #0
   23670:	e8bd 83f8 	ldmia.w	sp!, {r3, r4, r5, r6, r7, r8, r9, pc}
   23674:	4101a000 	.word	0x4101a000
   23678:	4101a400 	.word	0x4101a400
   2367c:	200047e4 	.word	0x200047e4
   23680:	00200001 	.word	0x00200001
