
D:/0code/v03slave/Lite/project/realtek_amebaLite_va0_example/GCC-RELEASE/project_km4/asdk/image/target_rom.axf:     file format elf32-littlearm


Disassembly of section .rom.text:

00000000 <__vectors_table>:
       0:	30009ffc 	.word	0x30009ffc
       4:	0000b001 	.word	0x0000b001
       8:	0000b011 	.word	0x0000b011
       c:	0000b015 	.word	0x0000b015
      10:	0000b019 	.word	0x0000b019
      14:	0000b01d 	.word	0x0000b01d
      18:	0000b021 	.word	0x0000b021
      1c:	0000b025 	.word	0x0000b025
	...

00000140 <BOOT_ROM_OTFCheck>:
     140:	f24d 7359 	movw	r3, #55129	; 0xd759
     144:	2200      	movs	r2, #0
     146:	b5f0      	push	{r4, r5, r6, r7, lr}
     148:	b085      	sub	sp, #20
     14a:	f2c0 0300 	movt	r3, #0
     14e:	4604      	mov	r4, r0
     150:	460d      	mov	r5, r1
     152:	e9cd 2202 	strd	r2, r2, [sp, #8]
     156:	4798      	blx	r3
     158:	b908      	cbnz	r0, 15e <BOOT_ROM_OTFCheck+0x1e>
     15a:	b005      	add	sp, #20
     15c:	bdf0      	pop	{r4, r5, r6, r7, pc}
     15e:	2208      	movs	r2, #8
     160:	f241 3389 	movw	r3, #5001	; 0x1389
     164:	f104 0120 	add.w	r1, r4, #32
     168:	f2c0 0301 	movt	r3, #1
     16c:	eb0d 0002 	add.w	r0, sp, r2
     170:	4798      	blx	r3
     172:	69a4      	ldr	r4, [r4, #24]
     174:	2c40      	cmp	r4, #64	; 0x40
     176:	d9f0      	bls.n	15a <BOOT_ROM_OTFCheck+0x1a>
     178:	f105 4378 	add.w	r3, r5, #4160749568	; 0xf8000000
     17c:	f1b3 6f00 	cmp.w	r3, #134217728	; 0x8000000
     180:	d2eb      	bcs.n	15a <BOOT_ROM_OTFCheck+0x1a>
     182:	f244 0704 	movw	r7, #16388	; 0x4004
     186:	f2c2 0700 	movt	r7, #8192	; 0x2000
     18a:	683b      	ldr	r3, [r7, #0]
     18c:	039a      	lsls	r2, r3, #14
     18e:	d435      	bmi.n	1fc <BOOT_ROM_OTFCheck+0xbc>
     190:	f64d 0331 	movw	r3, #55345	; 0xd831
     194:	f2c0 0300 	movt	r3, #0
     198:	4798      	blx	r3
     19a:	4606      	mov	r6, r0
     19c:	b158      	cbz	r0, 1b6 <BOOT_ROM_OTFCheck+0x76>
     19e:	2801      	cmp	r0, #1
     1a0:	d00a      	beq.n	1b8 <BOOT_ROM_OTFCheck+0x78>
     1a2:	683b      	ldr	r3, [r7, #0]
     1a4:	039b      	lsls	r3, r3, #14
     1a6:	d5d8      	bpl.n	15a <BOOT_ROM_OTFCheck+0x1a>
     1a8:	f645 202c 	movw	r0, #23084	; 0x5a2c
     1ac:	f2c0 0004 	movt	r0, #4
     1b0:	f00f fd8a 	bl	fcc8 <DiagPrintf>
     1b4:	e7d1      	b.n	15a <BOOT_ROM_OTFCheck+0x1a>
     1b6:	2602      	movs	r6, #2
     1b8:	f245 73dd 	movw	r3, #22493	; 0x57dd
     1bc:	2002      	movs	r0, #2
     1be:	f2c0 0300 	movt	r3, #0
     1c2:	4798      	blx	r3
     1c4:	f245 73f1 	movw	r3, #22513	; 0x57f1
     1c8:	a902      	add	r1, sp, #8
     1ca:	2000      	movs	r0, #0
     1cc:	f2c0 0300 	movt	r3, #0
     1d0:	4798      	blx	r3
     1d2:	1c6a      	adds	r2, r5, #1
     1d4:	2000      	movs	r0, #0
     1d6:	4629      	mov	r1, r5
     1d8:	4422      	add	r2, r4
     1da:	f645 052d 	movw	r5, #22573	; 0x582d
     1de:	9000      	str	r0, [sp, #0]
     1e0:	2301      	movs	r3, #1
     1e2:	f022 021f 	bic.w	r2, r2, #31
     1e6:	f2c0 0500 	movt	r5, #0
     1ea:	9601      	str	r6, [sp, #4]
     1ec:	47a8      	blx	r5
     1ee:	f645 0311 	movw	r3, #22545	; 0x5811
     1f2:	2001      	movs	r0, #1
     1f4:	f2c0 0300 	movt	r3, #0
     1f8:	4798      	blx	r3
     1fa:	e7ae      	b.n	15a <BOOT_ROM_OTFCheck+0x1a>
     1fc:	f645 2020 	movw	r0, #23072	; 0x5a20
     200:	f2c0 0004 	movt	r0, #4
     204:	f00f fd60 	bl	fcc8 <DiagPrintf>
     208:	e7c2      	b.n	190 <BOOT_ROM_OTFCheck+0x50>
     20a:	bf00      	nop

0000020c <BOOT_ROM_OTPCheck>:
     20c:	b538      	push	{r3, r4, r5, lr}
     20e:	f04f 4482 	mov.w	r4, #1090519040	; 0x41000000
     212:	6b63      	ldr	r3, [r4, #52]	; 0x34
     214:	2b00      	cmp	r3, #0
     216:	db00      	blt.n	21a <BOOT_ROM_OTPCheck+0xe>
     218:	bd38      	pop	{r3, r4, r5, pc}
     21a:	f244 0504 	movw	r5, #16388	; 0x4004
     21e:	f2c2 0500 	movt	r5, #8192	; 0x2000
     222:	682b      	ldr	r3, [r5, #0]
     224:	039a      	lsls	r2, r3, #14
     226:	d407      	bmi.n	238 <BOOT_ROM_OTPCheck+0x2c>
     228:	f24b 249d 	movw	r4, #45725	; 0xb29d
     22c:	f2c0 0400 	movt	r4, #0
     230:	f44f 707a 	mov.w	r0, #1000	; 0x3e8
     234:	47a0      	blx	r4
     236:	e7fb      	b.n	230 <BOOT_ROM_OTPCheck+0x24>
     238:	6b21      	ldr	r1, [r4, #48]	; 0x30
     23a:	f645 2040 	movw	r0, #23104	; 0x5a40
     23e:	6b22      	ldr	r2, [r4, #48]	; 0x30
     240:	0c09      	lsrs	r1, r1, #16
     242:	f2c0 0004 	movt	r0, #4
     246:	b292      	uxth	r2, r2
     248:	f00f fd3e 	bl	fcc8 <DiagPrintf>
     24c:	682b      	ldr	r3, [r5, #0]
     24e:	039b      	lsls	r3, r3, #14
     250:	d5ea      	bpl.n	228 <BOOT_ROM_OTPCheck+0x1c>
     252:	6b61      	ldr	r1, [r4, #52]	; 0x34
     254:	f645 2068 	movw	r0, #23144	; 0x5a68
     258:	6b62      	ldr	r2, [r4, #52]	; 0x34
     25a:	f3c1 4103 	ubfx	r1, r1, #16, #4
     25e:	f2c0 0004 	movt	r0, #4
     262:	b292      	uxth	r2, r2
     264:	f00f fd30 	bl	fcc8 <DiagPrintf>
     268:	e7de      	b.n	228 <BOOT_ROM_OTPCheck+0x1c>
     26a:	bf00      	nop

0000026c <BOOT_ROM_PatchCmd>:
     26c:	e92d 41f0 	stmdb	sp!, {r4, r5, r6, r7, r8, lr}
     270:	7943      	ldrb	r3, [r0, #5]
     272:	4605      	mov	r5, r0
     274:	2bfb      	cmp	r3, #251	; 0xfb
     276:	d020      	beq.n	2ba <BOOT_ROM_PatchCmd+0x4e>
     278:	d90e      	bls.n	298 <BOOT_ROM_PatchCmd+0x2c>
     27a:	2bfc      	cmp	r3, #252	; 0xfc
     27c:	d02a      	beq.n	2d4 <BOOT_ROM_PatchCmd+0x68>
     27e:	2bfd      	cmp	r3, #253	; 0xfd
     280:	d157      	bne.n	332 <BOOT_ROM_PatchCmd+0xc6>
     282:	f24b 2325 	movw	r3, #45605	; 0xb225
     286:	68c0      	ldr	r0, [r0, #12]
     288:	f04f 0801 	mov.w	r8, #1
     28c:	f2c0 0300 	movt	r3, #0
     290:	4798      	blx	r3
     292:	4640      	mov	r0, r8
     294:	e8bd 81f0 	ldmia.w	sp!, {r4, r5, r6, r7, r8, pc}
     298:	b153      	cbz	r3, 2b0 <BOOT_ROM_PatchCmd+0x44>
     29a:	2bfa      	cmp	r3, #250	; 0xfa
     29c:	d149      	bne.n	332 <BOOT_ROM_PatchCmd+0xc6>
     29e:	f244 0304 	movw	r3, #16388	; 0x4004
     2a2:	6801      	ldr	r1, [r0, #0]
     2a4:	f2c2 0300 	movt	r3, #8192	; 0x2000
     2a8:	680a      	ldr	r2, [r1, #0]
     2aa:	681b      	ldr	r3, [r3, #0]
     2ac:	0398      	lsls	r0, r3, #14
     2ae:	d427      	bmi.n	300 <BOOT_ROM_PatchCmd+0x94>
     2b0:	f04f 0801 	mov.w	r8, #1
     2b4:	4640      	mov	r0, r8
     2b6:	e8bd 81f0 	ldmia.w	sp!, {r4, r5, r6, r7, r8, pc}
     2ba:	6801      	ldr	r1, [r0, #0]
     2bc:	f04f 0801 	mov.w	r8, #1
     2c0:	6880      	ldr	r0, [r0, #8]
     2c2:	680a      	ldr	r2, [r1, #0]
     2c4:	68eb      	ldr	r3, [r5, #12]
     2c6:	ea22 0200 	bic.w	r2, r2, r0
     2ca:	4640      	mov	r0, r8
     2cc:	4313      	orrs	r3, r2
     2ce:	600b      	str	r3, [r1, #0]
     2d0:	e8bd 81f0 	ldmia.w	sp!, {r4, r5, r6, r7, r8, pc}
     2d4:	f24b 2625 	movw	r6, #45605	; 0xb225
     2d8:	6807      	ldr	r7, [r0, #0]
     2da:	f44f 78fb 	mov.w	r8, #502	; 0x1f6
     2de:	f2c0 0600 	movt	r6, #0
     2e2:	e003      	b.n	2ec <BOOT_ROM_PatchCmd+0x80>
     2e4:	47b0      	blx	r6
     2e6:	f1b8 0801 	subs.w	r8, r8, #1
     2ea:	d012      	beq.n	312 <BOOT_ROM_PatchCmd+0xa6>
     2ec:	683a      	ldr	r2, [r7, #0]
     2ee:	200a      	movs	r0, #10
     2f0:	68ec      	ldr	r4, [r5, #12]
     2f2:	68ab      	ldr	r3, [r5, #8]
     2f4:	4014      	ands	r4, r2
     2f6:	42a3      	cmp	r3, r4
     2f8:	d1f4      	bne.n	2e4 <BOOT_ROM_PatchCmd+0x78>
     2fa:	f04f 0801 	mov.w	r8, #1
     2fe:	e7d9      	b.n	2b4 <BOOT_ROM_PatchCmd+0x48>
     300:	f645 2088 	movw	r0, #23176	; 0x5a88
     304:	f04f 0801 	mov.w	r8, #1
     308:	f2c0 0004 	movt	r0, #4
     30c:	f00f fcdc 	bl	fcc8 <DiagPrintf>
     310:	e7bf      	b.n	292 <BOOT_ROM_PatchCmd+0x26>
     312:	f244 0304 	movw	r3, #16388	; 0x4004
     316:	f2c2 0300 	movt	r3, #8192	; 0x2000
     31a:	681b      	ldr	r3, [r3, #0]
     31c:	039b      	lsls	r3, r3, #14
     31e:	d5b8      	bpl.n	292 <BOOT_ROM_PatchCmd+0x26>
     320:	f645 2094 	movw	r0, #23188	; 0x5a94
     324:	4622      	mov	r2, r4
     326:	4639      	mov	r1, r7
     328:	f2c0 0004 	movt	r0, #4
     32c:	f00f fccc 	bl	fcc8 <DiagPrintf>
     330:	e7af      	b.n	292 <BOOT_ROM_PatchCmd+0x26>
     332:	f04f 0800 	mov.w	r8, #0
     336:	e7ac      	b.n	292 <BOOT_ROM_PatchCmd+0x26>

00000338 <BOOT_ROM_PatchEntry>:
     338:	b538      	push	{r3, r4, r5, lr}
     33a:	f64d 035d 	movw	r3, #55389	; 0xd85d
     33e:	4605      	mov	r5, r0
     340:	f2c0 0300 	movt	r3, #0
     344:	4798      	blx	r3
     346:	b1b0      	cbz	r0, 376 <BOOT_ROM_PatchEntry+0x3e>
     348:	f44f 4340 	mov.w	r3, #49152	; 0xc000
     34c:	f2c4 1300 	movt	r3, #16640	; 0x4100
     350:	f8d3 4270 	ldr.w	r4, [r3, #624]	; 0x270
     354:	b17c      	cbz	r4, 376 <BOOT_ROM_PatchEntry+0x3e>
     356:	6823      	ldr	r3, [r4, #0]
     358:	3301      	adds	r3, #1
     35a:	d104      	bne.n	366 <BOOT_ROM_PatchEntry+0x2e>
     35c:	e00b      	b.n	376 <BOOT_ROM_PatchEntry+0x3e>
     35e:	f854 3f10 	ldr.w	r3, [r4, #16]!
     362:	3301      	adds	r3, #1
     364:	d007      	beq.n	376 <BOOT_ROM_PatchEntry+0x3e>
     366:	88e3      	ldrh	r3, [r4, #6]
     368:	42ab      	cmp	r3, r5
     36a:	d1f8      	bne.n	35e <BOOT_ROM_PatchEntry+0x26>
     36c:	4620      	mov	r0, r4
     36e:	f7ff ff7d 	bl	26c <BOOT_ROM_PatchCmd>
     372:	2800      	cmp	r0, #0
     374:	d1f3      	bne.n	35e <BOOT_ROM_PatchEntry+0x26>
     376:	2001      	movs	r0, #1
     378:	bd38      	pop	{r3, r4, r5, pc}
     37a:	bf00      	nop

0000037c <BOOT_ROM_SPUFlash>:
     37c:	f44f 4240 	mov.w	r2, #49152	; 0xc000
     380:	f24d 73c9 	movw	r3, #55241	; 0xd7c9
     384:	f2c4 1200 	movt	r2, #16640	; 0x4100
     388:	f2c0 0300 	movt	r3, #0
     38c:	b510      	push	{r4, lr}
     38e:	f8d2 4230 	ldr.w	r4, [r2, #560]	; 0x230
     392:	4798      	blx	r3
     394:	b1c0      	cbz	r0, 3c8 <BOOT_ROM_SPUFlash+0x4c>
     396:	f024 7400 	bic.w	r4, r4, #33554432	; 0x2000000
     39a:	f44f 4040 	mov.w	r0, #49152	; 0xc000
     39e:	f44f 6180 	mov.w	r1, #1024	; 0x400
     3a2:	f24d 33e5 	movw	r3, #54245	; 0xd3e5
     3a6:	2201      	movs	r2, #1
     3a8:	f2c4 1000 	movt	r0, #16640	; 0x4100
     3ac:	f2c0 0300 	movt	r3, #0
     3b0:	f8c0 4230 	str.w	r4, [r0, #560]	; 0x230
     3b4:	4608      	mov	r0, r1
     3b6:	4798      	blx	r3
     3b8:	f24d 5301 	movw	r3, #54529	; 0xd501
     3bc:	2002      	movs	r0, #2
     3be:	f2c0 0300 	movt	r3, #0
     3c2:	e8bd 4010 	ldmia.w	sp!, {r4, lr}
     3c6:	4718      	bx	r3
     3c8:	f044 7400 	orr.w	r4, r4, #33554432	; 0x2000000
     3cc:	e7e5      	b.n	39a <BOOT_ROM_SPUFlash+0x1e>
     3ce:	bf00      	nop

000003d0 <BOOT_ROM_InitFlash>:
     3d0:	b5f8      	push	{r3, r4, r5, r6, r7, lr}
     3d2:	f44f 4140 	mov.w	r1, #49152	; 0xc000
     3d6:	f244 0704 	movw	r7, #16388	; 0x4004
     3da:	f24d 72b9 	movw	r2, #55225	; 0xd7b9
     3de:	f2c4 1100 	movt	r1, #16640	; 0x4100
     3e2:	f2c2 0700 	movt	r7, #8192	; 0x2000
     3e6:	f2c0 0200 	movt	r2, #0
     3ea:	f8d1 6228 	ldr.w	r6, [r1, #552]	; 0x228
     3ee:	f8d1 522c 	ldr.w	r5, [r1, #556]	; 0x22c
     3f2:	4790      	blx	r2
     3f4:	683b      	ldr	r3, [r7, #0]
     3f6:	3001      	adds	r0, #1
     3f8:	f406 3600 	and.w	r6, r6, #131072	; 0x20000
     3fc:	f005 4570 	and.w	r5, r5, #4026531840	; 0xf0000000
     400:	0399      	lsls	r1, r3, #14
     402:	b2c4      	uxtb	r4, r0
     404:	f100 8087 	bmi.w	516 <BOOT_ROM_InitFlash+0x146>
     408:	3e00      	subs	r6, #0
     40a:	bf18      	it	ne
     40c:	2601      	movne	r6, #1
     40e:	f1b5 4f30 	cmp.w	r5, #2952790016	; 0xb0000000
     412:	d14d      	bne.n	4b0 <BOOT_ROM_InitFlash+0xe0>
     414:	2e00      	cmp	r6, #0
     416:	d04b      	beq.n	4b0 <BOOT_ROM_InitFlash+0xe0>
     418:	2000      	movs	r0, #0
     41a:	4606      	mov	r6, r0
     41c:	f24d 3309 	movw	r3, #54025	; 0xd309
     420:	2101      	movs	r1, #1
     422:	f244 0514 	movw	r5, #16404	; 0x4014
     426:	f2c0 0300 	movt	r3, #0
     42a:	4798      	blx	r3
     42c:	f240 1005 	movw	r0, #261	; 0x105
     430:	f2c2 0500 	movt	r5, #8192	; 0x2000
     434:	f7ff ff80 	bl	338 <BOOT_ROM_PatchEntry>
     438:	f64b 4309 	movw	r3, #48137	; 0xbc09
     43c:	4628      	mov	r0, r5
     43e:	f2c0 0300 	movt	r3, #0
     442:	4798      	blx	r3
     444:	f24d 73d9 	movw	r3, #55257	; 0xd7d9
     448:	f885 6066 	strb.w	r6, [r5, #102]	; 0x66
     44c:	f2c0 0300 	movt	r3, #0
     450:	716c      	strb	r4, [r5, #5]
     452:	71ac      	strb	r4, [r5, #6]
     454:	4798      	blx	r3
     456:	b128      	cbz	r0, 464 <BOOT_ROM_InitFlash+0x94>
     458:	2204      	movs	r2, #4
     45a:	683b      	ldr	r3, [r7, #0]
     45c:	f885 2064 	strb.w	r2, [r5, #100]	; 0x64
     460:	039a      	lsls	r2, r3, #14
     462:	d460      	bmi.n	526 <BOOT_ROM_InitFlash+0x156>
     464:	f240 1011 	movw	r0, #273	; 0x111
     468:	f7ff ff66 	bl	338 <BOOT_ROM_PatchEntry>
     46c:	f64b 43a1 	movw	r3, #48289	; 0xbca1
     470:	f2c0 0300 	movt	r3, #0
     474:	4798      	blx	r3
     476:	f64b 4385 	movw	r3, #48261	; 0xbc85
     47a:	2000      	movs	r0, #0
     47c:	f2c0 0300 	movt	r3, #0
     480:	4798      	blx	r3
     482:	f24d 73e9 	movw	r3, #55273	; 0xd7e9
     486:	f2c0 0300 	movt	r3, #0
     48a:	4798      	blx	r3
     48c:	b130      	cbz	r0, 49c <BOOT_ROM_InitFlash+0xcc>
     48e:	f44f 4340 	mov.w	r3, #49152	; 0xc000
     492:	f2c4 1300 	movt	r3, #16640	; 0x4100
     496:	6a1b      	ldr	r3, [r3, #32]
     498:	061b      	lsls	r3, r3, #24
     49a:	d435      	bmi.n	508 <BOOT_ROM_InitFlash+0x138>
     49c:	f895 3064 	ldrb.w	r3, [r5, #100]	; 0x64
     4a0:	2b04      	cmp	r3, #4
     4a2:	d018      	beq.n	4d6 <BOOT_ROM_InitFlash+0x106>
     4a4:	f44f 7091 	mov.w	r0, #290	; 0x122
     4a8:	e8bd 40f8 	ldmia.w	sp!, {r3, r4, r5, r6, r7, lr}
     4ac:	f7ff bf44 	b.w	338 <BOOT_ROM_PatchEntry>
     4b0:	f1b5 4f10 	cmp.w	r5, #2415919104	; 0x90000000
     4b4:	d13e      	bne.n	534 <BOOT_ROM_InitFlash+0x164>
     4b6:	2e00      	cmp	r6, #0
     4b8:	d03c      	beq.n	534 <BOOT_ROM_InitFlash+0x164>
     4ba:	f24d 23ad 	movw	r3, #53933	; 0xd2ad
     4be:	2000      	movs	r0, #0
     4c0:	f2c0 0300 	movt	r3, #0
     4c4:	4798      	blx	r3
     4c6:	2101      	movs	r1, #1
     4c8:	f24d 3309 	movw	r3, #54025	; 0xd309
     4cc:	4608      	mov	r0, r1
     4ce:	f2c0 0300 	movt	r3, #0
     4d2:	4798      	blx	r3
     4d4:	e7fe      	b.n	4d4 <BOOT_ROM_InitFlash+0x104>
     4d6:	f64b 13a5 	movw	r3, #47525	; 0xb9a5
     4da:	f2c0 0300 	movt	r3, #0
     4de:	4798      	blx	r3
     4e0:	2200      	movs	r2, #0
     4e2:	f24b 6369 	movw	r3, #46697	; 0xb669
     4e6:	20b7      	movs	r0, #183	; 0xb7
     4e8:	4611      	mov	r1, r2
     4ea:	f2c0 0300 	movt	r3, #0
     4ee:	4798      	blx	r3
     4f0:	f64b 131d 	movw	r3, #47389	; 0xb91d
     4f4:	2001      	movs	r0, #1
     4f6:	f2c0 0300 	movt	r3, #0
     4fa:	4798      	blx	r3
     4fc:	f44f 7091 	mov.w	r0, #290	; 0x122
     500:	e8bd 40f8 	ldmia.w	sp!, {r3, r4, r5, r6, r7, lr}
     504:	f7ff bf18 	b.w	338 <BOOT_ROM_PatchEntry>
     508:	f64b 03c9 	movw	r3, #47305	; 0xb8c9
     50c:	2000      	movs	r0, #0
     50e:	f2c0 0300 	movt	r3, #0
     512:	4798      	blx	r3
     514:	e7c2      	b.n	49c <BOOT_ROM_InitFlash+0xcc>
     516:	f645 20ac 	movw	r0, #23212	; 0x5aac
     51a:	4621      	mov	r1, r4
     51c:	f2c0 0004 	movt	r0, #4
     520:	f00f fbd2 	bl	fcc8 <DiagPrintf>
     524:	e770      	b.n	408 <BOOT_ROM_InitFlash+0x38>
     526:	f645 20bc 	movw	r0, #23228	; 0x5abc
     52a:	f2c0 0004 	movt	r0, #4
     52e:	f00f fbcb 	bl	fcc8 <DiagPrintf>
     532:	e797      	b.n	464 <BOOT_ROM_InitFlash+0x94>
     534:	2001      	movs	r0, #1
     536:	4606      	mov	r6, r0
     538:	e770      	b.n	41c <BOOT_ROM_InitFlash+0x4c>
     53a:	bf00      	nop

0000053c <BOOT_ROM_LoadImage>:
     53c:	e92d 4ff0 	stmdb	sp!, {r4, r5, r6, r7, r8, r9, sl, fp, lr}
     540:	b085      	sub	sp, #20
     542:	9201      	str	r2, [sp, #4]
     544:	2a00      	cmp	r2, #0
     546:	f000 8086 	beq.w	656 <BOOT_ROM_LoadImage+0x11a>
     54a:	f645 73e0 	movw	r3, #24544	; 0x5fe0
     54e:	f245 39ec 	movw	r9, #21484	; 0x53ec
     552:	f64f 7ae0 	movw	sl, #65504	; 0xffe0
     556:	4680      	mov	r8, r0
     558:	f6cc 73ff 	movt	r3, #53247	; 0xcfff
     55c:	460c      	mov	r4, r1
     55e:	2600      	movs	r6, #0
     560:	f2c0 0904 	movt	r9, #4
     564:	9302      	str	r3, [sp, #8]
     566:	f44f 43c0 	mov.w	r3, #24576	; 0x6000
     56a:	f2cf 7aff 	movt	sl, #63487	; 0xf7ff
     56e:	f6cc 73ff 	movt	r3, #53247	; 0xcfff
     572:	9303      	str	r3, [sp, #12]
     574:	6822      	ldr	r2, [r4, #0]
     576:	f8d9 3000 	ldr.w	r3, [r9]
     57a:	e9d4 5102 	ldrd	r5, r1, [r4, #8]
     57e:	429a      	cmp	r2, r3
     580:	f1a1 0720 	sub.w	r7, r1, #32
     584:	f105 0520 	add.w	r5, r5, #32
     588:	d10f      	bne.n	5aa <BOOT_ROM_LoadImage+0x6e>
     58a:	6862      	ldr	r2, [r4, #4]
     58c:	f8d9 3004 	ldr.w	r3, [r9, #4]
     590:	429a      	cmp	r2, r3
     592:	d10a      	bne.n	5aa <BOOT_ROM_LoadImage+0x6e>
     594:	eb01 030a 	add.w	r3, r1, sl
     598:	f1b3 6f00 	cmp.w	r3, #134217728	; 0x8000000
     59c:	d20b      	bcs.n	5b6 <BOOT_ROM_LoadImage+0x7a>
     59e:	197b      	adds	r3, r7, r5
     5a0:	f103 4378 	add.w	r3, r3, #4160749568	; 0xf8000000
     5a4:	f1b3 6f00 	cmp.w	r3, #134217728	; 0x8000000
     5a8:	d347      	bcc.n	63a <BOOT_ROM_LoadImage+0xfe>
     5aa:	2001      	movs	r0, #1
     5ac:	f6cf 70ff 	movt	r0, #65535	; 0xffff
     5b0:	b005      	add	sp, #20
     5b2:	e8bd 8ff0 	ldmia.w	sp!, {r4, r5, r6, r7, r8, r9, sl, fp, pc}
     5b6:	9b02      	ldr	r3, [sp, #8]
     5b8:	4419      	add	r1, r3
     5ba:	f5b1 3fc0 	cmp.w	r1, #98304	; 0x18000
     5be:	d2f4      	bcs.n	5aa <BOOT_ROM_LoadImage+0x6e>
     5c0:	eb07 0b05 	add.w	fp, r7, r5
     5c4:	9b03      	ldr	r3, [sp, #12]
     5c6:	445b      	add	r3, fp
     5c8:	f5b3 3fc0 	cmp.w	r3, #98304	; 0x18000
     5cc:	d2ed      	bcs.n	5aa <BOOT_ROM_LoadImage+0x6e>
     5ce:	f241 3389 	movw	r3, #5001	; 0x1389
     5d2:	4621      	mov	r1, r4
     5d4:	462a      	mov	r2, r5
     5d6:	4638      	mov	r0, r7
     5d8:	f2c0 0301 	movt	r3, #1
     5dc:	4798      	blx	r3
     5de:	f44f 416d 	mov.w	r1, #60672	; 0xed00
     5e2:	f2ce 0100 	movt	r1, #57344	; 0xe000
     5e6:	694b      	ldr	r3, [r1, #20]
     5e8:	03db      	lsls	r3, r3, #15
     5ea:	d526      	bpl.n	63a <BOOT_ROM_LoadImage+0xfe>
     5ec:	ea07 0305 	and.w	r3, r7, r5
     5f0:	3301      	adds	r3, #1
     5f2:	d034      	beq.n	65e <BOOT_ROM_LoadImage+0x122>
     5f4:	06fa      	lsls	r2, r7, #27
     5f6:	d054      	beq.n	6a2 <BOOT_ROM_LoadImage+0x166>
     5f8:	f10b 33ff 	add.w	r3, fp, #4294967295
     5fc:	f027 021f 	bic.w	r2, r7, #31
     600:	f023 031f 	bic.w	r3, r3, #31
     604:	3320      	adds	r3, #32
     606:	1a9b      	subs	r3, r3, r2
     608:	f3bf 8f4f 	dsb	sy
     60c:	2b00      	cmp	r3, #0
     60e:	dd10      	ble.n	632 <BOOT_ROM_LoadImage+0xf6>
     610:	1e59      	subs	r1, r3, #1
     612:	f44f 406d 	mov.w	r0, #60672	; 0xed00
     616:	f102 0320 	add.w	r3, r2, #32
     61a:	f021 011f 	bic.w	r1, r1, #31
     61e:	f2ce 0000 	movt	r0, #57344	; 0xe000
     622:	4419      	add	r1, r3
     624:	4299      	cmp	r1, r3
     626:	f8c0 2270 	str.w	r2, [r0, #624]	; 0x270
     62a:	461a      	mov	r2, r3
     62c:	f103 0320 	add.w	r3, r3, #32
     630:	d1f8      	bne.n	624 <BOOT_ROM_LoadImage+0xe8>
     632:	f3bf 8f4f 	dsb	sy
     636:	f3bf 8f6f 	isb	sy
     63a:	f1b8 0f00 	cmp.w	r8, #0
     63e:	d005      	beq.n	64c <BOOT_ROM_LoadImage+0x110>
     640:	f108 0304 	add.w	r3, r8, #4
     644:	f848 7036 	str.w	r7, [r8, r6, lsl #3]
     648:	f843 5036 	str.w	r5, [r3, r6, lsl #3]
     64c:	3601      	adds	r6, #1
     64e:	9b01      	ldr	r3, [sp, #4]
     650:	442c      	add	r4, r5
     652:	429e      	cmp	r6, r3
     654:	d18e      	bne.n	574 <BOOT_ROM_LoadImage+0x38>
     656:	2000      	movs	r0, #0
     658:	b005      	add	sp, #20
     65a:	e8bd 8ff0 	ldmia.w	sp!, {r4, r5, r6, r7, r8, r9, sl, fp, pc}
     65e:	2300      	movs	r3, #0
     660:	f8c1 3084 	str.w	r3, [r1, #132]	; 0x84
     664:	f3bf 8f4f 	dsb	sy
     668:	f8d1 3080 	ldr.w	r3, [r1, #128]	; 0x80
     66c:	f643 7be0 	movw	fp, #16352	; 0x3fe0
     670:	f3c3 3c4e 	ubfx	ip, r3, #13, #15
     674:	f3c3 0ec9 	ubfx	lr, r3, #3, #10
     678:	ea4f 1c4c 	mov.w	ip, ip, lsl #5
     67c:	ea0c 000b 	and.w	r0, ip, fp
     680:	4673      	mov	r3, lr
     682:	ea40 7283 	orr.w	r2, r0, r3, lsl #30
     686:	3b01      	subs	r3, #1
     688:	f8c1 2274 	str.w	r2, [r1, #628]	; 0x274
     68c:	d2f9      	bcs.n	682 <BOOT_ROM_LoadImage+0x146>
     68e:	f1ac 0c20 	sub.w	ip, ip, #32
     692:	f11c 0f20 	cmn.w	ip, #32
     696:	d1f1      	bne.n	67c <BOOT_ROM_LoadImage+0x140>
     698:	f3bf 8f4f 	dsb	sy
     69c:	f3bf 8f6f 	isb	sy
     6a0:	e7cb      	b.n	63a <BOOT_ROM_LoadImage+0xfe>
     6a2:	462b      	mov	r3, r5
     6a4:	463a      	mov	r2, r7
     6a6:	e7af      	b.n	608 <BOOT_ROM_LoadImage+0xcc>

000006a8 <BOOT_ROM_SignatureCheck>:
     6a8:	f64d 038d 	movw	r3, #55437	; 0xd88d
     6ac:	b570      	push	{r4, r5, r6, lr}
     6ae:	f2c0 0300 	movt	r3, #0
     6b2:	b088      	sub	sp, #32
     6b4:	4604      	mov	r4, r0
     6b6:	460d      	mov	r5, r1
     6b8:	4616      	mov	r6, r2
     6ba:	4798      	blx	r3
     6bc:	b380      	cbz	r0, 720 <BOOT_ROM_SignatureCheck+0x78>
     6be:	f240 03f1 	movw	r3, #241	; 0xf1
     6c2:	f2c0 0301 	movt	r3, #1
     6c6:	4798      	blx	r3
     6c8:	f000 0c1f 	and.w	ip, r0, #31
     6cc:	f44f 60e4 	mov.w	r0, #1824	; 0x720
     6d0:	f04f 0e20 	mov.w	lr, #32
     6d4:	2200      	movs	r2, #0
     6d6:	f2c4 1000 	movt	r0, #16640	; 0x4100
     6da:	f81c 3000 	ldrb.w	r3, [ip, r0]
     6de:	a908      	add	r1, sp, #32
     6e0:	f10e 3eff 	add.w	lr, lr, #4294967295
     6e4:	b2db      	uxtb	r3, r3
     6e6:	4461      	add	r1, ip
     6e8:	f10c 0c01 	add.w	ip, ip, #1
     6ec:	2bff      	cmp	r3, #255	; 0xff
     6ee:	f801 3c20 	strb.w	r3, [r1, #-32]
     6f2:	f00c 0c1f 	and.w	ip, ip, #31
     6f6:	bf18      	it	ne
     6f8:	2201      	movne	r2, #1
     6fa:	f01e 0eff 	ands.w	lr, lr, #255	; 0xff
     6fe:	d1ec      	bne.n	6da <BOOT_ROM_SignatureCheck+0x32>
     700:	b1a2      	cbz	r2, 72c <BOOT_ROM_SignatureCheck+0x84>
     702:	f244 0304 	movw	r3, #16388	; 0x4004
     706:	f2c2 0300 	movt	r3, #8192	; 0x2000
     70a:	681b      	ldr	r3, [r3, #0]
     70c:	039b      	lsls	r3, r3, #14
     70e:	d42b      	bmi.n	768 <BOOT_ROM_SignatureCheck+0xc0>
     710:	4633      	mov	r3, r6
     712:	462a      	mov	r2, r5
     714:	4621      	mov	r1, r4
     716:	4668      	mov	r0, sp
     718:	f002 fd70 	bl	31fc <SBOOT_SignatureVerify>
     71c:	b008      	add	sp, #32
     71e:	bd70      	pop	{r4, r5, r6, pc}
     720:	f24d 7379 	movw	r3, #55161	; 0xd779
     724:	f2c0 0300 	movt	r3, #0
     728:	4798      	blx	r3
     72a:	b910      	cbnz	r0, 732 <BOOT_ROM_SignatureCheck+0x8a>
     72c:	2000      	movs	r0, #0
     72e:	b008      	add	sp, #32
     730:	bd70      	pop	{r4, r5, r6, pc}
     732:	f240 03f1 	movw	r3, #241	; 0xf1
     736:	f2c0 0301 	movt	r3, #1
     73a:	4798      	blx	r3
     73c:	f44f 7c48 	mov.w	ip, #800	; 0x320
     740:	2320      	movs	r3, #32
     742:	f000 001f 	and.w	r0, r0, #31
     746:	f2c4 1c00 	movt	ip, #16640	; 0x4100
     74a:	aa08      	add	r2, sp, #32
     74c:	3b01      	subs	r3, #1
     74e:	f810 100c 	ldrb.w	r1, [r0, ip]
     752:	4402      	add	r2, r0
     754:	f013 03ff 	ands.w	r3, r3, #255	; 0xff
     758:	f100 0001 	add.w	r0, r0, #1
     75c:	f802 1c20 	strb.w	r1, [r2, #-32]
     760:	f000 001f 	and.w	r0, r0, #31
     764:	d1f1      	bne.n	74a <BOOT_ROM_SignatureCheck+0xa2>
     766:	e7cc      	b.n	702 <BOOT_ROM_SignatureCheck+0x5a>
     768:	f645 20d0 	movw	r0, #23248	; 0x5ad0
     76c:	f2c0 0004 	movt	r0, #4
     770:	f00f faaa 	bl	fcc8 <DiagPrintf>
     774:	e7cc      	b.n	710 <BOOT_ROM_SignatureCheck+0x68>
     776:	bf00      	nop

00000778 <BOOT_ROM_LoaderEntry>:
     778:	f649 73fc 	movw	r3, #40956	; 0x9ffc
     77c:	f2c3 0300 	movt	r3, #12288	; 0x3000
     780:	f383 8808 	msr	MSP, r3
     784:	f24a 0320 	movw	r3, #40992	; 0xa020
     788:	f2c3 0300 	movt	r3, #12288	; 0x3000
     78c:	695a      	ldr	r2, [r3, #20]
     78e:	b102      	cbz	r2, 792 <BOOT_ROM_LoaderEntry+0x1a>
     790:	4710      	bx	r2
     792:	681b      	ldr	r3, [r3, #0]
     794:	4718      	bx	r3
     796:	bf00      	nop

00000798 <BOOT_ROM_KeyDeriveFunc>:
     798:	e92d 4ff0 	stmdb	sp!, {r4, r5, r6, r7, r8, r9, sl, fp, lr}
     79c:	4689      	mov	r9, r1
     79e:	f24d 35e5 	movw	r5, #54245	; 0xd3e5
     7a2:	f44f 7100 	mov.w	r1, #512	; 0x200
     7a6:	4614      	mov	r4, r2
     7a8:	f2c0 0500 	movt	r5, #0
     7ac:	2201      	movs	r2, #1
     7ae:	4680      	mov	r8, r0
     7b0:	4608      	mov	r0, r1
     7b2:	461e      	mov	r6, r3
     7b4:	ed2d 8b02 	vpush	{d8}
     7b8:	b0e3      	sub	sp, #396	; 0x18c
     7ba:	9f6e      	ldr	r7, [sp, #440]	; 0x1b8
     7bc:	f8dd b1c0 	ldr.w	fp, [sp, #448]	; 0x1c0
     7c0:	47a8      	blx	r5
     7c2:	2180      	movs	r1, #128	; 0x80
     7c4:	2201      	movs	r2, #1
     7c6:	4608      	mov	r0, r1
     7c8:	47a8      	blx	r5
     7ca:	f242 035d 	movw	r3, #8285	; 0x205d
     7ce:	2000      	movs	r0, #0
     7d0:	f2c0 0300 	movt	r3, #0
     7d4:	4798      	blx	r3
     7d6:	22e0      	movs	r2, #224	; 0xe0
     7d8:	2100      	movs	r1, #0
     7da:	a82a      	add	r0, sp, #168	; 0xa8
     7dc:	f011 f844 	bl	11868 <__wrap_memset>
     7e0:	4620      	mov	r0, r4
     7e2:	f011 f855 	bl	11890 <__wrap_strlen>
     7e6:	f100 0a20 	add.w	sl, r0, #32
     7ea:	eb0a 0307 	add.w	r3, sl, r7
     7ee:	2b80      	cmp	r3, #128	; 0x80
     7f0:	f200 80fd 	bhi.w	9ee <BOOT_ROM_KeyDeriveFunc+0x256>
     7f4:	ab0a      	add	r3, sp, #40	; 0x28
     7f6:	4602      	mov	r2, r0
     7f8:	4621      	mov	r1, r4
     7fa:	19c4      	adds	r4, r0, r7
     7fc:	ee08 3a10 	vmov	s16, r3
     800:	a812      	add	r0, sp, #72	; 0x48
     802:	f011 f835 	bl	11870 <__wrap_memcpy>
     806:	463a      	mov	r2, r7
     808:	ee18 3a10 	vmov	r3, s16
     80c:	4631      	mov	r1, r6
     80e:	eb03 000a 	add.w	r0, r3, sl
     812:	f245 0a6d 	movw	sl, #20589	; 0x506d
     816:	f011 f82b 	bl	11870 <__wrap_memcpy>
     81a:	f644 4381 	movw	r3, #19585	; 0x4c81
     81e:	464a      	mov	r2, r9
     820:	4641      	mov	r1, r8
     822:	f2c0 0300 	movt	r3, #0
     826:	2020      	movs	r0, #32
     828:	f2c0 0a00 	movt	sl, #0
     82c:	461d      	mov	r5, r3
     82e:	9301      	str	r3, [sp, #4]
     830:	ab2a      	add	r3, sp, #168	; 0xa8
     832:	47a8      	blx	r5
     834:	4621      	mov	r1, r4
     836:	aa2a      	add	r2, sp, #168	; 0xa8
     838:	a812      	add	r0, sp, #72	; 0x48
     83a:	47d0      	blx	sl
     83c:	f245 03d9 	movw	r3, #20697	; 0x50d9
     840:	a92a      	add	r1, sp, #168	; 0xa8
     842:	ee18 0a10 	vmov	r0, s16
     846:	f2c0 0300 	movt	r3, #0
     84a:	9300      	str	r3, [sp, #0]
     84c:	4798      	blx	r3
     84e:	f1bb 0f00 	cmp.w	fp, #0
     852:	f000 80ca 	beq.w	9ea <BOOT_ROM_KeyDeriveFunc+0x252>
     856:	f104 0320 	add.w	r3, r4, #32
     85a:	af02      	add	r7, sp, #8
     85c:	2600      	movs	r6, #0
     85e:	ee08 3a90 	vmov	s17, r3
     862:	9b6f      	ldr	r3, [sp, #444]	; 0x1bc
     864:	425c      	negs	r4, r3
     866:	463b      	mov	r3, r7
     868:	4657      	mov	r7, sl
     86a:	469a      	mov	sl, r3
     86c:	22e0      	movs	r2, #224	; 0xe0
     86e:	2100      	movs	r1, #0
     870:	a82a      	add	r0, sp, #168	; 0xa8
     872:	3620      	adds	r6, #32
     874:	f010 fff8 	bl	11868 <__wrap_memset>
     878:	ab2a      	add	r3, sp, #168	; 0xa8
     87a:	464a      	mov	r2, r9
     87c:	4641      	mov	r1, r8
     87e:	9d01      	ldr	r5, [sp, #4]
     880:	2020      	movs	r0, #32
     882:	47a8      	blx	r5
     884:	aa2a      	add	r2, sp, #168	; 0xa8
     886:	ee18 1a90 	vmov	r1, s17
     88a:	ee18 0a10 	vmov	r0, s16
     88e:	47b8      	blx	r7
     890:	9b00      	ldr	r3, [sp, #0]
     892:	a92a      	add	r1, sp, #168	; 0xa8
     894:	4650      	mov	r0, sl
     896:	4798      	blx	r3
     898:	22e0      	movs	r2, #224	; 0xe0
     89a:	2100      	movs	r1, #0
     89c:	a82a      	add	r0, sp, #168	; 0xa8
     89e:	f010 ffe3 	bl	11868 <__wrap_memset>
     8a2:	aa2a      	add	r2, sp, #168	; 0xa8
     8a4:	4641      	mov	r1, r8
     8a6:	2020      	movs	r0, #32
     8a8:	4613      	mov	r3, r2
     8aa:	9d01      	ldr	r5, [sp, #4]
     8ac:	464a      	mov	r2, r9
     8ae:	47a8      	blx	r5
     8b0:	aa2a      	add	r2, sp, #168	; 0xa8
     8b2:	2120      	movs	r1, #32
     8b4:	ee18 0a10 	vmov	r0, s16
     8b8:	47b8      	blx	r7
     8ba:	a92a      	add	r1, sp, #168	; 0xa8
     8bc:	ee18 0a10 	vmov	r0, s16
     8c0:	9b00      	ldr	r3, [sp, #0]
     8c2:	4798      	blx	r3
     8c4:	455e      	cmp	r6, fp
     8c6:	d864      	bhi.n	992 <BOOT_ROM_KeyDeriveFunc+0x1fa>
     8c8:	2020      	movs	r0, #32
     8ca:	4652      	mov	r2, sl
     8cc:	4263      	negs	r3, r4
     8ce:	f812 1b01 	ldrb.w	r1, [r2], #1
     8d2:	f803 1b01 	strb.w	r1, [r3], #1
     8d6:	1919      	adds	r1, r3, r4
     8d8:	4288      	cmp	r0, r1
     8da:	d8f8      	bhi.n	8ce <BOOT_ROM_KeyDeriveFunc+0x136>
     8dc:	455e      	cmp	r6, fp
     8de:	f1a4 0420 	sub.w	r4, r4, #32
     8e2:	d3c3      	bcc.n	86c <BOOT_ROM_KeyDeriveFunc+0xd4>
     8e4:	4657      	mov	r7, sl
     8e6:	f241 5451 	movw	r4, #5457	; 0x1551
     8ea:	2280      	movs	r2, #128	; 0x80
     8ec:	2100      	movs	r1, #0
     8ee:	ee18 0a10 	vmov	r0, s16
     8f2:	f2c0 0401 	movt	r4, #1
     8f6:	47a0      	blx	r4
     8f8:	2220      	movs	r2, #32
     8fa:	2100      	movs	r1, #0
     8fc:	4638      	mov	r0, r7
     8fe:	47a0      	blx	r4
     900:	f44f 436d 	mov.w	r3, #60672	; 0xed00
     904:	f2ce 0300 	movt	r3, #57344	; 0xe000
     908:	695b      	ldr	r3, [r3, #20]
     90a:	03db      	lsls	r3, r3, #15
     90c:	d51b      	bpl.n	946 <BOOT_ROM_KeyDeriveFunc+0x1ae>
     90e:	ee18 3a10 	vmov	r3, s16
     912:	f013 0f18 	tst.w	r3, #24
     916:	d157      	bne.n	9c8 <BOOT_ROM_KeyDeriveFunc+0x230>
     918:	f3bf 8f4f 	dsb	sy
     91c:	2280      	movs	r2, #128	; 0x80
     91e:	ee18 5a10 	vmov	r5, s16
     922:	f44f 416d 	mov.w	r1, #60672	; 0xed00
     926:	f105 0320 	add.w	r3, r5, #32
     92a:	442a      	add	r2, r5
     92c:	f2ce 0100 	movt	r1, #57344	; 0xe000
     930:	429a      	cmp	r2, r3
     932:	f8c1 5270 	str.w	r5, [r1, #624]	; 0x270
     936:	461d      	mov	r5, r3
     938:	f103 0320 	add.w	r3, r3, #32
     93c:	d1f8      	bne.n	930 <BOOT_ROM_KeyDeriveFunc+0x198>
     93e:	f3bf 8f4f 	dsb	sy
     942:	f3bf 8f6f 	isb	sy
     946:	f44f 436d 	mov.w	r3, #60672	; 0xed00
     94a:	f2ce 0300 	movt	r3, #57344	; 0xe000
     94e:	6958      	ldr	r0, [r3, #20]
     950:	f410 3080 	ands.w	r0, r0, #65536	; 0x10000
     954:	d018      	beq.n	988 <BOOT_ROM_KeyDeriveFunc+0x1f0>
     956:	f017 0f18 	tst.w	r7, #24
     95a:	d123      	bne.n	9a4 <BOOT_ROM_KeyDeriveFunc+0x20c>
     95c:	f3bf 8f4f 	dsb	sy
     960:	2220      	movs	r2, #32
     962:	f44f 416d 	mov.w	r1, #60672	; 0xed00
     966:	f107 0320 	add.w	r3, r7, #32
     96a:	443a      	add	r2, r7
     96c:	f2ce 0100 	movt	r1, #57344	; 0xe000
     970:	4293      	cmp	r3, r2
     972:	f8c1 7270 	str.w	r7, [r1, #624]	; 0x270
     976:	461f      	mov	r7, r3
     978:	f103 0320 	add.w	r3, r3, #32
     97c:	d1f8      	bne.n	970 <BOOT_ROM_KeyDeriveFunc+0x1d8>
     97e:	f3bf 8f4f 	dsb	sy
     982:	f3bf 8f6f 	isb	sy
     986:	2000      	movs	r0, #0
     988:	b063      	add	sp, #396	; 0x18c
     98a:	ecbd 8b02 	vpop	{d8}
     98e:	e8bd 8ff0 	ldmia.w	sp!, {r4, r5, r6, r7, r8, r9, sl, fp, pc}
     992:	f01b 001f 	ands.w	r0, fp, #31
     996:	d198      	bne.n	8ca <BOOT_ROM_KeyDeriveFunc+0x132>
     998:	455e      	cmp	r6, fp
     99a:	f1a4 0420 	sub.w	r4, r4, #32
     99e:	f4ff af65 	bcc.w	86c <BOOT_ROM_KeyDeriveFunc+0xd4>
     9a2:	e79f      	b.n	8e4 <BOOT_ROM_KeyDeriveFunc+0x14c>
     9a4:	f10d 0227 	add.w	r2, sp, #39	; 0x27
     9a8:	f027 071f 	bic.w	r7, r7, #31
     9ac:	f022 021f 	bic.w	r2, r2, #31
     9b0:	3220      	adds	r2, #32
     9b2:	1bd2      	subs	r2, r2, r7
     9b4:	f3bf 8f4f 	dsb	sy
     9b8:	2a00      	cmp	r2, #0
     9ba:	dcd2      	bgt.n	962 <BOOT_ROM_KeyDeriveFunc+0x1ca>
     9bc:	f3bf 8f4f 	dsb	sy
     9c0:	f3bf 8f6f 	isb	sy
     9c4:	2000      	movs	r0, #0
     9c6:	e7df      	b.n	988 <BOOT_ROM_KeyDeriveFunc+0x1f0>
     9c8:	f10d 02a7 	add.w	r2, sp, #167	; 0xa7
     9cc:	f023 051f 	bic.w	r5, r3, #31
     9d0:	f022 021f 	bic.w	r2, r2, #31
     9d4:	3220      	adds	r2, #32
     9d6:	1b52      	subs	r2, r2, r5
     9d8:	f3bf 8f4f 	dsb	sy
     9dc:	2a00      	cmp	r2, #0
     9de:	dca0      	bgt.n	922 <BOOT_ROM_KeyDeriveFunc+0x18a>
     9e0:	f3bf 8f4f 	dsb	sy
     9e4:	f3bf 8f6f 	isb	sy
     9e8:	e7ad      	b.n	946 <BOOT_ROM_KeyDeriveFunc+0x1ae>
     9ea:	af02      	add	r7, sp, #8
     9ec:	e77b      	b.n	8e6 <BOOT_ROM_KeyDeriveFunc+0x14e>
     9ee:	f04f 30ff 	mov.w	r0, #4294967295
     9f2:	e7c9      	b.n	988 <BOOT_ROM_KeyDeriveFunc+0x1f0>

000009f4 <BOOT_ROM_HUKDerive>:
     9f4:	f64d 0349 	movw	r3, #55369	; 0xd849
     9f8:	e92d 41f0 	stmdb	sp!, {r4, r5, r6, r7, r8, lr}
     9fc:	f2c0 0300 	movt	r3, #0
     a00:	b088      	sub	sp, #32
     a02:	4607      	mov	r7, r0
     a04:	460d      	mov	r5, r1
     a06:	4616      	mov	r6, r2
     a08:	4798      	blx	r3
     a0a:	2800      	cmp	r0, #0
     a0c:	d059      	beq.n	ac2 <BOOT_ROM_HUKDerive+0xce>
     a0e:	f44f 4340 	mov.w	r3, #49152	; 0xc000
     a12:	f2c4 1300 	movt	r3, #16640	; 0x4100
     a16:	f8d3 8230 	ldr.w	r8, [r3, #560]	; 0x230
     a1a:	f018 0f01 	tst.w	r8, #1
     a1e:	d150      	bne.n	ac2 <BOOT_ROM_HUKDerive+0xce>
     a20:	f240 322f 	movw	r2, #815	; 0x32f
     a24:	ac04      	add	r4, sp, #16
     a26:	f10d 0c1f 	add.w	ip, sp, #31
     a2a:	f2c4 1200 	movt	r2, #16640	; 0x4100
     a2e:	446a      	add	r2, sp
     a30:	eba2 030c 	sub.w	r3, r2, ip
     a34:	46e6      	mov	lr, ip
     a36:	f10c 3cff 	add.w	ip, ip, #4294967295
     a3a:	781b      	ldrb	r3, [r3, #0]
     a3c:	45a6      	cmp	lr, r4
     a3e:	f88c 3001 	strb.w	r3, [ip, #1]
     a42:	d1f5      	bne.n	a30 <BOOT_ROM_HUKDerive+0x3c>
     a44:	2204      	movs	r2, #4
     a46:	463b      	mov	r3, r7
     a48:	2110      	movs	r1, #16
     a4a:	4620      	mov	r0, r4
     a4c:	9602      	str	r6, [sp, #8]
     a4e:	e9cd 2500 	strd	r2, r5, [sp]
     a52:	f645 22e0 	movw	r2, #23264	; 0x5ae0
     a56:	f241 5551 	movw	r5, #5457	; 0x1551
     a5a:	f2c0 0204 	movt	r2, #4
     a5e:	f2c0 0501 	movt	r5, #1
     a62:	f7ff fe99 	bl	798 <BOOT_ROM_KeyDeriveFunc>
     a66:	f44f 4140 	mov.w	r1, #49152	; 0xc000
     a6a:	f048 0301 	orr.w	r3, r8, #1
     a6e:	2210      	movs	r2, #16
     a70:	f2c4 1100 	movt	r1, #16640	; 0x4100
     a74:	4620      	mov	r0, r4
     a76:	f8c1 3230 	str.w	r3, [r1, #560]	; 0x230
     a7a:	2100      	movs	r1, #0
     a7c:	47a8      	blx	r5
     a7e:	f44f 436d 	mov.w	r3, #60672	; 0xed00
     a82:	f2ce 0300 	movt	r3, #57344	; 0xe000
     a86:	695b      	ldr	r3, [r3, #20]
     a88:	03db      	lsls	r3, r3, #15
     a8a:	d51a      	bpl.n	ac2 <BOOT_ROM_HUKDerive+0xce>
     a8c:	f014 0f18 	tst.w	r4, #24
     a90:	d11a      	bne.n	ac8 <BOOT_ROM_HUKDerive+0xd4>
     a92:	f3bf 8f4f 	dsb	sy
     a96:	2310      	movs	r3, #16
     a98:	1e5a      	subs	r2, r3, #1
     a9a:	f44f 416d 	mov.w	r1, #60672	; 0xed00
     a9e:	f104 0320 	add.w	r3, r4, #32
     aa2:	f022 021f 	bic.w	r2, r2, #31
     aa6:	f2ce 0100 	movt	r1, #57344	; 0xe000
     aaa:	441a      	add	r2, r3
     aac:	4293      	cmp	r3, r2
     aae:	f8c1 4270 	str.w	r4, [r1, #624]	; 0x270
     ab2:	461c      	mov	r4, r3
     ab4:	f103 0320 	add.w	r3, r3, #32
     ab8:	d1f8      	bne.n	aac <BOOT_ROM_HUKDerive+0xb8>
     aba:	f3bf 8f4f 	dsb	sy
     abe:	f3bf 8f6f 	isb	sy
     ac2:	b008      	add	sp, #32
     ac4:	e8bd 81f0 	ldmia.w	sp!, {r4, r5, r6, r7, r8, pc}
     ac8:	f10d 031f 	add.w	r3, sp, #31
     acc:	f024 041f 	bic.w	r4, r4, #31
     ad0:	f023 031f 	bic.w	r3, r3, #31
     ad4:	3320      	adds	r3, #32
     ad6:	1b1b      	subs	r3, r3, r4
     ad8:	f3bf 8f4f 	dsb	sy
     adc:	2b00      	cmp	r3, #0
     ade:	dcdb      	bgt.n	a98 <BOOT_ROM_HUKDerive+0xa4>
     ae0:	e7eb      	b.n	aba <BOOT_ROM_HUKDerive+0xc6>
     ae2:	bf00      	nop

00000ae4 <BOOT_ROM_SecurityConfig>:
     ae4:	e92d 43f0 	stmdb	sp!, {r4, r5, r6, r7, r8, r9, lr}
     ae8:	f240 0400 	movw	r4, #0
     aec:	6982      	ldr	r2, [r0, #24]
     aee:	b085      	sub	sp, #20
     af0:	f6c0 7480 	movt	r4, #3968	; 0xf80
     af4:	f1c4 5380 	rsb	r3, r4, #268435456	; 0x10000000
     af8:	429a      	cmp	r2, r3
     afa:	f200 80ea 	bhi.w	cd2 <BOOT_ROM_SecurityConfig+0x1ee>
     afe:	f44f 4c6d 	mov.w	ip, #60672	; 0xed00
     b02:	460e      	mov	r6, r1
     b04:	4605      	mov	r5, r0
     b06:	f2ce 0c00 	movt	ip, #57344	; 0xe000
     b0a:	f8dc 3014 	ldr.w	r3, [ip, #20]
     b0e:	03d9      	lsls	r1, r3, #15
     b10:	d529      	bpl.n	b66 <BOOT_ROM_SecurityConfig+0x82>
     b12:	ea02 0304 	and.w	r3, r2, r4
     b16:	3301      	adds	r3, #1
     b18:	f000 8094 	beq.w	c44 <BOOT_ROM_SecurityConfig+0x160>
     b1c:	06e7      	lsls	r7, r4, #27
     b1e:	f000 80b2 	beq.w	c86 <BOOT_ROM_SecurityConfig+0x1a2>
     b22:	1e61      	subs	r1, r4, #1
     b24:	f024 031f 	bic.w	r3, r4, #31
     b28:	440a      	add	r2, r1
     b2a:	f022 021f 	bic.w	r2, r2, #31
     b2e:	3220      	adds	r2, #32
     b30:	1ad2      	subs	r2, r2, r3
     b32:	f3bf 8f4f 	dsb	sy
     b36:	2a00      	cmp	r2, #0
     b38:	dd11      	ble.n	b5e <BOOT_ROM_SecurityConfig+0x7a>
     b3a:	f102 3cff 	add.w	ip, r2, #4294967295
     b3e:	f44f 416d 	mov.w	r1, #60672	; 0xed00
     b42:	f103 0220 	add.w	r2, r3, #32
     b46:	f02c 0c1f 	bic.w	ip, ip, #31
     b4a:	f2ce 0100 	movt	r1, #57344	; 0xe000
     b4e:	4494      	add	ip, r2
     b50:	4562      	cmp	r2, ip
     b52:	f8c1 325c 	str.w	r3, [r1, #604]	; 0x25c
     b56:	4613      	mov	r3, r2
     b58:	f102 0220 	add.w	r2, r2, #32
     b5c:	d1f8      	bne.n	b50 <BOOT_ROM_SecurityConfig+0x6c>
     b5e:	f3bf 8f4f 	dsb	sy
     b62:	f3bf 8f6f 	isb	sy
     b66:	f645 131d 	movw	r3, #22813	; 0x591d
     b6a:	f2c0 0300 	movt	r3, #0
     b6e:	4798      	blx	r3
     b70:	f506 5380 	add.w	r3, r6, #4096	; 0x1000
     b74:	f64f 72e0 	movw	r2, #65504	; 0xffe0
     b78:	f645 06b5 	movw	r6, #22709	; 0x58b5
     b7c:	4621      	mov	r1, r4
     b7e:	2000      	movs	r0, #0
     b80:	f6c0 72ff 	movt	r2, #4095	; 0xfff
     b84:	f2c0 0600 	movt	r6, #0
     b88:	47b0      	blx	r6
     b8a:	f645 03f1 	movw	r3, #22769	; 0x58f1
     b8e:	2101      	movs	r1, #1
     b90:	2000      	movs	r0, #0
     b92:	f2c0 0300 	movt	r3, #0
     b96:	4798      	blx	r3
     b98:	4621      	mov	r1, r4
     b9a:	4628      	mov	r0, r5
     b9c:	f7ff fad0 	bl	140 <BOOT_ROM_OTFCheck>
     ba0:	2202      	movs	r2, #2
     ba2:	4621      	mov	r1, r4
     ba4:	4668      	mov	r0, sp
     ba6:	f7ff fcc9 	bl	53c <BOOT_ROM_LoadImage>
     baa:	1e06      	subs	r6, r0, #0
     bac:	db06      	blt.n	bbc <BOOT_ROM_SecurityConfig+0xd8>
     bae:	2202      	movs	r2, #2
     bb0:	4669      	mov	r1, sp
     bb2:	4628      	mov	r0, r5
     bb4:	f7ff fd78 	bl	6a8 <BOOT_ROM_SignatureCheck>
     bb8:	1e06      	subs	r6, r0, #0
     bba:	db03      	blt.n	bc4 <BOOT_ROM_SecurityConfig+0xe0>
     bbc:	4630      	mov	r0, r6
     bbe:	b005      	add	sp, #20
     bc0:	e8bd 83f0 	ldmia.w	sp!, {r4, r5, r6, r7, r8, r9, pc}
     bc4:	466c      	mov	r4, sp
     bc6:	f241 5751 	movw	r7, #5457	; 0x1551
     bca:	f44f 456d 	mov.w	r5, #60672	; 0xed00
     bce:	f10d 0910 	add.w	r9, sp, #16
     bd2:	6820      	ldr	r0, [r4, #0]
     bd4:	f2c0 0701 	movt	r7, #1
     bd8:	f2ce 0500 	movt	r5, #57344	; 0xe000
     bdc:	f04f 0800 	mov.w	r8, #0
     be0:	f100 4378 	add.w	r3, r0, #4160749568	; 0xf8000000
     be4:	f1b3 6f00 	cmp.w	r3, #134217728	; 0x8000000
     be8:	d208      	bcs.n	bfc <BOOT_ROM_SecurityConfig+0x118>
     bea:	3408      	adds	r4, #8
     bec:	454c      	cmp	r4, r9
     bee:	d0e5      	beq.n	bbc <BOOT_ROM_SecurityConfig+0xd8>
     bf0:	6820      	ldr	r0, [r4, #0]
     bf2:	f100 4378 	add.w	r3, r0, #4160749568	; 0xf8000000
     bf6:	f1b3 6f00 	cmp.w	r3, #134217728	; 0x8000000
     bfa:	d3f6      	bcc.n	bea <BOOT_ROM_SecurityConfig+0x106>
     bfc:	6862      	ldr	r2, [r4, #4]
     bfe:	2100      	movs	r1, #0
     c00:	47b8      	blx	r7
     c02:	696b      	ldr	r3, [r5, #20]
     c04:	03d8      	lsls	r0, r3, #15
     c06:	d5f0      	bpl.n	bea <BOOT_ROM_SecurityConfig+0x106>
     c08:	e9d4 2300 	ldrd	r2, r3, [r4]
     c0c:	ea02 0103 	and.w	r1, r2, r3
     c10:	3101      	adds	r1, #1
     c12:	d043      	beq.n	c9c <BOOT_ROM_SecurityConfig+0x1b8>
     c14:	06d1      	lsls	r1, r2, #27
     c16:	d138      	bne.n	c8a <BOOT_ROM_SecurityConfig+0x1a6>
     c18:	f3bf 8f4f 	dsb	sy
     c1c:	2b00      	cmp	r3, #0
     c1e:	dd0c      	ble.n	c3a <BOOT_ROM_SecurityConfig+0x156>
     c20:	1e59      	subs	r1, r3, #1
     c22:	f102 0320 	add.w	r3, r2, #32
     c26:	f021 011f 	bic.w	r1, r1, #31
     c2a:	4419      	add	r1, r3
     c2c:	428b      	cmp	r3, r1
     c2e:	f8c5 2270 	str.w	r2, [r5, #624]	; 0x270
     c32:	461a      	mov	r2, r3
     c34:	f103 0320 	add.w	r3, r3, #32
     c38:	d1f8      	bne.n	c2c <BOOT_ROM_SecurityConfig+0x148>
     c3a:	f3bf 8f4f 	dsb	sy
     c3e:	f3bf 8f6f 	isb	sy
     c42:	e7d2      	b.n	bea <BOOT_ROM_SecurityConfig+0x106>
     c44:	2300      	movs	r3, #0
     c46:	f8cc 3084 	str.w	r3, [ip, #132]	; 0x84
     c4a:	f3bf 8f4f 	dsb	sy
     c4e:	f8dc 0080 	ldr.w	r0, [ip, #128]	; 0x80
     c52:	f643 77e0 	movw	r7, #16352	; 0x3fe0
     c56:	f3c0 314e 	ubfx	r1, r0, #13, #15
     c5a:	f3c0 00c9 	ubfx	r0, r0, #3, #10
     c5e:	0149      	lsls	r1, r1, #5
     c60:	ea01 0e07 	and.w	lr, r1, r7
     c64:	4602      	mov	r2, r0
     c66:	ea4e 7382 	orr.w	r3, lr, r2, lsl #30
     c6a:	3a01      	subs	r2, #1
     c6c:	f8cc 3260 	str.w	r3, [ip, #608]	; 0x260
     c70:	1c53      	adds	r3, r2, #1
     c72:	d1f8      	bne.n	c66 <BOOT_ROM_SecurityConfig+0x182>
     c74:	3920      	subs	r1, #32
     c76:	f111 0f20 	cmn.w	r1, #32
     c7a:	d1f1      	bne.n	c60 <BOOT_ROM_SecurityConfig+0x17c>
     c7c:	f3bf 8f4f 	dsb	sy
     c80:	f3bf 8f6f 	isb	sy
     c84:	e76f      	b.n	b66 <BOOT_ROM_SecurityConfig+0x82>
     c86:	4623      	mov	r3, r4
     c88:	e753      	b.n	b32 <BOOT_ROM_SecurityConfig+0x4e>
     c8a:	4413      	add	r3, r2
     c8c:	f022 021f 	bic.w	r2, r2, #31
     c90:	3b01      	subs	r3, #1
     c92:	f023 031f 	bic.w	r3, r3, #31
     c96:	3320      	adds	r3, #32
     c98:	1a9b      	subs	r3, r3, r2
     c9a:	e7bd      	b.n	c18 <BOOT_ROM_SecurityConfig+0x134>
     c9c:	f8c5 8084 	str.w	r8, [r5, #132]	; 0x84
     ca0:	f3bf 8f4f 	dsb	sy
     ca4:	f8d5 3080 	ldr.w	r3, [r5, #128]	; 0x80
     ca8:	f643 7ee0 	movw	lr, #16352	; 0x3fe0
     cac:	f3c3 304e 	ubfx	r0, r3, #13, #15
     cb0:	f3c3 0cc9 	ubfx	ip, r3, #3, #10
     cb4:	0140      	lsls	r0, r0, #5
     cb6:	ea00 010e 	and.w	r1, r0, lr
     cba:	4663      	mov	r3, ip
     cbc:	ea41 7283 	orr.w	r2, r1, r3, lsl #30
     cc0:	3b01      	subs	r3, #1
     cc2:	f8c5 2274 	str.w	r2, [r5, #628]	; 0x274
     cc6:	d2f9      	bcs.n	cbc <BOOT_ROM_SecurityConfig+0x1d8>
     cc8:	3820      	subs	r0, #32
     cca:	f110 0f20 	cmn.w	r0, #32
     cce:	d1f2      	bne.n	cb6 <BOOT_ROM_SecurityConfig+0x1d2>
     cd0:	e7b3      	b.n	c3a <BOOT_ROM_SecurityConfig+0x156>
     cd2:	2602      	movs	r6, #2
     cd4:	f6cf 76ff 	movt	r6, #65535	; 0xffff
     cd8:	e770      	b.n	bbc <BOOT_ROM_SecurityConfig+0xd8>
     cda:	bf00      	nop

00000cdc <BOOT_ROM_BootldrSelect>:
     cdc:	e92d 4ff0 	stmdb	sp!, {r4, r5, r6, r7, r8, r9, sl, fp, lr}
     ce0:	f04f 6100 	mov.w	r1, #134217728	; 0x8000000
     ce4:	f5ad 7d4d 	sub.w	sp, sp, #820	; 0x334
     ce8:	2300      	movs	r3, #0
     cea:	f241 3689 	movw	r6, #5001	; 0x1389
     cee:	f44f 72c8 	mov.w	r2, #400	; 0x190
     cf2:	4680      	mov	r8, r0
     cf4:	f2c0 0601 	movt	r6, #1
     cf8:	a804      	add	r0, sp, #16
     cfa:	f241 3529 	movw	r5, #4905	; 0x1329
     cfe:	e9cd 1302 	strd	r1, r3, [sp, #8]
     d02:	47b0      	blx	r6
     d04:	f245 31ec 	movw	r1, #21484	; 0x53ec
     d08:	2208      	movs	r2, #8
     d0a:	f2c0 0501 	movt	r5, #1
     d0e:	f2c0 0104 	movt	r1, #4
     d12:	a804      	add	r0, sp, #16
     d14:	47a8      	blx	r5
     d16:	2800      	cmp	r0, #0
     d18:	f040 80c5 	bne.w	ea6 <BOOT_ROM_BootldrSelect+0x1ca>
     d1c:	9c09      	ldr	r4, [sp, #36]	; 0x24
     d1e:	f44f 7340 	mov.w	r3, #768	; 0x300
     d22:	f64f 72ff 	movw	r2, #65535	; 0xffff
     d26:	f2c4 1300 	movt	r3, #16640	; 0x4100
     d2a:	f8b3 306c 	ldrh.w	r3, [r3, #108]	; 0x6c
     d2e:	b29b      	uxth	r3, r3
     d30:	4293      	cmp	r3, r2
     d32:	d007      	beq.n	d44 <BOOT_ROM_BootldrSelect+0x68>
     d34:	0319      	lsls	r1, r3, #12
     d36:	f101 4378 	add.w	r3, r1, #4160749568	; 0xf8000000
     d3a:	9103      	str	r1, [sp, #12]
     d3c:	f1b3 6f00 	cmp.w	r3, #134217728	; 0x8000000
     d40:	f0c0 80b4 	bcc.w	eac <BOOT_ROM_BootldrSelect+0x1d0>
     d44:	f04f 36ff 	mov.w	r6, #4294967295
     d48:	f64d 0309 	movw	r3, #55305	; 0xd809
     d4c:	f2c0 0300 	movt	r3, #0
     d50:	4798      	blx	r3
     d52:	2800      	cmp	r0, #0
     d54:	f000 80a5 	beq.w	ea2 <BOOT_ROM_BootldrSelect+0x1c6>
     d58:	f44f 7340 	mov.w	r3, #768	; 0x300
     d5c:	f2c4 1300 	movt	r3, #16640	; 0x4100
     d60:	f8b3 106e 	ldrh.w	r1, [r3, #110]	; 0x6e
     d64:	2300      	movs	r3, #0
     d66:	b289      	uxth	r1, r1
     d68:	461d      	mov	r5, r3
     d6a:	fa21 f203 	lsr.w	r2, r1, r3
     d6e:	3301      	adds	r3, #1
     d70:	f012 0f01 	tst.w	r2, #1
     d74:	bf08      	it	eq
     d76:	3501      	addeq	r5, #1
     d78:	2b10      	cmp	r3, #16
     d7a:	d1f6      	bne.n	d6a <BOOT_ROM_BootldrSelect+0x8e>
     d7c:	42b4      	cmp	r4, r6
     d7e:	4623      	mov	r3, r4
     d80:	bfb8      	it	lt
     d82:	4633      	movlt	r3, r6
     d84:	429d      	cmp	r5, r3
     d86:	dc51      	bgt.n	e2c <BOOT_ROM_BootldrSelect+0x150>
     d88:	42b4      	cmp	r4, r6
     d8a:	4623      	mov	r3, r4
     d8c:	f244 0704 	movw	r7, #16388	; 0x4004
     d90:	f645 2bf4 	movw	fp, #23284	; 0x5af4
     d94:	bfa8      	it	ge
     d96:	4633      	movge	r3, r6
     d98:	f645 2afc 	movw	sl, #23292	; 0x5afc
     d9c:	42b4      	cmp	r4, r6
     d9e:	f645 3904 	movw	r9, #23300	; 0x5b04
     da2:	f2c2 0700 	movt	r7, #8192	; 0x2000
     da6:	f2c0 0b04 	movt	fp, #4
     daa:	bfac      	ite	ge
     dac:	2400      	movge	r4, #0
     dae:	2401      	movlt	r4, #1
     db0:	f2c0 0a04 	movt	sl, #4
     db4:	429d      	cmp	r5, r3
     db6:	bfd4      	ite	le
     db8:	2502      	movle	r5, #2
     dba:	2501      	movgt	r5, #1
     dbc:	f2c0 0904 	movt	r9, #4
     dc0:	2600      	movs	r6, #0
     dc2:	f8cd 8004 	str.w	r8, [sp, #4]
     dc6:	e007      	b.n	dd8 <BOOT_ROM_BootldrSelect+0xfc>
     dc8:	f1b8 0f00 	cmp.w	r8, #0
     dcc:	b2f2      	uxtb	r2, r6
     dce:	da1f      	bge.n	e10 <BOOT_ROM_BootldrSelect+0x134>
     dd0:	4295      	cmp	r5, r2
     dd2:	f084 0401 	eor.w	r4, r4, #1
     dd6:	d92d      	bls.n	e34 <BOOT_ROM_BootldrSelect+0x158>
     dd8:	ab02      	add	r3, sp, #8
     dda:	f44f 70c8 	mov.w	r0, #400	; 0x190
     dde:	3601      	adds	r6, #1
     de0:	f853 1024 	ldr.w	r1, [r3, r4, lsl #2]
     de4:	ab04      	add	r3, sp, #16
     de6:	fb00 3004 	mla	r0, r0, r4, r3
     dea:	f7ff fe7b 	bl	ae4 <BOOT_ROM_SecurityConfig>
     dee:	683a      	ldr	r2, [r7, #0]
     df0:	4680      	mov	r8, r0
     df2:	0392      	lsls	r2, r2, #14
     df4:	d5e8      	bpl.n	dc8 <BOOT_ROM_BootldrSelect+0xec>
     df6:	ea1b 0220 	ands.w	r2, fp, r0, asr #32
     dfa:	bf38      	it	cc
     dfc:	4652      	movcc	r2, sl
     dfe:	4603      	mov	r3, r0
     e00:	1c61      	adds	r1, r4, #1
     e02:	4648      	mov	r0, r9
     e04:	f00e ff60 	bl	fcc8 <DiagPrintf>
     e08:	f1b8 0f00 	cmp.w	r8, #0
     e0c:	b2f2      	uxtb	r2, r6
     e0e:	dbdf      	blt.n	dd0 <BOOT_ROM_BootldrSelect+0xf4>
     e10:	f44f 73c8 	mov.w	r3, #400	; 0x190
     e14:	aa04      	add	r2, sp, #16
     e16:	f8dd 8004 	ldr.w	r8, [sp, #4]
     e1a:	fb03 2404 	mla	r4, r3, r4, r2
     e1e:	69e3      	ldr	r3, [r4, #28]
     e20:	f8c8 3000 	str.w	r3, [r8]
     e24:	f50d 7d4d 	add.w	sp, sp, #820	; 0x334
     e28:	e8bd 8ff0 	ldmia.w	sp!, {r4, r5, r6, r7, r8, r9, sl, fp, pc}
     e2c:	f244 0704 	movw	r7, #16388	; 0x4004
     e30:	f2c2 0700 	movt	r7, #8192	; 0x2000
     e34:	683b      	ldr	r3, [r7, #0]
     e36:	0399      	lsls	r1, r3, #14
     e38:	d448      	bmi.n	ecc <BOOT_ROM_BootldrSelect+0x1f0>
     e3a:	f649 73fc 	movw	r3, #40956	; 0x9ffc
     e3e:	f2c3 0300 	movt	r3, #12288	; 0x3000
     e42:	f383 8808 	msr	MSP, r3
     e46:	f44f 4000 	mov.w	r0, #32768	; 0x8000
     e4a:	f241 5351 	movw	r3, #5457	; 0x1551
     e4e:	f641 727c 	movw	r2, #8060	; 0x1f7c
     e52:	2100      	movs	r1, #0
     e54:	f2c0 0301 	movt	r3, #1
     e58:	f2c3 0000 	movt	r0, #12288	; 0x3000
     e5c:	4798      	blx	r3
     e5e:	f44f 426d 	mov.w	r2, #60672	; 0xed00
     e62:	f2ce 0200 	movt	r2, #57344	; 0xe000
     e66:	6953      	ldr	r3, [r2, #20]
     e68:	03db      	lsls	r3, r3, #15
     e6a:	d512      	bpl.n	e92 <BOOT_ROM_BootldrSelect+0x1b6>
     e6c:	f3bf 8f4f 	dsb	sy
     e70:	f44f 4300 	mov.w	r3, #32768	; 0x8000
     e74:	f649 7180 	movw	r1, #40832	; 0x9f80
     e78:	f2c3 0300 	movt	r3, #12288	; 0x3000
     e7c:	f2c3 0100 	movt	r1, #12288	; 0x3000
     e80:	f8c2 3270 	str.w	r3, [r2, #624]	; 0x270
     e84:	3320      	adds	r3, #32
     e86:	428b      	cmp	r3, r1
     e88:	d1fa      	bne.n	e80 <BOOT_ROM_BootldrSelect+0x1a4>
     e8a:	f3bf 8f4f 	dsb	sy
     e8e:	f3bf 8f6f 	isb	sy
     e92:	f24b 249d 	movw	r4, #45725	; 0xb29d
     e96:	f2c0 0400 	movt	r4, #0
     e9a:	f44f 707a 	mov.w	r0, #1000	; 0x3e8
     e9e:	47a0      	blx	r4
     ea0:	e7fb      	b.n	e9a <BOOT_ROM_BootldrSelect+0x1be>
     ea2:	4605      	mov	r5, r0
     ea4:	e76a      	b.n	d7c <BOOT_ROM_BootldrSelect+0xa0>
     ea6:	f04f 34ff 	mov.w	r4, #4294967295
     eaa:	e738      	b.n	d1e <BOOT_ROM_BootldrSelect+0x42>
     eac:	f44f 72c8 	mov.w	r2, #400	; 0x190
     eb0:	a868      	add	r0, sp, #416	; 0x1a0
     eb2:	47b0      	blx	r6
     eb4:	f245 31ec 	movw	r1, #21484	; 0x53ec
     eb8:	a868      	add	r0, sp, #416	; 0x1a0
     eba:	2208      	movs	r2, #8
     ebc:	f2c0 0104 	movt	r1, #4
     ec0:	47a8      	blx	r5
     ec2:	2800      	cmp	r0, #0
     ec4:	f47f af3e 	bne.w	d44 <BOOT_ROM_BootldrSelect+0x68>
     ec8:	9e6d      	ldr	r6, [sp, #436]	; 0x1b4
     eca:	e73d      	b.n	d48 <BOOT_ROM_BootldrSelect+0x6c>
     ecc:	f645 3020 	movw	r0, #23328	; 0x5b20
     ed0:	f2c0 0004 	movt	r0, #4
     ed4:	f00e fef8 	bl	fcc8 <DiagPrintf>
     ed8:	e7af      	b.n	e3a <BOOT_ROM_BootldrSelect+0x15e>
     eda:	bf00      	nop

00000edc <BOOT_ROM_FromFlash>:
     edc:	e92d 43f0 	stmdb	sp!, {r4, r5, r6, r7, r8, r9, lr}
     ee0:	2300      	movs	r3, #0
     ee2:	f244 0504 	movw	r5, #16388	; 0x4004
     ee6:	f245 37ec 	movw	r7, #21484	; 0x53ec
     eea:	f44f 466d 	mov.w	r6, #60672	; 0xed00
     eee:	f24b 289d 	movw	r8, #45725	; 0xb29d
     ef2:	f248 69a0 	movw	r9, #34464	; 0x86a0
     ef6:	b083      	sub	sp, #12
     ef8:	461c      	mov	r4, r3
     efa:	f2c2 0500 	movt	r5, #8192	; 0x2000
     efe:	f2c0 0704 	movt	r7, #4
     f02:	f2ce 0600 	movt	r6, #57344	; 0xe000
     f06:	f2c0 0800 	movt	r8, #0
     f0a:	f2c0 0901 	movt	r9, #1
     f0e:	9301      	str	r3, [sp, #4]
     f10:	f04f 6300 	mov.w	r3, #134217728	; 0x8000000
     f14:	683a      	ldr	r2, [r7, #0]
     f16:	6819      	ldr	r1, [r3, #0]
     f18:	4291      	cmp	r1, r2
     f1a:	d021      	beq.n	f60 <BOOT_ROM_FromFlash+0x84>
     f1c:	6973      	ldr	r3, [r6, #20]
     f1e:	03d8      	lsls	r0, r3, #15
     f20:	d509      	bpl.n	f36 <BOOT_ROM_FromFlash+0x5a>
     f22:	f3bf 8f4f 	dsb	sy
     f26:	f04f 6300 	mov.w	r3, #134217728	; 0x8000000
     f2a:	f8c6 325c 	str.w	r3, [r6, #604]	; 0x25c
     f2e:	f3bf 8f4f 	dsb	sy
     f32:	f3bf 8f6f 	isb	sy
     f36:	200a      	movs	r0, #10
     f38:	47c0      	blx	r8
     f3a:	2c63      	cmp	r4, #99	; 0x63
     f3c:	f104 0401 	add.w	r4, r4, #1
     f40:	d9e6      	bls.n	f10 <BOOT_ROM_FromFlash+0x34>
     f42:	682b      	ldr	r3, [r5, #0]
     f44:	0399      	lsls	r1, r3, #14
     f46:	d452      	bmi.n	fee <BOOT_ROM_FromFlash+0x112>
     f48:	f240 53a5 	movw	r3, #1445	; 0x5a5
     f4c:	4648      	mov	r0, r9
     f4e:	f2c0 0301 	movt	r3, #1
     f52:	4798      	blx	r3
     f54:	f04f 6300 	mov.w	r3, #134217728	; 0x8000000
     f58:	683a      	ldr	r2, [r7, #0]
     f5a:	6819      	ldr	r1, [r3, #0]
     f5c:	4291      	cmp	r1, r2
     f5e:	d1dd      	bne.n	f1c <BOOT_ROM_FromFlash+0x40>
     f60:	685a      	ldr	r2, [r3, #4]
     f62:	687b      	ldr	r3, [r7, #4]
     f64:	429a      	cmp	r2, r3
     f66:	d1d9      	bne.n	f1c <BOOT_ROM_FromFlash+0x40>
     f68:	f24d 33e5 	movw	r3, #54245	; 0xd3e5
     f6c:	2201      	movs	r2, #1
     f6e:	2100      	movs	r1, #0
     f70:	f44f 6000 	mov.w	r0, #2048	; 0x800
     f74:	f2c0 0300 	movt	r3, #0
     f78:	4798      	blx	r3
     f7a:	f240 208a 	movw	r0, #650	; 0x28a
     f7e:	f7ff f9db 	bl	338 <BOOT_ROM_PatchEntry>
     f82:	a801      	add	r0, sp, #4
     f84:	f7ff feaa 	bl	cdc <BOOT_ROM_BootldrSelect>
     f88:	f247 4104 	movw	r1, #29700	; 0x7404
     f8c:	2210      	movs	r2, #16
     f8e:	a801      	add	r0, sp, #4
     f90:	f2c3 0100 	movt	r1, #12288	; 0x3000
     f94:	f7ff fd2e 	bl	9f4 <BOOT_ROM_HUKDerive>
     f98:	f24a 0240 	movw	r2, #41024	; 0xa040
     f9c:	f245 0105 	movw	r1, #20485	; 0x5005
     fa0:	2323      	movs	r3, #35	; 0x23
     fa2:	f2c3 0200 	movt	r2, #12288	; 0x3000
     fa6:	f2c0 0104 	movt	r1, #4
     faa:	e003      	b.n	fb4 <BOOT_ROM_FromFlash+0xd8>
     fac:	f811 3b01 	ldrb.w	r3, [r1], #1
     fb0:	2bff      	cmp	r3, #255	; 0xff
     fb2:	d023      	beq.n	ffc <BOOT_ROM_FromFlash+0x120>
     fb4:	f812 0b01 	ldrb.w	r0, [r2], #1
     fb8:	4298      	cmp	r0, r3
     fba:	d0f7      	beq.n	fac <BOOT_ROM_FromFlash+0xd0>
     fbc:	682b      	ldr	r3, [r5, #0]
     fbe:	f413 3300 	ands.w	r3, r3, #131072	; 0x20000
     fc2:	d166      	bne.n	1092 <BOOT_ROM_FromFlash+0x1b6>
     fc4:	f24b 249d 	movw	r4, #45725	; 0xb29d
     fc8:	f645 3678 	movw	r6, #23416	; 0x5b78
     fcc:	f2c0 0400 	movt	r4, #0
     fd0:	f2c0 0604 	movt	r6, #4
     fd4:	b93b      	cbnz	r3, fe6 <BOOT_ROM_FromFlash+0x10a>
     fd6:	f242 7010 	movw	r0, #10000	; 0x2710
     fda:	47a0      	blx	r4
     fdc:	682b      	ldr	r3, [r5, #0]
     fde:	f403 3300 	and.w	r3, r3, #131072	; 0x20000
     fe2:	2b00      	cmp	r3, #0
     fe4:	d0f7      	beq.n	fd6 <BOOT_ROM_FromFlash+0xfa>
     fe6:	4630      	mov	r0, r6
     fe8:	f00e fe6e 	bl	fcc8 <DiagPrintf>
     fec:	e7f3      	b.n	fd6 <BOOT_ROM_FromFlash+0xfa>
     fee:	f645 303c 	movw	r0, #23356	; 0x5b3c
     ff2:	f2c0 0004 	movt	r0, #4
     ff6:	f00e fe67 	bl	fcc8 <DiagPrintf>
     ffa:	e7a5      	b.n	f48 <BOOT_ROM_FromFlash+0x6c>
     ffc:	682b      	ldr	r3, [r5, #0]
     ffe:	039a      	lsls	r2, r3, #14
    1000:	d43a      	bmi.n	1078 <BOOT_ROM_FromFlash+0x19c>
    1002:	f3ef 8508 	mrs	r5, MSP
    1006:	f44f 44ff 	mov.w	r4, #32640	; 0x7f80
    100a:	f44f 4000 	mov.w	r0, #32768	; 0x8000
    100e:	f241 5351 	movw	r3, #5457	; 0x1551
    1012:	2100      	movs	r1, #0
    1014:	f6cc 74ff 	movt	r4, #53247	; 0xcfff
    1018:	f2c3 0000 	movt	r0, #12288	; 0x3000
    101c:	f2c0 0301 	movt	r3, #1
    1020:	442c      	add	r4, r5
    1022:	4622      	mov	r2, r4
    1024:	4798      	blx	r3
    1026:	f44f 416d 	mov.w	r1, #60672	; 0xed00
    102a:	f2ce 0100 	movt	r1, #57344	; 0xe000
    102e:	694b      	ldr	r3, [r1, #20]
    1030:	03db      	lsls	r3, r3, #15
    1032:	d51c      	bpl.n	106e <BOOT_ROM_FromFlash+0x192>
    1034:	f3bf 8f4f 	dsb	sy
    1038:	2c00      	cmp	r4, #0
    103a:	dd14      	ble.n	1066 <BOOT_ROM_FromFlash+0x18a>
    103c:	f647 707f 	movw	r0, #32639	; 0x7f7f
    1040:	f248 0220 	movw	r2, #32800	; 0x8020
    1044:	f44f 4300 	mov.w	r3, #32768	; 0x8000
    1048:	f6cc 70ff 	movt	r0, #53247	; 0xcfff
    104c:	f2c3 0200 	movt	r2, #12288	; 0x3000
    1050:	f2c3 0300 	movt	r3, #12288	; 0x3000
    1054:	4428      	add	r0, r5
    1056:	f020 001f 	bic.w	r0, r0, #31
    105a:	4402      	add	r2, r0
    105c:	f8c1 3270 	str.w	r3, [r1, #624]	; 0x270
    1060:	3320      	adds	r3, #32
    1062:	429a      	cmp	r2, r3
    1064:	d1fa      	bne.n	105c <BOOT_ROM_FromFlash+0x180>
    1066:	f3bf 8f4f 	dsb	sy
    106a:	f3bf 8f6f 	isb	sy
    106e:	f7ff fb83 	bl	778 <BOOT_ROM_LoaderEntry>
    1072:	b003      	add	sp, #12
    1074:	e8bd 83f0 	ldmia.w	sp!, {r4, r5, r6, r7, r8, r9, pc}
    1078:	f24a 0320 	movw	r3, #40992	; 0xa020
    107c:	f645 30b4 	movw	r0, #23476	; 0x5bb4
    1080:	f2c3 0300 	movt	r3, #12288	; 0x3000
    1084:	f2c0 0004 	movt	r0, #4
    1088:	681a      	ldr	r2, [r3, #0]
    108a:	6959      	ldr	r1, [r3, #20]
    108c:	f00e fe1c 	bl	fcc8 <DiagPrintf>
    1090:	e7b7      	b.n	1002 <BOOT_ROM_FromFlash+0x126>
    1092:	f645 3054 	movw	r0, #23380	; 0x5b54
    1096:	f2c0 0004 	movt	r0, #4
    109a:	f00e fe15 	bl	fcc8 <DiagPrintf>
    109e:	682b      	ldr	r3, [r5, #0]
    10a0:	f403 3300 	and.w	r3, r3, #131072	; 0x20000
    10a4:	e78e      	b.n	fc4 <BOOT_ROM_FromFlash+0xe8>
    10a6:	bf00      	nop

000010a8 <BOOT_ROM_InitDebugFlg>:
    10a8:	f24d 7329 	movw	r3, #55081	; 0xd729
    10ac:	b510      	push	{r4, lr}
    10ae:	f2c0 0300 	movt	r3, #0
    10b2:	4798      	blx	r3
    10b4:	f24d 73a9 	movw	r3, #55209	; 0xd7a9
    10b8:	4604      	mov	r4, r0
    10ba:	f2c0 0300 	movt	r3, #0
    10be:	4798      	blx	r3
    10c0:	b940      	cbnz	r0, 10d4 <BOOT_ROM_InitDebugFlg+0x2c>
    10c2:	2c03      	cmp	r4, #3
    10c4:	d007      	beq.n	10d6 <BOOT_ROM_InitDebugFlg+0x2e>
    10c6:	f244 0304 	movw	r3, #16388	; 0x4004
    10ca:	f04f 32ff 	mov.w	r2, #4294967295
    10ce:	f2c2 0300 	movt	r3, #8192	; 0x2000
    10d2:	601a      	str	r2, [r3, #0]
    10d4:	bd10      	pop	{r4, pc}
    10d6:	f04f 4282 	mov.w	r2, #1090519040	; 0x41000000
    10da:	f8d2 3100 	ldr.w	r3, [r2, #256]	; 0x100
    10de:	f043 7380 	orr.w	r3, r3, #16777216	; 0x1000000
    10e2:	f8c2 3100 	str.w	r3, [r2, #256]	; 0x100
    10e6:	bd10      	pop	{r4, pc}

000010e8 <BOOT_ROM_OSC131_Enable>:
    10e8:	f44f 4341 	mov.w	r3, #49408	; 0xc100
    10ec:	f2c4 1300 	movt	r3, #16640	; 0x4100
    10f0:	681a      	ldr	r2, [r3, #0]
    10f2:	07d1      	lsls	r1, r2, #31
    10f4:	d402      	bmi.n	10fc <BOOT_ROM_OSC131_Enable+0x14>
    10f6:	f042 0201 	orr.w	r2, r2, #1
    10fa:	601a      	str	r2, [r3, #0]
    10fc:	4770      	bx	lr
    10fe:	bf00      	nop

00001100 <BOOT_ROM_ResetVsr>:
    1100:	f04f 22e0 	mov.w	r2, #3758153728	; 0xe000e000
    1104:	6893      	ldr	r3, [r2, #8]
    1106:	f043 0340 	orr.w	r3, r3, #64	; 0x40
    110a:	b570      	push	{r4, r5, r6, lr}
    110c:	6093      	str	r3, [r2, #8]
    110e:	b082      	sub	sp, #8
    1110:	f3bf 8f4f 	dsb	sy
    1114:	f44f 4340 	mov.w	r3, #49152	; 0xc000
    1118:	f2c4 1300 	movt	r3, #16640	; 0x4100
    111c:	f8d3 3080 	ldr.w	r3, [r3, #128]	; 0x80
    1120:	07dc      	lsls	r4, r3, #31
    1122:	d505      	bpl.n	1130 <BOOT_ROM_ResetVsr+0x30>
    1124:	f240 0300 	movw	r3, #0
    1128:	f2c2 1302 	movt	r3, #8450	; 0x2102
    112c:	681b      	ldr	r3, [r3, #0]
    112e:	4798      	blx	r3
    1130:	f44f 4140 	mov.w	r1, #49152	; 0xc000
    1134:	f644 03e4 	movw	r3, #18660	; 0x48e4
    1138:	f244 0200 	movw	r2, #16384	; 0x4000
    113c:	f2c4 1100 	movt	r1, #16640	; 0x4100
    1140:	f2c2 0300 	movt	r3, #8192	; 0x2000
    1144:	f2c2 0200 	movt	r2, #8192	; 0x2000
    1148:	f8d1 126c 	ldr.w	r1, [r1, #620]	; 0x26c
    114c:	1a9a      	subs	r2, r3, r2
    114e:	0088      	lsls	r0, r1, #2
    1150:	f100 80e5 	bmi.w	131e <BOOT_ROM_ResetVsr+0x21e>
    1154:	f24a 0520 	movw	r5, #40992	; 0xa020
    1158:	f2c3 0500 	movt	r5, #12288	; 0x3000
    115c:	f244 0000 	movw	r0, #16384	; 0x4000
    1160:	f241 5451 	movw	r4, #5457	; 0x1551
    1164:	2100      	movs	r1, #0
    1166:	f2c0 0401 	movt	r4, #1
    116a:	f2c2 0000 	movt	r0, #8192	; 0x2000
    116e:	47a0      	blx	r4
    1170:	f247 4264 	movw	r2, #29796	; 0x7464
    1174:	f247 0000 	movw	r0, #28672	; 0x7000
    1178:	2100      	movs	r1, #0
    117a:	f2c3 0200 	movt	r2, #12288	; 0x3000
    117e:	f2c3 0000 	movt	r0, #12288	; 0x3000
    1182:	1a12      	subs	r2, r2, r0
    1184:	47a0      	blx	r4
    1186:	f241 0300 	movw	r3, #4096	; 0x1000
    118a:	f24e 54a9 	movw	r4, #58793	; 0xe5a9
    118e:	f2c0 0304 	movt	r3, #4
    1192:	f2c0 0400 	movt	r4, #0
    1196:	681b      	ldr	r3, [r3, #0]
    1198:	4798      	blx	r3
    119a:	f649 70fc 	movw	r0, #40956	; 0x9ffc
    119e:	f24f 13a9 	movw	r3, #61865	; 0xf1a9
    11a2:	f2c3 0000 	movt	r0, #12288	; 0x3000
    11a6:	f2c0 0300 	movt	r3, #0
    11aa:	4798      	blx	r3
    11ac:	f240 20f7 	movw	r0, #759	; 0x2f7
    11b0:	f7ff f8c2 	bl	338 <BOOT_ROM_PatchEntry>
    11b4:	f44f 2180 	mov.w	r1, #262144	; 0x40000
    11b8:	f24d 33e5 	movw	r3, #54245	; 0xd3e5
    11bc:	2201      	movs	r2, #1
    11be:	4608      	mov	r0, r1
    11c0:	f2c0 0300 	movt	r3, #0
    11c4:	4798      	blx	r3
    11c6:	f44f 703f 	mov.w	r0, #764	; 0x2fc
    11ca:	f7ff f8b5 	bl	338 <BOOT_ROM_PatchEntry>
    11ce:	f24e 63f5 	movw	r3, #59125	; 0xe6f5
    11d2:	f2c0 0300 	movt	r3, #0
    11d6:	4798      	blx	r3
    11d8:	47a0      	blx	r4
    11da:	f240 3002 	movw	r0, #770	; 0x302
    11de:	f7ff f8ab 	bl	338 <BOOT_ROM_PatchEntry>
    11e2:	f7ff ff81 	bl	10e8 <BOOT_ROM_OSC131_Enable>
    11e6:	f240 3006 	movw	r0, #774	; 0x306
    11ea:	f7ff f8a5 	bl	338 <BOOT_ROM_PatchEntry>
    11ee:	f7ff f8c5 	bl	37c <BOOT_ROM_SPUFlash>
    11f2:	f24d 730d 	movw	r3, #55053	; 0xd70d
    11f6:	f2c0 0300 	movt	r3, #0
    11fa:	4798      	blx	r3
    11fc:	f7ff ff54 	bl	10a8 <BOOT_ROM_InitDebugFlg>
    1200:	47a0      	blx	r4
    1202:	f240 3012 	movw	r0, #786	; 0x312
    1206:	f7ff f897 	bl	338 <BOOT_ROM_PatchEntry>
    120a:	f64c 73b5 	movw	r3, #53173	; 0xcfb5
    120e:	2001      	movs	r0, #1
    1210:	f2c0 0300 	movt	r3, #0
    1214:	4798      	blx	r3
    1216:	f244 0304 	movw	r3, #16388	; 0x4004
    121a:	f2c2 0300 	movt	r3, #8192	; 0x2000
    121e:	681b      	ldr	r3, [r3, #0]
    1220:	0399      	lsls	r1, r3, #14
    1222:	f100 8085 	bmi.w	1330 <BOOT_ROM_ResetVsr+0x230>
    1226:	47a0      	blx	r4
    1228:	f240 301b 	movw	r0, #795	; 0x31b
    122c:	f7ff f884 	bl	338 <BOOT_ROM_PatchEntry>
    1230:	f7fe ffec 	bl	20c <BOOT_ROM_OTPCheck>
    1234:	f7ff f8cc 	bl	3d0 <BOOT_ROM_InitFlash>
    1238:	f44f 406d 	mov.w	r0, #60672	; 0xed00
    123c:	2300      	movs	r3, #0
    123e:	f2ce 0000 	movt	r0, #57344	; 0xe000
    1242:	f8c0 3084 	str.w	r3, [r0, #132]	; 0x84
    1246:	f3bf 8f4f 	dsb	sy
    124a:	f8d0 3080 	ldr.w	r3, [r0, #128]	; 0x80
    124e:	f643 7ee0 	movw	lr, #16352	; 0x3fe0
    1252:	f3c3 06c9 	ubfx	r6, r3, #3, #10
    1256:	f3c3 334e 	ubfx	r3, r3, #13, #15
    125a:	ea4f 1c43 	mov.w	ip, r3, lsl #5
    125e:	ea0c 010e 	and.w	r1, ip, lr
    1262:	4633      	mov	r3, r6
    1264:	ea41 7283 	orr.w	r2, r1, r3, lsl #30
    1268:	3b01      	subs	r3, #1
    126a:	f8c0 2260 	str.w	r2, [r0, #608]	; 0x260
    126e:	1c5a      	adds	r2, r3, #1
    1270:	d1f8      	bne.n	1264 <BOOT_ROM_ResetVsr+0x164>
    1272:	f1ac 0c20 	sub.w	ip, ip, #32
    1276:	f11c 0f20 	cmn.w	ip, #32
    127a:	d1f0      	bne.n	125e <BOOT_ROM_ResetVsr+0x15e>
    127c:	f3bf 8f4f 	dsb	sy
    1280:	6943      	ldr	r3, [r0, #20]
    1282:	f443 3380 	orr.w	r3, r3, #65536	; 0x10000
    1286:	6143      	str	r3, [r0, #20]
    1288:	f3bf 8f4f 	dsb	sy
    128c:	f3bf 8f6f 	isb	sy
    1290:	f3bf 8f4f 	dsb	sy
    1294:	f3bf 8f6f 	isb	sy
    1298:	2300      	movs	r3, #0
    129a:	f8c0 3250 	str.w	r3, [r0, #592]	; 0x250
    129e:	f3bf 8f4f 	dsb	sy
    12a2:	f3bf 8f6f 	isb	sy
    12a6:	6943      	ldr	r3, [r0, #20]
    12a8:	f443 3300 	orr.w	r3, r3, #131072	; 0x20000
    12ac:	6143      	str	r3, [r0, #20]
    12ae:	f3bf 8f4f 	dsb	sy
    12b2:	f3bf 8f6f 	isb	sy
    12b6:	47a0      	blx	r4
    12b8:	f44f 704a 	mov.w	r0, #808	; 0x328
    12bc:	f7ff f83c 	bl	338 <BOOT_ROM_PatchEntry>
    12c0:	f64d 03b1 	movw	r3, #55473	; 0xd8b1
    12c4:	f2c0 0300 	movt	r3, #0
    12c8:	4798      	blx	r3
    12ca:	b9e0      	cbnz	r0, 1306 <BOOT_ROM_ResetVsr+0x206>
    12cc:	f64d 03c5 	movw	r3, #55493	; 0xd8c5
    12d0:	f2c0 0300 	movt	r3, #0
    12d4:	4798      	blx	r3
    12d6:	b9b0      	cbnz	r0, 1306 <BOOT_ROM_ResetVsr+0x206>
    12d8:	47a0      	blx	r4
    12da:	f240 3031 	movw	r0, #817	; 0x331
    12de:	f7ff f82b 	bl	338 <BOOT_ROM_PatchEntry>
    12e2:	f44f 4340 	mov.w	r3, #49152	; 0xc000
    12e6:	f2c4 1300 	movt	r3, #16640	; 0x4100
    12ea:	f8d3 326c 	ldr.w	r3, [r3, #620]	; 0x26c
    12ee:	00db      	lsls	r3, r3, #3
    12f0:	d501      	bpl.n	12f6 <BOOT_ROM_ResetVsr+0x1f6>
    12f2:	68ab      	ldr	r3, [r5, #8]
    12f4:	4798      	blx	r3
    12f6:	47a0      	blx	r4
    12f8:	f240 303a 	movw	r0, #826	; 0x33a
    12fc:	f7ff f81c 	bl	338 <BOOT_ROM_PatchEntry>
    1300:	f7ff fdec 	bl	edc <BOOT_ROM_FromFlash>
    1304:	e7fe      	b.n	1304 <BOOT_ROM_ResetVsr+0x204>
    1306:	f24b 03c9 	movw	r3, #45257	; 0xb0c9
    130a:	f44f 7100 	mov.w	r1, #512	; 0x200
    130e:	2000      	movs	r0, #0
    1310:	f2c0 0300 	movt	r3, #0
    1314:	4798      	blx	r3
    1316:	2002      	movs	r0, #2
    1318:	f00f fef6 	bl	11108 <xmodem_img_download>
    131c:	e7dc      	b.n	12d8 <BOOT_ROM_ResetVsr+0x1d8>
    131e:	f24a 0520 	movw	r5, #40992	; 0xa020
    1322:	9201      	str	r2, [sp, #4]
    1324:	f2c3 0500 	movt	r5, #12288	; 0x3000
    1328:	68ab      	ldr	r3, [r5, #8]
    132a:	4798      	blx	r3
    132c:	9a01      	ldr	r2, [sp, #4]
    132e:	e715      	b.n	115c <BOOT_ROM_ResetVsr+0x5c>
    1330:	f645 30c8 	movw	r0, #23496	; 0x5bc8
    1334:	2200      	movs	r2, #0
    1336:	2101      	movs	r1, #1
    1338:	f2c0 0004 	movt	r0, #4
    133c:	f00e fcc4 	bl	fcc8 <DiagPrintf>
    1340:	e771      	b.n	1226 <BOOT_ROM_ResetVsr+0x126>
    1342:	bf00      	nop

00001344 <CRYPTO_MemDump>:
    1344:	2800      	cmp	r0, #0
    1346:	f000 8090 	beq.w	146a <CRYPTO_MemDump+0x126>
    134a:	e92d 4ff0 	stmdb	sp!, {r4, r5, r6, r7, r8, r9, sl, fp, lr}
    134e:	460e      	mov	r6, r1
    1350:	b085      	sub	sp, #20
    1352:	2900      	cmp	r1, #0
    1354:	d036      	beq.n	13c4 <CRYPTO_MemDump+0x80>
    1356:	f244 0704 	movw	r7, #16388	; 0x4004
    135a:	4682      	mov	sl, r0
    135c:	f2c2 0700 	movt	r7, #8192	; 0x2000
    1360:	6838      	ldr	r0, [r7, #0]
    1362:	2a00      	cmp	r2, #0
    1364:	d04c      	beq.n	1400 <CRYPTO_MemDump+0xbc>
    1366:	f410 3000 	ands.w	r0, r0, #131072	; 0x20000
    136a:	d141      	bne.n	13f0 <CRYPTO_MemDump+0xac>
    136c:	f006 030f 	and.w	r3, r6, #15
    1370:	f645 39ec 	movw	r9, #23532	; 0x5bec
    1374:	0936      	lsrs	r6, r6, #4
    1376:	f04f 0b00 	mov.w	fp, #0
    137a:	9301      	str	r3, [sp, #4]
    137c:	f645 33dc 	movw	r3, #23516	; 0x5bdc
    1380:	f2c0 0904 	movt	r9, #4
    1384:	f106 0801 	add.w	r8, r6, #1
    1388:	f2c0 0304 	movt	r3, #4
    138c:	9303      	str	r3, [sp, #12]
    138e:	f645 33e8 	movw	r3, #23528	; 0x5be8
    1392:	f2c0 0304 	movt	r3, #4
    1396:	9302      	str	r3, [sp, #8]
    1398:	45b3      	cmp	fp, r6
    139a:	d049      	beq.n	1430 <CRYPTO_MemDump+0xec>
    139c:	2510      	movs	r5, #16
    139e:	2800      	cmp	r0, #0
    13a0:	d14b      	bne.n	143a <CRYPTO_MemDump+0xf6>
    13a2:	2400      	movs	r4, #0
    13a4:	2c08      	cmp	r4, #8
    13a6:	d010      	beq.n	13ca <CRYPTO_MemDump+0x86>
    13a8:	b9c8      	cbnz	r0, 13de <CRYPTO_MemDump+0x9a>
    13aa:	3401      	adds	r4, #1
    13ac:	42a5      	cmp	r5, r4
    13ae:	d1f9      	bne.n	13a4 <CRYPTO_MemDump+0x60>
    13b0:	2c10      	cmp	r4, #16
    13b2:	d128      	bne.n	1406 <CRYPTO_MemDump+0xc2>
    13b4:	f10b 0b01 	add.w	fp, fp, #1
    13b8:	f10a 0a10 	add.w	sl, sl, #16
    13bc:	45d8      	cmp	r8, fp
    13be:	dceb      	bgt.n	1398 <CRYPTO_MemDump+0x54>
    13c0:	2800      	cmp	r0, #0
    13c2:	d142      	bne.n	144a <CRYPTO_MemDump+0x106>
    13c4:	b005      	add	sp, #20
    13c6:	e8bd 8ff0 	ldmia.w	sp!, {r4, r5, r6, r7, r8, r9, sl, fp, pc}
    13ca:	2800      	cmp	r0, #0
    13cc:	d0ed      	beq.n	13aa <CRYPTO_MemDump+0x66>
    13ce:	9802      	ldr	r0, [sp, #8]
    13d0:	f00e fc7a 	bl	fcc8 <DiagPrintf>
    13d4:	6838      	ldr	r0, [r7, #0]
    13d6:	f400 3000 	and.w	r0, r0, #131072	; 0x20000
    13da:	2800      	cmp	r0, #0
    13dc:	d0e5      	beq.n	13aa <CRYPTO_MemDump+0x66>
    13de:	f81a 1004 	ldrb.w	r1, [sl, r4]
    13e2:	4648      	mov	r0, r9
    13e4:	f00e fc70 	bl	fcc8 <DiagPrintf>
    13e8:	6838      	ldr	r0, [r7, #0]
    13ea:	f400 3000 	and.w	r0, r0, #131072	; 0x20000
    13ee:	e7dc      	b.n	13aa <CRYPTO_MemDump+0x66>
    13f0:	f645 30d8 	movw	r0, #23512	; 0x5bd8
    13f4:	4611      	mov	r1, r2
    13f6:	f2c0 0004 	movt	r0, #4
    13fa:	f00e fc65 	bl	fcc8 <DiagPrintf>
    13fe:	6838      	ldr	r0, [r7, #0]
    1400:	f400 3000 	and.w	r0, r0, #131072	; 0x20000
    1404:	e7b2      	b.n	136c <CRYPTO_MemDump+0x28>
    1406:	2c07      	cmp	r4, #7
    1408:	dc00      	bgt.n	140c <CRYPTO_MemDump+0xc8>
    140a:	bb38      	cbnz	r0, 145c <CRYPTO_MemDump+0x118>
    140c:	f645 35f4 	movw	r5, #23540	; 0x5bf4
    1410:	f1c4 0410 	rsb	r4, r4, #16
    1414:	f2c0 0504 	movt	r5, #4
    1418:	b918      	cbnz	r0, 1422 <CRYPTO_MemDump+0xde>
    141a:	3c01      	subs	r4, #1
    141c:	d0ca      	beq.n	13b4 <CRYPTO_MemDump+0x70>
    141e:	2800      	cmp	r0, #0
    1420:	d0fb      	beq.n	141a <CRYPTO_MemDump+0xd6>
    1422:	4628      	mov	r0, r5
    1424:	f00e fc50 	bl	fcc8 <DiagPrintf>
    1428:	6838      	ldr	r0, [r7, #0]
    142a:	f400 3000 	and.w	r0, r0, #131072	; 0x20000
    142e:	e7f4      	b.n	141a <CRYPTO_MemDump+0xd6>
    1430:	9d01      	ldr	r5, [sp, #4]
    1432:	2d00      	cmp	r5, #0
    1434:	d0c4      	beq.n	13c0 <CRYPTO_MemDump+0x7c>
    1436:	2800      	cmp	r0, #0
    1438:	d0b3      	beq.n	13a2 <CRYPTO_MemDump+0x5e>
    143a:	4651      	mov	r1, sl
    143c:	9803      	ldr	r0, [sp, #12]
    143e:	f00e fc43 	bl	fcc8 <DiagPrintf>
    1442:	6838      	ldr	r0, [r7, #0]
    1444:	f400 3000 	and.w	r0, r0, #131072	; 0x20000
    1448:	e7ab      	b.n	13a2 <CRYPTO_MemDump+0x5e>
    144a:	f645 30fc 	movw	r0, #23548	; 0x5bfc
    144e:	f2c0 0004 	movt	r0, #4
    1452:	b005      	add	sp, #20
    1454:	e8bd 4ff0 	ldmia.w	sp!, {r4, r5, r6, r7, r8, r9, sl, fp, lr}
    1458:	f00e bc36 	b.w	fcc8 <DiagPrintf>
    145c:	9802      	ldr	r0, [sp, #8]
    145e:	f00e fc33 	bl	fcc8 <DiagPrintf>
    1462:	6838      	ldr	r0, [r7, #0]
    1464:	f400 3000 	and.w	r0, r0, #131072	; 0x20000
    1468:	e7d0      	b.n	140c <CRYPTO_MemDump+0xc8>
    146a:	4770      	bx	lr

0000146c <CRYPTO_SetSrcDesc>:
    146c:	b570      	push	{r4, r5, r6, lr}
    146e:	f64f 43c9 	movw	r3, #64713	; 0xfcc9
    1472:	4606      	mov	r6, r0
    1474:	460d      	mov	r5, r1
    1476:	bb0a      	cbnz	r2, 14bc <CRYPTO_SetSrcDesc+0x50>
    1478:	2400      	movs	r4, #0
    147a:	f2c0 0300 	movt	r3, #0
    147e:	4622      	mov	r2, r4
    1480:	f2c4 0410 	movt	r4, #16400	; 0x4010
    1484:	f2c5 0210 	movt	r2, #20496	; 0x5010
    1488:	f44f 1c80 	mov.w	ip, #1048576	; 0x100000
    148c:	e843 f300 	tt	r3, r3
    1490:	f413 0f80 	tst.w	r3, #4194304	; 0x400000
    1494:	bf18      	it	ne
    1496:	4614      	movne	r4, r2
    1498:	e002      	b.n	14a0 <CRYPTO_SetSrcDesc+0x34>
    149a:	f1bc 0c01 	subs.w	ip, ip, #1
    149e:	d01e      	beq.n	14de <CRYPTO_SetSrcDesc+0x72>
    14a0:	6823      	ldr	r3, [r4, #0]
    14a2:	b2db      	uxtb	r3, r3
    14a4:	2b00      	cmp	r3, #0
    14a6:	d0f8      	beq.n	149a <CRYPTO_SetSrcDesc+0x2e>
    14a8:	f244 0304 	movw	r3, #16388	; 0x4004
    14ac:	f2c2 0300 	movt	r3, #8192	; 0x2000
    14b0:	689b      	ldr	r3, [r3, #8]
    14b2:	049a      	lsls	r2, r3, #18
    14b4:	d40a      	bmi.n	14cc <CRYPTO_SetSrcDesc+0x60>
    14b6:	6066      	str	r6, [r4, #4]
    14b8:	60a5      	str	r5, [r4, #8]
    14ba:	bd70      	pop	{r4, r5, r6, pc}
    14bc:	f44f 4400 	mov.w	r4, #32768	; 0x8000
    14c0:	f2c0 0300 	movt	r3, #0
    14c4:	4622      	mov	r2, r4
    14c6:	f2c4 0410 	movt	r4, #16400	; 0x4010
    14ca:	e7db      	b.n	1484 <CRYPTO_SetSrcDesc+0x18>
    14cc:	f645 4000 	movw	r0, #23552	; 0x5c00
    14d0:	462a      	mov	r2, r5
    14d2:	4631      	mov	r1, r6
    14d4:	f2c0 0004 	movt	r0, #4
    14d8:	f00e fbf6 	bl	fcc8 <DiagPrintf>
    14dc:	e7eb      	b.n	14b6 <CRYPTO_SetSrcDesc+0x4a>
    14de:	f244 0304 	movw	r3, #16388	; 0x4004
    14e2:	f2c2 0300 	movt	r3, #8192	; 0x2000
    14e6:	681b      	ldr	r3, [r3, #0]
    14e8:	049b      	lsls	r3, r3, #18
    14ea:	d5e6      	bpl.n	14ba <CRYPTO_SetSrcDesc+0x4e>
    14ec:	f645 4034 	movw	r0, #23604	; 0x5c34
    14f0:	e8bd 4070 	ldmia.w	sp!, {r4, r5, r6, lr}
    14f4:	f2c0 0004 	movt	r0, #4
    14f8:	f00e bbe6 	b.w	fcc8 <DiagPrintf>

000014fc <CRYPTO_SetDstDesc>:
    14fc:	b570      	push	{r4, r5, r6, lr}
    14fe:	f64f 43c9 	movw	r3, #64713	; 0xfcc9
    1502:	4606      	mov	r6, r0
    1504:	460d      	mov	r5, r1
    1506:	bb6a      	cbnz	r2, 1564 <CRYPTO_SetDstDesc+0x68>
    1508:	2400      	movs	r4, #0
    150a:	f2c0 0300 	movt	r3, #0
    150e:	4622      	mov	r2, r4
    1510:	f2c4 0410 	movt	r4, #16400	; 0x4010
    1514:	e843 f300 	tt	r3, r3
    1518:	f2c5 0210 	movt	r2, #20496	; 0x5010
    151c:	f413 0f80 	tst.w	r3, #4194304	; 0x400000
    1520:	bf18      	it	ne
    1522:	4614      	movne	r4, r2
    1524:	f504 5480 	add.w	r4, r4, #4096	; 0x1000
    1528:	6823      	ldr	r3, [r4, #0]
    152a:	b2db      	uxtb	r3, r3
    152c:	b14b      	cbz	r3, 1542 <CRYPTO_SetDstDesc+0x46>
    152e:	f244 0304 	movw	r3, #16388	; 0x4004
    1532:	f2c2 0300 	movt	r3, #8192	; 0x2000
    1536:	689b      	ldr	r3, [r3, #8]
    1538:	049a      	lsls	r2, r3, #18
    153a:	d41b      	bmi.n	1574 <CRYPTO_SetDstDesc+0x78>
    153c:	6066      	str	r6, [r4, #4]
    153e:	60a5      	str	r5, [r4, #8]
    1540:	bd70      	pop	{r4, r5, r6, pc}
    1542:	f244 0304 	movw	r3, #16388	; 0x4004
    1546:	f2c2 0300 	movt	r3, #8192	; 0x2000
    154a:	681b      	ldr	r3, [r3, #0]
    154c:	049b      	lsls	r3, r3, #18
    154e:	d5f7      	bpl.n	1540 <CRYPTO_SetDstDesc+0x44>
    1550:	6821      	ldr	r1, [r4, #0]
    1552:	f645 40a0 	movw	r0, #23712	; 0x5ca0
    1556:	b2c9      	uxtb	r1, r1
    1558:	f2c0 0004 	movt	r0, #4
    155c:	e8bd 4070 	ldmia.w	sp!, {r4, r5, r6, lr}
    1560:	f00e bbb2 	b.w	fcc8 <DiagPrintf>
    1564:	f44f 4400 	mov.w	r4, #32768	; 0x8000
    1568:	f2c0 0300 	movt	r3, #0
    156c:	4622      	mov	r2, r4
    156e:	f2c4 0410 	movt	r4, #16400	; 0x4010
    1572:	e7cf      	b.n	1514 <CRYPTO_SetDstDesc+0x18>
    1574:	f645 406c 	movw	r0, #23660	; 0x5c6c
    1578:	462a      	mov	r2, r5
    157a:	4631      	mov	r1, r6
    157c:	f2c0 0004 	movt	r0, #4
    1580:	f00e fba2 	bl	fcc8 <DiagPrintf>
    1584:	6066      	str	r6, [r4, #4]
    1586:	60a5      	str	r5, [r4, #8]
    1588:	e7da      	b.n	1540 <CRYPTO_SetDstDesc+0x44>
    158a:	bf00      	nop

0000158c <CRYPTO_CleanCmdOk>:
    158c:	f64f 42c9 	movw	r2, #64713	; 0xfcc9
    1590:	b9c8      	cbnz	r0, 15c6 <CRYPTO_CleanCmdOk+0x3a>
    1592:	2300      	movs	r3, #0
    1594:	f2c0 0200 	movt	r2, #0
    1598:	4619      	mov	r1, r3
    159a:	f2c4 0310 	movt	r3, #16400	; 0x4010
    159e:	e842 f200 	tt	r2, r2
    15a2:	f2c5 0110 	movt	r1, #20496	; 0x5010
    15a6:	f412 0f80 	tst.w	r2, #4194304	; 0x400000
    15aa:	bf18      	it	ne
    15ac:	460b      	movne	r3, r1
    15ae:	691a      	ldr	r2, [r3, #16]
    15b0:	6919      	ldr	r1, [r3, #16]
    15b2:	0212      	lsls	r2, r2, #8
    15b4:	f402 027f 	and.w	r2, r2, #16711680	; 0xff0000
    15b8:	430a      	orrs	r2, r1
    15ba:	611a      	str	r2, [r3, #16]
    15bc:	691a      	ldr	r2, [r3, #16]
    15be:	f042 0210 	orr.w	r2, r2, #16
    15c2:	611a      	str	r2, [r3, #16]
    15c4:	4770      	bx	lr
    15c6:	f44f 4300 	mov.w	r3, #32768	; 0x8000
    15ca:	f2c0 0200 	movt	r2, #0
    15ce:	4619      	mov	r1, r3
    15d0:	f2c4 0310 	movt	r3, #16400	; 0x4010
    15d4:	e7e3      	b.n	159e <CRYPTO_CleanCmdOk+0x12>
    15d6:	bf00      	nop

000015d8 <CRYPTO_ClearAllINT>:
    15d8:	f64f 42c9 	movw	r2, #64713	; 0xfcc9
    15dc:	b508      	push	{r3, lr}
    15de:	b9b0      	cbnz	r0, 160e <CRYPTO_ClearAllINT+0x36>
    15e0:	2300      	movs	r3, #0
    15e2:	f2c0 0200 	movt	r2, #0
    15e6:	4619      	mov	r1, r3
    15e8:	f2c4 0310 	movt	r3, #16400	; 0x4010
    15ec:	e842 f200 	tt	r2, r2
    15f0:	f2c5 0110 	movt	r1, #20496	; 0x5010
    15f4:	f412 0f80 	tst.w	r2, #4194304	; 0x400000
    15f8:	f241 528d 	movw	r2, #5517	; 0x158d
    15fc:	bf18      	it	ne
    15fe:	460b      	movne	r3, r1
    1600:	f64f 71ff 	movw	r1, #65535	; 0xffff
    1604:	f2c0 0200 	movt	r2, #0
    1608:	61d9      	str	r1, [r3, #28]
    160a:	4790      	blx	r2
    160c:	bd08      	pop	{r3, pc}
    160e:	f44f 4300 	mov.w	r3, #32768	; 0x8000
    1612:	f2c0 0200 	movt	r2, #0
    1616:	4619      	mov	r1, r3
    1618:	f2c4 0310 	movt	r3, #16400	; 0x4010
    161c:	e7e6      	b.n	15ec <CRYPTO_ClearAllINT+0x14>
    161e:	bf00      	nop

00001620 <CRYPTO_SetCmdBuf>:
    1620:	f241 5351 	movw	r3, #5457	; 0x1551
    1624:	2220      	movs	r2, #32
    1626:	2100      	movs	r1, #0
    1628:	f2c0 0301 	movt	r3, #1
    162c:	b570      	push	{r4, r5, r6, lr}
    162e:	4604      	mov	r4, r0
    1630:	f500 70c4 	add.w	r0, r0, #392	; 0x188
    1634:	6ce6      	ldr	r6, [r4, #76]	; 0x4c
    1636:	6d65      	ldr	r5, [r4, #84]	; 0x54
    1638:	4798      	blx	r3
    163a:	68e3      	ldr	r3, [r4, #12]
    163c:	3301      	adds	r3, #1
    163e:	d066      	beq.n	170e <CRYPTO_SetCmdBuf+0xee>
    1640:	f894 318a 	ldrb.w	r3, [r4, #394]	; 0x18a
    1644:	f894 202c 	ldrb.w	r2, [r4, #44]	; 0x2c
    1648:	f023 037c 	bic.w	r3, r3, #124	; 0x7c
    164c:	2a01      	cmp	r2, #1
    164e:	f043 0344 	orr.w	r3, r3, #68	; 0x44
    1652:	f884 318a 	strb.w	r3, [r4, #394]	; 0x18a
    1656:	d04d      	beq.n	16f4 <CRYPTO_SetCmdBuf+0xd4>
    1658:	7c63      	ldrb	r3, [r4, #17]
    165a:	7c22      	ldrb	r2, [r4, #16]
    165c:	b303      	cbz	r3, 16a0 <CRYPTO_SetCmdBuf+0x80>
    165e:	f894 318f 	ldrb.w	r3, [r4, #399]	; 0x18f
    1662:	f063 0355 	orn	r3, r3, #85	; 0x55
    1666:	f884 318f 	strb.w	r3, [r4, #399]	; 0x18f
    166a:	2a00      	cmp	r2, #0
    166c:	f000 809c 	beq.w	17a8 <CRYPTO_SetCmdBuf+0x188>
    1670:	f894 3189 	ldrb.w	r3, [r4, #393]	; 0x189
    1674:	f894 202d 	ldrb.w	r2, [r4, #45]	; 0x2d
    1678:	f043 0320 	orr.w	r3, r3, #32
    167c:	2a01      	cmp	r2, #1
    167e:	f884 3189 	strb.w	r3, [r4, #393]	; 0x189
    1682:	f000 80f3 	beq.w	186c <CRYPTO_SetCmdBuf+0x24c>
    1686:	09ad      	lsrs	r5, r5, #6
    1688:	f8a4 5192 	strh.w	r5, [r4, #402]	; 0x192
    168c:	f894 318a 	ldrb.w	r3, [r4, #394]	; 0x18a
    1690:	f003 037d 	and.w	r3, r3, #125	; 0x7d
    1694:	f884 318a 	strb.w	r3, [r4, #394]	; 0x18a
    1698:	2340      	movs	r3, #64	; 0x40
    169a:	f884 318b 	strb.w	r3, [r4, #395]	; 0x18b
    169e:	bd70      	pop	{r4, r5, r6, pc}
    16a0:	7ca3      	ldrb	r3, [r4, #18]
    16a2:	2b00      	cmp	r3, #0
    16a4:	d176      	bne.n	1794 <CRYPTO_SetCmdBuf+0x174>
    16a6:	7d23      	ldrb	r3, [r4, #20]
    16a8:	2b00      	cmp	r3, #0
    16aa:	d0de      	beq.n	166a <CRYPTO_SetCmdBuf+0x4a>
    16ac:	2b1c      	cmp	r3, #28
    16ae:	f000 80ef 	beq.w	1890 <CRYPTO_SetCmdBuf+0x270>
    16b2:	2b20      	cmp	r3, #32
    16b4:	f000 8099 	beq.w	17ea <CRYPTO_SetCmdBuf+0x1ca>
    16b8:	2b30      	cmp	r3, #48	; 0x30
    16ba:	f000 80a1 	beq.w	1800 <CRYPTO_SetCmdBuf+0x1e0>
    16be:	2b40      	cmp	r3, #64	; 0x40
    16c0:	d1d3      	bne.n	166a <CRYPTO_SetCmdBuf+0x4a>
    16c2:	f8d4 3188 	ldr.w	r3, [r4, #392]	; 0x188
    16c6:	2105      	movs	r1, #5
    16c8:	f361 3390 	bfi	r3, r1, #14, #3
    16cc:	f8c4 3188 	str.w	r3, [r4, #392]	; 0x188
    16d0:	2a00      	cmp	r2, #0
    16d2:	f000 809f 	beq.w	1814 <CRYPTO_SetCmdBuf+0x1f4>
    16d6:	f894 3189 	ldrb.w	r3, [r4, #393]	; 0x189
    16da:	f894 202d 	ldrb.w	r2, [r4, #45]	; 0x2d
    16de:	f043 0320 	orr.w	r3, r3, #32
    16e2:	2a01      	cmp	r2, #1
    16e4:	f884 3189 	strb.w	r3, [r4, #393]	; 0x189
    16e8:	f000 80dd 	beq.w	18a6 <CRYPTO_SetCmdBuf+0x286>
    16ec:	09ed      	lsrs	r5, r5, #7
    16ee:	f8a4 5192 	strh.w	r5, [r4, #402]	; 0x192
    16f2:	e7cb      	b.n	168c <CRYPTO_SetCmdBuf+0x6c>
    16f4:	b2db      	uxtb	r3, r3
    16f6:	2200      	movs	r2, #0
    16f8:	f043 0320 	orr.w	r3, r3, #32
    16fc:	f884 202c 	strb.w	r2, [r4, #44]	; 0x2c
    1700:	7c22      	ldrb	r2, [r4, #16]
    1702:	f884 318a 	strb.w	r3, [r4, #394]	; 0x18a
    1706:	7c63      	ldrb	r3, [r4, #17]
    1708:	2b00      	cmp	r3, #0
    170a:	d0c9      	beq.n	16a0 <CRYPTO_SetCmdBuf+0x80>
    170c:	e7a7      	b.n	165e <CRYPTO_SetCmdBuf+0x3e>
    170e:	f894 2188 	ldrb.w	r2, [r4, #392]	; 0x188
    1712:	6863      	ldr	r3, [r4, #4]
    1714:	f363 0203 	bfi	r2, r3, #0, #4
    1718:	f884 2188 	strb.w	r2, [r4, #392]	; 0x188
    171c:	7a22      	ldrb	r2, [r4, #8]
    171e:	b362      	cbz	r2, 177a <CRYPTO_SetCmdBuf+0x15a>
    1720:	f894 2188 	ldrb.w	r2, [r4, #392]	; 0x188
    1724:	f36f 1205 	bfc	r2, #4, #2
    1728:	f884 2188 	strb.w	r2, [r4, #392]	; 0x188
    172c:	6c62      	ldr	r2, [r4, #68]	; 0x44
    172e:	2a18      	cmp	r2, #24
    1730:	f000 8085 	beq.w	183e <CRYPTO_SetCmdBuf+0x21e>
    1734:	2a20      	cmp	r2, #32
    1736:	f000 808a 	beq.w	184e <CRYPTO_SetCmdBuf+0x22e>
    173a:	2a10      	cmp	r2, #16
    173c:	f000 808f 	beq.w	185e <CRYPTO_SetCmdBuf+0x23e>
    1740:	f894 218c 	ldrb.w	r2, [r4, #396]	; 0x18c
    1744:	350f      	adds	r5, #15
    1746:	f003 030f 	and.w	r3, r3, #15
    174a:	69a1      	ldr	r1, [r4, #24]
    174c:	092d      	lsrs	r5, r5, #4
    174e:	f361 1207 	bfi	r2, r1, #4, #4
    1752:	2b08      	cmp	r3, #8
    1754:	f8a4 5192 	strh.w	r5, [r4, #402]	; 0x192
    1758:	f884 218c 	strb.w	r2, [r4, #396]	; 0x18c
    175c:	d10d      	bne.n	177a <CRYPTO_SetCmdBuf+0x15a>
    175e:	360f      	adds	r6, #15
    1760:	f894 3191 	ldrb.w	r3, [r4, #401]	; 0x191
    1764:	b2d2      	uxtb	r2, r2
    1766:	69e1      	ldr	r1, [r4, #28]
    1768:	0936      	lsrs	r6, r6, #4
    176a:	f361 0203 	bfi	r2, r1, #0, #4
    176e:	f366 0305 	bfi	r3, r6, #0, #6
    1772:	f884 218c 	strb.w	r2, [r4, #396]	; 0x18c
    1776:	f884 3191 	strb.w	r3, [r4, #401]	; 0x191
    177a:	7a63      	ldrb	r3, [r4, #9]
    177c:	2b00      	cmp	r3, #0
    177e:	d18b      	bne.n	1698 <CRYPTO_SetCmdBuf+0x78>
    1780:	f894 3188 	ldrb.w	r3, [r4, #392]	; 0x188
    1784:	f043 0380 	orr.w	r3, r3, #128	; 0x80
    1788:	f884 3188 	strb.w	r3, [r4, #392]	; 0x188
    178c:	2340      	movs	r3, #64	; 0x40
    178e:	f884 318b 	strb.w	r3, [r4, #395]	; 0x18b
    1792:	bd70      	pop	{r4, r5, r6, pc}
    1794:	f8d4 3188 	ldr.w	r3, [r4, #392]	; 0x188
    1798:	2101      	movs	r1, #1
    179a:	f361 3390 	bfi	r3, r1, #14, #3
    179e:	f8c4 3188 	str.w	r3, [r4, #392]	; 0x188
    17a2:	2a00      	cmp	r2, #0
    17a4:	f47f af64 	bne.w	1670 <CRYPTO_SetCmdBuf+0x50>
    17a8:	f894 302d 	ldrb.w	r3, [r4, #45]	; 0x2d
    17ac:	2b01      	cmp	r3, #1
    17ae:	f47f af6a 	bne.w	1686 <CRYPTO_SetCmdBuf+0x66>
    17b2:	f894 118c 	ldrb.w	r1, [r4, #396]	; 0x18c
    17b6:	f105 020f 	add.w	r2, r5, #15
    17ba:	69a0      	ldr	r0, [r4, #24]
    17bc:	6b23      	ldr	r3, [r4, #48]	; 0x30
    17be:	0912      	lsrs	r2, r2, #4
    17c0:	f360 1107 	bfi	r1, r0, #4, #4
    17c4:	00db      	lsls	r3, r3, #3
    17c6:	f8a4 2192 	strh.w	r2, [r4, #402]	; 0x192
    17ca:	f884 118c 	strb.w	r1, [r4, #396]	; 0x18c
    17ce:	f8c4 3194 	str.w	r3, [r4, #404]	; 0x194
    17d2:	f894 318a 	ldrb.w	r3, [r4, #394]	; 0x18a
    17d6:	f003 037d 	and.w	r3, r3, #125	; 0x7d
    17da:	f043 0302 	orr.w	r3, r3, #2
    17de:	f884 318a 	strb.w	r3, [r4, #394]	; 0x18a
    17e2:	2340      	movs	r3, #64	; 0x40
    17e4:	f884 318b 	strb.w	r3, [r4, #395]	; 0x18b
    17e8:	bd70      	pop	{r4, r5, r6, pc}
    17ea:	f8d4 3188 	ldr.w	r3, [r4, #392]	; 0x188
    17ee:	2103      	movs	r1, #3
    17f0:	f361 3390 	bfi	r3, r1, #14, #3
    17f4:	f8c4 3188 	str.w	r3, [r4, #392]	; 0x188
    17f8:	2a00      	cmp	r2, #0
    17fa:	f47f af39 	bne.w	1670 <CRYPTO_SetCmdBuf+0x50>
    17fe:	e7d3      	b.n	17a8 <CRYPTO_SetCmdBuf+0x188>
    1800:	f8d4 3188 	ldr.w	r3, [r4, #392]	; 0x188
    1804:	2104      	movs	r1, #4
    1806:	f361 3390 	bfi	r3, r1, #14, #3
    180a:	f8c4 3188 	str.w	r3, [r4, #392]	; 0x188
    180e:	2a00      	cmp	r2, #0
    1810:	f47f af61 	bne.w	16d6 <CRYPTO_SetCmdBuf+0xb6>
    1814:	f894 302d 	ldrb.w	r3, [r4, #45]	; 0x2d
    1818:	2b01      	cmp	r3, #1
    181a:	f47f af67 	bne.w	16ec <CRYPTO_SetCmdBuf+0xcc>
    181e:	f894 218c 	ldrb.w	r2, [r4, #396]	; 0x18c
    1822:	350f      	adds	r5, #15
    1824:	69a1      	ldr	r1, [r4, #24]
    1826:	6b23      	ldr	r3, [r4, #48]	; 0x30
    1828:	092d      	lsrs	r5, r5, #4
    182a:	f361 1207 	bfi	r2, r1, #4, #4
    182e:	00db      	lsls	r3, r3, #3
    1830:	f8a4 5192 	strh.w	r5, [r4, #402]	; 0x192
    1834:	f884 218c 	strb.w	r2, [r4, #396]	; 0x18c
    1838:	f8c4 3194 	str.w	r3, [r4, #404]	; 0x194
    183c:	e7c9      	b.n	17d2 <CRYPTO_SetCmdBuf+0x1b2>
    183e:	f894 2189 	ldrb.w	r2, [r4, #393]	; 0x189
    1842:	2101      	movs	r1, #1
    1844:	f361 0201 	bfi	r2, r1, #0, #2
    1848:	f884 2189 	strb.w	r2, [r4, #393]	; 0x189
    184c:	e778      	b.n	1740 <CRYPTO_SetCmdBuf+0x120>
    184e:	f894 2189 	ldrb.w	r2, [r4, #393]	; 0x189
    1852:	2102      	movs	r1, #2
    1854:	f361 0201 	bfi	r2, r1, #0, #2
    1858:	f884 2189 	strb.w	r2, [r4, #393]	; 0x189
    185c:	e770      	b.n	1740 <CRYPTO_SetCmdBuf+0x120>
    185e:	f894 2189 	ldrb.w	r2, [r4, #393]	; 0x189
    1862:	f36f 0201 	bfc	r2, #0, #2
    1866:	f884 2189 	strb.w	r2, [r4, #393]	; 0x189
    186a:	e769      	b.n	1740 <CRYPTO_SetCmdBuf+0x120>
    186c:	6b23      	ldr	r3, [r4, #48]	; 0x30
    186e:	350f      	adds	r5, #15
    1870:	f894 218c 	ldrb.w	r2, [r4, #396]	; 0x18c
    1874:	69a1      	ldr	r1, [r4, #24]
    1876:	00db      	lsls	r3, r3, #3
    1878:	092d      	lsrs	r5, r5, #4
    187a:	f361 1207 	bfi	r2, r1, #4, #4
    187e:	f503 7300 	add.w	r3, r3, #512	; 0x200
    1882:	f8a4 5192 	strh.w	r5, [r4, #402]	; 0x192
    1886:	f884 218c 	strb.w	r2, [r4, #396]	; 0x18c
    188a:	f8c4 3194 	str.w	r3, [r4, #404]	; 0x194
    188e:	e7a0      	b.n	17d2 <CRYPTO_SetCmdBuf+0x1b2>
    1890:	f8d4 3188 	ldr.w	r3, [r4, #392]	; 0x188
    1894:	2102      	movs	r1, #2
    1896:	f361 3390 	bfi	r3, r1, #14, #3
    189a:	f8c4 3188 	str.w	r3, [r4, #392]	; 0x188
    189e:	2a00      	cmp	r2, #0
    18a0:	f47f aee6 	bne.w	1670 <CRYPTO_SetCmdBuf+0x50>
    18a4:	e780      	b.n	17a8 <CRYPTO_SetCmdBuf+0x188>
    18a6:	6b23      	ldr	r3, [r4, #48]	; 0x30
    18a8:	350f      	adds	r5, #15
    18aa:	f894 218c 	ldrb.w	r2, [r4, #396]	; 0x18c
    18ae:	69a1      	ldr	r1, [r4, #24]
    18b0:	00db      	lsls	r3, r3, #3
    18b2:	092d      	lsrs	r5, r5, #4
    18b4:	f361 1207 	bfi	r2, r1, #4, #4
    18b8:	f503 6380 	add.w	r3, r3, #1024	; 0x400
    18bc:	f8a4 5192 	strh.w	r5, [r4, #402]	; 0x192
    18c0:	f884 218c 	strb.w	r2, [r4, #396]	; 0x18c
    18c4:	f8c4 3194 	str.w	r3, [r4, #404]	; 0x194
    18c8:	e783      	b.n	17d2 <CRYPTO_SetCmdBuf+0x1b2>
    18ca:	bf00      	nop

000018cc <CRYPTO_SrcDescKeyIv>:
    18cc:	e92d 4ff0 	stmdb	sp!, {r4, r5, r6, r7, r8, r9, sl, fp, lr}
    18d0:	461d      	mov	r5, r3
    18d2:	f890 302d 	ldrb.w	r3, [r0, #45]	; 0x2d
    18d6:	b083      	sub	sp, #12
    18d8:	f04f 0a00 	mov.w	sl, #0
    18dc:	3b00      	subs	r3, #0
    18de:	4604      	mov	r4, r0
    18e0:	460e      	mov	r6, r1
    18e2:	4690      	mov	r8, r2
    18e4:	bf18      	it	ne
    18e6:	2301      	movne	r3, #1
    18e8:	f8dd 9030 	ldr.w	r9, [sp, #48]	; 0x30
    18ec:	f504 7bc4 	add.w	fp, r4, #392	; 0x188
    18f0:	019b      	lsls	r3, r3, #6
    18f2:	f443 43c6 	orr.w	r3, r3, #25344	; 0x6300
    18f6:	f363 4a1f 	bfi	sl, r3, #16, #16
    18fa:	f7ff fe91 	bl	1620 <CRYPTO_SetCmdBuf>
    18fe:	f44f 436d 	mov.w	r3, #60672	; 0xed00
    1902:	f2ce 0300 	movt	r3, #57344	; 0xe000
    1906:	695b      	ldr	r3, [r3, #20]
    1908:	03d8      	lsls	r0, r3, #15
    190a:	d519      	bpl.n	1940 <CRYPTO_SrcDescKeyIv+0x74>
    190c:	f01b 0f1f 	tst.w	fp, #31
    1910:	f040 80dd 	bne.w	1ace <CRYPTO_SrcDescKeyIv+0x202>
    1914:	f3bf 8f4f 	dsb	sy
    1918:	2120      	movs	r1, #32
    191a:	465a      	mov	r2, fp
    191c:	f44f 406d 	mov.w	r0, #60672	; 0xed00
    1920:	4411      	add	r1, r2
    1922:	f102 0320 	add.w	r3, r2, #32
    1926:	f2ce 0000 	movt	r0, #57344	; 0xe000
    192a:	428b      	cmp	r3, r1
    192c:	f8c0 2270 	str.w	r2, [r0, #624]	; 0x270
    1930:	461a      	mov	r2, r3
    1932:	f103 0320 	add.w	r3, r3, #32
    1936:	d1f8      	bne.n	192a <CRYPTO_SrcDescKeyIv+0x5e>
    1938:	f3bf 8f4f 	dsb	sy
    193c:	f3bf 8f6f 	isb	sy
    1940:	f244 0704 	movw	r7, #16388	; 0x4004
    1944:	f2c2 0700 	movt	r7, #8192	; 0x2000
    1948:	68bb      	ldr	r3, [r7, #8]
    194a:	0499      	lsls	r1, r3, #18
    194c:	f100 8146 	bmi.w	1bdc <CRYPTO_SrcDescKeyIv+0x310>
    1950:	4659      	mov	r1, fp
    1952:	4650      	mov	r0, sl
    1954:	464a      	mov	r2, r9
    1956:	f7ff fd89 	bl	146c <CRYPTO_SetSrcDesc>
    195a:	6863      	ldr	r3, [r4, #4]
    195c:	3301      	adds	r3, #1
    195e:	d03a      	beq.n	19d6 <CRYPTO_SrcDescKeyIv+0x10a>
    1960:	f44f 406d 	mov.w	r0, #60672	; 0xed00
    1964:	2100      	movs	r1, #0
    1966:	f2ce 0000 	movt	r0, #57344	; 0xe000
    196a:	e9d4 3a11 	ldrd	r3, sl, [r4, #68]	; 0x44
    196e:	6942      	ldr	r2, [r0, #20]
    1970:	f3c3 0b83 	ubfx	fp, r3, #2, #4
    1974:	03d2      	lsls	r2, r2, #15
    1976:	f04b 4bc0 	orr.w	fp, fp, #1610612736	; 0x60000000
    197a:	d523      	bpl.n	19c4 <CRYPTO_SrcDescKeyIv+0xf8>
    197c:	ea0a 0203 	and.w	r2, sl, r3
    1980:	3201      	adds	r2, #1
    1982:	f000 819d 	beq.w	1cc0 <CRYPTO_SrcDescKeyIv+0x3f4>
    1986:	f01a 0f1f 	tst.w	sl, #31
    198a:	f040 8182 	bne.w	1c92 <CRYPTO_SrcDescKeyIv+0x3c6>
    198e:	461a      	mov	r2, r3
    1990:	4650      	mov	r0, sl
    1992:	f3bf 8f4f 	dsb	sy
    1996:	2a00      	cmp	r2, #0
    1998:	dd10      	ble.n	19bc <CRYPTO_SrcDescKeyIv+0xf0>
    199a:	1e51      	subs	r1, r2, #1
    199c:	f44f 4c6d 	mov.w	ip, #60672	; 0xed00
    19a0:	f100 0220 	add.w	r2, r0, #32
    19a4:	f021 011f 	bic.w	r1, r1, #31
    19a8:	f2ce 0c00 	movt	ip, #57344	; 0xe000
    19ac:	4411      	add	r1, r2
    19ae:	428a      	cmp	r2, r1
    19b0:	f8cc 0270 	str.w	r0, [ip, #624]	; 0x270
    19b4:	4610      	mov	r0, r2
    19b6:	f102 0220 	add.w	r2, r2, #32
    19ba:	d1f8      	bne.n	19ae <CRYPTO_SrcDescKeyIv+0xe2>
    19bc:	f3bf 8f4f 	dsb	sy
    19c0:	f3bf 8f6f 	isb	sy
    19c4:	68ba      	ldr	r2, [r7, #8]
    19c6:	0492      	lsls	r2, r2, #18
    19c8:	f100 80ea 	bmi.w	1ba0 <CRYPTO_SrcDescKeyIv+0x2d4>
    19cc:	4651      	mov	r1, sl
    19ce:	4658      	mov	r0, fp
    19d0:	464a      	mov	r2, r9
    19d2:	f7ff fd4b 	bl	146c <CRYPTO_SetSrcDesc>
    19d6:	2e00      	cmp	r6, #0
    19d8:	d03c      	beq.n	1a54 <CRYPTO_SrcDescKeyIv+0x188>
    19da:	f1b8 0f00 	cmp.w	r8, #0
    19de:	d039      	beq.n	1a54 <CRYPTO_SrcDescKeyIv+0x188>
    19e0:	f44f 416d 	mov.w	r1, #60672	; 0xed00
    19e4:	ea4f 0a88 	mov.w	sl, r8, lsl #2
    19e8:	2200      	movs	r2, #0
    19ea:	f2ce 0100 	movt	r1, #57344	; 0xe000
    19ee:	f00a 0af0 	and.w	sl, sl, #240	; 0xf0
    19f2:	694b      	ldr	r3, [r1, #20]
    19f4:	f04a 4ac0 	orr.w	sl, sl, #1610612736	; 0x60000000
    19f8:	03d8      	lsls	r0, r3, #15
    19fa:	d522      	bpl.n	1a42 <CRYPTO_SrcDescKeyIv+0x176>
    19fc:	ea06 0308 	and.w	r3, r6, r8
    1a00:	3301      	adds	r3, #1
    1a02:	f000 818b 	beq.w	1d1c <CRYPTO_SrcDescKeyIv+0x450>
    1a06:	06f3      	lsls	r3, r6, #27
    1a08:	f040 814c 	bne.w	1ca4 <CRYPTO_SrcDescKeyIv+0x3d8>
    1a0c:	4643      	mov	r3, r8
    1a0e:	4631      	mov	r1, r6
    1a10:	f3bf 8f4f 	dsb	sy
    1a14:	2b00      	cmp	r3, #0
    1a16:	dd10      	ble.n	1a3a <CRYPTO_SrcDescKeyIv+0x16e>
    1a18:	1e5a      	subs	r2, r3, #1
    1a1a:	f44f 406d 	mov.w	r0, #60672	; 0xed00
    1a1e:	f101 0320 	add.w	r3, r1, #32
    1a22:	f022 021f 	bic.w	r2, r2, #31
    1a26:	f2ce 0000 	movt	r0, #57344	; 0xe000
    1a2a:	441a      	add	r2, r3
    1a2c:	4293      	cmp	r3, r2
    1a2e:	f8c0 1270 	str.w	r1, [r0, #624]	; 0x270
    1a32:	4619      	mov	r1, r3
    1a34:	f103 0320 	add.w	r3, r3, #32
    1a38:	d1f8      	bne.n	1a2c <CRYPTO_SrcDescKeyIv+0x160>
    1a3a:	f3bf 8f4f 	dsb	sy
    1a3e:	f3bf 8f6f 	isb	sy
    1a42:	68bb      	ldr	r3, [r7, #8]
    1a44:	0498      	lsls	r0, r3, #18
    1a46:	f100 80ef 	bmi.w	1c28 <CRYPTO_SrcDescKeyIv+0x35c>
    1a4a:	4631      	mov	r1, r6
    1a4c:	4650      	mov	r0, sl
    1a4e:	464a      	mov	r2, r9
    1a50:	f7ff fd0c 	bl	146c <CRYPTO_SetSrcDesc>
    1a54:	7c23      	ldrb	r3, [r4, #16]
    1a56:	b393      	cbz	r3, 1abe <CRYPTO_SrcDescKeyIv+0x1f2>
    1a58:	f44f 436d 	mov.w	r3, #60672	; 0xed00
    1a5c:	f44f 4a80 	mov.w	sl, #16384	; 0x4000
    1a60:	f104 0664 	add.w	r6, r4, #100	; 0x64
    1a64:	f2ce 0300 	movt	r3, #57344	; 0xe000
    1a68:	f2c6 0a00 	movt	sl, #24576	; 0x6000
    1a6c:	695b      	ldr	r3, [r3, #20]
    1a6e:	03d9      	lsls	r1, r3, #15
    1a70:	d51c      	bpl.n	1aac <CRYPTO_SrcDescKeyIv+0x1e0>
    1a72:	06f2      	lsls	r2, r6, #27
    1a74:	f040 80ca 	bne.w	1c0c <CRYPTO_SrcDescKeyIv+0x340>
    1a78:	f3bf 8f4f 	dsb	sy
    1a7c:	f44f 7382 	mov.w	r3, #260	; 0x104
    1a80:	4632      	mov	r2, r6
    1a82:	1e59      	subs	r1, r3, #1
    1a84:	f44f 406d 	mov.w	r0, #60672	; 0xed00
    1a88:	f102 0320 	add.w	r3, r2, #32
    1a8c:	f021 011f 	bic.w	r1, r1, #31
    1a90:	f2ce 0000 	movt	r0, #57344	; 0xe000
    1a94:	4419      	add	r1, r3
    1a96:	428b      	cmp	r3, r1
    1a98:	f8c0 2270 	str.w	r2, [r0, #624]	; 0x270
    1a9c:	461a      	mov	r2, r3
    1a9e:	f103 0320 	add.w	r3, r3, #32
    1aa2:	d1f8      	bne.n	1a96 <CRYPTO_SrcDescKeyIv+0x1ca>
    1aa4:	f3bf 8f4f 	dsb	sy
    1aa8:	f3bf 8f6f 	isb	sy
    1aac:	68bb      	ldr	r3, [r7, #8]
    1aae:	049b      	lsls	r3, r3, #18
    1ab0:	f100 80d2 	bmi.w	1c58 <CRYPTO_SrcDescKeyIv+0x38c>
    1ab4:	4631      	mov	r1, r6
    1ab6:	4650      	mov	r0, sl
    1ab8:	464a      	mov	r2, r9
    1aba:	f7ff fcd7 	bl	146c <CRYPTO_SetSrcDesc>
    1abe:	b11d      	cbz	r5, 1ac8 <CRYPTO_SrcDescKeyIv+0x1fc>
    1ac0:	f895 304a 	ldrb.w	r3, [r5, #74]	; 0x4a
    1ac4:	2b01      	cmp	r3, #1
    1ac6:	d014      	beq.n	1af2 <CRYPTO_SrcDescKeyIv+0x226>
    1ac8:	b003      	add	sp, #12
    1aca:	e8bd 8ff0 	ldmia.w	sp!, {r4, r5, r6, r7, r8, r9, sl, fp, pc}
    1ace:	f204 11a7 	addw	r1, r4, #423	; 0x1a7
    1ad2:	f02b 021f 	bic.w	r2, fp, #31
    1ad6:	f021 011f 	bic.w	r1, r1, #31
    1ada:	3120      	adds	r1, #32
    1adc:	1a89      	subs	r1, r1, r2
    1ade:	f3bf 8f4f 	dsb	sy
    1ae2:	2900      	cmp	r1, #0
    1ae4:	f73f af1a 	bgt.w	191c <CRYPTO_SrcDescKeyIv+0x50>
    1ae8:	f3bf 8f4f 	dsb	sy
    1aec:	f3bf 8f6f 	isb	sy
    1af0:	e726      	b.n	1940 <CRYPTO_SrcDescKeyIv+0x74>
    1af2:	6aa4      	ldr	r4, [r4, #40]	; 0x28
    1af4:	2c1c      	cmp	r4, #28
    1af6:	f000 80df 	beq.w	1cb8 <CRYPTO_SrcDescKeyIv+0x3ec>
    1afa:	2c30      	cmp	r4, #48	; 0x30
    1afc:	f000 8133 	beq.w	1d66 <CRYPTO_SrcDescKeyIv+0x49a>
    1b00:	08a1      	lsrs	r1, r4, #2
    1b02:	f3c4 0685 	ubfx	r6, r4, #2, #6
    1b06:	f895 304b 	ldrb.w	r3, [r5, #75]	; 0x4b
    1b0a:	2b01      	cmp	r3, #1
    1b0c:	f000 8127 	beq.w	1d5e <CRYPTO_SrcDescKeyIv+0x492>
    1b10:	78ab      	ldrb	r3, [r5, #2]
    1b12:	2b01      	cmp	r3, #1
    1b14:	d009      	beq.n	1b2a <CRYPTO_SrcDescKeyIv+0x25e>
    1b16:	b141      	cbz	r1, 1b2a <CRYPTO_SrcDescKeyIv+0x25e>
    1b18:	1d2b      	adds	r3, r5, #4
    1b1a:	eb03 0181 	add.w	r1, r3, r1, lsl #2
    1b1e:	f853 2f04 	ldr.w	r2, [r3, #4]!
    1b22:	ba12      	rev	r2, r2
    1b24:	428b      	cmp	r3, r1
    1b26:	601a      	str	r2, [r3, #0]
    1b28:	d1f9      	bne.n	1b1e <CRYPTO_SrcDescKeyIv+0x252>
    1b2a:	f44f 406d 	mov.w	r0, #60672	; 0xed00
    1b2e:	f105 0108 	add.w	r1, r5, #8
    1b32:	f2ce 0000 	movt	r0, #57344	; 0xe000
    1b36:	6943      	ldr	r3, [r0, #20]
    1b38:	03df      	lsls	r7, r3, #15
    1b3a:	d528      	bpl.n	1b8e <CRYPTO_SrcDescKeyIv+0x2c2>
    1b3c:	ea01 0304 	and.w	r3, r1, r4
    1b40:	3301      	adds	r3, #1
    1b42:	f000 8114 	beq.w	1d6e <CRYPTO_SrcDescKeyIv+0x4a2>
    1b46:	06cb      	lsls	r3, r1, #27
    1b48:	f000 812e 	beq.w	1da8 <CRYPTO_SrcDescKeyIv+0x4dc>
    1b4c:	1deb      	adds	r3, r5, #7
    1b4e:	f021 001f 	bic.w	r0, r1, #31
    1b52:	4423      	add	r3, r4
    1b54:	f023 031f 	bic.w	r3, r3, #31
    1b58:	3320      	adds	r3, #32
    1b5a:	1a1c      	subs	r4, r3, r0
    1b5c:	f3bf 8f4f 	dsb	sy
    1b60:	2c00      	cmp	r4, #0
    1b62:	dd10      	ble.n	1b86 <CRYPTO_SrcDescKeyIv+0x2ba>
    1b64:	1e63      	subs	r3, r4, #1
    1b66:	f44f 446d 	mov.w	r4, #60672	; 0xed00
    1b6a:	f023 021f 	bic.w	r2, r3, #31
    1b6e:	f100 0320 	add.w	r3, r0, #32
    1b72:	f2ce 0400 	movt	r4, #57344	; 0xe000
    1b76:	441a      	add	r2, r3
    1b78:	429a      	cmp	r2, r3
    1b7a:	f8c4 0270 	str.w	r0, [r4, #624]	; 0x270
    1b7e:	4618      	mov	r0, r3
    1b80:	f103 0320 	add.w	r3, r3, #32
    1b84:	d1f8      	bne.n	1b78 <CRYPTO_SrcDescKeyIv+0x2ac>
    1b86:	f3bf 8f4f 	dsb	sy
    1b8a:	f3bf 8f6f 	isb	sy
    1b8e:	f446 40c0 	orr.w	r0, r6, #24576	; 0x6000
    1b92:	464a      	mov	r2, r9
    1b94:	0400      	lsls	r0, r0, #16
    1b96:	f7ff fc69 	bl	146c <CRYPTO_SetSrcDesc>
    1b9a:	b003      	add	sp, #12
    1b9c:	e8bd 8ff0 	ldmia.w	sp!, {r4, r5, r6, r7, r8, r9, sl, fp, pc}
    1ba0:	f645 41e0 	movw	r1, #23776	; 0x5ce0
    1ba4:	f645 40f8 	movw	r0, #23800	; 0x5cf8
    1ba8:	4652      	mov	r2, sl
    1baa:	9301      	str	r3, [sp, #4]
    1bac:	f2c0 0104 	movt	r1, #4
    1bb0:	f2c0 0004 	movt	r0, #4
    1bb4:	f00e f888 	bl	fcc8 <DiagPrintf>
    1bb8:	9b01      	ldr	r3, [sp, #4]
    1bba:	f645 5238 	movw	r2, #23864	; 0x5d38
    1bbe:	4650      	mov	r0, sl
    1bc0:	4619      	mov	r1, r3
    1bc2:	f241 3345 	movw	r3, #4933	; 0x1345
    1bc6:	f2c0 0204 	movt	r2, #4
    1bca:	f2c0 0300 	movt	r3, #0
    1bce:	4798      	blx	r3
    1bd0:	4651      	mov	r1, sl
    1bd2:	4658      	mov	r0, fp
    1bd4:	464a      	mov	r2, r9
    1bd6:	f7ff fc49 	bl	146c <CRYPTO_SetSrcDesc>
    1bda:	e6fc      	b.n	19d6 <CRYPTO_SrcDescKeyIv+0x10a>
    1bdc:	f645 41e0 	movw	r1, #23776	; 0x5ce0
    1be0:	f645 40f8 	movw	r0, #23800	; 0x5cf8
    1be4:	465a      	mov	r2, fp
    1be6:	2320      	movs	r3, #32
    1be8:	f2c0 0104 	movt	r1, #4
    1bec:	f2c0 0004 	movt	r0, #4
    1bf0:	f00e f86a 	bl	fcc8 <DiagPrintf>
    1bf4:	f645 5224 	movw	r2, #23844	; 0x5d24
    1bf8:	f241 3345 	movw	r3, #4933	; 0x1345
    1bfc:	2120      	movs	r1, #32
    1bfe:	f2c0 0204 	movt	r2, #4
    1c02:	4658      	mov	r0, fp
    1c04:	f2c0 0300 	movt	r3, #0
    1c08:	4798      	blx	r3
    1c0a:	e6a1      	b.n	1950 <CRYPTO_SrcDescKeyIv+0x84>
    1c0c:	f204 1367 	addw	r3, r4, #359	; 0x167
    1c10:	f026 021f 	bic.w	r2, r6, #31
    1c14:	f023 031f 	bic.w	r3, r3, #31
    1c18:	3320      	adds	r3, #32
    1c1a:	1a9b      	subs	r3, r3, r2
    1c1c:	f3bf 8f4f 	dsb	sy
    1c20:	2b00      	cmp	r3, #0
    1c22:	f73f af2e 	bgt.w	1a82 <CRYPTO_SrcDescKeyIv+0x1b6>
    1c26:	e73d      	b.n	1aa4 <CRYPTO_SrcDescKeyIv+0x1d8>
    1c28:	f645 41e0 	movw	r1, #23776	; 0x5ce0
    1c2c:	f645 40f8 	movw	r0, #23800	; 0x5cf8
    1c30:	4632      	mov	r2, r6
    1c32:	4643      	mov	r3, r8
    1c34:	f2c0 0104 	movt	r1, #4
    1c38:	f2c0 0004 	movt	r0, #4
    1c3c:	f00e f844 	bl	fcc8 <DiagPrintf>
    1c40:	f645 5240 	movw	r2, #23872	; 0x5d40
    1c44:	f241 3345 	movw	r3, #4933	; 0x1345
    1c48:	4641      	mov	r1, r8
    1c4a:	f2c0 0204 	movt	r2, #4
    1c4e:	4630      	mov	r0, r6
    1c50:	f2c0 0300 	movt	r3, #0
    1c54:	4798      	blx	r3
    1c56:	e6f8      	b.n	1a4a <CRYPTO_SrcDescKeyIv+0x17e>
    1c58:	f645 41e0 	movw	r1, #23776	; 0x5ce0
    1c5c:	f645 40f8 	movw	r0, #23800	; 0x5cf8
    1c60:	4632      	mov	r2, r6
    1c62:	2380      	movs	r3, #128	; 0x80
    1c64:	f2c0 0104 	movt	r1, #4
    1c68:	f2c0 0004 	movt	r0, #4
    1c6c:	f00e f82c 	bl	fcc8 <DiagPrintf>
    1c70:	f645 5248 	movw	r2, #23880	; 0x5d48
    1c74:	f241 3345 	movw	r3, #4933	; 0x1345
    1c78:	4630      	mov	r0, r6
    1c7a:	f2c0 0204 	movt	r2, #4
    1c7e:	2180      	movs	r1, #128	; 0x80
    1c80:	f2c0 0300 	movt	r3, #0
    1c84:	4798      	blx	r3
    1c86:	4631      	mov	r1, r6
    1c88:	4650      	mov	r0, sl
    1c8a:	464a      	mov	r2, r9
    1c8c:	f7ff fbee 	bl	146c <CRYPTO_SetSrcDesc>
    1c90:	e715      	b.n	1abe <CRYPTO_SrcDescKeyIv+0x1f2>
    1c92:	1e5a      	subs	r2, r3, #1
    1c94:	f02a 001f 	bic.w	r0, sl, #31
    1c98:	4452      	add	r2, sl
    1c9a:	f022 021f 	bic.w	r2, r2, #31
    1c9e:	3220      	adds	r2, #32
    1ca0:	1a12      	subs	r2, r2, r0
    1ca2:	e676      	b.n	1992 <CRYPTO_SrcDescKeyIv+0xc6>
    1ca4:	f108 33ff 	add.w	r3, r8, #4294967295
    1ca8:	f026 011f 	bic.w	r1, r6, #31
    1cac:	4433      	add	r3, r6
    1cae:	f023 031f 	bic.w	r3, r3, #31
    1cb2:	3320      	adds	r3, #32
    1cb4:	1a5b      	subs	r3, r3, r1
    1cb6:	e6ab      	b.n	1a10 <CRYPTO_SrcDescKeyIv+0x144>
    1cb8:	2108      	movs	r1, #8
    1cba:	2420      	movs	r4, #32
    1cbc:	460e      	mov	r6, r1
    1cbe:	e722      	b.n	1b06 <CRYPTO_SrcDescKeyIv+0x23a>
    1cc0:	f8c0 1084 	str.w	r1, [r0, #132]	; 0x84
    1cc4:	f3bf 8f4f 	dsb	sy
    1cc8:	f8d0 2080 	ldr.w	r2, [r0, #128]	; 0x80
    1ccc:	9701      	str	r7, [sp, #4]
    1cce:	462f      	mov	r7, r5
    1cd0:	f3c2 3e4e 	ubfx	lr, r2, #13, #15
    1cd4:	f3c2 02c9 	ubfx	r2, r2, #3, #10
    1cd8:	4625      	mov	r5, r4
    1cda:	461c      	mov	r4, r3
    1cdc:	ea4f 1e4e 	mov.w	lr, lr, lsl #5
    1ce0:	4613      	mov	r3, r2
    1ce2:	f643 7ce0 	movw	ip, #16352	; 0x3fe0
    1ce6:	461a      	mov	r2, r3
    1ce8:	ea0e 0c0c 	and.w	ip, lr, ip
    1cec:	ea4c 7182 	orr.w	r1, ip, r2, lsl #30
    1cf0:	3a01      	subs	r2, #1
    1cf2:	f8c0 1274 	str.w	r1, [r0, #628]	; 0x274
    1cf6:	d2f9      	bcs.n	1cec <CRYPTO_SrcDescKeyIv+0x420>
    1cf8:	f1ae 0e20 	sub.w	lr, lr, #32
    1cfc:	f11e 0f20 	cmn.w	lr, #32
    1d00:	d1ef      	bne.n	1ce2 <CRYPTO_SrcDescKeyIv+0x416>
    1d02:	4623      	mov	r3, r4
    1d04:	462c      	mov	r4, r5
    1d06:	463d      	mov	r5, r7
    1d08:	9f01      	ldr	r7, [sp, #4]
    1d0a:	f3bf 8f4f 	dsb	sy
    1d0e:	f3bf 8f6f 	isb	sy
    1d12:	68ba      	ldr	r2, [r7, #8]
    1d14:	0492      	lsls	r2, r2, #18
    1d16:	f57f ae59 	bpl.w	19cc <CRYPTO_SrcDescKeyIv+0x100>
    1d1a:	e741      	b.n	1ba0 <CRYPTO_SrcDescKeyIv+0x2d4>
    1d1c:	f8c1 2084 	str.w	r2, [r1, #132]	; 0x84
    1d20:	f3bf 8f4f 	dsb	sy
    1d24:	f8d1 3080 	ldr.w	r3, [r1, #128]	; 0x80
    1d28:	f643 7be0 	movw	fp, #16352	; 0x3fe0
    1d2c:	f3c3 3c4e 	ubfx	ip, r3, #13, #15
    1d30:	f3c3 0ec9 	ubfx	lr, r3, #3, #10
    1d34:	ea4f 1c4c 	mov.w	ip, ip, lsl #5
    1d38:	ea0c 000b 	and.w	r0, ip, fp
    1d3c:	4673      	mov	r3, lr
    1d3e:	ea40 7283 	orr.w	r2, r0, r3, lsl #30
    1d42:	3b01      	subs	r3, #1
    1d44:	f8c1 2274 	str.w	r2, [r1, #628]	; 0x274
    1d48:	d2f9      	bcs.n	1d3e <CRYPTO_SrcDescKeyIv+0x472>
    1d4a:	f1ac 0c20 	sub.w	ip, ip, #32
    1d4e:	f11c 0f20 	cmn.w	ip, #32
    1d52:	d1f1      	bne.n	1d38 <CRYPTO_SrcDescKeyIv+0x46c>
    1d54:	f3bf 8f4f 	dsb	sy
    1d58:	f3bf 8f6f 	isb	sy
    1d5c:	e671      	b.n	1a42 <CRYPTO_SrcDescKeyIv+0x176>
    1d5e:	2300      	movs	r3, #0
    1d60:	f885 304b 	strb.w	r3, [r5, #75]	; 0x4b
    1d64:	e6e1      	b.n	1b2a <CRYPTO_SrcDescKeyIv+0x25e>
    1d66:	2110      	movs	r1, #16
    1d68:	2440      	movs	r4, #64	; 0x40
    1d6a:	460e      	mov	r6, r1
    1d6c:	e6cb      	b.n	1b06 <CRYPTO_SrcDescKeyIv+0x23a>
    1d6e:	2300      	movs	r3, #0
    1d70:	f8c0 3084 	str.w	r3, [r0, #132]	; 0x84
    1d74:	f3bf 8f4f 	dsb	sy
    1d78:	f8d0 7080 	ldr.w	r7, [r0, #128]	; 0x80
    1d7c:	f643 7ce0 	movw	ip, #16352	; 0x3fe0
    1d80:	f3c7 354e 	ubfx	r5, r7, #13, #15
    1d84:	f3c7 07c9 	ubfx	r7, r7, #3, #10
    1d88:	016d      	lsls	r5, r5, #5
    1d8a:	ea05 040c 	and.w	r4, r5, ip
    1d8e:	463b      	mov	r3, r7
    1d90:	ea44 7283 	orr.w	r2, r4, r3, lsl #30
    1d94:	3b01      	subs	r3, #1
    1d96:	f8c0 2274 	str.w	r2, [r0, #628]	; 0x274
    1d9a:	1c5a      	adds	r2, r3, #1
    1d9c:	d1f8      	bne.n	1d90 <CRYPTO_SrcDescKeyIv+0x4c4>
    1d9e:	3d20      	subs	r5, #32
    1da0:	f115 0f20 	cmn.w	r5, #32
    1da4:	d1f1      	bne.n	1d8a <CRYPTO_SrcDescKeyIv+0x4be>
    1da6:	e6ee      	b.n	1b86 <CRYPTO_SrcDescKeyIv+0x2ba>
    1da8:	4608      	mov	r0, r1
    1daa:	e6d7      	b.n	1b5c <CRYPTO_SrcDescKeyIv+0x290>

00001dac <CRYPTO_Reset>:
    1dac:	2300      	movs	r3, #0
    1dae:	f64f 42c9 	movw	r2, #64713	; 0xfcc9
    1db2:	f44f 1080 	mov.w	r0, #1048576	; 0x100000
    1db6:	4619      	mov	r1, r3
    1db8:	f2c0 0200 	movt	r2, #0
    1dbc:	f2c4 0310 	movt	r3, #16400	; 0x4010
    1dc0:	f2c5 0110 	movt	r1, #20496	; 0x5010
    1dc4:	b410      	push	{r4}
    1dc6:	e842 f200 	tt	r2, r2
    1dca:	f412 0f80 	tst.w	r2, #4194304	; 0x400000
    1dce:	f04f 0401 	mov.w	r4, #1
    1dd2:	bf18      	it	ne
    1dd4:	460b      	movne	r3, r1
    1dd6:	2100      	movs	r1, #0
    1dd8:	611c      	str	r4, [r3, #16]
    1dda:	f2c0 1101 	movt	r1, #257	; 0x101
    1dde:	6318      	str	r0, [r3, #48]	; 0x30
    1de0:	6b1a      	ldr	r2, [r3, #48]	; 0x30
    1de2:	f85d 4b04 	ldr.w	r4, [sp], #4
    1de6:	f042 0206 	orr.w	r2, r2, #6
    1dea:	631a      	str	r2, [r3, #48]	; 0x30
    1dec:	6b1a      	ldr	r2, [r3, #48]	; 0x30
    1dee:	f442 62c2 	orr.w	r2, r2, #1552	; 0x610
    1df2:	631a      	str	r2, [r3, #48]	; 0x30
    1df4:	6199      	str	r1, [r3, #24]
    1df6:	4770      	bx	lr

00001df8 <CRYPTO_SHA_Reset>:
    1df8:	f44f 4300 	mov.w	r3, #32768	; 0x8000
    1dfc:	f64f 42c9 	movw	r2, #64713	; 0xfcc9
    1e00:	f44f 1080 	mov.w	r0, #1048576	; 0x100000
    1e04:	4619      	mov	r1, r3
    1e06:	f2c0 0200 	movt	r2, #0
    1e0a:	f2c4 0310 	movt	r3, #16400	; 0x4010
    1e0e:	f2c5 0110 	movt	r1, #20496	; 0x5010
    1e12:	b410      	push	{r4}
    1e14:	e842 f200 	tt	r2, r2
    1e18:	f412 0f80 	tst.w	r2, #4194304	; 0x400000
    1e1c:	f04f 0401 	mov.w	r4, #1
    1e20:	bf18      	it	ne
    1e22:	460b      	movne	r3, r1
    1e24:	2100      	movs	r1, #0
    1e26:	611c      	str	r4, [r3, #16]
    1e28:	f2c0 1101 	movt	r1, #257	; 0x101
    1e2c:	6318      	str	r0, [r3, #48]	; 0x30
    1e2e:	6b1a      	ldr	r2, [r3, #48]	; 0x30
    1e30:	f85d 4b04 	ldr.w	r4, [sp], #4
    1e34:	f042 0206 	orr.w	r2, r2, #6
    1e38:	631a      	str	r2, [r3, #48]	; 0x30
    1e3a:	6b1a      	ldr	r2, [r3, #48]	; 0x30
    1e3c:	f442 62c2 	orr.w	r2, r2, #1552	; 0x610
    1e40:	631a      	str	r2, [r3, #48]	; 0x30
    1e42:	6199      	str	r1, [r3, #24]
    1e44:	4770      	bx	lr
    1e46:	bf00      	nop

00001e48 <CRYPTO_SetSecurityModeAD>:
    1e48:	e92d 43f8 	stmdb	sp!, {r3, r4, r5, r6, r7, r8, r9, lr}
    1e4c:	460d      	mov	r5, r1
    1e4e:	4616      	mov	r6, r2
    1e50:	4699      	mov	r9, r3
    1e52:	4604      	mov	r4, r0
    1e54:	e9dd 8709 	ldrd	r8, r7, [sp, #36]	; 0x24
    1e58:	2800      	cmp	r0, #0
    1e5a:	f000 80ba 	beq.w	1fd2 <CRYPTO_SetSecurityModeAD+0x18a>
    1e5e:	7823      	ldrb	r3, [r4, #0]
    1e60:	2b01      	cmp	r3, #1
    1e62:	d007      	beq.n	1e74 <CRYPTO_SetSecurityModeAD+0x2c>
    1e64:	f645 6034 	movw	r0, #24116	; 0x5e34
    1e68:	f44f 711c 	mov.w	r1, #624	; 0x270
    1e6c:	f2c0 0004 	movt	r0, #4
    1e70:	f009 f8dc 	bl	b02c <io_assert_failed>
    1e74:	2f40      	cmp	r7, #64	; 0x40
    1e76:	f200 80b5 	bhi.w	1fe4 <CRYPTO_SetSecurityModeAD+0x19c>
    1e7a:	2300      	movs	r3, #0
    1e7c:	1c69      	adds	r1, r5, #1
    1e7e:	6065      	str	r5, [r4, #4]
    1e80:	8123      	strh	r3, [r4, #8]
    1e82:	d009      	beq.n	1e98 <CRYPTO_SetSecurityModeAD+0x50>
    1e84:	f005 0330 	and.w	r3, r5, #48	; 0x30
    1e88:	2b20      	cmp	r3, #32
    1e8a:	f000 8082 	beq.w	1f92 <CRYPTO_SetSecurityModeAD+0x14a>
    1e8e:	f085 0580 	eor.w	r5, r5, #128	; 0x80
    1e92:	f3c5 15c0 	ubfx	r5, r5, #7, #1
    1e96:	7265      	strb	r5, [r4, #9]
    1e98:	1c72      	adds	r2, r6, #1
    1e9a:	60e6      	str	r6, [r4, #12]
    1e9c:	f000 808b 	beq.w	1fb6 <CRYPTO_SetSecurityModeAD+0x16e>
    1ea0:	f006 0303 	and.w	r3, r6, #3
    1ea4:	f3c6 0280 	ubfx	r2, r6, #2, #1
    1ea8:	7422      	strb	r2, [r4, #16]
    1eaa:	f1a3 0202 	sub.w	r2, r3, #2
    1eae:	2b01      	cmp	r3, #1
    1eb0:	fab2 f282 	clz	r2, r2
    1eb4:	ea4f 1252 	mov.w	r2, r2, lsr #5
    1eb8:	7462      	strb	r2, [r4, #17]
    1eba:	fab3 f283 	clz	r2, r3
    1ebe:	ea4f 1252 	mov.w	r2, r2, lsr #5
    1ec2:	74a2      	strb	r2, [r4, #18]
    1ec4:	bf0c      	ite	eq
    1ec6:	2201      	moveq	r2, #1
    1ec8:	2200      	movne	r2, #0
    1eca:	74e2      	strb	r2, [r4, #19]
    1ecc:	d146      	bne.n	1f5c <CRYPTO_SetSecurityModeAD+0x114>
    1ece:	f006 03f0 	and.w	r3, r6, #240	; 0xf0
    1ed2:	2b40      	cmp	r3, #64	; 0x40
    1ed4:	f000 8099 	beq.w	200a <CRYPTO_SetSecurityModeAD+0x1c2>
    1ed8:	d873      	bhi.n	1fc2 <CRYPTO_SetSecurityModeAD+0x17a>
    1eda:	2b10      	cmp	r3, #16
    1edc:	d076      	beq.n	1fcc <CRYPTO_SetSecurityModeAD+0x184>
    1ede:	2b20      	cmp	r3, #32
    1ee0:	f040 8089 	bne.w	1ff6 <CRYPTO_SetSecurityModeAD+0x1ae>
    1ee4:	7523      	strb	r3, [r4, #20]
    1ee6:	62a3      	str	r3, [r4, #40]	; 0x28
    1ee8:	9b08      	ldr	r3, [sp, #32]
    1eea:	6227      	str	r7, [r4, #32]
    1eec:	e9c4 3911 	strd	r3, r9, [r4, #68]	; 0x44
    1ef0:	2f00      	cmp	r7, #0
    1ef2:	d03e      	beq.n	1f72 <CRYPTO_SetSecurityModeAD+0x12a>
    1ef4:	7d23      	ldrb	r3, [r4, #20]
    1ef6:	f104 0064 	add.w	r0, r4, #100	; 0x64
    1efa:	2b30      	cmp	r3, #48	; 0x30
    1efc:	65e0      	str	r0, [r4, #92]	; 0x5c
    1efe:	d04b      	beq.n	1f98 <CRYPTO_SetSecurityModeAD+0x150>
    1f00:	2b40      	cmp	r3, #64	; 0x40
    1f02:	d049      	beq.n	1f98 <CRYPTO_SetSecurityModeAD+0x150>
    1f04:	f104 03a4 	add.w	r3, r4, #164	; 0xa4
    1f08:	f241 5551 	movw	r5, #5457	; 0x1551
    1f0c:	2240      	movs	r2, #64	; 0x40
    1f0e:	2136      	movs	r1, #54	; 0x36
    1f10:	f2c0 0501 	movt	r5, #1
    1f14:	6623      	str	r3, [r4, #96]	; 0x60
    1f16:	47a8      	blx	r5
    1f18:	2240      	movs	r2, #64	; 0x40
    1f1a:	215c      	movs	r1, #92	; 0x5c
    1f1c:	6e20      	ldr	r0, [r4, #96]	; 0x60
    1f1e:	47a8      	blx	r5
    1f20:	f244 13e0 	movw	r3, #16864	; 0x41e0
    1f24:	f2c2 0300 	movt	r3, #8192	; 0x2000
    1f28:	681d      	ldr	r5, [r3, #0]
    1f2a:	bb25      	cbnz	r5, 1f76 <CRYPTO_SetSecurityModeAD+0x12e>
    1f2c:	f1b8 0f00 	cmp.w	r8, #0
    1f30:	d076      	beq.n	2020 <CRYPTO_SetSecurityModeAD+0x1d8>
    1f32:	f8c4 8024 	str.w	r8, [r4, #36]	; 0x24
    1f36:	e001      	b.n	1f3c <CRYPTO_SetSecurityModeAD+0xf4>
    1f38:	f8d4 8024 	ldr.w	r8, [r4, #36]	; 0x24
    1f3c:	6de2      	ldr	r2, [r4, #92]	; 0x5c
    1f3e:	f818 3005 	ldrb.w	r3, [r8, r5]
    1f42:	5d51      	ldrb	r1, [r2, r5]
    1f44:	404b      	eors	r3, r1
    1f46:	5553      	strb	r3, [r2, r5]
    1f48:	6e22      	ldr	r2, [r4, #96]	; 0x60
    1f4a:	6a63      	ldr	r3, [r4, #36]	; 0x24
    1f4c:	5d51      	ldrb	r1, [r2, r5]
    1f4e:	5d5b      	ldrb	r3, [r3, r5]
    1f50:	404b      	eors	r3, r1
    1f52:	5553      	strb	r3, [r2, r5]
    1f54:	3501      	adds	r5, #1
    1f56:	42af      	cmp	r7, r5
    1f58:	d1ee      	bne.n	1f38 <CRYPTO_SetSecurityModeAD+0xf0>
    1f5a:	e00c      	b.n	1f76 <CRYPTO_SetSecurityModeAD+0x12e>
    1f5c:	2200      	movs	r2, #0
    1f5e:	7522      	strb	r2, [r4, #20]
    1f60:	b993      	cbnz	r3, 1f88 <CRYPTO_SetSecurityModeAD+0x140>
    1f62:	2314      	movs	r3, #20
    1f64:	6227      	str	r7, [r4, #32]
    1f66:	62a3      	str	r3, [r4, #40]	; 0x28
    1f68:	9b08      	ldr	r3, [sp, #32]
    1f6a:	e9c4 3911 	strd	r3, r9, [r4, #68]	; 0x44
    1f6e:	2f00      	cmp	r7, #0
    1f70:	d1c0      	bne.n	1ef4 <CRYPTO_SetSecurityModeAD+0xac>
    1f72:	e9c4 7717 	strd	r7, r7, [r4, #92]	; 0x5c
    1f76:	3601      	adds	r6, #1
    1f78:	d003      	beq.n	1f82 <CRYPTO_SetSecurityModeAD+0x13a>
    1f7a:	2201      	movs	r2, #1
    1f7c:	2300      	movs	r3, #0
    1f7e:	85a2      	strh	r2, [r4, #44]	; 0x2c
    1f80:	6323      	str	r3, [r4, #48]	; 0x30
    1f82:	2000      	movs	r0, #0
    1f84:	e8bd 83f8 	ldmia.w	sp!, {r3, r4, r5, r6, r7, r8, r9, pc}
    1f88:	2b02      	cmp	r3, #2
    1f8a:	d117      	bne.n	1fbc <CRYPTO_SetSecurityModeAD+0x174>
    1f8c:	2310      	movs	r3, #16
    1f8e:	62a3      	str	r3, [r4, #40]	; 0x28
    1f90:	e7aa      	b.n	1ee8 <CRYPTO_SetSecurityModeAD+0xa0>
    1f92:	2301      	movs	r3, #1
    1f94:	7223      	strb	r3, [r4, #8]
    1f96:	e77a      	b.n	1e8e <CRYPTO_SetSecurityModeAD+0x46>
    1f98:	f104 03e4 	add.w	r3, r4, #228	; 0xe4
    1f9c:	f241 5551 	movw	r5, #5457	; 0x1551
    1fa0:	2280      	movs	r2, #128	; 0x80
    1fa2:	2136      	movs	r1, #54	; 0x36
    1fa4:	f2c0 0501 	movt	r5, #1
    1fa8:	6623      	str	r3, [r4, #96]	; 0x60
    1faa:	47a8      	blx	r5
    1fac:	2280      	movs	r2, #128	; 0x80
    1fae:	215c      	movs	r1, #92	; 0x5c
    1fb0:	6e20      	ldr	r0, [r4, #96]	; 0x60
    1fb2:	47a8      	blx	r5
    1fb4:	e7b4      	b.n	1f20 <CRYPTO_SetSecurityModeAD+0xd8>
    1fb6:	2300      	movs	r3, #0
    1fb8:	6123      	str	r3, [r4, #16]
    1fba:	7523      	strb	r3, [r4, #20]
    1fbc:	2300      	movs	r3, #0
    1fbe:	62a3      	str	r3, [r4, #40]	; 0x28
    1fc0:	e792      	b.n	1ee8 <CRYPTO_SetSecurityModeAD+0xa0>
    1fc2:	2b80      	cmp	r3, #128	; 0x80
    1fc4:	d117      	bne.n	1ff6 <CRYPTO_SetSecurityModeAD+0x1ae>
    1fc6:	2340      	movs	r3, #64	; 0x40
    1fc8:	7523      	strb	r3, [r4, #20]
    1fca:	e78c      	b.n	1ee6 <CRYPTO_SetSecurityModeAD+0x9e>
    1fcc:	231c      	movs	r3, #28
    1fce:	7523      	strb	r3, [r4, #20]
    1fd0:	e7f5      	b.n	1fbe <CRYPTO_SetSecurityModeAD+0x176>
    1fd2:	f645 6034 	movw	r0, #24116	; 0x5e34
    1fd6:	f240 216f 	movw	r1, #623	; 0x26f
    1fda:	f2c0 0004 	movt	r0, #4
    1fde:	f009 f825 	bl	b02c <io_assert_failed>
    1fe2:	e73c      	b.n	1e5e <CRYPTO_SetSecurityModeAD+0x16>
    1fe4:	f645 6034 	movw	r0, #24116	; 0x5e34
    1fe8:	f44f 711d 	mov.w	r1, #628	; 0x274
    1fec:	f2c0 0004 	movt	r0, #4
    1ff0:	f009 f81c 	bl	b02c <io_assert_failed>
    1ff4:	e741      	b.n	1e7a <CRYPTO_SetSecurityModeAD+0x32>
    1ff6:	f244 0304 	movw	r3, #16388	; 0x4004
    1ffa:	f2c2 0300 	movt	r3, #8192	; 0x2000
    1ffe:	681b      	ldr	r3, [r3, #0]
    2000:	049b      	lsls	r3, r3, #18
    2002:	d405      	bmi.n	2010 <CRYPTO_SetSecurityModeAD+0x1c8>
    2004:	2300      	movs	r3, #0
    2006:	7523      	strb	r3, [r4, #20]
    2008:	e7d9      	b.n	1fbe <CRYPTO_SetSecurityModeAD+0x176>
    200a:	2330      	movs	r3, #48	; 0x30
    200c:	7523      	strb	r3, [r4, #20]
    200e:	e7d6      	b.n	1fbe <CRYPTO_SetSecurityModeAD+0x176>
    2010:	f645 5050 	movw	r0, #23888	; 0x5d50
    2014:	4631      	mov	r1, r6
    2016:	f2c0 0004 	movt	r0, #4
    201a:	f00d fe55 	bl	fcc8 <DiagPrintf>
    201e:	e7f1      	b.n	2004 <CRYPTO_SetSecurityModeAD+0x1bc>
    2020:	f645 6034 	movw	r0, #24116	; 0x5e34
    2024:	f240 21cf 	movw	r1, #719	; 0x2cf
    2028:	f2c0 0004 	movt	r0, #4
    202c:	f008 fffe 	bl	b02c <io_assert_failed>
    2030:	e77f      	b.n	1f32 <CRYPTO_SetSecurityModeAD+0xea>
    2032:	bf00      	nop

00002034 <CRYPTO_Init>:
    2034:	f244 2200 	movw	r2, #16896	; 0x4200
    2038:	2800      	cmp	r0, #0
    203a:	f641 53ad 	movw	r3, #7597	; 0x1dad
    203e:	f2c2 0200 	movt	r2, #8192	; 0x2000
    2042:	f2c0 0300 	movt	r3, #0
    2046:	b510      	push	{r4, lr}
    2048:	4604      	mov	r4, r0
    204a:	bf14      	ite	ne
    204c:	4604      	movne	r4, r0
    204e:	4614      	moveq	r4, r2
    2050:	4620      	mov	r0, r4
    2052:	4798      	blx	r3
    2054:	2301      	movs	r3, #1
    2056:	2000      	movs	r0, #0
    2058:	8023      	strh	r3, [r4, #0]
    205a:	bd10      	pop	{r4, pc}

0000205c <CRYPTO_SHA_Init>:
    205c:	f244 4240 	movw	r2, #17472	; 0x4440
    2060:	2800      	cmp	r0, #0
    2062:	f641 53f9 	movw	r3, #7673	; 0x1df9
    2066:	f2c2 0200 	movt	r2, #8192	; 0x2000
    206a:	f2c0 0300 	movt	r3, #0
    206e:	b510      	push	{r4, lr}
    2070:	4604      	mov	r4, r0
    2072:	bf14      	ite	ne
    2074:	4604      	movne	r4, r0
    2076:	4614      	moveq	r4, r2
    2078:	4620      	mov	r0, r4
    207a:	4798      	blx	r3
    207c:	2301      	movs	r3, #1
    207e:	2000      	movs	r0, #0
    2080:	8023      	strh	r3, [r4, #0]
    2082:	bd10      	pop	{r4, pc}

00002084 <CRYPTO_OTPKey_Init>:
    2084:	2200      	movs	r2, #0
    2086:	b508      	push	{r3, lr}
    2088:	4694      	mov	ip, r2
    208a:	f64f 43c9 	movw	r3, #64713	; 0xfcc9
    208e:	f2c4 0210 	movt	r2, #16400	; 0x4010
    2092:	f2c0 0300 	movt	r3, #0
    2096:	f2c5 0c10 	movt	ip, #20496	; 0x5010
    209a:	e843 f300 	tt	r3, r3
    209e:	f413 0f80 	tst.w	r3, #4194304	; 0x400000
    20a2:	bf18      	it	ne
    20a4:	4662      	movne	r2, ip
    20a6:	2901      	cmp	r1, #1
    20a8:	d003      	beq.n	20b2 <CRYPTO_OTPKey_Init+0x2e>
    20aa:	2300      	movs	r3, #0
    20ac:	4618      	mov	r0, r3
    20ae:	6353      	str	r3, [r2, #52]	; 0x34
    20b0:	bd08      	pop	{r3, pc}
    20b2:	2803      	cmp	r0, #3
    20b4:	d805      	bhi.n	20c2 <CRYPTO_OTPKey_Init+0x3e>
    20b6:	0743      	lsls	r3, r0, #29
    20b8:	2000      	movs	r0, #0
    20ba:	f043 4300 	orr.w	r3, r3, #2147483648	; 0x80000000
    20be:	6353      	str	r3, [r2, #52]	; 0x34
    20c0:	bd08      	pop	{r3, pc}
    20c2:	f244 0304 	movw	r3, #16388	; 0x4004
    20c6:	f2c2 0300 	movt	r3, #8192	; 0x2000
    20ca:	681b      	ldr	r3, [r3, #0]
    20cc:	039b      	lsls	r3, r3, #14
    20ce:	d402      	bmi.n	20d6 <CRYPTO_OTPKey_Init+0x52>
    20d0:	f04f 30ff 	mov.w	r0, #4294967295
    20d4:	bd08      	pop	{r3, pc}
    20d6:	f645 508c 	movw	r0, #23948	; 0x5d8c
    20da:	f2c0 0004 	movt	r0, #4
    20de:	f00d fdf3 	bl	fcc8 <DiagPrintf>
    20e2:	f04f 30ff 	mov.w	r0, #4294967295
    20e6:	bd08      	pop	{r3, pc}

000020e8 <CRYPTO_OTPKey_SHA_Init>:
    20e8:	f44f 4200 	mov.w	r2, #32768	; 0x8000
    20ec:	b508      	push	{r3, lr}
    20ee:	4694      	mov	ip, r2
    20f0:	f64f 43c9 	movw	r3, #64713	; 0xfcc9
    20f4:	f2c4 0210 	movt	r2, #16400	; 0x4010
    20f8:	f2c0 0300 	movt	r3, #0
    20fc:	f2c5 0c10 	movt	ip, #20496	; 0x5010
    2100:	e843 f300 	tt	r3, r3
    2104:	f413 0f80 	tst.w	r3, #4194304	; 0x400000
    2108:	f244 13e0 	movw	r3, #16864	; 0x41e0
    210c:	bf18      	it	ne
    210e:	4662      	movne	r2, ip
    2110:	2901      	cmp	r1, #1
    2112:	d006      	beq.n	2122 <CRYPTO_OTPKey_SHA_Init+0x3a>
    2114:	2100      	movs	r1, #0
    2116:	f2c2 0300 	movt	r3, #8192	; 0x2000
    211a:	4608      	mov	r0, r1
    211c:	6351      	str	r1, [r2, #52]	; 0x34
    211e:	6019      	str	r1, [r3, #0]
    2120:	bd08      	pop	{r3, pc}
    2122:	f2c2 0300 	movt	r3, #8192	; 0x2000
    2126:	6019      	str	r1, [r3, #0]
    2128:	b180      	cbz	r0, 214c <CRYPTO_OTPKey_SHA_Init+0x64>
    212a:	2801      	cmp	r0, #1
    212c:	d009      	beq.n	2142 <CRYPTO_OTPKey_SHA_Init+0x5a>
    212e:	f244 0304 	movw	r3, #16388	; 0x4004
    2132:	f2c2 0300 	movt	r3, #8192	; 0x2000
    2136:	681b      	ldr	r3, [r3, #0]
    2138:	039b      	lsls	r3, r3, #14
    213a:	d40b      	bmi.n	2154 <CRYPTO_OTPKey_SHA_Init+0x6c>
    213c:	f04f 30ff 	mov.w	r0, #4294967295
    2140:	bd08      	pop	{r3, pc}
    2142:	f04f 4360 	mov.w	r3, #3758096384	; 0xe0000000
    2146:	2000      	movs	r0, #0
    2148:	6353      	str	r3, [r2, #52]	; 0x34
    214a:	bd08      	pop	{r3, pc}
    214c:	f04f 4300 	mov.w	r3, #2147483648	; 0x80000000
    2150:	6353      	str	r3, [r2, #52]	; 0x34
    2152:	bd08      	pop	{r3, pc}
    2154:	f645 508c 	movw	r0, #23948	; 0x5d8c
    2158:	f2c0 0004 	movt	r0, #4
    215c:	f00d fdb4 	bl	fcc8 <DiagPrintf>
    2160:	f04f 30ff 	mov.w	r0, #4294967295
    2164:	bd08      	pop	{r3, pc}
    2166:	bf00      	nop

00002168 <CRYPTO_Cache_Sync>:
    2168:	e92d 4ff0 	stmdb	sp!, {r4, r5, r6, r7, r8, r9, sl, fp, lr}
    216c:	1847      	adds	r7, r0, r1
    216e:	b08b      	sub	sp, #44	; 0x2c
    2170:	2300      	movs	r3, #0
    2172:	f010 091f 	ands.w	r9, r0, #31
    2176:	f007 0a1f 	and.w	sl, r7, #31
    217a:	4605      	mov	r5, r0
    217c:	460c      	mov	r4, r1
    217e:	4606      	mov	r6, r0
    2180:	f8cd a000 	str.w	sl, [sp]
    2184:	e9cd 3302 	strd	r3, r3, [sp, #8]
    2188:	e9cd 3304 	strd	r3, r3, [sp, #16]
    218c:	e9cd 3306 	strd	r3, r3, [sp, #24]
    2190:	e9cd 3308 	strd	r3, r3, [sp, #32]
    2194:	d139      	bne.n	220a <CRYPTO_Cache_Sync+0xa2>
    2196:	f1ba 0f00 	cmp.w	sl, #0
    219a:	d005      	beq.n	21a8 <CRYPTO_Cache_Sync+0x40>
    219c:	ea85 0307 	eor.w	r3, r5, r7
    21a0:	f033 031f 	bics.w	r3, r3, #31
    21a4:	f040 809b 	bne.w	22de <CRYPTO_Cache_Sync+0x176>
    21a8:	f44f 416d 	mov.w	r1, #60672	; 0xed00
    21ac:	f2ce 0100 	movt	r1, #57344	; 0xe000
    21b0:	694b      	ldr	r3, [r1, #20]
    21b2:	03d8      	lsls	r0, r3, #15
    21b4:	d526      	bpl.n	2204 <CRYPTO_Cache_Sync+0x9c>
    21b6:	ea05 0304 	and.w	r3, r5, r4
    21ba:	3301      	adds	r3, #1
    21bc:	d068      	beq.n	2290 <CRYPTO_Cache_Sync+0x128>
    21be:	f1b9 0f00 	cmp.w	r9, #0
    21c2:	d006      	beq.n	21d2 <CRYPTO_Cache_Sync+0x6a>
    21c4:	1e7c      	subs	r4, r7, #1
    21c6:	f025 061f 	bic.w	r6, r5, #31
    21ca:	f024 041f 	bic.w	r4, r4, #31
    21ce:	3420      	adds	r4, #32
    21d0:	1ba4      	subs	r4, r4, r6
    21d2:	f3bf 8f4f 	dsb	sy
    21d6:	2c00      	cmp	r4, #0
    21d8:	dd10      	ble.n	21fc <CRYPTO_Cache_Sync+0x94>
    21da:	1e62      	subs	r2, r4, #1
    21dc:	f106 0320 	add.w	r3, r6, #32
    21e0:	f44f 416d 	mov.w	r1, #60672	; 0xed00
    21e4:	f022 021f 	bic.w	r2, r2, #31
    21e8:	f2ce 0100 	movt	r1, #57344	; 0xe000
    21ec:	441a      	add	r2, r3
    21ee:	429a      	cmp	r2, r3
    21f0:	f8c1 625c 	str.w	r6, [r1, #604]	; 0x25c
    21f4:	461e      	mov	r6, r3
    21f6:	f103 0320 	add.w	r3, r3, #32
    21fa:	d1f8      	bne.n	21ee <CRYPTO_Cache_Sync+0x86>
    21fc:	f3bf 8f4f 	dsb	sy
    2200:	f3bf 8f6f 	isb	sy
    2204:	b00b      	add	sp, #44	; 0x2c
    2206:	e8bd 8ff0 	ldmia.w	sp!, {r4, r5, r6, r7, r8, r9, sl, fp, pc}
    220a:	f020 031f 	bic.w	r3, r0, #31
    220e:	f10d 0b08 	add.w	fp, sp, #8
    2212:	f241 3889 	movw	r8, #5001	; 0x1389
    2216:	2220      	movs	r2, #32
    2218:	4619      	mov	r1, r3
    221a:	4658      	mov	r0, fp
    221c:	f2c0 0801 	movt	r8, #1
    2220:	9301      	str	r3, [sp, #4]
    2222:	47c0      	blx	r8
    2224:	f44f 426d 	mov.w	r2, #60672	; 0xed00
    2228:	9b01      	ldr	r3, [sp, #4]
    222a:	f2ce 0200 	movt	r2, #57344	; 0xe000
    222e:	6951      	ldr	r1, [r2, #20]
    2230:	f411 3f80 	tst.w	r1, #65536	; 0x10000
    2234:	d007      	beq.n	2246 <CRYPTO_Cache_Sync+0xde>
    2236:	f3bf 8f4f 	dsb	sy
    223a:	f8c2 325c 	str.w	r3, [r2, #604]	; 0x25c
    223e:	f3bf 8f4f 	dsb	sy
    2242:	f3bf 8f6f 	isb	sy
    2246:	ea85 0107 	eor.w	r1, r5, r7
    224a:	fa5f f289 	uxtb.w	r2, r9
    224e:	eb0b 0009 	add.w	r0, fp, r9
    2252:	9301      	str	r3, [sp, #4]
    2254:	f031 011f 	bics.w	r1, r1, #31
    2258:	d03b      	beq.n	22d2 <CRYPTO_Cache_Sync+0x16a>
    225a:	f1c2 0220 	rsb	r2, r2, #32
    225e:	4629      	mov	r1, r5
    2260:	47c0      	blx	r8
    2262:	9b01      	ldr	r3, [sp, #4]
    2264:	4659      	mov	r1, fp
    2266:	2220      	movs	r2, #32
    2268:	4618      	mov	r0, r3
    226a:	9301      	str	r3, [sp, #4]
    226c:	47c0      	blx	r8
    226e:	f44f 426d 	mov.w	r2, #60672	; 0xed00
    2272:	f2ce 0200 	movt	r2, #57344	; 0xe000
    2276:	6951      	ldr	r1, [r2, #20]
    2278:	03c8      	lsls	r0, r1, #15
    227a:	d58c      	bpl.n	2196 <CRYPTO_Cache_Sync+0x2e>
    227c:	f3bf 8f4f 	dsb	sy
    2280:	9b01      	ldr	r3, [sp, #4]
    2282:	f8c2 3268 	str.w	r3, [r2, #616]	; 0x268
    2286:	f3bf 8f4f 	dsb	sy
    228a:	f3bf 8f6f 	isb	sy
    228e:	e782      	b.n	2196 <CRYPTO_Cache_Sync+0x2e>
    2290:	2300      	movs	r3, #0
    2292:	f8c1 3084 	str.w	r3, [r1, #132]	; 0x84
    2296:	f3bf 8f4f 	dsb	sy
    229a:	f8d1 5080 	ldr.w	r5, [r1, #128]	; 0x80
    229e:	f643 76e0 	movw	r6, #16352	; 0x3fe0
    22a2:	f3c5 344e 	ubfx	r4, r5, #13, #15
    22a6:	f3c5 05c9 	ubfx	r5, r5, #3, #10
    22aa:	0164      	lsls	r4, r4, #5
    22ac:	ea04 0006 	and.w	r0, r4, r6
    22b0:	462b      	mov	r3, r5
    22b2:	ea40 7283 	orr.w	r2, r0, r3, lsl #30
    22b6:	3b01      	subs	r3, #1
    22b8:	f8c1 2260 	str.w	r2, [r1, #608]	; 0x260
    22bc:	1c5a      	adds	r2, r3, #1
    22be:	d1f8      	bne.n	22b2 <CRYPTO_Cache_Sync+0x14a>
    22c0:	3c20      	subs	r4, #32
    22c2:	f114 0f20 	cmn.w	r4, #32
    22c6:	d1f1      	bne.n	22ac <CRYPTO_Cache_Sync+0x144>
    22c8:	f3bf 8f4f 	dsb	sy
    22cc:	f3bf 8f6f 	isb	sy
    22d0:	e798      	b.n	2204 <CRYPTO_Cache_Sync+0x9c>
    22d2:	9b00      	ldr	r3, [sp, #0]
    22d4:	4629      	mov	r1, r5
    22d6:	1a9a      	subs	r2, r3, r2
    22d8:	47c0      	blx	r8
    22da:	9b01      	ldr	r3, [sp, #4]
    22dc:	e7c2      	b.n	2264 <CRYPTO_Cache_Sync+0xfc>
    22de:	f027 0a1f 	bic.w	sl, r7, #31
    22e2:	f10d 0b08 	add.w	fp, sp, #8
    22e6:	f241 3889 	movw	r8, #5001	; 0x1389
    22ea:	2220      	movs	r2, #32
    22ec:	4651      	mov	r1, sl
    22ee:	4658      	mov	r0, fp
    22f0:	f2c0 0801 	movt	r8, #1
    22f4:	47c0      	blx	r8
    22f6:	f44f 436d 	mov.w	r3, #60672	; 0xed00
    22fa:	f2ce 0300 	movt	r3, #57344	; 0xe000
    22fe:	695a      	ldr	r2, [r3, #20]
    2300:	03d1      	lsls	r1, r2, #15
    2302:	d507      	bpl.n	2314 <CRYPTO_Cache_Sync+0x1ac>
    2304:	f3bf 8f4f 	dsb	sy
    2308:	f8c3 a25c 	str.w	sl, [r3, #604]	; 0x25c
    230c:	f3bf 8f4f 	dsb	sy
    2310:	f3bf 8f6f 	isb	sy
    2314:	9a00      	ldr	r2, [sp, #0]
    2316:	4651      	mov	r1, sl
    2318:	4658      	mov	r0, fp
    231a:	47c0      	blx	r8
    231c:	2220      	movs	r2, #32
    231e:	4659      	mov	r1, fp
    2320:	4650      	mov	r0, sl
    2322:	47c0      	blx	r8
    2324:	f44f 436d 	mov.w	r3, #60672	; 0xed00
    2328:	f2ce 0300 	movt	r3, #57344	; 0xe000
    232c:	695a      	ldr	r2, [r3, #20]
    232e:	03d2      	lsls	r2, r2, #15
    2330:	f57f af3a 	bpl.w	21a8 <CRYPTO_Cache_Sync+0x40>
    2334:	f3bf 8f4f 	dsb	sy
    2338:	f8c3 a268 	str.w	sl, [r3, #616]	; 0x268
    233c:	f3bf 8f4f 	dsb	sy
    2340:	f3bf 8f6f 	isb	sy
    2344:	e730      	b.n	21a8 <CRYPTO_Cache_Sync+0x40>
    2346:	bf00      	nop

00002348 <CRYPTO_ProcessAD>:
    2348:	e92d 4ff0 	stmdb	sp!, {r4, r5, r6, r7, r8, r9, sl, fp, lr}
    234c:	461f      	mov	r7, r3
    234e:	4682      	mov	sl, r0
    2350:	460e      	mov	r6, r1
    2352:	4615      	mov	r5, r2
    2354:	ed2d 8b02 	vpush	{d8}
    2358:	b08b      	sub	sp, #44	; 0x2c
    235a:	7a03      	ldrb	r3, [r0, #8]
    235c:	f8dd 906c 	ldr.w	r9, [sp, #108]	; 0x6c
    2360:	2b00      	cmp	r3, #0
    2362:	f000 8221 	beq.w	27a8 <CRYPTO_ProcessAD+0x460>
    2366:	f64f 43c9 	movw	r3, #64713	; 0xfcc9
    236a:	2200      	movs	r2, #0
    236c:	f04f 0800 	mov.w	r8, #0
    2370:	f2c0 0300 	movt	r3, #0
    2374:	f2c4 0210 	movt	r2, #16400	; 0x4010
    2378:	e843 f300 	tt	r3, r3
    237c:	f413 0f80 	tst.w	r3, #4194304	; 0x400000
    2380:	f04f 0300 	mov.w	r3, #0
    2384:	f2c5 0310 	movt	r3, #20496	; 0x5010
    2388:	bf0c      	ite	eq
    238a:	4693      	moveq	fp, r2
    238c:	469b      	movne	fp, r3
    238e:	2e00      	cmp	r6, #0
    2390:	f000 8222 	beq.w	27d8 <CRYPTO_ProcessAD+0x490>
    2394:	f89a 3000 	ldrb.w	r3, [sl]
    2398:	2b01      	cmp	r3, #1
    239a:	d007      	beq.n	23ac <CRYPTO_ProcessAD+0x64>
    239c:	f645 6050 	movw	r0, #24144	; 0x5e50
    23a0:	f44f 716c 	mov.w	r1, #944	; 0x3b0
    23a4:	f2c0 0004 	movt	r0, #4
    23a8:	f008 fe40 	bl	b02c <io_assert_failed>
    23ac:	f241 53d9 	movw	r3, #5593	; 0x15d9
    23b0:	4640      	mov	r0, r8
    23b2:	f2c0 0300 	movt	r3, #0
    23b6:	4798      	blx	r3
    23b8:	9b18      	ldr	r3, [sp, #96]	; 0x60
    23ba:	f8da 2028 	ldr.w	r2, [sl, #40]	; 0x28
    23be:	f8ca 304c 	str.w	r3, [sl, #76]	; 0x4c
    23c2:	f005 030f 	and.w	r3, r5, #15
    23c6:	f8ca 5054 	str.w	r5, [sl, #84]	; 0x54
    23ca:	f8ca 3018 	str.w	r3, [sl, #24]
    23ce:	425b      	negs	r3, r3
    23d0:	9203      	str	r2, [sp, #12]
    23d2:	f003 030f 	and.w	r3, r3, #15
    23d6:	f8ca 3058 	str.w	r3, [sl, #88]	; 0x58
    23da:	9b18      	ldr	r3, [sp, #96]	; 0x60
    23dc:	f003 030f 	and.w	r3, r3, #15
    23e0:	f8ca 301c 	str.w	r3, [sl, #28]
    23e4:	425b      	negs	r3, r3
    23e6:	f003 030f 	and.w	r3, r3, #15
    23ea:	f8ca 3050 	str.w	r3, [sl, #80]	; 0x50
    23ee:	f8da 300c 	ldr.w	r3, [sl, #12]
    23f2:	3301      	adds	r3, #1
    23f4:	f000 820e 	beq.w	2814 <CRYPTO_ProcessAD+0x4cc>
    23f8:	f8da 3030 	ldr.w	r3, [sl, #48]	; 0x30
    23fc:	442b      	add	r3, r5
    23fe:	f8ca 3030 	str.w	r3, [sl, #48]	; 0x30
    2402:	f1b9 0f00 	cmp.w	r9, #0
    2406:	d013      	beq.n	2430 <CRYPTO_ProcessAD+0xe8>
    2408:	f8d9 305c 	ldr.w	r3, [r9, #92]	; 0x5c
    240c:	2b00      	cmp	r3, #0
    240e:	f000 8295 	beq.w	293c <CRYPTO_ProcessAD+0x5f4>
    2412:	2301      	movs	r3, #1
    2414:	f88a 302d 	strb.w	r3, [sl, #45]	; 0x2d
    2418:	9b19      	ldr	r3, [sp, #100]	; 0x64
    241a:	2b00      	cmp	r3, #0
    241c:	d04d      	beq.n	24ba <CRYPTO_ProcessAD+0x172>
    241e:	f899 304a 	ldrb.w	r3, [r9, #74]	; 0x4a
    2422:	2b01      	cmp	r3, #1
    2424:	d10a      	bne.n	243c <CRYPTO_ProcessAD+0xf4>
    2426:	f8d9 305c 	ldr.w	r3, [r9, #92]	; 0x5c
    242a:	2b01      	cmp	r3, #1
    242c:	d006      	beq.n	243c <CRYPTO_ProcessAD+0xf4>
    242e:	e28e      	b.n	294e <CRYPTO_ProcessAD+0x606>
    2430:	2301      	movs	r3, #1
    2432:	f88a 302d 	strb.w	r3, [sl, #45]	; 0x2d
    2436:	9b19      	ldr	r3, [sp, #100]	; 0x64
    2438:	2b00      	cmp	r3, #0
    243a:	d03e      	beq.n	24ba <CRYPTO_ProcessAD+0x172>
    243c:	2270      	movs	r2, #112	; 0x70
    243e:	f44f 436d 	mov.w	r3, #60672	; 0xed00
    2442:	2000      	movs	r0, #0
    2444:	f2ce 0300 	movt	r3, #57344	; 0xe000
    2448:	f362 601f 	bfi	r0, r2, #24, #8
    244c:	9a03      	ldr	r2, [sp, #12]
    244e:	f362 0007 	bfi	r0, r2, #0, #8
    2452:	695a      	ldr	r2, [r3, #20]
    2454:	03d1      	lsls	r1, r2, #15
    2456:	d52c      	bpl.n	24b2 <CRYPTO_ProcessAD+0x16a>
    2458:	9a19      	ldr	r2, [sp, #100]	; 0x64
    245a:	9903      	ldr	r1, [sp, #12]
    245c:	400a      	ands	r2, r1
    245e:	3201      	adds	r2, #1
    2460:	f000 835f 	beq.w	2b22 <CRYPTO_ProcessAD+0x7da>
    2464:	9b19      	ldr	r3, [sp, #100]	; 0x64
    2466:	06da      	lsls	r2, r3, #27
    2468:	f000 8381 	beq.w	2b6e <CRYPTO_ProcessAD+0x826>
    246c:	9a03      	ldr	r2, [sp, #12]
    246e:	4413      	add	r3, r2
    2470:	9a19      	ldr	r2, [sp, #100]	; 0x64
    2472:	3b01      	subs	r3, #1
    2474:	f022 011f 	bic.w	r1, r2, #31
    2478:	f023 031f 	bic.w	r3, r3, #31
    247c:	3320      	adds	r3, #32
    247e:	1a5b      	subs	r3, r3, r1
    2480:	f3bf 8f4f 	dsb	sy
    2484:	2b00      	cmp	r3, #0
    2486:	dd10      	ble.n	24aa <CRYPTO_ProcessAD+0x162>
    2488:	1e5a      	subs	r2, r3, #1
    248a:	f44f 446d 	mov.w	r4, #60672	; 0xed00
    248e:	f101 0320 	add.w	r3, r1, #32
    2492:	f022 021f 	bic.w	r2, r2, #31
    2496:	f2ce 0400 	movt	r4, #57344	; 0xe000
    249a:	441a      	add	r2, r3
    249c:	429a      	cmp	r2, r3
    249e:	f8c4 1270 	str.w	r1, [r4, #624]	; 0x270
    24a2:	4619      	mov	r1, r3
    24a4:	f103 0320 	add.w	r3, r3, #32
    24a8:	d1f8      	bne.n	249c <CRYPTO_ProcessAD+0x154>
    24aa:	f3bf 8f4f 	dsb	sy
    24ae:	f3bf 8f6f 	isb	sy
    24b2:	4642      	mov	r2, r8
    24b4:	9919      	ldr	r1, [sp, #100]	; 0x64
    24b6:	f7ff f821 	bl	14fc <CRYPTO_SetDstDesc>
    24ba:	464b      	mov	r3, r9
    24bc:	4639      	mov	r1, r7
    24be:	9a16      	ldr	r2, [sp, #88]	; 0x58
    24c0:	4650      	mov	r0, sl
    24c2:	f8cd 8000 	str.w	r8, [sp]
    24c6:	f04f 4480 	mov.w	r4, #1073741824	; 0x40000000
    24ca:	f7ff f9ff 	bl	18cc <CRYPTO_SrcDescKeyIv>
    24ce:	9b17      	ldr	r3, [sp, #92]	; 0x5c
    24d0:	2b00      	cmp	r3, #0
    24d2:	f000 822e 	beq.w	2932 <CRYPTO_ProcessAD+0x5ea>
    24d6:	f44f 416d 	mov.w	r1, #60672	; 0xed00
    24da:	f2ce 0100 	movt	r1, #57344	; 0xe000
    24de:	694b      	ldr	r3, [r1, #20]
    24e0:	03db      	lsls	r3, r3, #15
    24e2:	d524      	bpl.n	252e <CRYPTO_ProcessAD+0x1e6>
    24e4:	e9dd 3217 	ldrd	r3, r2, [sp, #92]	; 0x5c
    24e8:	4013      	ands	r3, r2
    24ea:	3301      	adds	r3, #1
    24ec:	f000 8285 	beq.w	29fa <CRYPTO_ProcessAD+0x6b2>
    24f0:	9b17      	ldr	r3, [sp, #92]	; 0x5c
    24f2:	06df      	lsls	r7, r3, #27
    24f4:	f040 824b 	bne.w	298e <CRYPTO_ProcessAD+0x646>
    24f8:	e9dd 1317 	ldrd	r1, r3, [sp, #92]	; 0x5c
    24fc:	f3bf 8f4f 	dsb	sy
    2500:	2b00      	cmp	r3, #0
    2502:	dd10      	ble.n	2526 <CRYPTO_ProcessAD+0x1de>
    2504:	1e5a      	subs	r2, r3, #1
    2506:	f44f 406d 	mov.w	r0, #60672	; 0xed00
    250a:	f101 0320 	add.w	r3, r1, #32
    250e:	f022 021f 	bic.w	r2, r2, #31
    2512:	f2ce 0000 	movt	r0, #57344	; 0xe000
    2516:	441a      	add	r2, r3
    2518:	429a      	cmp	r2, r3
    251a:	f8c0 1270 	str.w	r1, [r0, #624]	; 0x270
    251e:	4619      	mov	r1, r3
    2520:	f103 0320 	add.w	r3, r3, #32
    2524:	d1f8      	bne.n	2518 <CRYPTO_ProcessAD+0x1d0>
    2526:	f3bf 8f4f 	dsb	sy
    252a:	f3bf 8f6f 	isb	sy
    252e:	9b18      	ldr	r3, [sp, #96]	; 0x60
    2530:	2b10      	cmp	r3, #16
    2532:	f240 8166 	bls.w	2802 <CRYPTO_ProcessAD+0x4ba>
    2536:	f645 43e0 	movw	r3, #23776	; 0x5ce0
    253a:	9f17      	ldr	r7, [sp, #92]	; 0x5c
    253c:	f645 52a0 	movw	r2, #23968	; 0x5da0
    2540:	9818      	ldr	r0, [sp, #96]	; 0x60
    2542:	f2c0 0304 	movt	r3, #4
    2546:	4639      	mov	r1, r7
    2548:	f244 0904 	movw	r9, #16388	; 0x4004
    254c:	f2c0 0204 	movt	r2, #4
    2550:	ee08 3a10 	vmov	s16, r3
    2554:	f645 43f8 	movw	r3, #23800	; 0x5cf8
    2558:	4401      	add	r1, r0
    255a:	f2c2 0900 	movt	r9, #8192	; 0x2000
    255e:	f2c0 0304 	movt	r3, #4
    2562:	e9cd ba04 	strd	fp, sl, [sp, #16]
    2566:	e9cd 6506 	strd	r6, r5, [sp, #24]
    256a:	468b      	mov	fp, r1
    256c:	461e      	mov	r6, r3
    256e:	4692      	mov	sl, r2
    2570:	e00b      	b.n	258a <CRYPTO_ProcessAD+0x242>
    2572:	4639      	mov	r1, r7
    2574:	3710      	adds	r7, #16
    2576:	4620      	mov	r0, r4
    2578:	4642      	mov	r2, r8
    257a:	f7fe ff77 	bl	146c <CRYPTO_SetSrcDesc>
    257e:	ebab 0307 	sub.w	r3, fp, r7
    2582:	f04f 4480 	mov.w	r4, #1073741824	; 0x40000000
    2586:	2b10      	cmp	r3, #16
    2588:	d916      	bls.n	25b8 <CRYPTO_ProcessAD+0x270>
    258a:	f8d9 2008 	ldr.w	r2, [r9, #8]
    258e:	2510      	movs	r5, #16
    2590:	0490      	lsls	r0, r2, #18
    2592:	f365 240c 	bfi	r4, r5, #8, #5
    2596:	d5ec      	bpl.n	2572 <CRYPTO_ProcessAD+0x22a>
    2598:	462b      	mov	r3, r5
    259a:	463a      	mov	r2, r7
    259c:	ee18 1a10 	vmov	r1, s16
    25a0:	4630      	mov	r0, r6
    25a2:	f00d fb91 	bl	fcc8 <DiagPrintf>
    25a6:	f241 3345 	movw	r3, #4933	; 0x1345
    25aa:	4652      	mov	r2, sl
    25ac:	4629      	mov	r1, r5
    25ae:	4638      	mov	r0, r7
    25b0:	f2c0 0300 	movt	r3, #0
    25b4:	4798      	blx	r3
    25b6:	e7dc      	b.n	2572 <CRYPTO_ProcessAD+0x22a>
    25b8:	9b18      	ldr	r3, [sp, #96]	; 0x60
    25ba:	9a18      	ldr	r2, [sp, #96]	; 0x60
    25bc:	3b11      	subs	r3, #17
    25be:	9817      	ldr	r0, [sp, #92]	; 0x5c
    25c0:	3a10      	subs	r2, #16
    25c2:	091b      	lsrs	r3, r3, #4
    25c4:	1c59      	adds	r1, r3, #1
    25c6:	ebc3 7303 	rsb	r3, r3, r3, lsl #28
    25ca:	eb00 1101 	add.w	r1, r0, r1, lsl #4
    25ce:	eb02 1303 	add.w	r3, r2, r3, lsl #4
    25d2:	9117      	str	r1, [sp, #92]	; 0x5c
    25d4:	9318      	str	r3, [sp, #96]	; 0x60
    25d6:	e9dd ba04 	ldrd	fp, sl, [sp, #16]
    25da:	e9dd 6506 	ldrd	r6, r5, [sp, #24]
    25de:	9b18      	ldr	r3, [sp, #96]	; 0x60
    25e0:	f363 240c 	bfi	r4, r3, #8, #5
    25e4:	f8d9 3008 	ldr.w	r3, [r9, #8]
    25e8:	0499      	lsls	r1, r3, #18
    25ea:	f100 8254 	bmi.w	2a96 <CRYPTO_ProcessAD+0x74e>
    25ee:	4620      	mov	r0, r4
    25f0:	9917      	ldr	r1, [sp, #92]	; 0x5c
    25f2:	4642      	mov	r2, r8
    25f4:	f04f 4480 	mov.w	r4, #1073741824	; 0x40000000
    25f8:	f7fe ff38 	bl	146c <CRYPTO_SetSrcDesc>
    25fc:	f8da 3050 	ldr.w	r3, [sl, #80]	; 0x50
    2600:	b323      	cbz	r3, 264c <CRYPTO_ProcessAD+0x304>
    2602:	f363 240c 	bfi	r4, r3, #8, #5
    2606:	f44f 436d 	mov.w	r3, #60672	; 0xed00
    260a:	f244 6780 	movw	r7, #18048	; 0x4680
    260e:	f2ce 0300 	movt	r3, #57344	; 0xe000
    2612:	f2c2 0700 	movt	r7, #8192	; 0x2000
    2616:	695a      	ldr	r2, [r3, #20]
    2618:	03d2      	lsls	r2, r2, #15
    261a:	d50b      	bpl.n	2634 <CRYPTO_ProcessAD+0x2ec>
    261c:	f3bf 8f4f 	dsb	sy
    2620:	f107 0220 	add.w	r2, r7, #32
    2624:	f8c3 7270 	str.w	r7, [r3, #624]	; 0x270
    2628:	f8c3 2270 	str.w	r2, [r3, #624]	; 0x270
    262c:	f3bf 8f4f 	dsb	sy
    2630:	f3bf 8f6f 	isb	sy
    2634:	f8d9 3008 	ldr.w	r3, [r9, #8]
    2638:	049b      	lsls	r3, r3, #18
    263a:	f100 8244 	bmi.w	2ac6 <CRYPTO_ProcessAD+0x77e>
    263e:	4620      	mov	r0, r4
    2640:	4639      	mov	r1, r7
    2642:	4642      	mov	r2, r8
    2644:	f04f 4480 	mov.w	r4, #1073741824	; 0x40000000
    2648:	f7fe ff10 	bl	146c <CRYPTO_SetSrcDesc>
    264c:	b34e      	cbz	r6, 26a2 <CRYPTO_ProcessAD+0x35a>
    264e:	f44f 416d 	mov.w	r1, #60672	; 0xed00
    2652:	f2ce 0100 	movt	r1, #57344	; 0xe000
    2656:	694b      	ldr	r3, [r1, #20]
    2658:	03d8      	lsls	r0, r3, #15
    265a:	d522      	bpl.n	26a2 <CRYPTO_ProcessAD+0x35a>
    265c:	ea06 0305 	and.w	r3, r6, r5
    2660:	3301      	adds	r3, #1
    2662:	f000 81ea 	beq.w	2a3a <CRYPTO_ProcessAD+0x6f2>
    2666:	06f2      	lsls	r2, r6, #27
    2668:	f040 8188 	bne.w	297c <CRYPTO_ProcessAD+0x634>
    266c:	462b      	mov	r3, r5
    266e:	4631      	mov	r1, r6
    2670:	f3bf 8f4f 	dsb	sy
    2674:	2b00      	cmp	r3, #0
    2676:	dd10      	ble.n	269a <CRYPTO_ProcessAD+0x352>
    2678:	1e5a      	subs	r2, r3, #1
    267a:	f44f 406d 	mov.w	r0, #60672	; 0xed00
    267e:	f101 0320 	add.w	r3, r1, #32
    2682:	f022 021f 	bic.w	r2, r2, #31
    2686:	f2ce 0000 	movt	r0, #57344	; 0xe000
    268a:	441a      	add	r2, r3
    268c:	4293      	cmp	r3, r2
    268e:	f8c0 1270 	str.w	r1, [r0, #624]	; 0x270
    2692:	4619      	mov	r1, r3
    2694:	f103 0320 	add.w	r3, r3, #32
    2698:	d1f8      	bne.n	268c <CRYPTO_ProcessAD+0x344>
    269a:	f3bf 8f4f 	dsb	sy
    269e:	f3bf 8f6f 	isb	sy
    26a2:	f643 77f0 	movw	r7, #16368	; 0x3ff0
    26a6:	42bd      	cmp	r5, r7
    26a8:	d90d      	bls.n	26c6 <CRYPTO_ProcessAD+0x37e>
    26aa:	4620      	mov	r0, r4
    26ac:	1bed      	subs	r5, r5, r7
    26ae:	f367 309b 	bfi	r0, r7, #14, #14
    26b2:	4631      	mov	r1, r6
    26b4:	4642      	mov	r2, r8
    26b6:	f7fe fed9 	bl	146c <CRYPTO_SetSrcDesc>
    26ba:	42bd      	cmp	r5, r7
    26bc:	443e      	add	r6, r7
    26be:	f04f 4080 	mov.w	r0, #1073741824	; 0x40000000
    26c2:	d8f3      	bhi.n	26ac <CRYPTO_ProcessAD+0x364>
    26c4:	4604      	mov	r4, r0
    26c6:	f8da 3058 	ldr.w	r3, [sl, #88]	; 0x58
    26ca:	2b00      	cmp	r3, #0
    26cc:	d06a      	beq.n	27a4 <CRYPTO_ProcessAD+0x45c>
    26ce:	f3c4 7400 	ubfx	r4, r4, #28, #1
    26d2:	03ab      	lsls	r3, r5, #14
    26d4:	f44f 4040 	mov.w	r0, #49152	; 0xc000
    26d8:	4642      	mov	r2, r8
    26da:	4631      	mov	r1, r6
    26dc:	ea43 7404 	orr.w	r4, r3, r4, lsl #28
    26e0:	f6c1 70ff 	movt	r0, #8191	; 0x1fff
    26e4:	4020      	ands	r0, r4
    26e6:	f040 4080 	orr.w	r0, r0, #1073741824	; 0x40000000
    26ea:	f7fe febf 	bl	146c <CRYPTO_SetSrcDesc>
    26ee:	f8d9 3008 	ldr.w	r3, [r9, #8]
    26f2:	049b      	lsls	r3, r3, #18
    26f4:	f100 8105 	bmi.w	2902 <CRYPTO_ProcessAD+0x5ba>
    26f8:	f8da 3058 	ldr.w	r3, [sl, #88]	; 0x58
    26fc:	b343      	cbz	r3, 2750 <CRYPTO_ProcessAD+0x408>
    26fe:	f44f 4440 	mov.w	r4, #49152	; 0xc000
    2702:	f244 6580 	movw	r5, #18048	; 0x4680
    2706:	f6c0 74ff 	movt	r4, #4095	; 0xfff
    270a:	f2c2 0500 	movt	r5, #8192	; 0x2000
    270e:	ea04 3483 	and.w	r4, r4, r3, lsl #14
    2712:	f44f 436d 	mov.w	r3, #60672	; 0xed00
    2716:	f2ce 0300 	movt	r3, #57344	; 0xe000
    271a:	f044 44a0 	orr.w	r4, r4, #1342177280	; 0x50000000
    271e:	695a      	ldr	r2, [r3, #20]
    2720:	03d7      	lsls	r7, r2, #15
    2722:	d50b      	bpl.n	273c <CRYPTO_ProcessAD+0x3f4>
    2724:	f3bf 8f4f 	dsb	sy
    2728:	f105 0220 	add.w	r2, r5, #32
    272c:	f8c3 5270 	str.w	r5, [r3, #624]	; 0x270
    2730:	f8c3 2270 	str.w	r2, [r3, #624]	; 0x270
    2734:	f3bf 8f4f 	dsb	sy
    2738:	f3bf 8f6f 	isb	sy
    273c:	f8d9 3008 	ldr.w	r3, [r9, #8]
    2740:	049e      	lsls	r6, r3, #18
    2742:	f100 813a 	bmi.w	29ba <CRYPTO_ProcessAD+0x672>
    2746:	4642      	mov	r2, r8
    2748:	4629      	mov	r1, r5
    274a:	4620      	mov	r0, r4
    274c:	f7fe fe8e 	bl	146c <CRYPTO_SetSrcDesc>
    2750:	f244 2340 	movw	r3, #16960	; 0x4240
    2754:	f2c0 030f 	movt	r3, #15
    2758:	e008      	b.n	276c <CRYPTO_ProcessAD+0x424>
    275a:	f8db 201c 	ldr.w	r2, [fp, #28]
    275e:	9209      	str	r2, [sp, #36]	; 0x24
    2760:	9a09      	ldr	r2, [sp, #36]	; 0x24
    2762:	2a00      	cmp	r2, #0
    2764:	d141      	bne.n	27ea <CRYPTO_ProcessAD+0x4a2>
    2766:	3b01      	subs	r3, #1
    2768:	f000 81cd 	beq.w	2b06 <CRYPTO_ProcessAD+0x7be>
    276c:	f8db 2010 	ldr.w	r2, [fp, #16]
    2770:	06d4      	lsls	r4, r2, #27
    2772:	d5f2      	bpl.n	275a <CRYPTO_ProcessAD+0x412>
    2774:	9b19      	ldr	r3, [sp, #100]	; 0x64
    2776:	b14b      	cbz	r3, 278c <CRYPTO_ProcessAD+0x444>
    2778:	f8da 300c 	ldr.w	r3, [sl, #12]
    277c:	9819      	ldr	r0, [sp, #100]	; 0x64
    277e:	3301      	adds	r3, #1
    2780:	bf14      	ite	ne
    2782:	9903      	ldrne	r1, [sp, #12]
    2784:	f8da 1054 	ldreq.w	r1, [sl, #84]	; 0x54
    2788:	f7ff fcee 	bl	2168 <CRYPTO_Cache_Sync>
    278c:	9b1a      	ldr	r3, [sp, #104]	; 0x68
    278e:	b11b      	cbz	r3, 2798 <CRYPTO_ProcessAD+0x450>
    2790:	2110      	movs	r1, #16
    2792:	4618      	mov	r0, r3
    2794:	f7ff fce8 	bl	2168 <CRYPTO_Cache_Sync>
    2798:	2000      	movs	r0, #0
    279a:	b00b      	add	sp, #44	; 0x2c
    279c:	ecbd 8b02 	vpop	{d8}
    27a0:	e8bd 8ff0 	ldmia.w	sp!, {r4, r5, r6, r7, r8, r9, sl, fp, pc}
    27a4:	2401      	movs	r4, #1
    27a6:	e794      	b.n	26d2 <CRYPTO_ProcessAD+0x38a>
    27a8:	f64f 43c9 	movw	r3, #64713	; 0xfcc9
    27ac:	f44f 4200 	mov.w	r2, #32768	; 0x8000
    27b0:	f04f 0801 	mov.w	r8, #1
    27b4:	f2c0 0300 	movt	r3, #0
    27b8:	f2c4 0210 	movt	r2, #16400	; 0x4010
    27bc:	e843 f300 	tt	r3, r3
    27c0:	f413 0f80 	tst.w	r3, #4194304	; 0x400000
    27c4:	f44f 4300 	mov.w	r3, #32768	; 0x8000
    27c8:	f2c5 0310 	movt	r3, #20496	; 0x5010
    27cc:	bf0c      	ite	eq
    27ce:	4693      	moveq	fp, r2
    27d0:	469b      	movne	fp, r3
    27d2:	2e00      	cmp	r6, #0
    27d4:	f47f adde 	bne.w	2394 <CRYPTO_ProcessAD+0x4c>
    27d8:	f645 6050 	movw	r0, #24144	; 0x5e50
    27dc:	f240 31ad 	movw	r1, #941	; 0x3ad
    27e0:	f2c0 0004 	movt	r0, #4
    27e4:	f008 fc22 	bl	b02c <io_assert_failed>
    27e8:	e5d4      	b.n	2394 <CRYPTO_ProcessAD+0x4c>
    27ea:	f8d9 3000 	ldr.w	r3, [r9]
    27ee:	0498      	lsls	r0, r3, #18
    27f0:	f100 8143 	bmi.w	2a7a <CRYPTO_ProcessAD+0x732>
    27f4:	f04f 30ff 	mov.w	r0, #4294967295
    27f8:	b00b      	add	sp, #44	; 0x2c
    27fa:	ecbd 8b02 	vpop	{d8}
    27fe:	e8bd 8ff0 	ldmia.w	sp!, {r4, r5, r6, r7, r8, r9, sl, fp, pc}
    2802:	f244 0904 	movw	r9, #16388	; 0x4004
    2806:	9b18      	ldr	r3, [sp, #96]	; 0x60
    2808:	f2c2 0900 	movt	r9, #8192	; 0x2000
    280c:	2b00      	cmp	r3, #0
    280e:	f43f aef5 	beq.w	25fc <CRYPTO_ProcessAD+0x2b4>
    2812:	e6e4      	b.n	25de <CRYPTO_ProcessAD+0x296>
    2814:	9b19      	ldr	r3, [sp, #100]	; 0x64
    2816:	2b00      	cmp	r3, #0
    2818:	f000 81a1 	beq.w	2b5e <CRYPTO_ProcessAD+0x816>
    281c:	2368      	movs	r3, #104	; 0x68
    281e:	2000      	movs	r0, #0
    2820:	f363 601f 	bfi	r0, r3, #24, #8
    2824:	9b1a      	ldr	r3, [sp, #104]	; 0x68
    2826:	f365 0017 	bfi	r0, r5, #0, #24
    282a:	2b00      	cmp	r3, #0
    282c:	f000 80ba 	beq.w	29a4 <CRYPTO_ProcessAD+0x65c>
    2830:	f44f 436d 	mov.w	r3, #60672	; 0xed00
    2834:	f36f 701c 	bfc	r0, #28, #1
    2838:	f2ce 0300 	movt	r3, #57344	; 0xe000
    283c:	695b      	ldr	r3, [r3, #20]
    283e:	03db      	lsls	r3, r3, #15
    2840:	f140 81a7 	bpl.w	2b92 <CRYPTO_ProcessAD+0x84a>
    2844:	9b19      	ldr	r3, [sp, #100]	; 0x64
    2846:	402b      	ands	r3, r5
    2848:	3301      	adds	r3, #1
    284a:	f000 81a7 	beq.w	2b9c <CRYPTO_ProcessAD+0x854>
    284e:	9b19      	ldr	r3, [sp, #100]	; 0x64
    2850:	06dc      	lsls	r4, r3, #27
    2852:	f000 81c5 	beq.w	2be0 <CRYPTO_ProcessAD+0x898>
    2856:	3b01      	subs	r3, #1
    2858:	9a19      	ldr	r2, [sp, #100]	; 0x64
    285a:	442b      	add	r3, r5
    285c:	f022 011f 	bic.w	r1, r2, #31
    2860:	f023 031f 	bic.w	r3, r3, #31
    2864:	3320      	adds	r3, #32
    2866:	1a5b      	subs	r3, r3, r1
    2868:	f3bf 8f4f 	dsb	sy
    286c:	2b00      	cmp	r3, #0
    286e:	dd10      	ble.n	2892 <CRYPTO_ProcessAD+0x54a>
    2870:	1e5a      	subs	r2, r3, #1
    2872:	f44f 446d 	mov.w	r4, #60672	; 0xed00
    2876:	f101 0320 	add.w	r3, r1, #32
    287a:	f022 021f 	bic.w	r2, r2, #31
    287e:	f2ce 0400 	movt	r4, #57344	; 0xe000
    2882:	441a      	add	r2, r3
    2884:	4293      	cmp	r3, r2
    2886:	f8c4 1270 	str.w	r1, [r4, #624]	; 0x270
    288a:	4619      	mov	r1, r3
    288c:	f103 0320 	add.w	r3, r3, #32
    2890:	d1f8      	bne.n	2884 <CRYPTO_ProcessAD+0x53c>
    2892:	f3bf 8f4f 	dsb	sy
    2896:	f3bf 8f6f 	isb	sy
    289a:	4642      	mov	r2, r8
    289c:	9919      	ldr	r1, [sp, #100]	; 0x64
    289e:	f7fe fe2d 	bl	14fc <CRYPTO_SetDstDesc>
    28a2:	9b1a      	ldr	r3, [sp, #104]	; 0x68
    28a4:	2b00      	cmp	r3, #0
    28a6:	f43f ae08 	beq.w	24ba <CRYPTO_ProcessAD+0x172>
    28aa:	2010      	movs	r0, #16
    28ac:	f2c5 0000 	movt	r0, #20480	; 0x5000
    28b0:	f44f 436d 	mov.w	r3, #60672	; 0xed00
    28b4:	f2ce 0300 	movt	r3, #57344	; 0xe000
    28b8:	695b      	ldr	r3, [r3, #20]
    28ba:	03d9      	lsls	r1, r3, #15
    28bc:	d51c      	bpl.n	28f8 <CRYPTO_ProcessAD+0x5b0>
    28be:	9b1a      	ldr	r3, [sp, #104]	; 0x68
    28c0:	06da      	lsls	r2, r3, #27
    28c2:	f040 8157 	bne.w	2b74 <CRYPTO_ProcessAD+0x82c>
    28c6:	f3bf 8f4f 	dsb	sy
    28ca:	2310      	movs	r3, #16
    28cc:	9a1a      	ldr	r2, [sp, #104]	; 0x68
    28ce:	1e59      	subs	r1, r3, #1
    28d0:	f44f 446d 	mov.w	r4, #60672	; 0xed00
    28d4:	f102 0320 	add.w	r3, r2, #32
    28d8:	f021 011f 	bic.w	r1, r1, #31
    28dc:	f2ce 0400 	movt	r4, #57344	; 0xe000
    28e0:	4419      	add	r1, r3
    28e2:	4299      	cmp	r1, r3
    28e4:	f8c4 2270 	str.w	r2, [r4, #624]	; 0x270
    28e8:	461a      	mov	r2, r3
    28ea:	f103 0320 	add.w	r3, r3, #32
    28ee:	d1f8      	bne.n	28e2 <CRYPTO_ProcessAD+0x59a>
    28f0:	f3bf 8f4f 	dsb	sy
    28f4:	f3bf 8f6f 	isb	sy
    28f8:	4642      	mov	r2, r8
    28fa:	991a      	ldr	r1, [sp, #104]	; 0x68
    28fc:	f7fe fdfe 	bl	14fc <CRYPTO_SetDstDesc>
    2900:	e5db      	b.n	24ba <CRYPTO_ProcessAD+0x172>
    2902:	f645 41e0 	movw	r1, #23776	; 0x5ce0
    2906:	f645 40f8 	movw	r0, #23800	; 0x5cf8
    290a:	4632      	mov	r2, r6
    290c:	462b      	mov	r3, r5
    290e:	f2c0 0104 	movt	r1, #4
    2912:	f2c0 0004 	movt	r0, #4
    2916:	f00d f9d7 	bl	fcc8 <DiagPrintf>
    291a:	f645 52b8 	movw	r2, #23992	; 0x5db8
    291e:	f241 3345 	movw	r3, #4933	; 0x1345
    2922:	4629      	mov	r1, r5
    2924:	4630      	mov	r0, r6
    2926:	f2c0 0204 	movt	r2, #4
    292a:	f2c0 0300 	movt	r3, #0
    292e:	4798      	blx	r3
    2930:	e6e2      	b.n	26f8 <CRYPTO_ProcessAD+0x3b0>
    2932:	f244 0904 	movw	r9, #16388	; 0x4004
    2936:	f2c2 0900 	movt	r9, #8192	; 0x2000
    293a:	e687      	b.n	264c <CRYPTO_ProcessAD+0x304>
    293c:	9b19      	ldr	r3, [sp, #100]	; 0x64
    293e:	2b00      	cmp	r3, #0
    2940:	f43f adbb 	beq.w	24ba <CRYPTO_ProcessAD+0x172>
    2944:	f899 304a 	ldrb.w	r3, [r9, #74]	; 0x4a
    2948:	2b01      	cmp	r3, #1
    294a:	f47f ad77 	bne.w	243c <CRYPTO_ProcessAD+0xf4>
    294e:	9b03      	ldr	r3, [sp, #12]
    2950:	2b1c      	cmp	r3, #28
    2952:	f000 8148 	beq.w	2be6 <CRYPTO_ProcessAD+0x89e>
    2956:	2b30      	cmp	r3, #48	; 0x30
    2958:	f47f ad70 	bne.w	243c <CRYPTO_ProcessAD+0xf4>
    295c:	2340      	movs	r3, #64	; 0x40
    295e:	461a      	mov	r2, r3
    2960:	9303      	str	r3, [sp, #12]
    2962:	f44f 436d 	mov.w	r3, #60672	; 0xed00
    2966:	f04f 40e0 	mov.w	r0, #1879048192	; 0x70000000
    296a:	f2ce 0300 	movt	r3, #57344	; 0xe000
    296e:	f362 0007 	bfi	r0, r2, #0, #8
    2972:	695b      	ldr	r3, [r3, #20]
    2974:	03da      	lsls	r2, r3, #15
    2976:	f53f ad75 	bmi.w	2464 <CRYPTO_ProcessAD+0x11c>
    297a:	e59a      	b.n	24b2 <CRYPTO_ProcessAD+0x16a>
    297c:	1e6b      	subs	r3, r5, #1
    297e:	f026 011f 	bic.w	r1, r6, #31
    2982:	4433      	add	r3, r6
    2984:	f023 031f 	bic.w	r3, r3, #31
    2988:	3320      	adds	r3, #32
    298a:	1a5b      	subs	r3, r3, r1
    298c:	e670      	b.n	2670 <CRYPTO_ProcessAD+0x328>
    298e:	9a18      	ldr	r2, [sp, #96]	; 0x60
    2990:	3b01      	subs	r3, #1
    2992:	4413      	add	r3, r2
    2994:	9a17      	ldr	r2, [sp, #92]	; 0x5c
    2996:	f023 031f 	bic.w	r3, r3, #31
    299a:	f022 011f 	bic.w	r1, r2, #31
    299e:	3320      	adds	r3, #32
    29a0:	1a5b      	subs	r3, r3, r1
    29a2:	e5ab      	b.n	24fc <CRYPTO_ProcessAD+0x1b4>
    29a4:	f44f 436d 	mov.w	r3, #60672	; 0xed00
    29a8:	f040 5080 	orr.w	r0, r0, #268435456	; 0x10000000
    29ac:	f2ce 0300 	movt	r3, #57344	; 0xe000
    29b0:	695b      	ldr	r3, [r3, #20]
    29b2:	03db      	lsls	r3, r3, #15
    29b4:	f53f af46 	bmi.w	2844 <CRYPTO_ProcessAD+0x4fc>
    29b8:	e57b      	b.n	24b2 <CRYPTO_ProcessAD+0x16a>
    29ba:	f3c4 368d 	ubfx	r6, r4, #14, #14
    29be:	f645 41e0 	movw	r1, #23776	; 0x5ce0
    29c2:	f645 40f8 	movw	r0, #23800	; 0x5cf8
    29c6:	f244 6280 	movw	r2, #18048	; 0x4680
    29ca:	4633      	mov	r3, r6
    29cc:	f2c0 0104 	movt	r1, #4
    29d0:	f2c2 0200 	movt	r2, #8192	; 0x2000
    29d4:	f2c0 0004 	movt	r0, #4
    29d8:	f00d f976 	bl	fcc8 <DiagPrintf>
    29dc:	f645 52c4 	movw	r2, #24004	; 0x5dc4
    29e0:	f241 3345 	movw	r3, #4933	; 0x1345
    29e4:	f244 6080 	movw	r0, #18048	; 0x4680
    29e8:	4631      	mov	r1, r6
    29ea:	f2c0 0204 	movt	r2, #4
    29ee:	f2c0 0300 	movt	r3, #0
    29f2:	f2c2 0000 	movt	r0, #8192	; 0x2000
    29f6:	4798      	blx	r3
    29f8:	e6a5      	b.n	2746 <CRYPTO_ProcessAD+0x3fe>
    29fa:	2300      	movs	r3, #0
    29fc:	f8c1 3084 	str.w	r3, [r1, #132]	; 0x84
    2a00:	f3bf 8f4f 	dsb	sy
    2a04:	f8d1 3080 	ldr.w	r3, [r1, #128]	; 0x80
    2a08:	f643 7ee0 	movw	lr, #16352	; 0x3fe0
    2a0c:	f3c3 374e 	ubfx	r7, r3, #13, #15
    2a10:	f3c3 0cc9 	ubfx	ip, r3, #3, #10
    2a14:	017f      	lsls	r7, r7, #5
    2a16:	ea07 000e 	and.w	r0, r7, lr
    2a1a:	4663      	mov	r3, ip
    2a1c:	ea40 7283 	orr.w	r2, r0, r3, lsl #30
    2a20:	3b01      	subs	r3, #1
    2a22:	f8c1 2274 	str.w	r2, [r1, #628]	; 0x274
    2a26:	d2f9      	bcs.n	2a1c <CRYPTO_ProcessAD+0x6d4>
    2a28:	3f20      	subs	r7, #32
    2a2a:	f117 0f20 	cmn.w	r7, #32
    2a2e:	d1f2      	bne.n	2a16 <CRYPTO_ProcessAD+0x6ce>
    2a30:	f3bf 8f4f 	dsb	sy
    2a34:	f3bf 8f6f 	isb	sy
    2a38:	e579      	b.n	252e <CRYPTO_ProcessAD+0x1e6>
    2a3a:	2300      	movs	r3, #0
    2a3c:	f8c1 3084 	str.w	r3, [r1, #132]	; 0x84
    2a40:	f3bf 8f4f 	dsb	sy
    2a44:	f8d1 3080 	ldr.w	r3, [r1, #128]	; 0x80
    2a48:	f643 7ee0 	movw	lr, #16352	; 0x3fe0
    2a4c:	f3c3 374e 	ubfx	r7, r3, #13, #15
    2a50:	f3c3 0cc9 	ubfx	ip, r3, #3, #10
    2a54:	017f      	lsls	r7, r7, #5
    2a56:	ea07 000e 	and.w	r0, r7, lr
    2a5a:	4663      	mov	r3, ip
    2a5c:	ea40 7283 	orr.w	r2, r0, r3, lsl #30
    2a60:	3b01      	subs	r3, #1
    2a62:	f8c1 2274 	str.w	r2, [r1, #628]	; 0x274
    2a66:	d2f9      	bcs.n	2a5c <CRYPTO_ProcessAD+0x714>
    2a68:	3f20      	subs	r7, #32
    2a6a:	f117 0f20 	cmn.w	r7, #32
    2a6e:	d1f2      	bne.n	2a56 <CRYPTO_ProcessAD+0x70e>
    2a70:	f3bf 8f4f 	dsb	sy
    2a74:	f3bf 8f6f 	isb	sy
    2a78:	e613      	b.n	26a2 <CRYPTO_ProcessAD+0x35a>
    2a7a:	f645 50d4 	movw	r0, #24020	; 0x5dd4
    2a7e:	9909      	ldr	r1, [sp, #36]	; 0x24
    2a80:	f2c0 0004 	movt	r0, #4
    2a84:	f00d f920 	bl	fcc8 <DiagPrintf>
    2a88:	f04f 30ff 	mov.w	r0, #4294967295
    2a8c:	b00b      	add	sp, #44	; 0x2c
    2a8e:	ecbd 8b02 	vpop	{d8}
    2a92:	e8bd 8ff0 	ldmia.w	sp!, {r4, r5, r6, r7, r8, r9, sl, fp, pc}
    2a96:	f645 41e0 	movw	r1, #23776	; 0x5ce0
    2a9a:	f645 40f8 	movw	r0, #23800	; 0x5cf8
    2a9e:	e9dd 2317 	ldrd	r2, r3, [sp, #92]	; 0x5c
    2aa2:	f2c0 0104 	movt	r1, #4
    2aa6:	f2c0 0004 	movt	r0, #4
    2aaa:	f00d f90d 	bl	fcc8 <DiagPrintf>
    2aae:	f645 52a0 	movw	r2, #23968	; 0x5da0
    2ab2:	f241 3345 	movw	r3, #4933	; 0x1345
    2ab6:	9918      	ldr	r1, [sp, #96]	; 0x60
    2ab8:	f2c0 0204 	movt	r2, #4
    2abc:	9817      	ldr	r0, [sp, #92]	; 0x5c
    2abe:	f2c0 0300 	movt	r3, #0
    2ac2:	4798      	blx	r3
    2ac4:	e593      	b.n	25ee <CRYPTO_ProcessAD+0x2a6>
    2ac6:	f645 41e0 	movw	r1, #23776	; 0x5ce0
    2aca:	f645 40f8 	movw	r0, #23800	; 0x5cf8
    2ace:	f244 6280 	movw	r2, #18048	; 0x4680
    2ad2:	f8da 3050 	ldr.w	r3, [sl, #80]	; 0x50
    2ad6:	f2c0 0104 	movt	r1, #4
    2ada:	f2c0 0004 	movt	r0, #4
    2ade:	f2c2 0200 	movt	r2, #8192	; 0x2000
    2ae2:	f00d f8f1 	bl	fcc8 <DiagPrintf>
    2ae6:	f645 52a8 	movw	r2, #23976	; 0x5da8
    2aea:	f241 3345 	movw	r3, #4933	; 0x1345
    2aee:	f244 6080 	movw	r0, #18048	; 0x4680
    2af2:	f2c0 0204 	movt	r2, #4
    2af6:	f8da 1050 	ldr.w	r1, [sl, #80]	; 0x50
    2afa:	f2c0 0300 	movt	r3, #0
    2afe:	f2c2 0000 	movt	r0, #8192	; 0x2000
    2b02:	4798      	blx	r3
    2b04:	e59b      	b.n	263e <CRYPTO_ProcessAD+0x2f6>
    2b06:	f8d9 3000 	ldr.w	r3, [r9]
    2b0a:	0499      	lsls	r1, r3, #18
    2b0c:	f57f ae72 	bpl.w	27f4 <CRYPTO_ProcessAD+0x4ac>
    2b10:	f645 6008 	movw	r0, #24072	; 0x5e08
    2b14:	f2c0 0004 	movt	r0, #4
    2b18:	f00d f8d6 	bl	fcc8 <DiagPrintf>
    2b1c:	f04f 30ff 	mov.w	r0, #4294967295
    2b20:	e63b      	b.n	279a <CRYPTO_ProcessAD+0x452>
    2b22:	2200      	movs	r2, #0
    2b24:	f8c3 2084 	str.w	r2, [r3, #132]	; 0x84
    2b28:	f3bf 8f4f 	dsb	sy
    2b2c:	f8d3 2080 	ldr.w	r2, [r3, #128]	; 0x80
    2b30:	f3c2 3c4e 	ubfx	ip, r2, #13, #15
    2b34:	f3c2 0ec9 	ubfx	lr, r2, #3, #10
    2b38:	ea4f 1c4c 	mov.w	ip, ip, lsl #5
    2b3c:	f643 74e0 	movw	r4, #16352	; 0x3fe0
    2b40:	4672      	mov	r2, lr
    2b42:	ea0c 0404 	and.w	r4, ip, r4
    2b46:	ea44 7182 	orr.w	r1, r4, r2, lsl #30
    2b4a:	3a01      	subs	r2, #1
    2b4c:	f8c3 1274 	str.w	r1, [r3, #628]	; 0x274
    2b50:	d2f9      	bcs.n	2b46 <CRYPTO_ProcessAD+0x7fe>
    2b52:	f1ac 0c20 	sub.w	ip, ip, #32
    2b56:	f11c 0f20 	cmn.w	ip, #32
    2b5a:	d1ef      	bne.n	2b3c <CRYPTO_ProcessAD+0x7f4>
    2b5c:	e4a5      	b.n	24aa <CRYPTO_ProcessAD+0x162>
    2b5e:	9b1a      	ldr	r3, [sp, #104]	; 0x68
    2b60:	2b00      	cmp	r3, #0
    2b62:	f43f acaa 	beq.w	24ba <CRYPTO_ProcessAD+0x172>
    2b66:	2010      	movs	r0, #16
    2b68:	f2c7 0000 	movt	r0, #28672	; 0x7000
    2b6c:	e6a0      	b.n	28b0 <CRYPTO_ProcessAD+0x568>
    2b6e:	9b03      	ldr	r3, [sp, #12]
    2b70:	9919      	ldr	r1, [sp, #100]	; 0x64
    2b72:	e485      	b.n	2480 <CRYPTO_ProcessAD+0x138>
    2b74:	9b1a      	ldr	r3, [sp, #104]	; 0x68
    2b76:	9a1a      	ldr	r2, [sp, #104]	; 0x68
    2b78:	330f      	adds	r3, #15
    2b7a:	f022 021f 	bic.w	r2, r2, #31
    2b7e:	f023 031f 	bic.w	r3, r3, #31
    2b82:	3320      	adds	r3, #32
    2b84:	1a9b      	subs	r3, r3, r2
    2b86:	f3bf 8f4f 	dsb	sy
    2b8a:	2b00      	cmp	r3, #0
    2b8c:	f73f ae9f 	bgt.w	28ce <CRYPTO_ProcessAD+0x586>
    2b90:	e6ae      	b.n	28f0 <CRYPTO_ProcessAD+0x5a8>
    2b92:	4642      	mov	r2, r8
    2b94:	9919      	ldr	r1, [sp, #100]	; 0x64
    2b96:	f7fe fcb1 	bl	14fc <CRYPTO_SetDstDesc>
    2b9a:	e686      	b.n	28aa <CRYPTO_ProcessAD+0x562>
    2b9c:	f44f 446d 	mov.w	r4, #60672	; 0xed00
    2ba0:	2300      	movs	r3, #0
    2ba2:	f2ce 0400 	movt	r4, #57344	; 0xe000
    2ba6:	f8c4 3084 	str.w	r3, [r4, #132]	; 0x84
    2baa:	f3bf 8f4f 	dsb	sy
    2bae:	f8d4 3080 	ldr.w	r3, [r4, #128]	; 0x80
    2bb2:	f3c3 3c4e 	ubfx	ip, r3, #13, #15
    2bb6:	f3c3 0ec9 	ubfx	lr, r3, #3, #10
    2bba:	ea4f 1c4c 	mov.w	ip, ip, lsl #5
    2bbe:	f643 71e0 	movw	r1, #16352	; 0x3fe0
    2bc2:	4673      	mov	r3, lr
    2bc4:	ea0c 0101 	and.w	r1, ip, r1
    2bc8:	ea41 7283 	orr.w	r2, r1, r3, lsl #30
    2bcc:	3b01      	subs	r3, #1
    2bce:	f8c4 2274 	str.w	r2, [r4, #628]	; 0x274
    2bd2:	d2f9      	bcs.n	2bc8 <CRYPTO_ProcessAD+0x880>
    2bd4:	f1ac 0c20 	sub.w	ip, ip, #32
    2bd8:	f11c 0f20 	cmn.w	ip, #32
    2bdc:	d1ef      	bne.n	2bbe <CRYPTO_ProcessAD+0x876>
    2bde:	e658      	b.n	2892 <CRYPTO_ProcessAD+0x54a>
    2be0:	462b      	mov	r3, r5
    2be2:	9919      	ldr	r1, [sp, #100]	; 0x64
    2be4:	e640      	b.n	2868 <CRYPTO_ProcessAD+0x520>
    2be6:	2320      	movs	r3, #32
    2be8:	461a      	mov	r2, r3
    2bea:	9303      	str	r3, [sp, #12]
    2bec:	e6b9      	b.n	2962 <CRYPTO_ProcessAD+0x61a>
    2bee:	bf00      	nop

00002bf0 <CRYPTO_SendSeqBuf>:
    2bf0:	e92d 4ff0 	stmdb	sp!, {r4, r5, r6, r7, r8, r9, sl, fp, lr}
    2bf4:	f244 14e0 	movw	r4, #16864	; 0x41e0
    2bf8:	f891 3049 	ldrb.w	r3, [r1, #73]	; 0x49
    2bfc:	b089      	sub	sp, #36	; 0x24
    2bfe:	4688      	mov	r8, r1
    2c00:	f2c2 0400 	movt	r4, #8192	; 0x2000
    2c04:	2b30      	cmp	r3, #48	; 0x30
    2c06:	9007      	str	r0, [sp, #28]
    2c08:	f8d4 729c 	ldr.w	r7, [r4, #668]	; 0x29c
    2c0c:	f894 52a0 	ldrb.w	r5, [r4, #672]	; 0x2a0
    2c10:	d01e      	beq.n	2c50 <CRYPTO_SendSeqBuf+0x60>
    2c12:	2b40      	cmp	r3, #64	; 0x40
    2c14:	d01c      	beq.n	2c50 <CRYPTO_SendSeqBuf+0x60>
    2c16:	2640      	movs	r6, #64	; 0x40
    2c18:	f505 70d4 	add.w	r0, r5, #424	; 0x1a8
    2c1c:	f244 4940 	movw	r9, #17472	; 0x4440
    2c20:	1b75      	subs	r5, r6, r5
    2c22:	f8d4 1298 	ldr.w	r1, [r4, #664]	; 0x298
    2c26:	f2c2 0900 	movt	r9, #8192	; 0x2000
    2c2a:	42af      	cmp	r7, r5
    2c2c:	4448      	add	r0, r9
    2c2e:	da11      	bge.n	2c54 <CRYPTO_SendSeqBuf+0x64>
    2c30:	f241 3389 	movw	r3, #5001	; 0x1389
    2c34:	463a      	mov	r2, r7
    2c36:	f2c0 0301 	movt	r3, #1
    2c3a:	4798      	blx	r3
    2c3c:	f894 22a0 	ldrb.w	r2, [r4, #672]	; 0x2a0
    2c40:	2300      	movs	r3, #0
    2c42:	4417      	add	r7, r2
    2c44:	f884 72a0 	strb.w	r7, [r4, #672]	; 0x2a0
    2c48:	4618      	mov	r0, r3
    2c4a:	b009      	add	sp, #36	; 0x24
    2c4c:	e8bd 8ff0 	ldmia.w	sp!, {r4, r5, r6, r7, r8, r9, sl, fp, pc}
    2c50:	2680      	movs	r6, #128	; 0x80
    2c52:	e7e1      	b.n	2c18 <CRYPTO_SendSeqBuf+0x28>
    2c54:	f241 3b89 	movw	fp, #5001	; 0x1389
    2c58:	462a      	mov	r2, r5
    2c5a:	f242 3a49 	movw	sl, #9033	; 0x2349
    2c5e:	f2c0 0b01 	movt	fp, #1
    2c62:	47d8      	blx	fp
    2c64:	9b07      	ldr	r3, [sp, #28]
    2c66:	f244 51e8 	movw	r1, #17896	; 0x45e8
    2c6a:	f2c0 0a00 	movt	sl, #0
    2c6e:	9303      	str	r3, [sp, #12]
    2c70:	2300      	movs	r3, #0
    2c72:	4632      	mov	r2, r6
    2c74:	f2c2 0100 	movt	r1, #8192	; 0x2000
    2c78:	9304      	str	r3, [sp, #16]
    2c7a:	4648      	mov	r0, r9
    2c7c:	9300      	str	r3, [sp, #0]
    2c7e:	f8cd 8014 	str.w	r8, [sp, #20]
    2c82:	e9cd 3301 	strd	r3, r3, [sp, #4]
    2c86:	47d0      	blx	sl
    2c88:	4603      	mov	r3, r0
    2c8a:	2800      	cmp	r0, #0
    2c8c:	d1dc      	bne.n	2c48 <CRYPTO_SendSeqBuf+0x58>
    2c8e:	1b7f      	subs	r7, r7, r5
    2c90:	3e01      	subs	r6, #1
    2c92:	f8d4 1298 	ldr.w	r1, [r4, #664]	; 0x298
    2c96:	f884 02a0 	strb.w	r0, [r4, #672]	; 0x2a0
    2c9a:	4429      	add	r1, r5
    2c9c:	ea27 0506 	bic.w	r5, r7, r6
    2ca0:	f8c4 729c 	str.w	r7, [r4, #668]	; 0x29c
    2ca4:	403e      	ands	r6, r7
    2ca6:	2d00      	cmp	r5, #0
    2ca8:	f8c4 1298 	str.w	r1, [r4, #664]	; 0x298
    2cac:	dc06      	bgt.n	2cbc <CRYPTO_SendSeqBuf+0xcc>
    2cae:	b9d6      	cbnz	r6, 2ce6 <CRYPTO_SendSeqBuf+0xf6>
    2cb0:	4618      	mov	r0, r3
    2cb2:	f884 62a0 	strb.w	r6, [r4, #672]	; 0x2a0
    2cb6:	b009      	add	sp, #36	; 0x24
    2cb8:	e8bd 8ff0 	ldmia.w	sp!, {r4, r5, r6, r7, r8, r9, sl, fp, pc}
    2cbc:	9a07      	ldr	r2, [sp, #28]
    2cbe:	4648      	mov	r0, r9
    2cc0:	f8cd 8014 	str.w	r8, [sp, #20]
    2cc4:	9203      	str	r2, [sp, #12]
    2cc6:	462a      	mov	r2, r5
    2cc8:	9304      	str	r3, [sp, #16]
    2cca:	9300      	str	r3, [sp, #0]
    2ccc:	9307      	str	r3, [sp, #28]
    2cce:	e9cd 3301 	strd	r3, r3, [sp, #4]
    2cd2:	47d0      	blx	sl
    2cd4:	b990      	cbnz	r0, 2cfc <CRYPTO_SendSeqBuf+0x10c>
    2cd6:	f8d4 2298 	ldr.w	r2, [r4, #664]	; 0x298
    2cda:	9b07      	ldr	r3, [sp, #28]
    2cdc:	442a      	add	r2, r5
    2cde:	f8c4 2298 	str.w	r2, [r4, #664]	; 0x298
    2ce2:	2e00      	cmp	r6, #0
    2ce4:	d0e4      	beq.n	2cb0 <CRYPTO_SendSeqBuf+0xc0>
    2ce6:	f244 50e8 	movw	r0, #17896	; 0x45e8
    2cea:	4632      	mov	r2, r6
    2cec:	f8d4 1298 	ldr.w	r1, [r4, #664]	; 0x298
    2cf0:	f2c2 0000 	movt	r0, #8192	; 0x2000
    2cf4:	9307      	str	r3, [sp, #28]
    2cf6:	47d8      	blx	fp
    2cf8:	9b07      	ldr	r3, [sp, #28]
    2cfa:	e7d9      	b.n	2cb0 <CRYPTO_SendSeqBuf+0xc0>
    2cfc:	4603      	mov	r3, r0
    2cfe:	e7a3      	b.n	2c48 <CRYPTO_SendSeqBuf+0x58>

00002d00 <CRYPTO_CipherInit>:
    2d00:	b530      	push	{r4, r5, lr}
    2d02:	2400      	movs	r4, #0
    2d04:	b085      	sub	sp, #20
    2d06:	461d      	mov	r5, r3
    2d08:	4613      	mov	r3, r2
    2d0a:	f04f 32ff 	mov.w	r2, #4294967295
    2d0e:	9500      	str	r5, [sp, #0]
    2d10:	e9cd 4401 	strd	r4, r4, [sp, #4]
    2d14:	f641 6449 	movw	r4, #7753	; 0x1e49
    2d18:	f2c0 0400 	movt	r4, #0
    2d1c:	47a0      	blx	r4
    2d1e:	b005      	add	sp, #20
    2d20:	bd30      	pop	{r4, r5, pc}
    2d22:	bf00      	nop

00002d24 <CRYPTO_CipherEncryptAD>:
    2d24:	b530      	push	{r4, r5, lr}
    2d26:	2400      	movs	r4, #0
    2d28:	b087      	sub	sp, #28
    2d2a:	7244      	strb	r4, [r0, #9]
    2d2c:	9405      	str	r4, [sp, #20]
    2d2e:	6844      	ldr	r4, [r0, #4]
    2d30:	9d0b      	ldr	r5, [sp, #44]	; 0x2c
    2d32:	f044 0480 	orr.w	r4, r4, #128	; 0x80
    2d36:	6044      	str	r4, [r0, #4]
    2d38:	9501      	str	r5, [sp, #4]
    2d3a:	9d0c      	ldr	r5, [sp, #48]	; 0x30
    2d3c:	9c0a      	ldr	r4, [sp, #40]	; 0x28
    2d3e:	9502      	str	r5, [sp, #8]
    2d40:	9d0d      	ldr	r5, [sp, #52]	; 0x34
    2d42:	9400      	str	r4, [sp, #0]
    2d44:	f242 3449 	movw	r4, #9033	; 0x2349
    2d48:	9503      	str	r5, [sp, #12]
    2d4a:	9d0e      	ldr	r5, [sp, #56]	; 0x38
    2d4c:	f2c0 0400 	movt	r4, #0
    2d50:	9504      	str	r5, [sp, #16]
    2d52:	47a0      	blx	r4
    2d54:	b007      	add	sp, #28
    2d56:	bd30      	pop	{r4, r5, pc}

00002d58 <CRYPTO_CipherDecryptAD>:
    2d58:	b510      	push	{r4, lr}
    2d5a:	b086      	sub	sp, #24
    2d5c:	9c08      	ldr	r4, [sp, #32]
    2d5e:	9400      	str	r4, [sp, #0]
    2d60:	6844      	ldr	r4, [r0, #4]
    2d62:	f084 0480 	eor.w	r4, r4, #128	; 0x80
    2d66:	6044      	str	r4, [r0, #4]
    2d68:	9c09      	ldr	r4, [sp, #36]	; 0x24
    2d6a:	9401      	str	r4, [sp, #4]
    2d6c:	9c0a      	ldr	r4, [sp, #40]	; 0x28
    2d6e:	9402      	str	r4, [sp, #8]
    2d70:	9c0b      	ldr	r4, [sp, #44]	; 0x2c
    2d72:	9403      	str	r4, [sp, #12]
    2d74:	9c0c      	ldr	r4, [sp, #48]	; 0x30
    2d76:	9404      	str	r4, [sp, #16]
    2d78:	2401      	movs	r4, #1
    2d7a:	7244      	strb	r4, [r0, #9]
    2d7c:	2400      	movs	r4, #0
    2d7e:	9405      	str	r4, [sp, #20]
    2d80:	f242 3449 	movw	r4, #9033	; 0x2349
    2d84:	f2c0 0400 	movt	r4, #0
    2d88:	47a0      	blx	r4
    2d8a:	b006      	add	sp, #24
    2d8c:	bd10      	pop	{r4, pc}
    2d8e:	bf00      	nop

00002d90 <SBOOT_SwapData>:
    2d90:	b152      	cbz	r2, 2da8 <SBOOT_SwapData+0x18>
    2d92:	3a01      	subs	r2, #1
    2d94:	1e43      	subs	r3, r0, #1
    2d96:	4411      	add	r1, r2
    2d98:	fa50 f082 	uxtab	r0, r0, r2
    2d9c:	f811 2901 	ldrb.w	r2, [r1], #-1
    2da0:	f803 2f01 	strb.w	r2, [r3, #1]!
    2da4:	4283      	cmp	r3, r0
    2da6:	d1f9      	bne.n	2d9c <SBOOT_SwapData+0xc>
    2da8:	4770      	bx	lr
    2daa:	bf00      	nop

00002dac <SBOOT_GetMdType>:
    2dac:	2803      	cmp	r0, #3
    2dae:	d039      	beq.n	2e24 <SBOOT_GetMdType+0x78>
    2db0:	d815      	bhi.n	2dde <SBOOT_GetMdType+0x32>
    2db2:	2801      	cmp	r0, #1
    2db4:	d024      	beq.n	2e00 <SBOOT_GetMdType+0x54>
    2db6:	2802      	cmp	r0, #2
    2db8:	d108      	bne.n	2dcc <SBOOT_GetMdType+0x20>
    2dba:	2000      	movs	r0, #0
    2dbc:	f04f 0c40 	mov.w	ip, #64	; 0x40
    2dc0:	4603      	mov	r3, r0
    2dc2:	f881 c000 	strb.w	ip, [r1]
    2dc6:	7010      	strb	r0, [r2, #0]
    2dc8:	4618      	mov	r0, r3
    2dca:	4770      	bx	lr
    2dcc:	b9a0      	cbnz	r0, 2df8 <SBOOT_GetMdType+0x4c>
    2dce:	f04f 0c20 	mov.w	ip, #32
    2dd2:	4603      	mov	r3, r0
    2dd4:	f881 c000 	strb.w	ip, [r1]
    2dd8:	7010      	strb	r0, [r2, #0]
    2dda:	4618      	mov	r0, r3
    2ddc:	4770      	bx	lr
    2dde:	2804      	cmp	r0, #4
    2de0:	d017      	beq.n	2e12 <SBOOT_GetMdType+0x66>
    2de2:	2805      	cmp	r0, #5
    2de4:	d108      	bne.n	2df8 <SBOOT_GetMdType+0x4c>
    2de6:	f04f 0c40 	mov.w	ip, #64	; 0x40
    2dea:	2001      	movs	r0, #1
    2dec:	2300      	movs	r3, #0
    2dee:	f881 c000 	strb.w	ip, [r1]
    2df2:	7010      	strb	r0, [r2, #0]
    2df4:	4618      	mov	r0, r3
    2df6:	4770      	bx	lr
    2df8:	f06f 0305 	mvn.w	r3, #5
    2dfc:	4618      	mov	r0, r3
    2dfe:	4770      	bx	lr
    2e00:	2000      	movs	r0, #0
    2e02:	f04f 0c30 	mov.w	ip, #48	; 0x30
    2e06:	4603      	mov	r3, r0
    2e08:	f881 c000 	strb.w	ip, [r1]
    2e0c:	7010      	strb	r0, [r2, #0]
    2e0e:	4618      	mov	r0, r3
    2e10:	4770      	bx	lr
    2e12:	f04f 0c30 	mov.w	ip, #48	; 0x30
    2e16:	2001      	movs	r0, #1
    2e18:	2300      	movs	r3, #0
    2e1a:	f881 c000 	strb.w	ip, [r1]
    2e1e:	7010      	strb	r0, [r2, #0]
    2e20:	4618      	mov	r0, r3
    2e22:	4770      	bx	lr
    2e24:	f04f 0c20 	mov.w	ip, #32
    2e28:	2001      	movs	r0, #1
    2e2a:	2300      	movs	r3, #0
    2e2c:	f881 c000 	strb.w	ip, [r1]
    2e30:	7010      	strb	r0, [r2, #0]
    2e32:	4618      	mov	r0, r3
    2e34:	4770      	bx	lr
    2e36:	bf00      	nop

00002e38 <SBOOT_EDDSA_Verify_SW>:
    2e38:	b510      	push	{r4, lr}
    2e3a:	4604      	mov	r4, r0
    2e3c:	b082      	sub	sp, #8
    2e3e:	4618      	mov	r0, r3
    2e40:	2300      	movs	r3, #0
    2e42:	9400      	str	r4, [sp, #0]
    2e44:	f002 fd74 	bl	5930 <boot_rom_ed25519_verify_signature>
    2e48:	2800      	cmp	r0, #0
    2e4a:	bf18      	it	ne
    2e4c:	f06f 0002 	mvnne.w	r0, #2
    2e50:	b002      	add	sp, #8
    2e52:	bd10      	pop	{r4, pc}

00002e54 <SBOOT_ECDSA_Verify_HW>:
    2e54:	e92d 43f0 	stmdb	sp!, {r4, r5, r6, r7, r8, r9, lr}
    2e58:	b0bd      	sub	sp, #244	; 0xf4
    2e5a:	4606      	mov	r6, r0
    2e5c:	461f      	mov	r7, r3
    2e5e:	f243 43fd 	movw	r3, #13565	; 0x34fd
    2e62:	9008      	str	r0, [sp, #32]
    2e64:	f44f 4070 	mov.w	r0, #61440	; 0xf000
    2e68:	4615      	mov	r5, r2
    2e6a:	2200      	movs	r2, #0
    2e6c:	4688      	mov	r8, r1
    2e6e:	f2c5 0011 	movt	r0, #20497	; 0x5011
    2e72:	f2c0 0300 	movt	r3, #0
    2e76:	a908      	add	r1, sp, #32
    2e78:	f8dd 9114 	ldr.w	r9, [sp, #276]	; 0x114
    2e7c:	f88d 201f 	strb.w	r2, [sp, #31]
    2e80:	4798      	blx	r3
    2e82:	2800      	cmp	r0, #0
    2e84:	d16b      	bne.n	2f5e <SBOOT_ECDSA_Verify_HW+0x10a>
    2e86:	9c0a      	ldr	r4, [sp, #40]	; 0x28
    2e88:	4629      	mov	r1, r5
    2e8a:	a81c      	add	r0, sp, #112	; 0x70
    2e8c:	3407      	adds	r4, #7
    2e8e:	f3c4 02c7 	ubfx	r2, r4, #3, #8
    2e92:	08e4      	lsrs	r4, r4, #3
    2e94:	9205      	str	r2, [sp, #20]
    2e96:	f7ff ff7b 	bl	2d90 <SBOOT_SwapData>
    2e9a:	1929      	adds	r1, r5, r4
    2e9c:	9a05      	ldr	r2, [sp, #20]
    2e9e:	a824      	add	r0, sp, #144	; 0x90
    2ea0:	f7ff ff76 	bl	2d90 <SBOOT_SwapData>
    2ea4:	9a05      	ldr	r2, [sp, #20]
    2ea6:	4649      	mov	r1, r9
    2ea8:	a80c      	add	r0, sp, #48	; 0x30
    2eaa:	f7ff ff71 	bl	2d90 <SBOOT_SwapData>
    2eae:	eb09 0104 	add.w	r1, r9, r4
    2eb2:	9a05      	ldr	r2, [sp, #20]
    2eb4:	a814      	add	r0, sp, #80	; 0x50
    2eb6:	f7ff ff6b 	bl	2d90 <SBOOT_SwapData>
    2eba:	4640      	mov	r0, r8
    2ebc:	f10d 021f 	add.w	r2, sp, #31
    2ec0:	f10d 011e 	add.w	r1, sp, #30
    2ec4:	f7ff ff72 	bl	2dac <SBOOT_GetMdType>
    2ec8:	4604      	mov	r4, r0
    2eca:	2800      	cmp	r0, #0
    2ecc:	d136      	bne.n	2f3c <SBOOT_ECDSA_Verify_HW+0xe8>
    2ece:	f89d 301f 	ldrb.w	r3, [sp, #31]
    2ed2:	2b00      	cmp	r3, #0
    2ed4:	d036      	beq.n	2f44 <SBOOT_ECDSA_Verify_HW+0xf0>
    2ed6:	2101      	movs	r1, #1
    2ed8:	f242 08e9 	movw	r8, #8425	; 0x20e9
    2edc:	ad2c      	add	r5, sp, #176	; 0xb0
    2ede:	4608      	mov	r0, r1
    2ee0:	f2c0 0800 	movt	r8, #0
    2ee4:	47c0      	blx	r8
    2ee6:	4639      	mov	r1, r7
    2ee8:	2320      	movs	r3, #32
    2eea:	f245 175d 	movw	r7, #20829	; 0x515d
    2eee:	9a44      	ldr	r2, [sp, #272]	; 0x110
    2ef0:	9300      	str	r3, [sp, #0]
    2ef2:	f2c0 0700 	movt	r7, #0
    2ef6:	4623      	mov	r3, r4
    2ef8:	f89d 001e 	ldrb.w	r0, [sp, #30]
    2efc:	9501      	str	r5, [sp, #4]
    2efe:	47b8      	blx	r7
    2f00:	4621      	mov	r1, r4
    2f02:	4604      	mov	r4, r0
    2f04:	2001      	movs	r0, #1
    2f06:	47c0      	blx	r8
    2f08:	bb64      	cbnz	r4, 2f64 <SBOOT_ECDSA_Verify_HW+0x110>
    2f0a:	ac24      	add	r4, sp, #144	; 0x90
    2f0c:	ab14      	add	r3, sp, #80	; 0x50
    2f0e:	f44f 4070 	mov.w	r0, #61440	; 0xf000
    2f12:	462a      	mov	r2, r5
    2f14:	9401      	str	r4, [sp, #4]
    2f16:	ac1c      	add	r4, sp, #112	; 0x70
    2f18:	9303      	str	r3, [sp, #12]
    2f1a:	ab0c      	add	r3, sp, #48	; 0x30
    2f1c:	9400      	str	r4, [sp, #0]
    2f1e:	f643 0489 	movw	r4, #14473	; 0x3889
    2f22:	9302      	str	r3, [sp, #8]
    2f24:	4631      	mov	r1, r6
    2f26:	f2c0 0400 	movt	r4, #0
    2f2a:	f89d 301e 	ldrb.w	r3, [sp, #30]
    2f2e:	f2c5 0011 	movt	r0, #20497	; 0x5011
    2f32:	47a0      	blx	r4
    2f34:	1e04      	subs	r4, r0, #0
    2f36:	bf18      	it	ne
    2f38:	f06f 0402 	mvnne.w	r4, #2
    2f3c:	4620      	mov	r0, r4
    2f3e:	b03d      	add	sp, #244	; 0xf4
    2f40:	e8bd 83f0 	ldmia.w	sp!, {r4, r5, r6, r7, r8, r9, pc}
    2f44:	ad2c      	add	r5, sp, #176	; 0xb0
    2f46:	f644 1491 	movw	r4, #18833	; 0x4991
    2f4a:	4639      	mov	r1, r7
    2f4c:	9a44      	ldr	r2, [sp, #272]	; 0x110
    2f4e:	f2c0 0400 	movt	r4, #0
    2f52:	462b      	mov	r3, r5
    2f54:	f89d 001e 	ldrb.w	r0, [sp, #30]
    2f58:	47a0      	blx	r4
    2f5a:	4604      	mov	r4, r0
    2f5c:	e7d4      	b.n	2f08 <SBOOT_ECDSA_Verify_HW+0xb4>
    2f5e:	f06f 0403 	mvn.w	r4, #3
    2f62:	e7eb      	b.n	2f3c <SBOOT_ECDSA_Verify_HW+0xe8>
    2f64:	f06f 0409 	mvn.w	r4, #9
    2f68:	e7e8      	b.n	2f3c <SBOOT_ECDSA_Verify_HW+0xe8>
    2f6a:	bf00      	nop

00002f6c <SBOOT_Validate_Algorithm>:
    2f6c:	f44f 7c40 	mov.w	ip, #768	; 0x300
    2f70:	f2c4 1c00 	movt	ip, #16640	; 0x4100
    2f74:	b500      	push	{lr}
    2f76:	f89c c06b 	ldrb.w	ip, [ip, #107]	; 0x6b
    2f7a:	f00c 0e0f 	and.w	lr, ip, #15
    2f7e:	fa5f fc8c 	uxtb.w	ip, ip
    2f82:	f1be 0f0f 	cmp.w	lr, #15
    2f86:	d001      	beq.n	2f8c <SBOOT_Validate_Algorithm+0x20>
    2f88:	4596      	cmp	lr, r2
    2f8a:	d10b      	bne.n	2fa4 <SBOOT_Validate_Algorithm+0x38>
    2f8c:	ea4f 1c1c 	mov.w	ip, ip, lsr #4
    2f90:	7002      	strb	r2, [r0, #0]
    2f92:	f1bc 0f0f 	cmp.w	ip, #15
    2f96:	d001      	beq.n	2f9c <SBOOT_Validate_Algorithm+0x30>
    2f98:	459c      	cmp	ip, r3
    2f9a:	d106      	bne.n	2faa <SBOOT_Validate_Algorithm+0x3e>
    2f9c:	2000      	movs	r0, #0
    2f9e:	700b      	strb	r3, [r1, #0]
    2fa0:	f85d fb04 	ldr.w	pc, [sp], #4
    2fa4:	f06f 000b 	mvn.w	r0, #11
    2fa8:	e7fa      	b.n	2fa0 <SBOOT_Validate_Algorithm+0x34>
    2faa:	f06f 000c 	mvn.w	r0, #12
    2fae:	e7f7      	b.n	2fa0 <SBOOT_Validate_Algorithm+0x34>

00002fb0 <SBOOT_Validate_Signature>:
    2fb0:	b570      	push	{r4, r5, r6, lr}
    2fb2:	e9dd 5604 	ldrd	r5, r6, [sp, #16]
    2fb6:	b198      	cbz	r0, 2fe0 <SBOOT_Validate_Signature+0x30>
    2fb8:	f100 3cff 	add.w	ip, r0, #4294967295
    2fbc:	fa5f fc8c 	uxtb.w	ip, ip
    2fc0:	f1bc 0f0b 	cmp.w	ip, #11
    2fc4:	d816      	bhi.n	2ff4 <SBOOT_Validate_Signature+0x44>
    2fc6:	f640 7427 	movw	r4, #3879	; 0xf27
    2fca:	fa24 fc0c 	lsr.w	ip, r4, ip
    2fce:	f01c 0f01 	tst.w	ip, #1
    2fd2:	d00f      	beq.n	2ff4 <SBOOT_Validate_Signature+0x44>
    2fd4:	e9cd 5604 	strd	r5, r6, [sp, #16]
    2fd8:	e8bd 4070 	ldmia.w	sp!, {r4, r5, r6, lr}
    2fdc:	f7ff bf3a 	b.w	2e54 <SBOOT_ECDSA_Verify_HW>
    2fe0:	4696      	mov	lr, r2
    2fe2:	461c      	mov	r4, r3
    2fe4:	462a      	mov	r2, r5
    2fe6:	4633      	mov	r3, r6
    2fe8:	4621      	mov	r1, r4
    2fea:	4670      	mov	r0, lr
    2fec:	e8bd 4070 	ldmia.w	sp!, {r4, r5, r6, lr}
    2ff0:	f7ff bf22 	b.w	2e38 <SBOOT_EDDSA_Verify_SW>
    2ff4:	f04f 30ff 	mov.w	r0, #4294967295
    2ff8:	bd70      	pop	{r4, r5, r6, pc}
    2ffa:	bf00      	nop

00002ffc <SBOOT_Validate_PubKey>:
    2ffc:	b530      	push	{r4, r5, lr}
    2ffe:	460d      	mov	r5, r1
    3000:	b08d      	sub	sp, #52	; 0x34
    3002:	4614      	mov	r4, r2
    3004:	2800      	cmp	r0, #0
    3006:	d049      	beq.n	309c <SBOOT_Validate_PubKey+0xa0>
    3008:	1e42      	subs	r2, r0, #1
    300a:	4603      	mov	r3, r0
    300c:	b2d2      	uxtb	r2, r2
    300e:	2a0b      	cmp	r2, #11
    3010:	d83f      	bhi.n	3092 <SBOOT_Validate_PubKey+0x96>
    3012:	f640 7127 	movw	r1, #3879	; 0xf27
    3016:	fa21 f202 	lsr.w	r2, r1, r2
    301a:	07d2      	lsls	r2, r2, #31
    301c:	d539      	bpl.n	3092 <SBOOT_Validate_PubKey+0x96>
    301e:	f44f 4070 	mov.w	r0, #61440	; 0xf000
    3022:	f243 42fd 	movw	r2, #13565	; 0x34fd
    3026:	4669      	mov	r1, sp
    3028:	9300      	str	r3, [sp, #0]
    302a:	f2c0 0200 	movt	r2, #0
    302e:	f2c5 0011 	movt	r0, #20497	; 0x5011
    3032:	4790      	blx	r2
    3034:	9b02      	ldr	r3, [sp, #8]
    3036:	1dda      	adds	r2, r3, #7
    3038:	08d2      	lsrs	r2, r2, #3
    303a:	0052      	lsls	r2, r2, #1
    303c:	4629      	mov	r1, r5
    303e:	f644 1591 	movw	r5, #18833	; 0x4991
    3042:	ab04      	add	r3, sp, #16
    3044:	2020      	movs	r0, #32
    3046:	f2c0 0500 	movt	r5, #0
    304a:	47a8      	blx	r5
    304c:	4605      	mov	r5, r0
    304e:	bb38      	cbnz	r0, 30a0 <SBOOT_Validate_PubKey+0xa4>
    3050:	f240 03f1 	movw	r3, #241	; 0xf1
    3054:	f2c0 0301 	movt	r3, #1
    3058:	4798      	blx	r3
    305a:	2120      	movs	r1, #32
    305c:	462a      	mov	r2, r5
    305e:	f000 031f 	and.w	r3, r0, #31
    3062:	a80c      	add	r0, sp, #48	; 0x30
    3064:	f814 c003 	ldrb.w	ip, [r4, r3]
    3068:	3901      	subs	r1, #1
    306a:	4418      	add	r0, r3
    306c:	3301      	adds	r3, #1
    306e:	f011 01ff 	ands.w	r1, r1, #255	; 0xff
    3072:	f810 ec20 	ldrb.w	lr, [r0, #-32]
    3076:	f003 031f 	and.w	r3, r3, #31
    307a:	ea8c 0c0e 	eor.w	ip, ip, lr
    307e:	ea42 020c 	orr.w	r2, r2, ip
    3082:	d1ee      	bne.n	3062 <SBOOT_Validate_PubKey+0x66>
    3084:	2a00      	cmp	r2, #0
    3086:	bf18      	it	ne
    3088:	f06f 0501 	mvnne.w	r5, #1
    308c:	4628      	mov	r0, r5
    308e:	b00d      	add	sp, #52	; 0x34
    3090:	bd30      	pop	{r4, r5, pc}
    3092:	f04f 35ff 	mov.w	r5, #4294967295
    3096:	4628      	mov	r0, r5
    3098:	b00d      	add	sp, #52	; 0x34
    309a:	bd30      	pop	{r4, r5, pc}
    309c:	2220      	movs	r2, #32
    309e:	e7cd      	b.n	303c <SBOOT_Validate_PubKey+0x40>
    30a0:	f06f 0507 	mvn.w	r5, #7
    30a4:	e7f7      	b.n	3096 <SBOOT_Validate_PubKey+0x9a>
    30a6:	bf00      	nop

000030a8 <SBOOT_Validate_ImgHash>:
    30a8:	e92d 43f0 	stmdb	sp!, {r4, r5, r6, r7, r8, r9, lr}
    30ac:	b0cb      	sub	sp, #300	; 0x12c
    30ae:	4605      	mov	r5, r0
    30b0:	460e      	mov	r6, r1
    30b2:	2100      	movs	r1, #0
    30b4:	4614      	mov	r4, r2
    30b6:	a812      	add	r0, sp, #72	; 0x48
    30b8:	22e0      	movs	r2, #224	; 0xe0
    30ba:	461f      	mov	r7, r3
    30bc:	f88d 1007 	strb.w	r1, [sp, #7]
    30c0:	f00e fbd2 	bl	11868 <__wrap_memset>
    30c4:	4628      	mov	r0, r5
    30c6:	f10d 0207 	add.w	r2, sp, #7
    30ca:	f10d 0106 	add.w	r1, sp, #6
    30ce:	f7ff fe6d 	bl	2dac <SBOOT_GetMdType>
    30d2:	4605      	mov	r5, r0
    30d4:	bb60      	cbnz	r0, 3130 <SBOOT_Validate_ImgHash+0x88>
    30d6:	f89d 3007 	ldrb.w	r3, [sp, #7]
    30da:	b36b      	cbz	r3, 3138 <SBOOT_Validate_ImgHash+0x90>
    30dc:	2101      	movs	r1, #1
    30de:	f242 08e9 	movw	r8, #8425	; 0x20e9
    30e2:	f644 4981 	movw	r9, #19585	; 0x4c81
    30e6:	4608      	mov	r0, r1
    30e8:	f2c0 0800 	movt	r8, #0
    30ec:	47c0      	blx	r8
    30ee:	f2c0 0900 	movt	r9, #0
    30f2:	ab12      	add	r3, sp, #72	; 0x48
    30f4:	2220      	movs	r2, #32
    30f6:	4629      	mov	r1, r5
    30f8:	f89d 0006 	ldrb.w	r0, [sp, #6]
    30fc:	47c8      	blx	r9
    30fe:	b9a8      	cbnz	r0, 312c <SBOOT_Validate_ImgHash+0x84>
    3100:	2f00      	cmp	r7, #0
    3102:	d06d      	beq.n	31e0 <SBOOT_Validate_ImgHash+0x138>
    3104:	3f01      	subs	r7, #1
    3106:	f104 0908 	add.w	r9, r4, #8
    310a:	b2ff      	uxtb	r7, r7
    310c:	eb09 09c7 	add.w	r9, r9, r7, lsl #3
    3110:	f245 076d 	movw	r7, #20589	; 0x506d
    3114:	f2c0 0700 	movt	r7, #0
    3118:	e001      	b.n	311e <SBOOT_Validate_ImgHash+0x76>
    311a:	45a1      	cmp	r9, r4
    311c:	d060      	beq.n	31e0 <SBOOT_Validate_ImgHash+0x138>
    311e:	3408      	adds	r4, #8
    3120:	aa12      	add	r2, sp, #72	; 0x48
    3122:	e954 0102 	ldrd	r0, r1, [r4, #-8]
    3126:	47b8      	blx	r7
    3128:	2800      	cmp	r0, #0
    312a:	d0f6      	beq.n	311a <SBOOT_Validate_ImgHash+0x72>
    312c:	f06f 050a 	mvn.w	r5, #10
    3130:	4628      	mov	r0, r5
    3132:	b04b      	add	sp, #300	; 0x12c
    3134:	e8bd 83f0 	ldmia.w	sp!, {r4, r5, r6, r7, r8, r9, pc}
    3138:	f244 531d 	movw	r3, #17693	; 0x451d
    313c:	a912      	add	r1, sp, #72	; 0x48
    313e:	f89d 0006 	ldrb.w	r0, [sp, #6]
    3142:	f2c0 0300 	movt	r3, #0
    3146:	4798      	blx	r3
    3148:	2800      	cmp	r0, #0
    314a:	d1ef      	bne.n	312c <SBOOT_Validate_ImgHash+0x84>
    314c:	b1a7      	cbz	r7, 3178 <SBOOT_Validate_ImgHash+0xd0>
    314e:	3f01      	subs	r7, #1
    3150:	f104 0808 	add.w	r8, r4, #8
    3154:	b2ff      	uxtb	r7, r7
    3156:	eb08 08c7 	add.w	r8, r8, r7, lsl #3
    315a:	f644 07a5 	movw	r7, #18597	; 0x48a5
    315e:	f2c0 0700 	movt	r7, #0
    3162:	e001      	b.n	3168 <SBOOT_Validate_ImgHash+0xc0>
    3164:	45a0      	cmp	r8, r4
    3166:	d007      	beq.n	3178 <SBOOT_Validate_ImgHash+0xd0>
    3168:	3408      	adds	r4, #8
    316a:	aa12      	add	r2, sp, #72	; 0x48
    316c:	e954 0102 	ldrd	r0, r1, [r4, #-8]
    3170:	47b8      	blx	r7
    3172:	2800      	cmp	r0, #0
    3174:	d0f6      	beq.n	3164 <SBOOT_Validate_ImgHash+0xbc>
    3176:	e7d9      	b.n	312c <SBOOT_Validate_ImgHash+0x84>
    3178:	ac02      	add	r4, sp, #8
    317a:	f644 1311 	movw	r3, #18705	; 0x4911
    317e:	a912      	add	r1, sp, #72	; 0x48
    3180:	f2c0 0300 	movt	r3, #0
    3184:	4620      	mov	r0, r4
    3186:	4798      	blx	r3
    3188:	2800      	cmp	r0, #0
    318a:	d1cf      	bne.n	312c <SBOOT_Validate_ImgHash+0x84>
    318c:	f240 03f1 	movw	r3, #241	; 0xf1
    3190:	f89d 7006 	ldrb.w	r7, [sp, #6]
    3194:	f2c0 0301 	movt	r3, #1
    3198:	4798      	blx	r3
    319a:	fbb0 f3f7 	udiv	r3, r0, r7
    319e:	fb03 0017 	mls	r0, r3, r7, r0
    31a2:	b2c0      	uxtb	r0, r0
    31a4:	2f00      	cmp	r7, #0
    31a6:	d0c3      	beq.n	3130 <SBOOT_Validate_ImgHash+0x88>
    31a8:	2100      	movs	r1, #0
    31aa:	468c      	mov	ip, r1
    31ac:	1c43      	adds	r3, r0, #1
    31ae:	5c32      	ldrb	r2, [r6, r0]
    31b0:	5c20      	ldrb	r0, [r4, r0]
    31b2:	3101      	adds	r1, #1
    31b4:	b2db      	uxtb	r3, r3
    31b6:	4042      	eors	r2, r0
    31b8:	fa5f fe81 	uxtb.w	lr, r1
    31bc:	fbb3 f0f7 	udiv	r0, r3, r7
    31c0:	4577      	cmp	r7, lr
    31c2:	fb07 3310 	mls	r3, r7, r0, r3
    31c6:	ea4c 0c02 	orr.w	ip, ip, r2
    31ca:	b2d8      	uxtb	r0, r3
    31cc:	d8ee      	bhi.n	31ac <SBOOT_Validate_ImgHash+0x104>
    31ce:	f1bc 0f00 	cmp.w	ip, #0
    31d2:	bf18      	it	ne
    31d4:	f06f 0506 	mvnne.w	r5, #6
    31d8:	4628      	mov	r0, r5
    31da:	b04b      	add	sp, #300	; 0x12c
    31dc:	e8bd 83f0 	ldmia.w	sp!, {r4, r5, r6, r7, r8, r9, pc}
    31e0:	ac02      	add	r4, sp, #8
    31e2:	f245 03d9 	movw	r3, #20697	; 0x50d9
    31e6:	a912      	add	r1, sp, #72	; 0x48
    31e8:	f2c0 0300 	movt	r3, #0
    31ec:	4620      	mov	r0, r4
    31ee:	4798      	blx	r3
    31f0:	4601      	mov	r1, r0
    31f2:	2800      	cmp	r0, #0
    31f4:	d19a      	bne.n	312c <SBOOT_Validate_ImgHash+0x84>
    31f6:	2001      	movs	r0, #1
    31f8:	47c0      	blx	r8
    31fa:	e7c7      	b.n	318c <SBOOT_Validate_ImgHash+0xe4>

000031fc <SBOOT_SignatureVerify>:
    31fc:	e92d 41f0 	stmdb	sp!, {r4, r5, r6, r7, r8, lr}
    3200:	460c      	mov	r4, r1
    3202:	f24d 35e5 	movw	r5, #54245	; 0xd3e5
    3206:	f44f 7100 	mov.w	r1, #512	; 0x200
    320a:	b084      	sub	sp, #16
    320c:	f2c0 0500 	movt	r5, #0
    3210:	4616      	mov	r6, r2
    3212:	4680      	mov	r8, r0
    3214:	2201      	movs	r2, #1
    3216:	4608      	mov	r0, r1
    3218:	461f      	mov	r7, r3
    321a:	47a8      	blx	r5
    321c:	2180      	movs	r1, #128	; 0x80
    321e:	2201      	movs	r2, #1
    3220:	4608      	mov	r0, r1
    3222:	47a8      	blx	r5
    3224:	f44f 3100 	mov.w	r1, #131072	; 0x20000
    3228:	2201      	movs	r2, #1
    322a:	4608      	mov	r0, r1
    322c:	47a8      	blx	r5
    322e:	f242 035d 	movw	r3, #8285	; 0x205d
    3232:	2000      	movs	r0, #0
    3234:	f2c0 0300 	movt	r3, #0
    3238:	4798      	blx	r3
    323a:	7ce3      	ldrb	r3, [r4, #19]
    323c:	7ca2      	ldrb	r2, [r4, #18]
    323e:	f10d 010f 	add.w	r1, sp, #15
    3242:	f10d 000e 	add.w	r0, sp, #14
    3246:	f7ff fe91 	bl	2f6c <SBOOT_Validate_Algorithm>
    324a:	b110      	cbz	r0, 3252 <SBOOT_SignatureVerify+0x56>
    324c:	b004      	add	sp, #16
    324e:	e8bd 81f0 	ldmia.w	sp!, {r4, r5, r6, r7, r8, pc}
    3252:	f24e 55a9 	movw	r5, #58793	; 0xe5a9
    3256:	f2c0 0500 	movt	r5, #0
    325a:	47a8      	blx	r5
    325c:	4642      	mov	r2, r8
    325e:	f104 0870 	add.w	r8, r4, #112	; 0x70
    3262:	f89d 000e 	ldrb.w	r0, [sp, #14]
    3266:	4641      	mov	r1, r8
    3268:	f7ff fec8 	bl	2ffc <SBOOT_Validate_PubKey>
    326c:	2800      	cmp	r0, #0
    326e:	d1ed      	bne.n	324c <SBOOT_SignatureVerify+0x50>
    3270:	47a8      	blx	r5
    3272:	f504 7380 	add.w	r3, r4, #256	; 0x100
    3276:	4642      	mov	r2, r8
    3278:	f89d 100f 	ldrb.w	r1, [sp, #15]
    327c:	9301      	str	r3, [sp, #4]
    327e:	f44f 7380 	mov.w	r3, #256	; 0x100
    3282:	f89d 000e 	ldrb.w	r0, [sp, #14]
    3286:	9300      	str	r3, [sp, #0]
    3288:	4623      	mov	r3, r4
    328a:	f7ff fe91 	bl	2fb0 <SBOOT_Validate_Signature>
    328e:	2800      	cmp	r0, #0
    3290:	d1dc      	bne.n	324c <SBOOT_SignatureVerify+0x50>
    3292:	47a8      	blx	r5
    3294:	463b      	mov	r3, r7
    3296:	4632      	mov	r2, r6
    3298:	f104 0130 	add.w	r1, r4, #48	; 0x30
    329c:	f89d 000f 	ldrb.w	r0, [sp, #15]
    32a0:	f7ff ff02 	bl	30a8 <SBOOT_Validate_ImgHash>
    32a4:	b004      	add	sp, #16
    32a6:	e8bd 81f0 	ldmia.w	sp!, {r4, r5, r6, r7, r8, pc}
    32aa:	bf00      	nop

000032ac <ECDSA_BufSub>:
    32ac:	b380      	cbz	r0, 3310 <ECDSA_BufSub+0x64>
    32ae:	eb01 0380 	add.w	r3, r1, r0, lsl #2
    32b2:	b570      	push	{r4, r5, r6, lr}
    32b4:	e001      	b.n	32ba <ECDSA_BufSub+0xe>
    32b6:	3801      	subs	r0, #1
    32b8:	d029      	beq.n	330e <ECDSA_BufSub+0x62>
    32ba:	f853 4d04 	ldr.w	r4, [r3, #-4]!
    32be:	2c00      	cmp	r4, #0
    32c0:	d0f9      	beq.n	32b6 <ECDSA_BufSub+0xa>
    32c2:	2300      	movs	r3, #0
    32c4:	f1a2 0c04 	sub.w	ip, r2, #4
    32c8:	469e      	mov	lr, r3
    32ca:	f85c 5f04 	ldr.w	r5, [ip, #4]!
    32ce:	f10e 0e01 	add.w	lr, lr, #1
    32d2:	1aec      	subs	r4, r5, r3
    32d4:	429d      	cmp	r5, r3
    32d6:	f8cc 4000 	str.w	r4, [ip]
    32da:	bf28      	it	cs
    32dc:	2300      	movcs	r3, #0
    32de:	f851 5b04 	ldr.w	r5, [r1], #4
    32e2:	bf38      	it	cc
    32e4:	2301      	movcc	r3, #1
    32e6:	1b66      	subs	r6, r4, r5
    32e8:	42ac      	cmp	r4, r5
    32ea:	bf38      	it	cc
    32ec:	3301      	addcc	r3, #1
    32ee:	4586      	cmp	lr, r0
    32f0:	f8cc 6000 	str.w	r6, [ip]
    32f4:	d1e9      	bne.n	32ca <ECDSA_BufSub+0x1e>
    32f6:	eb02 028e 	add.w	r2, r2, lr, lsl #2
    32fa:	b143      	cbz	r3, 330e <ECDSA_BufSub+0x62>
    32fc:	6810      	ldr	r0, [r2, #0]
    32fe:	4619      	mov	r1, r3
    3300:	1ac4      	subs	r4, r0, r3
    3302:	4288      	cmp	r0, r1
    3304:	f04f 0301 	mov.w	r3, #1
    3308:	f842 4b04 	str.w	r4, [r2], #4
    330c:	d3f6      	bcc.n	32fc <ECDSA_BufSub+0x50>
    330e:	bd70      	pop	{r4, r5, r6, pc}
    3310:	4770      	bx	lr
    3312:	bf00      	nop

00003314 <ECDSA_BufCmp>:
    3314:	2900      	cmp	r1, #0
    3316:	b430      	push	{r4, r5}
    3318:	dd08      	ble.n	332c <ECDSA_BufCmp+0x18>
    331a:	eb00 0381 	add.w	r3, r0, r1, lsl #2
    331e:	e001      	b.n	3324 <ECDSA_BufCmp+0x10>
    3320:	3901      	subs	r1, #1
    3322:	d003      	beq.n	332c <ECDSA_BufCmp+0x18>
    3324:	f853 4d04 	ldr.w	r4, [r3, #-4]!
    3328:	2c00      	cmp	r4, #0
    332a:	d0f9      	beq.n	3320 <ECDSA_BufCmp+0xc>
    332c:	f102 0420 	add.w	r4, r2, #32
    3330:	2308      	movs	r3, #8
    3332:	f854 5d04 	ldr.w	r5, [r4, #-4]!
    3336:	b915      	cbnz	r5, 333e <ECDSA_BufCmp+0x2a>
    3338:	3b01      	subs	r3, #1
    333a:	d1fa      	bne.n	3332 <ECDSA_BufCmp+0x1e>
    333c:	b199      	cbz	r1, 3366 <ECDSA_BufCmp+0x52>
    333e:	428b      	cmp	r3, r1
    3340:	db10      	blt.n	3364 <ECDSA_BufCmp+0x50>
    3342:	dc13      	bgt.n	336c <ECDSA_BufCmp+0x58>
    3344:	2900      	cmp	r1, #0
    3346:	dd16      	ble.n	3376 <ECDSA_BufCmp+0x62>
    3348:	eb00 0381 	add.w	r3, r0, r1, lsl #2
    334c:	eb02 0181 	add.w	r1, r2, r1, lsl #2
    3350:	e002      	b.n	3358 <ECDSA_BufCmp+0x44>
    3352:	d30b      	bcc.n	336c <ECDSA_BufCmp+0x58>
    3354:	4298      	cmp	r0, r3
    3356:	d00e      	beq.n	3376 <ECDSA_BufCmp+0x62>
    3358:	f853 4d04 	ldr.w	r4, [r3, #-4]!
    335c:	f851 2d04 	ldr.w	r2, [r1, #-4]!
    3360:	4294      	cmp	r4, r2
    3362:	d9f6      	bls.n	3352 <ECDSA_BufCmp+0x3e>
    3364:	2101      	movs	r1, #1
    3366:	4608      	mov	r0, r1
    3368:	bc30      	pop	{r4, r5}
    336a:	4770      	bx	lr
    336c:	f04f 31ff 	mov.w	r1, #4294967295
    3370:	bc30      	pop	{r4, r5}
    3372:	4608      	mov	r0, r1
    3374:	4770      	bx	lr
    3376:	2100      	movs	r1, #0
    3378:	e7f5      	b.n	3366 <ECDSA_BufCmp+0x52>
    337a:	bf00      	nop

0000337c <ECDSA_HashBuf_Setting>:
    337c:	e92d 4ff0 	stmdb	sp!, {r4, r5, r6, r7, r8, r9, sl, fp, lr}
    3380:	b083      	sub	sp, #12
    3382:	4693      	mov	fp, r2
    3384:	4682      	mov	sl, r0
    3386:	4688      	mov	r8, r1
    3388:	6842      	ldr	r2, [r0, #4]
    338a:	af00      	add	r7, sp, #0
    338c:	3207      	adds	r2, #7
    338e:	08d2      	lsrs	r2, r2, #3
    3390:	429a      	cmp	r2, r3
    3392:	bf28      	it	cs
    3394:	461a      	movcs	r2, r3
    3396:	4614      	mov	r4, r2
    3398:	2a00      	cmp	r2, #0
    339a:	f000 809f 	beq.w	34dc <ECDSA_HashBuf_Setting+0x160>
    339e:	f10b 33ff 	add.w	r3, fp, #4294967295
    33a2:	2600      	movs	r6, #0
    33a4:	e002      	b.n	33ac <ECDSA_HashBuf_Setting+0x30>
    33a6:	3601      	adds	r6, #1
    33a8:	42b4      	cmp	r4, r6
    33aa:	d003      	beq.n	33b4 <ECDSA_HashBuf_Setting+0x38>
    33ac:	f813 2f01 	ldrb.w	r2, [r3, #1]!
    33b0:	2a00      	cmp	r2, #0
    33b2:	d0f8      	beq.n	33a6 <ECDSA_HashBuf_Setting+0x2a>
    33b4:	1ba6      	subs	r6, r4, r6
    33b6:	2100      	movs	r1, #0
    33b8:	4640      	mov	r0, r8
    33ba:	f016 0303 	ands.w	r3, r6, #3
    33be:	bf18      	it	ne
    33c0:	2301      	movne	r3, #1
    33c2:	eb03 0396 	add.w	r3, r3, r6, lsr #2
    33c6:	ea4f 0983 	mov.w	r9, r3, lsl #2
    33ca:	607b      	str	r3, [r7, #4]
    33cc:	f241 5351 	movw	r3, #5457	; 0x1551
    33d0:	f109 0207 	add.w	r2, r9, #7
    33d4:	f2c0 0301 	movt	r3, #1
    33d8:	f022 0207 	bic.w	r2, r2, #7
    33dc:	603b      	str	r3, [r7, #0]
    33de:	ebad 0d02 	sub.w	sp, sp, r2
    33e2:	2220      	movs	r2, #32
    33e4:	4798      	blx	r3
    33e6:	464a      	mov	r2, r9
    33e8:	466d      	mov	r5, sp
    33ea:	2100      	movs	r1, #0
    33ec:	683b      	ldr	r3, [r7, #0]
    33ee:	4628      	mov	r0, r5
    33f0:	4798      	blx	r3
    33f2:	eb0b 0004 	add.w	r0, fp, r4
    33f6:	2200      	movs	r2, #0
    33f8:	ea4f 0cc2 	mov.w	ip, r2, lsl #3
    33fc:	f810 3d01 	ldrb.w	r3, [r0, #-1]!
    3400:	0891      	lsrs	r1, r2, #2
    3402:	3201      	adds	r2, #1
    3404:	f00c 0c18 	and.w	ip, ip, #24
    3408:	f855 6021 	ldr.w	r6, [r5, r1, lsl #2]
    340c:	4294      	cmp	r4, r2
    340e:	fa03 f30c 	lsl.w	r3, r3, ip
    3412:	ea43 0306 	orr.w	r3, r3, r6
    3416:	f845 3021 	str.w	r3, [r5, r1, lsl #2]
    341a:	d1ed      	bne.n	33f8 <ECDSA_HashBuf_Setting+0x7c>
    341c:	f8da 2004 	ldr.w	r2, [sl, #4]
    3420:	00e3      	lsls	r3, r4, #3
    3422:	ebb2 0fc4 	cmp.w	r2, r4, lsl #3
    3426:	d237      	bcs.n	3498 <ECDSA_HashBuf_Setting+0x11c>
    3428:	1a9b      	subs	r3, r3, r2
    342a:	2b1f      	cmp	r3, #31
    342c:	f003 011f 	and.w	r1, r3, #31
    3430:	d91d      	bls.n	346e <ECDSA_HashBuf_Setting+0xf2>
    3432:	687a      	ldr	r2, [r7, #4]
    3434:	0958      	lsrs	r0, r3, #5
    3436:	ebb2 1353 	subs.w	r3, r2, r3, lsr #5
    343a:	d00b      	beq.n	3454 <ECDSA_HashBuf_Setting+0xd8>
    343c:	eb05 0080 	add.w	r0, r5, r0, lsl #2
    3440:	1f2c      	subs	r4, r5, #4
    3442:	2200      	movs	r2, #0
    3444:	3804      	subs	r0, #4
    3446:	3201      	adds	r2, #1
    3448:	f850 cf04 	ldr.w	ip, [r0, #4]!
    344c:	429a      	cmp	r2, r3
    344e:	f844 cf04 	str.w	ip, [r4, #4]!
    3452:	d1f8      	bne.n	3446 <ECDSA_HashBuf_Setting+0xca>
    3454:	687a      	ldr	r2, [r7, #4]
    3456:	4293      	cmp	r3, r2
    3458:	d209      	bcs.n	346e <ECDSA_HashBuf_Setting+0xf2>
    345a:	eb05 0383 	add.w	r3, r5, r3, lsl #2
    345e:	1f2a      	subs	r2, r5, #4
    3460:	2000      	movs	r0, #0
    3462:	3b04      	subs	r3, #4
    3464:	444a      	add	r2, r9
    3466:	f843 0f04 	str.w	r0, [r3, #4]!
    346a:	429a      	cmp	r2, r3
    346c:	d1fb      	bne.n	3466 <ECDSA_HashBuf_Setting+0xea>
    346e:	b199      	cbz	r1, 3498 <ECDSA_HashBuf_Setting+0x11c>
    3470:	687c      	ldr	r4, [r7, #4]
    3472:	b18c      	cbz	r4, 3498 <ECDSA_HashBuf_Setting+0x11c>
    3474:	f1a9 0004 	sub.w	r0, r9, #4
    3478:	f1c1 0e20 	rsb	lr, r1, #32
    347c:	2300      	movs	r3, #0
    347e:	4428      	add	r0, r5
    3480:	f8d0 c000 	ldr.w	ip, [r0]
    3484:	3c01      	subs	r4, #1
    3486:	fa2c f201 	lsr.w	r2, ip, r1
    348a:	ea42 0203 	orr.w	r2, r2, r3
    348e:	fa0c f30e 	lsl.w	r3, ip, lr
    3492:	f840 2904 	str.w	r2, [r0], #-4
    3496:	d1f3      	bne.n	3480 <ECDSA_HashBuf_Setting+0x104>
    3498:	687c      	ldr	r4, [r7, #4]
    349a:	f243 3315 	movw	r3, #13077	; 0x3315
    349e:	f8da 200c 	ldr.w	r2, [sl, #12]
    34a2:	4628      	mov	r0, r5
    34a4:	f2c0 0300 	movt	r3, #0
    34a8:	4621      	mov	r1, r4
    34aa:	4798      	blx	r3
    34ac:	2800      	cmp	r0, #0
    34ae:	db08      	blt.n	34c2 <ECDSA_HashBuf_Setting+0x146>
    34b0:	f243 23ad 	movw	r3, #12973	; 0x32ad
    34b4:	462a      	mov	r2, r5
    34b6:	f8da 100c 	ldr.w	r1, [sl, #12]
    34ba:	4620      	mov	r0, r4
    34bc:	f2c0 0300 	movt	r3, #0
    34c0:	4798      	blx	r3
    34c2:	f241 3389 	movw	r3, #5001	; 0x1389
    34c6:	464a      	mov	r2, r9
    34c8:	4629      	mov	r1, r5
    34ca:	4640      	mov	r0, r8
    34cc:	f2c0 0301 	movt	r3, #1
    34d0:	4798      	blx	r3
    34d2:	2000      	movs	r0, #0
    34d4:	370c      	adds	r7, #12
    34d6:	46bd      	mov	sp, r7
    34d8:	e8bd 8ff0 	ldmia.w	sp!, {r4, r5, r6, r7, r8, r9, sl, fp, pc}
    34dc:	f241 5651 	movw	r6, #5457	; 0x1551
    34e0:	2220      	movs	r2, #32
    34e2:	4621      	mov	r1, r4
    34e4:	4640      	mov	r0, r8
    34e6:	f2c0 0601 	movt	r6, #1
    34ea:	466d      	mov	r5, sp
    34ec:	47b0      	blx	r6
    34ee:	4622      	mov	r2, r4
    34f0:	4621      	mov	r1, r4
    34f2:	4668      	mov	r0, sp
    34f4:	47b0      	blx	r6
    34f6:	46a1      	mov	r9, r4
    34f8:	607c      	str	r4, [r7, #4]
    34fa:	e7cd      	b.n	3498 <ECDSA_HashBuf_Setting+0x11c>

000034fc <ECDSA_CurveSel>:
    34fc:	68c2      	ldr	r2, [r0, #12]
    34fe:	680b      	ldr	r3, [r1, #0]
    3500:	f022 0203 	bic.w	r2, r2, #3
    3504:	2b09      	cmp	r3, #9
    3506:	b570      	push	{r4, r5, r6, lr}
    3508:	4604      	mov	r4, r0
    350a:	60c2      	str	r2, [r0, #12]
    350c:	f000 8088 	beq.w	3620 <ECDSA_CurveSel+0x124>
    3510:	d842      	bhi.n	3598 <ECDSA_CurveSel+0x9c>
    3512:	2b03      	cmp	r3, #3
    3514:	d065      	beq.n	35e2 <ECDSA_CurveSel+0xe6>
    3516:	d955      	bls.n	35c4 <ECDSA_CurveSel+0xc8>
    3518:	2b06      	cmp	r3, #6
    351a:	d15d      	bne.n	35d8 <ECDSA_CurveSel+0xdc>
    351c:	f245 362c 	movw	r6, #21292	; 0x532c
    3520:	f44f 7380 	mov.w	r3, #256	; 0x100
    3524:	f2c0 0604 	movt	r6, #4
    3528:	2220      	movs	r2, #32
    352a:	60ce      	str	r6, [r1, #12]
    352c:	e9c1 3301 	strd	r3, r3, [r1, #4]
    3530:	f241 3589 	movw	r5, #5001	; 0x1389
    3534:	18b1      	adds	r1, r6, r2
    3536:	f104 0050 	add.w	r0, r4, #80	; 0x50
    353a:	f2c0 0501 	movt	r5, #1
    353e:	47a8      	blx	r5
    3540:	2220      	movs	r2, #32
    3542:	f106 0140 	add.w	r1, r6, #64	; 0x40
    3546:	f104 0070 	add.w	r0, r4, #112	; 0x70
    354a:	47a8      	blx	r5
    354c:	2220      	movs	r2, #32
    354e:	f106 0160 	add.w	r1, r6, #96	; 0x60
    3552:	f504 70b8 	add.w	r0, r4, #368	; 0x170
    3556:	47a8      	blx	r5
    3558:	2220      	movs	r2, #32
    355a:	f106 0180 	add.w	r1, r6, #128	; 0x80
    355e:	f504 70c8 	add.w	r0, r4, #400	; 0x190
    3562:	47a8      	blx	r5
    3564:	2220      	movs	r2, #32
    3566:	4631      	mov	r1, r6
    3568:	f504 70d8 	add.w	r0, r4, #432	; 0x1b0
    356c:	47a8      	blx	r5
    356e:	68e3      	ldr	r3, [r4, #12]
    3570:	f043 0303 	orr.w	r3, r3, #3
    3574:	60e3      	str	r3, [r4, #12]
    3576:	2100      	movs	r1, #0
    3578:	460a      	mov	r2, r1
    357a:	eb04 0381 	add.w	r3, r4, r1, lsl #2
    357e:	3101      	adds	r1, #1
    3580:	2908      	cmp	r1, #8
    3582:	611a      	str	r2, [r3, #16]
    3584:	631a      	str	r2, [r3, #48]	; 0x30
    3586:	f8c3 2110 	str.w	r2, [r3, #272]	; 0x110
    358a:	f8c3 2130 	str.w	r2, [r3, #304]	; 0x130
    358e:	f8c3 2150 	str.w	r2, [r3, #336]	; 0x150
    3592:	d1f2      	bne.n	357a <ECDSA_CurveSel+0x7e>
    3594:	2000      	movs	r0, #0
    3596:	bd70      	pop	{r4, r5, r6, pc}
    3598:	2b0b      	cmp	r3, #11
    359a:	d030      	beq.n	35fe <ECDSA_CurveSel+0x102>
    359c:	2b0c      	cmp	r3, #12
    359e:	d109      	bne.n	35b4 <ECDSA_CurveSel+0xb8>
    35a0:	f245 034c 	movw	r3, #20556	; 0x504c
    35a4:	f44f 7280 	mov.w	r2, #256	; 0x100
    35a8:	f2c0 0304 	movt	r3, #4
    35ac:	e9c1 2201 	strd	r2, r2, [r1, #4]
    35b0:	60cb      	str	r3, [r1, #12]
    35b2:	e7e0      	b.n	3576 <ECDSA_CurveSel+0x7a>
    35b4:	2b0a      	cmp	r3, #10
    35b6:	d10f      	bne.n	35d8 <ECDSA_CurveSel+0xdc>
    35b8:	f245 06ac 	movw	r6, #20652	; 0x50ac
    35bc:	23c0      	movs	r3, #192	; 0xc0
    35be:	f2c0 0604 	movt	r6, #4
    35c2:	e7b1      	b.n	3528 <ECDSA_CurveSel+0x2c>
    35c4:	2b01      	cmp	r3, #1
    35c6:	d025      	beq.n	3614 <ECDSA_CurveSel+0x118>
    35c8:	2b02      	cmp	r3, #2
    35ca:	d105      	bne.n	35d8 <ECDSA_CurveSel+0xdc>
    35cc:	f245 268c 	movw	r6, #21132	; 0x528c
    35d0:	23e0      	movs	r3, #224	; 0xe0
    35d2:	f2c0 0604 	movt	r6, #4
    35d6:	e7a7      	b.n	3528 <ECDSA_CurveSel+0x2c>
    35d8:	f24e 0080 	movw	r0, #57472	; 0xe080
    35dc:	f6cf 70ff 	movt	r0, #65535	; 0xffff
    35e0:	bd70      	pop	{r4, r5, r6, pc}
    35e2:	68c3      	ldr	r3, [r0, #12]
    35e4:	f245 006c 	movw	r0, #20588	; 0x506c
    35e8:	f44f 7280 	mov.w	r2, #256	; 0x100
    35ec:	f2c0 0004 	movt	r0, #4
    35f0:	f043 0301 	orr.w	r3, r3, #1
    35f4:	e9c1 2201 	strd	r2, r2, [r1, #4]
    35f8:	60c8      	str	r0, [r1, #12]
    35fa:	60e3      	str	r3, [r4, #12]
    35fc:	e7bb      	b.n	3576 <ECDSA_CurveSel+0x7a>
    35fe:	f245 164c 	movw	r6, #20812	; 0x514c
    3602:	22e1      	movs	r2, #225	; 0xe1
    3604:	23e0      	movs	r3, #224	; 0xe0
    3606:	f2c0 0604 	movt	r6, #4
    360a:	604a      	str	r2, [r1, #4]
    360c:	2220      	movs	r2, #32
    360e:	e9c1 3602 	strd	r3, r6, [r1, #8]
    3612:	e78d      	b.n	3530 <ECDSA_CurveSel+0x34>
    3614:	f245 16ec 	movw	r6, #20972	; 0x51ec
    3618:	23c0      	movs	r3, #192	; 0xc0
    361a:	f2c0 0604 	movt	r6, #4
    361e:	e783      	b.n	3528 <ECDSA_CurveSel+0x2c>
    3620:	68c3      	ldr	r3, [r0, #12]
    3622:	f245 008c 	movw	r0, #20620	; 0x508c
    3626:	f44f 7280 	mov.w	r2, #256	; 0x100
    362a:	f2c0 0004 	movt	r0, #4
    362e:	f043 0302 	orr.w	r3, r3, #2
    3632:	e9c1 2201 	strd	r2, r2, [r1, #4]
    3636:	60c8      	str	r0, [r1, #12]
    3638:	60e3      	str	r3, [r4, #12]
    363a:	e79c      	b.n	3576 <ECDSA_CurveSel+0x7a>

0000363c <ECDSA_EngRst>:
    363c:	6802      	ldr	r2, [r0, #0]
    363e:	f240 1301 	movw	r3, #257	; 0x101
    3642:	4313      	orrs	r3, r2
    3644:	6003      	str	r3, [r0, #0]
    3646:	6803      	ldr	r3, [r0, #0]
    3648:	f023 0301 	bic.w	r3, r3, #1
    364c:	6003      	str	r3, [r0, #0]
    364e:	4770      	bx	lr

00003650 <ECDSA_Cmd>:
    3650:	6803      	ldr	r3, [r0, #0]
    3652:	b139      	cbz	r1, 3664 <ECDSA_Cmd+0x14>
    3654:	f443 7380 	orr.w	r3, r3, #256	; 0x100
    3658:	6003      	str	r3, [r0, #0]
    365a:	6883      	ldr	r3, [r0, #8]
    365c:	f043 0301 	orr.w	r3, r3, #1
    3660:	6083      	str	r3, [r0, #8]
    3662:	4770      	bx	lr
    3664:	f423 7380 	bic.w	r3, r3, #256	; 0x100
    3668:	6003      	str	r3, [r0, #0]
    366a:	6883      	ldr	r3, [r0, #8]
    366c:	f023 0303 	bic.w	r3, r3, #3
    3670:	6083      	str	r3, [r0, #8]
    3672:	4770      	bx	lr

00003674 <ECDSA_KeyGen>:
    3674:	e92d 42f0 	stmdb	sp!, {r4, r5, r6, r7, r9, lr}
    3678:	461e      	mov	r6, r3
    367a:	b086      	sub	sp, #24
    367c:	f243 43fd 	movw	r3, #13565	; 0x34fd
    3680:	4604      	mov	r4, r0
    3682:	9102      	str	r1, [sp, #8]
    3684:	a902      	add	r1, sp, #8
    3686:	f2c0 0300 	movt	r3, #0
    368a:	4615      	mov	r5, r2
    368c:	f8dd 9034 	ldr.w	r9, [sp, #52]	; 0x34
    3690:	4798      	blx	r3
    3692:	4607      	mov	r7, r0
    3694:	2800      	cmp	r0, #0
    3696:	d146      	bne.n	3726 <ECDSA_KeyGen+0xb2>
    3698:	68e3      	ldr	r3, [r4, #12]
    369a:	f1b9 0f02 	cmp.w	r9, #2
    369e:	9a03      	ldr	r2, [sp, #12]
    36a0:	f023 030c 	bic.w	r3, r3, #12
    36a4:	ea4f 02d2 	mov.w	r2, r2, lsr #3
    36a8:	60e3      	str	r3, [r4, #12]
    36aa:	68e3      	ldr	r3, [r4, #12]
    36ac:	f043 0308 	orr.w	r3, r3, #8
    36b0:	60e3      	str	r3, [r4, #12]
    36b2:	68e3      	ldr	r3, [r4, #12]
    36b4:	f423 5340 	bic.w	r3, r3, #12288	; 0x3000
    36b8:	60e3      	str	r3, [r4, #12]
    36ba:	d848      	bhi.n	374e <ECDSA_KeyGen+0xda>
    36bc:	f1b9 0f00 	cmp.w	r9, #0
    36c0:	d035      	beq.n	372e <ECDSA_KeyGen+0xba>
    36c2:	68e3      	ldr	r3, [r4, #12]
    36c4:	ea43 3309 	orr.w	r3, r3, r9, lsl #12
    36c8:	60e3      	str	r3, [r4, #12]
    36ca:	f04f 0c00 	mov.w	ip, #0
    36ce:	eb04 018c 	add.w	r1, r4, ip, lsl #2
    36d2:	f10c 0c01 	add.w	ip, ip, #1
    36d6:	6d0d      	ldr	r5, [r1, #80]	; 0x50
    36d8:	f1bc 0f08 	cmp.w	ip, #8
    36dc:	610d      	str	r5, [r1, #16]
    36de:	6f0d      	ldr	r5, [r1, #112]	; 0x70
    36e0:	630d      	str	r5, [r1, #48]	; 0x30
    36e2:	d1f4      	bne.n	36ce <ECDSA_KeyGen+0x5a>
    36e4:	f243 6351 	movw	r3, #13905	; 0x3651
    36e8:	2101      	movs	r1, #1
    36ea:	4620      	mov	r0, r4
    36ec:	9201      	str	r2, [sp, #4]
    36ee:	f2c0 0300 	movt	r3, #0
    36f2:	4798      	blx	r3
    36f4:	f44f 5134 	mov.w	r1, #11520	; 0x2d00
    36f8:	9a01      	ldr	r2, [sp, #4]
    36fa:	f2c0 1131 	movt	r1, #305	; 0x131
    36fe:	e001      	b.n	3704 <ECDSA_KeyGen+0x90>
    3700:	3901      	subs	r1, #1
    3702:	d01f      	beq.n	3744 <ECDSA_KeyGen+0xd0>
    3704:	68a5      	ldr	r5, [r4, #8]
    3706:	05eb      	lsls	r3, r5, #23
    3708:	d5fa      	bpl.n	3700 <ECDSA_KeyGen+0x8c>
    370a:	f241 3589 	movw	r5, #5001	; 0x1389
    370e:	f104 0190 	add.w	r1, r4, #144	; 0x90
    3712:	4630      	mov	r0, r6
    3714:	9201      	str	r2, [sp, #4]
    3716:	f2c0 0501 	movt	r5, #1
    371a:	47a8      	blx	r5
    371c:	9a01      	ldr	r2, [sp, #4]
    371e:	f104 01b0 	add.w	r1, r4, #176	; 0xb0
    3722:	980c      	ldr	r0, [sp, #48]	; 0x30
    3724:	47a8      	blx	r5
    3726:	4638      	mov	r0, r7
    3728:	b006      	add	sp, #24
    372a:	e8bd 82f0 	ldmia.w	sp!, {r4, r5, r6, r7, r9, pc}
    372e:	f241 3389 	movw	r3, #5001	; 0x1389
    3732:	4629      	mov	r1, r5
    3734:	f504 70a8 	add.w	r0, r4, #336	; 0x150
    3738:	9201      	str	r2, [sp, #4]
    373a:	f2c0 0301 	movt	r3, #1
    373e:	4798      	blx	r3
    3740:	9a01      	ldr	r2, [sp, #4]
    3742:	e7c2      	b.n	36ca <ECDSA_KeyGen+0x56>
    3744:	f44f 4761 	mov.w	r7, #57600	; 0xe100
    3748:	f6cf 77ff 	movt	r7, #65535	; 0xffff
    374c:	e7eb      	b.n	3726 <ECDSA_KeyGen+0xb2>
    374e:	f44f 4764 	mov.w	r7, #58368	; 0xe400
    3752:	f6cf 77ff 	movt	r7, #65535	; 0xffff
    3756:	e7e6      	b.n	3726 <ECDSA_KeyGen+0xb2>

00003758 <ECDSA_Sign>:
    3758:	e92d 47f0 	stmdb	sp!, {r4, r5, r6, r7, r8, r9, sl, lr}
    375c:	f243 45fd 	movw	r5, #13565	; 0x34fd
    3760:	b08c      	sub	sp, #48	; 0x30
    3762:	4604      	mov	r4, r0
    3764:	4617      	mov	r7, r2
    3766:	f2c0 0500 	movt	r5, #0
    376a:	9100      	str	r1, [sp, #0]
    376c:	4669      	mov	r1, sp
    376e:	4699      	mov	r9, r3
    3770:	9e1a      	ldr	r6, [sp, #104]	; 0x68
    3772:	47a8      	blx	r5
    3774:	4605      	mov	r5, r0
    3776:	b118      	cbz	r0, 3780 <ECDSA_Sign+0x28>
    3778:	4628      	mov	r0, r5
    377a:	b00c      	add	sp, #48	; 0x30
    377c:	e8bd 87f0 	ldmia.w	sp!, {r4, r5, r6, r7, r8, r9, sl, pc}
    3780:	9b01      	ldr	r3, [sp, #4]
    3782:	f243 3a7d 	movw	sl, #13181	; 0x337d
    3786:	4668      	mov	r0, sp
    3788:	a904      	add	r1, sp, #16
    378a:	f2c0 0a00 	movt	sl, #0
    378e:	ea4f 08d3 	mov.w	r8, r3, lsr #3
    3792:	e9dd 2314 	ldrd	r2, r3, [sp, #80]	; 0x50
    3796:	47d0      	blx	sl
    3798:	68e3      	ldr	r3, [r4, #12]
    379a:	2e02      	cmp	r6, #2
    379c:	f023 030c 	bic.w	r3, r3, #12
    37a0:	60e3      	str	r3, [r4, #12]
    37a2:	68e3      	ldr	r3, [r4, #12]
    37a4:	f043 0304 	orr.w	r3, r3, #4
    37a8:	60e3      	str	r3, [r4, #12]
    37aa:	68e3      	ldr	r3, [r4, #12]
    37ac:	f423 5340 	bic.w	r3, r3, #12288	; 0x3000
    37b0:	60e3      	str	r3, [r4, #12]
    37b2:	d864      	bhi.n	387e <ECDSA_Sign+0x126>
    37b4:	f104 0a10 	add.w	sl, r4, #16
    37b8:	2e00      	cmp	r6, #0
    37ba:	d052      	beq.n	3862 <ECDSA_Sign+0x10a>
    37bc:	68e3      	ldr	r3, [r4, #12]
    37be:	ea43 3606 	orr.w	r6, r3, r6, lsl #12
    37c2:	60e6      	str	r6, [r4, #12]
    37c4:	f241 3689 	movw	r6, #5001	; 0x1389
    37c8:	f2c0 0601 	movt	r6, #1
    37cc:	4639      	mov	r1, r7
    37ce:	4642      	mov	r2, r8
    37d0:	4650      	mov	r0, sl
    37d2:	47b0      	blx	r6
    37d4:	4642      	mov	r2, r8
    37d6:	4649      	mov	r1, r9
    37d8:	f104 0030 	add.w	r0, r4, #48	; 0x30
    37dc:	47b0      	blx	r6
    37de:	a904      	add	r1, sp, #16
    37e0:	2220      	movs	r2, #32
    37e2:	f504 70a8 	add.w	r0, r4, #336	; 0x150
    37e6:	47b0      	blx	r6
    37e8:	f243 6351 	movw	r3, #13905	; 0x3651
    37ec:	2101      	movs	r1, #1
    37ee:	4620      	mov	r0, r4
    37f0:	f2c0 0300 	movt	r3, #0
    37f4:	4798      	blx	r3
    37f6:	68a3      	ldr	r3, [r4, #8]
    37f8:	f043 0304 	orr.w	r3, r3, #4
    37fc:	60a3      	str	r3, [r4, #8]
    37fe:	f44f 5334 	mov.w	r3, #11520	; 0x2d00
    3802:	f2c0 1331 	movt	r3, #305	; 0x131
    3806:	e005      	b.n	3814 <ECDSA_Sign+0xbc>
    3808:	3b01      	subs	r3, #1
    380a:	d033      	beq.n	3874 <ECDSA_Sign+0x11c>
    380c:	68a1      	ldr	r1, [r4, #8]
    380e:	f411 3f7c 	tst.w	r1, #258048	; 0x3f000
    3812:	d11e      	bne.n	3852 <ECDSA_Sign+0xfa>
    3814:	68a1      	ldr	r1, [r4, #8]
    3816:	05ca      	lsls	r2, r1, #23
    3818:	d5f6      	bpl.n	3808 <ECDSA_Sign+0xb0>
    381a:	9b16      	ldr	r3, [sp, #88]	; 0x58
    381c:	b123      	cbz	r3, 3828 <ECDSA_Sign+0xd0>
    381e:	4642      	mov	r2, r8
    3820:	f104 0190 	add.w	r1, r4, #144	; 0x90
    3824:	4618      	mov	r0, r3
    3826:	47b0      	blx	r6
    3828:	9b17      	ldr	r3, [sp, #92]	; 0x5c
    382a:	b123      	cbz	r3, 3836 <ECDSA_Sign+0xde>
    382c:	4642      	mov	r2, r8
    382e:	f104 01b0 	add.w	r1, r4, #176	; 0xb0
    3832:	4618      	mov	r0, r3
    3834:	47b0      	blx	r6
    3836:	4642      	mov	r2, r8
    3838:	f104 01d0 	add.w	r1, r4, #208	; 0xd0
    383c:	9818      	ldr	r0, [sp, #96]	; 0x60
    383e:	47b0      	blx	r6
    3840:	4642      	mov	r2, r8
    3842:	f104 01f0 	add.w	r1, r4, #240	; 0xf0
    3846:	9819      	ldr	r0, [sp, #100]	; 0x64
    3848:	47b0      	blx	r6
    384a:	4628      	mov	r0, r5
    384c:	b00c      	add	sp, #48	; 0x30
    384e:	e8bd 87f0 	ldmia.w	sp!, {r4, r5, r6, r7, r8, r9, sl, pc}
    3852:	f44f 4562 	mov.w	r5, #57856	; 0xe200
    3856:	f6cf 75ff 	movt	r5, #65535	; 0xffff
    385a:	4628      	mov	r0, r5
    385c:	b00c      	add	sp, #48	; 0x30
    385e:	e8bd 87f0 	ldmia.w	sp!, {r4, r5, r6, r7, r8, r9, sl, pc}
    3862:	f241 3689 	movw	r6, #5001	; 0x1389
    3866:	4642      	mov	r2, r8
    3868:	4639      	mov	r1, r7
    386a:	4650      	mov	r0, sl
    386c:	f2c0 0601 	movt	r6, #1
    3870:	47b0      	blx	r6
    3872:	e7ab      	b.n	37cc <ECDSA_Sign+0x74>
    3874:	f24e 1580 	movw	r5, #57728	; 0xe180
    3878:	f6cf 75ff 	movt	r5, #65535	; 0xffff
    387c:	e77c      	b.n	3778 <ECDSA_Sign+0x20>
    387e:	f44f 4564 	mov.w	r5, #58368	; 0xe400
    3882:	f6cf 75ff 	movt	r5, #65535	; 0xffff
    3886:	e777      	b.n	3778 <ECDSA_Sign+0x20>

00003888 <ECDSA_Verify>:
    3888:	e92d 41f0 	stmdb	sp!, {r4, r5, r6, r7, r8, lr}
    388c:	f243 45fd 	movw	r5, #13565	; 0x34fd
    3890:	b08c      	sub	sp, #48	; 0x30
    3892:	4604      	mov	r4, r0
    3894:	4616      	mov	r6, r2
    3896:	f2c0 0500 	movt	r5, #0
    389a:	9100      	str	r1, [sp, #0]
    389c:	4669      	mov	r1, sp
    389e:	461f      	mov	r7, r3
    38a0:	47a8      	blx	r5
    38a2:	4605      	mov	r5, r0
    38a4:	b118      	cbz	r0, 38ae <ECDSA_Verify+0x26>
    38a6:	4628      	mov	r0, r5
    38a8:	b00c      	add	sp, #48	; 0x30
    38aa:	e8bd 81f0 	ldmia.w	sp!, {r4, r5, r6, r7, r8, pc}
    38ae:	68e1      	ldr	r1, [r4, #12]
    38b0:	463b      	mov	r3, r7
    38b2:	9f01      	ldr	r7, [sp, #4]
    38b4:	f243 387d 	movw	r8, #13181	; 0x337d
    38b8:	f021 010c 	bic.w	r1, r1, #12
    38bc:	4632      	mov	r2, r6
    38be:	08ff      	lsrs	r7, r7, #3
    38c0:	f241 3689 	movw	r6, #5001	; 0x1389
    38c4:	60e1      	str	r1, [r4, #12]
    38c6:	4668      	mov	r0, sp
    38c8:	68e1      	ldr	r1, [r4, #12]
    38ca:	f2c0 0800 	movt	r8, #0
    38ce:	f2c0 0601 	movt	r6, #1
    38d2:	60e1      	str	r1, [r4, #12]
    38d4:	a904      	add	r1, sp, #16
    38d6:	47c0      	blx	r8
    38d8:	463a      	mov	r2, r7
    38da:	9912      	ldr	r1, [sp, #72]	; 0x48
    38dc:	f104 0010 	add.w	r0, r4, #16
    38e0:	47b0      	blx	r6
    38e2:	463a      	mov	r2, r7
    38e4:	9913      	ldr	r1, [sp, #76]	; 0x4c
    38e6:	f104 0030 	add.w	r0, r4, #48	; 0x30
    38ea:	47b0      	blx	r6
    38ec:	463a      	mov	r2, r7
    38ee:	9914      	ldr	r1, [sp, #80]	; 0x50
    38f0:	f504 7088 	add.w	r0, r4, #272	; 0x110
    38f4:	47b0      	blx	r6
    38f6:	463a      	mov	r2, r7
    38f8:	9915      	ldr	r1, [sp, #84]	; 0x54
    38fa:	f504 7098 	add.w	r0, r4, #304	; 0x130
    38fe:	47b0      	blx	r6
    3900:	2220      	movs	r2, #32
    3902:	a904      	add	r1, sp, #16
    3904:	f504 70a8 	add.w	r0, r4, #336	; 0x150
    3908:	47b0      	blx	r6
    390a:	f243 6351 	movw	r3, #13905	; 0x3651
    390e:	2101      	movs	r1, #1
    3910:	4620      	mov	r0, r4
    3912:	f2c0 0300 	movt	r3, #0
    3916:	4798      	blx	r3
    3918:	68a2      	ldr	r2, [r4, #8]
    391a:	f44f 5334 	mov.w	r3, #11520	; 0x2d00
    391e:	f042 0204 	orr.w	r2, r2, #4
    3922:	f2c0 1331 	movt	r3, #305	; 0x131
    3926:	60a2      	str	r2, [r4, #8]
    3928:	e005      	b.n	3936 <ECDSA_Verify+0xae>
    392a:	3b01      	subs	r3, #1
    392c:	d01b      	beq.n	3966 <ECDSA_Verify+0xde>
    392e:	68a2      	ldr	r2, [r4, #8]
    3930:	f412 3f43 	tst.w	r2, #199680	; 0x30c00
    3934:	d10f      	bne.n	3956 <ECDSA_Verify+0xce>
    3936:	68a2      	ldr	r2, [r4, #8]
    3938:	05d2      	lsls	r2, r2, #23
    393a:	d5f6      	bpl.n	392a <ECDSA_Verify+0xa2>
    393c:	68a2      	ldr	r2, [r4, #8]
    393e:	f24e 3380 	movw	r3, #58240	; 0xe380
    3942:	f412 7f00 	tst.w	r2, #512	; 0x200
    3946:	f6cf 73ff 	movt	r3, #65535	; 0xffff
    394a:	bf08      	it	eq
    394c:	461d      	moveq	r5, r3
    394e:	4628      	mov	r0, r5
    3950:	b00c      	add	sp, #48	; 0x30
    3952:	e8bd 81f0 	ldmia.w	sp!, {r4, r5, r6, r7, r8, pc}
    3956:	f44f 4563 	mov.w	r5, #58112	; 0xe300
    395a:	f6cf 75ff 	movt	r5, #65535	; 0xffff
    395e:	4628      	mov	r0, r5
    3960:	b00c      	add	sp, #48	; 0x30
    3962:	e8bd 81f0 	ldmia.w	sp!, {r4, r5, r6, r7, r8, pc}
    3966:	f24e 2580 	movw	r5, #57984	; 0xe280
    396a:	f6cf 75ff 	movt	r5, #65535	; 0xffff
    396e:	e79a      	b.n	38a6 <ECDSA_Verify+0x1e>

00003970 <ECDSA_ECDH_Compute_Shared>:
    3970:	e92d 4ff0 	stmdb	sp!, {r4, r5, r6, r7, r8, r9, sl, fp, lr}
    3974:	f243 45fd 	movw	r5, #13565	; 0x34fd
    3978:	b085      	sub	sp, #20
    397a:	4604      	mov	r4, r0
    397c:	4690      	mov	r8, r2
    397e:	9100      	str	r1, [sp, #0]
    3980:	f2c0 0500 	movt	r5, #0
    3984:	4669      	mov	r1, sp
    3986:	461f      	mov	r7, r3
    3988:	f8dd b044 	ldr.w	fp, [sp, #68]	; 0x44
    398c:	47a8      	blx	r5
    398e:	4606      	mov	r6, r0
    3990:	b118      	cbz	r0, 399a <ECDSA_ECDH_Compute_Shared+0x2a>
    3992:	4630      	mov	r0, r6
    3994:	b005      	add	sp, #20
    3996:	e8bd 8ff0 	ldmia.w	sp!, {r4, r5, r6, r7, r8, r9, sl, fp, pc}
    399a:	68e3      	ldr	r3, [r4, #12]
    399c:	f241 3989 	movw	r9, #5001	; 0x1389
    39a0:	9a01      	ldr	r2, [sp, #4]
    39a2:	f104 0010 	add.w	r0, r4, #16
    39a6:	f023 030c 	bic.w	r3, r3, #12
    39aa:	f2c0 0901 	movt	r9, #1
    39ae:	ea4f 0ad2 	mov.w	sl, r2, lsr #3
    39b2:	990e      	ldr	r1, [sp, #56]	; 0x38
    39b4:	60e3      	str	r3, [r4, #12]
    39b6:	68e3      	ldr	r3, [r4, #12]
    39b8:	4652      	mov	r2, sl
    39ba:	f043 0308 	orr.w	r3, r3, #8
    39be:	60e3      	str	r3, [r4, #12]
    39c0:	68e3      	ldr	r3, [r4, #12]
    39c2:	f423 5340 	bic.w	r3, r3, #12288	; 0x3000
    39c6:	60e3      	str	r3, [r4, #12]
    39c8:	47c8      	blx	r9
    39ca:	4652      	mov	r2, sl
    39cc:	990f      	ldr	r1, [sp, #60]	; 0x3c
    39ce:	f104 0030 	add.w	r0, r4, #48	; 0x30
    39d2:	47c8      	blx	r9
    39d4:	f1bb 0f02 	cmp.w	fp, #2
    39d8:	d83e      	bhi.n	3a58 <ECDSA_ECDH_Compute_Shared+0xe8>
    39da:	f1bb 0f00 	cmp.w	fp, #0
    39de:	d030      	beq.n	3a42 <ECDSA_ECDH_Compute_Shared+0xd2>
    39e0:	68e3      	ldr	r3, [r4, #12]
    39e2:	ea43 330b 	orr.w	r3, r3, fp, lsl #12
    39e6:	60e3      	str	r3, [r4, #12]
    39e8:	f243 6351 	movw	r3, #13905	; 0x3651
    39ec:	2101      	movs	r1, #1
    39ee:	4620      	mov	r0, r4
    39f0:	f2c0 0300 	movt	r3, #0
    39f4:	4798      	blx	r3
    39f6:	f44f 5134 	mov.w	r1, #11520	; 0x2d00
    39fa:	f2c0 1131 	movt	r1, #305	; 0x131
    39fe:	e005      	b.n	3a0c <ECDSA_ECDH_Compute_Shared+0x9c>
    3a00:	3901      	subs	r1, #1
    3a02:	d024      	beq.n	3a4e <ECDSA_ECDH_Compute_Shared+0xde>
    3a04:	68a5      	ldr	r5, [r4, #8]
    3a06:	f415 3f43 	tst.w	r5, #199680	; 0x30c00
    3a0a:	d112      	bne.n	3a32 <ECDSA_ECDH_Compute_Shared+0xc2>
    3a0c:	68a5      	ldr	r5, [r4, #8]
    3a0e:	05eb      	lsls	r3, r5, #23
    3a10:	d5f6      	bpl.n	3a00 <ECDSA_ECDH_Compute_Shared+0x90>
    3a12:	4640      	mov	r0, r8
    3a14:	4652      	mov	r2, sl
    3a16:	f104 0190 	add.w	r1, r4, #144	; 0x90
    3a1a:	47c8      	blx	r9
    3a1c:	2f00      	cmp	r7, #0
    3a1e:	d0b8      	beq.n	3992 <ECDSA_ECDH_Compute_Shared+0x22>
    3a20:	4652      	mov	r2, sl
    3a22:	f104 01b0 	add.w	r1, r4, #176	; 0xb0
    3a26:	4638      	mov	r0, r7
    3a28:	47c8      	blx	r9
    3a2a:	4630      	mov	r0, r6
    3a2c:	b005      	add	sp, #20
    3a2e:	e8bd 8ff0 	ldmia.w	sp!, {r4, r5, r6, r7, r8, r9, sl, fp, pc}
    3a32:	f44f 4663 	mov.w	r6, #58112	; 0xe300
    3a36:	f6cf 76ff 	movt	r6, #65535	; 0xffff
    3a3a:	4630      	mov	r0, r6
    3a3c:	b005      	add	sp, #20
    3a3e:	e8bd 8ff0 	ldmia.w	sp!, {r4, r5, r6, r7, r8, r9, sl, fp, pc}
    3a42:	4652      	mov	r2, sl
    3a44:	9910      	ldr	r1, [sp, #64]	; 0x40
    3a46:	f504 70a8 	add.w	r0, r4, #336	; 0x150
    3a4a:	47c8      	blx	r9
    3a4c:	e7cc      	b.n	39e8 <ECDSA_ECDH_Compute_Shared+0x78>
    3a4e:	f24e 2680 	movw	r6, #57984	; 0xe280
    3a52:	f6cf 76ff 	movt	r6, #65535	; 0xffff
    3a56:	e79c      	b.n	3992 <ECDSA_ECDH_Compute_Shared+0x22>
    3a58:	f44f 4664 	mov.w	r6, #58368	; 0xe400
    3a5c:	f6cf 76ff 	movt	r6, #65535	; 0xffff
    3a60:	e797      	b.n	3992 <ECDSA_ECDH_Compute_Shared+0x22>
    3a62:	bf00      	nop

00003a64 <ECDSA_Basic_Func>:
    3a64:	e92d 41f0 	stmdb	sp!, {r4, r5, r6, r7, r8, lr}
    3a68:	460e      	mov	r6, r1
    3a6a:	4690      	mov	r8, r2
    3a6c:	f243 3515 	movw	r5, #13077	; 0x3315
    3a70:	f245 32cc 	movw	r2, #21452	; 0x53cc
    3a74:	b084      	sub	sp, #16
    3a76:	4604      	mov	r4, r0
    3a78:	f2c0 0204 	movt	r2, #4
    3a7c:	f2c0 0500 	movt	r5, #0
    3a80:	2108      	movs	r1, #8
    3a82:	4630      	mov	r0, r6
    3a84:	461f      	mov	r7, r3
    3a86:	47a8      	blx	r5
    3a88:	2800      	cmp	r0, #0
    3a8a:	da5e      	bge.n	3b4a <ECDSA_Basic_Func+0xe6>
    3a8c:	f245 32cc 	movw	r2, #21452	; 0x53cc
    3a90:	2108      	movs	r1, #8
    3a92:	4640      	mov	r0, r8
    3a94:	f2c0 0204 	movt	r2, #4
    3a98:	47a8      	blx	r5
    3a9a:	2800      	cmp	r0, #0
    3a9c:	da55      	bge.n	3b4a <ECDSA_Basic_Func+0xe6>
    3a9e:	230c      	movs	r3, #12
    3aa0:	4669      	mov	r1, sp
    3aa2:	4620      	mov	r0, r4
    3aa4:	9300      	str	r3, [sp, #0]
    3aa6:	f243 43fd 	movw	r3, #13565	; 0x34fd
    3aaa:	f2c0 0300 	movt	r3, #0
    3aae:	4798      	blx	r3
    3ab0:	4605      	mov	r5, r0
    3ab2:	b118      	cbz	r0, 3abc <ECDSA_Basic_Func+0x58>
    3ab4:	4628      	mov	r0, r5
    3ab6:	b004      	add	sp, #16
    3ab8:	e8bd 81f0 	ldmia.w	sp!, {r4, r5, r6, r7, r8, pc}
    3abc:	68e3      	ldr	r3, [r4, #12]
    3abe:	4631      	mov	r1, r6
    3ac0:	f241 3689 	movw	r6, #5001	; 0x1389
    3ac4:	f104 0010 	add.w	r0, r4, #16
    3ac8:	f023 030c 	bic.w	r3, r3, #12
    3acc:	f2c0 0601 	movt	r6, #1
    3ad0:	60e3      	str	r3, [r4, #12]
    3ad2:	68e3      	ldr	r3, [r4, #12]
    3ad4:	f043 030c 	orr.w	r3, r3, #12
    3ad8:	60e3      	str	r3, [r4, #12]
    3ada:	68e3      	ldr	r3, [r4, #12]
    3adc:	f023 0370 	bic.w	r3, r3, #112	; 0x70
    3ae0:	60e3      	str	r3, [r4, #12]
    3ae2:	9b0a      	ldr	r3, [sp, #40]	; 0x28
    3ae4:	68e2      	ldr	r2, [r4, #12]
    3ae6:	011b      	lsls	r3, r3, #4
    3ae8:	f003 0370 	and.w	r3, r3, #112	; 0x70
    3aec:	4313      	orrs	r3, r2
    3aee:	2220      	movs	r2, #32
    3af0:	60e3      	str	r3, [r4, #12]
    3af2:	47b0      	blx	r6
    3af4:	2220      	movs	r2, #32
    3af6:	4641      	mov	r1, r8
    3af8:	f104 0030 	add.w	r0, r4, #48	; 0x30
    3afc:	47b0      	blx	r6
    3afe:	f243 6351 	movw	r3, #13905	; 0x3651
    3b02:	2101      	movs	r1, #1
    3b04:	4620      	mov	r0, r4
    3b06:	f2c0 0300 	movt	r3, #0
    3b0a:	4798      	blx	r3
    3b0c:	f44f 5234 	mov.w	r2, #11520	; 0x2d00
    3b10:	f2c0 1231 	movt	r2, #305	; 0x131
    3b14:	e005      	b.n	3b22 <ECDSA_Basic_Func+0xbe>
    3b16:	3a01      	subs	r2, #1
    3b18:	d01c      	beq.n	3b54 <ECDSA_Basic_Func+0xf0>
    3b1a:	68a1      	ldr	r1, [r4, #8]
    3b1c:	f411 3f43 	tst.w	r1, #199680	; 0x30c00
    3b20:	d10b      	bne.n	3b3a <ECDSA_Basic_Func+0xd6>
    3b22:	68a1      	ldr	r1, [r4, #8]
    3b24:	05cb      	lsls	r3, r1, #23
    3b26:	d5f6      	bpl.n	3b16 <ECDSA_Basic_Func+0xb2>
    3b28:	2220      	movs	r2, #32
    3b2a:	f104 0190 	add.w	r1, r4, #144	; 0x90
    3b2e:	4638      	mov	r0, r7
    3b30:	47b0      	blx	r6
    3b32:	4628      	mov	r0, r5
    3b34:	b004      	add	sp, #16
    3b36:	e8bd 81f0 	ldmia.w	sp!, {r4, r5, r6, r7, r8, pc}
    3b3a:	f44f 4565 	mov.w	r5, #58624	; 0xe500
    3b3e:	f6cf 75ff 	movt	r5, #65535	; 0xffff
    3b42:	4628      	mov	r0, r5
    3b44:	b004      	add	sp, #16
    3b46:	e8bd 81f0 	ldmia.w	sp!, {r4, r5, r6, r7, r8, pc}
    3b4a:	f24e 5580 	movw	r5, #58752	; 0xe580
    3b4e:	f6cf 75ff 	movt	r5, #65535	; 0xffff
    3b52:	e7af      	b.n	3ab4 <ECDSA_Basic_Func+0x50>
    3b54:	f24e 4580 	movw	r5, #58496	; 0xe480
    3b58:	f6cf 75ff 	movt	r5, #65535	; 0xffff
    3b5c:	e7aa      	b.n	3ab4 <ECDSA_Basic_Func+0x50>
    3b5e:	bf00      	nop

00003b60 <rtl_crypto_aes_cbc_init>:
    3b60:	f244 2300 	movw	r3, #16896	; 0x4200
    3b64:	f2c2 0300 	movt	r3, #8192	; 0x2000
    3b68:	b570      	push	{r4, r5, r6, lr}
    3b6a:	781b      	ldrb	r3, [r3, #0]
    3b6c:	4604      	mov	r4, r0
    3b6e:	460d      	mov	r5, r1
    3b70:	2b01      	cmp	r3, #1
    3b72:	d113      	bne.n	3b9c <rtl_crypto_aes_cbc_init+0x3c>
    3b74:	b304      	cbz	r4, 3bb8 <rtl_crypto_aes_cbc_init+0x58>
    3b76:	07a3      	lsls	r3, r4, #30
    3b78:	d11b      	bne.n	3bb2 <rtl_crypto_aes_cbc_init+0x52>
    3b7a:	2d20      	cmp	r5, #32
    3b7c:	d816      	bhi.n	3bac <rtl_crypto_aes_cbc_init+0x4c>
    3b7e:	f642 5e01 	movw	lr, #11521	; 0x2d01
    3b82:	f244 2000 	movw	r0, #16896	; 0x4200
    3b86:	462b      	mov	r3, r5
    3b88:	4622      	mov	r2, r4
    3b8a:	f2c0 0e00 	movt	lr, #0
    3b8e:	2121      	movs	r1, #33	; 0x21
    3b90:	f2c2 0000 	movt	r0, #8192	; 0x2000
    3b94:	46f4      	mov	ip, lr
    3b96:	e8bd 4070 	ldmia.w	sp!, {r4, r5, r6, lr}
    3b9a:	4760      	bx	ip
    3b9c:	f645 1028 	movw	r0, #22824	; 0x5928
    3ba0:	2126      	movs	r1, #38	; 0x26
    3ba2:	f2c0 0004 	movt	r0, #4
    3ba6:	f007 fa41 	bl	b02c <io_assert_failed>
    3baa:	e7e3      	b.n	3b74 <rtl_crypto_aes_cbc_init+0x14>
    3bac:	f06f 0006 	mvn.w	r0, #6
    3bb0:	bd70      	pop	{r4, r5, r6, pc}
    3bb2:	f06f 0005 	mvn.w	r0, #5
    3bb6:	bd70      	pop	{r4, r5, r6, pc}
    3bb8:	f06f 0003 	mvn.w	r0, #3
    3bbc:	bd70      	pop	{r4, r5, r6, pc}
    3bbe:	bf00      	nop

00003bc0 <rtl_crypto_aes_cbc_encrypt>:
    3bc0:	b530      	push	{r4, r5, lr}
    3bc2:	b087      	sub	sp, #28
    3bc4:	461d      	mov	r5, r3
    3bc6:	9b0a      	ldr	r3, [sp, #40]	; 0x28
    3bc8:	b1f2      	cbz	r2, 3c08 <rtl_crypto_aes_cbc_encrypt+0x48>
    3bca:	0794      	lsls	r4, r2, #30
    3bcc:	d11f      	bne.n	3c0e <rtl_crypto_aes_cbc_encrypt+0x4e>
    3bce:	2d10      	cmp	r5, #16
    3bd0:	d117      	bne.n	3c02 <rtl_crypto_aes_cbc_encrypt+0x42>
    3bd2:	b1c8      	cbz	r0, 3c08 <rtl_crypto_aes_cbc_encrypt+0x48>
    3bd4:	fab3 f483 	clz	r4, r3
    3bd8:	0964      	lsrs	r4, r4, #5
    3bda:	b1ab      	cbz	r3, 3c08 <rtl_crypto_aes_cbc_encrypt+0x48>
    3bdc:	9303      	str	r3, [sp, #12]
    3bde:	4613      	mov	r3, r2
    3be0:	9404      	str	r4, [sp, #16]
    3be2:	460a      	mov	r2, r1
    3be4:	4601      	mov	r1, r0
    3be6:	f244 2000 	movw	r0, #16896	; 0x4200
    3bea:	9500      	str	r5, [sp, #0]
    3bec:	f2c2 0000 	movt	r0, #8192	; 0x2000
    3bf0:	e9cd 4401 	strd	r4, r4, [sp, #4]
    3bf4:	f642 5425 	movw	r4, #11557	; 0x2d25
    3bf8:	f2c0 0400 	movt	r4, #0
    3bfc:	47a0      	blx	r4
    3bfe:	b007      	add	sp, #28
    3c00:	bd30      	pop	{r4, r5, pc}
    3c02:	f06f 0008 	mvn.w	r0, #8
    3c06:	e7fa      	b.n	3bfe <rtl_crypto_aes_cbc_encrypt+0x3e>
    3c08:	f06f 0003 	mvn.w	r0, #3
    3c0c:	e7f7      	b.n	3bfe <rtl_crypto_aes_cbc_encrypt+0x3e>
    3c0e:	f06f 0005 	mvn.w	r0, #5
    3c12:	e7f4      	b.n	3bfe <rtl_crypto_aes_cbc_encrypt+0x3e>

00003c14 <rtl_crypto_aes_cbc_decrypt>:
    3c14:	b530      	push	{r4, r5, lr}
    3c16:	b087      	sub	sp, #28
    3c18:	461d      	mov	r5, r3
    3c1a:	9b0a      	ldr	r3, [sp, #40]	; 0x28
    3c1c:	b1f2      	cbz	r2, 3c5c <rtl_crypto_aes_cbc_decrypt+0x48>
    3c1e:	0794      	lsls	r4, r2, #30
    3c20:	d11f      	bne.n	3c62 <rtl_crypto_aes_cbc_decrypt+0x4e>
    3c22:	2d10      	cmp	r5, #16
    3c24:	d117      	bne.n	3c56 <rtl_crypto_aes_cbc_decrypt+0x42>
    3c26:	b1c8      	cbz	r0, 3c5c <rtl_crypto_aes_cbc_decrypt+0x48>
    3c28:	fab3 f483 	clz	r4, r3
    3c2c:	0964      	lsrs	r4, r4, #5
    3c2e:	b1ab      	cbz	r3, 3c5c <rtl_crypto_aes_cbc_decrypt+0x48>
    3c30:	9303      	str	r3, [sp, #12]
    3c32:	4613      	mov	r3, r2
    3c34:	9404      	str	r4, [sp, #16]
    3c36:	460a      	mov	r2, r1
    3c38:	4601      	mov	r1, r0
    3c3a:	f244 2000 	movw	r0, #16896	; 0x4200
    3c3e:	9500      	str	r5, [sp, #0]
    3c40:	f2c2 0000 	movt	r0, #8192	; 0x2000
    3c44:	e9cd 4401 	strd	r4, r4, [sp, #4]
    3c48:	f642 5459 	movw	r4, #11609	; 0x2d59
    3c4c:	f2c0 0400 	movt	r4, #0
    3c50:	47a0      	blx	r4
    3c52:	b007      	add	sp, #28
    3c54:	bd30      	pop	{r4, r5, pc}
    3c56:	f06f 0008 	mvn.w	r0, #8
    3c5a:	e7fa      	b.n	3c52 <rtl_crypto_aes_cbc_decrypt+0x3e>
    3c5c:	f06f 0003 	mvn.w	r0, #3
    3c60:	e7f7      	b.n	3c52 <rtl_crypto_aes_cbc_decrypt+0x3e>
    3c62:	f06f 0005 	mvn.w	r0, #5
    3c66:	e7f4      	b.n	3c52 <rtl_crypto_aes_cbc_decrypt+0x3e>

00003c68 <rtl_crypto_aes_ecb_init>:
    3c68:	f244 2300 	movw	r3, #16896	; 0x4200
    3c6c:	f2c2 0300 	movt	r3, #8192	; 0x2000
    3c70:	b570      	push	{r4, r5, r6, lr}
    3c72:	781b      	ldrb	r3, [r3, #0]
    3c74:	4604      	mov	r4, r0
    3c76:	460d      	mov	r5, r1
    3c78:	2b01      	cmp	r3, #1
    3c7a:	d113      	bne.n	3ca4 <rtl_crypto_aes_ecb_init+0x3c>
    3c7c:	b304      	cbz	r4, 3cc0 <rtl_crypto_aes_ecb_init+0x58>
    3c7e:	07a3      	lsls	r3, r4, #30
    3c80:	d11b      	bne.n	3cba <rtl_crypto_aes_ecb_init+0x52>
    3c82:	2d20      	cmp	r5, #32
    3c84:	d816      	bhi.n	3cb4 <rtl_crypto_aes_ecb_init+0x4c>
    3c86:	f642 5e01 	movw	lr, #11521	; 0x2d01
    3c8a:	f244 2000 	movw	r0, #16896	; 0x4200
    3c8e:	462b      	mov	r3, r5
    3c90:	4622      	mov	r2, r4
    3c92:	f2c0 0e00 	movt	lr, #0
    3c96:	2120      	movs	r1, #32
    3c98:	f2c2 0000 	movt	r0, #8192	; 0x2000
    3c9c:	46f4      	mov	ip, lr
    3c9e:	e8bd 4070 	ldmia.w	sp!, {r4, r5, r6, lr}
    3ca2:	4760      	bx	ip
    3ca4:	f645 1040 	movw	r0, #22848	; 0x5940
    3ca8:	218b      	movs	r1, #139	; 0x8b
    3caa:	f2c0 0004 	movt	r0, #4
    3cae:	f007 f9bd 	bl	b02c <io_assert_failed>
    3cb2:	e7e3      	b.n	3c7c <rtl_crypto_aes_ecb_init+0x14>
    3cb4:	f06f 0006 	mvn.w	r0, #6
    3cb8:	bd70      	pop	{r4, r5, r6, pc}
    3cba:	f06f 0005 	mvn.w	r0, #5
    3cbe:	bd70      	pop	{r4, r5, r6, pc}
    3cc0:	f06f 0003 	mvn.w	r0, #3
    3cc4:	bd70      	pop	{r4, r5, r6, pc}
    3cc6:	bf00      	nop

00003cc8 <rtl_crypto_aes_ecb_encrypt>:
    3cc8:	b570      	push	{r4, r5, r6, lr}
    3cca:	b086      	sub	sp, #24
    3ccc:	9e0a      	ldr	r6, [sp, #40]	; 0x28
    3cce:	b1b8      	cbz	r0, 3d00 <rtl_crypto_aes_ecb_encrypt+0x38>
    3cd0:	fab6 f486 	clz	r4, r6
    3cd4:	0964      	lsrs	r4, r4, #5
    3cd6:	b19e      	cbz	r6, 3d00 <rtl_crypto_aes_ecb_encrypt+0x38>
    3cd8:	461d      	mov	r5, r3
    3cda:	9404      	str	r4, [sp, #16]
    3cdc:	4613      	mov	r3, r2
    3cde:	460a      	mov	r2, r1
    3ce0:	4601      	mov	r1, r0
    3ce2:	f244 2000 	movw	r0, #16896	; 0x4200
    3ce6:	9603      	str	r6, [sp, #12]
    3ce8:	f2c2 0000 	movt	r0, #8192	; 0x2000
    3cec:	9500      	str	r5, [sp, #0]
    3cee:	e9cd 4401 	strd	r4, r4, [sp, #4]
    3cf2:	f642 5425 	movw	r4, #11557	; 0x2d25
    3cf6:	f2c0 0400 	movt	r4, #0
    3cfa:	47a0      	blx	r4
    3cfc:	b006      	add	sp, #24
    3cfe:	bd70      	pop	{r4, r5, r6, pc}
    3d00:	f06f 0003 	mvn.w	r0, #3
    3d04:	e7fa      	b.n	3cfc <rtl_crypto_aes_ecb_encrypt+0x34>
    3d06:	bf00      	nop

00003d08 <rtl_crypto_aes_ecb_decrypt>:
    3d08:	b570      	push	{r4, r5, r6, lr}
    3d0a:	b086      	sub	sp, #24
    3d0c:	9e0a      	ldr	r6, [sp, #40]	; 0x28
    3d0e:	b1b8      	cbz	r0, 3d40 <rtl_crypto_aes_ecb_decrypt+0x38>
    3d10:	fab6 f486 	clz	r4, r6
    3d14:	0964      	lsrs	r4, r4, #5
    3d16:	b19e      	cbz	r6, 3d40 <rtl_crypto_aes_ecb_decrypt+0x38>
    3d18:	461d      	mov	r5, r3
    3d1a:	9404      	str	r4, [sp, #16]
    3d1c:	4613      	mov	r3, r2
    3d1e:	460a      	mov	r2, r1
    3d20:	4601      	mov	r1, r0
    3d22:	f244 2000 	movw	r0, #16896	; 0x4200
    3d26:	9603      	str	r6, [sp, #12]
    3d28:	f2c2 0000 	movt	r0, #8192	; 0x2000
    3d2c:	9500      	str	r5, [sp, #0]
    3d2e:	e9cd 4401 	strd	r4, r4, [sp, #4]
    3d32:	f642 5459 	movw	r4, #11609	; 0x2d59
    3d36:	f2c0 0400 	movt	r4, #0
    3d3a:	47a0      	blx	r4
    3d3c:	b006      	add	sp, #24
    3d3e:	bd70      	pop	{r4, r5, r6, pc}
    3d40:	f06f 0003 	mvn.w	r0, #3
    3d44:	e7fa      	b.n	3d3c <rtl_crypto_aes_ecb_decrypt+0x34>
    3d46:	bf00      	nop

00003d48 <rtl_crypto_aes_ctr_init>:
    3d48:	f244 2300 	movw	r3, #16896	; 0x4200
    3d4c:	f2c2 0300 	movt	r3, #8192	; 0x2000
    3d50:	b570      	push	{r4, r5, r6, lr}
    3d52:	781b      	ldrb	r3, [r3, #0]
    3d54:	4604      	mov	r4, r0
    3d56:	460d      	mov	r5, r1
    3d58:	2b01      	cmp	r3, #1
    3d5a:	d113      	bne.n	3d84 <rtl_crypto_aes_ctr_init+0x3c>
    3d5c:	b304      	cbz	r4, 3da0 <rtl_crypto_aes_ctr_init+0x58>
    3d5e:	07a3      	lsls	r3, r4, #30
    3d60:	d11b      	bne.n	3d9a <rtl_crypto_aes_ctr_init+0x52>
    3d62:	2d20      	cmp	r5, #32
    3d64:	d816      	bhi.n	3d94 <rtl_crypto_aes_ctr_init+0x4c>
    3d66:	f642 5e01 	movw	lr, #11521	; 0x2d01
    3d6a:	f244 2000 	movw	r0, #16896	; 0x4200
    3d6e:	462b      	mov	r3, r5
    3d70:	4622      	mov	r2, r4
    3d72:	f2c0 0e00 	movt	lr, #0
    3d76:	2124      	movs	r1, #36	; 0x24
    3d78:	f2c2 0000 	movt	r0, #8192	; 0x2000
    3d7c:	46f4      	mov	ip, lr
    3d7e:	e8bd 4070 	ldmia.w	sp!, {r4, r5, r6, lr}
    3d82:	4760      	bx	ip
    3d84:	f645 1058 	movw	r0, #22872	; 0x5958
    3d88:	21de      	movs	r1, #222	; 0xde
    3d8a:	f2c0 0004 	movt	r0, #4
    3d8e:	f007 f94d 	bl	b02c <io_assert_failed>
    3d92:	e7e3      	b.n	3d5c <rtl_crypto_aes_ctr_init+0x14>
    3d94:	f06f 0006 	mvn.w	r0, #6
    3d98:	bd70      	pop	{r4, r5, r6, pc}
    3d9a:	f06f 0005 	mvn.w	r0, #5
    3d9e:	bd70      	pop	{r4, r5, r6, pc}
    3da0:	f06f 0003 	mvn.w	r0, #3
    3da4:	bd70      	pop	{r4, r5, r6, pc}
    3da6:	bf00      	nop

00003da8 <rtl_crypto_aes_ctr_encrypt>:
    3da8:	b530      	push	{r4, r5, lr}
    3daa:	b087      	sub	sp, #28
    3dac:	461d      	mov	r5, r3
    3dae:	9b0a      	ldr	r3, [sp, #40]	; 0x28
    3db0:	b1ca      	cbz	r2, 3de6 <rtl_crypto_aes_ctr_encrypt+0x3e>
    3db2:	0794      	lsls	r4, r2, #30
    3db4:	d11a      	bne.n	3dec <rtl_crypto_aes_ctr_encrypt+0x44>
    3db6:	b1b0      	cbz	r0, 3de6 <rtl_crypto_aes_ctr_encrypt+0x3e>
    3db8:	fab3 f483 	clz	r4, r3
    3dbc:	0964      	lsrs	r4, r4, #5
    3dbe:	b193      	cbz	r3, 3de6 <rtl_crypto_aes_ctr_encrypt+0x3e>
    3dc0:	9303      	str	r3, [sp, #12]
    3dc2:	4613      	mov	r3, r2
    3dc4:	9404      	str	r4, [sp, #16]
    3dc6:	460a      	mov	r2, r1
    3dc8:	4601      	mov	r1, r0
    3dca:	f244 2000 	movw	r0, #16896	; 0x4200
    3dce:	9500      	str	r5, [sp, #0]
    3dd0:	f2c2 0000 	movt	r0, #8192	; 0x2000
    3dd4:	e9cd 4401 	strd	r4, r4, [sp, #4]
    3dd8:	f642 5425 	movw	r4, #11557	; 0x2d25
    3ddc:	f2c0 0400 	movt	r4, #0
    3de0:	47a0      	blx	r4
    3de2:	b007      	add	sp, #28
    3de4:	bd30      	pop	{r4, r5, pc}
    3de6:	f06f 0003 	mvn.w	r0, #3
    3dea:	e7fa      	b.n	3de2 <rtl_crypto_aes_ctr_encrypt+0x3a>
    3dec:	f06f 0005 	mvn.w	r0, #5
    3df0:	e7f7      	b.n	3de2 <rtl_crypto_aes_ctr_encrypt+0x3a>
    3df2:	bf00      	nop

00003df4 <rtl_crypto_aes_ctr_decrypt>:
    3df4:	b530      	push	{r4, r5, lr}
    3df6:	b087      	sub	sp, #28
    3df8:	461d      	mov	r5, r3
    3dfa:	9b0a      	ldr	r3, [sp, #40]	; 0x28
    3dfc:	b1ca      	cbz	r2, 3e32 <rtl_crypto_aes_ctr_decrypt+0x3e>
    3dfe:	0794      	lsls	r4, r2, #30
    3e00:	d11a      	bne.n	3e38 <rtl_crypto_aes_ctr_decrypt+0x44>
    3e02:	b1b0      	cbz	r0, 3e32 <rtl_crypto_aes_ctr_decrypt+0x3e>
    3e04:	fab3 f483 	clz	r4, r3
    3e08:	0964      	lsrs	r4, r4, #5
    3e0a:	b193      	cbz	r3, 3e32 <rtl_crypto_aes_ctr_decrypt+0x3e>
    3e0c:	9303      	str	r3, [sp, #12]
    3e0e:	4613      	mov	r3, r2
    3e10:	9404      	str	r4, [sp, #16]
    3e12:	460a      	mov	r2, r1
    3e14:	4601      	mov	r1, r0
    3e16:	f244 2000 	movw	r0, #16896	; 0x4200
    3e1a:	9500      	str	r5, [sp, #0]
    3e1c:	f2c2 0000 	movt	r0, #8192	; 0x2000
    3e20:	e9cd 4401 	strd	r4, r4, [sp, #4]
    3e24:	f642 5459 	movw	r4, #11609	; 0x2d59
    3e28:	f2c0 0400 	movt	r4, #0
    3e2c:	47a0      	blx	r4
    3e2e:	b007      	add	sp, #28
    3e30:	bd30      	pop	{r4, r5, pc}
    3e32:	f06f 0003 	mvn.w	r0, #3
    3e36:	e7fa      	b.n	3e2e <rtl_crypto_aes_ctr_decrypt+0x3a>
    3e38:	f06f 0005 	mvn.w	r0, #5
    3e3c:	e7f7      	b.n	3e2e <rtl_crypto_aes_ctr_decrypt+0x3a>
    3e3e:	bf00      	nop

00003e40 <rtl_crypto_aes_cfb_init>:
    3e40:	f244 2300 	movw	r3, #16896	; 0x4200
    3e44:	f2c2 0300 	movt	r3, #8192	; 0x2000
    3e48:	b570      	push	{r4, r5, r6, lr}
    3e4a:	781b      	ldrb	r3, [r3, #0]
    3e4c:	4604      	mov	r4, r0
    3e4e:	460d      	mov	r5, r1
    3e50:	2b01      	cmp	r3, #1
    3e52:	d113      	bne.n	3e7c <rtl_crypto_aes_cfb_init+0x3c>
    3e54:	b30c      	cbz	r4, 3e9a <rtl_crypto_aes_cfb_init+0x5a>
    3e56:	07a3      	lsls	r3, r4, #30
    3e58:	d11c      	bne.n	3e94 <rtl_crypto_aes_cfb_init+0x54>
    3e5a:	2d20      	cmp	r5, #32
    3e5c:	d817      	bhi.n	3e8e <rtl_crypto_aes_cfb_init+0x4e>
    3e5e:	f642 5e01 	movw	lr, #11521	; 0x2d01
    3e62:	f244 2000 	movw	r0, #16896	; 0x4200
    3e66:	462b      	mov	r3, r5
    3e68:	4622      	mov	r2, r4
    3e6a:	f2c0 0e00 	movt	lr, #0
    3e6e:	2122      	movs	r1, #34	; 0x22
    3e70:	f2c2 0000 	movt	r0, #8192	; 0x2000
    3e74:	46f4      	mov	ip, lr
    3e76:	e8bd 4070 	ldmia.w	sp!, {r4, r5, r6, lr}
    3e7a:	4760      	bx	ip
    3e7c:	f645 1070 	movw	r0, #22896	; 0x5970
    3e80:	f44f 719e 	mov.w	r1, #316	; 0x13c
    3e84:	f2c0 0004 	movt	r0, #4
    3e88:	f007 f8d0 	bl	b02c <io_assert_failed>
    3e8c:	e7e2      	b.n	3e54 <rtl_crypto_aes_cfb_init+0x14>
    3e8e:	f06f 0006 	mvn.w	r0, #6
    3e92:	bd70      	pop	{r4, r5, r6, pc}
    3e94:	f06f 0005 	mvn.w	r0, #5
    3e98:	bd70      	pop	{r4, r5, r6, pc}
    3e9a:	f06f 0003 	mvn.w	r0, #3
    3e9e:	bd70      	pop	{r4, r5, r6, pc}

00003ea0 <rtl_crypto_aes_cfb_encrypt>:
    3ea0:	b530      	push	{r4, r5, lr}
    3ea2:	b087      	sub	sp, #28
    3ea4:	461d      	mov	r5, r3
    3ea6:	9b0a      	ldr	r3, [sp, #40]	; 0x28
    3ea8:	b1ca      	cbz	r2, 3ede <rtl_crypto_aes_cfb_encrypt+0x3e>
    3eaa:	0794      	lsls	r4, r2, #30
    3eac:	d11a      	bne.n	3ee4 <rtl_crypto_aes_cfb_encrypt+0x44>
    3eae:	b1b0      	cbz	r0, 3ede <rtl_crypto_aes_cfb_encrypt+0x3e>
    3eb0:	fab3 f483 	clz	r4, r3
    3eb4:	0964      	lsrs	r4, r4, #5
    3eb6:	b193      	cbz	r3, 3ede <rtl_crypto_aes_cfb_encrypt+0x3e>
    3eb8:	9303      	str	r3, [sp, #12]
    3eba:	4613      	mov	r3, r2
    3ebc:	9404      	str	r4, [sp, #16]
    3ebe:	460a      	mov	r2, r1
    3ec0:	4601      	mov	r1, r0
    3ec2:	f244 2000 	movw	r0, #16896	; 0x4200
    3ec6:	9500      	str	r5, [sp, #0]
    3ec8:	f2c2 0000 	movt	r0, #8192	; 0x2000
    3ecc:	e9cd 4401 	strd	r4, r4, [sp, #4]
    3ed0:	f642 5425 	movw	r4, #11557	; 0x2d25
    3ed4:	f2c0 0400 	movt	r4, #0
    3ed8:	47a0      	blx	r4
    3eda:	b007      	add	sp, #28
    3edc:	bd30      	pop	{r4, r5, pc}
    3ede:	f06f 0003 	mvn.w	r0, #3
    3ee2:	e7fa      	b.n	3eda <rtl_crypto_aes_cfb_encrypt+0x3a>
    3ee4:	f06f 0005 	mvn.w	r0, #5
    3ee8:	e7f7      	b.n	3eda <rtl_crypto_aes_cfb_encrypt+0x3a>
    3eea:	bf00      	nop

00003eec <rtl_crypto_aes_cfb_decrypt>:
    3eec:	b530      	push	{r4, r5, lr}
    3eee:	b087      	sub	sp, #28
    3ef0:	461d      	mov	r5, r3
    3ef2:	9b0a      	ldr	r3, [sp, #40]	; 0x28
    3ef4:	b1ca      	cbz	r2, 3f2a <rtl_crypto_aes_cfb_decrypt+0x3e>
    3ef6:	0794      	lsls	r4, r2, #30
    3ef8:	d11a      	bne.n	3f30 <rtl_crypto_aes_cfb_decrypt+0x44>
    3efa:	b1b0      	cbz	r0, 3f2a <rtl_crypto_aes_cfb_decrypt+0x3e>
    3efc:	fab3 f483 	clz	r4, r3
    3f00:	0964      	lsrs	r4, r4, #5
    3f02:	b193      	cbz	r3, 3f2a <rtl_crypto_aes_cfb_decrypt+0x3e>
    3f04:	9303      	str	r3, [sp, #12]
    3f06:	4613      	mov	r3, r2
    3f08:	9404      	str	r4, [sp, #16]
    3f0a:	460a      	mov	r2, r1
    3f0c:	4601      	mov	r1, r0
    3f0e:	f244 2000 	movw	r0, #16896	; 0x4200
    3f12:	9500      	str	r5, [sp, #0]
    3f14:	f2c2 0000 	movt	r0, #8192	; 0x2000
    3f18:	e9cd 4401 	strd	r4, r4, [sp, #4]
    3f1c:	f642 5459 	movw	r4, #11609	; 0x2d59
    3f20:	f2c0 0400 	movt	r4, #0
    3f24:	47a0      	blx	r4
    3f26:	b007      	add	sp, #28
    3f28:	bd30      	pop	{r4, r5, pc}
    3f2a:	f06f 0003 	mvn.w	r0, #3
    3f2e:	e7fa      	b.n	3f26 <rtl_crypto_aes_cfb_decrypt+0x3a>
    3f30:	f06f 0005 	mvn.w	r0, #5
    3f34:	e7f7      	b.n	3f26 <rtl_crypto_aes_cfb_decrypt+0x3a>
    3f36:	bf00      	nop

00003f38 <rtl_crypto_aes_ofb_init>:
    3f38:	f244 2300 	movw	r3, #16896	; 0x4200
    3f3c:	f2c2 0300 	movt	r3, #8192	; 0x2000
    3f40:	b570      	push	{r4, r5, r6, lr}
    3f42:	781b      	ldrb	r3, [r3, #0]
    3f44:	4604      	mov	r4, r0
    3f46:	460d      	mov	r5, r1
    3f48:	2b01      	cmp	r3, #1
    3f4a:	d113      	bne.n	3f74 <rtl_crypto_aes_ofb_init+0x3c>
    3f4c:	b30c      	cbz	r4, 3f92 <rtl_crypto_aes_ofb_init+0x5a>
    3f4e:	07a3      	lsls	r3, r4, #30
    3f50:	d11c      	bne.n	3f8c <rtl_crypto_aes_ofb_init+0x54>
    3f52:	2d20      	cmp	r5, #32
    3f54:	d817      	bhi.n	3f86 <rtl_crypto_aes_ofb_init+0x4e>
    3f56:	f642 5e01 	movw	lr, #11521	; 0x2d01
    3f5a:	f244 2000 	movw	r0, #16896	; 0x4200
    3f5e:	462b      	mov	r3, r5
    3f60:	4622      	mov	r2, r4
    3f62:	f2c0 0e00 	movt	lr, #0
    3f66:	2123      	movs	r1, #35	; 0x23
    3f68:	f2c2 0000 	movt	r0, #8192	; 0x2000
    3f6c:	46f4      	mov	ip, lr
    3f6e:	e8bd 4070 	ldmia.w	sp!, {r4, r5, r6, lr}
    3f72:	4760      	bx	ip
    3f74:	f645 1088 	movw	r0, #22920	; 0x5988
    3f78:	f44f 71cd 	mov.w	r1, #410	; 0x19a
    3f7c:	f2c0 0004 	movt	r0, #4
    3f80:	f007 f854 	bl	b02c <io_assert_failed>
    3f84:	e7e2      	b.n	3f4c <rtl_crypto_aes_ofb_init+0x14>
    3f86:	f06f 0006 	mvn.w	r0, #6
    3f8a:	bd70      	pop	{r4, r5, r6, pc}
    3f8c:	f06f 0005 	mvn.w	r0, #5
    3f90:	bd70      	pop	{r4, r5, r6, pc}
    3f92:	f06f 0003 	mvn.w	r0, #3
    3f96:	bd70      	pop	{r4, r5, r6, pc}

00003f98 <rtl_crypto_aes_ofb_encrypt>:
    3f98:	b530      	push	{r4, r5, lr}
    3f9a:	b087      	sub	sp, #28
    3f9c:	461d      	mov	r5, r3
    3f9e:	9b0a      	ldr	r3, [sp, #40]	; 0x28
    3fa0:	b1ca      	cbz	r2, 3fd6 <rtl_crypto_aes_ofb_encrypt+0x3e>
    3fa2:	0794      	lsls	r4, r2, #30
    3fa4:	d11a      	bne.n	3fdc <rtl_crypto_aes_ofb_encrypt+0x44>
    3fa6:	b1b0      	cbz	r0, 3fd6 <rtl_crypto_aes_ofb_encrypt+0x3e>
    3fa8:	fab3 f483 	clz	r4, r3
    3fac:	0964      	lsrs	r4, r4, #5
    3fae:	b193      	cbz	r3, 3fd6 <rtl_crypto_aes_ofb_encrypt+0x3e>
    3fb0:	9303      	str	r3, [sp, #12]
    3fb2:	4613      	mov	r3, r2
    3fb4:	9404      	str	r4, [sp, #16]
    3fb6:	460a      	mov	r2, r1
    3fb8:	4601      	mov	r1, r0
    3fba:	f244 2000 	movw	r0, #16896	; 0x4200
    3fbe:	9500      	str	r5, [sp, #0]
    3fc0:	f2c2 0000 	movt	r0, #8192	; 0x2000
    3fc4:	e9cd 4401 	strd	r4, r4, [sp, #4]
    3fc8:	f642 5425 	movw	r4, #11557	; 0x2d25
    3fcc:	f2c0 0400 	movt	r4, #0
    3fd0:	47a0      	blx	r4
    3fd2:	b007      	add	sp, #28
    3fd4:	bd30      	pop	{r4, r5, pc}
    3fd6:	f06f 0003 	mvn.w	r0, #3
    3fda:	e7fa      	b.n	3fd2 <rtl_crypto_aes_ofb_encrypt+0x3a>
    3fdc:	f06f 0005 	mvn.w	r0, #5
    3fe0:	e7f7      	b.n	3fd2 <rtl_crypto_aes_ofb_encrypt+0x3a>
    3fe2:	bf00      	nop

00003fe4 <rtl_crypto_aes_ofb_decrypt>:
    3fe4:	b530      	push	{r4, r5, lr}
    3fe6:	b087      	sub	sp, #28
    3fe8:	461d      	mov	r5, r3
    3fea:	9b0a      	ldr	r3, [sp, #40]	; 0x28
    3fec:	b1ca      	cbz	r2, 4022 <rtl_crypto_aes_ofb_decrypt+0x3e>
    3fee:	0794      	lsls	r4, r2, #30
    3ff0:	d11a      	bne.n	4028 <rtl_crypto_aes_ofb_decrypt+0x44>
    3ff2:	b1b0      	cbz	r0, 4022 <rtl_crypto_aes_ofb_decrypt+0x3e>
    3ff4:	fab3 f483 	clz	r4, r3
    3ff8:	0964      	lsrs	r4, r4, #5
    3ffa:	b193      	cbz	r3, 4022 <rtl_crypto_aes_ofb_decrypt+0x3e>
    3ffc:	9303      	str	r3, [sp, #12]
    3ffe:	4613      	mov	r3, r2
    4000:	9404      	str	r4, [sp, #16]
    4002:	460a      	mov	r2, r1
    4004:	4601      	mov	r1, r0
    4006:	f244 2000 	movw	r0, #16896	; 0x4200
    400a:	9500      	str	r5, [sp, #0]
    400c:	f2c2 0000 	movt	r0, #8192	; 0x2000
    4010:	e9cd 4401 	strd	r4, r4, [sp, #4]
    4014:	f642 5459 	movw	r4, #11609	; 0x2d59
    4018:	f2c0 0400 	movt	r4, #0
    401c:	47a0      	blx	r4
    401e:	b007      	add	sp, #28
    4020:	bd30      	pop	{r4, r5, pc}
    4022:	f06f 0003 	mvn.w	r0, #3
    4026:	e7fa      	b.n	401e <rtl_crypto_aes_ofb_decrypt+0x3a>
    4028:	f06f 0005 	mvn.w	r0, #5
    402c:	e7f7      	b.n	401e <rtl_crypto_aes_ofb_decrypt+0x3a>
    402e:	bf00      	nop

00004030 <rtl_crypto_aes_gcm_init>:
    4030:	f244 2300 	movw	r3, #16896	; 0x4200
    4034:	f2c2 0300 	movt	r3, #8192	; 0x2000
    4038:	b570      	push	{r4, r5, r6, lr}
    403a:	781b      	ldrb	r3, [r3, #0]
    403c:	4604      	mov	r4, r0
    403e:	460d      	mov	r5, r1
    4040:	2b01      	cmp	r3, #1
    4042:	d113      	bne.n	406c <rtl_crypto_aes_gcm_init+0x3c>
    4044:	b30c      	cbz	r4, 408a <rtl_crypto_aes_gcm_init+0x5a>
    4046:	07a3      	lsls	r3, r4, #30
    4048:	d11c      	bne.n	4084 <rtl_crypto_aes_gcm_init+0x54>
    404a:	2d20      	cmp	r5, #32
    404c:	d817      	bhi.n	407e <rtl_crypto_aes_gcm_init+0x4e>
    404e:	f642 5e01 	movw	lr, #11521	; 0x2d01
    4052:	f244 2000 	movw	r0, #16896	; 0x4200
    4056:	462b      	mov	r3, r5
    4058:	4622      	mov	r2, r4
    405a:	f2c0 0e00 	movt	lr, #0
    405e:	2128      	movs	r1, #40	; 0x28
    4060:	f2c2 0000 	movt	r0, #8192	; 0x2000
    4064:	46f4      	mov	ip, lr
    4066:	e8bd 4070 	ldmia.w	sp!, {r4, r5, r6, lr}
    406a:	4760      	bx	ip
    406c:	f645 10a0 	movw	r0, #22944	; 0x59a0
    4070:	f44f 71fc 	mov.w	r1, #504	; 0x1f8
    4074:	f2c0 0004 	movt	r0, #4
    4078:	f006 ffd8 	bl	b02c <io_assert_failed>
    407c:	e7e2      	b.n	4044 <rtl_crypto_aes_gcm_init+0x14>
    407e:	f06f 0006 	mvn.w	r0, #6
    4082:	bd70      	pop	{r4, r5, r6, pc}
    4084:	f06f 0005 	mvn.w	r0, #5
    4088:	bd70      	pop	{r4, r5, r6, pc}
    408a:	f06f 0003 	mvn.w	r0, #3
    408e:	bd70      	pop	{r4, r5, r6, pc}

00004090 <rtl_crypto_aes_gcm_encrypt>:
    4090:	e92d 43f0 	stmdb	sp!, {r4, r5, r6, r7, r8, r9, lr}
    4094:	b087      	sub	sp, #28
    4096:	e9dd 980f 	ldrd	r9, r8, [sp, #60]	; 0x3c
    409a:	2a00      	cmp	r2, #0
    409c:	d03b      	beq.n	4116 <rtl_crypto_aes_gcm_encrypt+0x86>
    409e:	460f      	mov	r7, r1
    40a0:	4611      	mov	r1, r2
    40a2:	078a      	lsls	r2, r1, #30
    40a4:	d13a      	bne.n	411c <rtl_crypto_aes_gcm_encrypt+0x8c>
    40a6:	4604      	mov	r4, r0
    40a8:	b3a8      	cbz	r0, 4116 <rtl_crypto_aes_gcm_encrypt+0x86>
    40aa:	461d      	mov	r5, r3
    40ac:	07ab      	lsls	r3, r5, #30
    40ae:	d135      	bne.n	411c <rtl_crypto_aes_gcm_encrypt+0x8c>
    40b0:	f1b9 0f00 	cmp.w	r9, #0
    40b4:	d02f      	beq.n	4116 <rtl_crypto_aes_gcm_encrypt+0x86>
    40b6:	f1b8 0f00 	cmp.w	r8, #0
    40ba:	d02c      	beq.n	4116 <rtl_crypto_aes_gcm_encrypt+0x86>
    40bc:	f241 3689 	movw	r6, #5001	; 0x1389
    40c0:	f244 3068 	movw	r0, #17256	; 0x4368
    40c4:	220c      	movs	r2, #12
    40c6:	f2c0 0601 	movt	r6, #1
    40ca:	f2c2 0000 	movt	r0, #8192	; 0x2000
    40ce:	47b0      	blx	r6
    40d0:	f245 0100 	movw	r1, #20480	; 0x5000
    40d4:	f244 3074 	movw	r0, #17268	; 0x4374
    40d8:	2204      	movs	r2, #4
    40da:	f2c0 0104 	movt	r1, #4
    40de:	f2c2 0000 	movt	r0, #8192	; 0x2000
    40e2:	47b0      	blx	r6
    40e4:	2010      	movs	r0, #16
    40e6:	f244 3368 	movw	r3, #17256	; 0x4368
    40ea:	4621      	mov	r1, r4
    40ec:	9000      	str	r0, [sp, #0]
    40ee:	f642 5425 	movw	r4, #11557	; 0x2d25
    40f2:	980e      	ldr	r0, [sp, #56]	; 0x38
    40f4:	f2c2 0300 	movt	r3, #8192	; 0x2000
    40f8:	463a      	mov	r2, r7
    40fa:	f2c0 0400 	movt	r4, #0
    40fe:	f8cd 8010 	str.w	r8, [sp, #16]
    4102:	f8cd 900c 	str.w	r9, [sp, #12]
    4106:	e9cd 5001 	strd	r5, r0, [sp, #4]
    410a:	f5a3 70b4 	sub.w	r0, r3, #360	; 0x168
    410e:	47a0      	blx	r4
    4110:	b007      	add	sp, #28
    4112:	e8bd 83f0 	ldmia.w	sp!, {r4, r5, r6, r7, r8, r9, pc}
    4116:	f06f 0003 	mvn.w	r0, #3
    411a:	e7f9      	b.n	4110 <rtl_crypto_aes_gcm_encrypt+0x80>
    411c:	f06f 0005 	mvn.w	r0, #5
    4120:	e7f6      	b.n	4110 <rtl_crypto_aes_gcm_encrypt+0x80>
    4122:	bf00      	nop

00004124 <rtl_crypto_aes_gcm_decrypt>:
    4124:	e92d 43f0 	stmdb	sp!, {r4, r5, r6, r7, r8, r9, lr}
    4128:	b087      	sub	sp, #28
    412a:	e9dd 980f 	ldrd	r9, r8, [sp, #60]	; 0x3c
    412e:	2a00      	cmp	r2, #0
    4130:	d03b      	beq.n	41aa <rtl_crypto_aes_gcm_decrypt+0x86>
    4132:	460f      	mov	r7, r1
    4134:	4611      	mov	r1, r2
    4136:	078a      	lsls	r2, r1, #30
    4138:	d13a      	bne.n	41b0 <rtl_crypto_aes_gcm_decrypt+0x8c>
    413a:	4604      	mov	r4, r0
    413c:	b3a8      	cbz	r0, 41aa <rtl_crypto_aes_gcm_decrypt+0x86>
    413e:	461d      	mov	r5, r3
    4140:	07ab      	lsls	r3, r5, #30
    4142:	d135      	bne.n	41b0 <rtl_crypto_aes_gcm_decrypt+0x8c>
    4144:	f1b9 0f00 	cmp.w	r9, #0
    4148:	d02f      	beq.n	41aa <rtl_crypto_aes_gcm_decrypt+0x86>
    414a:	f1b8 0f00 	cmp.w	r8, #0
    414e:	d02c      	beq.n	41aa <rtl_crypto_aes_gcm_decrypt+0x86>
    4150:	f241 3689 	movw	r6, #5001	; 0x1389
    4154:	f244 3068 	movw	r0, #17256	; 0x4368
    4158:	220c      	movs	r2, #12
    415a:	f2c0 0601 	movt	r6, #1
    415e:	f2c2 0000 	movt	r0, #8192	; 0x2000
    4162:	47b0      	blx	r6
    4164:	f245 0100 	movw	r1, #20480	; 0x5000
    4168:	f244 3074 	movw	r0, #17268	; 0x4374
    416c:	2204      	movs	r2, #4
    416e:	f2c0 0104 	movt	r1, #4
    4172:	f2c2 0000 	movt	r0, #8192	; 0x2000
    4176:	47b0      	blx	r6
    4178:	2010      	movs	r0, #16
    417a:	f244 3368 	movw	r3, #17256	; 0x4368
    417e:	4621      	mov	r1, r4
    4180:	9000      	str	r0, [sp, #0]
    4182:	f642 5459 	movw	r4, #11609	; 0x2d59
    4186:	980e      	ldr	r0, [sp, #56]	; 0x38
    4188:	f2c2 0300 	movt	r3, #8192	; 0x2000
    418c:	463a      	mov	r2, r7
    418e:	f2c0 0400 	movt	r4, #0
    4192:	f8cd 8010 	str.w	r8, [sp, #16]
    4196:	f8cd 900c 	str.w	r9, [sp, #12]
    419a:	e9cd 5001 	strd	r5, r0, [sp, #4]
    419e:	f5a3 70b4 	sub.w	r0, r3, #360	; 0x168
    41a2:	47a0      	blx	r4
    41a4:	b007      	add	sp, #28
    41a6:	e8bd 83f0 	ldmia.w	sp!, {r4, r5, r6, r7, r8, r9, pc}
    41aa:	f06f 0003 	mvn.w	r0, #3
    41ae:	e7f9      	b.n	41a4 <rtl_crypto_aes_gcm_decrypt+0x80>
    41b0:	f06f 0005 	mvn.w	r0, #5
    41b4:	e7f6      	b.n	41a4 <rtl_crypto_aes_gcm_decrypt+0x80>
    41b6:	bf00      	nop

000041b8 <hash_save>:
    41b8:	b3c0      	cbz	r0, 422c <hash_save+0x74>
    41ba:	f244 4c40 	movw	ip, #17472	; 0x4440
    41be:	f100 025f 	add.w	r2, r0, #95	; 0x5f
    41c2:	2300      	movs	r3, #0
    41c4:	f2c2 0c00 	movt	ip, #8192	; 0x2000
    41c8:	f89c 1000 	ldrb.w	r1, [ip]
    41cc:	7001      	strb	r1, [r0, #0]
    41ce:	f89c 1001 	ldrb.w	r1, [ip, #1]
    41d2:	7041      	strb	r1, [r0, #1]
    41d4:	f8dc 1028 	ldr.w	r1, [ip, #40]	; 0x28
    41d8:	64c1      	str	r1, [r0, #76]	; 0x4c
    41da:	f89c 1040 	ldrb.w	r1, [ip, #64]	; 0x40
    41de:	f880 1057 	strb.w	r1, [r0, #87]	; 0x57
    41e2:	f8bc 102c 	ldrh.w	r1, [ip, #44]	; 0x2c
    41e6:	f8a0 1054 	strh.w	r1, [r0, #84]	; 0x54
    41ea:	f8dc 1030 	ldr.w	r1, [ip, #48]	; 0x30
    41ee:	6581      	str	r1, [r0, #88]	; 0x58
    41f0:	f89c 1034 	ldrb.w	r1, [ip, #52]	; 0x34
    41f4:	f880 1056 	strb.w	r1, [r0, #86]	; 0x56
    41f8:	f89c 1011 	ldrb.w	r1, [ip, #17]
    41fc:	7081      	strb	r1, [r0, #2]
    41fe:	f89c 1012 	ldrb.w	r1, [ip, #18]
    4202:	70c1      	strb	r1, [r0, #3]
    4204:	f89c 1013 	ldrb.w	r1, [ip, #19]
    4208:	f880 1048 	strb.w	r1, [r0, #72]	; 0x48
    420c:	f89c 1014 	ldrb.w	r1, [ip, #20]
    4210:	f880 1049 	strb.w	r1, [r0, #73]	; 0x49
    4214:	f8dc 100c 	ldr.w	r1, [ip, #12]
    4218:	6501      	str	r1, [r0, #80]	; 0x50
    421a:	eb0c 0103 	add.w	r1, ip, r3
    421e:	3301      	adds	r3, #1
    4220:	f891 11a8 	ldrb.w	r1, [r1, #424]	; 0x1a8
    4224:	2b80      	cmp	r3, #128	; 0x80
    4226:	f802 1f01 	strb.w	r1, [r2, #1]!
    422a:	d1f6      	bne.n	421a <hash_save+0x62>
    422c:	4770      	bx	lr
    422e:	bf00      	nop

00004230 <hash_restore>:
    4230:	2800      	cmp	r0, #0
    4232:	d040      	beq.n	42b6 <hash_restore+0x86>
    4234:	f244 4c40 	movw	ip, #17472	; 0x4440
    4238:	6d81      	ldr	r1, [r0, #88]	; 0x58
    423a:	f2c2 0c00 	movt	ip, #8192	; 0x2000
    423e:	b530      	push	{r4, r5, lr}
    4240:	7803      	ldrb	r3, [r0, #0]
    4242:	f64f 7ea1 	movw	lr, #65441	; 0xffa1
    4246:	f890 4057 	ldrb.w	r4, [r0, #87]	; 0x57
    424a:	7842      	ldrb	r2, [r0, #1]
    424c:	f6cf 7eff 	movt	lr, #65535	; 0xffff
    4250:	f88c 4040 	strb.w	r4, [ip, #64]	; 0x40
    4254:	6cc5      	ldr	r5, [r0, #76]	; 0x4c
    4256:	ebae 0e00 	sub.w	lr, lr, r0
    425a:	f8b0 4054 	ldrh.w	r4, [r0, #84]	; 0x54
    425e:	f88c 3000 	strb.w	r3, [ip]
    4262:	f890 3056 	ldrb.w	r3, [r0, #86]	; 0x56
    4266:	f8cc 5028 	str.w	r5, [ip, #40]	; 0x28
    426a:	f88c 3034 	strb.w	r3, [ip, #52]	; 0x34
    426e:	f8ac 402c 	strh.w	r4, [ip, #44]	; 0x2c
    4272:	f890 3048 	ldrb.w	r3, [r0, #72]	; 0x48
    4276:	f8cc 1030 	str.w	r1, [ip, #48]	; 0x30
    427a:	f88c 2001 	strb.w	r2, [ip, #1]
    427e:	7882      	ldrb	r2, [r0, #2]
    4280:	f88c 2011 	strb.w	r2, [ip, #17]
    4284:	78c2      	ldrb	r2, [r0, #3]
    4286:	f88c 3013 	strb.w	r3, [ip, #19]
    428a:	f890 3049 	ldrb.w	r3, [r0, #73]	; 0x49
    428e:	f88c 2012 	strb.w	r2, [ip, #18]
    4292:	f88c 3014 	strb.w	r3, [ip, #20]
    4296:	f100 035f 	add.w	r3, r0, #95	; 0x5f
    429a:	6d02      	ldr	r2, [r0, #80]	; 0x50
    429c:	30df      	adds	r0, #223	; 0xdf
    429e:	f8cc 200c 	str.w	r2, [ip, #12]
    42a2:	eb0e 0203 	add.w	r2, lr, r3
    42a6:	f813 1f01 	ldrb.w	r1, [r3, #1]!
    42aa:	4462      	add	r2, ip
    42ac:	4283      	cmp	r3, r0
    42ae:	f882 11a8 	strb.w	r1, [r2, #424]	; 0x1a8
    42b2:	d1f6      	bne.n	42a2 <hash_restore+0x72>
    42b4:	bd30      	pop	{r4, r5, pc}
    42b6:	4770      	bx	lr

000042b8 <rtl_crypto_sha1_init>:
    42b8:	b530      	push	{r4, r5, lr}
    42ba:	f244 4540 	movw	r5, #17472	; 0x4440
    42be:	b085      	sub	sp, #20
    42c0:	4604      	mov	r4, r0
    42c2:	f2c2 0500 	movt	r5, #8192	; 0x2000
    42c6:	782b      	ldrb	r3, [r5, #0]
    42c8:	2b01      	cmp	r3, #1
    42ca:	d006      	beq.n	42da <rtl_crypto_sha1_init+0x22>
    42cc:	f246 10b8 	movw	r0, #25016	; 0x61b8
    42d0:	2168      	movs	r1, #104	; 0x68
    42d2:	f2c0 0004 	movt	r0, #4
    42d6:	f006 fea9 	bl	b02c <io_assert_failed>
    42da:	2300      	movs	r3, #0
    42dc:	f244 4040 	movw	r0, #17472	; 0x4440
    42e0:	f04f 31ff 	mov.w	r1, #4294967295
    42e4:	9300      	str	r3, [sp, #0]
    42e6:	461a      	mov	r2, r3
    42e8:	f2c2 0000 	movt	r0, #8192	; 0x2000
    42ec:	e9cd 3301 	strd	r3, r3, [sp, #4]
    42f0:	f885 3034 	strb.w	r3, [r5, #52]	; 0x34
    42f4:	f885 3040 	strb.w	r3, [r5, #64]	; 0x40
    42f8:	f641 6549 	movw	r5, #7753	; 0x1e49
    42fc:	f2c0 0500 	movt	r5, #0
    4300:	47a8      	blx	r5
    4302:	4605      	mov	r5, r0
    4304:	b1f4      	cbz	r4, 4344 <rtl_crypto_sha1_init+0x8c>
    4306:	4620      	mov	r0, r4
    4308:	f7ff ff56 	bl	41b8 <hash_save>
    430c:	f242 3201 	movw	r2, #8961	; 0x2301
    4310:	f64a 3389 	movw	r3, #43913	; 0xab89
    4314:	f64d 41fe 	movw	r1, #56574	; 0xdcfe
    4318:	f2c6 7245 	movt	r2, #26437	; 0x6745
    431c:	f6ce 73cd 	movt	r3, #61389	; 0xefcd
    4320:	f6c9 01ba 	movt	r1, #39098	; 0x98ba
    4324:	e9c4 2302 	strd	r2, r3, [r4, #8]
    4328:	f245 4276 	movw	r2, #21622	; 0x5476
    432c:	f24e 13f0 	movw	r3, #57840	; 0xe1f0
    4330:	6121      	str	r1, [r4, #16]
    4332:	f2c1 0232 	movt	r2, #4146	; 0x1032
    4336:	f2cc 33d2 	movt	r3, #50130	; 0xc3d2
    433a:	6162      	str	r2, [r4, #20]
    433c:	2201      	movs	r2, #1
    433e:	61a3      	str	r3, [r4, #24]
    4340:	f884 204b 	strb.w	r2, [r4, #75]	; 0x4b
    4344:	4628      	mov	r0, r5
    4346:	b005      	add	sp, #20
    4348:	bd30      	pop	{r4, r5, pc}
    434a:	bf00      	nop

0000434c <rtl_crypto_sha1_process>:
    434c:	f244 4c40 	movw	ip, #17472	; 0x4440
    4350:	f2c2 0c00 	movt	ip, #8192	; 0x2000
    4354:	f8dc 300c 	ldr.w	r3, [ip, #12]
    4358:	f013 0303 	ands.w	r3, r3, #3
    435c:	d112      	bne.n	4384 <rtl_crypto_sha1_process+0x38>
    435e:	b510      	push	{r4, lr}
    4360:	4614      	mov	r4, r2
    4362:	b086      	sub	sp, #24
    4364:	460a      	mov	r2, r1
    4366:	4601      	mov	r1, r0
    4368:	4660      	mov	r0, ip
    436a:	e9cd 3402 	strd	r3, r4, [sp, #8]
    436e:	f242 3449 	movw	r4, #9033	; 0x2349
    4372:	f2c0 0400 	movt	r4, #0
    4376:	e9cd 3304 	strd	r3, r3, [sp, #16]
    437a:	e9cd 3300 	strd	r3, r3, [sp]
    437e:	47a0      	blx	r4
    4380:	b006      	add	sp, #24
    4382:	bd10      	pop	{r4, pc}
    4384:	f06f 0009 	mvn.w	r0, #9
    4388:	4770      	bx	lr
    438a:	bf00      	nop

0000438c <rtl_crypto_sha1_update_rom>:
    438c:	b5f8      	push	{r3, r4, r5, r6, r7, lr}
    438e:	f244 4540 	movw	r5, #17472	; 0x4440
    4392:	2301      	movs	r3, #1
    4394:	4606      	mov	r6, r0
    4396:	4610      	mov	r0, r2
    4398:	f2c2 0500 	movt	r5, #8192	; 0x2000
    439c:	f882 304a 	strb.w	r3, [r2, #74]	; 0x4a
    43a0:	4614      	mov	r4, r2
    43a2:	460f      	mov	r7, r1
    43a4:	f7ff ff44 	bl	4230 <hash_restore>
    43a8:	782b      	ldrb	r3, [r5, #0]
    43aa:	2b01      	cmp	r3, #1
    43ac:	d117      	bne.n	43de <rtl_crypto_sha1_update_rom+0x52>
    43ae:	b1fe      	cbz	r6, 43f0 <rtl_crypto_sha1_update_rom+0x64>
    43b0:	68eb      	ldr	r3, [r5, #12]
    43b2:	079b      	lsls	r3, r3, #30
    43b4:	d124      	bne.n	4400 <rtl_crypto_sha1_update_rom+0x74>
    43b6:	f642 33f1 	movw	r3, #11249	; 0x2bf1
    43ba:	2201      	movs	r2, #1
    43bc:	4621      	mov	r1, r4
    43be:	f104 0008 	add.w	r0, r4, #8
    43c2:	f2c0 0300 	movt	r3, #0
    43c6:	f885 2034 	strb.w	r2, [r5, #52]	; 0x34
    43ca:	e9c5 670e 	strd	r6, r7, [r5, #56]	; 0x38
    43ce:	4798      	blx	r3
    43d0:	4603      	mov	r3, r0
    43d2:	4620      	mov	r0, r4
    43d4:	461c      	mov	r4, r3
    43d6:	f7ff feef 	bl	41b8 <hash_save>
    43da:	4620      	mov	r0, r4
    43dc:	bdf8      	pop	{r3, r4, r5, r6, r7, pc}
    43de:	f246 10d0 	movw	r0, #25040	; 0x61d0
    43e2:	21bf      	movs	r1, #191	; 0xbf
    43e4:	f2c0 0004 	movt	r0, #4
