
/home/zjian_zhang/Dplus_Z/project/realtek_amebaDplus_va0_example/GCC-RELEASE/project_km4/asdk/image/target_rom.axf:     file format elf32-littlearm


Disassembly of section .rom.text:

00000000 <__vectors_table>:
       0:	30009ffc 	.word	0x30009ffc
       4:	00009001 	.word	0x00009001
       8:	00009011 	.word	0x00009011
       c:	00009015 	.word	0x00009015
      10:	00009019 	.word	0x00009019
      14:	0000901d 	.word	0x0000901d
      18:	00009021 	.word	0x00009021
      1c:	00009025 	.word	0x00009025
	...

00000140 <CRYPTO_MemDump>:
     140:	2800      	cmp	r0, #0
     142:	f000 8090 	beq.w	266 <CRYPTO_MemDump+0x126>
     146:	e92d 4ff0 	stmdb	sp!, {r4, r5, r6, r7, r8, r9, sl, fp, lr}
     14a:	460e      	mov	r6, r1
     14c:	b085      	sub	sp, #20
     14e:	2900      	cmp	r1, #0
     150:	d036      	beq.n	1c0 <CRYPTO_MemDump+0x80>
     152:	f244 0704 	movw	r7, #16388	; 0x4004
     156:	4682      	mov	sl, r0
     158:	f2c2 0700 	movt	r7, #8192	; 0x2000
     15c:	6838      	ldr	r0, [r7, #0]
     15e:	2a00      	cmp	r2, #0
     160:	d04c      	beq.n	1fc <CRYPTO_MemDump+0xbc>
     162:	f410 3000 	ands.w	r0, r0, #131072	; 0x20000
     166:	d141      	bne.n	1ec <CRYPTO_MemDump+0xac>
     168:	f006 030f 	and.w	r3, r6, #15
     16c:	f246 490c 	movw	r9, #25612	; 0x640c
     170:	0936      	lsrs	r6, r6, #4
     172:	f04f 0b00 	mov.w	fp, #0
     176:	9301      	str	r3, [sp, #4]
     178:	f246 33fc 	movw	r3, #25596	; 0x63fc
     17c:	f2c0 0904 	movt	r9, #4
     180:	f106 0801 	add.w	r8, r6, #1
     184:	f2c0 0304 	movt	r3, #4
     188:	9303      	str	r3, [sp, #12]
     18a:	f246 4308 	movw	r3, #25608	; 0x6408
     18e:	f2c0 0304 	movt	r3, #4
     192:	9302      	str	r3, [sp, #8]
     194:	45b3      	cmp	fp, r6
     196:	d049      	beq.n	22c <CRYPTO_MemDump+0xec>
     198:	2510      	movs	r5, #16
     19a:	2800      	cmp	r0, #0
     19c:	d14b      	bne.n	236 <CRYPTO_MemDump+0xf6>
     19e:	2400      	movs	r4, #0
     1a0:	2c08      	cmp	r4, #8
     1a2:	d010      	beq.n	1c6 <CRYPTO_MemDump+0x86>
     1a4:	b9c8      	cbnz	r0, 1da <CRYPTO_MemDump+0x9a>
     1a6:	3401      	adds	r4, #1
     1a8:	42a5      	cmp	r5, r4
     1aa:	d1f9      	bne.n	1a0 <CRYPTO_MemDump+0x60>
     1ac:	2c10      	cmp	r4, #16
     1ae:	d128      	bne.n	202 <CRYPTO_MemDump+0xc2>
     1b0:	f10b 0b01 	add.w	fp, fp, #1
     1b4:	f10a 0a10 	add.w	sl, sl, #16
     1b8:	45d8      	cmp	r8, fp
     1ba:	dceb      	bgt.n	194 <CRYPTO_MemDump+0x54>
     1bc:	2800      	cmp	r0, #0
     1be:	d142      	bne.n	246 <CRYPTO_MemDump+0x106>
     1c0:	b005      	add	sp, #20
     1c2:	e8bd 8ff0 	ldmia.w	sp!, {r4, r5, r6, r7, r8, r9, sl, fp, pc}
     1c6:	2800      	cmp	r0, #0
     1c8:	d0ed      	beq.n	1a6 <CRYPTO_MemDump+0x66>
     1ca:	9802      	ldr	r0, [sp, #8]
     1cc:	f00d fdc2 	bl	dd54 <DiagPrintf>
     1d0:	6838      	ldr	r0, [r7, #0]
     1d2:	f400 3000 	and.w	r0, r0, #131072	; 0x20000
     1d6:	2800      	cmp	r0, #0
     1d8:	d0e5      	beq.n	1a6 <CRYPTO_MemDump+0x66>
     1da:	f81a 1004 	ldrb.w	r1, [sl, r4]
     1de:	4648      	mov	r0, r9
     1e0:	f00d fdb8 	bl	dd54 <DiagPrintf>
     1e4:	6838      	ldr	r0, [r7, #0]
     1e6:	f400 3000 	and.w	r0, r0, #131072	; 0x20000
     1ea:	e7dc      	b.n	1a6 <CRYPTO_MemDump+0x66>
     1ec:	f246 30f8 	movw	r0, #25592	; 0x63f8
     1f0:	4611      	mov	r1, r2
     1f2:	f2c0 0004 	movt	r0, #4
     1f6:	f00d fdad 	bl	dd54 <DiagPrintf>
     1fa:	6838      	ldr	r0, [r7, #0]
     1fc:	f400 3000 	and.w	r0, r0, #131072	; 0x20000
     200:	e7b2      	b.n	168 <CRYPTO_MemDump+0x28>
     202:	2c07      	cmp	r4, #7
     204:	dc00      	bgt.n	208 <CRYPTO_MemDump+0xc8>
     206:	bb38      	cbnz	r0, 258 <CRYPTO_MemDump+0x118>
     208:	f246 4514 	movw	r5, #25620	; 0x6414
     20c:	f1c4 0410 	rsb	r4, r4, #16
     210:	f2c0 0504 	movt	r5, #4
     214:	b918      	cbnz	r0, 21e <CRYPTO_MemDump+0xde>
     216:	3c01      	subs	r4, #1
     218:	d0ca      	beq.n	1b0 <CRYPTO_MemDump+0x70>
     21a:	2800      	cmp	r0, #0
     21c:	d0fb      	beq.n	216 <CRYPTO_MemDump+0xd6>
     21e:	4628      	mov	r0, r5
     220:	f00d fd98 	bl	dd54 <DiagPrintf>
     224:	6838      	ldr	r0, [r7, #0]
     226:	f400 3000 	and.w	r0, r0, #131072	; 0x20000
     22a:	e7f4      	b.n	216 <CRYPTO_MemDump+0xd6>
     22c:	9d01      	ldr	r5, [sp, #4]
     22e:	2d00      	cmp	r5, #0
     230:	d0c4      	beq.n	1bc <CRYPTO_MemDump+0x7c>
     232:	2800      	cmp	r0, #0
     234:	d0b3      	beq.n	19e <CRYPTO_MemDump+0x5e>
     236:	4651      	mov	r1, sl
     238:	9803      	ldr	r0, [sp, #12]
     23a:	f00d fd8b 	bl	dd54 <DiagPrintf>
     23e:	6838      	ldr	r0, [r7, #0]
     240:	f400 3000 	and.w	r0, r0, #131072	; 0x20000
     244:	e7ab      	b.n	19e <CRYPTO_MemDump+0x5e>
     246:	f246 401c 	movw	r0, #25628	; 0x641c
     24a:	f2c0 0004 	movt	r0, #4
     24e:	b005      	add	sp, #20
     250:	e8bd 4ff0 	ldmia.w	sp!, {r4, r5, r6, r7, r8, r9, sl, fp, lr}
     254:	f00d bd7e 	b.w	dd54 <DiagPrintf>
     258:	9802      	ldr	r0, [sp, #8]
     25a:	f00d fd7b 	bl	dd54 <DiagPrintf>
     25e:	6838      	ldr	r0, [r7, #0]
     260:	f400 3000 	and.w	r0, r0, #131072	; 0x20000
     264:	e7d0      	b.n	208 <CRYPTO_MemDump+0xc8>
     266:	4770      	bx	lr

00000268 <CRYPTO_SetSrcDesc>:
     268:	b570      	push	{r4, r5, r6, lr}
     26a:	f64d 5355 	movw	r3, #56661	; 0xdd55
     26e:	4606      	mov	r6, r0
     270:	460d      	mov	r5, r1
     272:	bb0a      	cbnz	r2, 2b8 <CRYPTO_SetSrcDesc+0x50>
     274:	2400      	movs	r4, #0
     276:	f2c0 0300 	movt	r3, #0
     27a:	4622      	mov	r2, r4
     27c:	f2c4 0410 	movt	r4, #16400	; 0x4010
     280:	f2c5 0210 	movt	r2, #20496	; 0x5010
     284:	f44f 1c80 	mov.w	ip, #1048576	; 0x100000
     288:	e843 f300 	tt	r3, r3
     28c:	f413 0f80 	tst.w	r3, #4194304	; 0x400000
     290:	bf18      	it	ne
     292:	4614      	movne	r4, r2
     294:	e002      	b.n	29c <CRYPTO_SetSrcDesc+0x34>
     296:	f1bc 0c01 	subs.w	ip, ip, #1
     29a:	d01e      	beq.n	2da <CRYPTO_SetSrcDesc+0x72>
     29c:	6823      	ldr	r3, [r4, #0]
     29e:	b2db      	uxtb	r3, r3
     2a0:	2b00      	cmp	r3, #0
     2a2:	d0f8      	beq.n	296 <CRYPTO_SetSrcDesc+0x2e>
     2a4:	f244 0304 	movw	r3, #16388	; 0x4004
     2a8:	f2c2 0300 	movt	r3, #8192	; 0x2000
     2ac:	689b      	ldr	r3, [r3, #8]
     2ae:	049a      	lsls	r2, r3, #18
     2b0:	d40a      	bmi.n	2c8 <CRYPTO_SetSrcDesc+0x60>
     2b2:	6066      	str	r6, [r4, #4]
     2b4:	60a5      	str	r5, [r4, #8]
     2b6:	bd70      	pop	{r4, r5, r6, pc}
     2b8:	f44f 4400 	mov.w	r4, #32768	; 0x8000
     2bc:	f2c0 0300 	movt	r3, #0
     2c0:	4622      	mov	r2, r4
     2c2:	f2c4 0410 	movt	r4, #16400	; 0x4010
     2c6:	e7db      	b.n	280 <CRYPTO_SetSrcDesc+0x18>
     2c8:	f246 4020 	movw	r0, #25632	; 0x6420
     2cc:	462a      	mov	r2, r5
     2ce:	4631      	mov	r1, r6
     2d0:	f2c0 0004 	movt	r0, #4
     2d4:	f00d fd3e 	bl	dd54 <DiagPrintf>
     2d8:	e7eb      	b.n	2b2 <CRYPTO_SetSrcDesc+0x4a>
     2da:	f244 0304 	movw	r3, #16388	; 0x4004
     2de:	f2c2 0300 	movt	r3, #8192	; 0x2000
     2e2:	681b      	ldr	r3, [r3, #0]
     2e4:	049b      	lsls	r3, r3, #18
     2e6:	d5e6      	bpl.n	2b6 <CRYPTO_SetSrcDesc+0x4e>
     2e8:	f246 4054 	movw	r0, #25684	; 0x6454
     2ec:	e8bd 4070 	ldmia.w	sp!, {r4, r5, r6, lr}
     2f0:	f2c0 0004 	movt	r0, #4
     2f4:	f00d bd2e 	b.w	dd54 <DiagPrintf>

000002f8 <CRYPTO_SetDstDesc>:
     2f8:	b570      	push	{r4, r5, r6, lr}
     2fa:	f64d 5355 	movw	r3, #56661	; 0xdd55
     2fe:	4606      	mov	r6, r0
     300:	460d      	mov	r5, r1
     302:	bb6a      	cbnz	r2, 360 <CRYPTO_SetDstDesc+0x68>
     304:	2400      	movs	r4, #0
     306:	f2c0 0300 	movt	r3, #0
     30a:	4622      	mov	r2, r4
     30c:	f2c4 0410 	movt	r4, #16400	; 0x4010
     310:	e843 f300 	tt	r3, r3
     314:	f2c5 0210 	movt	r2, #20496	; 0x5010
     318:	f413 0f80 	tst.w	r3, #4194304	; 0x400000
     31c:	bf18      	it	ne
     31e:	4614      	movne	r4, r2
     320:	f504 5480 	add.w	r4, r4, #4096	; 0x1000
     324:	6823      	ldr	r3, [r4, #0]
     326:	b2db      	uxtb	r3, r3
     328:	b14b      	cbz	r3, 33e <CRYPTO_SetDstDesc+0x46>
     32a:	f244 0304 	movw	r3, #16388	; 0x4004
     32e:	f2c2 0300 	movt	r3, #8192	; 0x2000
     332:	689b      	ldr	r3, [r3, #8]
     334:	049a      	lsls	r2, r3, #18
     336:	d41b      	bmi.n	370 <CRYPTO_SetDstDesc+0x78>
     338:	6066      	str	r6, [r4, #4]
     33a:	60a5      	str	r5, [r4, #8]
     33c:	bd70      	pop	{r4, r5, r6, pc}
     33e:	f244 0304 	movw	r3, #16388	; 0x4004
     342:	f2c2 0300 	movt	r3, #8192	; 0x2000
     346:	681b      	ldr	r3, [r3, #0]
     348:	049b      	lsls	r3, r3, #18
     34a:	d5f7      	bpl.n	33c <CRYPTO_SetDstDesc+0x44>
     34c:	6821      	ldr	r1, [r4, #0]
     34e:	f246 40c0 	movw	r0, #25792	; 0x64c0
     352:	b2c9      	uxtb	r1, r1
     354:	f2c0 0004 	movt	r0, #4
     358:	e8bd 4070 	ldmia.w	sp!, {r4, r5, r6, lr}
     35c:	f00d bcfa 	b.w	dd54 <DiagPrintf>
     360:	f44f 4400 	mov.w	r4, #32768	; 0x8000
     364:	f2c0 0300 	movt	r3, #0
     368:	4622      	mov	r2, r4
     36a:	f2c4 0410 	movt	r4, #16400	; 0x4010
     36e:	e7cf      	b.n	310 <CRYPTO_SetDstDesc+0x18>
     370:	f246 408c 	movw	r0, #25740	; 0x648c
     374:	462a      	mov	r2, r5
     376:	4631      	mov	r1, r6
     378:	f2c0 0004 	movt	r0, #4
     37c:	f00d fcea 	bl	dd54 <DiagPrintf>
     380:	6066      	str	r6, [r4, #4]
     382:	60a5      	str	r5, [r4, #8]
     384:	e7da      	b.n	33c <CRYPTO_SetDstDesc+0x44>
     386:	bf00      	nop

00000388 <CRYPTO_CleanCmdOk>:
     388:	f64d 5255 	movw	r2, #56661	; 0xdd55
     38c:	b9c8      	cbnz	r0, 3c2 <CRYPTO_CleanCmdOk+0x3a>
     38e:	2300      	movs	r3, #0
     390:	f2c0 0200 	movt	r2, #0
     394:	4619      	mov	r1, r3
     396:	f2c4 0310 	movt	r3, #16400	; 0x4010
     39a:	e842 f200 	tt	r2, r2
     39e:	f2c5 0110 	movt	r1, #20496	; 0x5010
     3a2:	f412 0f80 	tst.w	r2, #4194304	; 0x400000
     3a6:	bf18      	it	ne
     3a8:	460b      	movne	r3, r1
     3aa:	691a      	ldr	r2, [r3, #16]
     3ac:	6919      	ldr	r1, [r3, #16]
     3ae:	0212      	lsls	r2, r2, #8
     3b0:	f402 027f 	and.w	r2, r2, #16711680	; 0xff0000
     3b4:	430a      	orrs	r2, r1
     3b6:	611a      	str	r2, [r3, #16]
     3b8:	691a      	ldr	r2, [r3, #16]
     3ba:	f042 0210 	orr.w	r2, r2, #16
     3be:	611a      	str	r2, [r3, #16]
     3c0:	4770      	bx	lr
     3c2:	f44f 4300 	mov.w	r3, #32768	; 0x8000
     3c6:	f2c0 0200 	movt	r2, #0
     3ca:	4619      	mov	r1, r3
     3cc:	f2c4 0310 	movt	r3, #16400	; 0x4010
     3d0:	e7e3      	b.n	39a <CRYPTO_CleanCmdOk+0x12>
     3d2:	bf00      	nop

000003d4 <CRYPTO_ClearAllINT>:
     3d4:	f64d 5255 	movw	r2, #56661	; 0xdd55
     3d8:	b508      	push	{r3, lr}
     3da:	b9b0      	cbnz	r0, 40a <CRYPTO_ClearAllINT+0x36>
     3dc:	2300      	movs	r3, #0
     3de:	f2c0 0200 	movt	r2, #0
     3e2:	4619      	mov	r1, r3
     3e4:	f2c4 0310 	movt	r3, #16400	; 0x4010
     3e8:	e842 f200 	tt	r2, r2
     3ec:	f2c5 0110 	movt	r1, #20496	; 0x5010
     3f0:	f412 0f80 	tst.w	r2, #4194304	; 0x400000
     3f4:	f240 3289 	movw	r2, #905	; 0x389
     3f8:	bf18      	it	ne
     3fa:	460b      	movne	r3, r1
     3fc:	f64f 71ff 	movw	r1, #65535	; 0xffff
     400:	f2c0 0200 	movt	r2, #0
     404:	61d9      	str	r1, [r3, #28]
     406:	4790      	blx	r2
     408:	bd08      	pop	{r3, pc}
     40a:	f44f 4300 	mov.w	r3, #32768	; 0x8000
     40e:	f2c0 0200 	movt	r2, #0
     412:	4619      	mov	r1, r3
     414:	f2c4 0310 	movt	r3, #16400	; 0x4010
     418:	e7e6      	b.n	3e8 <CRYPTO_ClearAllINT+0x14>
     41a:	bf00      	nop

0000041c <CRYPTO_SetCmdBuf>:
     41c:	b5f8      	push	{r3, r4, r5, r6, r7, lr}
     41e:	f641 53e5 	movw	r3, #7653	; 0x1de5
     422:	4604      	mov	r4, r0
     424:	460d      	mov	r5, r1
     426:	2220      	movs	r2, #32
     428:	f2c0 0301 	movt	r3, #1
     42c:	2100      	movs	r1, #0
     42e:	f500 70c4 	add.w	r0, r0, #392	; 0x188
     432:	6ce7      	ldr	r7, [r4, #76]	; 0x4c
     434:	6d66      	ldr	r6, [r4, #84]	; 0x54
     436:	4798      	blx	r3
     438:	68e3      	ldr	r3, [r4, #12]
     43a:	3301      	adds	r3, #1
     43c:	d06d      	beq.n	51a <CRYPTO_SetCmdBuf+0xfe>
     43e:	1e2b      	subs	r3, r5, #0
     440:	f894 518a 	ldrb.w	r5, [r4, #394]	; 0x18a
     444:	f894 202c 	ldrb.w	r2, [r4, #44]	; 0x2c
     448:	bf18      	it	ne
     44a:	2301      	movne	r3, #1
     44c:	f025 057c 	bic.w	r5, r5, #124	; 0x7c
     450:	2a01      	cmp	r2, #1
     452:	ea4f 1383 	mov.w	r3, r3, lsl #6
     456:	f043 0304 	orr.w	r3, r3, #4
     45a:	ea43 0305 	orr.w	r3, r3, r5
     45e:	f884 318a 	strb.w	r3, [r4, #394]	; 0x18a
     462:	d04d      	beq.n	500 <CRYPTO_SetCmdBuf+0xe4>
     464:	7c63      	ldrb	r3, [r4, #17]
     466:	7c22      	ldrb	r2, [r4, #16]
     468:	b303      	cbz	r3, 4ac <CRYPTO_SetCmdBuf+0x90>
     46a:	f894 318f 	ldrb.w	r3, [r4, #399]	; 0x18f
     46e:	f063 0355 	orn	r3, r3, #85	; 0x55
     472:	f884 318f 	strb.w	r3, [r4, #399]	; 0x18f
     476:	2a00      	cmp	r2, #0
     478:	f000 8099 	beq.w	5ae <CRYPTO_SetCmdBuf+0x192>
     47c:	f894 3189 	ldrb.w	r3, [r4, #393]	; 0x189
     480:	f894 202d 	ldrb.w	r2, [r4, #45]	; 0x2d
     484:	f043 0320 	orr.w	r3, r3, #32
     488:	2a01      	cmp	r2, #1
     48a:	f884 3189 	strb.w	r3, [r4, #393]	; 0x189
     48e:	f000 80e0 	beq.w	652 <CRYPTO_SetCmdBuf+0x236>
     492:	09b6      	lsrs	r6, r6, #6
     494:	f8a4 6192 	strh.w	r6, [r4, #402]	; 0x192
     498:	f894 318a 	ldrb.w	r3, [r4, #394]	; 0x18a
     49c:	f003 037d 	and.w	r3, r3, #125	; 0x7d
     4a0:	f884 318a 	strb.w	r3, [r4, #394]	; 0x18a
     4a4:	2340      	movs	r3, #64	; 0x40
     4a6:	f884 318b 	strb.w	r3, [r4, #395]	; 0x18b
     4aa:	bdf8      	pop	{r3, r4, r5, r6, r7, pc}
     4ac:	7ca3      	ldrb	r3, [r4, #18]
     4ae:	2b00      	cmp	r3, #0
     4b0:	d173      	bne.n	59a <CRYPTO_SetCmdBuf+0x17e>
     4b2:	7d23      	ldrb	r3, [r4, #20]
     4b4:	2b00      	cmp	r3, #0
     4b6:	d0de      	beq.n	476 <CRYPTO_SetCmdBuf+0x5a>
     4b8:	2b1c      	cmp	r3, #28
     4ba:	f000 80dc 	beq.w	676 <CRYPTO_SetCmdBuf+0x25a>
     4be:	2b20      	cmp	r3, #32
     4c0:	f000 8095 	beq.w	5ee <CRYPTO_SetCmdBuf+0x1d2>
     4c4:	2b30      	cmp	r3, #48	; 0x30
     4c6:	f000 809d 	beq.w	604 <CRYPTO_SetCmdBuf+0x1e8>
     4ca:	2b40      	cmp	r3, #64	; 0x40
     4cc:	d1d3      	bne.n	476 <CRYPTO_SetCmdBuf+0x5a>
     4ce:	f8d4 3188 	ldr.w	r3, [r4, #392]	; 0x188
     4d2:	2105      	movs	r1, #5
     4d4:	f361 3390 	bfi	r3, r1, #14, #3
     4d8:	f8c4 3188 	str.w	r3, [r4, #392]	; 0x188
     4dc:	2a00      	cmp	r2, #0
     4de:	f000 809b 	beq.w	618 <CRYPTO_SetCmdBuf+0x1fc>
     4e2:	f894 3189 	ldrb.w	r3, [r4, #393]	; 0x189
     4e6:	f894 202d 	ldrb.w	r2, [r4, #45]	; 0x2d
     4ea:	f043 0320 	orr.w	r3, r3, #32
     4ee:	2a01      	cmp	r2, #1
     4f0:	f884 3189 	strb.w	r3, [r4, #393]	; 0x189
     4f4:	f000 80ca 	beq.w	68c <CRYPTO_SetCmdBuf+0x270>
     4f8:	09f6      	lsrs	r6, r6, #7
     4fa:	f8a4 6192 	strh.w	r6, [r4, #402]	; 0x192
     4fe:	e7cb      	b.n	498 <CRYPTO_SetCmdBuf+0x7c>
     500:	b2db      	uxtb	r3, r3
     502:	2200      	movs	r2, #0
     504:	f043 0320 	orr.w	r3, r3, #32
     508:	f884 202c 	strb.w	r2, [r4, #44]	; 0x2c
     50c:	7c22      	ldrb	r2, [r4, #16]
     50e:	f884 318a 	strb.w	r3, [r4, #394]	; 0x18a
     512:	7c63      	ldrb	r3, [r4, #17]
     514:	2b00      	cmp	r3, #0
     516:	d0c9      	beq.n	4ac <CRYPTO_SetCmdBuf+0x90>
     518:	e7a7      	b.n	46a <CRYPTO_SetCmdBuf+0x4e>
     51a:	f894 2188 	ldrb.w	r2, [r4, #392]	; 0x188
     51e:	6863      	ldr	r3, [r4, #4]
     520:	f363 0203 	bfi	r2, r3, #0, #4
     524:	f884 2188 	strb.w	r2, [r4, #392]	; 0x188
     528:	7a22      	ldrb	r2, [r4, #8]
     52a:	b34a      	cbz	r2, 580 <CRYPTO_SetCmdBuf+0x164>
     52c:	f894 2188 	ldrb.w	r2, [r4, #392]	; 0x188
     530:	f36f 1205 	bfc	r2, #4, #2
     534:	f884 2188 	strb.w	r2, [r4, #392]	; 0x188
     538:	6c62      	ldr	r2, [r4, #68]	; 0x44
     53a:	2a18      	cmp	r2, #24
     53c:	d072      	beq.n	624 <CRYPTO_SetCmdBuf+0x208>
     53e:	2a20      	cmp	r2, #32
     540:	d078      	beq.n	634 <CRYPTO_SetCmdBuf+0x218>
     542:	2a10      	cmp	r2, #16
     544:	d07e      	beq.n	644 <CRYPTO_SetCmdBuf+0x228>
     546:	f894 218c 	ldrb.w	r2, [r4, #396]	; 0x18c
     54a:	360f      	adds	r6, #15
     54c:	f003 030f 	and.w	r3, r3, #15
     550:	69a1      	ldr	r1, [r4, #24]
     552:	0936      	lsrs	r6, r6, #4
     554:	f361 1207 	bfi	r2, r1, #4, #4
     558:	2b08      	cmp	r3, #8
     55a:	f8a4 6192 	strh.w	r6, [r4, #402]	; 0x192
     55e:	f884 218c 	strb.w	r2, [r4, #396]	; 0x18c
     562:	d10d      	bne.n	580 <CRYPTO_SetCmdBuf+0x164>
     564:	370f      	adds	r7, #15
     566:	f894 3191 	ldrb.w	r3, [r4, #401]	; 0x191
     56a:	b2d2      	uxtb	r2, r2
     56c:	69e1      	ldr	r1, [r4, #28]
     56e:	093f      	lsrs	r7, r7, #4
     570:	f361 0203 	bfi	r2, r1, #0, #4
     574:	f367 0305 	bfi	r3, r7, #0, #6
     578:	f884 218c 	strb.w	r2, [r4, #396]	; 0x18c
     57c:	f884 3191 	strb.w	r3, [r4, #401]	; 0x191
     580:	7a63      	ldrb	r3, [r4, #9]
     582:	2b00      	cmp	r3, #0
     584:	d18e      	bne.n	4a4 <CRYPTO_SetCmdBuf+0x88>
     586:	f894 3188 	ldrb.w	r3, [r4, #392]	; 0x188
     58a:	f043 0380 	orr.w	r3, r3, #128	; 0x80
     58e:	f884 3188 	strb.w	r3, [r4, #392]	; 0x188
     592:	2340      	movs	r3, #64	; 0x40
     594:	f884 318b 	strb.w	r3, [r4, #395]	; 0x18b
     598:	bdf8      	pop	{r3, r4, r5, r6, r7, pc}
     59a:	f8d4 3188 	ldr.w	r3, [r4, #392]	; 0x188
     59e:	2101      	movs	r1, #1
     5a0:	f361 3390 	bfi	r3, r1, #14, #3
     5a4:	f8c4 3188 	str.w	r3, [r4, #392]	; 0x188
     5a8:	2a00      	cmp	r2, #0
     5aa:	f47f af67 	bne.w	47c <CRYPTO_SetCmdBuf+0x60>
     5ae:	f894 302d 	ldrb.w	r3, [r4, #45]	; 0x2d
     5b2:	2b01      	cmp	r3, #1
     5b4:	f47f af6d 	bne.w	492 <CRYPTO_SetCmdBuf+0x76>
     5b8:	f894 218c 	ldrb.w	r2, [r4, #396]	; 0x18c
     5bc:	360f      	adds	r6, #15
     5be:	69a1      	ldr	r1, [r4, #24]
     5c0:	6b23      	ldr	r3, [r4, #48]	; 0x30
     5c2:	0936      	lsrs	r6, r6, #4
     5c4:	f361 1207 	bfi	r2, r1, #4, #4
     5c8:	00db      	lsls	r3, r3, #3
     5ca:	f8a4 6192 	strh.w	r6, [r4, #402]	; 0x192
     5ce:	f884 218c 	strb.w	r2, [r4, #396]	; 0x18c
     5d2:	f8c4 3194 	str.w	r3, [r4, #404]	; 0x194
     5d6:	f894 318a 	ldrb.w	r3, [r4, #394]	; 0x18a
     5da:	f003 037d 	and.w	r3, r3, #125	; 0x7d
     5de:	f043 0302 	orr.w	r3, r3, #2
     5e2:	f884 318a 	strb.w	r3, [r4, #394]	; 0x18a
     5e6:	2340      	movs	r3, #64	; 0x40
     5e8:	f884 318b 	strb.w	r3, [r4, #395]	; 0x18b
     5ec:	bdf8      	pop	{r3, r4, r5, r6, r7, pc}
     5ee:	f8d4 3188 	ldr.w	r3, [r4, #392]	; 0x188
     5f2:	2103      	movs	r1, #3
     5f4:	f361 3390 	bfi	r3, r1, #14, #3
     5f8:	f8c4 3188 	str.w	r3, [r4, #392]	; 0x188
     5fc:	2a00      	cmp	r2, #0
     5fe:	f47f af3d 	bne.w	47c <CRYPTO_SetCmdBuf+0x60>
     602:	e7d4      	b.n	5ae <CRYPTO_SetCmdBuf+0x192>
     604:	f8d4 3188 	ldr.w	r3, [r4, #392]	; 0x188
     608:	2104      	movs	r1, #4
     60a:	f361 3390 	bfi	r3, r1, #14, #3
     60e:	f8c4 3188 	str.w	r3, [r4, #392]	; 0x188
     612:	2a00      	cmp	r2, #0
     614:	f47f af65 	bne.w	4e2 <CRYPTO_SetCmdBuf+0xc6>
     618:	f894 302d 	ldrb.w	r3, [r4, #45]	; 0x2d
     61c:	2b01      	cmp	r3, #1
     61e:	f47f af6b 	bne.w	4f8 <CRYPTO_SetCmdBuf+0xdc>
     622:	e7c9      	b.n	5b8 <CRYPTO_SetCmdBuf+0x19c>
     624:	f894 2189 	ldrb.w	r2, [r4, #393]	; 0x189
     628:	2101      	movs	r1, #1
     62a:	f361 0201 	bfi	r2, r1, #0, #2
     62e:	f884 2189 	strb.w	r2, [r4, #393]	; 0x189
     632:	e788      	b.n	546 <CRYPTO_SetCmdBuf+0x12a>
     634:	f894 2189 	ldrb.w	r2, [r4, #393]	; 0x189
     638:	2102      	movs	r1, #2
     63a:	f361 0201 	bfi	r2, r1, #0, #2
     63e:	f884 2189 	strb.w	r2, [r4, #393]	; 0x189
     642:	e780      	b.n	546 <CRYPTO_SetCmdBuf+0x12a>
     644:	f894 2189 	ldrb.w	r2, [r4, #393]	; 0x189
     648:	f36f 0201 	bfc	r2, #0, #2
     64c:	f884 2189 	strb.w	r2, [r4, #393]	; 0x189
     650:	e779      	b.n	546 <CRYPTO_SetCmdBuf+0x12a>
     652:	6b23      	ldr	r3, [r4, #48]	; 0x30
     654:	360f      	adds	r6, #15
     656:	f894 218c 	ldrb.w	r2, [r4, #396]	; 0x18c
     65a:	69a1      	ldr	r1, [r4, #24]
     65c:	00db      	lsls	r3, r3, #3
     65e:	0936      	lsrs	r6, r6, #4
     660:	f361 1207 	bfi	r2, r1, #4, #4
     664:	f503 7300 	add.w	r3, r3, #512	; 0x200
     668:	f8a4 6192 	strh.w	r6, [r4, #402]	; 0x192
     66c:	f884 218c 	strb.w	r2, [r4, #396]	; 0x18c
     670:	f8c4 3194 	str.w	r3, [r4, #404]	; 0x194
     674:	e7af      	b.n	5d6 <CRYPTO_SetCmdBuf+0x1ba>
     676:	f8d4 3188 	ldr.w	r3, [r4, #392]	; 0x188
     67a:	2102      	movs	r1, #2
     67c:	f361 3390 	bfi	r3, r1, #14, #3
     680:	f8c4 3188 	str.w	r3, [r4, #392]	; 0x188
     684:	2a00      	cmp	r2, #0
     686:	f47f aef9 	bne.w	47c <CRYPTO_SetCmdBuf+0x60>
     68a:	e790      	b.n	5ae <CRYPTO_SetCmdBuf+0x192>
     68c:	6b23      	ldr	r3, [r4, #48]	; 0x30
     68e:	360f      	adds	r6, #15
     690:	f894 218c 	ldrb.w	r2, [r4, #396]	; 0x18c
     694:	69a1      	ldr	r1, [r4, #24]
     696:	00db      	lsls	r3, r3, #3
     698:	0936      	lsrs	r6, r6, #4
     69a:	f361 1207 	bfi	r2, r1, #4, #4
     69e:	f503 6380 	add.w	r3, r3, #1024	; 0x400
     6a2:	f8a4 6192 	strh.w	r6, [r4, #402]	; 0x192
     6a6:	f884 218c 	strb.w	r2, [r4, #396]	; 0x18c
     6aa:	f8c4 3194 	str.w	r3, [r4, #404]	; 0x194
     6ae:	e792      	b.n	5d6 <CRYPTO_SetCmdBuf+0x1ba>

000006b0 <CRYPTO_SrcDescKeyIv>:
     6b0:	e92d 4ff0 	stmdb	sp!, {r4, r5, r6, r7, r8, r9, sl, fp, lr}
     6b4:	461d      	mov	r5, r3
     6b6:	f890 302d 	ldrb.w	r3, [r0, #45]	; 0x2d
     6ba:	b083      	sub	sp, #12
     6bc:	f04f 0b00 	mov.w	fp, #0
     6c0:	3b00      	subs	r3, #0
     6c2:	460e      	mov	r6, r1
     6c4:	4629      	mov	r1, r5
     6c6:	4604      	mov	r4, r0
     6c8:	bf18      	it	ne
     6ca:	2301      	movne	r3, #1
     6cc:	4690      	mov	r8, r2
     6ce:	f8dd 9030 	ldr.w	r9, [sp, #48]	; 0x30
     6d2:	f504 7ac4 	add.w	sl, r4, #392	; 0x188
     6d6:	019b      	lsls	r3, r3, #6
     6d8:	f443 43c6 	orr.w	r3, r3, #25344	; 0x6300
     6dc:	f363 4b1f 	bfi	fp, r3, #16, #16
     6e0:	f7ff fe9c 	bl	41c <CRYPTO_SetCmdBuf>
     6e4:	f44f 436d 	mov.w	r3, #60672	; 0xed00
     6e8:	f2ce 0300 	movt	r3, #57344	; 0xe000
     6ec:	695b      	ldr	r3, [r3, #20]
     6ee:	03d8      	lsls	r0, r3, #15
     6f0:	d516      	bpl.n	720 <CRYPTO_SrcDescKeyIv+0x70>
     6f2:	f01a 011f 	ands.w	r1, sl, #31
     6f6:	f040 80d6 	bne.w	8a6 <CRYPTO_SrcDescKeyIv+0x1f6>
     6fa:	4653      	mov	r3, sl
     6fc:	2120      	movs	r1, #32
     6fe:	f3bf 8f4f 	dsb	sy
     702:	f44f 406d 	mov.w	r0, #60672	; 0xed00
     706:	4419      	add	r1, r3
     708:	f2ce 0000 	movt	r0, #57344	; 0xe000
     70c:	f8c0 3270 	str.w	r3, [r0, #624]	; 0x270
     710:	3320      	adds	r3, #32
     712:	1aca      	subs	r2, r1, r3
     714:	2a00      	cmp	r2, #0
     716:	dcf9      	bgt.n	70c <CRYPTO_SrcDescKeyIv+0x5c>
     718:	f3bf 8f4f 	dsb	sy
     71c:	f3bf 8f6f 	isb	sy
     720:	f244 0704 	movw	r7, #16388	; 0x4004
     724:	f2c2 0700 	movt	r7, #8192	; 0x2000
     728:	68bb      	ldr	r3, [r7, #8]
     72a:	0499      	lsls	r1, r3, #18
     72c:	f100 8131 	bmi.w	992 <CRYPTO_SrcDescKeyIv+0x2e2>
     730:	4651      	mov	r1, sl
     732:	4658      	mov	r0, fp
     734:	464a      	mov	r2, r9
     736:	f7ff fd97 	bl	268 <CRYPTO_SetSrcDesc>
     73a:	6863      	ldr	r3, [r4, #4]
     73c:	3301      	adds	r3, #1
     73e:	d03a      	beq.n	7b6 <CRYPTO_SrcDescKeyIv+0x106>
     740:	f44f 406d 	mov.w	r0, #60672	; 0xed00
     744:	2100      	movs	r1, #0
     746:	f2ce 0000 	movt	r0, #57344	; 0xe000
     74a:	e9d4 3a11 	ldrd	r3, sl, [r4, #68]	; 0x44
     74e:	6942      	ldr	r2, [r0, #20]
     750:	f3c3 0b83 	ubfx	fp, r3, #2, #4
     754:	03d2      	lsls	r2, r2, #15
     756:	f04b 4bc0 	orr.w	fp, fp, #1610612736	; 0x60000000
     75a:	d523      	bpl.n	7a4 <CRYPTO_SrcDescKeyIv+0xf4>
     75c:	ea0a 0203 	and.w	r2, sl, r3
     760:	3201      	adds	r2, #1
     762:	f000 8174 	beq.w	a4e <CRYPTO_SrcDescKeyIv+0x39e>
     766:	f01a 021f 	ands.w	r2, sl, #31
     76a:	f040 8164 	bne.w	a36 <CRYPTO_SrcDescKeyIv+0x386>
     76e:	461a      	mov	r2, r3
     770:	4651      	mov	r1, sl
     772:	f3bf 8f4f 	dsb	sy
     776:	2a00      	cmp	r2, #0
     778:	dd10      	ble.n	79c <CRYPTO_SrcDescKeyIv+0xec>
     77a:	1e50      	subs	r0, r2, #1
     77c:	f44f 4c6d 	mov.w	ip, #60672	; 0xed00
     780:	f101 0220 	add.w	r2, r1, #32
     784:	f020 001f 	bic.w	r0, r0, #31
     788:	f2ce 0c00 	movt	ip, #57344	; 0xe000
     78c:	4410      	add	r0, r2
     78e:	4282      	cmp	r2, r0
     790:	f8cc 1270 	str.w	r1, [ip, #624]	; 0x270
     794:	4611      	mov	r1, r2
     796:	f102 0220 	add.w	r2, r2, #32
     79a:	d1f8      	bne.n	78e <CRYPTO_SrcDescKeyIv+0xde>
     79c:	f3bf 8f4f 	dsb	sy
     7a0:	f3bf 8f6f 	isb	sy
     7a4:	68ba      	ldr	r2, [r7, #8]
     7a6:	0492      	lsls	r2, r2, #18
     7a8:	f100 80d5 	bmi.w	956 <CRYPTO_SrcDescKeyIv+0x2a6>
     7ac:	4651      	mov	r1, sl
     7ae:	4658      	mov	r0, fp
     7b0:	464a      	mov	r2, r9
     7b2:	f7ff fd59 	bl	268 <CRYPTO_SetSrcDesc>
     7b6:	2e00      	cmp	r6, #0
     7b8:	d03d      	beq.n	836 <CRYPTO_SrcDescKeyIv+0x186>
     7ba:	f1b8 0f00 	cmp.w	r8, #0
     7be:	d03a      	beq.n	836 <CRYPTO_SrcDescKeyIv+0x186>
     7c0:	f44f 416d 	mov.w	r1, #60672	; 0xed00
     7c4:	ea4f 0a88 	mov.w	sl, r8, lsl #2
     7c8:	2200      	movs	r2, #0
     7ca:	f2ce 0100 	movt	r1, #57344	; 0xe000
     7ce:	f00a 0af0 	and.w	sl, sl, #240	; 0xf0
     7d2:	694b      	ldr	r3, [r1, #20]
     7d4:	f04a 4ac0 	orr.w	sl, sl, #1610612736	; 0x60000000
     7d8:	03d8      	lsls	r0, r3, #15
     7da:	d523      	bpl.n	824 <CRYPTO_SrcDescKeyIv+0x174>
     7dc:	ea06 0308 	and.w	r3, r6, r8
     7e0:	3301      	adds	r3, #1
     7e2:	f000 8162 	beq.w	aaa <CRYPTO_SrcDescKeyIv+0x3fa>
     7e6:	f016 031f 	ands.w	r3, r6, #31
     7ea:	f040 8128 	bne.w	a3e <CRYPTO_SrcDescKeyIv+0x38e>
     7ee:	4643      	mov	r3, r8
     7f0:	4632      	mov	r2, r6
     7f2:	f3bf 8f4f 	dsb	sy
     7f6:	2b00      	cmp	r3, #0
     7f8:	dd10      	ble.n	81c <CRYPTO_SrcDescKeyIv+0x16c>
     7fa:	1e59      	subs	r1, r3, #1
     7fc:	f44f 406d 	mov.w	r0, #60672	; 0xed00
     800:	f102 0320 	add.w	r3, r2, #32
     804:	f021 011f 	bic.w	r1, r1, #31
     808:	f2ce 0000 	movt	r0, #57344	; 0xe000
     80c:	4419      	add	r1, r3
     80e:	428b      	cmp	r3, r1
     810:	f8c0 2270 	str.w	r2, [r0, #624]	; 0x270
     814:	461a      	mov	r2, r3
     816:	f103 0320 	add.w	r3, r3, #32
     81a:	d1f8      	bne.n	80e <CRYPTO_SrcDescKeyIv+0x15e>
     81c:	f3bf 8f4f 	dsb	sy
     820:	f3bf 8f6f 	isb	sy
     824:	68bb      	ldr	r3, [r7, #8]
     826:	049a      	lsls	r2, r3, #18
     828:	f100 80d0 	bmi.w	9cc <CRYPTO_SrcDescKeyIv+0x31c>
     82c:	4631      	mov	r1, r6
     82e:	4650      	mov	r0, sl
     830:	464a      	mov	r2, r9
     832:	f7ff fd19 	bl	268 <CRYPTO_SetSrcDesc>
     836:	7c23      	ldrb	r3, [r4, #16]
     838:	b36b      	cbz	r3, 896 <CRYPTO_SrcDescKeyIv+0x1e6>
     83a:	f44f 436d 	mov.w	r3, #60672	; 0xed00
     83e:	f44f 4b80 	mov.w	fp, #16384	; 0x4000
     842:	f104 0664 	add.w	r6, r4, #100	; 0x64
     846:	f2ce 0300 	movt	r3, #57344	; 0xe000
     84a:	f2c6 0b00 	movt	fp, #24576	; 0x6000
     84e:	695b      	ldr	r3, [r3, #20]
     850:	03db      	lsls	r3, r3, #15
     852:	d517      	bpl.n	884 <CRYPTO_SrcDescKeyIv+0x1d4>
     854:	f016 011f 	ands.w	r1, r6, #31
     858:	f040 80b3 	bne.w	9c2 <CRYPTO_SrcDescKeyIv+0x312>
     85c:	4633      	mov	r3, r6
     85e:	f44f 7182 	mov.w	r1, #260	; 0x104
     862:	f3bf 8f4f 	dsb	sy
     866:	f44f 406d 	mov.w	r0, #60672	; 0xed00
     86a:	4419      	add	r1, r3
     86c:	f2ce 0000 	movt	r0, #57344	; 0xe000
     870:	f8c0 3270 	str.w	r3, [r0, #624]	; 0x270
     874:	3320      	adds	r3, #32
     876:	1aca      	subs	r2, r1, r3
     878:	2a00      	cmp	r2, #0
     87a:	dcf9      	bgt.n	870 <CRYPTO_SrcDescKeyIv+0x1c0>
     87c:	f3bf 8f4f 	dsb	sy
     880:	f3bf 8f6f 	isb	sy
     884:	68bb      	ldr	r3, [r7, #8]
     886:	049f      	lsls	r7, r3, #18
     888:	f100 80b8 	bmi.w	9fc <CRYPTO_SrcDescKeyIv+0x34c>
     88c:	4631      	mov	r1, r6
     88e:	4658      	mov	r0, fp
     890:	464a      	mov	r2, r9
     892:	f7ff fce9 	bl	268 <CRYPTO_SetSrcDesc>
     896:	b11d      	cbz	r5, 8a0 <CRYPTO_SrcDescKeyIv+0x1f0>
     898:	f895 3062 	ldrb.w	r3, [r5, #98]	; 0x62
     89c:	2b01      	cmp	r3, #1
     89e:	d006      	beq.n	8ae <CRYPTO_SrcDescKeyIv+0x1fe>
     8a0:	b003      	add	sp, #12
     8a2:	e8bd 8ff0 	ldmia.w	sp!, {r4, r5, r6, r7, r8, r9, sl, fp, pc}
     8a6:	3120      	adds	r1, #32
     8a8:	f02a 031f 	bic.w	r3, sl, #31
     8ac:	e727      	b.n	6fe <CRYPTO_SrcDescKeyIv+0x4e>
     8ae:	6aa0      	ldr	r0, [r4, #40]	; 0x28
     8b0:	281c      	cmp	r0, #28
     8b2:	f000 80c8 	beq.w	a46 <CRYPTO_SrcDescKeyIv+0x396>
     8b6:	2830      	cmp	r0, #48	; 0x30
     8b8:	f000 811c 	beq.w	af4 <CRYPTO_SrcDescKeyIv+0x444>
     8bc:	0881      	lsrs	r1, r0, #2
     8be:	f3c0 0785 	ubfx	r7, r0, #2, #6
     8c2:	f895 3063 	ldrb.w	r3, [r5, #99]	; 0x63
     8c6:	2b01      	cmp	r3, #1
     8c8:	f000 8110 	beq.w	aec <CRYPTO_SrcDescKeyIv+0x43c>
     8cc:	78ab      	ldrb	r3, [r5, #2]
     8ce:	2b01      	cmp	r3, #1
     8d0:	d00a      	beq.n	8e8 <CRYPTO_SrcDescKeyIv+0x238>
     8d2:	b149      	cbz	r1, 8e8 <CRYPTO_SrcDescKeyIv+0x238>
     8d4:	f105 031c 	add.w	r3, r5, #28
     8d8:	eb03 0181 	add.w	r1, r3, r1, lsl #2
     8dc:	f853 2f04 	ldr.w	r2, [r3, #4]!
     8e0:	ba12      	rev	r2, r2
     8e2:	428b      	cmp	r3, r1
     8e4:	601a      	str	r2, [r3, #0]
     8e6:	d1f9      	bne.n	8dc <CRYPTO_SrcDescKeyIv+0x22c>
     8e8:	f44f 446d 	mov.w	r4, #60672	; 0xed00
     8ec:	f105 0120 	add.w	r1, r5, #32
     8f0:	f2ce 0400 	movt	r4, #57344	; 0xe000
     8f4:	6963      	ldr	r3, [r4, #20]
     8f6:	03dd      	lsls	r5, r3, #15
     8f8:	d524      	bpl.n	944 <CRYPTO_SrcDescKeyIv+0x294>
     8fa:	ea01 0300 	and.w	r3, r1, r0
     8fe:	3301      	adds	r3, #1
     900:	f000 80fc 	beq.w	afc <CRYPTO_SrcDescKeyIv+0x44c>
     904:	f011 031f 	ands.w	r3, r1, #31
     908:	f000 8117 	beq.w	b3a <CRYPTO_SrcDescKeyIv+0x48a>
     90c:	4418      	add	r0, r3
     90e:	f021 031f 	bic.w	r3, r1, #31
     912:	f3bf 8f4f 	dsb	sy
     916:	2800      	cmp	r0, #0
     918:	dd10      	ble.n	93c <CRYPTO_SrcDescKeyIv+0x28c>
     91a:	3801      	subs	r0, #1
     91c:	f103 0220 	add.w	r2, r3, #32
     920:	f44f 446d 	mov.w	r4, #60672	; 0xed00
     924:	f020 001f 	bic.w	r0, r0, #31
     928:	f2ce 0400 	movt	r4, #57344	; 0xe000
     92c:	4410      	add	r0, r2
     92e:	4290      	cmp	r0, r2
     930:	f8c4 3270 	str.w	r3, [r4, #624]	; 0x270
     934:	4613      	mov	r3, r2
     936:	f102 0220 	add.w	r2, r2, #32
     93a:	d1f8      	bne.n	92e <CRYPTO_SrcDescKeyIv+0x27e>
     93c:	f3bf 8f4f 	dsb	sy
     940:	f3bf 8f6f 	isb	sy
     944:	f447 40c0 	orr.w	r0, r7, #24576	; 0x6000
     948:	464a      	mov	r2, r9
     94a:	0400      	lsls	r0, r0, #16
     94c:	f7ff fc8c 	bl	268 <CRYPTO_SetSrcDesc>
     950:	b003      	add	sp, #12
     952:	e8bd 8ff0 	ldmia.w	sp!, {r4, r5, r6, r7, r8, r9, sl, fp, pc}
     956:	f246 5100 	movw	r1, #25856	; 0x6500
     95a:	f246 5018 	movw	r0, #25880	; 0x6518
     95e:	4652      	mov	r2, sl
     960:	9301      	str	r3, [sp, #4]
     962:	f2c0 0104 	movt	r1, #4
     966:	f2c0 0004 	movt	r0, #4
     96a:	f00d f9f3 	bl	dd54 <DiagPrintf>
     96e:	9b01      	ldr	r3, [sp, #4]
     970:	f246 5258 	movw	r2, #25944	; 0x6558
     974:	4650      	mov	r0, sl
     976:	4619      	mov	r1, r3
     978:	f240 1341 	movw	r3, #321	; 0x141
     97c:	f2c0 0204 	movt	r2, #4
     980:	f2c0 0300 	movt	r3, #0
     984:	4798      	blx	r3
     986:	4651      	mov	r1, sl
     988:	4658      	mov	r0, fp
     98a:	464a      	mov	r2, r9
     98c:	f7ff fc6c 	bl	268 <CRYPTO_SetSrcDesc>
     990:	e711      	b.n	7b6 <CRYPTO_SrcDescKeyIv+0x106>
     992:	f246 5100 	movw	r1, #25856	; 0x6500
     996:	f246 5018 	movw	r0, #25880	; 0x6518
     99a:	4652      	mov	r2, sl
     99c:	2320      	movs	r3, #32
     99e:	f2c0 0104 	movt	r1, #4
     9a2:	f2c0 0004 	movt	r0, #4
     9a6:	f00d f9d5 	bl	dd54 <DiagPrintf>
     9aa:	f246 5244 	movw	r2, #25924	; 0x6544
     9ae:	f240 1341 	movw	r3, #321	; 0x141
     9b2:	2120      	movs	r1, #32
     9b4:	f2c0 0204 	movt	r2, #4
     9b8:	4650      	mov	r0, sl
     9ba:	f2c0 0300 	movt	r3, #0
     9be:	4798      	blx	r3
     9c0:	e6b6      	b.n	730 <CRYPTO_SrcDescKeyIv+0x80>
     9c2:	f501 7182 	add.w	r1, r1, #260	; 0x104
     9c6:	f026 031f 	bic.w	r3, r6, #31
     9ca:	e74a      	b.n	862 <CRYPTO_SrcDescKeyIv+0x1b2>
     9cc:	f246 5100 	movw	r1, #25856	; 0x6500
     9d0:	f246 5018 	movw	r0, #25880	; 0x6518
     9d4:	4632      	mov	r2, r6
     9d6:	4643      	mov	r3, r8
     9d8:	f2c0 0104 	movt	r1, #4
     9dc:	f2c0 0004 	movt	r0, #4
     9e0:	f00d f9b8 	bl	dd54 <DiagPrintf>
     9e4:	f246 5260 	movw	r2, #25952	; 0x6560
     9e8:	f240 1341 	movw	r3, #321	; 0x141
     9ec:	4641      	mov	r1, r8
     9ee:	f2c0 0204 	movt	r2, #4
     9f2:	4630      	mov	r0, r6
     9f4:	f2c0 0300 	movt	r3, #0
     9f8:	4798      	blx	r3
     9fa:	e717      	b.n	82c <CRYPTO_SrcDescKeyIv+0x17c>
     9fc:	f246 5100 	movw	r1, #25856	; 0x6500
     a00:	f246 5018 	movw	r0, #25880	; 0x6518
     a04:	4632      	mov	r2, r6
     a06:	2380      	movs	r3, #128	; 0x80
     a08:	f2c0 0104 	movt	r1, #4
     a0c:	f2c0 0004 	movt	r0, #4
     a10:	f00d f9a0 	bl	dd54 <DiagPrintf>
     a14:	f246 5268 	movw	r2, #25960	; 0x6568
     a18:	f240 1341 	movw	r3, #321	; 0x141
     a1c:	4630      	mov	r0, r6
     a1e:	f2c0 0204 	movt	r2, #4
     a22:	2180      	movs	r1, #128	; 0x80
     a24:	f2c0 0300 	movt	r3, #0
     a28:	4798      	blx	r3
     a2a:	4631      	mov	r1, r6
     a2c:	4658      	mov	r0, fp
     a2e:	464a      	mov	r2, r9
     a30:	f7ff fc1a 	bl	268 <CRYPTO_SetSrcDesc>
     a34:	e72f      	b.n	896 <CRYPTO_SrcDescKeyIv+0x1e6>
     a36:	441a      	add	r2, r3
     a38:	f02a 011f 	bic.w	r1, sl, #31
     a3c:	e699      	b.n	772 <CRYPTO_SrcDescKeyIv+0xc2>
     a3e:	4443      	add	r3, r8
     a40:	f026 021f 	bic.w	r2, r6, #31
     a44:	e6d5      	b.n	7f2 <CRYPTO_SrcDescKeyIv+0x142>
     a46:	2108      	movs	r1, #8
     a48:	2020      	movs	r0, #32
     a4a:	460f      	mov	r7, r1
     a4c:	e739      	b.n	8c2 <CRYPTO_SrcDescKeyIv+0x212>
     a4e:	f8c0 1084 	str.w	r1, [r0, #132]	; 0x84
     a52:	f3bf 8f4f 	dsb	sy
     a56:	f8d0 2080 	ldr.w	r2, [r0, #128]	; 0x80
     a5a:	9701      	str	r7, [sp, #4]
     a5c:	462f      	mov	r7, r5
     a5e:	f3c2 3e4e 	ubfx	lr, r2, #13, #15
     a62:	f3c2 02c9 	ubfx	r2, r2, #3, #10
     a66:	4625      	mov	r5, r4
     a68:	461c      	mov	r4, r3
     a6a:	ea4f 1e4e 	mov.w	lr, lr, lsl #5
     a6e:	4613      	mov	r3, r2
     a70:	f643 7ce0 	movw	ip, #16352	; 0x3fe0
     a74:	461a      	mov	r2, r3
     a76:	ea0e 0c0c 	and.w	ip, lr, ip
     a7a:	ea4c 7182 	orr.w	r1, ip, r2, lsl #30
     a7e:	3a01      	subs	r2, #1
     a80:	f8c0 1274 	str.w	r1, [r0, #628]	; 0x274
     a84:	d2f9      	bcs.n	a7a <CRYPTO_SrcDescKeyIv+0x3ca>
     a86:	f1ae 0e20 	sub.w	lr, lr, #32
     a8a:	f11e 0f20 	cmn.w	lr, #32
     a8e:	d1ef      	bne.n	a70 <CRYPTO_SrcDescKeyIv+0x3c0>
     a90:	4623      	mov	r3, r4
     a92:	462c      	mov	r4, r5
     a94:	463d      	mov	r5, r7
     a96:	9f01      	ldr	r7, [sp, #4]
     a98:	f3bf 8f4f 	dsb	sy
     a9c:	f3bf 8f6f 	isb	sy
     aa0:	68ba      	ldr	r2, [r7, #8]
     aa2:	0492      	lsls	r2, r2, #18
     aa4:	f57f ae82 	bpl.w	7ac <CRYPTO_SrcDescKeyIv+0xfc>
     aa8:	e755      	b.n	956 <CRYPTO_SrcDescKeyIv+0x2a6>
     aaa:	f8c1 2084 	str.w	r2, [r1, #132]	; 0x84
     aae:	f3bf 8f4f 	dsb	sy
     ab2:	f8d1 3080 	ldr.w	r3, [r1, #128]	; 0x80
     ab6:	f643 7be0 	movw	fp, #16352	; 0x3fe0
     aba:	f3c3 3c4e 	ubfx	ip, r3, #13, #15
     abe:	f3c3 0ec9 	ubfx	lr, r3, #3, #10
     ac2:	ea4f 1c4c 	mov.w	ip, ip, lsl #5
     ac6:	ea0c 000b 	and.w	r0, ip, fp
     aca:	4673      	mov	r3, lr
     acc:	ea40 7283 	orr.w	r2, r0, r3, lsl #30
     ad0:	3b01      	subs	r3, #1
     ad2:	f8c1 2274 	str.w	r2, [r1, #628]	; 0x274
     ad6:	d2f9      	bcs.n	acc <CRYPTO_SrcDescKeyIv+0x41c>
     ad8:	f1ac 0c20 	sub.w	ip, ip, #32
     adc:	f11c 0f20 	cmn.w	ip, #32
     ae0:	d1f1      	bne.n	ac6 <CRYPTO_SrcDescKeyIv+0x416>
     ae2:	f3bf 8f4f 	dsb	sy
     ae6:	f3bf 8f6f 	isb	sy
     aea:	e69b      	b.n	824 <CRYPTO_SrcDescKeyIv+0x174>
     aec:	2300      	movs	r3, #0
     aee:	f885 3063 	strb.w	r3, [r5, #99]	; 0x63
     af2:	e6f9      	b.n	8e8 <CRYPTO_SrcDescKeyIv+0x238>
     af4:	2110      	movs	r1, #16
     af6:	2040      	movs	r0, #64	; 0x40
     af8:	460f      	mov	r7, r1
     afa:	e6e2      	b.n	8c2 <CRYPTO_SrcDescKeyIv+0x212>
     afc:	2300      	movs	r3, #0
     afe:	f8c4 3084 	str.w	r3, [r4, #132]	; 0x84
     b02:	f3bf 8f4f 	dsb	sy
     b06:	f8d4 3080 	ldr.w	r3, [r4, #128]	; 0x80
     b0a:	f643 75e0 	movw	r5, #16352	; 0x3fe0
     b0e:	f3c3 3c4e 	ubfx	ip, r3, #13, #15
     b12:	f3c3 03c9 	ubfx	r3, r3, #3, #10
     b16:	ea4f 1c4c 	mov.w	ip, ip, lsl #5
     b1a:	ea0c 0605 	and.w	r6, ip, r5
     b1e:	461a      	mov	r2, r3
     b20:	ea46 7082 	orr.w	r0, r6, r2, lsl #30
     b24:	3a01      	subs	r2, #1
     b26:	f8c4 0274 	str.w	r0, [r4, #628]	; 0x274
     b2a:	1c50      	adds	r0, r2, #1
     b2c:	d1f8      	bne.n	b20 <CRYPTO_SrcDescKeyIv+0x470>
     b2e:	f1ac 0c20 	sub.w	ip, ip, #32
     b32:	f11c 0f20 	cmn.w	ip, #32
     b36:	d1f0      	bne.n	b1a <CRYPTO_SrcDescKeyIv+0x46a>
     b38:	e700      	b.n	93c <CRYPTO_SrcDescKeyIv+0x28c>
     b3a:	460b      	mov	r3, r1
     b3c:	e6e9      	b.n	912 <CRYPTO_SrcDescKeyIv+0x262>
     b3e:	bf00      	nop

00000b40 <CRYPTO_Reset>:
     b40:	2300      	movs	r3, #0
     b42:	f64d 5255 	movw	r2, #56661	; 0xdd55
     b46:	f44f 1080 	mov.w	r0, #1048576	; 0x100000
     b4a:	4619      	mov	r1, r3
     b4c:	f2c0 0200 	movt	r2, #0
     b50:	f2c4 0310 	movt	r3, #16400	; 0x4010
     b54:	f2c5 0110 	movt	r1, #20496	; 0x5010
     b58:	b410      	push	{r4}
     b5a:	e842 f200 	tt	r2, r2
     b5e:	f412 0f80 	tst.w	r2, #4194304	; 0x400000
     b62:	f04f 0401 	mov.w	r4, #1
     b66:	bf18      	it	ne
     b68:	460b      	movne	r3, r1
     b6a:	2100      	movs	r1, #0
     b6c:	611c      	str	r4, [r3, #16]
     b6e:	f2c0 1101 	movt	r1, #257	; 0x101
     b72:	6318      	str	r0, [r3, #48]	; 0x30
     b74:	6b1a      	ldr	r2, [r3, #48]	; 0x30
     b76:	f85d 4b04 	ldr.w	r4, [sp], #4
     b7a:	f042 0206 	orr.w	r2, r2, #6
     b7e:	631a      	str	r2, [r3, #48]	; 0x30
     b80:	6b1a      	ldr	r2, [r3, #48]	; 0x30
     b82:	f442 62c2 	orr.w	r2, r2, #1552	; 0x610
     b86:	631a      	str	r2, [r3, #48]	; 0x30
     b88:	6199      	str	r1, [r3, #24]
     b8a:	4770      	bx	lr

00000b8c <CRYPTO_SHA_Reset>:
     b8c:	f44f 4300 	mov.w	r3, #32768	; 0x8000
     b90:	f64d 5255 	movw	r2, #56661	; 0xdd55
     b94:	f44f 1080 	mov.w	r0, #1048576	; 0x100000
     b98:	4619      	mov	r1, r3
     b9a:	f2c0 0200 	movt	r2, #0
     b9e:	f2c4 0310 	movt	r3, #16400	; 0x4010
     ba2:	f2c5 0110 	movt	r1, #20496	; 0x5010
     ba6:	b410      	push	{r4}
     ba8:	e842 f200 	tt	r2, r2
     bac:	f412 0f80 	tst.w	r2, #4194304	; 0x400000
     bb0:	f04f 0401 	mov.w	r4, #1
     bb4:	bf18      	it	ne
     bb6:	460b      	movne	r3, r1
     bb8:	2100      	movs	r1, #0
     bba:	611c      	str	r4, [r3, #16]
     bbc:	f2c0 1101 	movt	r1, #257	; 0x101
     bc0:	6318      	str	r0, [r3, #48]	; 0x30
     bc2:	6b1a      	ldr	r2, [r3, #48]	; 0x30
     bc4:	f85d 4b04 	ldr.w	r4, [sp], #4
     bc8:	f042 0206 	orr.w	r2, r2, #6
     bcc:	631a      	str	r2, [r3, #48]	; 0x30
     bce:	6b1a      	ldr	r2, [r3, #48]	; 0x30
     bd0:	f442 62c2 	orr.w	r2, r2, #1552	; 0x610
     bd4:	631a      	str	r2, [r3, #48]	; 0x30
     bd6:	6199      	str	r1, [r3, #24]
     bd8:	4770      	bx	lr
     bda:	bf00      	nop

00000bdc <CRYPTO_SetSecurityModeAD>:
     bdc:	e92d 43f8 	stmdb	sp!, {r3, r4, r5, r6, r7, r8, r9, lr}
     be0:	460d      	mov	r5, r1
     be2:	4616      	mov	r6, r2
     be4:	4699      	mov	r9, r3
     be6:	4604      	mov	r4, r0
     be8:	e9dd 8709 	ldrd	r8, r7, [sp, #36]	; 0x24
     bec:	2800      	cmp	r0, #0
     bee:	f000 80b6 	beq.w	d5e <CRYPTO_SetSecurityModeAD+0x182>
     bf2:	7823      	ldrb	r3, [r4, #0]
     bf4:	2b01      	cmp	r3, #1
     bf6:	d007      	beq.n	c08 <CRYPTO_SetSecurityModeAD+0x2c>
     bf8:	f246 6054 	movw	r0, #26196	; 0x6654
     bfc:	f44f 711f 	mov.w	r1, #636	; 0x27c
     c00:	f2c0 0004 	movt	r0, #4
     c04:	f008 fa12 	bl	902c <io_assert_failed>
     c08:	2300      	movs	r3, #0
     c0a:	1c69      	adds	r1, r5, #1
     c0c:	6065      	str	r5, [r4, #4]
     c0e:	8123      	strh	r3, [r4, #8]
     c10:	d009      	beq.n	c26 <CRYPTO_SetSecurityModeAD+0x4a>
     c12:	f005 0330 	and.w	r3, r5, #48	; 0x30
     c16:	2b20      	cmp	r3, #32
     c18:	f000 8081 	beq.w	d1e <CRYPTO_SetSecurityModeAD+0x142>
     c1c:	f085 0580 	eor.w	r5, r5, #128	; 0x80
     c20:	f3c5 15c0 	ubfx	r5, r5, #7, #1
     c24:	7265      	strb	r5, [r4, #9]
     c26:	1c72      	adds	r2, r6, #1
     c28:	60e6      	str	r6, [r4, #12]
     c2a:	f000 808a 	beq.w	d42 <CRYPTO_SetSecurityModeAD+0x166>
     c2e:	f006 0303 	and.w	r3, r6, #3
     c32:	f3c6 0280 	ubfx	r2, r6, #2, #1
     c36:	7422      	strb	r2, [r4, #16]
     c38:	f1a3 0202 	sub.w	r2, r3, #2
     c3c:	2b01      	cmp	r3, #1
     c3e:	fab2 f282 	clz	r2, r2
     c42:	ea4f 1252 	mov.w	r2, r2, lsr #5
     c46:	7462      	strb	r2, [r4, #17]
     c48:	fab3 f283 	clz	r2, r3
     c4c:	ea4f 1252 	mov.w	r2, r2, lsr #5
     c50:	74a2      	strb	r2, [r4, #18]
     c52:	bf0c      	ite	eq
     c54:	2201      	moveq	r2, #1
     c56:	2200      	movne	r2, #0
     c58:	74e2      	strb	r2, [r4, #19]
     c5a:	d145      	bne.n	ce8 <CRYPTO_SetSecurityModeAD+0x10c>
     c5c:	f006 03f0 	and.w	r3, r6, #240	; 0xf0
     c60:	2b40      	cmp	r3, #64	; 0x40
     c62:	f000 808f 	beq.w	d84 <CRYPTO_SetSecurityModeAD+0x1a8>
     c66:	d872      	bhi.n	d4e <CRYPTO_SetSecurityModeAD+0x172>
     c68:	2b10      	cmp	r3, #16
     c6a:	d075      	beq.n	d58 <CRYPTO_SetSecurityModeAD+0x17c>
     c6c:	2b20      	cmp	r3, #32
     c6e:	d17f      	bne.n	d70 <CRYPTO_SetSecurityModeAD+0x194>
     c70:	7523      	strb	r3, [r4, #20]
     c72:	62a3      	str	r3, [r4, #40]	; 0x28
     c74:	9b08      	ldr	r3, [sp, #32]
     c76:	6227      	str	r7, [r4, #32]
     c78:	e9c4 3911 	strd	r3, r9, [r4, #68]	; 0x44
     c7c:	2f00      	cmp	r7, #0
     c7e:	d03e      	beq.n	cfe <CRYPTO_SetSecurityModeAD+0x122>
     c80:	7d23      	ldrb	r3, [r4, #20]
     c82:	f104 0064 	add.w	r0, r4, #100	; 0x64
     c86:	2b30      	cmp	r3, #48	; 0x30
     c88:	65e0      	str	r0, [r4, #92]	; 0x5c
     c8a:	d04b      	beq.n	d24 <CRYPTO_SetSecurityModeAD+0x148>
     c8c:	2b40      	cmp	r3, #64	; 0x40
     c8e:	d049      	beq.n	d24 <CRYPTO_SetSecurityModeAD+0x148>
     c90:	f104 03a4 	add.w	r3, r4, #164	; 0xa4
     c94:	f641 55e5 	movw	r5, #7653	; 0x1de5
     c98:	2240      	movs	r2, #64	; 0x40
     c9a:	2136      	movs	r1, #54	; 0x36
     c9c:	f2c0 0501 	movt	r5, #1
     ca0:	6623      	str	r3, [r4, #96]	; 0x60
     ca2:	47a8      	blx	r5
     ca4:	2240      	movs	r2, #64	; 0x40
     ca6:	215c      	movs	r1, #92	; 0x5c
     ca8:	6e20      	ldr	r0, [r4, #96]	; 0x60
     caa:	47a8      	blx	r5
     cac:	f244 13e0 	movw	r3, #16864	; 0x41e0
     cb0:	f2c2 0300 	movt	r3, #8192	; 0x2000
     cb4:	681d      	ldr	r5, [r3, #0]
     cb6:	bb25      	cbnz	r5, d02 <CRYPTO_SetSecurityModeAD+0x126>
     cb8:	f1b8 0f00 	cmp.w	r8, #0
     cbc:	d06d      	beq.n	d9a <CRYPTO_SetSecurityModeAD+0x1be>
     cbe:	f8c4 8024 	str.w	r8, [r4, #36]	; 0x24
     cc2:	e001      	b.n	cc8 <CRYPTO_SetSecurityModeAD+0xec>
     cc4:	f8d4 8024 	ldr.w	r8, [r4, #36]	; 0x24
     cc8:	6de2      	ldr	r2, [r4, #92]	; 0x5c
     cca:	f818 3005 	ldrb.w	r3, [r8, r5]
     cce:	5d51      	ldrb	r1, [r2, r5]
     cd0:	404b      	eors	r3, r1
     cd2:	5553      	strb	r3, [r2, r5]
     cd4:	6e22      	ldr	r2, [r4, #96]	; 0x60
     cd6:	6a63      	ldr	r3, [r4, #36]	; 0x24
     cd8:	5d51      	ldrb	r1, [r2, r5]
     cda:	5d5b      	ldrb	r3, [r3, r5]
     cdc:	404b      	eors	r3, r1
     cde:	5553      	strb	r3, [r2, r5]
     ce0:	3501      	adds	r5, #1
     ce2:	42af      	cmp	r7, r5
     ce4:	d1ee      	bne.n	cc4 <CRYPTO_SetSecurityModeAD+0xe8>
     ce6:	e00c      	b.n	d02 <CRYPTO_SetSecurityModeAD+0x126>
     ce8:	2200      	movs	r2, #0
     cea:	7522      	strb	r2, [r4, #20]
     cec:	b993      	cbnz	r3, d14 <CRYPTO_SetSecurityModeAD+0x138>
     cee:	2314      	movs	r3, #20
     cf0:	6227      	str	r7, [r4, #32]
     cf2:	62a3      	str	r3, [r4, #40]	; 0x28
     cf4:	9b08      	ldr	r3, [sp, #32]
     cf6:	e9c4 3911 	strd	r3, r9, [r4, #68]	; 0x44
     cfa:	2f00      	cmp	r7, #0
     cfc:	d1c0      	bne.n	c80 <CRYPTO_SetSecurityModeAD+0xa4>
     cfe:	e9c4 7717 	strd	r7, r7, [r4, #92]	; 0x5c
     d02:	3601      	adds	r6, #1
     d04:	d003      	beq.n	d0e <CRYPTO_SetSecurityModeAD+0x132>
     d06:	2201      	movs	r2, #1
     d08:	2300      	movs	r3, #0
     d0a:	85a2      	strh	r2, [r4, #44]	; 0x2c
     d0c:	6323      	str	r3, [r4, #48]	; 0x30
     d0e:	2000      	movs	r0, #0
     d10:	e8bd 83f8 	ldmia.w	sp!, {r3, r4, r5, r6, r7, r8, r9, pc}
     d14:	2b02      	cmp	r3, #2
     d16:	d117      	bne.n	d48 <CRYPTO_SetSecurityModeAD+0x16c>
     d18:	2310      	movs	r3, #16
     d1a:	62a3      	str	r3, [r4, #40]	; 0x28
     d1c:	e7aa      	b.n	c74 <CRYPTO_SetSecurityModeAD+0x98>
     d1e:	2301      	movs	r3, #1
     d20:	7223      	strb	r3, [r4, #8]
     d22:	e77b      	b.n	c1c <CRYPTO_SetSecurityModeAD+0x40>
     d24:	f104 03e4 	add.w	r3, r4, #228	; 0xe4
     d28:	f641 55e5 	movw	r5, #7653	; 0x1de5
     d2c:	2280      	movs	r2, #128	; 0x80
     d2e:	2136      	movs	r1, #54	; 0x36
     d30:	f2c0 0501 	movt	r5, #1
     d34:	6623      	str	r3, [r4, #96]	; 0x60
     d36:	47a8      	blx	r5
     d38:	2280      	movs	r2, #128	; 0x80
     d3a:	215c      	movs	r1, #92	; 0x5c
     d3c:	6e20      	ldr	r0, [r4, #96]	; 0x60
     d3e:	47a8      	blx	r5
     d40:	e7b4      	b.n	cac <CRYPTO_SetSecurityModeAD+0xd0>
     d42:	2300      	movs	r3, #0
     d44:	6123      	str	r3, [r4, #16]
     d46:	7523      	strb	r3, [r4, #20]
     d48:	2300      	movs	r3, #0
     d4a:	62a3      	str	r3, [r4, #40]	; 0x28
     d4c:	e792      	b.n	c74 <CRYPTO_SetSecurityModeAD+0x98>
     d4e:	2b80      	cmp	r3, #128	; 0x80
     d50:	d10e      	bne.n	d70 <CRYPTO_SetSecurityModeAD+0x194>
     d52:	2340      	movs	r3, #64	; 0x40
     d54:	7523      	strb	r3, [r4, #20]
     d56:	e78c      	b.n	c72 <CRYPTO_SetSecurityModeAD+0x96>
     d58:	231c      	movs	r3, #28
     d5a:	7523      	strb	r3, [r4, #20]
     d5c:	e7f5      	b.n	d4a <CRYPTO_SetSecurityModeAD+0x16e>
     d5e:	f246 6054 	movw	r0, #26196	; 0x6654
     d62:	f240 217b 	movw	r1, #635	; 0x27b
     d66:	f2c0 0004 	movt	r0, #4
     d6a:	f008 f95f 	bl	902c <io_assert_failed>
     d6e:	e740      	b.n	bf2 <CRYPTO_SetSecurityModeAD+0x16>
     d70:	f244 0304 	movw	r3, #16388	; 0x4004
     d74:	f2c2 0300 	movt	r3, #8192	; 0x2000
     d78:	681b      	ldr	r3, [r3, #0]
     d7a:	049b      	lsls	r3, r3, #18
     d7c:	d405      	bmi.n	d8a <CRYPTO_SetSecurityModeAD+0x1ae>
     d7e:	2300      	movs	r3, #0
     d80:	7523      	strb	r3, [r4, #20]
     d82:	e7e2      	b.n	d4a <CRYPTO_SetSecurityModeAD+0x16e>
     d84:	2330      	movs	r3, #48	; 0x30
     d86:	7523      	strb	r3, [r4, #20]
     d88:	e7df      	b.n	d4a <CRYPTO_SetSecurityModeAD+0x16e>
     d8a:	f246 5070 	movw	r0, #25968	; 0x6570
     d8e:	4631      	mov	r1, r6
     d90:	f2c0 0004 	movt	r0, #4
     d94:	f00c ffde 	bl	dd54 <DiagPrintf>
     d98:	e7f1      	b.n	d7e <CRYPTO_SetSecurityModeAD+0x1a2>
     d9a:	f246 6054 	movw	r0, #26196	; 0x6654
     d9e:	f240 21d7 	movw	r1, #727	; 0x2d7
     da2:	f2c0 0004 	movt	r0, #4
     da6:	f008 f941 	bl	902c <io_assert_failed>
     daa:	e788      	b.n	cbe <CRYPTO_SetSecurityModeAD+0xe2>

00000dac <CRYPTO_Init>:
     dac:	f244 2200 	movw	r2, #16896	; 0x4200
     db0:	2800      	cmp	r0, #0
     db2:	f640 3341 	movw	r3, #2881	; 0xb41
     db6:	f2c2 0200 	movt	r2, #8192	; 0x2000
     dba:	f2c0 0300 	movt	r3, #0
     dbe:	b510      	push	{r4, lr}
     dc0:	4604      	mov	r4, r0
     dc2:	bf14      	ite	ne
     dc4:	4604      	movne	r4, r0
     dc6:	4614      	moveq	r4, r2
     dc8:	4620      	mov	r0, r4
     dca:	4798      	blx	r3
     dcc:	2301      	movs	r3, #1
     dce:	2000      	movs	r0, #0
     dd0:	8023      	strh	r3, [r4, #0]
     dd2:	bd10      	pop	{r4, pc}

00000dd4 <CRYPTO_SHA_Init>:
     dd4:	f244 4240 	movw	r2, #17472	; 0x4440
     dd8:	2800      	cmp	r0, #0
     dda:	f640 338d 	movw	r3, #2957	; 0xb8d
     dde:	f2c2 0200 	movt	r2, #8192	; 0x2000
     de2:	f2c0 0300 	movt	r3, #0
     de6:	b510      	push	{r4, lr}
     de8:	4604      	mov	r4, r0
     dea:	bf14      	ite	ne
     dec:	4604      	movne	r4, r0
     dee:	4614      	moveq	r4, r2
     df0:	4620      	mov	r0, r4
     df2:	4798      	blx	r3
     df4:	2301      	movs	r3, #1
     df6:	2000      	movs	r0, #0
     df8:	8023      	strh	r3, [r4, #0]
     dfa:	bd10      	pop	{r4, pc}

00000dfc <CRYPTO_OTPKey_Init>:
     dfc:	2200      	movs	r2, #0
     dfe:	b508      	push	{r3, lr}
     e00:	4694      	mov	ip, r2
     e02:	f64d 5355 	movw	r3, #56661	; 0xdd55
     e06:	f2c4 0210 	movt	r2, #16400	; 0x4010
     e0a:	f2c0 0300 	movt	r3, #0
     e0e:	f2c5 0c10 	movt	ip, #20496	; 0x5010
     e12:	e843 f300 	tt	r3, r3
     e16:	f413 0f80 	tst.w	r3, #4194304	; 0x400000
     e1a:	bf18      	it	ne
     e1c:	4662      	movne	r2, ip
     e1e:	2901      	cmp	r1, #1
     e20:	d003      	beq.n	e2a <CRYPTO_OTPKey_Init+0x2e>
     e22:	2300      	movs	r3, #0
     e24:	4618      	mov	r0, r3
     e26:	6353      	str	r3, [r2, #52]	; 0x34
     e28:	bd08      	pop	{r3, pc}
     e2a:	2803      	cmp	r0, #3
     e2c:	d805      	bhi.n	e3a <CRYPTO_OTPKey_Init+0x3e>
     e2e:	0743      	lsls	r3, r0, #29
     e30:	2000      	movs	r0, #0
     e32:	f043 4300 	orr.w	r3, r3, #2147483648	; 0x80000000
     e36:	6353      	str	r3, [r2, #52]	; 0x34
     e38:	bd08      	pop	{r3, pc}
     e3a:	f244 0304 	movw	r3, #16388	; 0x4004
     e3e:	f2c2 0300 	movt	r3, #8192	; 0x2000
     e42:	681b      	ldr	r3, [r3, #0]
     e44:	039b      	lsls	r3, r3, #14
     e46:	d402      	bmi.n	e4e <CRYPTO_OTPKey_Init+0x52>
     e48:	f04f 30ff 	mov.w	r0, #4294967295	; 0xffffffff
     e4c:	bd08      	pop	{r3, pc}
     e4e:	f246 50ac 	movw	r0, #26028	; 0x65ac
     e52:	f2c0 0004 	movt	r0, #4
     e56:	f00c ff7d 	bl	dd54 <DiagPrintf>
     e5a:	f04f 30ff 	mov.w	r0, #4294967295	; 0xffffffff
     e5e:	bd08      	pop	{r3, pc}

00000e60 <CRYPTO_OTPKey_SHA_Init>:
     e60:	f44f 4200 	mov.w	r2, #32768	; 0x8000
     e64:	b508      	push	{r3, lr}
     e66:	4694      	mov	ip, r2
     e68:	f64d 5355 	movw	r3, #56661	; 0xdd55
     e6c:	f2c4 0210 	movt	r2, #16400	; 0x4010
     e70:	f2c0 0300 	movt	r3, #0
     e74:	f2c5 0c10 	movt	ip, #20496	; 0x5010
     e78:	e843 f300 	tt	r3, r3
     e7c:	f413 0f80 	tst.w	r3, #4194304	; 0x400000
     e80:	f244 13e0 	movw	r3, #16864	; 0x41e0
     e84:	bf18      	it	ne
     e86:	4662      	movne	r2, ip
     e88:	2901      	cmp	r1, #1
     e8a:	d006      	beq.n	e9a <CRYPTO_OTPKey_SHA_Init+0x3a>
     e8c:	2100      	movs	r1, #0
     e8e:	f2c2 0300 	movt	r3, #8192	; 0x2000
     e92:	4608      	mov	r0, r1
     e94:	6351      	str	r1, [r2, #52]	; 0x34
     e96:	6019      	str	r1, [r3, #0]
     e98:	bd08      	pop	{r3, pc}
     e9a:	f2c2 0300 	movt	r3, #8192	; 0x2000
     e9e:	6019      	str	r1, [r3, #0]
     ea0:	b180      	cbz	r0, ec4 <CRYPTO_OTPKey_SHA_Init+0x64>
     ea2:	2801      	cmp	r0, #1
     ea4:	d009      	beq.n	eba <CRYPTO_OTPKey_SHA_Init+0x5a>
     ea6:	f244 0304 	movw	r3, #16388	; 0x4004
     eaa:	f2c2 0300 	movt	r3, #8192	; 0x2000
     eae:	681b      	ldr	r3, [r3, #0]
     eb0:	039b      	lsls	r3, r3, #14
     eb2:	d40b      	bmi.n	ecc <CRYPTO_OTPKey_SHA_Init+0x6c>
     eb4:	f04f 30ff 	mov.w	r0, #4294967295	; 0xffffffff
     eb8:	bd08      	pop	{r3, pc}
     eba:	f04f 4360 	mov.w	r3, #3758096384	; 0xe0000000
     ebe:	2000      	movs	r0, #0
     ec0:	6353      	str	r3, [r2, #52]	; 0x34
     ec2:	bd08      	pop	{r3, pc}
     ec4:	f04f 4300 	mov.w	r3, #2147483648	; 0x80000000
     ec8:	6353      	str	r3, [r2, #52]	; 0x34
     eca:	bd08      	pop	{r3, pc}
     ecc:	f246 50ac 	movw	r0, #26028	; 0x65ac
     ed0:	f2c0 0004 	movt	r0, #4
     ed4:	f00c ff3e 	bl	dd54 <DiagPrintf>
     ed8:	f04f 30ff 	mov.w	r0, #4294967295	; 0xffffffff
     edc:	bd08      	pop	{r3, pc}
     ede:	bf00      	nop

00000ee0 <CRYPTO_ProcessAD>:
     ee0:	e92d 4ff0 	stmdb	sp!, {r4, r5, r6, r7, r8, r9, sl, fp, lr}
     ee4:	4698      	mov	r8, r3
     ee6:	4683      	mov	fp, r0
     ee8:	460f      	mov	r7, r1
     eea:	4616      	mov	r6, r2
     eec:	ed2d 8b02 	vpush	{d8}
     ef0:	b089      	sub	sp, #36	; 0x24
     ef2:	7a03      	ldrb	r3, [r0, #8]
     ef4:	f8dd a064 	ldr.w	sl, [sp, #100]	; 0x64
     ef8:	2b00      	cmp	r3, #0
     efa:	f000 811d 	beq.w	1138 <CRYPTO_ProcessAD+0x258>
     efe:	f64d 5355 	movw	r3, #56661	; 0xdd55
     f02:	2500      	movs	r5, #0
     f04:	f04f 0900 	mov.w	r9, #0
     f08:	f2c0 0300 	movt	r3, #0
     f0c:	f2c4 0510 	movt	r5, #16400	; 0x4010
     f10:	e843 f300 	tt	r3, r3
     f14:	f413 0f80 	tst.w	r3, #4194304	; 0x400000
     f18:	f04f 0300 	mov.w	r3, #0
     f1c:	f2c5 0310 	movt	r3, #20496	; 0x5010
     f20:	bf18      	it	ne
     f22:	461d      	movne	r5, r3
     f24:	2f00      	cmp	r7, #0
     f26:	f000 811e 	beq.w	1166 <CRYPTO_ProcessAD+0x286>
     f2a:	f89b 3000 	ldrb.w	r3, [fp]
     f2e:	2b01      	cmp	r3, #1
     f30:	d007      	beq.n	f42 <CRYPTO_ProcessAD+0x62>
     f32:	f246 6070 	movw	r0, #26224	; 0x6670
     f36:	f240 3183 	movw	r1, #899	; 0x383
     f3a:	f2c0 0004 	movt	r0, #4
     f3e:	f008 f875 	bl	902c <io_assert_failed>
     f42:	f240 33d5 	movw	r3, #981	; 0x3d5
     f46:	4648      	mov	r0, r9
     f48:	f2c0 0300 	movt	r3, #0
     f4c:	4798      	blx	r3
     f4e:	9b16      	ldr	r3, [sp, #88]	; 0x58
     f50:	f8cb 6054 	str.w	r6, [fp, #84]	; 0x54
     f54:	f8cb 304c 	str.w	r3, [fp, #76]	; 0x4c
     f58:	f006 030f 	and.w	r3, r6, #15
     f5c:	f8cb 3018 	str.w	r3, [fp, #24]
     f60:	425b      	negs	r3, r3
     f62:	f003 030f 	and.w	r3, r3, #15
     f66:	f8cb 3058 	str.w	r3, [fp, #88]	; 0x58
     f6a:	9b16      	ldr	r3, [sp, #88]	; 0x58
     f6c:	f003 030f 	and.w	r3, r3, #15
     f70:	f8cb 301c 	str.w	r3, [fp, #28]
     f74:	425b      	negs	r3, r3
     f76:	f003 030f 	and.w	r3, r3, #15
     f7a:	f8cb 3050 	str.w	r3, [fp, #80]	; 0x50
     f7e:	f8db 300c 	ldr.w	r3, [fp, #12]
     f82:	3301      	adds	r3, #1
     f84:	f000 81f1 	beq.w	136a <CRYPTO_ProcessAD+0x48a>
     f88:	f8db 3030 	ldr.w	r3, [fp, #48]	; 0x30
     f8c:	f8db 4028 	ldr.w	r4, [fp, #40]	; 0x28
     f90:	4433      	add	r3, r6
     f92:	f8cb 3030 	str.w	r3, [fp, #48]	; 0x30
     f96:	f1ba 0f00 	cmp.w	sl, #0
     f9a:	d002      	beq.n	fa2 <CRYPTO_ProcessAD+0xc2>
     f9c:	f8da 3074 	ldr.w	r3, [sl, #116]	; 0x74
     fa0:	b113      	cbz	r3, fa8 <CRYPTO_ProcessAD+0xc8>
     fa2:	2301      	movs	r3, #1
     fa4:	f88b 302d 	strb.w	r3, [fp, #45]	; 0x2d
     fa8:	9b17      	ldr	r3, [sp, #92]	; 0x5c
     faa:	2b00      	cmp	r3, #0
     fac:	d042      	beq.n	1034 <CRYPTO_ProcessAD+0x154>
     fae:	9b17      	ldr	r3, [sp, #92]	; 0x5c
     fb0:	f013 031f 	ands.w	r3, r3, #31
     fb4:	9302      	str	r3, [sp, #8]
     fb6:	f040 8275 	bne.w	14a4 <CRYPTO_ProcessAD+0x5c4>
     fba:	f1ba 0f00 	cmp.w	sl, #0
     fbe:	d004      	beq.n	fca <CRYPTO_ProcessAD+0xea>
     fc0:	f89a 3062 	ldrb.w	r3, [sl, #98]	; 0x62
     fc4:	2b01      	cmp	r3, #1
     fc6:	f000 8377 	beq.w	16b8 <CRYPTO_ProcessAD+0x7d8>
     fca:	f44f 436d 	mov.w	r3, #60672	; 0xed00
     fce:	2270      	movs	r2, #112	; 0x70
     fd0:	2000      	movs	r0, #0
     fd2:	f2ce 0300 	movt	r3, #57344	; 0xe000
     fd6:	f362 601f 	bfi	r0, r2, #24, #8
     fda:	695a      	ldr	r2, [r3, #20]
     fdc:	f364 0007 	bfi	r0, r4, #0, #8
     fe0:	03d2      	lsls	r2, r2, #15
     fe2:	d523      	bpl.n	102c <CRYPTO_ProcessAD+0x14c>
     fe4:	9a17      	ldr	r2, [sp, #92]	; 0x5c
     fe6:	4022      	ands	r2, r4
     fe8:	3201      	adds	r2, #1
     fea:	f000 826e 	beq.w	14ca <CRYPTO_ProcessAD+0x5ea>
     fee:	9b02      	ldr	r3, [sp, #8]
     ff0:	2b00      	cmp	r3, #0
     ff2:	f040 8290 	bne.w	1516 <CRYPTO_ProcessAD+0x636>
     ff6:	9a17      	ldr	r2, [sp, #92]	; 0x5c
     ff8:	f3bf 8f4f 	dsb	sy
     ffc:	2c00      	cmp	r4, #0
     ffe:	f340 8281 	ble.w	1504 <CRYPTO_ProcessAD+0x624>
    1002:	1e61      	subs	r1, r4, #1
    1004:	f102 0320 	add.w	r3, r2, #32
    1008:	f44f 446d 	mov.w	r4, #60672	; 0xed00
    100c:	f021 011f 	bic.w	r1, r1, #31
    1010:	f2ce 0400 	movt	r4, #57344	; 0xe000
    1014:	4419      	add	r1, r3
    1016:	4299      	cmp	r1, r3
    1018:	f8c4 2270 	str.w	r2, [r4, #624]	; 0x270
    101c:	461a      	mov	r2, r3
    101e:	f103 0320 	add.w	r3, r3, #32
    1022:	d1f8      	bne.n	1016 <CRYPTO_ProcessAD+0x136>
    1024:	f3bf 8f4f 	dsb	sy
    1028:	f3bf 8f6f 	isb	sy
    102c:	9917      	ldr	r1, [sp, #92]	; 0x5c
    102e:	464a      	mov	r2, r9
    1030:	f7ff f962 	bl	2f8 <CRYPTO_SetDstDesc>
    1034:	4653      	mov	r3, sl
    1036:	4641      	mov	r1, r8
    1038:	9a14      	ldr	r2, [sp, #80]	; 0x50
    103a:	4658      	mov	r0, fp
    103c:	f8cd 9000 	str.w	r9, [sp]
    1040:	f04f 4480 	mov.w	r4, #1073741824	; 0x40000000
    1044:	f7ff fb34 	bl	6b0 <CRYPTO_SrcDescKeyIv>
    1048:	9b15      	ldr	r3, [sp, #84]	; 0x54
    104a:	2b00      	cmp	r3, #0
    104c:	f000 8225 	beq.w	149a <CRYPTO_ProcessAD+0x5ba>
    1050:	f44f 416d 	mov.w	r1, #60672	; 0xed00
    1054:	f2ce 0100 	movt	r1, #57344	; 0xe000
    1058:	694b      	ldr	r3, [r1, #20]
    105a:	03db      	lsls	r3, r3, #15
    105c:	d525      	bpl.n	10aa <CRYPTO_ProcessAD+0x1ca>
    105e:	e9dd 3215 	ldrd	r3, r2, [sp, #84]	; 0x54
    1062:	4013      	ands	r3, r2
    1064:	9a15      	ldr	r2, [sp, #84]	; 0x54
    1066:	3301      	adds	r3, #1
    1068:	f000 82be 	beq.w	15e8 <CRYPTO_ProcessAD+0x708>
    106c:	9b15      	ldr	r3, [sp, #84]	; 0x54
    106e:	f013 031f 	ands.w	r3, r3, #31
    1072:	f040 8224 	bne.w	14be <CRYPTO_ProcessAD+0x5de>
    1076:	9b16      	ldr	r3, [sp, #88]	; 0x58
    1078:	f3bf 8f4f 	dsb	sy
    107c:	2b00      	cmp	r3, #0
    107e:	dd10      	ble.n	10a2 <CRYPTO_ProcessAD+0x1c2>
    1080:	1e59      	subs	r1, r3, #1
    1082:	f44f 406d 	mov.w	r0, #60672	; 0xed00
    1086:	f102 0320 	add.w	r3, r2, #32
    108a:	f021 011f 	bic.w	r1, r1, #31
    108e:	f2ce 0000 	movt	r0, #57344	; 0xe000
    1092:	4419      	add	r1, r3
    1094:	4299      	cmp	r1, r3
    1096:	f8c0 2270 	str.w	r2, [r0, #624]	; 0x270
    109a:	461a      	mov	r2, r3
    109c:	f103 0320 	add.w	r3, r3, #32
    10a0:	d1f8      	bne.n	1094 <CRYPTO_ProcessAD+0x1b4>
    10a2:	f3bf 8f4f 	dsb	sy
    10a6:	f3bf 8f6f 	isb	sy
    10aa:	9b16      	ldr	r3, [sp, #88]	; 0x58
    10ac:	2b10      	cmp	r3, #16
    10ae:	f240 8153 	bls.w	1358 <CRYPTO_ProcessAD+0x478>
    10b2:	f246 5300 	movw	r3, #25856	; 0x6500
    10b6:	f8dd 8054 	ldr.w	r8, [sp, #84]	; 0x54
    10ba:	f246 52c0 	movw	r2, #26048	; 0x65c0
    10be:	9816      	ldr	r0, [sp, #88]	; 0x58
    10c0:	f2c0 0304 	movt	r3, #4
    10c4:	4641      	mov	r1, r8
    10c6:	f244 0a04 	movw	sl, #16388	; 0x4004
    10ca:	f2c0 0204 	movt	r2, #4
    10ce:	ee08 3a10 	vmov	s16, r3
    10d2:	f246 5318 	movw	r3, #25880	; 0x6518
    10d6:	4401      	add	r1, r0
    10d8:	f2c2 0a00 	movt	sl, #8192	; 0x2000
    10dc:	f2c0 0304 	movt	r3, #4
    10e0:	e9cd 5b02 	strd	r5, fp, [sp, #8]
    10e4:	e9cd 7604 	strd	r7, r6, [sp, #16]
    10e8:	460d      	mov	r5, r1
    10ea:	461f      	mov	r7, r3
    10ec:	4693      	mov	fp, r2
    10ee:	e00c      	b.n	110a <CRYPTO_ProcessAD+0x22a>
    10f0:	4641      	mov	r1, r8
    10f2:	f108 0810 	add.w	r8, r8, #16
    10f6:	4620      	mov	r0, r4
    10f8:	464a      	mov	r2, r9
    10fa:	f7ff f8b5 	bl	268 <CRYPTO_SetSrcDesc>
    10fe:	eba5 0308 	sub.w	r3, r5, r8
    1102:	f04f 4480 	mov.w	r4, #1073741824	; 0x40000000
    1106:	2b10      	cmp	r3, #16
    1108:	d936      	bls.n	1178 <CRYPTO_ProcessAD+0x298>
    110a:	f8da 2008 	ldr.w	r2, [sl, #8]
    110e:	2610      	movs	r6, #16
    1110:	0490      	lsls	r0, r2, #18
    1112:	f366 240c 	bfi	r4, r6, #8, #5
    1116:	d5eb      	bpl.n	10f0 <CRYPTO_ProcessAD+0x210>
    1118:	4633      	mov	r3, r6
    111a:	4642      	mov	r2, r8
    111c:	ee18 1a10 	vmov	r1, s16
    1120:	4638      	mov	r0, r7
    1122:	f00c fe17 	bl	dd54 <DiagPrintf>
    1126:	f240 1341 	movw	r3, #321	; 0x141
    112a:	465a      	mov	r2, fp
    112c:	4631      	mov	r1, r6
    112e:	4640      	mov	r0, r8
    1130:	f2c0 0300 	movt	r3, #0
    1134:	4798      	blx	r3
    1136:	e7db      	b.n	10f0 <CRYPTO_ProcessAD+0x210>
    1138:	f64d 5355 	movw	r3, #56661	; 0xdd55
    113c:	f44f 4500 	mov.w	r5, #32768	; 0x8000
    1140:	f04f 0901 	mov.w	r9, #1
    1144:	f2c0 0300 	movt	r3, #0
    1148:	f2c4 0510 	movt	r5, #16400	; 0x4010
    114c:	e843 f300 	tt	r3, r3
    1150:	f413 0f80 	tst.w	r3, #4194304	; 0x400000
    1154:	f44f 4300 	mov.w	r3, #32768	; 0x8000
    1158:	f2c5 0310 	movt	r3, #20496	; 0x5010
    115c:	bf18      	it	ne
    115e:	461d      	movne	r5, r3
    1160:	2f00      	cmp	r7, #0
    1162:	f47f aee2 	bne.w	f2a <CRYPTO_ProcessAD+0x4a>
    1166:	f246 6070 	movw	r0, #26224	; 0x6670
    116a:	f44f 7160 	mov.w	r1, #896	; 0x380
    116e:	f2c0 0004 	movt	r0, #4
    1172:	f007 ff5b 	bl	902c <io_assert_failed>
    1176:	e6d8      	b.n	f2a <CRYPTO_ProcessAD+0x4a>
    1178:	9b16      	ldr	r3, [sp, #88]	; 0x58
    117a:	9a16      	ldr	r2, [sp, #88]	; 0x58
    117c:	3b11      	subs	r3, #17
    117e:	3a10      	subs	r2, #16
    1180:	091b      	lsrs	r3, r3, #4
    1182:	ebc3 7103 	rsb	r1, r3, r3, lsl #28
    1186:	3301      	adds	r3, #1
    1188:	eb02 1201 	add.w	r2, r2, r1, lsl #4
    118c:	9216      	str	r2, [sp, #88]	; 0x58
    118e:	9a15      	ldr	r2, [sp, #84]	; 0x54
    1190:	e9dd 5b02 	ldrd	r5, fp, [sp, #8]
    1194:	eb02 1303 	add.w	r3, r2, r3, lsl #4
    1198:	e9dd 7604 	ldrd	r7, r6, [sp, #16]
    119c:	9315      	str	r3, [sp, #84]	; 0x54
    119e:	9b16      	ldr	r3, [sp, #88]	; 0x58
    11a0:	f363 240c 	bfi	r4, r3, #8, #5
    11a4:	f8da 3008 	ldr.w	r3, [sl, #8]
    11a8:	0499      	lsls	r1, r3, #18
    11aa:	f100 824d 	bmi.w	1648 <CRYPTO_ProcessAD+0x768>
    11ae:	4620      	mov	r0, r4
    11b0:	9915      	ldr	r1, [sp, #84]	; 0x54
    11b2:	464a      	mov	r2, r9
    11b4:	f04f 4480 	mov.w	r4, #1073741824	; 0x40000000
    11b8:	f7ff f856 	bl	268 <CRYPTO_SetSrcDesc>
    11bc:	f8db 3050 	ldr.w	r3, [fp, #80]	; 0x50
    11c0:	b323      	cbz	r3, 120c <CRYPTO_ProcessAD+0x32c>
    11c2:	f363 240c 	bfi	r4, r3, #8, #5
    11c6:	f44f 436d 	mov.w	r3, #60672	; 0xed00
    11ca:	f244 6880 	movw	r8, #18048	; 0x4680
    11ce:	f2ce 0300 	movt	r3, #57344	; 0xe000
    11d2:	f2c2 0800 	movt	r8, #8192	; 0x2000
    11d6:	695a      	ldr	r2, [r3, #20]
    11d8:	03d2      	lsls	r2, r2, #15
    11da:	d50b      	bpl.n	11f4 <CRYPTO_ProcessAD+0x314>
    11dc:	f3bf 8f4f 	dsb	sy
    11e0:	f108 0220 	add.w	r2, r8, #32
    11e4:	f8c3 8270 	str.w	r8, [r3, #624]	; 0x270
    11e8:	f8c3 2270 	str.w	r2, [r3, #624]	; 0x270
    11ec:	f3bf 8f4f 	dsb	sy
    11f0:	f3bf 8f6f 	isb	sy
    11f4:	f8da 3008 	ldr.w	r3, [sl, #8]
    11f8:	049b      	lsls	r3, r3, #18
    11fa:	f100 823d 	bmi.w	1678 <CRYPTO_ProcessAD+0x798>
    11fe:	4620      	mov	r0, r4
    1200:	4641      	mov	r1, r8
    1202:	464a      	mov	r2, r9
    1204:	f04f 4480 	mov.w	r4, #1073741824	; 0x40000000
    1208:	f7ff f82e 	bl	268 <CRYPTO_SetSrcDesc>
    120c:	b357      	cbz	r7, 1264 <CRYPTO_ProcessAD+0x384>
    120e:	f44f 416d 	mov.w	r1, #60672	; 0xed00
    1212:	f2ce 0100 	movt	r1, #57344	; 0xe000
    1216:	694b      	ldr	r3, [r1, #20]
    1218:	03d8      	lsls	r0, r3, #15
    121a:	d523      	bpl.n	1264 <CRYPTO_ProcessAD+0x384>
    121c:	ea07 0306 	and.w	r3, r7, r6
    1220:	3301      	adds	r3, #1
    1222:	f000 81bf 	beq.w	15a4 <CRYPTO_ProcessAD+0x6c4>
    1226:	f017 031f 	ands.w	r3, r7, #31
    122a:	f040 8144 	bne.w	14b6 <CRYPTO_ProcessAD+0x5d6>
    122e:	4633      	mov	r3, r6
    1230:	463a      	mov	r2, r7
    1232:	f3bf 8f4f 	dsb	sy
    1236:	2b00      	cmp	r3, #0
    1238:	dd10      	ble.n	125c <CRYPTO_ProcessAD+0x37c>
    123a:	1e59      	subs	r1, r3, #1
    123c:	f44f 406d 	mov.w	r0, #60672	; 0xed00
    1240:	f102 0320 	add.w	r3, r2, #32
    1244:	f021 011f 	bic.w	r1, r1, #31
    1248:	f2ce 0000 	movt	r0, #57344	; 0xe000
    124c:	4419      	add	r1, r3
    124e:	428b      	cmp	r3, r1
    1250:	f8c0 2270 	str.w	r2, [r0, #624]	; 0x270
    1254:	461a      	mov	r2, r3
    1256:	f103 0320 	add.w	r3, r3, #32
    125a:	d1f8      	bne.n	124e <CRYPTO_ProcessAD+0x36e>
    125c:	f3bf 8f4f 	dsb	sy
    1260:	f3bf 8f6f 	isb	sy
    1264:	f643 78f0 	movw	r8, #16368	; 0x3ff0
    1268:	4546      	cmp	r6, r8
    126a:	d90e      	bls.n	128a <CRYPTO_ProcessAD+0x3aa>
    126c:	4620      	mov	r0, r4
    126e:	eba6 0608 	sub.w	r6, r6, r8
    1272:	f368 309b 	bfi	r0, r8, #14, #14
    1276:	4639      	mov	r1, r7
    1278:	464a      	mov	r2, r9
    127a:	f7fe fff5 	bl	268 <CRYPTO_SetSrcDesc>
    127e:	4546      	cmp	r6, r8
    1280:	4447      	add	r7, r8
    1282:	f04f 4080 	mov.w	r0, #1073741824	; 0x40000000
    1286:	d8f2      	bhi.n	126e <CRYPTO_ProcessAD+0x38e>
    1288:	4604      	mov	r4, r0
    128a:	f8db 3058 	ldr.w	r3, [fp, #88]	; 0x58
    128e:	2b00      	cmp	r3, #0
    1290:	d060      	beq.n	1354 <CRYPTO_ProcessAD+0x474>
    1292:	f3c4 7400 	ubfx	r4, r4, #28, #1
    1296:	03b3      	lsls	r3, r6, #14
    1298:	f44f 4040 	mov.w	r0, #49152	; 0xc000
    129c:	4639      	mov	r1, r7
    129e:	464a      	mov	r2, r9
    12a0:	ea43 7404 	orr.w	r4, r3, r4, lsl #28
    12a4:	f6c1 70ff 	movt	r0, #8191	; 0x1fff
    12a8:	4020      	ands	r0, r4
    12aa:	f040 4080 	orr.w	r0, r0, #1073741824	; 0x40000000
    12ae:	f7fe ffdb 	bl	268 <CRYPTO_SetSrcDesc>
    12b2:	f8da 3008 	ldr.w	r3, [sl, #8]
    12b6:	0499      	lsls	r1, r3, #18
    12b8:	f100 80d7 	bmi.w	146a <CRYPTO_ProcessAD+0x58a>
    12bc:	f8db 3058 	ldr.w	r3, [fp, #88]	; 0x58
    12c0:	b343      	cbz	r3, 1314 <CRYPTO_ProcessAD+0x434>
    12c2:	f44f 4240 	mov.w	r2, #49152	; 0xc000
    12c6:	f244 6680 	movw	r6, #18048	; 0x4680
    12ca:	f6c0 72ff 	movt	r2, #4095	; 0xfff
    12ce:	f2c2 0600 	movt	r6, #8192	; 0x2000
    12d2:	ea02 3383 	and.w	r3, r2, r3, lsl #14
    12d6:	f043 44a0 	orr.w	r4, r3, #1342177280	; 0x50000000
    12da:	f44f 436d 	mov.w	r3, #60672	; 0xed00
    12de:	f2ce 0300 	movt	r3, #57344	; 0xe000
    12e2:	695a      	ldr	r2, [r3, #20]
    12e4:	03d2      	lsls	r2, r2, #15
    12e6:	d50b      	bpl.n	1300 <CRYPTO_ProcessAD+0x420>
    12e8:	f3bf 8f4f 	dsb	sy
    12ec:	f106 0220 	add.w	r2, r6, #32
    12f0:	f8c3 6270 	str.w	r6, [r3, #624]	; 0x270
    12f4:	f8c3 2270 	str.w	r2, [r3, #624]	; 0x270
    12f8:	f3bf 8f4f 	dsb	sy
    12fc:	f3bf 8f6f 	isb	sy
    1300:	f8da 3008 	ldr.w	r3, [sl, #8]
    1304:	049f      	lsls	r7, r3, #18
    1306:	f100 812d 	bmi.w	1564 <CRYPTO_ProcessAD+0x684>
    130a:	464a      	mov	r2, r9
    130c:	4631      	mov	r1, r6
    130e:	4620      	mov	r0, r4
    1310:	f7fe ffaa 	bl	268 <CRYPTO_SetSrcDesc>
    1314:	f244 2340 	movw	r3, #16960	; 0x4240
    1318:	f2c0 030f 	movt	r3, #15
    131c:	e002      	b.n	1324 <CRYPTO_ProcessAD+0x444>
    131e:	3b01      	subs	r3, #1
    1320:	f000 8184 	beq.w	162c <CRYPTO_ProcessAD+0x74c>
    1324:	6928      	ldr	r0, [r5, #16]
    1326:	f010 0008 	ands.w	r0, r0, #8
    132a:	d102      	bne.n	1332 <CRYPTO_ProcessAD+0x452>
    132c:	692a      	ldr	r2, [r5, #16]
    132e:	06d4      	lsls	r4, r2, #27
    1330:	d40b      	bmi.n	134a <CRYPTO_ProcessAD+0x46a>
    1332:	69ea      	ldr	r2, [r5, #28]
    1334:	9207      	str	r2, [sp, #28]
    1336:	9a07      	ldr	r2, [sp, #28]
    1338:	2a00      	cmp	r2, #0
    133a:	d0f0      	beq.n	131e <CRYPTO_ProcessAD+0x43e>
    133c:	f8da 3000 	ldr.w	r3, [sl]
    1340:	0499      	lsls	r1, r3, #18
    1342:	f100 8101 	bmi.w	1548 <CRYPTO_ProcessAD+0x668>
    1346:	f04f 30ff 	mov.w	r0, #4294967295	; 0xffffffff
    134a:	b009      	add	sp, #36	; 0x24
    134c:	ecbd 8b02 	vpop	{d8}
    1350:	e8bd 8ff0 	ldmia.w	sp!, {r4, r5, r6, r7, r8, r9, sl, fp, pc}
    1354:	2401      	movs	r4, #1
    1356:	e79e      	b.n	1296 <CRYPTO_ProcessAD+0x3b6>
    1358:	f244 0a04 	movw	sl, #16388	; 0x4004
    135c:	9b16      	ldr	r3, [sp, #88]	; 0x58
    135e:	f2c2 0a00 	movt	sl, #8192	; 0x2000
    1362:	2b00      	cmp	r3, #0
    1364:	f43f af2a 	beq.w	11bc <CRYPTO_ProcessAD+0x2dc>
    1368:	e719      	b.n	119e <CRYPTO_ProcessAD+0x2be>
    136a:	9b17      	ldr	r3, [sp, #92]	; 0x5c
    136c:	2b00      	cmp	r3, #0
    136e:	d046      	beq.n	13fe <CRYPTO_ProcessAD+0x51e>
    1370:	9b17      	ldr	r3, [sp, #92]	; 0x5c
    1372:	f013 041f 	ands.w	r4, r3, #31
    1376:	f040 80d3 	bne.w	1520 <CRYPTO_ProcessAD+0x640>
    137a:	4632      	mov	r2, r6
    137c:	9b18      	ldr	r3, [sp, #96]	; 0x60
    137e:	2000      	movs	r0, #0
    1380:	fab3 f383 	clz	r3, r3
    1384:	f362 0017 	bfi	r0, r2, #0, #24
    1388:	095b      	lsrs	r3, r3, #5
    138a:	f3c0 6107 	ubfx	r1, r0, #24, #8
    138e:	011b      	lsls	r3, r3, #4
    1390:	f021 0178 	bic.w	r1, r1, #120	; 0x78
    1394:	f043 0368 	orr.w	r3, r3, #104	; 0x68
    1398:	430b      	orrs	r3, r1
    139a:	f44f 416d 	mov.w	r1, #60672	; 0xed00
    139e:	f2ce 0100 	movt	r1, #57344	; 0xe000
    13a2:	f363 601f 	bfi	r0, r3, #24, #8
    13a6:	694b      	ldr	r3, [r1, #20]
    13a8:	03db      	lsls	r3, r3, #15
    13aa:	d524      	bpl.n	13f6 <CRYPTO_ProcessAD+0x516>
    13ac:	9b17      	ldr	r3, [sp, #92]	; 0x5c
    13ae:	4013      	ands	r3, r2
    13b0:	3301      	adds	r3, #1
    13b2:	f000 819d 	beq.w	16f0 <CRYPTO_ProcessAD+0x810>
    13b6:	2c00      	cmp	r4, #0
    13b8:	f000 81b8 	beq.w	172c <CRYPTO_ProcessAD+0x84c>
    13bc:	9b17      	ldr	r3, [sp, #92]	; 0x5c
    13be:	4422      	add	r2, r4
    13c0:	f023 011f 	bic.w	r1, r3, #31
    13c4:	f3bf 8f4f 	dsb	sy
    13c8:	2a00      	cmp	r2, #0
    13ca:	dd10      	ble.n	13ee <CRYPTO_ProcessAD+0x50e>
    13cc:	3a01      	subs	r2, #1
    13ce:	f101 0320 	add.w	r3, r1, #32
    13d2:	f44f 446d 	mov.w	r4, #60672	; 0xed00
    13d6:	f022 021f 	bic.w	r2, r2, #31
    13da:	f2ce 0400 	movt	r4, #57344	; 0xe000
    13de:	441a      	add	r2, r3
    13e0:	4293      	cmp	r3, r2
    13e2:	f8c4 1270 	str.w	r1, [r4, #624]	; 0x270
    13e6:	4619      	mov	r1, r3
    13e8:	f103 0320 	add.w	r3, r3, #32
    13ec:	d1f8      	bne.n	13e0 <CRYPTO_ProcessAD+0x500>
    13ee:	f3bf 8f4f 	dsb	sy
    13f2:	f3bf 8f6f 	isb	sy
    13f6:	464a      	mov	r2, r9
    13f8:	9917      	ldr	r1, [sp, #92]	; 0x5c
    13fa:	f7fe ff7d 	bl	2f8 <CRYPTO_SetDstDesc>
    13fe:	9b18      	ldr	r3, [sp, #96]	; 0x60
    1400:	2b00      	cmp	r3, #0
    1402:	f43f ae17 	beq.w	1034 <CRYPTO_ProcessAD+0x154>
    1406:	f013 041f 	ands.w	r4, r3, #31
    140a:	f040 8094 	bne.w	1536 <CRYPTO_ProcessAD+0x656>
    140e:	f44f 426d 	mov.w	r2, #60672	; 0xed00
    1412:	9b17      	ldr	r3, [sp, #92]	; 0x5c
    1414:	2010      	movs	r0, #16
    1416:	f2ce 0200 	movt	r2, #57344	; 0xe000
    141a:	fab3 f383 	clz	r3, r3
    141e:	f2c5 0000 	movt	r0, #20480	; 0x5000
    1422:	6952      	ldr	r2, [r2, #20]
    1424:	095b      	lsrs	r3, r3, #5
    1426:	03d2      	lsls	r2, r2, #15
    1428:	f363 705d 	bfi	r0, r3, #29, #1
    142c:	d518      	bpl.n	1460 <CRYPTO_ProcessAD+0x580>
    142e:	2c00      	cmp	r4, #0
    1430:	f000 815b 	beq.w	16ea <CRYPTO_ProcessAD+0x80a>
    1434:	9b18      	ldr	r3, [sp, #96]	; 0x60
    1436:	f104 0110 	add.w	r1, r4, #16
    143a:	f023 031f 	bic.w	r3, r3, #31
    143e:	f3bf 8f4f 	dsb	sy
    1442:	f44f 446d 	mov.w	r4, #60672	; 0xed00
    1446:	4419      	add	r1, r3
    1448:	f2ce 0400 	movt	r4, #57344	; 0xe000
    144c:	f8c4 3270 	str.w	r3, [r4, #624]	; 0x270
    1450:	3320      	adds	r3, #32
    1452:	1aca      	subs	r2, r1, r3
    1454:	2a00      	cmp	r2, #0
    1456:	dcf9      	bgt.n	144c <CRYPTO_ProcessAD+0x56c>
    1458:	f3bf 8f4f 	dsb	sy
    145c:	f3bf 8f6f 	isb	sy
    1460:	9918      	ldr	r1, [sp, #96]	; 0x60
    1462:	464a      	mov	r2, r9
    1464:	f7fe ff48 	bl	2f8 <CRYPTO_SetDstDesc>
    1468:	e5e4      	b.n	1034 <CRYPTO_ProcessAD+0x154>
    146a:	f246 5100 	movw	r1, #25856	; 0x6500
    146e:	f246 5018 	movw	r0, #25880	; 0x6518
    1472:	463a      	mov	r2, r7
    1474:	4633      	mov	r3, r6
    1476:	f2c0 0104 	movt	r1, #4
    147a:	f2c0 0004 	movt	r0, #4
    147e:	f00c fc69 	bl	dd54 <DiagPrintf>
    1482:	f246 52d8 	movw	r2, #26072	; 0x65d8
    1486:	f240 1341 	movw	r3, #321	; 0x141
    148a:	4631      	mov	r1, r6
    148c:	4638      	mov	r0, r7
    148e:	f2c0 0204 	movt	r2, #4
    1492:	f2c0 0300 	movt	r3, #0
    1496:	4798      	blx	r3
    1498:	e710      	b.n	12bc <CRYPTO_ProcessAD+0x3dc>
    149a:	f244 0a04 	movw	sl, #16388	; 0x4004
    149e:	f2c2 0a00 	movt	sl, #8192	; 0x2000
    14a2:	e6b3      	b.n	120c <CRYPTO_ProcessAD+0x32c>
    14a4:	f246 6070 	movw	r0, #26224	; 0x6670
    14a8:	f240 31b3 	movw	r1, #947	; 0x3b3
    14ac:	f2c0 0004 	movt	r0, #4
    14b0:	f007 fdbc 	bl	902c <io_assert_failed>
    14b4:	e581      	b.n	fba <CRYPTO_ProcessAD+0xda>
    14b6:	4433      	add	r3, r6
    14b8:	f027 021f 	bic.w	r2, r7, #31
    14bc:	e6b9      	b.n	1232 <CRYPTO_ProcessAD+0x352>
    14be:	9a16      	ldr	r2, [sp, #88]	; 0x58
    14c0:	4413      	add	r3, r2
    14c2:	9a15      	ldr	r2, [sp, #84]	; 0x54
    14c4:	f022 021f 	bic.w	r2, r2, #31
    14c8:	e5d6      	b.n	1078 <CRYPTO_ProcessAD+0x198>
    14ca:	2200      	movs	r2, #0
    14cc:	f8c3 2084 	str.w	r2, [r3, #132]	; 0x84
    14d0:	f3bf 8f4f 	dsb	sy
    14d4:	f8d3 2080 	ldr.w	r2, [r3, #128]	; 0x80
    14d8:	f3c2 3c4e 	ubfx	ip, r2, #13, #15
    14dc:	f3c2 0ec9 	ubfx	lr, r2, #3, #10
    14e0:	ea4f 1c4c 	mov.w	ip, ip, lsl #5
    14e4:	f643 74e0 	movw	r4, #16352	; 0x3fe0
    14e8:	4672      	mov	r2, lr
    14ea:	ea0c 0404 	and.w	r4, ip, r4
    14ee:	ea44 7182 	orr.w	r1, r4, r2, lsl #30
    14f2:	3a01      	subs	r2, #1
    14f4:	f8c3 1274 	str.w	r1, [r3, #628]	; 0x274
    14f8:	d2f9      	bcs.n	14ee <CRYPTO_ProcessAD+0x60e>
    14fa:	f1ac 0c20 	sub.w	ip, ip, #32
    14fe:	f11c 0f20 	cmn.w	ip, #32
    1502:	d1ef      	bne.n	14e4 <CRYPTO_ProcessAD+0x604>
    1504:	f3bf 8f4f 	dsb	sy
    1508:	f3bf 8f6f 	isb	sy
    150c:	9917      	ldr	r1, [sp, #92]	; 0x5c
    150e:	464a      	mov	r2, r9
    1510:	f7fe fef2 	bl	2f8 <CRYPTO_SetDstDesc>
    1514:	e58e      	b.n	1034 <CRYPTO_ProcessAD+0x154>
    1516:	441c      	add	r4, r3
    1518:	9b17      	ldr	r3, [sp, #92]	; 0x5c
    151a:	f023 021f 	bic.w	r2, r3, #31
    151e:	e56b      	b.n	ff8 <CRYPTO_ProcessAD+0x118>
    1520:	f246 6070 	movw	r0, #26224	; 0x6670
    1524:	f44f 7172 	mov.w	r1, #968	; 0x3c8
    1528:	f2c0 0004 	movt	r0, #4
    152c:	f007 fd7e 	bl	902c <io_assert_failed>
    1530:	f8db 2054 	ldr.w	r2, [fp, #84]	; 0x54
    1534:	e722      	b.n	137c <CRYPTO_ProcessAD+0x49c>
    1536:	f246 6070 	movw	r0, #26224	; 0x6670
    153a:	f240 31d6 	movw	r1, #982	; 0x3d6
    153e:	f2c0 0004 	movt	r0, #4
    1542:	f007 fd73 	bl	902c <io_assert_failed>
    1546:	e762      	b.n	140e <CRYPTO_ProcessAD+0x52e>
    1548:	f246 50f4 	movw	r0, #26100	; 0x65f4
    154c:	9907      	ldr	r1, [sp, #28]
    154e:	f2c0 0004 	movt	r0, #4
    1552:	f00c fbff 	bl	dd54 <DiagPrintf>
    1556:	f04f 30ff 	mov.w	r0, #4294967295	; 0xffffffff
    155a:	b009      	add	sp, #36	; 0x24
    155c:	ecbd 8b02 	vpop	{d8}
    1560:	e8bd 8ff0 	ldmia.w	sp!, {r4, r5, r6, r7, r8, r9, sl, fp, pc}
    1564:	f3c4 378d 	ubfx	r7, r4, #14, #14
    1568:	f246 5100 	movw	r1, #25856	; 0x6500
    156c:	f246 5018 	movw	r0, #25880	; 0x6518
    1570:	f244 6280 	movw	r2, #18048	; 0x4680
    1574:	463b      	mov	r3, r7
    1576:	f2c0 0104 	movt	r1, #4
    157a:	f2c2 0200 	movt	r2, #8192	; 0x2000
    157e:	f2c0 0004 	movt	r0, #4
    1582:	f00c fbe7 	bl	dd54 <DiagPrintf>
    1586:	f246 52e4 	movw	r2, #26084	; 0x65e4
    158a:	f240 1341 	movw	r3, #321	; 0x141
    158e:	f244 6080 	movw	r0, #18048	; 0x4680
    1592:	4639      	mov	r1, r7
    1594:	f2c0 0204 	movt	r2, #4
    1598:	f2c0 0300 	movt	r3, #0
    159c:	f2c2 0000 	movt	r0, #8192	; 0x2000
    15a0:	4798      	blx	r3
    15a2:	e6b2      	b.n	130a <CRYPTO_ProcessAD+0x42a>
    15a4:	2300      	movs	r3, #0
    15a6:	f8c1 3084 	str.w	r3, [r1, #132]	; 0x84
    15aa:	f3bf 8f4f 	dsb	sy
    15ae:	f8d1 3080 	ldr.w	r3, [r1, #128]	; 0x80
    15b2:	f643 78e0 	movw	r8, #16352	; 0x3fe0
    15b6:	f3c3 3c4e 	ubfx	ip, r3, #13, #15
    15ba:	f3c3 0ec9 	ubfx	lr, r3, #3, #10
    15be:	ea4f 1c4c 	mov.w	ip, ip, lsl #5
    15c2:	ea0c 0008 	and.w	r0, ip, r8
    15c6:	4673      	mov	r3, lr
    15c8:	ea40 7283 	orr.w	r2, r0, r3, lsl #30
    15cc:	3b01      	subs	r3, #1
    15ce:	f8c1 2274 	str.w	r2, [r1, #628]	; 0x274
    15d2:	d2f9      	bcs.n	15c8 <CRYPTO_ProcessAD+0x6e8>
    15d4:	f1ac 0c20 	sub.w	ip, ip, #32
    15d8:	f11c 0f20 	cmn.w	ip, #32
    15dc:	d1f1      	bne.n	15c2 <CRYPTO_ProcessAD+0x6e2>
    15de:	f3bf 8f4f 	dsb	sy
    15e2:	f3bf 8f6f 	isb	sy
    15e6:	e63d      	b.n	1264 <CRYPTO_ProcessAD+0x384>
    15e8:	2300      	movs	r3, #0
    15ea:	f8c1 3084 	str.w	r3, [r1, #132]	; 0x84
    15ee:	f3bf 8f4f 	dsb	sy
    15f2:	f8d1 3080 	ldr.w	r3, [r1, #128]	; 0x80
    15f6:	f643 78e0 	movw	r8, #16352	; 0x3fe0
    15fa:	f3c3 3c4e 	ubfx	ip, r3, #13, #15
    15fe:	f3c3 0ec9 	ubfx	lr, r3, #3, #10
    1602:	ea4f 1c4c 	mov.w	ip, ip, lsl #5
    1606:	ea0c 0008 	and.w	r0, ip, r8
    160a:	4673      	mov	r3, lr
    160c:	ea40 7283 	orr.w	r2, r0, r3, lsl #30
    1610:	3b01      	subs	r3, #1
    1612:	f8c1 2274 	str.w	r2, [r1, #628]	; 0x274
    1616:	d2f9      	bcs.n	160c <CRYPTO_ProcessAD+0x72c>
    1618:	f1ac 0c20 	sub.w	ip, ip, #32
    161c:	f11c 0f20 	cmn.w	ip, #32
    1620:	d1f1      	bne.n	1606 <CRYPTO_ProcessAD+0x726>
    1622:	f3bf 8f4f 	dsb	sy
    1626:	f3bf 8f6f 	isb	sy
    162a:	e53e      	b.n	10aa <CRYPTO_ProcessAD+0x1ca>
    162c:	f8da 3000 	ldr.w	r3, [sl]
    1630:	049a      	lsls	r2, r3, #18
    1632:	f57f ae88 	bpl.w	1346 <CRYPTO_ProcessAD+0x466>
    1636:	f246 6028 	movw	r0, #26152	; 0x6628
    163a:	f2c0 0004 	movt	r0, #4
    163e:	f00c fb89 	bl	dd54 <DiagPrintf>
    1642:	f04f 30ff 	mov.w	r0, #4294967295	; 0xffffffff
    1646:	e680      	b.n	134a <CRYPTO_ProcessAD+0x46a>
    1648:	f246 5100 	movw	r1, #25856	; 0x6500
    164c:	f246 5018 	movw	r0, #25880	; 0x6518
    1650:	e9dd 2315 	ldrd	r2, r3, [sp, #84]	; 0x54
    1654:	f2c0 0104 	movt	r1, #4
    1658:	f2c0 0004 	movt	r0, #4
    165c:	f00c fb7a 	bl	dd54 <DiagPrintf>
    1660:	f246 52c0 	movw	r2, #26048	; 0x65c0
    1664:	f240 1341 	movw	r3, #321	; 0x141
    1668:	9916      	ldr	r1, [sp, #88]	; 0x58
    166a:	f2c0 0204 	movt	r2, #4
    166e:	9815      	ldr	r0, [sp, #84]	; 0x54
    1670:	f2c0 0300 	movt	r3, #0
    1674:	4798      	blx	r3
    1676:	e59a      	b.n	11ae <CRYPTO_ProcessAD+0x2ce>
    1678:	f246 5100 	movw	r1, #25856	; 0x6500
    167c:	f246 5018 	movw	r0, #25880	; 0x6518
    1680:	f244 6280 	movw	r2, #18048	; 0x4680
    1684:	f8db 3050 	ldr.w	r3, [fp, #80]	; 0x50
    1688:	f2c0 0104 	movt	r1, #4
    168c:	f2c0 0004 	movt	r0, #4
    1690:	f2c2 0200 	movt	r2, #8192	; 0x2000
    1694:	f00c fb5e 	bl	dd54 <DiagPrintf>
    1698:	f246 52c8 	movw	r2, #26056	; 0x65c8
    169c:	f240 1341 	movw	r3, #321	; 0x141
    16a0:	f244 6080 	movw	r0, #18048	; 0x4680
    16a4:	f2c0 0204 	movt	r2, #4
    16a8:	f8db 1050 	ldr.w	r1, [fp, #80]	; 0x50
    16ac:	f2c0 0300 	movt	r3, #0
    16b0:	f2c2 0000 	movt	r0, #8192	; 0x2000
    16b4:	4798      	blx	r3
    16b6:	e5a2      	b.n	11fe <CRYPTO_ProcessAD+0x31e>
    16b8:	f8da 3074 	ldr.w	r3, [sl, #116]	; 0x74
    16bc:	2b01      	cmp	r3, #1
    16be:	f43f ac84 	beq.w	fca <CRYPTO_ProcessAD+0xea>
    16c2:	2c1c      	cmp	r4, #28
    16c4:	d034      	beq.n	1730 <CRYPTO_ProcessAD+0x850>
    16c6:	2c30      	cmp	r4, #48	; 0x30
    16c8:	f47f ac7f 	bne.w	fca <CRYPTO_ProcessAD+0xea>
    16cc:	2440      	movs	r4, #64	; 0x40
    16ce:	4622      	mov	r2, r4
    16d0:	f44f 436d 	mov.w	r3, #60672	; 0xed00
    16d4:	f04f 40e0 	mov.w	r0, #1879048192	; 0x70000000
    16d8:	f2ce 0300 	movt	r3, #57344	; 0xe000
    16dc:	f362 0007 	bfi	r0, r2, #0, #8
    16e0:	695b      	ldr	r3, [r3, #20]
    16e2:	03db      	lsls	r3, r3, #15
    16e4:	f53f ac83 	bmi.w	fee <CRYPTO_ProcessAD+0x10e>
    16e8:	e4a0      	b.n	102c <CRYPTO_ProcessAD+0x14c>
    16ea:	9b18      	ldr	r3, [sp, #96]	; 0x60
    16ec:	2110      	movs	r1, #16
    16ee:	e6a6      	b.n	143e <CRYPTO_ProcessAD+0x55e>
    16f0:	2300      	movs	r3, #0
    16f2:	f8c1 3084 	str.w	r3, [r1, #132]	; 0x84
    16f6:	f3bf 8f4f 	dsb	sy
    16fa:	f8d1 3080 	ldr.w	r3, [r1, #128]	; 0x80
    16fe:	f3c3 3c4e 	ubfx	ip, r3, #13, #15
    1702:	f3c3 0ec9 	ubfx	lr, r3, #3, #10
    1706:	ea4f 1c4c 	mov.w	ip, ip, lsl #5
    170a:	f643 74e0 	movw	r4, #16352	; 0x3fe0
    170e:	4673      	mov	r3, lr
    1710:	ea0c 0404 	and.w	r4, ip, r4
    1714:	ea44 7283 	orr.w	r2, r4, r3, lsl #30
    1718:	3b01      	subs	r3, #1
    171a:	f8c1 2274 	str.w	r2, [r1, #628]	; 0x274
    171e:	d2f9      	bcs.n	1714 <CRYPTO_ProcessAD+0x834>
    1720:	f1ac 0c20 	sub.w	ip, ip, #32
    1724:	f11c 0f20 	cmn.w	ip, #32
    1728:	d1ef      	bne.n	170a <CRYPTO_ProcessAD+0x82a>
    172a:	e660      	b.n	13ee <CRYPTO_ProcessAD+0x50e>
    172c:	9917      	ldr	r1, [sp, #92]	; 0x5c
    172e:	e649      	b.n	13c4 <CRYPTO_ProcessAD+0x4e4>
    1730:	2420      	movs	r4, #32
    1732:	4622      	mov	r2, r4
    1734:	e7cc      	b.n	16d0 <CRYPTO_ProcessAD+0x7f0>
    1736:	bf00      	nop

00001738 <CRYPTO_SendSeqBuf>:
    1738:	e92d 4ff0 	stmdb	sp!, {r4, r5, r6, r7, r8, r9, sl, fp, lr}
    173c:	f244 14e0 	movw	r4, #16864	; 0x41e0
    1740:	f891 3061 	ldrb.w	r3, [r1, #97]	; 0x61
    1744:	b089      	sub	sp, #36	; 0x24
    1746:	4688      	mov	r8, r1
    1748:	f2c2 0400 	movt	r4, #8192	; 0x2000
    174c:	2b30      	cmp	r3, #48	; 0x30
    174e:	9007      	str	r0, [sp, #28]
    1750:	f8d4 729c 	ldr.w	r7, [r4, #668]	; 0x29c
    1754:	f894 52a0 	ldrb.w	r5, [r4, #672]	; 0x2a0
    1758:	d01e      	beq.n	1798 <CRYPTO_SendSeqBuf+0x60>
    175a:	2b40      	cmp	r3, #64	; 0x40
    175c:	d01c      	beq.n	1798 <CRYPTO_SendSeqBuf+0x60>
    175e:	2640      	movs	r6, #64	; 0x40
    1760:	f505 70d4 	add.w	r0, r5, #424	; 0x1a8
    1764:	f244 4940 	movw	r9, #17472	; 0x4440
    1768:	1b75      	subs	r5, r6, r5
    176a:	f8d4 1298 	ldr.w	r1, [r4, #664]	; 0x298
    176e:	f2c2 0900 	movt	r9, #8192	; 0x2000
    1772:	42af      	cmp	r7, r5
    1774:	4448      	add	r0, r9
    1776:	da11      	bge.n	179c <CRYPTO_SendSeqBuf+0x64>
    1778:	f641 431d 	movw	r3, #7197	; 0x1c1d
    177c:	463a      	mov	r2, r7
    177e:	f2c0 0301 	movt	r3, #1
    1782:	4798      	blx	r3
    1784:	f894 22a0 	ldrb.w	r2, [r4, #672]	; 0x2a0
    1788:	2300      	movs	r3, #0
    178a:	4417      	add	r7, r2
    178c:	f884 72a0 	strb.w	r7, [r4, #672]	; 0x2a0
    1790:	4618      	mov	r0, r3
    1792:	b009      	add	sp, #36	; 0x24
    1794:	e8bd 8ff0 	ldmia.w	sp!, {r4, r5, r6, r7, r8, r9, sl, fp, pc}
    1798:	2680      	movs	r6, #128	; 0x80
    179a:	e7e1      	b.n	1760 <CRYPTO_SendSeqBuf+0x28>
    179c:	f641 4b1d 	movw	fp, #7197	; 0x1c1d
    17a0:	462a      	mov	r2, r5
    17a2:	f640 6ae1 	movw	sl, #3809	; 0xee1
    17a6:	f2c0 0b01 	movt	fp, #1
    17aa:	47d8      	blx	fp
    17ac:	9b07      	ldr	r3, [sp, #28]
    17ae:	f244 51e8 	movw	r1, #17896	; 0x45e8
    17b2:	f2c0 0a00 	movt	sl, #0
    17b6:	9303      	str	r3, [sp, #12]
    17b8:	2300      	movs	r3, #0
    17ba:	4632      	mov	r2, r6
    17bc:	f2c2 0100 	movt	r1, #8192	; 0x2000
    17c0:	9304      	str	r3, [sp, #16]
    17c2:	4648      	mov	r0, r9
    17c4:	9300      	str	r3, [sp, #0]
    17c6:	f8cd 8014 	str.w	r8, [sp, #20]
    17ca:	e9cd 3301 	strd	r3, r3, [sp, #4]
    17ce:	47d0      	blx	sl
    17d0:	4603      	mov	r3, r0
    17d2:	2800      	cmp	r0, #0
    17d4:	d1dc      	bne.n	1790 <CRYPTO_SendSeqBuf+0x58>
    17d6:	1b7f      	subs	r7, r7, r5
    17d8:	3e01      	subs	r6, #1
    17da:	f8d4 1298 	ldr.w	r1, [r4, #664]	; 0x298
    17de:	f884 02a0 	strb.w	r0, [r4, #672]	; 0x2a0
    17e2:	4429      	add	r1, r5
    17e4:	ea27 0506 	bic.w	r5, r7, r6
    17e8:	f8c4 729c 	str.w	r7, [r4, #668]	; 0x29c
    17ec:	403e      	ands	r6, r7
    17ee:	2d00      	cmp	r5, #0
    17f0:	f8c4 1298 	str.w	r1, [r4, #664]	; 0x298
    17f4:	dc06      	bgt.n	1804 <CRYPTO_SendSeqBuf+0xcc>
    17f6:	b9d6      	cbnz	r6, 182e <CRYPTO_SendSeqBuf+0xf6>
    17f8:	4618      	mov	r0, r3
    17fa:	f884 62a0 	strb.w	r6, [r4, #672]	; 0x2a0
    17fe:	b009      	add	sp, #36	; 0x24
    1800:	e8bd 8ff0 	ldmia.w	sp!, {r4, r5, r6, r7, r8, r9, sl, fp, pc}
    1804:	9a07      	ldr	r2, [sp, #28]
    1806:	4648      	mov	r0, r9
    1808:	f8cd 8014 	str.w	r8, [sp, #20]
    180c:	9203      	str	r2, [sp, #12]
    180e:	462a      	mov	r2, r5
    1810:	9304      	str	r3, [sp, #16]
    1812:	9300      	str	r3, [sp, #0]
    1814:	9307      	str	r3, [sp, #28]
    1816:	e9cd 3301 	strd	r3, r3, [sp, #4]
    181a:	47d0      	blx	sl
    181c:	b990      	cbnz	r0, 1844 <CRYPTO_SendSeqBuf+0x10c>
    181e:	f8d4 2298 	ldr.w	r2, [r4, #664]	; 0x298
    1822:	9b07      	ldr	r3, [sp, #28]
    1824:	442a      	add	r2, r5
    1826:	f8c4 2298 	str.w	r2, [r4, #664]	; 0x298
    182a:	2e00      	cmp	r6, #0
    182c:	d0e4      	beq.n	17f8 <CRYPTO_SendSeqBuf+0xc0>
    182e:	f244 50e8 	movw	r0, #17896	; 0x45e8
    1832:	4632      	mov	r2, r6
    1834:	f8d4 1298 	ldr.w	r1, [r4, #664]	; 0x298
    1838:	f2c2 0000 	movt	r0, #8192	; 0x2000
    183c:	9307      	str	r3, [sp, #28]
    183e:	47d8      	blx	fp
    1840:	9b07      	ldr	r3, [sp, #28]
    1842:	e7d9      	b.n	17f8 <CRYPTO_SendSeqBuf+0xc0>
    1844:	4603      	mov	r3, r0
    1846:	e7a3      	b.n	1790 <CRYPTO_SendSeqBuf+0x58>

00001848 <CRYPTO_CipherInit>:
    1848:	b530      	push	{r4, r5, lr}
    184a:	2400      	movs	r4, #0
    184c:	b085      	sub	sp, #20
    184e:	461d      	mov	r5, r3
    1850:	4613      	mov	r3, r2
    1852:	f04f 32ff 	mov.w	r2, #4294967295	; 0xffffffff
    1856:	9500      	str	r5, [sp, #0]
    1858:	e9cd 4401 	strd	r4, r4, [sp, #4]
    185c:	f640 34dd 	movw	r4, #3037	; 0xbdd
    1860:	f2c0 0400 	movt	r4, #0
    1864:	47a0      	blx	r4
    1866:	b005      	add	sp, #20
    1868:	bd30      	pop	{r4, r5, pc}
    186a:	bf00      	nop

0000186c <CRYPTO_CipherEncryptAD>:
    186c:	b530      	push	{r4, r5, lr}
    186e:	2400      	movs	r4, #0
    1870:	b087      	sub	sp, #28
    1872:	7244      	strb	r4, [r0, #9]
    1874:	9405      	str	r4, [sp, #20]
    1876:	6844      	ldr	r4, [r0, #4]
    1878:	9d0b      	ldr	r5, [sp, #44]	; 0x2c
    187a:	f044 0480 	orr.w	r4, r4, #128	; 0x80
    187e:	6044      	str	r4, [r0, #4]
    1880:	9501      	str	r5, [sp, #4]
    1882:	9d0c      	ldr	r5, [sp, #48]	; 0x30
    1884:	9c0a      	ldr	r4, [sp, #40]	; 0x28
    1886:	9502      	str	r5, [sp, #8]
    1888:	9d0d      	ldr	r5, [sp, #52]	; 0x34
    188a:	9400      	str	r4, [sp, #0]
    188c:	f640 64e1 	movw	r4, #3809	; 0xee1
    1890:	9503      	str	r5, [sp, #12]
    1892:	9d0e      	ldr	r5, [sp, #56]	; 0x38
    1894:	f2c0 0400 	movt	r4, #0
    1898:	9504      	str	r5, [sp, #16]
    189a:	47a0      	blx	r4
    189c:	b007      	add	sp, #28
    189e:	bd30      	pop	{r4, r5, pc}

000018a0 <CRYPTO_CipherDecryptAD>:
    18a0:	b510      	push	{r4, lr}
    18a2:	b086      	sub	sp, #24
    18a4:	9c08      	ldr	r4, [sp, #32]
    18a6:	9400      	str	r4, [sp, #0]
    18a8:	6844      	ldr	r4, [r0, #4]
    18aa:	f084 0480 	eor.w	r4, r4, #128	; 0x80
    18ae:	6044      	str	r4, [r0, #4]
    18b0:	9c09      	ldr	r4, [sp, #36]	; 0x24
    18b2:	9401      	str	r4, [sp, #4]
    18b4:	9c0a      	ldr	r4, [sp, #40]	; 0x28
    18b6:	9402      	str	r4, [sp, #8]
    18b8:	9c0b      	ldr	r4, [sp, #44]	; 0x2c
    18ba:	9403      	str	r4, [sp, #12]
    18bc:	9c0c      	ldr	r4, [sp, #48]	; 0x30
    18be:	9404      	str	r4, [sp, #16]
    18c0:	2401      	movs	r4, #1
    18c2:	7244      	strb	r4, [r0, #9]
    18c4:	2400      	movs	r4, #0
    18c6:	9405      	str	r4, [sp, #20]
    18c8:	f640 64e1 	movw	r4, #3809	; 0xee1
    18cc:	f2c0 0400 	movt	r4, #0
    18d0:	47a0      	blx	r4
    18d2:	b006      	add	sp, #24
    18d4:	bd10      	pop	{r4, pc}
    18d6:	bf00      	nop

000018d8 <SBOOT_SwapData>:
    18d8:	b152      	cbz	r2, 18f0 <SBOOT_SwapData+0x18>
    18da:	3a01      	subs	r2, #1
    18dc:	1e43      	subs	r3, r0, #1
    18de:	4411      	add	r1, r2
    18e0:	fa50 f082 	uxtab	r0, r0, r2
    18e4:	f811 2901 	ldrb.w	r2, [r1], #-1
    18e8:	f803 2f01 	strb.w	r2, [r3, #1]!
    18ec:	4283      	cmp	r3, r0
    18ee:	d1f9      	bne.n	18e4 <SBOOT_SwapData+0xc>
    18f0:	4770      	bx	lr
    18f2:	bf00      	nop

000018f4 <SBOOT_GetMdType>:
    18f4:	2803      	cmp	r0, #3
    18f6:	d039      	beq.n	196c <SBOOT_GetMdType+0x78>
    18f8:	d815      	bhi.n	1926 <SBOOT_GetMdType+0x32>
    18fa:	2801      	cmp	r0, #1
    18fc:	d024      	beq.n	1948 <SBOOT_GetMdType+0x54>
    18fe:	2802      	cmp	r0, #2
    1900:	d108      	bne.n	1914 <SBOOT_GetMdType+0x20>
    1902:	2000      	movs	r0, #0
    1904:	f04f 0c40 	mov.w	ip, #64	; 0x40
    1908:	4603      	mov	r3, r0
    190a:	f881 c000 	strb.w	ip, [r1]
    190e:	7010      	strb	r0, [r2, #0]
    1910:	4618      	mov	r0, r3
    1912:	4770      	bx	lr
    1914:	b9a0      	cbnz	r0, 1940 <SBOOT_GetMdType+0x4c>
    1916:	f04f 0c20 	mov.w	ip, #32
    191a:	4603      	mov	r3, r0
    191c:	f881 c000 	strb.w	ip, [r1]
    1920:	7010      	strb	r0, [r2, #0]
    1922:	4618      	mov	r0, r3
    1924:	4770      	bx	lr
    1926:	2804      	cmp	r0, #4
    1928:	d017      	beq.n	195a <SBOOT_GetMdType+0x66>
    192a:	2805      	cmp	r0, #5
    192c:	d108      	bne.n	1940 <SBOOT_GetMdType+0x4c>
    192e:	f04f 0c40 	mov.w	ip, #64	; 0x40
    1932:	2001      	movs	r0, #1
    1934:	2300      	movs	r3, #0
    1936:	f881 c000 	strb.w	ip, [r1]
    193a:	7010      	strb	r0, [r2, #0]
    193c:	4618      	mov	r0, r3
    193e:	4770      	bx	lr
    1940:	f06f 0305 	mvn.w	r3, #5
    1944:	4618      	mov	r0, r3
    1946:	4770      	bx	lr
    1948:	2000      	movs	r0, #0
    194a:	f04f 0c30 	mov.w	ip, #48	; 0x30
    194e:	4603      	mov	r3, r0
    1950:	f881 c000 	strb.w	ip, [r1]
    1954:	7010      	strb	r0, [r2, #0]
    1956:	4618      	mov	r0, r3
    1958:	4770      	bx	lr
    195a:	f04f 0c30 	mov.w	ip, #48	; 0x30
    195e:	2001      	movs	r0, #1
    1960:	2300      	movs	r3, #0
    1962:	f881 c000 	strb.w	ip, [r1]
    1966:	7010      	strb	r0, [r2, #0]
    1968:	4618      	mov	r0, r3
    196a:	4770      	bx	lr
    196c:	f04f 0c20 	mov.w	ip, #32
    1970:	2001      	movs	r0, #1
    1972:	2300      	movs	r3, #0
    1974:	f881 c000 	strb.w	ip, [r1]
    1978:	7010      	strb	r0, [r2, #0]
    197a:	4618      	mov	r0, r3
    197c:	4770      	bx	lr
    197e:	bf00      	nop

00001980 <SBOOT_EDDSA_Verify_SW>:
    1980:	b510      	push	{r4, lr}
    1982:	4604      	mov	r4, r0
    1984:	b082      	sub	sp, #8
    1986:	4618      	mov	r0, r3
    1988:	2300      	movs	r3, #0
    198a:	9400      	str	r4, [sp, #0]
    198c:	f003 ff5d 	bl	584a <boot_rom_ed25519_verify_signature>
    1990:	2800      	cmp	r0, #0
    1992:	bf18      	it	ne
    1994:	f06f 0002 	mvnne.w	r0, #2
    1998:	b002      	add	sp, #8
    199a:	bd10      	pop	{r4, pc}

0000199c <SBOOT_Validate_Algorithm>:
    199c:	f44f 7c40 	mov.w	ip, #768	; 0x300
    19a0:	f2c4 1c00 	movt	ip, #16640	; 0x4100
    19a4:	b500      	push	{lr}
    19a6:	f89c c06b 	ldrb.w	ip, [ip, #107]	; 0x6b
    19aa:	f00c 0e0f 	and.w	lr, ip, #15
    19ae:	fa5f fc8c 	uxtb.w	ip, ip
    19b2:	f1be 0f0f 	cmp.w	lr, #15
    19b6:	d001      	beq.n	19bc <SBOOT_Validate_Algorithm+0x20>
    19b8:	4596      	cmp	lr, r2
    19ba:	d10b      	bne.n	19d4 <SBOOT_Validate_Algorithm+0x38>
    19bc:	ea4f 1c1c 	mov.w	ip, ip, lsr #4
    19c0:	7002      	strb	r2, [r0, #0]
    19c2:	f1bc 0f0f 	cmp.w	ip, #15
    19c6:	d001      	beq.n	19cc <SBOOT_Validate_Algorithm+0x30>
    19c8:	459c      	cmp	ip, r3
    19ca:	d106      	bne.n	19da <SBOOT_Validate_Algorithm+0x3e>
    19cc:	2000      	movs	r0, #0
    19ce:	700b      	strb	r3, [r1, #0]
    19d0:	f85d fb04 	ldr.w	pc, [sp], #4
    19d4:	f06f 000b 	mvn.w	r0, #11
    19d8:	e7fa      	b.n	19d0 <SBOOT_Validate_Algorithm+0x34>
    19da:	f06f 000c 	mvn.w	r0, #12
    19de:	e7f7      	b.n	19d0 <SBOOT_Validate_Algorithm+0x34>

000019e0 <SBOOT_Validate_Signature>:
    19e0:	b410      	push	{r4}
    19e2:	4619      	mov	r1, r3
    19e4:	9c01      	ldr	r4, [sp, #4]
    19e6:	9b02      	ldr	r3, [sp, #8]
    19e8:	b930      	cbnz	r0, 19f8 <SBOOT_Validate_Signature+0x18>
    19ea:	4694      	mov	ip, r2
    19ec:	4622      	mov	r2, r4
    19ee:	f85d 4b04 	ldr.w	r4, [sp], #4
    19f2:	4660      	mov	r0, ip
    19f4:	f7ff bfc4 	b.w	1980 <SBOOT_EDDSA_Verify_SW>
    19f8:	f04f 30ff 	mov.w	r0, #4294967295	; 0xffffffff
    19fc:	f85d 4b04 	ldr.w	r4, [sp], #4
    1a00:	4770      	bx	lr
    1a02:	bf00      	nop

00001a04 <SBOOT_Validate_PubKey>:
    1a04:	b5f0      	push	{r4, r5, r6, r7, lr}
    1a06:	b08f      	sub	sp, #60	; 0x3c
    1a08:	bb70      	cbnz	r0, 1a68 <SBOOT_Validate_PubKey+0x64>
    1a0a:	f10d 061f 	add.w	r6, sp, #31
    1a0e:	4615      	mov	r5, r2
    1a10:	f642 3725 	movw	r7, #11045	; 0x2b25
    1a14:	2220      	movs	r2, #32
    1a16:	f026 061f 	bic.w	r6, r6, #31
    1a1a:	4604      	mov	r4, r0
    1a1c:	f2c0 0700 	movt	r7, #0
    1a20:	4610      	mov	r0, r2
    1a22:	4633      	mov	r3, r6
    1a24:	47b8      	blx	r7
    1a26:	4607      	mov	r7, r0
    1a28:	bb08      	cbnz	r0, 1a6e <SBOOT_Validate_PubKey+0x6a>
    1a2a:	f24e 13b9 	movw	r3, #57785	; 0xe1b9
    1a2e:	f2c0 0300 	movt	r3, #0
    1a32:	4798      	blx	r3
    1a34:	f04f 0c20 	mov.w	ip, #32
    1a38:	f000 011f 	and.w	r1, r0, #31
    1a3c:	f815 e001 	ldrb.w	lr, [r5, r1]
    1a40:	f10c 3cff 	add.w	ip, ip, #4294967295	; 0xffffffff
    1a44:	5c73      	ldrb	r3, [r6, r1]
    1a46:	3101      	adds	r1, #1
    1a48:	f01c 0cff 	ands.w	ip, ip, #255	; 0xff
    1a4c:	ea8e 0e03 	eor.w	lr, lr, r3
    1a50:	f001 011f 	and.w	r1, r1, #31
    1a54:	ea44 040e 	orr.w	r4, r4, lr
    1a58:	d1f0      	bne.n	1a3c <SBOOT_Validate_PubKey+0x38>
    1a5a:	2c00      	cmp	r4, #0
    1a5c:	bf18      	it	ne
    1a5e:	f06f 0701 	mvnne.w	r7, #1
    1a62:	4638      	mov	r0, r7
    1a64:	b00f      	add	sp, #60	; 0x3c
    1a66:	bdf0      	pop	{r4, r5, r6, r7, pc}
    1a68:	f04f 37ff 	mov.w	r7, #4294967295	; 0xffffffff
    1a6c:	e7f9      	b.n	1a62 <SBOOT_Validate_PubKey+0x5e>
    1a6e:	f06f 0707 	mvn.w	r7, #7
    1a72:	e7f6      	b.n	1a62 <SBOOT_Validate_PubKey+0x5e>

00001a74 <SBOOT_Validate_ImgHash>:
    1a74:	e92d 47f0 	stmdb	sp!, {r4, r5, r6, r7, r8, r9, sl, lr}
    1a78:	f5ad 7d18 	sub.w	sp, sp, #608	; 0x260
    1a7c:	4606      	mov	r6, r0
    1a7e:	460f      	mov	r7, r1
    1a80:	2100      	movs	r1, #0
    1a82:	f10d 0527 	add.w	r5, sp, #39	; 0x27
    1a86:	4614      	mov	r4, r2
    1a88:	f44f 7200 	mov.w	r2, #512	; 0x200
    1a8c:	4698      	mov	r8, r3
    1a8e:	f025 051f 	bic.w	r5, r5, #31
    1a92:	f88d 1007 	strb.w	r1, [sp, #7]
    1a96:	4628      	mov	r0, r5
    1a98:	f010 fb38 	bl	1210c <__wrap_memset>
    1a9c:	4630      	mov	r0, r6
    1a9e:	f10d 0207 	add.w	r2, sp, #7
    1aa2:	f10d 0106 	add.w	r1, sp, #6
    1aa6:	f7ff ff25 	bl	18f4 <SBOOT_GetMdType>
    1aaa:	4606      	mov	r6, r0
    1aac:	bb78      	cbnz	r0, 1b0e <SBOOT_Validate_ImgHash+0x9a>
    1aae:	f89d 3007 	ldrb.w	r3, [sp, #7]
    1ab2:	b38b      	cbz	r3, 1b18 <SBOOT_Validate_ImgHash+0xa4>
    1ab4:	2101      	movs	r1, #1
    1ab6:	f640 6961 	movw	r9, #3681	; 0xe61
    1aba:	f642 6a25 	movw	sl, #11813	; 0x2e25
    1abe:	4608      	mov	r0, r1
    1ac0:	f2c0 0900 	movt	r9, #0
    1ac4:	47c8      	blx	r9
    1ac6:	f2c0 0a00 	movt	sl, #0
    1aca:	462b      	mov	r3, r5
    1acc:	2220      	movs	r2, #32
    1ace:	4631      	mov	r1, r6
    1ad0:	f89d 0006 	ldrb.w	r0, [sp, #6]
    1ad4:	47d0      	blx	sl
    1ad6:	b9c0      	cbnz	r0, 1b0a <SBOOT_Validate_ImgHash+0x96>
    1ad8:	f1b8 0f00 	cmp.w	r8, #0
    1adc:	d079      	beq.n	1bd2 <SBOOT_Validate_ImgHash+0x15e>
    1ade:	f108 38ff 	add.w	r8, r8, #4294967295	; 0xffffffff
    1ae2:	f104 0a08 	add.w	sl, r4, #8
    1ae6:	fa5f f888 	uxtb.w	r8, r8
    1aea:	eb0a 0ac8 	add.w	sl, sl, r8, lsl #3
    1aee:	f243 285d 	movw	r8, #12893	; 0x325d
    1af2:	f2c0 0800 	movt	r8, #0
    1af6:	e001      	b.n	1afc <SBOOT_Validate_ImgHash+0x88>
    1af8:	45a2      	cmp	sl, r4
    1afa:	d06a      	beq.n	1bd2 <SBOOT_Validate_ImgHash+0x15e>
    1afc:	3408      	adds	r4, #8
    1afe:	462a      	mov	r2, r5
    1b00:	e954 0102 	ldrd	r0, r1, [r4, #-8]
    1b04:	47c0      	blx	r8
    1b06:	2800      	cmp	r0, #0
    1b08:	d0f6      	beq.n	1af8 <SBOOT_Validate_ImgHash+0x84>
    1b0a:	f06f 060a 	mvn.w	r6, #10
    1b0e:	4630      	mov	r0, r6
    1b10:	f50d 7d18 	add.w	sp, sp, #608	; 0x260
    1b14:	e8bd 87f0 	ldmia.w	sp!, {r4, r5, r6, r7, r8, r9, sl, pc}
    1b18:	f242 63a1 	movw	r3, #9889	; 0x26a1
    1b1c:	4629      	mov	r1, r5
    1b1e:	f89d 0006 	ldrb.w	r0, [sp, #6]
    1b22:	f2c0 0300 	movt	r3, #0
    1b26:	4798      	blx	r3
    1b28:	2800      	cmp	r0, #0
    1b2a:	d1ee      	bne.n	1b0a <SBOOT_Validate_ImgHash+0x96>
    1b2c:	f1b8 0f00 	cmp.w	r8, #0
    1b30:	d016      	beq.n	1b60 <SBOOT_Validate_ImgHash+0xec>
    1b32:	f108 38ff 	add.w	r8, r8, #4294967295	; 0xffffffff
    1b36:	f104 0908 	add.w	r9, r4, #8
    1b3a:	fa5f f888 	uxtb.w	r8, r8
    1b3e:	eb09 09c8 	add.w	r9, r9, r8, lsl #3
    1b42:	f642 2835 	movw	r8, #10805	; 0x2a35
    1b46:	f2c0 0800 	movt	r8, #0
    1b4a:	e001      	b.n	1b50 <SBOOT_Validate_ImgHash+0xdc>
    1b4c:	45a1      	cmp	r9, r4
    1b4e:	d007      	beq.n	1b60 <SBOOT_Validate_ImgHash+0xec>
    1b50:	3408      	adds	r4, #8
    1b52:	462a      	mov	r2, r5
    1b54:	e954 0102 	ldrd	r0, r1, [r4, #-8]
    1b58:	47c0      	blx	r8
    1b5a:	2800      	cmp	r0, #0
    1b5c:	d0f6      	beq.n	1b4c <SBOOT_Validate_ImgHash+0xd8>
    1b5e:	e7d4      	b.n	1b0a <SBOOT_Validate_ImgHash+0x96>
    1b60:	f642 23a5 	movw	r3, #10917	; 0x2aa5
    1b64:	4629      	mov	r1, r5
    1b66:	f505 7000 	add.w	r0, r5, #512	; 0x200
    1b6a:	f2c0 0300 	movt	r3, #0
    1b6e:	4798      	blx	r3
    1b70:	2800      	cmp	r0, #0
    1b72:	d1ca      	bne.n	1b0a <SBOOT_Validate_ImgHash+0x96>
    1b74:	f24e 13b9 	movw	r3, #57785	; 0xe1b9
    1b78:	f89d 4006 	ldrb.w	r4, [sp, #6]
    1b7c:	f2c0 0300 	movt	r3, #0
    1b80:	4798      	blx	r3
    1b82:	fbb0 f2f4 	udiv	r2, r0, r4
    1b86:	fb02 0014 	mls	r0, r2, r4, r0
    1b8a:	b2c0      	uxtb	r0, r0
    1b8c:	2c00      	cmp	r4, #0
    1b8e:	d0be      	beq.n	1b0e <SBOOT_Validate_ImgHash+0x9a>
    1b90:	2100      	movs	r1, #0
    1b92:	468c      	mov	ip, r1
    1b94:	1c42      	adds	r2, r0, #1
    1b96:	eb05 0e00 	add.w	lr, r5, r0
    1b9a:	5c3b      	ldrb	r3, [r7, r0]
    1b9c:	3101      	adds	r1, #1
    1b9e:	b2d2      	uxtb	r2, r2
    1ba0:	f89e 8200 	ldrb.w	r8, [lr, #512]	; 0x200
    1ba4:	fa5f fe81 	uxtb.w	lr, r1
    1ba8:	ea83 0308 	eor.w	r3, r3, r8
    1bac:	4574      	cmp	r4, lr
    1bae:	ea4c 0c03 	orr.w	ip, ip, r3
    1bb2:	fbb2 f0f4 	udiv	r0, r2, r4
    1bb6:	fb04 2210 	mls	r2, r4, r0, r2
    1bba:	b2d0      	uxtb	r0, r2
    1bbc:	d8ea      	bhi.n	1b94 <SBOOT_Validate_ImgHash+0x120>
    1bbe:	f1bc 0f00 	cmp.w	ip, #0
    1bc2:	bf18      	it	ne
    1bc4:	f06f 0606 	mvnne.w	r6, #6
    1bc8:	4630      	mov	r0, r6
    1bca:	f50d 7d18 	add.w	sp, sp, #608	; 0x260
    1bce:	e8bd 87f0 	ldmia.w	sp!, {r4, r5, r6, r7, r8, r9, sl, pc}
    1bd2:	f243 23cd 	movw	r3, #13005	; 0x32cd
    1bd6:	4629      	mov	r1, r5
    1bd8:	f505 7000 	add.w	r0, r5, #512	; 0x200
    1bdc:	f2c0 0300 	movt	r3, #0
    1be0:	4798      	blx	r3
    1be2:	4601      	mov	r1, r0
    1be4:	2800      	cmp	r0, #0
    1be6:	d190      	bne.n	1b0a <SBOOT_Validate_ImgHash+0x96>
    1be8:	2001      	movs	r0, #1
    1bea:	47c8      	blx	r9
    1bec:	e7c2      	b.n	1b74 <SBOOT_Validate_ImgHash+0x100>
    1bee:	bf00      	nop

00001bf0 <SBOOT_SignatureVerify>:
    1bf0:	e92d 41f0 	stmdb	sp!, {r4, r5, r6, r7, r8, lr}
    1bf4:	460c      	mov	r4, r1
    1bf6:	f64b 65bd 	movw	r5, #48829	; 0xbebd
    1bfa:	f44f 7100 	mov.w	r1, #512	; 0x200
    1bfe:	b084      	sub	sp, #16
    1c00:	f2c0 0500 	movt	r5, #0
    1c04:	4616      	mov	r6, r2
    1c06:	4680      	mov	r8, r0
    1c08:	2201      	movs	r2, #1
    1c0a:	4608      	mov	r0, r1
    1c0c:	461f      	mov	r7, r3
    1c0e:	47a8      	blx	r5
    1c10:	2180      	movs	r1, #128	; 0x80
    1c12:	2201      	movs	r2, #1
    1c14:	4608      	mov	r0, r1
    1c16:	47a8      	blx	r5
    1c18:	f640 53d5 	movw	r3, #3541	; 0xdd5
    1c1c:	2000      	movs	r0, #0
    1c1e:	f2c0 0300 	movt	r3, #0
    1c22:	4798      	blx	r3
    1c24:	7ce3      	ldrb	r3, [r4, #19]
    1c26:	7ca2      	ldrb	r2, [r4, #18]
    1c28:	f10d 010f 	add.w	r1, sp, #15
    1c2c:	f10d 000e 	add.w	r0, sp, #14
    1c30:	f7ff feb4 	bl	199c <SBOOT_Validate_Algorithm>
    1c34:	b110      	cbz	r0, 1c3c <SBOOT_SignatureVerify+0x4c>
    1c36:	b004      	add	sp, #16
    1c38:	e8bd 81f0 	ldmia.w	sp!, {r4, r5, r6, r7, r8, pc}
    1c3c:	f24c 75e9 	movw	r5, #51177	; 0xc7e9
    1c40:	f2c0 0500 	movt	r5, #0
    1c44:	47a8      	blx	r5
    1c46:	4642      	mov	r2, r8
    1c48:	f104 0870 	add.w	r8, r4, #112	; 0x70
    1c4c:	f89d 000e 	ldrb.w	r0, [sp, #14]
    1c50:	4641      	mov	r1, r8
    1c52:	f7ff fed7 	bl	1a04 <SBOOT_Validate_PubKey>
    1c56:	2800      	cmp	r0, #0
    1c58:	d1ed      	bne.n	1c36 <SBOOT_SignatureVerify+0x46>
    1c5a:	47a8      	blx	r5
    1c5c:	f504 7380 	add.w	r3, r4, #256	; 0x100
    1c60:	4642      	mov	r2, r8
    1c62:	f89d 100f 	ldrb.w	r1, [sp, #15]
    1c66:	9301      	str	r3, [sp, #4]
    1c68:	f44f 7380 	mov.w	r3, #256	; 0x100
    1c6c:	f89d 000e 	ldrb.w	r0, [sp, #14]
    1c70:	9300      	str	r3, [sp, #0]
    1c72:	4623      	mov	r3, r4
    1c74:	f7ff feb4 	bl	19e0 <SBOOT_Validate_Signature>
    1c78:	2800      	cmp	r0, #0
    1c7a:	d1dc      	bne.n	1c36 <SBOOT_SignatureVerify+0x46>
    1c7c:	47a8      	blx	r5
    1c7e:	463b      	mov	r3, r7
    1c80:	4632      	mov	r2, r6
    1c82:	f104 0130 	add.w	r1, r4, #48	; 0x30
    1c86:	f89d 000f 	ldrb.w	r0, [sp, #15]
    1c8a:	f7ff fef3 	bl	1a74 <SBOOT_Validate_ImgHash>
    1c8e:	b004      	add	sp, #16
    1c90:	e8bd 81f0 	ldmia.w	sp!, {r4, r5, r6, r7, r8, pc}

00001c94 <rtl_crypto_aes_cbc_init>:
    1c94:	f244 2300 	movw	r3, #16896	; 0x4200
    1c98:	f2c2 0300 	movt	r3, #8192	; 0x2000
    1c9c:	b570      	push	{r4, r5, r6, lr}
    1c9e:	781b      	ldrb	r3, [r3, #0]
    1ca0:	4604      	mov	r4, r0
    1ca2:	460d      	mov	r5, r1
    1ca4:	2b01      	cmp	r3, #1
    1ca6:	d113      	bne.n	1cd0 <rtl_crypto_aes_cbc_init+0x3c>
    1ca8:	b304      	cbz	r4, 1cec <rtl_crypto_aes_cbc_init+0x58>
    1caa:	07a3      	lsls	r3, r4, #30
    1cac:	d11b      	bne.n	1ce6 <rtl_crypto_aes_cbc_init+0x52>
    1cae:	2d20      	cmp	r5, #32
    1cb0:	d816      	bhi.n	1ce0 <rtl_crypto_aes_cbc_init+0x4c>
    1cb2:	f641 0e49 	movw	lr, #6217	; 0x1849
    1cb6:	f244 2000 	movw	r0, #16896	; 0x4200
    1cba:	462b      	mov	r3, r5
    1cbc:	4622      	mov	r2, r4
    1cbe:	f2c0 0e00 	movt	lr, #0
    1cc2:	2121      	movs	r1, #33	; 0x21
    1cc4:	f2c2 0000 	movt	r0, #8192	; 0x2000
    1cc8:	46f4      	mov	ip, lr
    1cca:	e8bd 4070 	ldmia.w	sp!, {r4, r5, r6, lr}
    1cce:	4760      	bx	ip
    1cd0:	f246 1010 	movw	r0, #24848	; 0x6110
    1cd4:	2126      	movs	r1, #38	; 0x26
    1cd6:	f2c0 0004 	movt	r0, #4
    1cda:	f007 f9a7 	bl	902c <io_assert_failed>
    1cde:	e7e3      	b.n	1ca8 <rtl_crypto_aes_cbc_init+0x14>
    1ce0:	f06f 0006 	mvn.w	r0, #6
    1ce4:	bd70      	pop	{r4, r5, r6, pc}
    1ce6:	f06f 0005 	mvn.w	r0, #5
    1cea:	bd70      	pop	{r4, r5, r6, pc}
    1cec:	f06f 0003 	mvn.w	r0, #3
    1cf0:	bd70      	pop	{r4, r5, r6, pc}
    1cf2:	bf00      	nop

00001cf4 <rtl_crypto_aes_cbc_encrypt>:
    1cf4:	b530      	push	{r4, r5, lr}
    1cf6:	b087      	sub	sp, #28
    1cf8:	461d      	mov	r5, r3
    1cfa:	9b0a      	ldr	r3, [sp, #40]	; 0x28
    1cfc:	b1f2      	cbz	r2, 1d3c <rtl_crypto_aes_cbc_encrypt+0x48>
    1cfe:	0794      	lsls	r4, r2, #30
    1d00:	d11f      	bne.n	1d42 <rtl_crypto_aes_cbc_encrypt+0x4e>
    1d02:	2d10      	cmp	r5, #16
    1d04:	d117      	bne.n	1d36 <rtl_crypto_aes_cbc_encrypt+0x42>
    1d06:	b1c8      	cbz	r0, 1d3c <rtl_crypto_aes_cbc_encrypt+0x48>
    1d08:	fab3 f483 	clz	r4, r3
    1d0c:	0964      	lsrs	r4, r4, #5
    1d0e:	b1ab      	cbz	r3, 1d3c <rtl_crypto_aes_cbc_encrypt+0x48>
    1d10:	9303      	str	r3, [sp, #12]
    1d12:	4613      	mov	r3, r2
    1d14:	9404      	str	r4, [sp, #16]
    1d16:	460a      	mov	r2, r1
    1d18:	4601      	mov	r1, r0
    1d1a:	f244 2000 	movw	r0, #16896	; 0x4200
    1d1e:	9500      	str	r5, [sp, #0]
    1d20:	f2c2 0000 	movt	r0, #8192	; 0x2000
    1d24:	e9cd 4401 	strd	r4, r4, [sp, #4]
    1d28:	f641 046d 	movw	r4, #6253	; 0x186d
    1d2c:	f2c0 0400 	movt	r4, #0
    1d30:	47a0      	blx	r4
    1d32:	b007      	add	sp, #28
    1d34:	bd30      	pop	{r4, r5, pc}
    1d36:	f06f 0008 	mvn.w	r0, #8
    1d3a:	e7fa      	b.n	1d32 <rtl_crypto_aes_cbc_encrypt+0x3e>
    1d3c:	f06f 0003 	mvn.w	r0, #3
    1d40:	e7f7      	b.n	1d32 <rtl_crypto_aes_cbc_encrypt+0x3e>
    1d42:	f06f 0005 	mvn.w	r0, #5
    1d46:	e7f4      	b.n	1d32 <rtl_crypto_aes_cbc_encrypt+0x3e>

00001d48 <rtl_crypto_aes_cbc_decrypt>:
    1d48:	b530      	push	{r4, r5, lr}
    1d4a:	b087      	sub	sp, #28
    1d4c:	461d      	mov	r5, r3
    1d4e:	9b0a      	ldr	r3, [sp, #40]	; 0x28
    1d50:	b1f2      	cbz	r2, 1d90 <rtl_crypto_aes_cbc_decrypt+0x48>
    1d52:	0794      	lsls	r4, r2, #30
    1d54:	d11f      	bne.n	1d96 <rtl_crypto_aes_cbc_decrypt+0x4e>
    1d56:	2d10      	cmp	r5, #16
    1d58:	d117      	bne.n	1d8a <rtl_crypto_aes_cbc_decrypt+0x42>
    1d5a:	b1c8      	cbz	r0, 1d90 <rtl_crypto_aes_cbc_decrypt+0x48>
    1d5c:	fab3 f483 	clz	r4, r3
    1d60:	0964      	lsrs	r4, r4, #5
    1d62:	b1ab      	cbz	r3, 1d90 <rtl_crypto_aes_cbc_decrypt+0x48>
    1d64:	9303      	str	r3, [sp, #12]
    1d66:	4613      	mov	r3, r2
    1d68:	9404      	str	r4, [sp, #16]
    1d6a:	460a      	mov	r2, r1
    1d6c:	4601      	mov	r1, r0
    1d6e:	f244 2000 	movw	r0, #16896	; 0x4200
    1d72:	9500      	str	r5, [sp, #0]
    1d74:	f2c2 0000 	movt	r0, #8192	; 0x2000
    1d78:	e9cd 4401 	strd	r4, r4, [sp, #4]
    1d7c:	f641 04a1 	movw	r4, #6305	; 0x18a1
    1d80:	f2c0 0400 	movt	r4, #0
    1d84:	47a0      	blx	r4
    1d86:	b007      	add	sp, #28
    1d88:	bd30      	pop	{r4, r5, pc}
    1d8a:	f06f 0008 	mvn.w	r0, #8
    1d8e:	e7fa      	b.n	1d86 <rtl_crypto_aes_cbc_decrypt+0x3e>
    1d90:	f06f 0003 	mvn.w	r0, #3
    1d94:	e7f7      	b.n	1d86 <rtl_crypto_aes_cbc_decrypt+0x3e>
    1d96:	f06f 0005 	mvn.w	r0, #5
    1d9a:	e7f4      	b.n	1d86 <rtl_crypto_aes_cbc_decrypt+0x3e>

00001d9c <rtl_crypto_aes_ecb_init>:
    1d9c:	f244 2300 	movw	r3, #16896	; 0x4200
    1da0:	f2c2 0300 	movt	r3, #8192	; 0x2000
    1da4:	b570      	push	{r4, r5, r6, lr}
    1da6:	781b      	ldrb	r3, [r3, #0]
    1da8:	4604      	mov	r4, r0
    1daa:	460d      	mov	r5, r1
    1dac:	2b01      	cmp	r3, #1
    1dae:	d113      	bne.n	1dd8 <rtl_crypto_aes_ecb_init+0x3c>
    1db0:	b304      	cbz	r4, 1df4 <rtl_crypto_aes_ecb_init+0x58>
    1db2:	07a3      	lsls	r3, r4, #30
    1db4:	d11b      	bne.n	1dee <rtl_crypto_aes_ecb_init+0x52>
    1db6:	2d20      	cmp	r5, #32
    1db8:	d816      	bhi.n	1de8 <rtl_crypto_aes_ecb_init+0x4c>
    1dba:	f641 0e49 	movw	lr, #6217	; 0x1849
    1dbe:	f244 2000 	movw	r0, #16896	; 0x4200
    1dc2:	462b      	mov	r3, r5
    1dc4:	4622      	mov	r2, r4
    1dc6:	f2c0 0e00 	movt	lr, #0
    1dca:	2120      	movs	r1, #32
    1dcc:	f2c2 0000 	movt	r0, #8192	; 0x2000
    1dd0:	46f4      	mov	ip, lr
    1dd2:	e8bd 4070 	ldmia.w	sp!, {r4, r5, r6, lr}
    1dd6:	4760      	bx	ip
    1dd8:	f246 1028 	movw	r0, #24872	; 0x6128
    1ddc:	218b      	movs	r1, #139	; 0x8b
    1dde:	f2c0 0004 	movt	r0, #4
    1de2:	f007 f923 	bl	902c <io_assert_failed>
    1de6:	e7e3      	b.n	1db0 <rtl_crypto_aes_ecb_init+0x14>
    1de8:	f06f 0006 	mvn.w	r0, #6
    1dec:	bd70      	pop	{r4, r5, r6, pc}
    1dee:	f06f 0005 	mvn.w	r0, #5
    1df2:	bd70      	pop	{r4, r5, r6, pc}
    1df4:	f06f 0003 	mvn.w	r0, #3
    1df8:	bd70      	pop	{r4, r5, r6, pc}
    1dfa:	bf00      	nop

00001dfc <rtl_crypto_aes_ecb_encrypt>:
    1dfc:	b570      	push	{r4, r5, r6, lr}
    1dfe:	b086      	sub	sp, #24
    1e00:	9e0a      	ldr	r6, [sp, #40]	; 0x28
    1e02:	b1b8      	cbz	r0, 1e34 <rtl_crypto_aes_ecb_encrypt+0x38>
    1e04:	fab6 f486 	clz	r4, r6
    1e08:	0964      	lsrs	r4, r4, #5
    1e0a:	b19e      	cbz	r6, 1e34 <rtl_crypto_aes_ecb_encrypt+0x38>
    1e0c:	461d      	mov	r5, r3
    1e0e:	9404      	str	r4, [sp, #16]
    1e10:	4613      	mov	r3, r2
    1e12:	460a      	mov	r2, r1
    1e14:	4601      	mov	r1, r0
    1e16:	f244 2000 	movw	r0, #16896	; 0x4200
    1e1a:	9603      	str	r6, [sp, #12]
    1e1c:	f2c2 0000 	movt	r0, #8192	; 0x2000
    1e20:	9500      	str	r5, [sp, #0]
    1e22:	e9cd 4401 	strd	r4, r4, [sp, #4]
    1e26:	f641 046d 	movw	r4, #6253	; 0x186d
    1e2a:	f2c0 0400 	movt	r4, #0
    1e2e:	47a0      	blx	r4
    1e30:	b006      	add	sp, #24
    1e32:	bd70      	pop	{r4, r5, r6, pc}
    1e34:	f06f 0003 	mvn.w	r0, #3
    1e38:	e7fa      	b.n	1e30 <rtl_crypto_aes_ecb_encrypt+0x34>
    1e3a:	bf00      	nop

00001e3c <rtl_crypto_aes_ecb_decrypt>:
    1e3c:	b570      	push	{r4, r5, r6, lr}
    1e3e:	b086      	sub	sp, #24
    1e40:	9e0a      	ldr	r6, [sp, #40]	; 0x28
    1e42:	b1b8      	cbz	r0, 1e74 <rtl_crypto_aes_ecb_decrypt+0x38>
    1e44:	fab6 f486 	clz	r4, r6
    1e48:	0964      	lsrs	r4, r4, #5
    1e4a:	b19e      	cbz	r6, 1e74 <rtl_crypto_aes_ecb_decrypt+0x38>
    1e4c:	461d      	mov	r5, r3
    1e4e:	9404      	str	r4, [sp, #16]
    1e50:	4613      	mov	r3, r2
    1e52:	460a      	mov	r2, r1
    1e54:	4601      	mov	r1, r0
    1e56:	f244 2000 	movw	r0, #16896	; 0x4200
    1e5a:	9603      	str	r6, [sp, #12]
    1e5c:	f2c2 0000 	movt	r0, #8192	; 0x2000
    1e60:	9500      	str	r5, [sp, #0]
    1e62:	e9cd 4401 	strd	r4, r4, [sp, #4]
    1e66:	f641 04a1 	movw	r4, #6305	; 0x18a1
    1e6a:	f2c0 0400 	movt	r4, #0
    1e6e:	47a0      	blx	r4
    1e70:	b006      	add	sp, #24
    1e72:	bd70      	pop	{r4, r5, r6, pc}
    1e74:	f06f 0003 	mvn.w	r0, #3
    1e78:	e7fa      	b.n	1e70 <rtl_crypto_aes_ecb_decrypt+0x34>
    1e7a:	bf00      	nop

00001e7c <rtl_crypto_aes_ctr_init>:
    1e7c:	f244 2300 	movw	r3, #16896	; 0x4200
    1e80:	f2c2 0300 	movt	r3, #8192	; 0x2000
    1e84:	b570      	push	{r4, r5, r6, lr}
    1e86:	781b      	ldrb	r3, [r3, #0]
    1e88:	4604      	mov	r4, r0
    1e8a:	460d      	mov	r5, r1
    1e8c:	2b01      	cmp	r3, #1
    1e8e:	d113      	bne.n	1eb8 <rtl_crypto_aes_ctr_init+0x3c>
    1e90:	b304      	cbz	r4, 1ed4 <rtl_crypto_aes_ctr_init+0x58>
    1e92:	07a3      	lsls	r3, r4, #30
    1e94:	d11b      	bne.n	1ece <rtl_crypto_aes_ctr_init+0x52>
    1e96:	2d20      	cmp	r5, #32
    1e98:	d816      	bhi.n	1ec8 <rtl_crypto_aes_ctr_init+0x4c>
    1e9a:	f641 0e49 	movw	lr, #6217	; 0x1849
    1e9e:	f244 2000 	movw	r0, #16896	; 0x4200
    1ea2:	462b      	mov	r3, r5
    1ea4:	4622      	mov	r2, r4
    1ea6:	f2c0 0e00 	movt	lr, #0
    1eaa:	2124      	movs	r1, #36	; 0x24
    1eac:	f2c2 0000 	movt	r0, #8192	; 0x2000
    1eb0:	46f4      	mov	ip, lr
    1eb2:	e8bd 4070 	ldmia.w	sp!, {r4, r5, r6, lr}
    1eb6:	4760      	bx	ip
    1eb8:	f246 1040 	movw	r0, #24896	; 0x6140
    1ebc:	21de      	movs	r1, #222	; 0xde
    1ebe:	f2c0 0004 	movt	r0, #4
    1ec2:	f007 f8b3 	bl	902c <io_assert_failed>
    1ec6:	e7e3      	b.n	1e90 <rtl_crypto_aes_ctr_init+0x14>
    1ec8:	f06f 0006 	mvn.w	r0, #6
    1ecc:	bd70      	pop	{r4, r5, r6, pc}
    1ece:	f06f 0005 	mvn.w	r0, #5
    1ed2:	bd70      	pop	{r4, r5, r6, pc}
    1ed4:	f06f 0003 	mvn.w	r0, #3
    1ed8:	bd70      	pop	{r4, r5, r6, pc}
    1eda:	bf00      	nop

00001edc <rtl_crypto_aes_ctr_encrypt>:
    1edc:	b530      	push	{r4, r5, lr}
    1ede:	b087      	sub	sp, #28
    1ee0:	461d      	mov	r5, r3
    1ee2:	9b0a      	ldr	r3, [sp, #40]	; 0x28
    1ee4:	b1ca      	cbz	r2, 1f1a <rtl_crypto_aes_ctr_encrypt+0x3e>
    1ee6:	0794      	lsls	r4, r2, #30
    1ee8:	d11a      	bne.n	1f20 <rtl_crypto_aes_ctr_encrypt+0x44>
    1eea:	b1b0      	cbz	r0, 1f1a <rtl_crypto_aes_ctr_encrypt+0x3e>
    1eec:	fab3 f483 	clz	r4, r3
    1ef0:	0964      	lsrs	r4, r4, #5
    1ef2:	b193      	cbz	r3, 1f1a <rtl_crypto_aes_ctr_encrypt+0x3e>
    1ef4:	9303      	str	r3, [sp, #12]
    1ef6:	4613      	mov	r3, r2
    1ef8:	9404      	str	r4, [sp, #16]
    1efa:	460a      	mov	r2, r1
    1efc:	4601      	mov	r1, r0
    1efe:	f244 2000 	movw	r0, #16896	; 0x4200
    1f02:	9500      	str	r5, [sp, #0]
    1f04:	f2c2 0000 	movt	r0, #8192	; 0x2000
    1f08:	e9cd 4401 	strd	r4, r4, [sp, #4]
    1f0c:	f641 046d 	movw	r4, #6253	; 0x186d
    1f10:	f2c0 0400 	movt	r4, #0
    1f14:	47a0      	blx	r4
    1f16:	b007      	add	sp, #28
    1f18:	bd30      	pop	{r4, r5, pc}
    1f1a:	f06f 0003 	mvn.w	r0, #3
    1f1e:	e7fa      	b.n	1f16 <rtl_crypto_aes_ctr_encrypt+0x3a>
    1f20:	f06f 0005 	mvn.w	r0, #5
    1f24:	e7f7      	b.n	1f16 <rtl_crypto_aes_ctr_encrypt+0x3a>
    1f26:	bf00      	nop

00001f28 <rtl_crypto_aes_ctr_decrypt>:
    1f28:	b530      	push	{r4, r5, lr}
    1f2a:	b087      	sub	sp, #28
    1f2c:	461d      	mov	r5, r3
    1f2e:	9b0a      	ldr	r3, [sp, #40]	; 0x28
    1f30:	b1ca      	cbz	r2, 1f66 <rtl_crypto_aes_ctr_decrypt+0x3e>
    1f32:	0794      	lsls	r4, r2, #30
    1f34:	d11a      	bne.n	1f6c <rtl_crypto_aes_ctr_decrypt+0x44>
    1f36:	b1b0      	cbz	r0, 1f66 <rtl_crypto_aes_ctr_decrypt+0x3e>
    1f38:	fab3 f483 	clz	r4, r3
    1f3c:	0964      	lsrs	r4, r4, #5
    1f3e:	b193      	cbz	r3, 1f66 <rtl_crypto_aes_ctr_decrypt+0x3e>
    1f40:	9303      	str	r3, [sp, #12]
    1f42:	4613      	mov	r3, r2
    1f44:	9404      	str	r4, [sp, #16]
    1f46:	460a      	mov	r2, r1
    1f48:	4601      	mov	r1, r0
    1f4a:	f244 2000 	movw	r0, #16896	; 0x4200
    1f4e:	9500      	str	r5, [sp, #0]
    1f50:	f2c2 0000 	movt	r0, #8192	; 0x2000
    1f54:	e9cd 4401 	strd	r4, r4, [sp, #4]
    1f58:	f641 04a1 	movw	r4, #6305	; 0x18a1
    1f5c:	f2c0 0400 	movt	r4, #0
    1f60:	47a0      	blx	r4
    1f62:	b007      	add	sp, #28
    1f64:	bd30      	pop	{r4, r5, pc}
    1f66:	f06f 0003 	mvn.w	r0, #3
    1f6a:	e7fa      	b.n	1f62 <rtl_crypto_aes_ctr_decrypt+0x3a>
    1f6c:	f06f 0005 	mvn.w	r0, #5
    1f70:	e7f7      	b.n	1f62 <rtl_crypto_aes_ctr_decrypt+0x3a>
    1f72:	bf00      	nop

00001f74 <rtl_crypto_aes_cfb_init>:
    1f74:	f244 2300 	movw	r3, #16896	; 0x4200
    1f78:	f2c2 0300 	movt	r3, #8192	; 0x2000
    1f7c:	b570      	push	{r4, r5, r6, lr}
    1f7e:	781b      	ldrb	r3, [r3, #0]
    1f80:	4604      	mov	r4, r0
    1f82:	460d      	mov	r5, r1
    1f84:	2b01      	cmp	r3, #1
    1f86:	d113      	bne.n	1fb0 <rtl_crypto_aes_cfb_init+0x3c>
    1f88:	b30c      	cbz	r4, 1fce <rtl_crypto_aes_cfb_init+0x5a>
    1f8a:	07a3      	lsls	r3, r4, #30
    1f8c:	d11c      	bne.n	1fc8 <rtl_crypto_aes_cfb_init+0x54>
    1f8e:	2d20      	cmp	r5, #32
    1f90:	d817      	bhi.n	1fc2 <rtl_crypto_aes_cfb_init+0x4e>
    1f92:	f641 0e49 	movw	lr, #6217	; 0x1849
    1f96:	f244 2000 	movw	r0, #16896	; 0x4200
    1f9a:	462b      	mov	r3, r5
    1f9c:	4622      	mov	r2, r4
    1f9e:	f2c0 0e00 	movt	lr, #0
    1fa2:	2122      	movs	r1, #34	; 0x22
    1fa4:	f2c2 0000 	movt	r0, #8192	; 0x2000
    1fa8:	46f4      	mov	ip, lr
    1faa:	e8bd 4070 	ldmia.w	sp!, {r4, r5, r6, lr}
    1fae:	4760      	bx	ip
    1fb0:	f246 1058 	movw	r0, #24920	; 0x6158
    1fb4:	f44f 719e 	mov.w	r1, #316	; 0x13c
    1fb8:	f2c0 0004 	movt	r0, #4
    1fbc:	f007 f836 	bl	902c <io_assert_failed>
    1fc0:	e7e2      	b.n	1f88 <rtl_crypto_aes_cfb_init+0x14>
    1fc2:	f06f 0006 	mvn.w	r0, #6
    1fc6:	bd70      	pop	{r4, r5, r6, pc}
    1fc8:	f06f 0005 	mvn.w	r0, #5
    1fcc:	bd70      	pop	{r4, r5, r6, pc}
    1fce:	f06f 0003 	mvn.w	r0, #3
    1fd2:	bd70      	pop	{r4, r5, r6, pc}

00001fd4 <rtl_crypto_aes_cfb_encrypt>:
    1fd4:	b530      	push	{r4, r5, lr}
    1fd6:	b087      	sub	sp, #28
    1fd8:	461d      	mov	r5, r3
    1fda:	9b0a      	ldr	r3, [sp, #40]	; 0x28
    1fdc:	b1ca      	cbz	r2, 2012 <rtl_crypto_aes_cfb_encrypt+0x3e>
    1fde:	0794      	lsls	r4, r2, #30
    1fe0:	d11a      	bne.n	2018 <rtl_crypto_aes_cfb_encrypt+0x44>
    1fe2:	b1b0      	cbz	r0, 2012 <rtl_crypto_aes_cfb_encrypt+0x3e>
    1fe4:	fab3 f483 	clz	r4, r3
    1fe8:	0964      	lsrs	r4, r4, #5
    1fea:	b193      	cbz	r3, 2012 <rtl_crypto_aes_cfb_encrypt+0x3e>
    1fec:	9303      	str	r3, [sp, #12]
    1fee:	4613      	mov	r3, r2
    1ff0:	9404      	str	r4, [sp, #16]
    1ff2:	460a      	mov	r2, r1
    1ff4:	4601      	mov	r1, r0
    1ff6:	f244 2000 	movw	r0, #16896	; 0x4200
    1ffa:	9500      	str	r5, [sp, #0]
    1ffc:	f2c2 0000 	movt	r0, #8192	; 0x2000
    2000:	e9cd 4401 	strd	r4, r4, [sp, #4]
    2004:	f641 046d 	movw	r4, #6253	; 0x186d
    2008:	f2c0 0400 	movt	r4, #0
    200c:	47a0      	blx	r4
    200e:	b007      	add	sp, #28
    2010:	bd30      	pop	{r4, r5, pc}
    2012:	f06f 0003 	mvn.w	r0, #3
    2016:	e7fa      	b.n	200e <rtl_crypto_aes_cfb_encrypt+0x3a>
    2018:	f06f 0005 	mvn.w	r0, #5
    201c:	e7f7      	b.n	200e <rtl_crypto_aes_cfb_encrypt+0x3a>
    201e:	bf00      	nop

00002020 <rtl_crypto_aes_cfb_decrypt>:
    2020:	b530      	push	{r4, r5, lr}
    2022:	b087      	sub	sp, #28
    2024:	461d      	mov	r5, r3
    2026:	9b0a      	ldr	r3, [sp, #40]	; 0x28
    2028:	b1ca      	cbz	r2, 205e <rtl_crypto_aes_cfb_decrypt+0x3e>
    202a:	0794      	lsls	r4, r2, #30
    202c:	d11a      	bne.n	2064 <rtl_crypto_aes_cfb_decrypt+0x44>
    202e:	b1b0      	cbz	r0, 205e <rtl_crypto_aes_cfb_decrypt+0x3e>
    2030:	fab3 f483 	clz	r4, r3
    2034:	0964      	lsrs	r4, r4, #5
    2036:	b193      	cbz	r3, 205e <rtl_crypto_aes_cfb_decrypt+0x3e>
    2038:	9303      	str	r3, [sp, #12]
    203a:	4613      	mov	r3, r2
    203c:	9404      	str	r4, [sp, #16]
    203e:	460a      	mov	r2, r1
    2040:	4601      	mov	r1, r0
    2042:	f244 2000 	movw	r0, #16896	; 0x4200
    2046:	9500      	str	r5, [sp, #0]
    2048:	f2c2 0000 	movt	r0, #8192	; 0x2000
    204c:	e9cd 4401 	strd	r4, r4, [sp, #4]
    2050:	f641 04a1 	movw	r4, #6305	; 0x18a1
    2054:	f2c0 0400 	movt	r4, #0
    2058:	47a0      	blx	r4
    205a:	b007      	add	sp, #28
    205c:	bd30      	pop	{r4, r5, pc}
    205e:	f06f 0003 	mvn.w	r0, #3
    2062:	e7fa      	b.n	205a <rtl_crypto_aes_cfb_decrypt+0x3a>
    2064:	f06f 0005 	mvn.w	r0, #5
    2068:	e7f7      	b.n	205a <rtl_crypto_aes_cfb_decrypt+0x3a>
    206a:	bf00      	nop

0000206c <rtl_crypto_aes_ofb_init>:
    206c:	f244 2300 	movw	r3, #16896	; 0x4200
    2070:	f2c2 0300 	movt	r3, #8192	; 0x2000
    2074:	b570      	push	{r4, r5, r6, lr}
    2076:	781b      	ldrb	r3, [r3, #0]
    2078:	4604      	mov	r4, r0
    207a:	460d      	mov	r5, r1
    207c:	2b01      	cmp	r3, #1
    207e:	d113      	bne.n	20a8 <rtl_crypto_aes_ofb_init+0x3c>
    2080:	b30c      	cbz	r4, 20c6 <rtl_crypto_aes_ofb_init+0x5a>
    2082:	07a3      	lsls	r3, r4, #30
    2084:	d11c      	bne.n	20c0 <rtl_crypto_aes_ofb_init+0x54>
    2086:	2d20      	cmp	r5, #32
    2088:	d817      	bhi.n	20ba <rtl_crypto_aes_ofb_init+0x4e>
    208a:	f641 0e49 	movw	lr, #6217	; 0x1849
    208e:	f244 2000 	movw	r0, #16896	; 0x4200
    2092:	462b      	mov	r3, r5
    2094:	4622      	mov	r2, r4
    2096:	f2c0 0e00 	movt	lr, #0
    209a:	2123      	movs	r1, #35	; 0x23
    209c:	f2c2 0000 	movt	r0, #8192	; 0x2000
    20a0:	46f4      	mov	ip, lr
    20a2:	e8bd 4070 	ldmia.w	sp!, {r4, r5, r6, lr}
    20a6:	4760      	bx	ip
    20a8:	f246 1070 	movw	r0, #24944	; 0x6170
    20ac:	f44f 71cd 	mov.w	r1, #410	; 0x19a
    20b0:	f2c0 0004 	movt	r0, #4
    20b4:	f006 ffba 	bl	902c <io_assert_failed>
    20b8:	e7e2      	b.n	2080 <rtl_crypto_aes_ofb_init+0x14>
    20ba:	f06f 0006 	mvn.w	r0, #6
    20be:	bd70      	pop	{r4, r5, r6, pc}
    20c0:	f06f 0005 	mvn.w	r0, #5
    20c4:	bd70      	pop	{r4, r5, r6, pc}
    20c6:	f06f 0003 	mvn.w	r0, #3
    20ca:	bd70      	pop	{r4, r5, r6, pc}

000020cc <rtl_crypto_aes_ofb_encrypt>:
    20cc:	b530      	push	{r4, r5, lr}
    20ce:	b087      	sub	sp, #28
    20d0:	461d      	mov	r5, r3
    20d2:	9b0a      	ldr	r3, [sp, #40]	; 0x28
    20d4:	b1ca      	cbz	r2, 210a <rtl_crypto_aes_ofb_encrypt+0x3e>
    20d6:	0794      	lsls	r4, r2, #30
    20d8:	d11a      	bne.n	2110 <rtl_crypto_aes_ofb_encrypt+0x44>
    20da:	b1b0      	cbz	r0, 210a <rtl_crypto_aes_ofb_encrypt+0x3e>
    20dc:	fab3 f483 	clz	r4, r3
    20e0:	0964      	lsrs	r4, r4, #5
    20e2:	b193      	cbz	r3, 210a <rtl_crypto_aes_ofb_encrypt+0x3e>
    20e4:	9303      	str	r3, [sp, #12]
    20e6:	4613      	mov	r3, r2
    20e8:	9404      	str	r4, [sp, #16]
    20ea:	460a      	mov	r2, r1
    20ec:	4601      	mov	r1, r0
    20ee:	f244 2000 	movw	r0, #16896	; 0x4200
    20f2:	9500      	str	r5, [sp, #0]
    20f4:	f2c2 0000 	movt	r0, #8192	; 0x2000
    20f8:	e9cd 4401 	strd	r4, r4, [sp, #4]
    20fc:	f641 046d 	movw	r4, #6253	; 0x186d
    2100:	f2c0 0400 	movt	r4, #0
    2104:	47a0      	blx	r4
    2106:	b007      	add	sp, #28
    2108:	bd30      	pop	{r4, r5, pc}
    210a:	f06f 0003 	mvn.w	r0, #3
    210e:	e7fa      	b.n	2106 <rtl_crypto_aes_ofb_encrypt+0x3a>
    2110:	f06f 0005 	mvn.w	r0, #5
    2114:	e7f7      	b.n	2106 <rtl_crypto_aes_ofb_encrypt+0x3a>
    2116:	bf00      	nop

00002118 <rtl_crypto_aes_ofb_decrypt>:
    2118:	b530      	push	{r4, r5, lr}
    211a:	b087      	sub	sp, #28
    211c:	461d      	mov	r5, r3
    211e:	9b0a      	ldr	r3, [sp, #40]	; 0x28
    2120:	b1ca      	cbz	r2, 2156 <rtl_crypto_aes_ofb_decrypt+0x3e>
    2122:	0794      	lsls	r4, r2, #30
    2124:	d11a      	bne.n	215c <rtl_crypto_aes_ofb_decrypt+0x44>
    2126:	b1b0      	cbz	r0, 2156 <rtl_crypto_aes_ofb_decrypt+0x3e>
    2128:	fab3 f483 	clz	r4, r3
    212c:	0964      	lsrs	r4, r4, #5
    212e:	b193      	cbz	r3, 2156 <rtl_crypto_aes_ofb_decrypt+0x3e>
    2130:	9303      	str	r3, [sp, #12]
    2132:	4613      	mov	r3, r2
    2134:	9404      	str	r4, [sp, #16]
    2136:	460a      	mov	r2, r1
    2138:	4601      	mov	r1, r0
    213a:	f244 2000 	movw	r0, #16896	; 0x4200
    213e:	9500      	str	r5, [sp, #0]
    2140:	f2c2 0000 	movt	r0, #8192	; 0x2000
    2144:	e9cd 4401 	strd	r4, r4, [sp, #4]
    2148:	f641 04a1 	movw	r4, #6305	; 0x18a1
    214c:	f2c0 0400 	movt	r4, #0
    2150:	47a0      	blx	r4
    2152:	b007      	add	sp, #28
    2154:	bd30      	pop	{r4, r5, pc}
    2156:	f06f 0003 	mvn.w	r0, #3
    215a:	e7fa      	b.n	2152 <rtl_crypto_aes_ofb_decrypt+0x3a>
    215c:	f06f 0005 	mvn.w	r0, #5
    2160:	e7f7      	b.n	2152 <rtl_crypto_aes_ofb_decrypt+0x3a>
    2162:	bf00      	nop

00002164 <rtl_crypto_aes_gcm_init>:
    2164:	f244 2300 	movw	r3, #16896	; 0x4200
    2168:	f2c2 0300 	movt	r3, #8192	; 0x2000
    216c:	b570      	push	{r4, r5, r6, lr}
    216e:	781b      	ldrb	r3, [r3, #0]
    2170:	4604      	mov	r4, r0
    2172:	460d      	mov	r5, r1
    2174:	2b01      	cmp	r3, #1
    2176:	d113      	bne.n	21a0 <rtl_crypto_aes_gcm_init+0x3c>
    2178:	b30c      	cbz	r4, 21be <rtl_crypto_aes_gcm_init+0x5a>
    217a:	07a3      	lsls	r3, r4, #30
    217c:	d11c      	bne.n	21b8 <rtl_crypto_aes_gcm_init+0x54>
    217e:	2d20      	cmp	r5, #32
    2180:	d817      	bhi.n	21b2 <rtl_crypto_aes_gcm_init+0x4e>
    2182:	f641 0e49 	movw	lr, #6217	; 0x1849
    2186:	f244 2000 	movw	r0, #16896	; 0x4200
    218a:	462b      	mov	r3, r5
    218c:	4622      	mov	r2, r4
    218e:	f2c0 0e00 	movt	lr, #0
    2192:	2128      	movs	r1, #40	; 0x28
    2194:	f2c2 0000 	movt	r0, #8192	; 0x2000
    2198:	46f4      	mov	ip, lr
    219a:	e8bd 4070 	ldmia.w	sp!, {r4, r5, r6, lr}
    219e:	4760      	bx	ip
    21a0:	f246 1088 	movw	r0, #24968	; 0x6188
    21a4:	f44f 71fc 	mov.w	r1, #504	; 0x1f8
    21a8:	f2c0 0004 	movt	r0, #4
    21ac:	f006 ff3e 	bl	902c <io_assert_failed>
    21b0:	e7e2      	b.n	2178 <rtl_crypto_aes_gcm_init+0x14>
    21b2:	f06f 0006 	mvn.w	r0, #6
    21b6:	bd70      	pop	{r4, r5, r6, pc}
    21b8:	f06f 0005 	mvn.w	r0, #5
    21bc:	bd70      	pop	{r4, r5, r6, pc}
    21be:	f06f 0003 	mvn.w	r0, #3
    21c2:	bd70      	pop	{r4, r5, r6, pc}

000021c4 <rtl_crypto_aes_gcm_encrypt>:
    21c4:	e92d 43f0 	stmdb	sp!, {r4, r5, r6, r7, r8, r9, lr}
    21c8:	b087      	sub	sp, #28
    21ca:	e9dd 980f 	ldrd	r9, r8, [sp, #60]	; 0x3c
    21ce:	2a00      	cmp	r2, #0
    21d0:	d03b      	beq.n	224a <rtl_crypto_aes_gcm_encrypt+0x86>
    21d2:	460f      	mov	r7, r1
    21d4:	4611      	mov	r1, r2
    21d6:	078a      	lsls	r2, r1, #30
    21d8:	d13a      	bne.n	2250 <rtl_crypto_aes_gcm_encrypt+0x8c>
    21da:	4604      	mov	r4, r0
    21dc:	b3a8      	cbz	r0, 224a <rtl_crypto_aes_gcm_encrypt+0x86>
    21de:	461d      	mov	r5, r3
    21e0:	07ab      	lsls	r3, r5, #30
    21e2:	d135      	bne.n	2250 <rtl_crypto_aes_gcm_encrypt+0x8c>
    21e4:	f1b9 0f00 	cmp.w	r9, #0
    21e8:	d02f      	beq.n	224a <rtl_crypto_aes_gcm_encrypt+0x86>
    21ea:	f1b8 0f00 	cmp.w	r8, #0
    21ee:	d02c      	beq.n	224a <rtl_crypto_aes_gcm_encrypt+0x86>
    21f0:	f641 461d 	movw	r6, #7197	; 0x1c1d
    21f4:	f244 3068 	movw	r0, #17256	; 0x4368
    21f8:	220c      	movs	r2, #12
    21fa:	f2c0 0601 	movt	r6, #1
    21fe:	f2c2 0000 	movt	r0, #8192	; 0x2000
    2202:	47b0      	blx	r6
    2204:	f644 0100 	movw	r1, #18432	; 0x4800
    2208:	f244 3074 	movw	r0, #17268	; 0x4374
    220c:	2204      	movs	r2, #4
    220e:	f2c0 0104 	movt	r1, #4
    2212:	f2c2 0000 	movt	r0, #8192	; 0x2000
    2216:	47b0      	blx	r6
    2218:	2010      	movs	r0, #16
    221a:	f244 3368 	movw	r3, #17256	; 0x4368
    221e:	4621      	mov	r1, r4
    2220:	9000      	str	r0, [sp, #0]
    2222:	f641 046d 	movw	r4, #6253	; 0x186d
    2226:	980e      	ldr	r0, [sp, #56]	; 0x38
    2228:	f2c2 0300 	movt	r3, #8192	; 0x2000
    222c:	463a      	mov	r2, r7
    222e:	f2c0 0400 	movt	r4, #0
    2232:	f8cd 8010 	str.w	r8, [sp, #16]
    2236:	f8cd 900c 	str.w	r9, [sp, #12]
    223a:	e9cd 5001 	strd	r5, r0, [sp, #4]
    223e:	f5a3 70b4 	sub.w	r0, r3, #360	; 0x168
    2242:	47a0      	blx	r4
    2244:	b007      	add	sp, #28
    2246:	e8bd 83f0 	ldmia.w	sp!, {r4, r5, r6, r7, r8, r9, pc}
    224a:	f06f 0003 	mvn.w	r0, #3
    224e:	e7f9      	b.n	2244 <rtl_crypto_aes_gcm_encrypt+0x80>
    2250:	f06f 0005 	mvn.w	r0, #5
    2254:	e7f6      	b.n	2244 <rtl_crypto_aes_gcm_encrypt+0x80>
    2256:	bf00      	nop

00002258 <rtl_crypto_aes_gcm_decrypt>:
    2258:	e92d 43f0 	stmdb	sp!, {r4, r5, r6, r7, r8, r9, lr}
    225c:	b087      	sub	sp, #28
    225e:	e9dd 980f 	ldrd	r9, r8, [sp, #60]	; 0x3c
    2262:	2a00      	cmp	r2, #0
    2264:	d03b      	beq.n	22de <rtl_crypto_aes_gcm_decrypt+0x86>
    2266:	460f      	mov	r7, r1
    2268:	4611      	mov	r1, r2
    226a:	078a      	lsls	r2, r1, #30
    226c:	d13a      	bne.n	22e4 <rtl_crypto_aes_gcm_decrypt+0x8c>
    226e:	4604      	mov	r4, r0
    2270:	b3a8      	cbz	r0, 22de <rtl_crypto_aes_gcm_decrypt+0x86>
    2272:	461d      	mov	r5, r3
    2274:	07ab      	lsls	r3, r5, #30
    2276:	d135      	bne.n	22e4 <rtl_crypto_aes_gcm_decrypt+0x8c>
    2278:	f1b9 0f00 	cmp.w	r9, #0
    227c:	d02f      	beq.n	22de <rtl_crypto_aes_gcm_decrypt+0x86>
    227e:	f1b8 0f00 	cmp.w	r8, #0
    2282:	d02c      	beq.n	22de <rtl_crypto_aes_gcm_decrypt+0x86>
    2284:	f641 461d 	movw	r6, #7197	; 0x1c1d
    2288:	f244 3068 	movw	r0, #17256	; 0x4368
    228c:	220c      	movs	r2, #12
    228e:	f2c0 0601 	movt	r6, #1
    2292:	f2c2 0000 	movt	r0, #8192	; 0x2000
    2296:	47b0      	blx	r6
    2298:	f644 0100 	movw	r1, #18432	; 0x4800
    229c:	f244 3074 	movw	r0, #17268	; 0x4374
    22a0:	2204      	movs	r2, #4
    22a2:	f2c0 0104 	movt	r1, #4
    22a6:	f2c2 0000 	movt	r0, #8192	; 0x2000
    22aa:	47b0      	blx	r6
    22ac:	2010      	movs	r0, #16
    22ae:	f244 3368 	movw	r3, #17256	; 0x4368
    22b2:	4621      	mov	r1, r4
    22b4:	9000      	str	r0, [sp, #0]
    22b6:	f641 04a1 	movw	r4, #6305	; 0x18a1
    22ba:	980e      	ldr	r0, [sp, #56]	; 0x38
    22bc:	f2c2 0300 	movt	r3, #8192	; 0x2000
    22c0:	463a      	mov	r2, r7
    22c2:	f2c0 0400 	movt	r4, #0
    22c6:	f8cd 8010 	str.w	r8, [sp, #16]
    22ca:	f8cd 900c 	str.w	r9, [sp, #12]
    22ce:	e9cd 5001 	strd	r5, r0, [sp, #4]
    22d2:	f5a3 70b4 	sub.w	r0, r3, #360	; 0x168
    22d6:	47a0      	blx	r4
    22d8:	b007      	add	sp, #28
    22da:	e8bd 83f0 	ldmia.w	sp!, {r4, r5, r6, r7, r8, r9, pc}
    22de:	f06f 0003 	mvn.w	r0, #3
    22e2:	e7f9      	b.n	22d8 <rtl_crypto_aes_gcm_decrypt+0x80>
    22e4:	f06f 0005 	mvn.w	r0, #5
    22e8:	e7f6      	b.n	22d8 <rtl_crypto_aes_gcm_decrypt+0x80>
    22ea:	bf00      	nop

000022ec <hash_save>:
    22ec:	2800      	cmp	r0, #0
    22ee:	d048      	beq.n	2382 <hash_save+0x96>
    22f0:	f244 4c40 	movw	ip, #17472	; 0x4440
    22f4:	f100 0277 	add.w	r2, r0, #119	; 0x77
    22f8:	2300      	movs	r3, #0
    22fa:	f2c2 0c00 	movt	ip, #8192	; 0x2000
    22fe:	f89c 1000 	ldrb.w	r1, [ip]
    2302:	7001      	strb	r1, [r0, #0]
    2304:	f89c 1001 	ldrb.w	r1, [ip, #1]
    2308:	7041      	strb	r1, [r0, #1]
    230a:	f8dc 1028 	ldr.w	r1, [ip, #40]	; 0x28
    230e:	6641      	str	r1, [r0, #100]	; 0x64
    2310:	f89c 1040 	ldrb.w	r1, [ip, #64]	; 0x40
    2314:	f880 106f 	strb.w	r1, [r0, #111]	; 0x6f
    2318:	f8bc 102c 	ldrh.w	r1, [ip, #44]	; 0x2c
    231c:	f8a0 106c 	strh.w	r1, [r0, #108]	; 0x6c
    2320:	f8dc 1030 	ldr.w	r1, [ip, #48]	; 0x30
    2324:	6701      	str	r1, [r0, #112]	; 0x70
    2326:	f89c 1034 	ldrb.w	r1, [ip, #52]	; 0x34
    232a:	f880 106e 	strb.w	r1, [r0, #110]	; 0x6e
    232e:	f89c 1011 	ldrb.w	r1, [ip, #17]
    2332:	7081      	strb	r1, [r0, #2]
    2334:	f89c 1012 	ldrb.w	r1, [ip, #18]
    2338:	70c1      	strb	r1, [r0, #3]
    233a:	f89c 1013 	ldrb.w	r1, [ip, #19]
    233e:	f880 1060 	strb.w	r1, [r0, #96]	; 0x60
    2342:	f89c 1014 	ldrb.w	r1, [ip, #20]
    2346:	f880 1061 	strb.w	r1, [r0, #97]	; 0x61
    234a:	f8dc 100c 	ldr.w	r1, [ip, #12]
    234e:	6681      	str	r1, [r0, #104]	; 0x68
    2350:	f89c 1010 	ldrb.w	r1, [ip, #16]
    2354:	f880 10f8 	strb.w	r1, [r0, #248]	; 0xf8
    2358:	eb0c 0103 	add.w	r1, ip, r3
    235c:	3301      	adds	r3, #1
    235e:	f891 11a8 	ldrb.w	r1, [r1, #424]	; 0x1a8
    2362:	2b80      	cmp	r3, #128	; 0x80
    2364:	f802 1f01 	strb.w	r1, [r2, #1]!
    2368:	d1f6      	bne.n	2358 <hash_save+0x6c>
    236a:	f641 431d 	movw	r3, #7197	; 0x1c1d
    236e:	f244 41a4 	movw	r1, #17572	; 0x44a4
    2372:	f44f 7280 	mov.w	r2, #256	; 0x100
    2376:	30f9      	adds	r0, #249	; 0xf9
    2378:	f2c2 0100 	movt	r1, #8192	; 0x2000
    237c:	f2c0 0301 	movt	r3, #1
    2380:	4718      	bx	r3
    2382:	4770      	bx	lr

00002384 <hash_restore>:
    2384:	2800      	cmp	r0, #0
    2386:	d051      	beq.n	242c <hash_restore+0xa8>
    2388:	f64f 7189 	movw	r1, #65417	; 0xff89
    238c:	b570      	push	{r4, r5, r6, lr}
    238e:	f244 4e40 	movw	lr, #17472	; 0x4440
    2392:	7803      	ldrb	r3, [r0, #0]
    2394:	7842      	ldrb	r2, [r0, #1]
    2396:	f6cf 71ff 	movt	r1, #65535	; 0xffff
    239a:	f2c2 0e00 	movt	lr, #8192	; 0x2000
    239e:	6f04      	ldr	r4, [r0, #112]	; 0x70
    23a0:	f890 506f 	ldrb.w	r5, [r0, #111]	; 0x6f
    23a4:	1a09      	subs	r1, r1, r0
    23a6:	f8b0 c06c 	ldrh.w	ip, [r0, #108]	; 0x6c
    23aa:	6e46      	ldr	r6, [r0, #100]	; 0x64
    23ac:	f88e 3000 	strb.w	r3, [lr]
    23b0:	f890 306e 	ldrb.w	r3, [r0, #110]	; 0x6e
    23b4:	f8ce 4030 	str.w	r4, [lr, #48]	; 0x30
    23b8:	f100 04f7 	add.w	r4, r0, #247	; 0xf7
    23bc:	f88e 3034 	strb.w	r3, [lr, #52]	; 0x34
    23c0:	f8ce 6028 	str.w	r6, [lr, #40]	; 0x28
    23c4:	f890 3060 	ldrb.w	r3, [r0, #96]	; 0x60
    23c8:	f88e 5040 	strb.w	r5, [lr, #64]	; 0x40
    23cc:	f8ae c02c 	strh.w	ip, [lr, #44]	; 0x2c
    23d0:	f88e 2001 	strb.w	r2, [lr, #1]
    23d4:	7882      	ldrb	r2, [r0, #2]
    23d6:	f88e 2011 	strb.w	r2, [lr, #17]
    23da:	78c2      	ldrb	r2, [r0, #3]
    23dc:	f88e 3013 	strb.w	r3, [lr, #19]
    23e0:	f890 3061 	ldrb.w	r3, [r0, #97]	; 0x61
    23e4:	f88e 2012 	strb.w	r2, [lr, #18]
    23e8:	f88e 3014 	strb.w	r3, [lr, #20]
    23ec:	f890 30f8 	ldrb.w	r3, [r0, #248]	; 0xf8
    23f0:	6e82      	ldr	r2, [r0, #104]	; 0x68
    23f2:	f88e 3010 	strb.w	r3, [lr, #16]
    23f6:	f100 0377 	add.w	r3, r0, #119	; 0x77
    23fa:	f8ce 200c 	str.w	r2, [lr, #12]
    23fe:	18ca      	adds	r2, r1, r3
    2400:	f813 cf01 	ldrb.w	ip, [r3, #1]!
    2404:	4472      	add	r2, lr
    2406:	42a3      	cmp	r3, r4
    2408:	f882 c1a8 	strb.w	ip, [r2, #424]	; 0x1a8
    240c:	d1f7      	bne.n	23fe <hash_restore+0x7a>
    240e:	f641 431d 	movw	r3, #7197	; 0x1c1d
    2412:	f100 01f9 	add.w	r1, r0, #249	; 0xf9
    2416:	f244 40a4 	movw	r0, #17572	; 0x44a4
    241a:	f44f 7280 	mov.w	r2, #256	; 0x100
    241e:	f2c0 0301 	movt	r3, #1
    2422:	f2c2 0000 	movt	r0, #8192	; 0x2000
    2426:	e8bd 4070 	ldmia.w	sp!, {r4, r5, r6, lr}
    242a:	4718      	bx	r3
    242c:	4770      	bx	lr
    242e:	bf00      	nop

00002430 <rtl_crypto_sha1_init>:
    2430:	b530      	push	{r4, r5, lr}
    2432:	f244 4540 	movw	r5, #17472	; 0x4440
    2436:	b085      	sub	sp, #20
    2438:	4604      	mov	r4, r0
    243a:	f2c2 0500 	movt	r5, #8192	; 0x2000
    243e:	782b      	ldrb	r3, [r5, #0]
    2440:	2b01      	cmp	r3, #1
    2442:	d006      	beq.n	2452 <rtl_crypto_sha1_init+0x22>
    2444:	f646 5098 	movw	r0, #28056	; 0x6d98
    2448:	216d      	movs	r1, #109	; 0x6d
    244a:	f2c0 0004 	movt	r0, #4
    244e:	f006 fded 	bl	902c <io_assert_failed>
    2452:	2300      	movs	r3, #0
    2454:	f244 4040 	movw	r0, #17472	; 0x4440
    2458:	f04f 31ff 	mov.w	r1, #4294967295	; 0xffffffff
    245c:	9300      	str	r3, [sp, #0]
    245e:	461a      	mov	r2, r3
    2460:	f2c2 0000 	movt	r0, #8192	; 0x2000
    2464:	e9cd 3301 	strd	r3, r3, [sp, #4]
    2468:	f885 3034 	strb.w	r3, [r5, #52]	; 0x34
    246c:	f885 3040 	strb.w	r3, [r5, #64]	; 0x40
    2470:	f640 35dd 	movw	r5, #3037	; 0xbdd
    2474:	f2c0 0500 	movt	r5, #0
    2478:	47a8      	blx	r5
    247a:	4605      	mov	r5, r0
    247c:	b30c      	cbz	r4, 24c2 <rtl_crypto_sha1_init+0x92>
    247e:	f242 23ed 	movw	r3, #8941	; 0x22ed
    2482:	4620      	mov	r0, r4
    2484:	f2c0 0300 	movt	r3, #0
    2488:	4798      	blx	r3
    248a:	f242 3201 	movw	r2, #8961	; 0x2301
    248e:	f64a 3389 	movw	r3, #43913	; 0xab89
    2492:	f64d 41fe 	movw	r1, #56574	; 0xdcfe
    2496:	f2c6 7245 	movt	r2, #26437	; 0x6745
    249a:	f6ce 73cd 	movt	r3, #61389	; 0xefcd
    249e:	f6c9 01ba 	movt	r1, #39098	; 0x98ba
    24a2:	e9c4 2308 	strd	r2, r3, [r4, #32]
    24a6:	f245 4276 	movw	r2, #21622	; 0x5476
    24aa:	f24e 13f0 	movw	r3, #57840	; 0xe1f0
    24ae:	62a1      	str	r1, [r4, #40]	; 0x28
    24b0:	f2c1 0232 	movt	r2, #4146	; 0x1032
    24b4:	f2cc 33d2 	movt	r3, #50130	; 0xc3d2
    24b8:	62e2      	str	r2, [r4, #44]	; 0x2c
    24ba:	2201      	movs	r2, #1
    24bc:	6323      	str	r3, [r4, #48]	; 0x30
    24be:	f884 2063 	strb.w	r2, [r4, #99]	; 0x63
    24c2:	4628      	mov	r0, r5
    24c4:	b005      	add	sp, #20
    24c6:	bd30      	pop	{r4, r5, pc}

000024c8 <rtl_crypto_sha1_process>:
    24c8:	f244 4c40 	movw	ip, #17472	; 0x4440
    24cc:	f2c2 0c00 	movt	ip, #8192	; 0x2000
    24d0:	f8dc 300c 	ldr.w	r3, [ip, #12]
    24d4:	f013 0303 	ands.w	r3, r3, #3
    24d8:	d112      	bne.n	2500 <rtl_crypto_sha1_process+0x38>
    24da:	b510      	push	{r4, lr}
    24dc:	4614      	mov	r4, r2
    24de:	b086      	sub	sp, #24
    24e0:	460a      	mov	r2, r1
    24e2:	4601      	mov	r1, r0
    24e4:	4660      	mov	r0, ip
    24e6:	e9cd 3402 	strd	r3, r4, [sp, #8]
    24ea:	f640 64e1 	movw	r4, #3809	; 0xee1
    24ee:	f2c0 0400 	movt	r4, #0
    24f2:	e9cd 3304 	strd	r3, r3, [sp, #16]
    24f6:	e9cd 3300 	strd	r3, r3, [sp]
    24fa:	47a0      	blx	r4
    24fc:	b006      	add	sp, #24
    24fe:	bd10      	pop	{r4, pc}
    2500:	f06f 0009 	mvn.w	r0, #9
    2504:	4770      	bx	lr
    2506:	bf00      	nop

00002508 <rtl_crypto_sha1_update_rom>:
    2508:	b5f8      	push	{r3, r4, r5, r6, r7, lr}
    250a:	f244 4540 	movw	r5, #17472	; 0x4440
    250e:	2301      	movs	r3, #1
    2510:	4606      	mov	r6, r0
    2512:	4610      	mov	r0, r2
    2514:	f2c2 0500 	movt	r5, #8192	; 0x2000
    2518:	f882 3062 	strb.w	r3, [r2, #98]	; 0x62
    251c:	4614      	mov	r4, r2
    251e:	460f      	mov	r7, r1
    2520:	f7ff ff30 	bl	2384 <hash_restore>
    2524:	782b      	ldrb	r3, [r5, #0]
    2526:	2b01      	cmp	r3, #1
    2528:	d11a      	bne.n	2560 <rtl_crypto_sha1_update_rom+0x58>
    252a:	b316      	cbz	r6, 2572 <rtl_crypto_sha1_update_rom+0x6a>
    252c:	68eb      	ldr	r3, [r5, #12]
    252e:	079b      	lsls	r3, r3, #30
    2530:	d127      	bne.n	2582 <rtl_crypto_sha1_update_rom+0x7a>
    2532:	f241 7339 	movw	r3, #5945	; 0x1739
    2536:	2201      	movs	r2, #1
    2538:	4621      	mov	r1, r4
    253a:	f104 0020 	add.w	r0, r4, #32
    253e:	f2c0 0300 	movt	r3, #0
    2542:	f885 2034 	strb.w	r2, [r5, #52]	; 0x34
    2546:	e9c5 670e 	strd	r6, r7, [r5, #56]	; 0x38
    254a:	4798      	blx	r3
    254c:	f242 22ed 	movw	r2, #8941	; 0x22ed
    2550:	4603      	mov	r3, r0
    2552:	4620      	mov	r0, r4
    2554:	f2c0 0200 	movt	r2, #0
    2558:	461c      	mov	r4, r3
    255a:	4790      	blx	r2
    255c:	4620      	mov	r0, r4
    255e:	bdf8      	pop	{r3, r4, r5, r6, r7, pc}
    2560:	f646 50b0 	movw	r0, #28080	; 0x6db0
    2564:	21c3      	movs	r1, #195	; 0xc3
    2566:	f2c0 0004 	movt	r0, #4
    256a:	f006 fd5f 	bl	902c <io_assert_failed>
    256e:	2e00      	cmp	r6, #0
    2570:	d1dc      	bne.n	252c <rtl_crypto_sha1_update_rom+0x24>
    2572:	f646 50b0 	movw	r0, #28080	; 0x6db0
    2576:	21c4      	movs	r1, #196	; 0xc4
    2578:	f2c0 0004 	movt	r0, #4
    257c:	f006 fd56 	bl	902c <io_assert_failed>
    2580:	e7d4      	b.n	252c <rtl_crypto_sha1_update_rom+0x24>
    2582:	f06f 0409 	mvn.w	r4, #9
    2586:	e7e9      	b.n	255c <rtl_crypto_sha1_update_rom+0x54>

00002588 <rtl_crypto_sha1_update>:
    2588:	f5b1 3f00 	cmp.w	r1, #131072	; 0x20000
    258c:	e92d 43f8 	stmdb	sp!, {r3, r4, r5, r6, r7, r8, r9, lr}
    2590:	4688      	mov	r8, r1
    2592:	4604      	mov	r4, r0
    2594:	4615      	mov	r5, r2
    2596:	d923      	bls.n	25e0 <rtl_crypto_sha1_update+0x58>
    2598:	f64f 73ff 	movw	r3, #65535	; 0xffff
    259c:	f242 5609 	movw	r6, #9481	; 0x2509
    25a0:	f6cf 73fd 	movt	r3, #65533	; 0xfffd
    25a4:	f2c0 0600 	movt	r6, #0
    25a8:	440b      	add	r3, r1
    25aa:	ea4f 4953 	mov.w	r9, r3, lsr #17
    25ae:	f109 0701 	add.w	r7, r9, #1
    25b2:	eb00 4747 	add.w	r7, r0, r7, lsl #17
    25b6:	4620      	mov	r0, r4
    25b8:	f504 3400 	add.w	r4, r4, #131072	; 0x20000
    25bc:	462a      	mov	r2, r5
    25be:	f44f 3100 	mov.w	r1, #131072	; 0x20000
    25c2:	47b0      	blx	r6
    25c4:	42bc      	cmp	r4, r7
    25c6:	d1f6      	bne.n	25b6 <rtl_crypto_sha1_update+0x2e>
    25c8:	ebc9 33c9 	rsb	r3, r9, r9, lsl #15
    25cc:	f5a8 3800 	sub.w	r8, r8, #131072	; 0x20000
    25d0:	462a      	mov	r2, r5
    25d2:	4638      	mov	r0, r7
    25d4:	eb08 4843 	add.w	r8, r8, r3, lsl #17
    25d8:	4641      	mov	r1, r8
    25da:	47b0      	blx	r6
    25dc:	e8bd 83f8 	ldmia.w	sp!, {r3, r4, r5, r6, r7, r8, r9, pc}
    25e0:	4607      	mov	r7, r0
    25e2:	f242 5609 	movw	r6, #9481	; 0x2509
    25e6:	462a      	mov	r2, r5
    25e8:	4641      	mov	r1, r8
    25ea:	f2c0 0600 	movt	r6, #0
    25ee:	4638      	mov	r0, r7
    25f0:	47b0      	blx	r6
    25f2:	e8bd 83f8 	ldmia.w	sp!, {r3, r4, r5, r6, r7, r8, r9, pc}
    25f6:	bf00      	nop

000025f8 <rtl_crypto_sha1_final>:
    25f8:	b570      	push	{r4, r5, r6, lr}
    25fa:	f244 4440 	movw	r4, #17472	; 0x4440
    25fe:	b086      	sub	sp, #24
    2600:	4606      	mov	r6, r0
    2602:	4608      	mov	r0, r1
    2604:	f2c2 0400 	movt	r4, #8192	; 0x2000
    2608:	460d      	mov	r5, r1
    260a:	f7ff febb 	bl	2384 <hash_restore>
    260e:	7823      	ldrb	r3, [r4, #0]
    2610:	2b01      	cmp	r3, #1
    2612:	d006      	beq.n	2622 <rtl_crypto_sha1_final+0x2a>
    2614:	f646 50cc 	movw	r0, #28108	; 0x6dcc
    2618:	21e5      	movs	r1, #229	; 0xe5
    261a:	f2c0 0004 	movt	r0, #4
    261e:	f006 fd05 	bl	902c <io_assert_failed>
    2622:	68e3      	ldr	r3, [r4, #12]
    2624:	f013 0303 	ands.w	r3, r3, #3
    2628:	d11d      	bne.n	2666 <rtl_crypto_sha1_final+0x6e>
    262a:	b1fe      	cbz	r6, 266c <rtl_crypto_sha1_final+0x74>
    262c:	f894 2034 	ldrb.w	r2, [r4, #52]	; 0x34
    2630:	b1b2      	cbz	r2, 2660 <rtl_crypto_sha1_final+0x68>
    2632:	2101      	movs	r1, #1
    2634:	f894 2040 	ldrb.w	r2, [r4, #64]	; 0x40
    2638:	f640 64e1 	movw	r4, #3809	; 0xee1
    263c:	e9cd 3504 	strd	r3, r5, [sp, #16]
    2640:	6769      	str	r1, [r5, #116]	; 0x74
    2642:	f244 51e8 	movw	r1, #17896	; 0x45e8
    2646:	f2c0 0400 	movt	r4, #0
    264a:	9603      	str	r6, [sp, #12]
    264c:	f2c2 0100 	movt	r1, #8192	; 0x2000
    2650:	9300      	str	r3, [sp, #0]
    2652:	f5a1 70d4 	sub.w	r0, r1, #424	; 0x1a8
    2656:	e9cd 3301 	strd	r3, r3, [sp, #4]
    265a:	47a0      	blx	r4
    265c:	b006      	add	sp, #24
    265e:	bd70      	pop	{r4, r5, r6, pc}
    2660:	f06f 000c 	mvn.w	r0, #12
    2664:	e7fa      	b.n	265c <rtl_crypto_sha1_final+0x64>
    2666:	f06f 0009 	mvn.w	r0, #9
    266a:	e7f7      	b.n	265c <rtl_crypto_sha1_final+0x64>
    266c:	f06f 0003 	mvn.w	r0, #3
    2670:	e7f4      	b.n	265c <rtl_crypto_sha1_final+0x64>
    2672:	bf00      	nop

00002674 <rtl_crypto_sha1>:
    2674:	f242 4331 	movw	r3, #9265	; 0x2431
    2678:	b570      	push	{r4, r5, r6, lr}
    267a:	f2c0 0300 	movt	r3, #0
    267e:	4606      	mov	r6, r0
    2680:	2000      	movs	r0, #0
    2682:	460c      	mov	r4, r1
    2684:	4615      	mov	r5, r2
    2686:	4798      	blx	r3
    2688:	b100      	cbz	r0, 268c <rtl_crypto_sha1+0x18>
    268a:	bd70      	pop	{r4, r5, r6, pc}
    268c:	f242 43c9 	movw	r3, #9417	; 0x24c9
    2690:	462a      	mov	r2, r5
    2692:	4621      	mov	r1, r4
    2694:	4630      	mov	r0, r6
    2696:	f2c0 0300 	movt	r3, #0
    269a:	4798      	blx	r3
    269c:	bd70      	pop	{r4, r5, r6, pc}
    269e:	bf00      	nop

000026a0 <rtl_crypto_sha2_init>:
    26a0:	b570      	push	{r4, r5, r6, lr}
    26a2:	f244 4640 	movw	r6, #17472	; 0x4440
    26a6:	b084      	sub	sp, #16
    26a8:	4605      	mov	r5, r0
    26aa:	460c      	mov	r4, r1
    26ac:	f2c2 0600 	movt	r6, #8192	; 0x2000
    26b0:	7833      	ldrb	r3, [r6, #0]
    26b2:	2b01      	cmp	r3, #1
    26b4:	d007      	beq.n	26c6 <rtl_crypto_sha2_init+0x26>
    26b6:	f646 50e4 	movw	r0, #28132	; 0x6de4
    26ba:	f44f 7192 	mov.w	r1, #292	; 0x124
    26be:	f2c0 0004 	movt	r0, #4
    26c2:	f006 fcb3 	bl	902c <io_assert_failed>
    26c6:	2d30      	cmp	r5, #48	; 0x30
    26c8:	f000 8090 	beq.w	27ec <rtl_crypto_sha2_init+0x14c>
    26cc:	d832      	bhi.n	2734 <rtl_crypto_sha2_init+0x94>
    26ce:	2d1c      	cmp	r5, #28
    26d0:	f000 80e1 	beq.w	2896 <rtl_crypto_sha2_init+0x1f6>
    26d4:	2d20      	cmp	r5, #32
    26d6:	f040 8084 	bne.w	27e2 <rtl_crypto_sha2_init+0x142>
    26da:	2c00      	cmp	r4, #0
    26dc:	f000 8126 	beq.w	292c <rtl_crypto_sha2_init+0x28c>
    26e0:	f24e 6267 	movw	r2, #58983	; 0xe667
    26e4:	f64a 6385 	movw	r3, #44677	; 0xae85
    26e8:	f24f 3172 	movw	r1, #62322	; 0xf372
    26ec:	f6c6 2209 	movt	r2, #27145	; 0x6a09
    26f0:	f6cb 3367 	movt	r3, #47975	; 0xbb67
    26f4:	f6c3 416e 	movt	r1, #15470	; 0x3c6e
    26f8:	e9c4 2308 	strd	r2, r3, [r4, #32]
    26fc:	f24f 533a 	movw	r3, #62778	; 0xf53a
    2700:	f245 227f 	movw	r2, #21119	; 0x527f
    2704:	62a1      	str	r1, [r4, #40]	; 0x28
    2706:	f64d 11ab 	movw	r1, #55723	; 0xd9ab
    270a:	f2ca 534f 	movt	r3, #42319	; 0xa54f
    270e:	f2c5 120e 	movt	r2, #20750	; 0x510e
    2712:	f6c1 7183 	movt	r1, #8067	; 0x1f83
    2716:	62e3      	str	r3, [r4, #44]	; 0x2c
    2718:	f646 038c 	movw	r3, #26764	; 0x688c
    271c:	6322      	str	r2, [r4, #48]	; 0x30
    271e:	2221      	movs	r2, #33	; 0x21
    2720:	f6c9 3305 	movt	r3, #39685	; 0x9b05
    2724:	63a1      	str	r1, [r4, #56]	; 0x38
    2726:	6363      	str	r3, [r4, #52]	; 0x34
    2728:	f64c 5319 	movw	r3, #52505	; 0xcd19
    272c:	f6c5 33e0 	movt	r3, #23520	; 0x5be0
    2730:	63e3      	str	r3, [r4, #60]	; 0x3c
    2732:	e0db      	b.n	28ec <rtl_crypto_sha2_init+0x24c>
    2734:	2d40      	cmp	r5, #64	; 0x40
    2736:	d154      	bne.n	27e2 <rtl_crypto_sha2_init+0x142>
    2738:	2c00      	cmp	r4, #0
    273a:	f000 8113 	beq.w	2964 <rtl_crypto_sha2_init+0x2c4>
    273e:	f64c 1208 	movw	r2, #51464	; 0xc908
    2742:	f24e 6367 	movw	r3, #58983	; 0xe667
    2746:	f24a 713b 	movw	r1, #42811	; 0xa73b
    274a:	f2cf 32bc 	movt	r2, #62396	; 0xf3bc
    274e:	f6c6 2309 	movt	r3, #27145	; 0x6a09
    2752:	f2c8 41ca 	movt	r1, #33994	; 0x84ca
    2756:	e9c4 3208 	strd	r3, r2, [r4, #32]
    275a:	f64a 6385 	movw	r3, #44677	; 0xae85
    275e:	f64f 022b 	movw	r2, #63531	; 0xf82b
    2762:	62e1      	str	r1, [r4, #44]	; 0x2c
    2764:	f243 61f1 	movw	r1, #14065	; 0x36f1
    2768:	f6cb 3367 	movt	r3, #47975	; 0xbb67
    276c:	f6cf 6294 	movt	r2, #65172	; 0xfe94
    2770:	f6c5 711d 	movt	r1, #24349	; 0x5f1d
    2774:	62a3      	str	r3, [r4, #40]	; 0x28
    2776:	f24f 3372 	movw	r3, #62322	; 0xf372
    277a:	6362      	str	r2, [r4, #52]	; 0x34
    277c:	f248 22d1 	movw	r2, #33489	; 0x82d1
    2780:	f6c3 436e 	movt	r3, #15470	; 0x3c6e
    2784:	63e1      	str	r1, [r4, #60]	; 0x3c
    2786:	f646 411f 	movw	r1, #27679	; 0x6c1f
    278a:	f6ca 52e6 	movt	r2, #44518	; 0xade6
    278e:	6323      	str	r3, [r4, #48]	; 0x30
    2790:	f24f 533a 	movw	r3, #62778	; 0xf53a
    2794:	f6c2 313e 	movt	r1, #11070	; 0x2b3e
    2798:	6462      	str	r2, [r4, #68]	; 0x44
    279a:	f2ca 534f 	movt	r3, #42319	; 0xa54f
    279e:	f64b 526b 	movw	r2, #48491	; 0xbd6b
    27a2:	64e1      	str	r1, [r4, #76]	; 0x4c
    27a4:	f242 1179 	movw	r1, #8569	; 0x2179
    27a8:	63a3      	str	r3, [r4, #56]	; 0x38
    27aa:	f245 237f 	movw	r3, #21119	; 0x527f
    27ae:	f6cf 3241 	movt	r2, #64321	; 0xfb41
    27b2:	f2c1 317e 	movt	r1, #4990	; 0x137e
    27b6:	f2c5 130e 	movt	r3, #20750	; 0x510e
    27ba:	6562      	str	r2, [r4, #84]	; 0x54
    27bc:	2281      	movs	r2, #129	; 0x81
    27be:	6423      	str	r3, [r4, #64]	; 0x40
    27c0:	f646 038c 	movw	r3, #26764	; 0x688c
    27c4:	65e1      	str	r1, [r4, #92]	; 0x5c
    27c6:	f6c9 3305 	movt	r3, #39685	; 0x9b05
    27ca:	64a3      	str	r3, [r4, #72]	; 0x48
    27cc:	f64d 13ab 	movw	r3, #55723	; 0xd9ab
    27d0:	f6c1 7383 	movt	r3, #8067	; 0x1f83
    27d4:	6523      	str	r3, [r4, #80]	; 0x50
    27d6:	f64c 5319 	movw	r3, #52505	; 0xcd19
    27da:	f6c5 33e0 	movt	r3, #23520	; 0x5be0
    27de:	65a3      	str	r3, [r4, #88]	; 0x58
    27e0:	e084      	b.n	28ec <rtl_crypto_sha2_init+0x24c>
    27e2:	f04f 35ff 	mov.w	r5, #4294967295	; 0xffffffff
    27e6:	4628      	mov	r0, r5
    27e8:	b004      	add	sp, #16
    27ea:	bd70      	pop	{r4, r5, r6, pc}
    27ec:	2c00      	cmp	r4, #0
    27ee:	f000 80b7 	beq.w	2960 <rtl_crypto_sha2_init+0x2c0>
    27f2:	f649 62d8 	movw	r2, #40664	; 0x9ed8
    27f6:	f649 535d 	movw	r3, #40285	; 0x9d5d
    27fa:	f24d 5107 	movw	r1, #54535	; 0xd507
    27fe:	f2cc 1205 	movt	r2, #49413	; 0xc105
    2802:	f6cc 33bb 	movt	r3, #52155	; 0xcbbb
    2806:	f2c3 617c 	movt	r1, #13948	; 0x367c
    280a:	e9c4 3208 	strd	r3, r2, [r4, #32]
    280e:	f642 132a 	movw	r3, #10538	; 0x292a
    2812:	f64d 5217 	movw	r2, #56599	; 0xdd17
    2816:	62e1      	str	r1, [r4, #44]	; 0x2c
    2818:	f645 1139 	movw	r1, #22841	; 0x5939
    281c:	f2c6 239a 	movt	r3, #25242	; 0x629a
    2820:	f2c3 0270 	movt	r2, #12400	; 0x3070
    2824:	f2cf 710e 	movt	r1, #63246	; 0xf70e
    2828:	62a3      	str	r3, [r4, #40]	; 0x28
    282a:	f44f 73ad 	mov.w	r3, #346	; 0x15a
    282e:	6362      	str	r2, [r4, #52]	; 0x34
    2830:	f640 3231 	movw	r2, #2865	; 0xb31
    2834:	f2c9 1359 	movt	r3, #37209	; 0x9159
    2838:	63e1      	str	r1, [r4, #60]	; 0x3c
    283a:	f241 5111 	movw	r1, #5393	; 0x1511
    283e:	f6cf 72c0 	movt	r2, #65472	; 0xffc0
    2842:	6323      	str	r3, [r4, #48]	; 0x30
    2844:	f64e 43d8 	movw	r3, #60632	; 0xecd8
    2848:	f6c6 0158 	movt	r1, #26712	; 0x6858
    284c:	6462      	str	r2, [r4, #68]	; 0x44
    284e:	f2c1 532f 	movt	r3, #5423	; 0x152f
    2852:	f648 72a7 	movw	r2, #36775	; 0x8fa7
    2856:	64e1      	str	r1, [r4, #76]	; 0x4c
    2858:	f644 71a4 	movw	r1, #20388	; 0x4fa4
    285c:	63a3      	str	r3, [r4, #56]	; 0x38
    285e:	f242 6367 	movw	r3, #9831	; 0x2667
    2862:	f2c6 42f9 	movt	r2, #25849	; 0x64f9
    2866:	f6cb 61fa 	movt	r1, #48890	; 0xbefa
    286a:	f2c6 7333 	movt	r3, #26419	; 0x6733
    286e:	6562      	str	r2, [r4, #84]	; 0x54
    2870:	2241      	movs	r2, #65	; 0x41
    2872:	6423      	str	r3, [r4, #64]	; 0x40
    2874:	f644 2387 	movw	r3, #19079	; 0x4a87
    2878:	65e1      	str	r1, [r4, #92]	; 0x5c
    287a:	f6c8 63b4 	movt	r3, #36532	; 0x8eb4
    287e:	64a3      	str	r3, [r4, #72]	; 0x48
    2880:	f642 630d 	movw	r3, #11789	; 0x2e0d
    2884:	f6cd 330c 	movt	r3, #56076	; 0xdb0c
    2888:	6523      	str	r3, [r4, #80]	; 0x50
    288a:	f644 031d 	movw	r3, #18461	; 0x481d
    288e:	f2c4 73b5 	movt	r3, #18357	; 0x47b5
    2892:	65a3      	str	r3, [r4, #88]	; 0x58
    2894:	e02a      	b.n	28ec <rtl_crypto_sha2_init+0x24c>
    2896:	2c00      	cmp	r4, #0
    2898:	d060      	beq.n	295c <rtl_crypto_sha2_init+0x2bc>
    289a:	f649 62d8 	movw	r2, #40664	; 0x9ed8
    289e:	f24d 5307 	movw	r3, #54535	; 0xd507
    28a2:	f64d 5117 	movw	r1, #56599	; 0xdd17
    28a6:	f2cc 1205 	movt	r2, #49413	; 0xc105
    28aa:	f2c3 637c 	movt	r3, #13948	; 0x367c
    28ae:	f2c3 0170 	movt	r1, #12400	; 0x3070
    28b2:	e9c4 2308 	strd	r2, r3, [r4, #32]
    28b6:	f645 1339 	movw	r3, #22841	; 0x5939
    28ba:	f640 3231 	movw	r2, #2865	; 0xb31
    28be:	62a1      	str	r1, [r4, #40]	; 0x28
    28c0:	f648 71a7 	movw	r1, #36775	; 0x8fa7
    28c4:	f2cf 730e 	movt	r3, #63246	; 0xf70e
    28c8:	f6cf 72c0 	movt	r2, #65472	; 0xffc0
    28cc:	f2c6 41f9 	movt	r1, #25849	; 0x64f9
    28d0:	62e3      	str	r3, [r4, #44]	; 0x2c
    28d2:	f241 5311 	movw	r3, #5393	; 0x1511
    28d6:	6322      	str	r2, [r4, #48]	; 0x30
    28d8:	2211      	movs	r2, #17
    28da:	f6c6 0358 	movt	r3, #26712	; 0x6858
    28de:	63a1      	str	r1, [r4, #56]	; 0x38
    28e0:	6363      	str	r3, [r4, #52]	; 0x34
    28e2:	f644 73a4 	movw	r3, #20388	; 0x4fa4
    28e6:	f6cb 63fa 	movt	r3, #48890	; 0xbefa
    28ea:	63e3      	str	r3, [r4, #60]	; 0x3c
    28ec:	2300      	movs	r3, #0
    28ee:	f244 4040 	movw	r0, #17472	; 0x4440
    28f2:	f640 35dd 	movw	r5, #3037	; 0xbdd
    28f6:	f04f 31ff 	mov.w	r1, #4294967295	; 0xffffffff
    28fa:	9300      	str	r3, [sp, #0]
    28fc:	f2c2 0000 	movt	r0, #8192	; 0x2000
    2900:	f2c0 0500 	movt	r5, #0
    2904:	f886 3034 	strb.w	r3, [r6, #52]	; 0x34
    2908:	f886 3040 	strb.w	r3, [r6, #64]	; 0x40
    290c:	e9cd 3301 	strd	r3, r3, [sp, #4]
    2910:	47a8      	blx	r5
    2912:	f242 23ed 	movw	r3, #8941	; 0x22ed
    2916:	4605      	mov	r5, r0
    2918:	4620      	mov	r0, r4
    291a:	f2c0 0300 	movt	r3, #0
    291e:	4798      	blx	r3
    2920:	2301      	movs	r3, #1
    2922:	4628      	mov	r0, r5
    2924:	f884 3063 	strb.w	r3, [r4, #99]	; 0x63
    2928:	b004      	add	sp, #16
    292a:	bd70      	pop	{r4, r5, r6, pc}
    292c:	2221      	movs	r2, #33	; 0x21
    292e:	2300      	movs	r3, #0
    2930:	f244 4040 	movw	r0, #17472	; 0x4440
    2934:	f640 34dd 	movw	r4, #3037	; 0xbdd
    2938:	f04f 31ff 	mov.w	r1, #4294967295	; 0xffffffff
    293c:	9302      	str	r3, [sp, #8]
    293e:	f2c2 0000 	movt	r0, #8192	; 0x2000
    2942:	f2c0 0400 	movt	r4, #0
    2946:	f886 3034 	strb.w	r3, [r6, #52]	; 0x34
    294a:	f886 3040 	strb.w	r3, [r6, #64]	; 0x40
    294e:	e9cd 3300 	strd	r3, r3, [sp]
    2952:	47a0      	blx	r4
    2954:	4605      	mov	r5, r0
    2956:	4628      	mov	r0, r5
    2958:	b004      	add	sp, #16
    295a:	bd70      	pop	{r4, r5, r6, pc}
    295c:	2211      	movs	r2, #17
    295e:	e7e6      	b.n	292e <rtl_crypto_sha2_init+0x28e>
    2960:	2241      	movs	r2, #65	; 0x41
    2962:	e7e4      	b.n	292e <rtl_crypto_sha2_init+0x28e>
    2964:	2281      	movs	r2, #129	; 0x81
    2966:	e7e2      	b.n	292e <rtl_crypto_sha2_init+0x28e>

00002968 <rtl_crypto_sha2_process>:
    2968:	f244 4c40 	movw	ip, #17472	; 0x4440
    296c:	f2c2 0c00 	movt	ip, #8192	; 0x2000
    2970:	f8dc 300c 	ldr.w	r3, [ip, #12]
    2974:	f003 0303 	and.w	r3, r3, #3
    2978:	2b01      	cmp	r3, #1
    297a:	d113      	bne.n	29a4 <rtl_crypto_sha2_process+0x3c>
    297c:	2300      	movs	r3, #0
    297e:	b510      	push	{r4, lr}
    2980:	4614      	mov	r4, r2
    2982:	b086      	sub	sp, #24
    2984:	460a      	mov	r2, r1
    2986:	4601      	mov	r1, r0
    2988:	4660      	mov	r0, ip
    298a:	e9cd 3402 	strd	r3, r4, [sp, #8]
    298e:	f640 64e1 	movw	r4, #3809	; 0xee1
    2992:	f2c0 0400 	movt	r4, #0
    2996:	e9cd 3304 	strd	r3, r3, [sp, #16]
    299a:	e9cd 3300 	strd	r3, r3, [sp]
    299e:	47a0      	blx	r4
    29a0:	b006      	add	sp, #24
    29a2:	bd10      	pop	{r4, pc}
    29a4:	f06f 0009 	mvn.w	r0, #9
    29a8:	4770      	bx	lr
    29aa:	bf00      	nop

000029ac <rtl_crypto_sha2_update_rom>:
    29ac:	b5f8      	push	{r3, r4, r5, r6, r7, lr}
    29ae:	f244 4540 	movw	r5, #17472	; 0x4440
    29b2:	2301      	movs	r3, #1
    29b4:	4606      	mov	r6, r0
    29b6:	4610      	mov	r0, r2
    29b8:	f2c2 0500 	movt	r5, #8192	; 0x2000
    29bc:	f882 3062 	strb.w	r3, [r2, #98]	; 0x62
    29c0:	4614      	mov	r4, r2
    29c2:	460f      	mov	r7, r1
    29c4:	f7ff fcde 	bl	2384 <hash_restore>
    29c8:	782b      	ldrb	r3, [r5, #0]
    29ca:	2b01      	cmp	r3, #1
    29cc:	d11b      	bne.n	2a06 <rtl_crypto_sha2_update_rom+0x5a>
    29ce:	b326      	cbz	r6, 2a1a <rtl_crypto_sha2_update_rom+0x6e>
    29d0:	68eb      	ldr	r3, [r5, #12]
    29d2:	f003 0303 	and.w	r3, r3, #3
    29d6:	2b01      	cmp	r3, #1
    29d8:	d128      	bne.n	2a2c <rtl_crypto_sha2_update_rom+0x80>
    29da:	f241 7239 	movw	r2, #5945	; 0x1739
    29de:	4621      	mov	r1, r4
    29e0:	f104 0020 	add.w	r0, r4, #32
    29e4:	f885 3034 	strb.w	r3, [r5, #52]	; 0x34
    29e8:	f2c0 0200 	movt	r2, #0
    29ec:	63ae      	str	r6, [r5, #56]	; 0x38
    29ee:	63ef      	str	r7, [r5, #60]	; 0x3c
    29f0:	4790      	blx	r2
    29f2:	f242 22ed 	movw	r2, #8941	; 0x22ed
    29f6:	4603      	mov	r3, r0
    29f8:	4620      	mov	r0, r4
    29fa:	f2c0 0200 	movt	r2, #0
    29fe:	461c      	mov	r4, r3
    2a00:	4790      	blx	r2
    2a02:	4620      	mov	r0, r4
    2a04:	bdf8      	pop	{r3, r4, r5, r6, r7, pc}
    2a06:	f646 50fc 	movw	r0, #28156	; 0x6dfc
    2a0a:	f240 11bd 	movw	r1, #445	; 0x1bd
    2a0e:	f2c0 0004 	movt	r0, #4
    2a12:	f006 fb0b 	bl	902c <io_assert_failed>
    2a16:	2e00      	cmp	r6, #0
    2a18:	d1da      	bne.n	29d0 <rtl_crypto_sha2_update_rom+0x24>
    2a1a:	f646 50fc 	movw	r0, #28156	; 0x6dfc
    2a1e:	f44f 71df 	mov.w	r1, #446	; 0x1be
    2a22:	f2c0 0004 	movt	r0, #4
    2a26:	f006 fb01 	bl	902c <io_assert_failed>
    2a2a:	e7d1      	b.n	29d0 <rtl_crypto_sha2_update_rom+0x24>
    2a2c:	f06f 0409 	mvn.w	r4, #9
    2a30:	e7e7      	b.n	2a02 <rtl_crypto_sha2_update_rom+0x56>
    2a32:	bf00      	nop

00002a34 <rtl_crypto_sha2_update>:
    2a34:	f5b1 3f00 	cmp.w	r1, #131072	; 0x20000
    2a38:	e92d 43f8 	stmdb	sp!, {r3, r4, r5, r6, r7, r8, r9, lr}
    2a3c:	4688      	mov	r8, r1
    2a3e:	4604      	mov	r4, r0
    2a40:	4615      	mov	r5, r2
    2a42:	d923      	bls.n	2a8c <rtl_crypto_sha2_update+0x58>
    2a44:	f64f 73ff 	movw	r3, #65535	; 0xffff
    2a48:	f642 16ad 	movw	r6, #10669	; 0x29ad
    2a4c:	f6cf 73fd 	movt	r3, #65533	; 0xfffd
    2a50:	f2c0 0600 	movt	r6, #0
    2a54:	440b      	add	r3, r1
    2a56:	ea4f 4953 	mov.w	r9, r3, lsr #17
    2a5a:	f109 0701 	add.w	r7, r9, #1
    2a5e:	eb00 4747 	add.w	r7, r0, r7, lsl #17
    2a62:	4620      	mov	r0, r4
    2a64:	f504 3400 	add.w	r4, r4, #131072	; 0x20000
    2a68:	462a      	mov	r2, r5
    2a6a:	f44f 3100 	mov.w	r1, #131072	; 0x20000
    2a6e:	47b0      	blx	r6
    2a70:	42bc      	cmp	r4, r7
    2a72:	d1f6      	bne.n	2a62 <rtl_crypto_sha2_update+0x2e>
    2a74:	ebc9 33c9 	rsb	r3, r9, r9, lsl #15
    2a78:	f5a8 3800 	sub.w	r8, r8, #131072	; 0x20000
    2a7c:	462a      	mov	r2, r5
    2a7e:	4638      	mov	r0, r7
    2a80:	eb08 4843 	add.w	r8, r8, r3, lsl #17
    2a84:	4641      	mov	r1, r8
    2a86:	47b0      	blx	r6
    2a88:	e8bd 83f8 	ldmia.w	sp!, {r3, r4, r5, r6, r7, r8, r9, pc}
    2a8c:	4607      	mov	r7, r0
    2a8e:	f642 16ad 	movw	r6, #10669	; 0x29ad
    2a92:	462a      	mov	r2, r5
    2a94:	4641      	mov	r1, r8
    2a96:	f2c0 0600 	movt	r6, #0
    2a9a:	4638      	mov	r0, r7
    2a9c:	47b0      	blx	r6
    2a9e:	e8bd 83f8 	ldmia.w	sp!, {r3, r4, r5, r6, r7, r8, r9, pc}
    2aa2:	bf00      	nop

00002aa4 <rtl_crypto_sha2_final>:
    2aa4:	b570      	push	{r4, r5, r6, lr}
    2aa6:	f244 4440 	movw	r4, #17472	; 0x4440
    2aaa:	b086      	sub	sp, #24
    2aac:	4606      	mov	r6, r0
    2aae:	4608      	mov	r0, r1
    2ab0:	f2c2 0400 	movt	r4, #8192	; 0x2000
    2ab4:	460d      	mov	r5, r1
    2ab6:	f7ff fc65 	bl	2384 <hash_restore>
    2aba:	7823      	ldrb	r3, [r4, #0]
    2abc:	2b01      	cmp	r3, #1
    2abe:	d007      	beq.n	2ad0 <rtl_crypto_sha2_final+0x2c>
    2ac0:	f646 6018 	movw	r0, #28184	; 0x6e18
    2ac4:	f44f 71f0 	mov.w	r1, #480	; 0x1e0
    2ac8:	f2c0 0004 	movt	r0, #4
    2acc:	f006 faae 	bl	902c <io_assert_failed>
    2ad0:	68e1      	ldr	r1, [r4, #12]
    2ad2:	f001 0103 	and.w	r1, r1, #3
    2ad6:	2901      	cmp	r1, #1
    2ad8:	d11d      	bne.n	2b16 <rtl_crypto_sha2_final+0x72>
    2ada:	b1fe      	cbz	r6, 2b1c <rtl_crypto_sha2_final+0x78>
    2adc:	f894 3034 	ldrb.w	r3, [r4, #52]	; 0x34
    2ae0:	b1b3      	cbz	r3, 2b10 <rtl_crypto_sha2_final+0x6c>
    2ae2:	6769      	str	r1, [r5, #116]	; 0x74
    2ae4:	f244 51e8 	movw	r1, #17896	; 0x45e8
    2ae8:	f894 2040 	ldrb.w	r2, [r4, #64]	; 0x40
    2aec:	2300      	movs	r3, #0
    2aee:	f2c2 0100 	movt	r1, #8192	; 0x2000
    2af2:	f640 64e1 	movw	r4, #3809	; 0xee1
    2af6:	9505      	str	r5, [sp, #20]
    2af8:	f5a1 70d4 	sub.w	r0, r1, #424	; 0x1a8
    2afc:	f2c0 0400 	movt	r4, #0
    2b00:	9300      	str	r3, [sp, #0]
    2b02:	e9cd 6303 	strd	r6, r3, [sp, #12]
    2b06:	e9cd 3301 	strd	r3, r3, [sp, #4]
    2b0a:	47a0      	blx	r4
    2b0c:	b006      	add	sp, #24
    2b0e:	bd70      	pop	{r4, r5, r6, pc}
    2b10:	f06f 000c 	mvn.w	r0, #12
    2b14:	e7fa      	b.n	2b0c <rtl_crypto_sha2_final+0x68>
    2b16:	f06f 0009 	mvn.w	r0, #9
    2b1a:	e7f7      	b.n	2b0c <rtl_crypto_sha2_final+0x68>
    2b1c:	f06f 0003 	mvn.w	r0, #3
    2b20:	e7f4      	b.n	2b0c <rtl_crypto_sha2_final+0x68>
    2b22:	bf00      	nop

00002b24 <rtl_crypto_sha2>:
    2b24:	b5f8      	push	{r3, r4, r5, r6, r7, lr}
    2b26:	f242 64a1 	movw	r4, #9889	; 0x26a1
    2b2a:	460f      	mov	r7, r1
    2b2c:	2100      	movs	r1, #0
    2b2e:	4615      	mov	r5, r2
    2b30:	f2c0 0400 	movt	r4, #0
    2b34:	461e      	mov	r6, r3
    2b36:	47a0      	blx	r4
    2b38:	b100      	cbz	r0, 2b3c <rtl_crypto_sha2+0x18>
    2b3a:	bdf8      	pop	{r3, r4, r5, r6, r7, pc}
    2b3c:	f642 1369 	movw	r3, #10601	; 0x2969
    2b40:	4632      	mov	r2, r6
    2b42:	4629      	mov	r1, r5
    2b44:	4638      	mov	r0, r7
    2b46:	f2c0 0300 	movt	r3, #0
    2b4a:	4798      	blx	r3
    2b4c:	bdf8      	pop	{r3, r4, r5, r6, r7, pc}
    2b4e:	bf00      	nop

00002b50 <rtl_crypto_hmac_sha1_init>:
    2b50:	f64d 5355 	movw	r3, #56661	; 0xdd55
    2b54:	b5f0      	push	{r4, r5, r6, r7, lr}
    2b56:	f2c0 0300 	movt	r3, #0
    2b5a:	f44f 4500 	mov.w	r5, #32768	; 0x8000
    2b5e:	e843 f300 	tt	r3, r3
    2b62:	f413 0f80 	tst.w	r3, #4194304	; 0x400000
    2b66:	f44f 4300 	mov.w	r3, #32768	; 0x8000
    2b6a:	f2c4 0510 	movt	r5, #16400	; 0x4010
    2b6e:	b085      	sub	sp, #20
    2b70:	f2c5 0310 	movt	r3, #20496	; 0x5010
    2b74:	4606      	mov	r6, r0
    2b76:	460f      	mov	r7, r1
    2b78:	4614      	mov	r4, r2
    2b7a:	bf18      	it	ne
    2b7c:	461d      	movne	r5, r3
    2b7e:	6b6b      	ldr	r3, [r5, #52]	; 0x34
    2b80:	2b00      	cmp	r3, #0
    2b82:	db05      	blt.n	2b90 <rtl_crypto_hmac_sha1_init+0x40>
    2b84:	2800      	cmp	r0, #0
    2b86:	d053      	beq.n	2c30 <rtl_crypto_hmac_sha1_init+0xe0>
    2b88:	0783      	lsls	r3, r0, #30
    2b8a:	d14e      	bne.n	2c2a <rtl_crypto_hmac_sha1_init+0xda>
    2b8c:	2940      	cmp	r1, #64	; 0x40
    2b8e:	d849      	bhi.n	2c24 <rtl_crypto_hmac_sha1_init+0xd4>
    2b90:	f244 4540 	movw	r5, #17472	; 0x4440
    2b94:	f2c2 0500 	movt	r5, #8192	; 0x2000
    2b98:	782b      	ldrb	r3, [r5, #0]
    2b9a:	2b01      	cmp	r3, #1
    2b9c:	d007      	beq.n	2bae <rtl_crypto_hmac_sha1_init+0x5e>
    2b9e:	f646 6030 	movw	r0, #28208	; 0x6e30
    2ba2:	f240 212f 	movw	r1, #559	; 0x22f
    2ba6:	f2c0 0004 	movt	r0, #4
    2baa:	f006 fa3f 	bl	902c <io_assert_failed>
    2bae:	2300      	movs	r3, #0
    2bb0:	9702      	str	r7, [sp, #8]
    2bb2:	f244 4040 	movw	r0, #17472	; 0x4440
    2bb6:	2204      	movs	r2, #4
    2bb8:	f04f 31ff 	mov.w	r1, #4294967295	; 0xffffffff
    2bbc:	f2c2 0000 	movt	r0, #8192	; 0x2000
    2bc0:	e9cd 3600 	strd	r3, r6, [sp]
    2bc4:	f885 3034 	strb.w	r3, [r5, #52]	; 0x34
    2bc8:	f885 3040 	strb.w	r3, [r5, #64]	; 0x40
    2bcc:	f640 35dd 	movw	r5, #3037	; 0xbdd
    2bd0:	f2c0 0500 	movt	r5, #0
    2bd4:	47a8      	blx	r5
    2bd6:	4605      	mov	r5, r0
    2bd8:	b30c      	cbz	r4, 2c1e <rtl_crypto_hmac_sha1_init+0xce>
    2bda:	f242 23ed 	movw	r3, #8941	; 0x22ed
    2bde:	4620      	mov	r0, r4
    2be0:	f2c0 0300 	movt	r3, #0
    2be4:	4798      	blx	r3
    2be6:	f242 3201 	movw	r2, #8961	; 0x2301
    2bea:	f64a 3389 	movw	r3, #43913	; 0xab89
    2bee:	f64d 41fe 	movw	r1, #56574	; 0xdcfe
    2bf2:	f2c6 7245 	movt	r2, #26437	; 0x6745
    2bf6:	f6ce 73cd 	movt	r3, #61389	; 0xefcd
    2bfa:	f6c9 01ba 	movt	r1, #39098	; 0x98ba
    2bfe:	e9c4 2308 	strd	r2, r3, [r4, #32]
    2c02:	f245 4276 	movw	r2, #21622	; 0x5476
    2c06:	f24e 13f0 	movw	r3, #57840	; 0xe1f0
    2c0a:	62a1      	str	r1, [r4, #40]	; 0x28
    2c0c:	f2c1 0232 	movt	r2, #4146	; 0x1032
    2c10:	f2cc 33d2 	movt	r3, #50130	; 0xc3d2
    2c14:	62e2      	str	r2, [r4, #44]	; 0x2c
    2c16:	2201      	movs	r2, #1
    2c18:	6323      	str	r3, [r4, #48]	; 0x30
    2c1a:	f884 2063 	strb.w	r2, [r4, #99]	; 0x63
    2c1e:	4628      	mov	r0, r5
    2c20:	b005      	add	sp, #20
    2c22:	bdf0      	pop	{r4, r5, r6, r7, pc}
    2c24:	f06f 0506 	mvn.w	r5, #6
    2c28:	e7f9      	b.n	2c1e <rtl_crypto_hmac_sha1_init+0xce>
    2c2a:	f06f 0505 	mvn.w	r5, #5
    2c2e:	e7f6      	b.n	2c1e <rtl_crypto_hmac_sha1_init+0xce>
    2c30:	f06f 0503 	mvn.w	r5, #3
    2c34:	e7f3      	b.n	2c1e <rtl_crypto_hmac_sha1_init+0xce>
    2c36:	bf00      	nop

00002c38 <rtl_crypto_hmac_sha1_process>:
    2c38:	f244 4c40 	movw	ip, #17472	; 0x4440
    2c3c:	f2c2 0c00 	movt	ip, #8192	; 0x2000
    2c40:	f8dc 300c 	ldr.w	r3, [ip, #12]
    2c44:	f013 0f04 	tst.w	r3, #4
    2c48:	d015      	beq.n	2c76 <rtl_crypto_hmac_sha1_process+0x3e>
    2c4a:	f013 0303 	ands.w	r3, r3, #3
    2c4e:	d112      	bne.n	2c76 <rtl_crypto_hmac_sha1_process+0x3e>
    2c50:	b510      	push	{r4, lr}
    2c52:	4614      	mov	r4, r2
    2c54:	b086      	sub	sp, #24
    2c56:	460a      	mov	r2, r1
    2c58:	4601      	mov	r1, r0
    2c5a:	4660      	mov	r0, ip
    2c5c:	e9cd 3402 	strd	r3, r4, [sp, #8]
    2c60:	f640 64e1 	movw	r4, #3809	; 0xee1
    2c64:	f2c0 0400 	movt	r4, #0
    2c68:	e9cd 3304 	strd	r3, r3, [sp, #16]
    2c6c:	e9cd 3300 	strd	r3, r3, [sp]
    2c70:	47a0      	blx	r4
    2c72:	b006      	add	sp, #24
    2c74:	bd10      	pop	{r4, pc}
    2c76:	f06f 0009 	mvn.w	r0, #9
    2c7a:	4770      	bx	lr

00002c7c <rtl_crypto_hmac_sha1_update_rom>:
    2c7c:	b5f8      	push	{r3, r4, r5, r6, r7, lr}
    2c7e:	f244 4540 	movw	r5, #17472	; 0x4440
    2c82:	2301      	movs	r3, #1
    2c84:	4606      	mov	r6, r0
    2c86:	4610      	mov	r0, r2
    2c88:	f2c2 0500 	movt	r5, #8192	; 0x2000
    2c8c:	f882 3062 	strb.w	r3, [r2, #98]	; 0x62
    2c90:	4614      	mov	r4, r2
    2c92:	460f      	mov	r7, r1
    2c94:	f7ff fb76 	bl	2384 <hash_restore>
    2c98:	782b      	ldrb	r3, [r5, #0]
    2c9a:	2b01      	cmp	r3, #1
    2c9c:	d11c      	bne.n	2cd8 <rtl_crypto_hmac_sha1_update_rom+0x5c>
    2c9e:	b32e      	cbz	r6, 2cec <rtl_crypto_hmac_sha1_update_rom+0x70>
    2ca0:	68eb      	ldr	r3, [r5, #12]
    2ca2:	075a      	lsls	r2, r3, #29
    2ca4:	d52b      	bpl.n	2cfe <rtl_crypto_hmac_sha1_update_rom+0x82>
    2ca6:	079b      	lsls	r3, r3, #30
    2ca8:	d129      	bne.n	2cfe <rtl_crypto_hmac_sha1_update_rom+0x82>
    2caa:	f241 7339 	movw	r3, #5945	; 0x1739
    2cae:	2201      	movs	r2, #1
    2cb0:	4621      	mov	r1, r4
    2cb2:	f104 0020 	add.w	r0, r4, #32
    2cb6:	f2c0 0300 	movt	r3, #0
    2cba:	f885 2034 	strb.w	r2, [r5, #52]	; 0x34
    2cbe:	e9c5 670e 	strd	r6, r7, [r5, #56]	; 0x38
    2cc2:	4798      	blx	r3
    2cc4:	f242 22ed 	movw	r2, #8941	; 0x22ed
    2cc8:	4603      	mov	r3, r0
    2cca:	4620      	mov	r0, r4
    2ccc:	f2c0 0200 	movt	r2, #0
    2cd0:	461c      	mov	r4, r3
    2cd2:	4790      	blx	r2
    2cd4:	4620      	mov	r0, r4
    2cd6:	bdf8      	pop	{r3, r4, r5, r6, r7, pc}
    2cd8:	f646 604c 	movw	r0, #28236	; 0x6e4c
    2cdc:	f240 218a 	movw	r1, #650	; 0x28a
    2ce0:	f2c0 0004 	movt	r0, #4
    2ce4:	f006 f9a2 	bl	902c <io_assert_failed>
    2ce8:	2e00      	cmp	r6, #0
    2cea:	d1d9      	bne.n	2ca0 <rtl_crypto_hmac_sha1_update_rom+0x24>
    2cec:	f646 604c 	movw	r0, #28236	; 0x6e4c
    2cf0:	f240 218b 	movw	r1, #651	; 0x28b
    2cf4:	f2c0 0004 	movt	r0, #4
    2cf8:	f006 f998 	bl	902c <io_assert_failed>
    2cfc:	e7d0      	b.n	2ca0 <rtl_crypto_hmac_sha1_update_rom+0x24>
    2cfe:	f06f 0409 	mvn.w	r4, #9
    2d02:	e7e7      	b.n	2cd4 <rtl_crypto_hmac_sha1_update_rom+0x58>

00002d04 <rtl_crypto_hmac_sha1_update>:
    2d04:	f5b1 3f00 	cmp.w	r1, #131072	; 0x20000
    2d08:	e92d 43f8 	stmdb	sp!, {r3, r4, r5, r6, r7, r8, r9, lr}
    2d0c:	4688      	mov	r8, r1
    2d0e:	4604      	mov	r4, r0
    2d10:	4615      	mov	r5, r2
    2d12:	d923      	bls.n	2d5c <rtl_crypto_hmac_sha1_update+0x58>
    2d14:	f64f 73ff 	movw	r3, #65535	; 0xffff
    2d18:	f642 467d 	movw	r6, #11389	; 0x2c7d
    2d1c:	f6cf 73fd 	movt	r3, #65533	; 0xfffd
    2d20:	f2c0 0600 	movt	r6, #0
    2d24:	440b      	add	r3, r1
    2d26:	ea4f 4953 	mov.w	r9, r3, lsr #17
    2d2a:	f109 0701 	add.w	r7, r9, #1
    2d2e:	eb00 4747 	add.w	r7, r0, r7, lsl #17
    2d32:	4620      	mov	r0, r4
    2d34:	f504 3400 	add.w	r4, r4, #131072	; 0x20000
    2d38:	462a      	mov	r2, r5
    2d3a:	f44f 3100 	mov.w	r1, #131072	; 0x20000
    2d3e:	47b0      	blx	r6
    2d40:	42bc      	cmp	r4, r7
    2d42:	d1f6      	bne.n	2d32 <rtl_crypto_hmac_sha1_update+0x2e>
    2d44:	ebc9 33c9 	rsb	r3, r9, r9, lsl #15
    2d48:	f5a8 3800 	sub.w	r8, r8, #131072	; 0x20000
    2d4c:	462a      	mov	r2, r5
    2d4e:	4638      	mov	r0, r7
    2d50:	eb08 4843 	add.w	r8, r8, r3, lsl #17
    2d54:	4641      	mov	r1, r8
    2d56:	47b0      	blx	r6
    2d58:	e8bd 83f8 	ldmia.w	sp!, {r3, r4, r5, r6, r7, r8, r9, pc}
    2d5c:	4607      	mov	r7, r0
    2d5e:	f642 467d 	movw	r6, #11389	; 0x2c7d
    2d62:	462a      	mov	r2, r5
    2d64:	4641      	mov	r1, r8
    2d66:	f2c0 0600 	movt	r6, #0
    2d6a:	4638      	mov	r0, r7
    2d6c:	47b0      	blx	r6
    2d6e:	e8bd 83f8 	ldmia.w	sp!, {r3, r4, r5, r6, r7, r8, r9, pc}
    2d72:	bf00      	nop

00002d74 <rtl_crypto_hmac_sha1_final>:
    2d74:	b570      	push	{r4, r5, r6, lr}
    2d76:	f244 4440 	movw	r4, #17472	; 0x4440
    2d7a:	b086      	sub	sp, #24
    2d7c:	4606      	mov	r6, r0
    2d7e:	4608      	mov	r0, r1
    2d80:	f2c2 0400 	movt	r4, #8192	; 0x2000
    2d84:	460d      	mov	r5, r1
    2d86:	f7ff fafd 	bl	2384 <hash_restore>
    2d8a:	7823      	ldrb	r3, [r4, #0]
    2d8c:	2b01      	cmp	r3, #1
    2d8e:	d007      	beq.n	2da0 <rtl_crypto_hmac_sha1_final+0x2c>
    2d90:	f646 606c 	movw	r0, #28268	; 0x6e6c
    2d94:	f240 21af 	movw	r1, #687	; 0x2af
    2d98:	f2c0 0004 	movt	r0, #4
    2d9c:	f006 f946 	bl	902c <io_assert_failed>
    2da0:	68e3      	ldr	r3, [r4, #12]
    2da2:	075a      	lsls	r2, r3, #29
    2da4:	d51d      	bpl.n	2de2 <rtl_crypto_hmac_sha1_final+0x6e>
    2da6:	f013 0303 	ands.w	r3, r3, #3
    2daa:	d11a      	bne.n	2de2 <rtl_crypto_hmac_sha1_final+0x6e>
    2dac:	b1fe      	cbz	r6, 2dee <rtl_crypto_hmac_sha1_final+0x7a>
    2dae:	f894 2034 	ldrb.w	r2, [r4, #52]	; 0x34
    2db2:	b1ca      	cbz	r2, 2de8 <rtl_crypto_hmac_sha1_final+0x74>
    2db4:	2101      	movs	r1, #1
    2db6:	f894 2040 	ldrb.w	r2, [r4, #64]	; 0x40
    2dba:	f640 64e1 	movw	r4, #3809	; 0xee1
    2dbe:	e9cd 3504 	strd	r3, r5, [sp, #16]
    2dc2:	6769      	str	r1, [r5, #116]	; 0x74
    2dc4:	f244 51e8 	movw	r1, #17896	; 0x45e8
    2dc8:	f2c0 0400 	movt	r4, #0
    2dcc:	9603      	str	r6, [sp, #12]
    2dce:	f2c2 0100 	movt	r1, #8192	; 0x2000
    2dd2:	9300      	str	r3, [sp, #0]
    2dd4:	f5a1 70d4 	sub.w	r0, r1, #424	; 0x1a8
    2dd8:	e9cd 3301 	strd	r3, r3, [sp, #4]
    2ddc:	47a0      	blx	r4
    2dde:	b006      	add	sp, #24
    2de0:	bd70      	pop	{r4, r5, r6, pc}
    2de2:	f06f 0009 	mvn.w	r0, #9
    2de6:	e7fa      	b.n	2dde <rtl_crypto_hmac_sha1_final+0x6a>
    2de8:	f06f 000c 	mvn.w	r0, #12
    2dec:	e7f7      	b.n	2dde <rtl_crypto_hmac_sha1_final+0x6a>
    2dee:	f06f 0003 	mvn.w	r0, #3
    2df2:	e7f4      	b.n	2dde <rtl_crypto_hmac_sha1_final+0x6a>

00002df4 <rtl_crypto_hmac_sha1>:
    2df4:	b538      	push	{r3, r4, r5, lr}
    2df6:	4614      	mov	r4, r2
    2df8:	460d      	mov	r5, r1
    2dfa:	4619      	mov	r1, r3
    2dfc:	f642 3351 	movw	r3, #11089	; 0x2b51
    2e00:	4684      	mov	ip, r0
    2e02:	2200      	movs	r2, #0
    2e04:	4620      	mov	r0, r4
    2e06:	f2c0 0300 	movt	r3, #0
    2e0a:	4664      	mov	r4, ip
    2e0c:	4798      	blx	r3
    2e0e:	b100      	cbz	r0, 2e12 <rtl_crypto_hmac_sha1+0x1e>
    2e10:	bd38      	pop	{r3, r4, r5, pc}
    2e12:	f642 4339 	movw	r3, #11321	; 0x2c39
    2e16:	9a04      	ldr	r2, [sp, #16]
    2e18:	4629      	mov	r1, r5
    2e1a:	4620      	mov	r0, r4
    2e1c:	f2c0 0300 	movt	r3, #0
    2e20:	4798      	blx	r3
    2e22:	bd38      	pop	{r3, r4, r5, pc}

00002e24 <rtl_crypto_hmac_sha2_init>:
    2e24:	e92d 43f0 	stmdb	sp!, {r4, r5, r6, r7, r8, r9, lr}
    2e28:	f64d 5c55 	movw	ip, #56661	; 0xdd55
    2e2c:	4690      	mov	r8, r2
    2e2e:	f44f 4200 	mov.w	r2, #32768	; 0x8000
    2e32:	461c      	mov	r4, r3
    2e34:	f2c0 0c00 	movt	ip, #0
    2e38:	f44f 4300 	mov.w	r3, #32768	; 0x8000
    2e3c:	e84c fc00 	tt	ip, ip
    2e40:	f2c5 0210 	movt	r2, #20496	; 0x5010
    2e44:	f41c 0f80 	tst.w	ip, #4194304	; 0x400000
    2e48:	f2c4 0310 	movt	r3, #16400	; 0x4010
    2e4c:	b085      	sub	sp, #20
    2e4e:	bf18      	it	ne
    2e50:	4613      	movne	r3, r2
    2e52:	4605      	mov	r5, r0
    2e54:	460f      	mov	r7, r1
    2e56:	6b5b      	ldr	r3, [r3, #52]	; 0x34
    2e58:	2b00      	cmp	r3, #0
    2e5a:	db05      	blt.n	2e68 <rtl_crypto_hmac_sha2_init+0x44>
    2e5c:	2900      	cmp	r1, #0
    2e5e:	f000 8190 	beq.w	3182 <rtl_crypto_hmac_sha2_init+0x35e>
    2e62:	078b      	lsls	r3, r1, #30
    2e64:	f040 818a 	bne.w	317c <rtl_crypto_hmac_sha2_init+0x358>
    2e68:	2d20      	cmp	r5, #32
    2e6a:	bf18      	it	ne
    2e6c:	2d1c      	cmpne	r5, #28
    2e6e:	bf0c      	ite	eq
    2e70:	f04f 0901 	moveq.w	r9, #1
    2e74:	f04f 0900 	movne.w	r9, #0
    2e78:	d06f      	beq.n	2f5a <rtl_crypto_hmac_sha2_init+0x136>
    2e7a:	2d40      	cmp	r5, #64	; 0x40
    2e7c:	bf18      	it	ne
    2e7e:	2d30      	cmpne	r5, #48	; 0x30
    2e80:	d103      	bne.n	2e8a <rtl_crypto_hmac_sha2_init+0x66>
    2e82:	f1b8 0f80 	cmp.w	r8, #128	; 0x80
    2e86:	f200 816c 	bhi.w	3162 <rtl_crypto_hmac_sha2_init+0x33e>
    2e8a:	f244 4640 	movw	r6, #17472	; 0x4440
    2e8e:	f2c2 0600 	movt	r6, #8192	; 0x2000
    2e92:	7833      	ldrb	r3, [r6, #0]
    2e94:	2b01      	cmp	r3, #1
    2e96:	d007      	beq.n	2ea8 <rtl_crypto_hmac_sha2_init+0x84>
    2e98:	f646 6088 	movw	r0, #28296	; 0x6e88
    2e9c:	f240 310d 	movw	r1, #781	; 0x30d
    2ea0:	f2c0 0004 	movt	r0, #4
    2ea4:	f006 f8c2 	bl	902c <io_assert_failed>
    2ea8:	2d30      	cmp	r5, #48	; 0x30
    2eaa:	f000 80da 	beq.w	3062 <rtl_crypto_hmac_sha2_init+0x23e>
    2eae:	d860      	bhi.n	2f72 <rtl_crypto_hmac_sha2_init+0x14e>
    2eb0:	2d1c      	cmp	r5, #28
    2eb2:	f000 812b 	beq.w	310c <rtl_crypto_hmac_sha2_init+0x2e8>
    2eb6:	f1b9 0f00 	cmp.w	r9, #0
    2eba:	f000 80b0 	beq.w	301e <rtl_crypto_hmac_sha2_init+0x1fa>
    2ebe:	2c00      	cmp	r4, #0
    2ec0:	f000 80cd 	beq.w	305e <rtl_crypto_hmac_sha2_init+0x23a>
    2ec4:	f24e 6367 	movw	r3, #58983	; 0xe667
    2ec8:	2225      	movs	r2, #37	; 0x25
    2eca:	f6c6 2309 	movt	r3, #27145	; 0x6a09
    2ece:	6223      	str	r3, [r4, #32]
    2ed0:	f64a 6385 	movw	r3, #44677	; 0xae85
    2ed4:	f6cb 3367 	movt	r3, #47975	; 0xbb67
    2ed8:	6263      	str	r3, [r4, #36]	; 0x24
    2eda:	f24f 3372 	movw	r3, #62322	; 0xf372
    2ede:	f6c3 436e 	movt	r3, #15470	; 0x3c6e
    2ee2:	62a3      	str	r3, [r4, #40]	; 0x28
    2ee4:	f24f 533a 	movw	r3, #62778	; 0xf53a
    2ee8:	f2ca 534f 	movt	r3, #42319	; 0xa54f
    2eec:	62e3      	str	r3, [r4, #44]	; 0x2c
    2eee:	f245 237f 	movw	r3, #21119	; 0x527f
    2ef2:	f2c5 130e 	movt	r3, #20750	; 0x510e
    2ef6:	6323      	str	r3, [r4, #48]	; 0x30
    2ef8:	f646 038c 	movw	r3, #26764	; 0x688c
    2efc:	f6c9 3305 	movt	r3, #39685	; 0x9b05
    2f00:	6363      	str	r3, [r4, #52]	; 0x34
    2f02:	f64d 13ab 	movw	r3, #55723	; 0xd9ab
    2f06:	f6c1 7383 	movt	r3, #8067	; 0x1f83
    2f0a:	63a3      	str	r3, [r4, #56]	; 0x38
    2f0c:	f64c 5319 	movw	r3, #52505	; 0xcd19
    2f10:	f6c5 33e0 	movt	r3, #23520	; 0x5be0
    2f14:	63e3      	str	r3, [r4, #60]	; 0x3c
    2f16:	2300      	movs	r3, #0
    2f18:	f244 4040 	movw	r0, #17472	; 0x4440
    2f1c:	f640 35dd 	movw	r5, #3037	; 0xbdd
    2f20:	f04f 31ff 	mov.w	r1, #4294967295	; 0xffffffff
    2f24:	9300      	str	r3, [sp, #0]
    2f26:	f2c2 0000 	movt	r0, #8192	; 0x2000
    2f2a:	f2c0 0500 	movt	r5, #0
    2f2e:	f8cd 8008 	str.w	r8, [sp, #8]
    2f32:	9701      	str	r7, [sp, #4]
    2f34:	f886 3034 	strb.w	r3, [r6, #52]	; 0x34
    2f38:	f886 3040 	strb.w	r3, [r6, #64]	; 0x40
    2f3c:	47a8      	blx	r5
    2f3e:	f242 23ed 	movw	r3, #8941	; 0x22ed
    2f42:	4605      	mov	r5, r0
    2f44:	4620      	mov	r0, r4
    2f46:	f2c0 0300 	movt	r3, #0
    2f4a:	4798      	blx	r3
    2f4c:	2301      	movs	r3, #1
    2f4e:	4628      	mov	r0, r5
    2f50:	f884 3063 	strb.w	r3, [r4, #99]	; 0x63
    2f54:	b005      	add	sp, #20
    2f56:	e8bd 83f0 	ldmia.w	sp!, {r4, r5, r6, r7, r8, r9, pc}
    2f5a:	f1b8 0f40 	cmp.w	r8, #64	; 0x40
    2f5e:	d994      	bls.n	2e8a <rtl_crypto_hmac_sha2_init+0x66>
    2f60:	f646 6088 	movw	r0, #28296	; 0x6e88
    2f64:	f240 3107 	movw	r1, #775	; 0x307
    2f68:	f2c0 0004 	movt	r0, #4
    2f6c:	f006 f85e 	bl	902c <io_assert_failed>
    2f70:	e78b      	b.n	2e8a <rtl_crypto_hmac_sha2_init+0x66>
    2f72:	2d40      	cmp	r5, #64	; 0x40
    2f74:	d153      	bne.n	301e <rtl_crypto_hmac_sha2_init+0x1fa>
    2f76:	2c00      	cmp	r4, #0
    2f78:	d057      	beq.n	302a <rtl_crypto_hmac_sha2_init+0x206>
    2f7a:	f64c 1308 	movw	r3, #51464	; 0xc908
    2f7e:	2285      	movs	r2, #133	; 0x85
    2f80:	f2cf 33bc 	movt	r3, #62396	; 0xf3bc
    2f84:	6263      	str	r3, [r4, #36]	; 0x24
    2f86:	f24e 6367 	movw	r3, #58983	; 0xe667
    2f8a:	f6c6 2309 	movt	r3, #27145	; 0x6a09
    2f8e:	6223      	str	r3, [r4, #32]
    2f90:	f24a 733b 	movw	r3, #42811	; 0xa73b
    2f94:	f2c8 43ca 	movt	r3, #33994	; 0x84ca
    2f98:	62e3      	str	r3, [r4, #44]	; 0x2c
    2f9a:	f64a 6385 	movw	r3, #44677	; 0xae85
    2f9e:	f6cb 3367 	movt	r3, #47975	; 0xbb67
    2fa2:	62a3      	str	r3, [r4, #40]	; 0x28
    2fa4:	f64f 032b 	movw	r3, #63531	; 0xf82b
    2fa8:	f6cf 6394 	movt	r3, #65172	; 0xfe94
    2fac:	6363      	str	r3, [r4, #52]	; 0x34
    2fae:	f24f 3372 	movw	r3, #62322	; 0xf372
    2fb2:	f6c3 436e 	movt	r3, #15470	; 0x3c6e
    2fb6:	6323      	str	r3, [r4, #48]	; 0x30
    2fb8:	f243 63f1 	movw	r3, #14065	; 0x36f1
    2fbc:	f6c5 731d 	movt	r3, #24349	; 0x5f1d
    2fc0:	63e3      	str	r3, [r4, #60]	; 0x3c
    2fc2:	f24f 533a 	movw	r3, #62778	; 0xf53a
    2fc6:	f2ca 534f 	movt	r3, #42319	; 0xa54f
    2fca:	63a3      	str	r3, [r4, #56]	; 0x38
    2fcc:	f248 23d1 	movw	r3, #33489	; 0x82d1
    2fd0:	f6ca 53e6 	movt	r3, #44518	; 0xade6
    2fd4:	6463      	str	r3, [r4, #68]	; 0x44
    2fd6:	f245 237f 	movw	r3, #21119	; 0x527f
    2fda:	f2c5 130e 	movt	r3, #20750	; 0x510e
    2fde:	6423      	str	r3, [r4, #64]	; 0x40
    2fe0:	f646 431f 	movw	r3, #27679	; 0x6c1f
    2fe4:	f6c2 333e 	movt	r3, #11070	; 0x2b3e
    2fe8:	64e3      	str	r3, [r4, #76]	; 0x4c
    2fea:	f646 038c 	movw	r3, #26764	; 0x688c
    2fee:	f6c9 3305 	movt	r3, #39685	; 0x9b05
    2ff2:	64a3      	str	r3, [r4, #72]	; 0x48
    2ff4:	f64b 536b 	movw	r3, #48491	; 0xbd6b
    2ff8:	f6cf 3341 	movt	r3, #64321	; 0xfb41
    2ffc:	6563      	str	r3, [r4, #84]	; 0x54
    2ffe:	f64d 13ab 	movw	r3, #55723	; 0xd9ab
    3002:	f6c1 7383 	movt	r3, #8067	; 0x1f83
    3006:	6523      	str	r3, [r4, #80]	; 0x50
    3008:	f242 1379 	movw	r3, #8569	; 0x2179
    300c:	f2c1 337e 	movt	r3, #4990	; 0x137e
    3010:	65e3      	str	r3, [r4, #92]	; 0x5c
    3012:	f64c 5319 	movw	r3, #52505	; 0xcd19
    3016:	f6c5 33e0 	movt	r3, #23520	; 0x5be0
    301a:	65a3      	str	r3, [r4, #88]	; 0x58
    301c:	e77b      	b.n	2f16 <rtl_crypto_hmac_sha2_init+0xf2>
    301e:	f04f 35ff 	mov.w	r5, #4294967295	; 0xffffffff
    3022:	4628      	mov	r0, r5
    3024:	b005      	add	sp, #20
    3026:	e8bd 83f0 	ldmia.w	sp!, {r4, r5, r6, r7, r8, r9, pc}
    302a:	2285      	movs	r2, #133	; 0x85
    302c:	2300      	movs	r3, #0
    302e:	f244 4040 	movw	r0, #17472	; 0x4440
    3032:	f640 34dd 	movw	r4, #3037	; 0xbdd
    3036:	f04f 31ff 	mov.w	r1, #4294967295	; 0xffffffff
    303a:	f8cd 8008 	str.w	r8, [sp, #8]
    303e:	f2c2 0000 	movt	r0, #8192	; 0x2000
    3042:	f2c0 0400 	movt	r4, #0
    3046:	f886 3034 	strb.w	r3, [r6, #52]	; 0x34
    304a:	f886 3040 	strb.w	r3, [r6, #64]	; 0x40
    304e:	e9cd 3700 	strd	r3, r7, [sp]
    3052:	47a0      	blx	r4
    3054:	4605      	mov	r5, r0
    3056:	4628      	mov	r0, r5
    3058:	b005      	add	sp, #20
    305a:	e8bd 83f0 	ldmia.w	sp!, {r4, r5, r6, r7, r8, r9, pc}
    305e:	2225      	movs	r2, #37	; 0x25
    3060:	e7e4      	b.n	302c <rtl_crypto_hmac_sha2_init+0x208>
    3062:	2c00      	cmp	r4, #0
    3064:	f000 8086 	beq.w	3174 <rtl_crypto_hmac_sha2_init+0x350>
    3068:	f649 63d8 	movw	r3, #40664	; 0x9ed8
    306c:	2245      	movs	r2, #69	; 0x45
    306e:	f2cc 1305 	movt	r3, #49413	; 0xc105
    3072:	6263      	str	r3, [r4, #36]	; 0x24
    3074:	f649 535d 	movw	r3, #40285	; 0x9d5d
    3078:	f6cc 33bb 	movt	r3, #52155	; 0xcbbb
    307c:	6223      	str	r3, [r4, #32]
    307e:	f24d 5307 	movw	r3, #54535	; 0xd507
    3082:	f2c3 637c 	movt	r3, #13948	; 0x367c
    3086:	62e3      	str	r3, [r4, #44]	; 0x2c
    3088:	f642 132a 	movw	r3, #10538	; 0x292a
    308c:	f2c6 239a 	movt	r3, #25242	; 0x629a
    3090:	62a3      	str	r3, [r4, #40]	; 0x28
    3092:	f64d 5317 	movw	r3, #56599	; 0xdd17
    3096:	f2c3 0370 	movt	r3, #12400	; 0x3070
    309a:	6363      	str	r3, [r4, #52]	; 0x34
    309c:	f44f 73ad 	mov.w	r3, #346	; 0x15a
    30a0:	f2c9 1359 	movt	r3, #37209	; 0x9159
    30a4:	6323      	str	r3, [r4, #48]	; 0x30
    30a6:	f645 1339 	movw	r3, #22841	; 0x5939
    30aa:	f2cf 730e 	movt	r3, #63246	; 0xf70e
    30ae:	63e3      	str	r3, [r4, #60]	; 0x3c
    30b0:	f64e 43d8 	movw	r3, #60632	; 0xecd8
    30b4:	f2c1 532f 	movt	r3, #5423	; 0x152f
    30b8:	63a3      	str	r3, [r4, #56]	; 0x38
    30ba:	f640 3331 	movw	r3, #2865	; 0xb31
    30be:	f6cf 73c0 	movt	r3, #65472	; 0xffc0
    30c2:	6463      	str	r3, [r4, #68]	; 0x44
    30c4:	f242 6367 	movw	r3, #9831	; 0x2667
    30c8:	f2c6 7333 	movt	r3, #26419	; 0x6733
    30cc:	6423      	str	r3, [r4, #64]	; 0x40
    30ce:	f241 5311 	movw	r3, #5393	; 0x1511
    30d2:	f6c6 0358 	movt	r3, #26712	; 0x6858
    30d6:	64e3      	str	r3, [r4, #76]	; 0x4c
    30d8:	f644 2387 	movw	r3, #19079	; 0x4a87
    30dc:	f6c8 63b4 	movt	r3, #36532	; 0x8eb4
    30e0:	64a3      	str	r3, [r4, #72]	; 0x48
    30e2:	f648 73a7 	movw	r3, #36775	; 0x8fa7
    30e6:	f2c6 43f9 	movt	r3, #25849	; 0x64f9
    30ea:	6563      	str	r3, [r4, #84]	; 0x54
    30ec:	f642 630d 	movw	r3, #11789	; 0x2e0d
    30f0:	f6cd 330c 	movt	r3, #56076	; 0xdb0c
    30f4:	6523      	str	r3, [r4, #80]	; 0x50
    30f6:	f644 73a4 	movw	r3, #20388	; 0x4fa4
    30fa:	f6cb 63fa 	movt	r3, #48890	; 0xbefa
    30fe:	65e3      	str	r3, [r4, #92]	; 0x5c
    3100:	f644 031d 	movw	r3, #18461	; 0x481d
    3104:	f2c4 73b5 	movt	r3, #18357	; 0x47b5
    3108:	65a3      	str	r3, [r4, #88]	; 0x58
    310a:	e704      	b.n	2f16 <rtl_crypto_hmac_sha2_init+0xf2>
    310c:	b3a4      	cbz	r4, 3178 <rtl_crypto_hmac_sha2_init+0x354>
    310e:	f649 63d8 	movw	r3, #40664	; 0x9ed8
    3112:	2215      	movs	r2, #21
    3114:	f2cc 1305 	movt	r3, #49413	; 0xc105
    3118:	6223      	str	r3, [r4, #32]
    311a:	f24d 5307 	movw	r3, #54535	; 0xd507
    311e:	f2c3 637c 	movt	r3, #13948	; 0x367c
    3122:	6263      	str	r3, [r4, #36]	; 0x24
    3124:	f64d 5317 	movw	r3, #56599	; 0xdd17
    3128:	f2c3 0370 	movt	r3, #12400	; 0x3070
    312c:	62a3      	str	r3, [r4, #40]	; 0x28
    312e:	f645 1339 	movw	r3, #22841	; 0x5939
    3132:	f2cf 730e 	movt	r3, #63246	; 0xf70e
    3136:	62e3      	str	r3, [r4, #44]	; 0x2c
    3138:	f640 3331 	movw	r3, #2865	; 0xb31
    313c:	f6cf 73c0 	movt	r3, #65472	; 0xffc0
    3140:	6323      	str	r3, [r4, #48]	; 0x30
    3142:	f241 5311 	movw	r3, #5393	; 0x1511
    3146:	f6c6 0358 	movt	r3, #26712	; 0x6858
    314a:	6363      	str	r3, [r4, #52]	; 0x34
    314c:	f648 73a7 	movw	r3, #36775	; 0x8fa7
    3150:	f2c6 43f9 	movt	r3, #25849	; 0x64f9
    3154:	63a3      	str	r3, [r4, #56]	; 0x38
    3156:	f644 73a4 	movw	r3, #20388	; 0x4fa4
    315a:	f6cb 63fa 	movt	r3, #48890	; 0xbefa
    315e:	63e3      	str	r3, [r4, #60]	; 0x3c
    3160:	e6d9      	b.n	2f16 <rtl_crypto_hmac_sha2_init+0xf2>
    3162:	f646 6088 	movw	r0, #28296	; 0x6e88
    3166:	f240 310a 	movw	r1, #778	; 0x30a
    316a:	f2c0 0004 	movt	r0, #4
    316e:	f005 ff5d 	bl	902c <io_assert_failed>
    3172:	e68a      	b.n	2e8a <rtl_crypto_hmac_sha2_init+0x66>
    3174:	2245      	movs	r2, #69	; 0x45
    3176:	e759      	b.n	302c <rtl_crypto_hmac_sha2_init+0x208>
    3178:	2215      	movs	r2, #21
    317a:	e757      	b.n	302c <rtl_crypto_hmac_sha2_init+0x208>
    317c:	f06f 0505 	mvn.w	r5, #5
    3180:	e74f      	b.n	3022 <rtl_crypto_hmac_sha2_init+0x1fe>
    3182:	f06f 0503 	mvn.w	r5, #3
    3186:	e74c      	b.n	3022 <rtl_crypto_hmac_sha2_init+0x1fe>

00003188 <rtl_crypto_hmac_sha2_process>:
    3188:	f244 4c40 	movw	ip, #17472	; 0x4440
    318c:	f2c2 0c00 	movt	ip, #8192	; 0x2000
    3190:	f8dc 300c 	ldr.w	r3, [ip, #12]
    3194:	f013 0f04 	tst.w	r3, #4
    3198:	d017      	beq.n	31ca <rtl_crypto_hmac_sha2_process+0x42>
    319a:	f003 0303 	and.w	r3, r3, #3
    319e:	2b01      	cmp	r3, #1
    31a0:	d113      	bne.n	31ca <rtl_crypto_hmac_sha2_process+0x42>
    31a2:	2300      	movs	r3, #0
    31a4:	b510      	push	{r4, lr}
    31a6:	4614      	mov	r4, r2
    31a8:	b086      	sub	sp, #24
    31aa:	460a      	mov	r2, r1
    31ac:	4601      	mov	r1, r0
    31ae:	4660      	mov	r0, ip
    31b0:	e9cd 3402 	strd	r3, r4, [sp, #8]
    31b4:	f640 64e1 	movw	r4, #3809	; 0xee1
    31b8:	f2c0 0400 	movt	r4, #0
    31bc:	e9cd 3304 	strd	r3, r3, [sp, #16]
    31c0:	e9cd 3300 	strd	r3, r3, [sp]
    31c4:	47a0      	blx	r4
    31c6:	b006      	add	sp, #24
    31c8:	bd10      	pop	{r4, pc}
    31ca:	f06f 0009 	mvn.w	r0, #9
    31ce:	4770      	bx	lr

000031d0 <rtl_crypto_hmac_sha2_update_rom>:
    31d0:	b5f8      	push	{r3, r4, r5, r6, r7, lr}
    31d2:	f244 4540 	movw	r5, #17472	; 0x4440
    31d6:	2301      	movs	r3, #1
    31d8:	4606      	mov	r6, r0
    31da:	4610      	mov	r0, r2
    31dc:	f2c2 0500 	movt	r5, #8192	; 0x2000
    31e0:	f882 3062 	strb.w	r3, [r2, #98]	; 0x62
    31e4:	4614      	mov	r4, r2
    31e6:	460f      	mov	r7, r1
    31e8:	f7ff f8cc 	bl	2384 <hash_restore>
    31ec:	782b      	ldrb	r3, [r5, #0]
    31ee:	2b01      	cmp	r3, #1
    31f0:	d11d      	bne.n	322e <rtl_crypto_hmac_sha2_update_rom+0x5e>
    31f2:	b336      	cbz	r6, 3242 <rtl_crypto_hmac_sha2_update_rom+0x72>
    31f4:	68eb      	ldr	r3, [r5, #12]
    31f6:	075a      	lsls	r2, r3, #29
    31f8:	d52c      	bpl.n	3254 <rtl_crypto_hmac_sha2_update_rom+0x84>
    31fa:	f003 0303 	and.w	r3, r3, #3
    31fe:	2b01      	cmp	r3, #1
    3200:	d128      	bne.n	3254 <rtl_crypto_hmac_sha2_update_rom+0x84>
    3202:	f241 7239 	movw	r2, #5945	; 0x1739
    3206:	4621      	mov	r1, r4
    3208:	f104 0020 	add.w	r0, r4, #32
    320c:	f885 3034 	strb.w	r3, [r5, #52]	; 0x34
    3210:	f2c0 0200 	movt	r2, #0
    3214:	63ae      	str	r6, [r5, #56]	; 0x38
    3216:	63ef      	str	r7, [r5, #60]	; 0x3c
    3218:	4790      	blx	r2
    321a:	f242 22ed 	movw	r2, #8941	; 0x22ed
    321e:	4603      	mov	r3, r0
    3220:	4620      	mov	r0, r4
    3222:	f2c0 0200 	movt	r2, #0
    3226:	461c      	mov	r4, r3
    3228:	4790      	blx	r2
    322a:	4620      	mov	r0, r4
    322c:	bdf8      	pop	{r3, r4, r5, r6, r7, pc}
    322e:	f646 60a4 	movw	r0, #28324	; 0x6ea4
    3232:	f240 31a9 	movw	r1, #937	; 0x3a9
    3236:	f2c0 0004 	movt	r0, #4
    323a:	f005 fef7 	bl	902c <io_assert_failed>
    323e:	2e00      	cmp	r6, #0
    3240:	d1d8      	bne.n	31f4 <rtl_crypto_hmac_sha2_update_rom+0x24>
    3242:	f646 60a4 	movw	r0, #28324	; 0x6ea4
    3246:	f240 31aa 	movw	r1, #938	; 0x3aa
    324a:	f2c0 0004 	movt	r0, #4
    324e:	f005 feed 	bl	902c <io_assert_failed>
    3252:	e7cf      	b.n	31f4 <rtl_crypto_hmac_sha2_update_rom+0x24>
    3254:	f06f 0409 	mvn.w	r4, #9
    3258:	e7e7      	b.n	322a <rtl_crypto_hmac_sha2_update_rom+0x5a>
    325a:	bf00      	nop

0000325c <rtl_crypto_hmac_sha2_update>:
    325c:	f5b1 3f00 	cmp.w	r1, #131072	; 0x20000
    3260:	e92d 43f8 	stmdb	sp!, {r3, r4, r5, r6, r7, r8, r9, lr}
    3264:	4688      	mov	r8, r1
    3266:	4604      	mov	r4, r0
    3268:	4615      	mov	r5, r2
    326a:	d923      	bls.n	32b4 <rtl_crypto_hmac_sha2_update+0x58>
    326c:	f64f 73ff 	movw	r3, #65535	; 0xffff
    3270:	f243 16d1 	movw	r6, #12753	; 0x31d1
    3274:	f6cf 73fd 	movt	r3, #65533	; 0xfffd
    3278:	f2c0 0600 	movt	r6, #0
    327c:	440b      	add	r3, r1
    327e:	ea4f 4953 	mov.w	r9, r3, lsr #17
    3282:	f109 0701 	add.w	r7, r9, #1
    3286:	eb00 4747 	add.w	r7, r0, r7, lsl #17
    328a:	4620      	mov	r0, r4
    328c:	f504 3400 	add.w	r4, r4, #131072	; 0x20000
    3290:	462a      	mov	r2, r5
    3292:	f44f 3100 	mov.w	r1, #131072	; 0x20000
    3296:	47b0      	blx	r6
    3298:	42bc      	cmp	r4, r7
    329a:	d1f6      	bne.n	328a <rtl_crypto_hmac_sha2_update+0x2e>
    329c:	ebc9 33c9 	rsb	r3, r9, r9, lsl #15
    32a0:	f5a8 3800 	sub.w	r8, r8, #131072	; 0x20000
    32a4:	462a      	mov	r2, r5
    32a6:	4638      	mov	r0, r7
    32a8:	eb08 4843 	add.w	r8, r8, r3, lsl #17
    32ac:	4641      	mov	r1, r8
    32ae:	47b0      	blx	r6
    32b0:	e8bd 83f8 	ldmia.w	sp!, {r3, r4, r5, r6, r7, r8, r9, pc}
    32b4:	4607      	mov	r7, r0
    32b6:	f243 16d1 	movw	r6, #12753	; 0x31d1
    32ba:	462a      	mov	r2, r5
    32bc:	4641      	mov	r1, r8
    32be:	f2c0 0600 	movt	r6, #0
    32c2:	4638      	mov	r0, r7
    32c4:	47b0      	blx	r6
    32c6:	e8bd 83f8 	ldmia.w	sp!, {r3, r4, r5, r6, r7, r8, r9, pc}
    32ca:	bf00      	nop

000032cc <rtl_crypto_hmac_sha2_final>:
    32cc:	b5f0      	push	{r4, r5, r6, r7, lr}
    32ce:	f244 4440 	movw	r4, #17472	; 0x4440
    32d2:	b087      	sub	sp, #28
    32d4:	4607      	mov	r7, r0
    32d6:	4608      	mov	r0, r1
    32d8:	f2c2 0400 	movt	r4, #8192	; 0x2000
    32dc:	460e      	mov	r6, r1
    32de:	f7ff f851 	bl	2384 <hash_restore>
    32e2:	7823      	ldrb	r3, [r4, #0]
    32e4:	2b01      	cmp	r3, #1
    32e6:	d007      	beq.n	32f8 <rtl_crypto_hmac_sha2_final+0x2c>
    32e8:	f646 60c4 	movw	r0, #28356	; 0x6ec4
    32ec:	f240 31ce 	movw	r1, #974	; 0x3ce
    32f0:	f2c0 0004 	movt	r0, #4
    32f4:	f005 fe9a 	bl	902c <io_assert_failed>
    32f8:	68e5      	ldr	r5, [r4, #12]
    32fa:	076b      	lsls	r3, r5, #29
    32fc:	d51e      	bpl.n	333c <rtl_crypto_hmac_sha2_final+0x70>
    32fe:	f005 0503 	and.w	r5, r5, #3
    3302:	2d01      	cmp	r5, #1
    3304:	d11a      	bne.n	333c <rtl_crypto_hmac_sha2_final+0x70>
    3306:	b1ff      	cbz	r7, 3348 <rtl_crypto_hmac_sha2_final+0x7c>
    3308:	f894 3034 	ldrb.w	r3, [r4, #52]	; 0x34
    330c:	b1cb      	cbz	r3, 3342 <rtl_crypto_hmac_sha2_final+0x76>
    330e:	f244 51e8 	movw	r1, #17896	; 0x45e8
    3312:	f894 2040 	ldrb.w	r2, [r4, #64]	; 0x40
    3316:	2300      	movs	r3, #0
    3318:	f640 64e1 	movw	r4, #3809	; 0xee1
    331c:	f2c2 0100 	movt	r1, #8192	; 0x2000
    3320:	6775      	str	r5, [r6, #116]	; 0x74
    3322:	f2c0 0400 	movt	r4, #0
    3326:	9605      	str	r6, [sp, #20]
    3328:	f5a1 70d4 	sub.w	r0, r1, #424	; 0x1a8
    332c:	9300      	str	r3, [sp, #0]
    332e:	e9cd 7303 	strd	r7, r3, [sp, #12]
    3332:	e9cd 3301 	strd	r3, r3, [sp, #4]
    3336:	47a0      	blx	r4
    3338:	b007      	add	sp, #28
    333a:	bdf0      	pop	{r4, r5, r6, r7, pc}
    333c:	f06f 0009 	mvn.w	r0, #9
    3340:	e7fa      	b.n	3338 <rtl_crypto_hmac_sha2_final+0x6c>
    3342:	f06f 000c 	mvn.w	r0, #12
    3346:	e7f7      	b.n	3338 <rtl_crypto_hmac_sha2_final+0x6c>
    3348:	f06f 0003 	mvn.w	r0, #3
    334c:	e7f4      	b.n	3338 <rtl_crypto_hmac_sha2_final+0x6c>
    334e:	bf00      	nop

00003350 <rtl_crypto_hmac_sha2>:
    3350:	b570      	push	{r4, r5, r6, lr}
    3352:	461d      	mov	r5, r3
    3354:	460c      	mov	r4, r1
    3356:	4616      	mov	r6, r2
    3358:	2300      	movs	r3, #0
    335a:	4629      	mov	r1, r5
    335c:	4625      	mov	r5, r4
    335e:	f642 6425 	movw	r4, #11813	; 0x2e25
    3362:	9a04      	ldr	r2, [sp, #16]
    3364:	f2c0 0400 	movt	r4, #0
    3368:	47a0      	blx	r4
    336a:	b100      	cbz	r0, 336e <rtl_crypto_hmac_sha2+0x1e>
    336c:	bd70      	pop	{r4, r5, r6, pc}
    336e:	f243 1389 	movw	r3, #12681	; 0x3189
    3372:	9a05      	ldr	r2, [sp, #20]
    3374:	4631      	mov	r1, r6
    3376:	4628      	mov	r0, r5
    3378:	f2c0 0300 	movt	r3, #0
    337c:	4798      	blx	r3
    337e:	bd70      	pop	{r4, r5, r6, pc}

00003380 <md_hash_save>:
    3380:	2800      	cmp	r0, #0
    3382:	d047      	beq.n	3414 <md_hash_save+0x94>
    3384:	f244 4c40 	movw	ip, #17472	; 0x4440
    3388:	f100 0277 	add.w	r2, r0, #119	; 0x77
    338c:	2300      	movs	r3, #0
    338e:	f2c2 0c00 	movt	ip, #8192	; 0x2000
    3392:	f89c 1000 	ldrb.w	r1, [ip]
    3396:	7001      	strb	r1, [r0, #0]
    3398:	f89c 1001 	ldrb.w	r1, [ip, #1]
    339c:	7041      	strb	r1, [r0, #1]
    339e:	f8dc 1028 	ldr.w	r1, [ip, #40]	; 0x28
    33a2:	6641      	str	r1, [r0, #100]	; 0x64
    33a4:	f89c 1040 	ldrb.w	r1, [ip, #64]	; 0x40
    33a8:	f880 106f 	strb.w	r1, [r0, #111]	; 0x6f
    33ac:	f8bc 102c 	ldrh.w	r1, [ip, #44]	; 0x2c
    33b0:	f8a0 106c 	strh.w	r1, [r0, #108]	; 0x6c
    33b4:	f8dc 1030 	ldr.w	r1, [ip, #48]	; 0x30
    33b8:	6701      	str	r1, [r0, #112]	; 0x70
    33ba:	f89c 1034 	ldrb.w	r1, [ip, #52]	; 0x34
    33be:	f880 106e 	strb.w	r1, [r0, #110]	; 0x6e
    33c2:	f89c 1011 	ldrb.w	r1, [ip, #17]
    33c6:	7081      	strb	r1, [r0, #2]
    33c8:	f89c 1012 	ldrb.w	r1, [ip, #18]
    33cc:	70c1      	strb	r1, [r0, #3]
    33ce:	f89c 1013 	ldrb.w	r1, [ip, #19]
    33d2:	f880 1060 	strb.w	r1, [r0, #96]	; 0x60
    33d6:	f89c 1014 	ldrb.w	r1, [ip, #20]
    33da:	f880 1061 	strb.w	r1, [r0, #97]	; 0x61
    33de:	f8dc 100c 	ldr.w	r1, [ip, #12]
    33e2:	6681      	str	r1, [r0, #104]	; 0x68
    33e4:	f89c 1010 	ldrb.w	r1, [ip, #16]
    33e8:	f880 10f8 	strb.w	r1, [r0, #248]	; 0xf8
    33ec:	eb0c 0103 	add.w	r1, ip, r3
    33f0:	3301      	adds	r3, #1
    33f2:	f891 11a8 	ldrb.w	r1, [r1, #424]	; 0x1a8
    33f6:	2b40      	cmp	r3, #64	; 0x40
    33f8:	f802 1f01 	strb.w	r1, [r2, #1]!
    33fc:	d1f6      	bne.n	33ec <md_hash_save+0x6c>
    33fe:	f641 431d 	movw	r3, #7197	; 0x1c1d
    3402:	f244 41a4 	movw	r1, #17572	; 0x44a4
    3406:	2280      	movs	r2, #128	; 0x80
    3408:	30f9      	adds	r0, #249	; 0xf9
    340a:	f2c2 0100 	movt	r1, #8192	; 0x2000
    340e:	f2c0 0301 	movt	r3, #1
    3412:	4718      	bx	r3
    3414:	4770      	bx	lr
    3416:	bf00      	nop

00003418 <md_hash_restore>:
    3418:	2800      	cmp	r0, #0
    341a:	d050      	beq.n	34be <md_hash_restore+0xa6>
    341c:	f64f 7189 	movw	r1, #65417	; 0xff89
    3420:	b570      	push	{r4, r5, r6, lr}
    3422:	f244 4e40 	movw	lr, #17472	; 0x4440
    3426:	7803      	ldrb	r3, [r0, #0]
    3428:	7842      	ldrb	r2, [r0, #1]
    342a:	f6cf 71ff 	movt	r1, #65535	; 0xffff
    342e:	f2c2 0e00 	movt	lr, #8192	; 0x2000
    3432:	6f04      	ldr	r4, [r0, #112]	; 0x70
    3434:	f890 506f 	ldrb.w	r5, [r0, #111]	; 0x6f
    3438:	1a09      	subs	r1, r1, r0
    343a:	f8b0 c06c 	ldrh.w	ip, [r0, #108]	; 0x6c
    343e:	6e46      	ldr	r6, [r0, #100]	; 0x64
    3440:	f88e 3000 	strb.w	r3, [lr]
    3444:	f890 306e 	ldrb.w	r3, [r0, #110]	; 0x6e
    3448:	f8ce 4030 	str.w	r4, [lr, #48]	; 0x30
    344c:	f100 04b7 	add.w	r4, r0, #183	; 0xb7
    3450:	f88e 3034 	strb.w	r3, [lr, #52]	; 0x34
    3454:	f8ce 6028 	str.w	r6, [lr, #40]	; 0x28
    3458:	f890 3060 	ldrb.w	r3, [r0, #96]	; 0x60
    345c:	f88e 5040 	strb.w	r5, [lr, #64]	; 0x40
    3460:	f8ae c02c 	strh.w	ip, [lr, #44]	; 0x2c
    3464:	f88e 2001 	strb.w	r2, [lr, #1]
    3468:	7882      	ldrb	r2, [r0, #2]
    346a:	f88e 2011 	strb.w	r2, [lr, #17]
    346e:	78c2      	ldrb	r2, [r0, #3]
    3470:	f88e 3013 	strb.w	r3, [lr, #19]
    3474:	f890 3061 	ldrb.w	r3, [r0, #97]	; 0x61
    3478:	f88e 2012 	strb.w	r2, [lr, #18]
    347c:	f88e 3014 	strb.w	r3, [lr, #20]
    3480:	f890 30f8 	ldrb.w	r3, [r0, #248]	; 0xf8
    3484:	6e82      	ldr	r2, [r0, #104]	; 0x68
    3486:	f88e 3010 	strb.w	r3, [lr, #16]
    348a:	f100 0377 	add.w	r3, r0, #119	; 0x77
    348e:	f8ce 200c 	str.w	r2, [lr, #12]
    3492:	18ca      	adds	r2, r1, r3
    3494:	f813 cf01 	ldrb.w	ip, [r3, #1]!
    3498:	4472      	add	r2, lr
    349a:	42a3      	cmp	r3, r4
    349c:	f882 c1a8 	strb.w	ip, [r2, #424]	; 0x1a8
    34a0:	d1f7      	bne.n	3492 <md_hash_restore+0x7a>
    34a2:	f641 431d 	movw	r3, #7197	; 0x1c1d
    34a6:	f100 01f9 	add.w	r1, r0, #249	; 0xf9
    34aa:	f244 40a4 	movw	r0, #17572	; 0x44a4
    34ae:	2280      	movs	r2, #128	; 0x80
    34b0:	f2c0 0301 	movt	r3, #1
    34b4:	f2c2 0000 	movt	r0, #8192	; 0x2000
    34b8:	e8bd 4070 	ldmia.w	sp!, {r4, r5, r6, lr}
    34bc:	4718      	bx	r3
    34be:	4770      	bx	lr

000034c0 <rtl_crypto_md5_init>:
    34c0:	b570      	push	{r4, r5, r6, lr}
    34c2:	f244 4540 	movw	r5, #17472	; 0x4440
    34c6:	b084      	sub	sp, #16
    34c8:	4604      	mov	r4, r0
    34ca:	f2c2 0500 	movt	r5, #8192	; 0x2000
    34ce:	782b      	ldrb	r3, [r5, #0]
    34d0:	2b01      	cmp	r3, #1
    34d2:	d006      	beq.n	34e2 <rtl_crypto_md5_init+0x22>
    34d4:	f646 00a0 	movw	r0, #26784	; 0x68a0
    34d8:	2172      	movs	r1, #114	; 0x72
    34da:	f2c0 0004 	movt	r0, #4
    34de:	f005 fda5 	bl	902c <io_assert_failed>
    34e2:	2300      	movs	r3, #0
    34e4:	f244 4040 	movw	r0, #17472	; 0x4440
    34e8:	2202      	movs	r2, #2
    34ea:	f04f 31ff 	mov.w	r1, #4294967295	; 0xffffffff
    34ee:	9300      	str	r3, [sp, #0]
    34f0:	f2c2 0000 	movt	r0, #8192	; 0x2000
    34f4:	e9cd 3301 	strd	r3, r3, [sp, #4]
    34f8:	f885 3034 	strb.w	r3, [r5, #52]	; 0x34
    34fc:	f885 3040 	strb.w	r3, [r5, #64]	; 0x40
    3500:	f640 35dd 	movw	r5, #3037	; 0xbdd
    3504:	f2c0 0500 	movt	r5, #0
    3508:	47a8      	blx	r5
    350a:	4606      	mov	r6, r0
    350c:	b1cc      	cbz	r4, 3542 <rtl_crypto_md5_init+0x82>
    350e:	f242 3501 	movw	r5, #8961	; 0x2301
    3512:	f64a 3189 	movw	r1, #43913	; 0xab89
    3516:	f64d 42fe 	movw	r2, #56574	; 0xdcfe
    351a:	f245 4376 	movw	r3, #21622	; 0x5476
    351e:	f6ce 71cd 	movt	r1, #61389	; 0xefcd
    3522:	f2c6 7545 	movt	r5, #26437	; 0x6745
    3526:	f2c1 0332 	movt	r3, #4146	; 0x1032
    352a:	f6c9 02ba 	movt	r2, #39098	; 0x98ba
    352e:	4620      	mov	r0, r4
    3530:	e9c4 230a 	strd	r2, r3, [r4, #40]	; 0x28
    3534:	e9c4 5108 	strd	r5, r1, [r4, #32]
    3538:	f7ff ff22 	bl	3380 <md_hash_save>
    353c:	2301      	movs	r3, #1
    353e:	f884 3063 	strb.w	r3, [r4, #99]	; 0x63
    3542:	4630      	mov	r0, r6
    3544:	b004      	add	sp, #16
    3546:	bd70      	pop	{r4, r5, r6, pc}

00003548 <rtl_crypto_md5_process>:
    3548:	b570      	push	{r4, r5, r6, lr}
    354a:	460d      	mov	r5, r1
    354c:	b086      	sub	sp, #24
    354e:	4604      	mov	r4, r0
    3550:	4616      	mov	r6, r2
    3552:	b1c0      	cbz	r0, 3586 <rtl_crypto_md5_process+0x3e>
    3554:	f244 4040 	movw	r0, #17472	; 0x4440
    3558:	f2c2 0000 	movt	r0, #8192	; 0x2000
    355c:	68c3      	ldr	r3, [r0, #12]
    355e:	f003 0303 	and.w	r3, r3, #3
    3562:	2b02      	cmp	r3, #2
    3564:	d11c      	bne.n	35a0 <rtl_crypto_md5_process+0x58>
    3566:	2300      	movs	r3, #0
    3568:	4621      	mov	r1, r4
    356a:	f640 64e1 	movw	r4, #3809	; 0xee1
    356e:	462a      	mov	r2, r5
    3570:	f2c0 0400 	movt	r4, #0
    3574:	e9cd 3304 	strd	r3, r3, [sp, #16]
    3578:	e9cd 3602 	strd	r3, r6, [sp, #8]
    357c:	e9cd 3300 	strd	r3, r3, [sp]
    3580:	47a0      	blx	r4
    3582:	b006      	add	sp, #24
    3584:	bd70      	pop	{r4, r5, r6, pc}
    3586:	b971      	cbnz	r1, 35a6 <rtl_crypto_md5_process+0x5e>
    3588:	f644 018c 	movw	r1, #18572	; 0x488c
    358c:	f641 431d 	movw	r3, #7197	; 0x1c1d
    3590:	2210      	movs	r2, #16
    3592:	4630      	mov	r0, r6
    3594:	f2c0 0104 	movt	r1, #4
    3598:	f2c0 0301 	movt	r3, #1
    359c:	4798      	blx	r3
    359e:	e7d9      	b.n	3554 <rtl_crypto_md5_process+0xc>
    35a0:	f06f 0009 	mvn.w	r0, #9
    35a4:	e7ed      	b.n	3582 <rtl_crypto_md5_process+0x3a>
    35a6:	f06f 0003 	mvn.w	r0, #3
    35aa:	e7ea      	b.n	3582 <rtl_crypto_md5_process+0x3a>

000035ac <rtl_crypto_md5_update_rom>:
    35ac:	b5f8      	push	{r3, r4, r5, r6, r7, lr}
    35ae:	f244 4540 	movw	r5, #17472	; 0x4440
    35b2:	2301      	movs	r3, #1
    35b4:	4606      	mov	r6, r0
    35b6:	4610      	mov	r0, r2
    35b8:	f2c2 0500 	movt	r5, #8192	; 0x2000
    35bc:	f882 3062 	strb.w	r3, [r2, #98]	; 0x62
    35c0:	4614      	mov	r4, r2
    35c2:	460f      	mov	r7, r1
    35c4:	f7ff ff28 	bl	3418 <md_hash_restore>
    35c8:	782b      	ldrb	r3, [r5, #0]
    35ca:	2b01      	cmp	r3, #1
    35cc:	d119      	bne.n	3602 <rtl_crypto_md5_update_rom+0x56>
    35ce:	b30e      	cbz	r6, 3614 <rtl_crypto_md5_update_rom+0x68>
    35d0:	68eb      	ldr	r3, [r5, #12]
    35d2:	f003 0303 	and.w	r3, r3, #3
    35d6:	2b02      	cmp	r3, #2
    35d8:	d124      	bne.n	3624 <rtl_crypto_md5_update_rom+0x78>
    35da:	f241 7339 	movw	r3, #5945	; 0x1739
    35de:	2201      	movs	r2, #1
    35e0:	4621      	mov	r1, r4
    35e2:	f104 0020 	add.w	r0, r4, #32
    35e6:	f2c0 0300 	movt	r3, #0
    35ea:	f885 2034 	strb.w	r2, [r5, #52]	; 0x34
    35ee:	e9c5 670e 	strd	r6, r7, [r5, #56]	; 0x38
    35f2:	4798      	blx	r3
    35f4:	4603      	mov	r3, r0
    35f6:	4620      	mov	r0, r4
    35f8:	461c      	mov	r4, r3
    35fa:	f7ff fec1 	bl	3380 <md_hash_save>
    35fe:	4620      	mov	r0, r4
    3600:	bdf8      	pop	{r3, r4, r5, r6, r7, pc}
    3602:	f646 00b4 	movw	r0, #26804	; 0x68b4
    3606:	21ce      	movs	r1, #206	; 0xce
    3608:	f2c0 0004 	movt	r0, #4
    360c:	f005 fd0e 	bl	902c <io_assert_failed>
    3610:	2e00      	cmp	r6, #0
    3612:	d1dd      	bne.n	35d0 <rtl_crypto_md5_update_rom+0x24>
    3614:	f646 00b4 	movw	r0, #26804	; 0x68b4
    3618:	21cf      	movs	r1, #207	; 0xcf
    361a:	f2c0 0004 	movt	r0, #4
    361e:	f005 fd05 	bl	902c <io_assert_failed>
    3622:	e7d5      	b.n	35d0 <rtl_crypto_md5_update_rom+0x24>
    3624:	f06f 0409 	mvn.w	r4, #9
    3628:	e7e9      	b.n	35fe <rtl_crypto_md5_update_rom+0x52>
    362a:	bf00      	nop

0000362c <rtl_crypto_md5_update>:
    362c:	f5b1 3f00 	cmp.w	r1, #131072	; 0x20000
    3630:	e92d 43f8 	stmdb	sp!, {r3, r4, r5, r6, r7, r8, r9, lr}
    3634:	4688      	mov	r8, r1
    3636:	4604      	mov	r4, r0
    3638:	4615      	mov	r5, r2
    363a:	d923      	bls.n	3684 <rtl_crypto_md5_update+0x58>
    363c:	f64f 73ff 	movw	r3, #65535	; 0xffff
    3640:	f243 56ad 	movw	r6, #13741	; 0x35ad
    3644:	f6cf 73fd 	movt	r3, #65533	; 0xfffd
    3648:	f2c0 0600 	movt	r6, #0
    364c:	440b      	add	r3, r1
    364e:	ea4f 4953 	mov.w	r9, r3, lsr #17
    3652:	f109 0701 	add.w	r7, r9, #1
    3656:	eb00 4747 	add.w	r7, r0, r7, lsl #17
    365a:	4620      	mov	r0, r4
    365c:	f504 3400 	add.w	r4, r4, #131072	; 0x20000
    3660:	462a      	mov	r2, r5
    3662:	f44f 3100 	mov.w	r1, #131072	; 0x20000
    3666:	47b0      	blx	r6
    3668:	42bc      	cmp	r4, r7
    366a:	d1f6      	bne.n	365a <rtl_crypto_md5_update+0x2e>
    366c:	ebc9 33c9 	rsb	r3, r9, r9, lsl #15
    3670:	f5a8 3800 	sub.w	r8, r8, #131072	; 0x20000
    3674:	462a      	mov	r2, r5
    3676:	4638      	mov	r0, r7
    3678:	eb08 4843 	add.w	r8, r8, r3, lsl #17
    367c:	4641      	mov	r1, r8
    367e:	47b0      	blx	r6
    3680:	e8bd 83f8 	ldmia.w	sp!, {r3, r4, r5, r6, r7, r8, r9, pc}
    3684:	4607      	mov	r7, r0
    3686:	f243 56ad 	movw	r6, #13741	; 0x35ad
    368a:	462a      	mov	r2, r5
    368c:	4641      	mov	r1, r8
    368e:	f2c0 0600 	movt	r6, #0
    3692:	4638      	mov	r0, r7
    3694:	47b0      	blx	r6
    3696:	e8bd 83f8 	ldmia.w	sp!, {r3, r4, r5, r6, r7, r8, r9, pc}
    369a:	bf00      	nop

0000369c <rtl_crypto_md5_final>:
    369c:	b570      	push	{r4, r5, r6, lr}
    369e:	f244 4440 	movw	r4, #17472	; 0x4440
    36a2:	b086      	sub	sp, #24
    36a4:	4606      	mov	r6, r0
    36a6:	4608      	mov	r0, r1
    36a8:	f2c2 0400 	movt	r4, #8192	; 0x2000
    36ac:	460d      	mov	r5, r1
    36ae:	f7ff feb3 	bl	3418 <md_hash_restore>
    36b2:	7823      	ldrb	r3, [r4, #0]
    36b4:	2b01      	cmp	r3, #1
    36b6:	d006      	beq.n	36c6 <rtl_crypto_md5_final+0x2a>
    36b8:	f646 00d0 	movw	r0, #26832	; 0x68d0
    36bc:	21ef      	movs	r1, #239	; 0xef
    36be:	f2c0 0004 	movt	r0, #4
    36c2:	f005 fcb3 	bl	902c <io_assert_failed>
    36c6:	68e3      	ldr	r3, [r4, #12]
    36c8:	f003 0303 	and.w	r3, r3, #3
    36cc:	2b02      	cmp	r3, #2
    36ce:	d11e      	bne.n	370e <rtl_crypto_md5_final+0x72>
    36d0:	b306      	cbz	r6, 3714 <rtl_crypto_md5_final+0x78>
    36d2:	f894 3034 	ldrb.w	r3, [r4, #52]	; 0x34
    36d6:	b1bb      	cbz	r3, 3708 <rtl_crypto_md5_final+0x6c>
    36d8:	2201      	movs	r2, #1
    36da:	f244 51e8 	movw	r1, #17896	; 0x45e8
    36de:	2300      	movs	r3, #0
    36e0:	9603      	str	r6, [sp, #12]
    36e2:	f2c2 0100 	movt	r1, #8192	; 0x2000
    36e6:	676a      	str	r2, [r5, #116]	; 0x74
    36e8:	f894 2040 	ldrb.w	r2, [r4, #64]	; 0x40
    36ec:	f640 64e1 	movw	r4, #3809	; 0xee1
    36f0:	f5a1 70d4 	sub.w	r0, r1, #424	; 0x1a8
    36f4:	9300      	str	r3, [sp, #0]
    36f6:	f2c0 0400 	movt	r4, #0
    36fa:	e9cd 3504 	strd	r3, r5, [sp, #16]
    36fe:	e9cd 3301 	strd	r3, r3, [sp, #4]
    3702:	47a0      	blx	r4
    3704:	b006      	add	sp, #24
    3706:	bd70      	pop	{r4, r5, r6, pc}
    3708:	f06f 000c 	mvn.w	r0, #12
    370c:	e7fa      	b.n	3704 <rtl_crypto_md5_final+0x68>
    370e:	f06f 0009 	mvn.w	r0, #9
    3712:	e7f7      	b.n	3704 <rtl_crypto_md5_final+0x68>
    3714:	f06f 0003 	mvn.w	r0, #3
    3718:	e7f4      	b.n	3704 <rtl_crypto_md5_final+0x68>
    371a:	bf00      	nop

0000371c <rtl_crypto_md5>:
    371c:	f243 43c1 	movw	r3, #13505	; 0x34c1
    3720:	b570      	push	{r4, r5, r6, lr}
    3722:	f2c0 0300 	movt	r3, #0
    3726:	4606      	mov	r6, r0
    3728:	2000      	movs	r0, #0
    372a:	460c      	mov	r4, r1
    372c:	4615      	mov	r5, r2
    372e:	4798      	blx	r3
    3730:	b100      	cbz	r0, 3734 <rtl_crypto_md5+0x18>
    3732:	bd70      	pop	{r4, r5, r6, pc}
    3734:	f243 5349 	movw	r3, #13641	; 0x3549
    3738:	462a      	mov	r2, r5
    373a:	4621      	mov	r1, r4
    373c:	4630      	mov	r0, r6
    373e:	f2c0 0300 	movt	r3, #0
    3742:	4798      	blx	r3
    3744:	bd70      	pop	{r4, r5, r6, pc}
    3746:	bf00      	nop

00003748 <rtl_crypto_hmac_md5_init>:
    3748:	f64d 5355 	movw	r3, #56661	; 0xdd55
    374c:	b5f0      	push	{r4, r5, r6, r7, lr}
    374e:	f2c0 0300 	movt	r3, #0
    3752:	f44f 4500 	mov.w	r5, #32768	; 0x8000
    3756:	e843 f300 	tt	r3, r3
    375a:	f413 0f80 	tst.w	r3, #4194304	; 0x400000
    375e:	f44f 4300 	mov.w	r3, #32768	; 0x8000
    3762:	f2c4 0510 	movt	r5, #16400	; 0x4010
    3766:	b085      	sub	sp, #20
    3768:	f2c5 0310 	movt	r3, #20496	; 0x5010
    376c:	4606      	mov	r6, r0
    376e:	460f      	mov	r7, r1
    3770:	4614      	mov	r4, r2
    3772:	bf18      	it	ne
    3774:	461d      	movne	r5, r3
    3776:	6b6b      	ldr	r3, [r5, #52]	; 0x34
    3778:	2b00      	cmp	r3, #0
    377a:	db03      	blt.n	3784 <rtl_crypto_hmac_md5_init+0x3c>
    377c:	2800      	cmp	r0, #0
    377e:	d04b      	beq.n	3818 <rtl_crypto_hmac_md5_init+0xd0>
    3780:	0783      	lsls	r3, r0, #30
    3782:	d146      	bne.n	3812 <rtl_crypto_hmac_md5_init+0xca>
    3784:	2f40      	cmp	r7, #64	; 0x40
    3786:	d841      	bhi.n	380c <rtl_crypto_hmac_md5_init+0xc4>
    3788:	f244 4540 	movw	r5, #17472	; 0x4440
    378c:	f2c2 0500 	movt	r5, #8192	; 0x2000
    3790:	782b      	ldrb	r3, [r5, #0]
    3792:	2b01      	cmp	r3, #1
    3794:	d007      	beq.n	37a6 <rtl_crypto_hmac_md5_init+0x5e>
    3796:	f646 00e8 	movw	r0, #26856	; 0x68e8
    379a:	f240 1139 	movw	r1, #313	; 0x139
    379e:	f2c0 0004 	movt	r0, #4
    37a2:	f005 fc43 	bl	902c <io_assert_failed>
    37a6:	2300      	movs	r3, #0
    37a8:	9702      	str	r7, [sp, #8]
    37aa:	f244 4040 	movw	r0, #17472	; 0x4440
    37ae:	2206      	movs	r2, #6
    37b0:	f04f 31ff 	mov.w	r1, #4294967295	; 0xffffffff
    37b4:	f2c2 0000 	movt	r0, #8192	; 0x2000
    37b8:	e9cd 3600 	strd	r3, r6, [sp]
    37bc:	f885 3034 	strb.w	r3, [r5, #52]	; 0x34
    37c0:	f885 3040 	strb.w	r3, [r5, #64]	; 0x40
    37c4:	f640 35dd 	movw	r5, #3037	; 0xbdd
    37c8:	f2c0 0500 	movt	r5, #0
    37cc:	47a8      	blx	r5
    37ce:	4606      	mov	r6, r0
    37d0:	b1cc      	cbz	r4, 3806 <rtl_crypto_hmac_md5_init+0xbe>
    37d2:	f242 3501 	movw	r5, #8961	; 0x2301
    37d6:	f64a 3189 	movw	r1, #43913	; 0xab89
    37da:	f64d 42fe 	movw	r2, #56574	; 0xdcfe
    37de:	f245 4376 	movw	r3, #21622	; 0x5476
    37e2:	f6ce 71cd 	movt	r1, #61389	; 0xefcd
    37e6:	f2c6 7545 	movt	r5, #26437	; 0x6745
    37ea:	f2c1 0332 	movt	r3, #4146	; 0x1032
    37ee:	f6c9 02ba 	movt	r2, #39098	; 0x98ba
    37f2:	4620      	mov	r0, r4
    37f4:	e9c4 230a 	strd	r2, r3, [r4, #40]	; 0x28
    37f8:	e9c4 5108 	strd	r5, r1, [r4, #32]
    37fc:	f7ff fdc0 	bl	3380 <md_hash_save>
    3800:	2301      	movs	r3, #1
    3802:	f884 3063 	strb.w	r3, [r4, #99]	; 0x63
    3806:	4630      	mov	r0, r6
    3808:	b005      	add	sp, #20
    380a:	bdf0      	pop	{r4, r5, r6, r7, pc}
    380c:	f06f 0606 	mvn.w	r6, #6
    3810:	e7f9      	b.n	3806 <rtl_crypto_hmac_md5_init+0xbe>
    3812:	f06f 0605 	mvn.w	r6, #5
    3816:	e7f6      	b.n	3806 <rtl_crypto_hmac_md5_init+0xbe>
    3818:	f06f 0603 	mvn.w	r6, #3
    381c:	e7f3      	b.n	3806 <rtl_crypto_hmac_md5_init+0xbe>
    381e:	bf00      	nop

00003820 <rtl_crypto_hmac_md5_process>:
    3820:	f244 4c40 	movw	ip, #17472	; 0x4440
    3824:	f2c2 0c00 	movt	ip, #8192	; 0x2000
    3828:	f8dc 300c 	ldr.w	r3, [ip, #12]
    382c:	f013 0f04 	tst.w	r3, #4
    3830:	d017      	beq.n	3862 <rtl_crypto_hmac_md5_process+0x42>
    3832:	f003 0303 	and.w	r3, r3, #3
    3836:	2b02      	cmp	r3, #2
    3838:	d113      	bne.n	3862 <rtl_crypto_hmac_md5_process+0x42>
    383a:	2300      	movs	r3, #0
    383c:	b510      	push	{r4, lr}
    383e:	4614      	mov	r4, r2
    3840:	b086      	sub	sp, #24
    3842:	460a      	mov	r2, r1
    3844:	4601      	mov	r1, r0
    3846:	4660      	mov	r0, ip
    3848:	e9cd 3402 	strd	r3, r4, [sp, #8]
    384c:	f640 64e1 	movw	r4, #3809	; 0xee1
    3850:	f2c0 0400 	movt	r4, #0
    3854:	e9cd 3304 	strd	r3, r3, [sp, #16]
    3858:	e9cd 3300 	strd	r3, r3, [sp]
    385c:	47a0      	blx	r4
    385e:	b006      	add	sp, #24
    3860:	bd10      	pop	{r4, pc}
    3862:	f06f 0009 	mvn.w	r0, #9
    3866:	4770      	bx	lr

00003868 <rtl_crypto_hmac_md5_update_rom>:
    3868:	e92d 41f0 	stmdb	sp!, {r4, r5, r6, r7, r8, lr}
    386c:	f244 4540 	movw	r5, #17472	; 0x4440
    3870:	4606      	mov	r6, r0
    3872:	460f      	mov	r7, r1
    3874:	4614      	mov	r4, r2
    3876:	f2c2 0500 	movt	r5, #8192	; 0x2000
    387a:	782b      	ldrb	r3, [r5, #0]
    387c:	2b01      	cmp	r3, #1
    387e:	d122      	bne.n	38c6 <rtl_crypto_hmac_md5_update_rom+0x5e>
    3880:	b35e      	cbz	r6, 38da <rtl_crypto_hmac_md5_update_rom+0x72>
    3882:	f04f 0801 	mov.w	r8, #1
    3886:	4620      	mov	r0, r4
    3888:	f884 8062 	strb.w	r8, [r4, #98]	; 0x62
    388c:	f7ff fdc4 	bl	3418 <md_hash_restore>
    3890:	68eb      	ldr	r3, [r5, #12]
    3892:	075a      	lsls	r2, r3, #29
    3894:	d52a      	bpl.n	38ec <rtl_crypto_hmac_md5_update_rom+0x84>
    3896:	f003 0303 	and.w	r3, r3, #3
    389a:	2b02      	cmp	r3, #2
    389c:	d126      	bne.n	38ec <rtl_crypto_hmac_md5_update_rom+0x84>
    389e:	f241 7339 	movw	r3, #5945	; 0x1739
    38a2:	4621      	mov	r1, r4
    38a4:	f104 0020 	add.w	r0, r4, #32
    38a8:	63ae      	str	r6, [r5, #56]	; 0x38
    38aa:	f2c0 0300 	movt	r3, #0
    38ae:	63ef      	str	r7, [r5, #60]	; 0x3c
    38b0:	f885 8034 	strb.w	r8, [r5, #52]	; 0x34
    38b4:	4798      	blx	r3
    38b6:	4603      	mov	r3, r0
    38b8:	4620      	mov	r0, r4
    38ba:	461c      	mov	r4, r3
    38bc:	f7ff fd60 	bl	3380 <md_hash_save>
    38c0:	4620      	mov	r0, r4
    38c2:	e8bd 81f0 	ldmia.w	sp!, {r4, r5, r6, r7, r8, pc}
    38c6:	f646 1004 	movw	r0, #26884	; 0x6904
    38ca:	f240 118f 	movw	r1, #399	; 0x18f
    38ce:	f2c0 0004 	movt	r0, #4
    38d2:	f005 fbab 	bl	902c <io_assert_failed>
    38d6:	2e00      	cmp	r6, #0
    38d8:	d1d3      	bne.n	3882 <rtl_crypto_hmac_md5_update_rom+0x1a>
    38da:	f646 1004 	movw	r0, #26884	; 0x6904
    38de:	f44f 71c8 	mov.w	r1, #400	; 0x190
    38e2:	f2c0 0004 	movt	r0, #4
    38e6:	f005 fba1 	bl	902c <io_assert_failed>
    38ea:	e7ca      	b.n	3882 <rtl_crypto_hmac_md5_update_rom+0x1a>
    38ec:	f06f 0409 	mvn.w	r4, #9
    38f0:	e7e6      	b.n	38c0 <rtl_crypto_hmac_md5_update_rom+0x58>
    38f2:	bf00      	nop

000038f4 <rtl_crypto_hmac_md5_update>:
    38f4:	f5b1 3f00 	cmp.w	r1, #131072	; 0x20000
    38f8:	e92d 43f8 	stmdb	sp!, {r3, r4, r5, r6, r7, r8, r9, lr}
    38fc:	4688      	mov	r8, r1
    38fe:	4604      	mov	r4, r0
    3900:	4615      	mov	r5, r2
    3902:	d923      	bls.n	394c <rtl_crypto_hmac_md5_update+0x58>
    3904:	f64f 73ff 	movw	r3, #65535	; 0xffff
    3908:	f643 0669 	movw	r6, #14441	; 0x3869
    390c:	f6cf 73fd 	movt	r3, #65533	; 0xfffd
    3910:	f2c0 0600 	movt	r6, #0
    3914:	440b      	add	r3, r1
    3916:	ea4f 4953 	mov.w	r9, r3, lsr #17
    391a:	f109 0701 	add.w	r7, r9, #1
    391e:	eb00 4747 	add.w	r7, r0, r7, lsl #17
    3922:	4620      	mov	r0, r4
    3924:	f504 3400 	add.w	r4, r4, #131072	; 0x20000
    3928:	462a      	mov	r2, r5
    392a:	f44f 3100 	mov.w	r1, #131072	; 0x20000
    392e:	47b0      	blx	r6
    3930:	42bc      	cmp	r4, r7
    3932:	d1f6      	bne.n	3922 <rtl_crypto_hmac_md5_update+0x2e>
    3934:	ebc9 33c9 	rsb	r3, r9, r9, lsl #15
    3938:	f5a8 3800 	sub.w	r8, r8, #131072	; 0x20000
    393c:	462a      	mov	r2, r5
    393e:	4638      	mov	r0, r7
    3940:	eb08 4843 	add.w	r8, r8, r3, lsl #17
    3944:	4641      	mov	r1, r8
    3946:	47b0      	blx	r6
    3948:	e8bd 83f8 	ldmia.w	sp!, {r3, r4, r5, r6, r7, r8, r9, pc}
    394c:	4607      	mov	r7, r0
    394e:	f643 0669 	movw	r6, #14441	; 0x3869
    3952:	462a      	mov	r2, r5
    3954:	4641      	mov	r1, r8
    3956:	f2c0 0600 	movt	r6, #0
    395a:	4638      	mov	r0, r7
    395c:	47b0      	blx	r6
    395e:	e8bd 83f8 	ldmia.w	sp!, {r3, r4, r5, r6, r7, r8, r9, pc}
    3962:	bf00      	nop

00003964 <rtl_crypto_hmac_md5_final>:
    3964:	b570      	push	{r4, r5, r6, lr}
    3966:	f244 4440 	movw	r4, #17472	; 0x4440
    396a:	b086      	sub	sp, #24
    396c:	4606      	mov	r6, r0
    396e:	4608      	mov	r0, r1
    3970:	f2c2 0400 	movt	r4, #8192	; 0x2000
    3974:	460d      	mov	r5, r1
    3976:	f7ff fd4f 	bl	3418 <md_hash_restore>
    397a:	7823      	ldrb	r3, [r4, #0]
    397c:	2b01      	cmp	r3, #1
    397e:	d007      	beq.n	3990 <rtl_crypto_hmac_md5_final+0x2c>
    3980:	f646 1024 	movw	r0, #26916	; 0x6924
    3984:	f240 11b7 	movw	r1, #439	; 0x1b7
    3988:	f2c0 0004 	movt	r0, #4
    398c:	f005 fb4e 	bl	902c <io_assert_failed>
    3990:	68e3      	ldr	r3, [r4, #12]
    3992:	075a      	lsls	r2, r3, #29
    3994:	d51f      	bpl.n	39d6 <rtl_crypto_hmac_md5_final+0x72>
    3996:	f003 0303 	and.w	r3, r3, #3
    399a:	2b02      	cmp	r3, #2
    399c:	d11b      	bne.n	39d6 <rtl_crypto_hmac_md5_final+0x72>
    399e:	b306      	cbz	r6, 39e2 <rtl_crypto_hmac_md5_final+0x7e>
    39a0:	f894 3034 	ldrb.w	r3, [r4, #52]	; 0x34
    39a4:	b1d3      	cbz	r3, 39dc <rtl_crypto_hmac_md5_final+0x78>
    39a6:	2201      	movs	r2, #1
    39a8:	f244 51e8 	movw	r1, #17896	; 0x45e8
    39ac:	2300      	movs	r3, #0
    39ae:	9603      	str	r6, [sp, #12]
    39b0:	f2c2 0100 	movt	r1, #8192	; 0x2000
    39b4:	676a      	str	r2, [r5, #116]	; 0x74
    39b6:	f894 2040 	ldrb.w	r2, [r4, #64]	; 0x40
    39ba:	f640 64e1 	movw	r4, #3809	; 0xee1
    39be:	f5a1 70d4 	sub.w	r0, r1, #424	; 0x1a8
    39c2:	9300      	str	r3, [sp, #0]
    39c4:	f2c0 0400 	movt	r4, #0
    39c8:	e9cd 3504 	strd	r3, r5, [sp, #16]
    39cc:	e9cd 3301 	strd	r3, r3, [sp, #4]
    39d0:	47a0      	blx	r4
    39d2:	b006      	add	sp, #24
    39d4:	bd70      	pop	{r4, r5, r6, pc}
    39d6:	f06f 0009 	mvn.w	r0, #9
    39da:	e7fa      	b.n	39d2 <rtl_crypto_hmac_md5_final+0x6e>
    39dc:	f06f 000c 	mvn.w	r0, #12
    39e0:	e7f7      	b.n	39d2 <rtl_crypto_hmac_md5_final+0x6e>
    39e2:	f06f 0003 	mvn.w	r0, #3
    39e6:	e7f4      	b.n	39d2 <rtl_crypto_hmac_md5_final+0x6e>

000039e8 <rtl_crypto_hmac_md5>:
    39e8:	b538      	push	{r3, r4, r5, lr}
    39ea:	4614      	mov	r4, r2
    39ec:	460d      	mov	r5, r1
    39ee:	4619      	mov	r1, r3
    39f0:	f243 7349 	movw	r3, #14153	; 0x3749
    39f4:	4684      	mov	ip, r0
    39f6:	2200      	movs	r2, #0
    39f8:	4620      	mov	r0, r4
    39fa:	f2c0 0300 	movt	r3, #0
    39fe:	4664      	mov	r4, ip
    3a00:	4798      	blx	r3
    3a02:	b100      	cbz	r0, 3a06 <rtl_crypto_hmac_md5+0x1e>
    3a04:	bd38      	pop	{r3, r4, r5, pc}
    3a06:	f643 0321 	movw	r3, #14369	; 0x3821
    3a0a:	9a04      	ldr	r2, [sp, #16]
    3a0c:	4629      	mov	r1, r5
    3a0e:	4620      	mov	r0, r4
    3a10:	f2c0 0300 	movt	r3, #0
    3a14:	4798      	blx	r3
    3a16:	bd38      	pop	{r3, r4, r5, pc}

00003a18 <RSIP_OTF_Load_Key>:
    3a18:	f44f 4180 	mov.w	r1, #16384	; 0x4000
    3a1c:	2314      	movs	r3, #20
    3a1e:	f2c4 1110 	movt	r1, #16656	; 0x4110
    3a22:	e001      	b.n	3a28 <RSIP_OTF_Load_Key+0x10>
    3a24:	3b01      	subs	r3, #1
    3a26:	d002      	beq.n	3a2e <RSIP_OTF_Load_Key+0x16>
    3a28:	680a      	ldr	r2, [r1, #0]
    3a2a:	0792      	lsls	r2, r2, #30
    3a2c:	d5fa      	bpl.n	3a24 <RSIP_OTF_Load_Key+0xc>
    3a2e:	4770      	bx	lr

00003a30 <RSIP_OTF_init>:
    3a30:	f44f 4380 	mov.w	r3, #16384	; 0x4000
    3a34:	0140      	lsls	r0, r0, #5
    3a36:	f2c4 1310 	movt	r3, #16656	; 0x4110
    3a3a:	f000 0060 	and.w	r0, r0, #96	; 0x60
    3a3e:	6158      	str	r0, [r3, #20]
    3a40:	4770      	bx	lr
    3a42:	bf00      	nop

00003a44 <RSIP_IV_Set>:
    3a44:	f44f 4380 	mov.w	r3, #16384	; 0x4000
    3a48:	680a      	ldr	r2, [r1, #0]
    3a4a:	f2c4 1310 	movt	r3, #16656	; 0x4110
    3a4e:	ba12      	rev	r2, r2
    3a50:	eb03 00c0 	add.w	r0, r3, r0, lsl #3
    3a54:	6642      	str	r2, [r0, #100]	; 0x64
    3a56:	684b      	ldr	r3, [r1, #4]
    3a58:	ba1b      	rev	r3, r3
    3a5a:	6603      	str	r3, [r0, #96]	; 0x60
    3a5c:	4770      	bx	lr
    3a5e:	bf00      	nop

00003a60 <RSIP_OTF_Cmd>:
    3a60:	f44f 4380 	mov.w	r3, #16384	; 0x4000
    3a64:	2801      	cmp	r0, #1
    3a66:	f2c4 1310 	movt	r3, #16656	; 0x4110
    3a6a:	695a      	ldr	r2, [r3, #20]
    3a6c:	bf0c      	ite	eq
    3a6e:	f442 7280 	orreq.w	r2, r2, #256	; 0x100
    3a72:	f422 7280 	bicne.w	r2, r2, #256	; 0x100
    3a76:	615a      	str	r2, [r3, #20]
    3a78:	4770      	bx	lr
    3a7a:	bf00      	nop

00003a7c <RSIP_OTF_Enable>:
    3a7c:	b570      	push	{r4, r5, r6, lr}
    3a7e:	4604      	mov	r4, r0
    3a80:	b363      	cbz	r3, 3adc <RSIP_OTF_Enable+0x60>
    3a82:	9b04      	ldr	r3, [sp, #16]
    3a84:	460e      	mov	r6, r1
    3a86:	4615      	mov	r5, r2
    3a88:	2b07      	cmp	r3, #7
    3a8a:	d83e      	bhi.n	3b0a <RSIP_OTF_Enable+0x8e>
    3a8c:	9b05      	ldr	r3, [sp, #20]
    3a8e:	3b01      	subs	r3, #1
    3a90:	2b01      	cmp	r3, #1
    3a92:	d832      	bhi.n	3afa <RSIP_OTF_Enable+0x7e>
    3a94:	9b04      	ldr	r3, [sp, #16]
    3a96:	eb04 0444 	add.w	r4, r4, r4, lsl #1
    3a9a:	9a05      	ldr	r2, [sp, #20]
    3a9c:	f026 061f 	bic.w	r6, r6, #31
    3aa0:	00db      	lsls	r3, r3, #3
    3aa2:	f025 051f 	bic.w	r5, r5, #31
    3aa6:	0052      	lsls	r2, r2, #1
    3aa8:	f003 0338 	and.w	r3, r3, #56	; 0x38
    3aac:	00a4      	lsls	r4, r4, #2
    3aae:	f002 0206 	and.w	r2, r2, #6
    3ab2:	4313      	orrs	r3, r2
    3ab4:	f44f 4280 	mov.w	r2, #16384	; 0x4000
    3ab8:	f2c4 1210 	movt	r2, #16656	; 0x4110
    3abc:	f043 0301 	orr.w	r3, r3, #1
    3ac0:	4422      	add	r2, r4
    3ac2:	f8d2 00a8 	ldr.w	r0, [r2, #168]	; 0xa8
    3ac6:	f020 0001 	bic.w	r0, r0, #1
    3aca:	f8c2 00a8 	str.w	r0, [r2, #168]	; 0xa8
    3ace:	f8c2 60a0 	str.w	r6, [r2, #160]	; 0xa0
    3ad2:	f8c2 50a4 	str.w	r5, [r2, #164]	; 0xa4
    3ad6:	f8c2 30a8 	str.w	r3, [r2, #168]	; 0xa8
    3ada:	bd70      	pop	{r4, r5, r6, pc}
    3adc:	eb00 0440 	add.w	r4, r0, r0, lsl #1
    3ae0:	f44f 4380 	mov.w	r3, #16384	; 0x4000
    3ae4:	00a4      	lsls	r4, r4, #2
    3ae6:	f2c4 1310 	movt	r3, #16656	; 0x4110
    3aea:	4423      	add	r3, r4
    3aec:	f8d3 20a8 	ldr.w	r2, [r3, #168]	; 0xa8
    3af0:	f022 0201 	bic.w	r2, r2, #1
    3af4:	f8c3 20a8 	str.w	r2, [r3, #168]	; 0xa8
    3af8:	bd70      	pop	{r4, r5, r6, pc}
    3afa:	f646 1040 	movw	r0, #26944	; 0x6940
    3afe:	2165      	movs	r1, #101	; 0x65
    3b00:	f2c0 0004 	movt	r0, #4
    3b04:	f005 fa92 	bl	902c <io_assert_failed>
    3b08:	e7c4      	b.n	3a94 <RSIP_OTF_Enable+0x18>
    3b0a:	f646 1040 	movw	r0, #26944	; 0x6940
    3b0e:	2164      	movs	r1, #100	; 0x64
    3b10:	f2c0 0004 	movt	r0, #4
    3b14:	f005 fa8a 	bl	902c <io_assert_failed>
    3b18:	9b05      	ldr	r3, [sp, #20]
    3b1a:	3b01      	subs	r3, #1
    3b1c:	2b01      	cmp	r3, #1
    3b1e:	d9b9      	bls.n	3a94 <RSIP_OTF_Enable+0x18>
    3b20:	e7eb      	b.n	3afa <RSIP_OTF_Enable+0x7e>
    3b22:	bf00      	nop

00003b24 <RSIP_MMU_Config>:
    3b24:	f44f 4c80 	mov.w	ip, #16384	; 0x4000
    3b28:	eb00 0040 	add.w	r0, r0, r0, lsl #1
    3b2c:	0949      	lsrs	r1, r1, #5
    3b2e:	0080      	lsls	r0, r0, #2
    3b30:	f2c4 1c10 	movt	ip, #16656	; 0x4110
    3b34:	0952      	lsrs	r2, r2, #5
    3b36:	4484      	add	ip, r0
    3b38:	095b      	lsrs	r3, r3, #5
    3b3a:	0249      	lsls	r1, r1, #9
    3b3c:	f8dc 0108 	ldr.w	r0, [ip, #264]	; 0x108
    3b40:	0252      	lsls	r2, r2, #9
    3b42:	025b      	lsls	r3, r3, #9
    3b44:	f020 0001 	bic.w	r0, r0, #1
    3b48:	f8cc 0108 	str.w	r0, [ip, #264]	; 0x108
    3b4c:	f8cc 1100 	str.w	r1, [ip, #256]	; 0x100
    3b50:	f8cc 2104 	str.w	r2, [ip, #260]	; 0x104
    3b54:	f8cc 3108 	str.w	r3, [ip, #264]	; 0x108
    3b58:	4770      	bx	lr
    3b5a:	bf00      	nop

00003b5c <RSIP_MMU_Cmd>:
    3b5c:	eb00 0040 	add.w	r0, r0, r0, lsl #1
    3b60:	f44f 4380 	mov.w	r3, #16384	; 0x4000
    3b64:	0080      	lsls	r0, r0, #2
    3b66:	f2c4 1310 	movt	r3, #16656	; 0x4110
    3b6a:	4403      	add	r3, r0
    3b6c:	f8d3 2108 	ldr.w	r2, [r3, #264]	; 0x108
    3b70:	b121      	cbz	r1, 3b7c <RSIP_MMU_Cmd+0x20>
    3b72:	f042 0201 	orr.w	r2, r2, #1
    3b76:	f8c3 2108 	str.w	r2, [r3, #264]	; 0x108
    3b7a:	4770      	bx	lr
    3b7c:	f022 0201 	bic.w	r2, r2, #1
    3b80:	f8c3 2108 	str.w	r2, [r3, #264]	; 0x108
    3b84:	4770      	bx	lr
    3b86:	bf00      	nop

00003b88 <RSIP_MMU_Cache_Clean>:
    3b88:	f44f 4380 	mov.w	r3, #16384	; 0x4000
    3b8c:	2204      	movs	r2, #4
    3b8e:	f2c4 1310 	movt	r3, #16656	; 0x4110
    3b92:	619a      	str	r2, [r3, #24]
    3b94:	4770      	bx	lr
    3b96:	bf00      	nop

00003b98 <load_3>:
    3b98:	7883      	ldrb	r3, [r0, #2]
    3b9a:	7841      	ldrb	r1, [r0, #1]
    3b9c:	041b      	lsls	r3, r3, #16
    3b9e:	7802      	ldrb	r2, [r0, #0]
    3ba0:	ea43 2301 	orr.w	r3, r3, r1, lsl #8
    3ba4:	2100      	movs	r1, #0
    3ba6:	ea43 0002 	orr.w	r0, r3, r2
    3baa:	4770      	bx	lr

00003bac <fe_add>:
    3bac:	6853      	ldr	r3, [r2, #4]
    3bae:	e92d 47f0 	stmdb	sp!, {r4, r5, r6, r7, r8, r9, sl, lr}
    3bb2:	684e      	ldr	r6, [r1, #4]
    3bb4:	688d      	ldr	r5, [r1, #8]
    3bb6:	441e      	add	r6, r3
    3bb8:	6893      	ldr	r3, [r2, #8]
    3bba:	68cc      	ldr	r4, [r1, #12]
    3bbc:	441d      	add	r5, r3
    3bbe:	68d3      	ldr	r3, [r2, #12]
    3bc0:	690f      	ldr	r7, [r1, #16]
    3bc2:	eb04 0a03 	add.w	sl, r4, r3
    3bc6:	6913      	ldr	r3, [r2, #16]
    3bc8:	6a4c      	ldr	r4, [r1, #36]	; 0x24
    3bca:	eb07 0c03 	add.w	ip, r7, r3
    3bce:	694f      	ldr	r7, [r1, #20]
    3bd0:	6953      	ldr	r3, [r2, #20]
    3bd2:	eb07 0e03 	add.w	lr, r7, r3
    3bd6:	698f      	ldr	r7, [r1, #24]
    3bd8:	6993      	ldr	r3, [r2, #24]
    3bda:	eb07 0803 	add.w	r8, r7, r3
    3bde:	69cf      	ldr	r7, [r1, #28]
    3be0:	69d3      	ldr	r3, [r2, #28]
    3be2:	eb07 0903 	add.w	r9, r7, r3
    3be6:	6a13      	ldr	r3, [r2, #32]
    3be8:	6a0f      	ldr	r7, [r1, #32]
    3bea:	6809      	ldr	r1, [r1, #0]
    3bec:	441f      	add	r7, r3
    3bee:	6a53      	ldr	r3, [r2, #36]	; 0x24
    3bf0:	6812      	ldr	r2, [r2, #0]
    3bf2:	4423      	add	r3, r4
    3bf4:	440a      	add	r2, r1
    3bf6:	e9c0 5a02 	strd	r5, sl, [r0, #8]
    3bfa:	e9c0 2600 	strd	r2, r6, [r0]
    3bfe:	e9c0 ce04 	strd	ip, lr, [r0, #16]
    3c02:	e9c0 8906 	strd	r8, r9, [r0, #24]
    3c06:	e9c0 7308 	strd	r7, r3, [r0, #32]
    3c0a:	e8bd 87f0 	ldmia.w	sp!, {r4, r5, r6, r7, r8, r9, sl, pc}

00003c0e <fe_copy>:
    3c0e:	e92d 43f0 	stmdb	sp!, {r4, r5, r6, r7, r8, r9, lr}
    3c12:	e9d1 9800 	ldrd	r9, r8, [r1]
    3c16:	e9d1 e302 	ldrd	lr, r3, [r1, #8]
    3c1a:	e9d1 7604 	ldrd	r7, r6, [r1, #16]
    3c1e:	e9d1 5406 	ldrd	r5, r4, [r1, #24]
    3c22:	e9d1 2108 	ldrd	r2, r1, [r1, #32]
    3c26:	e9c0 9800 	strd	r9, r8, [r0]
    3c2a:	e9c0 e302 	strd	lr, r3, [r0, #8]
    3c2e:	e9c0 7604 	strd	r7, r6, [r0, #16]
    3c32:	e9c0 5406 	strd	r5, r4, [r0, #24]
    3c36:	e9c0 2108 	strd	r2, r1, [r0, #32]
    3c3a:	e8bd 83f0 	ldmia.w	sp!, {r4, r5, r6, r7, r8, r9, pc}

00003c3e <fe_mul>:
    3c3e:	e92d 4ff0 	stmdb	sp!, {r4, r5, r6, r7, r8, r9, sl, fp, lr}
    3c42:	680b      	ldr	r3, [r1, #0]
    3c44:	b0a5      	sub	sp, #148	; 0x94
    3c46:	f04f 0b13 	mov.w	fp, #19
    3c4a:	4686      	mov	lr, r0
    3c4c:	9301      	str	r3, [sp, #4]
    3c4e:	684b      	ldr	r3, [r1, #4]
    3c50:	9308      	str	r3, [sp, #32]
    3c52:	e9d1 9302 	ldrd	r9, r3, [r1, #8]
    3c56:	9309      	str	r3, [sp, #36]	; 0x24
    3c58:	e9d1 7304 	ldrd	r7, r3, [r1, #16]
    3c5c:	930a      	str	r3, [sp, #40]	; 0x28
    3c5e:	e9d1 a306 	ldrd	sl, r3, [r1, #24]
    3c62:	930b      	str	r3, [sp, #44]	; 0x2c
    3c64:	e9d1 8308 	ldrd	r8, r3, [r1, #32]
    3c68:	930c      	str	r3, [sp, #48]	; 0x30
    3c6a:	e9d2 1300 	ldrd	r1, r3, [r2]
    3c6e:	9302      	str	r3, [sp, #8]
    3c70:	6893      	ldr	r3, [r2, #8]
    3c72:	9303      	str	r3, [sp, #12]
    3c74:	68d3      	ldr	r3, [r2, #12]
    3c76:	9304      	str	r3, [sp, #16]
    3c78:	6913      	ldr	r3, [r2, #16]
    3c7a:	9306      	str	r3, [sp, #24]
    3c7c:	6953      	ldr	r3, [r2, #20]
    3c7e:	930d      	str	r3, [sp, #52]	; 0x34
    3c80:	6993      	ldr	r3, [r2, #24]
    3c82:	930f      	str	r3, [sp, #60]	; 0x3c
    3c84:	69d3      	ldr	r3, [r2, #28]
    3c86:	9316      	str	r3, [sp, #88]	; 0x58
    3c88:	6a13      	ldr	r3, [r2, #32]
    3c8a:	9c01      	ldr	r4, [sp, #4]
    3c8c:	9317      	str	r3, [sp, #92]	; 0x5c
    3c8e:	6a53      	ldr	r3, [r2, #36]	; 0x24
    3c90:	9a0d      	ldr	r2, [sp, #52]	; 0x34
    3c92:	9319      	str	r3, [sp, #100]	; 0x64
    3c94:	fb0b f202 	mul.w	r2, fp, r2
    3c98:	9b03      	ldr	r3, [sp, #12]
    3c9a:	9210      	str	r2, [sp, #64]	; 0x40
    3c9c:	9a0f      	ldr	r2, [sp, #60]	; 0x3c
    3c9e:	fb0b f303 	mul.w	r3, fp, r3
    3ca2:	fb0b f202 	mul.w	r2, fp, r2
    3ca6:	931a      	str	r3, [sp, #104]	; 0x68
    3ca8:	920e      	str	r2, [sp, #56]	; 0x38
    3caa:	9a16      	ldr	r2, [sp, #88]	; 0x58
    3cac:	9b04      	ldr	r3, [sp, #16]
    3cae:	fb0b f202 	mul.w	r2, fp, r2
    3cb2:	fb0b f303 	mul.w	r3, fp, r3
    3cb6:	9207      	str	r2, [sp, #28]
    3cb8:	9a17      	ldr	r2, [sp, #92]	; 0x5c
    3cba:	9318      	str	r3, [sp, #96]	; 0x60
    3cbc:	fb0b f202 	mul.w	r2, fp, r2
    3cc0:	9b06      	ldr	r3, [sp, #24]
    3cc2:	9205      	str	r2, [sp, #20]
    3cc4:	9a19      	ldr	r2, [sp, #100]	; 0x64
    3cc6:	fb0b f303 	mul.w	r3, fp, r3
    3cca:	fb0b f002 	mul.w	r0, fp, r2
    3cce:	9a08      	ldr	r2, [sp, #32]
    3cd0:	0052      	lsls	r2, r2, #1
    3cd2:	9211      	str	r2, [sp, #68]	; 0x44
    3cd4:	9a09      	ldr	r2, [sp, #36]	; 0x24
    3cd6:	9d11      	ldr	r5, [sp, #68]	; 0x44
    3cd8:	0052      	lsls	r2, r2, #1
    3cda:	fb85 6500 	smull	r6, r5, r5, r0
    3cde:	9212      	str	r2, [sp, #72]	; 0x48
    3ce0:	9a0a      	ldr	r2, [sp, #40]	; 0x28
    3ce2:	fbc4 6501 	smlal	r6, r5, r4, r1
    3ce6:	9c05      	ldr	r4, [sp, #20]
    3ce8:	0052      	lsls	r2, r2, #1
    3cea:	fbc9 6504 	smlal	r6, r5, r9, r4
    3cee:	9213      	str	r2, [sp, #76]	; 0x4c
    3cf0:	9a0b      	ldr	r2, [sp, #44]	; 0x2c
    3cf2:	0052      	lsls	r2, r2, #1
    3cf4:	9214      	str	r2, [sp, #80]	; 0x50
    3cf6:	9a0c      	ldr	r2, [sp, #48]	; 0x30
    3cf8:	0052      	lsls	r2, r2, #1
    3cfa:	9215      	str	r2, [sp, #84]	; 0x54
    3cfc:	9a02      	ldr	r2, [sp, #8]
    3cfe:	9c12      	ldr	r4, [sp, #72]	; 0x48
    3d00:	fb0b fc02 	mul.w	ip, fp, r2
    3d04:	9a07      	ldr	r2, [sp, #28]
    3d06:	fbc4 6502 	smlal	r6, r5, r4, r2
    3d0a:	9a0e      	ldr	r2, [sp, #56]	; 0x38
    3d0c:	9c10      	ldr	r4, [sp, #64]	; 0x40
    3d0e:	fbc7 6502 	smlal	r6, r5, r7, r2
    3d12:	9a13      	ldr	r2, [sp, #76]	; 0x4c
    3d14:	fbc2 6504 	smlal	r6, r5, r2, r4
    3d18:	9a14      	ldr	r2, [sp, #80]	; 0x50
    3d1a:	9c18      	ldr	r4, [sp, #96]	; 0x60
    3d1c:	fbca 6503 	smlal	r6, r5, sl, r3
    3d20:	fbc2 6504 	smlal	r6, r5, r2, r4
    3d24:	9a1a      	ldr	r2, [sp, #104]	; 0x68
    3d26:	fbc8 6502 	smlal	r6, r5, r8, r2
    3d2a:	9a15      	ldr	r2, [sp, #84]	; 0x54
    3d2c:	fbc2 650c 	smlal	r6, r5, r2, ip
    3d30:	9a08      	ldr	r2, [sp, #32]
    3d32:	951c      	str	r5, [sp, #112]	; 0x70
    3d34:	fb81 c202 	smull	ip, r2, r1, r2
    3d38:	961b      	str	r6, [sp, #108]	; 0x6c
    3d3a:	9e09      	ldr	r6, [sp, #36]	; 0x24
    3d3c:	e9dd 4501 	ldrd	r4, r5, [sp, #4]
    3d40:	fbc4 c205 	smlal	ip, r2, r4, r5
    3d44:	9c05      	ldr	r4, [sp, #20]
    3d46:	fbc0 c209 	smlal	ip, r2, r0, r9
    3d4a:	fbc4 c206 	smlal	ip, r2, r4, r6
    3d4e:	9c07      	ldr	r4, [sp, #28]
    3d50:	9e0a      	ldr	r6, [sp, #40]	; 0x28
    3d52:	fbc4 c207 	smlal	ip, r2, r4, r7
    3d56:	9c0e      	ldr	r4, [sp, #56]	; 0x38
    3d58:	fbc4 c206 	smlal	ip, r2, r4, r6
    3d5c:	9c10      	ldr	r4, [sp, #64]	; 0x40
    3d5e:	9e0c      	ldr	r6, [sp, #48]	; 0x30
    3d60:	fbc4 c20a 	smlal	ip, r2, r4, sl
    3d64:	9c0b      	ldr	r4, [sp, #44]	; 0x2c
    3d66:	fbc3 c204 	smlal	ip, r2, r3, r4
    3d6a:	9c18      	ldr	r4, [sp, #96]	; 0x60
    3d6c:	fbc4 c208 	smlal	ip, r2, r4, r8
    3d70:	9c1a      	ldr	r4, [sp, #104]	; 0x68
    3d72:	fbc4 c206 	smlal	ip, r2, r4, r6
    3d76:	921d      	str	r2, [sp, #116]	; 0x74
    3d78:	9a11      	ldr	r2, [sp, #68]	; 0x44
    3d7a:	9c01      	ldr	r4, [sp, #4]
    3d7c:	fb85 6202 	smull	r6, r2, r5, r2
    3d80:	9d03      	ldr	r5, [sp, #12]
    3d82:	f8cd c068 	str.w	ip, [sp, #104]	; 0x68
    3d86:	fbc4 6205 	smlal	r6, r2, r4, r5
    3d8a:	9c12      	ldr	r4, [sp, #72]	; 0x48
    3d8c:	fbc1 6209 	smlal	r6, r2, r1, r9
    3d90:	fbc0 6204 	smlal	r6, r2, r0, r4
    3d94:	9c05      	ldr	r4, [sp, #20]
    3d96:	fbc4 6207 	smlal	r6, r2, r4, r7
    3d9a:	9c07      	ldr	r4, [sp, #28]
    3d9c:	9d13      	ldr	r5, [sp, #76]	; 0x4c
    3d9e:	fbc4 6205 	smlal	r6, r2, r4, r5
    3da2:	9c0e      	ldr	r4, [sp, #56]	; 0x38
    3da4:	9d14      	ldr	r5, [sp, #80]	; 0x50
    3da6:	fbc4 620a 	smlal	r6, r2, r4, sl
    3daa:	9c10      	ldr	r4, [sp, #64]	; 0x40
    3dac:	fbc4 6205 	smlal	r6, r2, r4, r5
    3db0:	9c18      	ldr	r4, [sp, #96]	; 0x60
    3db2:	9d15      	ldr	r5, [sp, #84]	; 0x54
    3db4:	fbc3 6208 	smlal	r6, r2, r3, r8
    3db8:	fbc4 6205 	smlal	r6, r2, r4, r5
    3dbc:	9c08      	ldr	r4, [sp, #32]
    3dbe:	921e      	str	r2, [sp, #120]	; 0x78
    3dc0:	9a03      	ldr	r2, [sp, #12]
    3dc2:	9d04      	ldr	r5, [sp, #16]
    3dc4:	9618      	str	r6, [sp, #96]	; 0x60
    3dc6:	fb82 6204 	smull	r6, r2, r2, r4
    3dca:	9c01      	ldr	r4, [sp, #4]
    3dcc:	fbc4 6205 	smlal	r6, r2, r4, r5
    3dd0:	9c02      	ldr	r4, [sp, #8]
    3dd2:	9d0a      	ldr	r5, [sp, #40]	; 0x28
    3dd4:	fbc4 6209 	smlal	r6, r2, r4, r9
    3dd8:	9c09      	ldr	r4, [sp, #36]	; 0x24
    3dda:	fbc1 6204 	smlal	r6, r2, r1, r4
    3dde:	9c05      	ldr	r4, [sp, #20]
    3de0:	fbc0 6207 	smlal	r6, r2, r0, r7
    3de4:	fbc4 6205 	smlal	r6, r2, r4, r5
    3de8:	9c07      	ldr	r4, [sp, #28]
    3dea:	9d0b      	ldr	r5, [sp, #44]	; 0x2c
    3dec:	fbc4 620a 	smlal	r6, r2, r4, sl
    3df0:	9c0e      	ldr	r4, [sp, #56]	; 0x38
    3df2:	fbc4 6205 	smlal	r6, r2, r4, r5
    3df6:	9c10      	ldr	r4, [sp, #64]	; 0x40
    3df8:	9d06      	ldr	r5, [sp, #24]
    3dfa:	fbc4 6208 	smlal	r6, r2, r4, r8
    3dfe:	9c0c      	ldr	r4, [sp, #48]	; 0x30
    3e00:	fbc3 6204 	smlal	r6, r2, r3, r4
    3e04:	9b04      	ldr	r3, [sp, #16]
    3e06:	921f      	str	r2, [sp, #124]	; 0x7c
    3e08:	9a11      	ldr	r2, [sp, #68]	; 0x44
    3e0a:	9c01      	ldr	r4, [sp, #4]
    3e0c:	fb83 2302 	smull	r2, r3, r3, r2
    3e10:	fbc4 2305 	smlal	r2, r3, r4, r5
    3e14:	9c03      	ldr	r4, [sp, #12]
    3e16:	9d02      	ldr	r5, [sp, #8]
    3e18:	fbc4 2309 	smlal	r2, r3, r4, r9
    3e1c:	9c12      	ldr	r4, [sp, #72]	; 0x48
    3e1e:	fbc5 2304 	smlal	r2, r3, r5, r4
    3e22:	9c13      	ldr	r4, [sp, #76]	; 0x4c
    3e24:	fbc1 2307 	smlal	r2, r3, r1, r7
    3e28:	fbc0 2304 	smlal	r2, r3, r0, r4
    3e2c:	9c05      	ldr	r4, [sp, #20]
    3e2e:	fbc4 230a 	smlal	r2, r3, r4, sl
    3e32:	9c07      	ldr	r4, [sp, #28]
    3e34:	9d14      	ldr	r5, [sp, #80]	; 0x50
    3e36:	fbc4 2305 	smlal	r2, r3, r4, r5
    3e3a:	9c0e      	ldr	r4, [sp, #56]	; 0x38
    3e3c:	9d15      	ldr	r5, [sp, #84]	; 0x54
    3e3e:	fbc4 2308 	smlal	r2, r3, r4, r8
    3e42:	9c10      	ldr	r4, [sp, #64]	; 0x40
    3e44:	fbc4 2305 	smlal	r2, r3, r4, r5
    3e48:	9c08      	ldr	r4, [sp, #32]
    3e4a:	9210      	str	r2, [sp, #64]	; 0x40
    3e4c:	9a06      	ldr	r2, [sp, #24]
    3e4e:	9d0d      	ldr	r5, [sp, #52]	; 0x34
    3e50:	fb82 2c04 	smull	r2, ip, r2, r4
    3e54:	9c01      	ldr	r4, [sp, #4]
    3e56:	fbc4 2c05 	smlal	r2, ip, r4, r5
    3e5a:	9c04      	ldr	r4, [sp, #16]
    3e5c:	9d09      	ldr	r5, [sp, #36]	; 0x24
    3e5e:	fbc4 2c09 	smlal	r2, ip, r4, r9
    3e62:	9c03      	ldr	r4, [sp, #12]
    3e64:	fbc4 2c05 	smlal	r2, ip, r4, r5
    3e68:	9c02      	ldr	r4, [sp, #8]
    3e6a:	9d0b      	ldr	r5, [sp, #44]	; 0x2c
    3e6c:	fbc4 2c07 	smlal	r2, ip, r4, r7
    3e70:	9c0a      	ldr	r4, [sp, #40]	; 0x28
    3e72:	fbc1 2c04 	smlal	r2, ip, r1, r4
    3e76:	9c05      	ldr	r4, [sp, #20]
    3e78:	fbc0 2c0a 	smlal	r2, ip, r0, sl
    3e7c:	fbc4 2c05 	smlal	r2, ip, r4, r5
    3e80:	9c07      	ldr	r4, [sp, #28]
    3e82:	9d0c      	ldr	r5, [sp, #48]	; 0x30
    3e84:	fbc4 2c08 	smlal	r2, ip, r4, r8
    3e88:	9c0e      	ldr	r4, [sp, #56]	; 0x38
    3e8a:	fbc4 2c05 	smlal	r2, ip, r4, r5
    3e8e:	9c11      	ldr	r4, [sp, #68]	; 0x44
    3e90:	920e      	str	r2, [sp, #56]	; 0x38
    3e92:	9a0d      	ldr	r2, [sp, #52]	; 0x34
    3e94:	9d0f      	ldr	r5, [sp, #60]	; 0x3c
    3e96:	f8cd c080 	str.w	ip, [sp, #128]	; 0x80
    3e9a:	fb82 2c04 	smull	r2, ip, r2, r4
    3e9e:	9c01      	ldr	r4, [sp, #4]
    3ea0:	fbc4 2c05 	smlal	r2, ip, r4, r5
    3ea4:	9c06      	ldr	r4, [sp, #24]
    3ea6:	9d12      	ldr	r5, [sp, #72]	; 0x48
    3ea8:	fbc4 2c09 	smlal	r2, ip, r4, r9
    3eac:	9c04      	ldr	r4, [sp, #16]
    3eae:	fbc4 2c05 	smlal	r2, ip, r4, r5
    3eb2:	9c03      	ldr	r4, [sp, #12]
    3eb4:	9d02      	ldr	r5, [sp, #8]
    3eb6:	fbc4 2c07 	smlal	r2, ip, r4, r7
    3eba:	9c13      	ldr	r4, [sp, #76]	; 0x4c
    3ebc:	fbc5 2c04 	smlal	r2, ip, r5, r4
    3ec0:	9c14      	ldr	r4, [sp, #80]	; 0x50
    3ec2:	fbc1 2c0a 	smlal	r2, ip, r1, sl
    3ec6:	fbc0 2c04 	smlal	r2, ip, r0, r4
    3eca:	9c05      	ldr	r4, [sp, #20]
    3ecc:	9d15      	ldr	r5, [sp, #84]	; 0x54
    3ece:	fbc4 2c08 	smlal	r2, ip, r4, r8
    3ed2:	9c07      	ldr	r4, [sp, #28]
    3ed4:	fbc4 2c05 	smlal	r2, ip, r4, r5
    3ed8:	9c08      	ldr	r4, [sp, #32]
    3eda:	9207      	str	r2, [sp, #28]
    3edc:	9a0f      	ldr	r2, [sp, #60]	; 0x3c
    3ede:	9d16      	ldr	r5, [sp, #88]	; 0x58
    3ee0:	f8cd c084 	str.w	ip, [sp, #132]	; 0x84
    3ee4:	fb82 2c04 	smull	r2, ip, r2, r4
    3ee8:	9c01      	ldr	r4, [sp, #4]
    3eea:	fbc4 2c05 	smlal	r2, ip, r4, r5
    3eee:	9c0d      	ldr	r4, [sp, #52]	; 0x34
    3ef0:	9d09      	ldr	r5, [sp, #36]	; 0x24
    3ef2:	fbc4 2c09 	smlal	r2, ip, r4, r9
    3ef6:	9c06      	ldr	r4, [sp, #24]
    3ef8:	fbc4 2c05 	smlal	r2, ip, r4, r5
    3efc:	9c04      	ldr	r4, [sp, #16]
    3efe:	9d0a      	ldr	r5, [sp, #40]	; 0x28
    3f00:	fbc4 2c07 	smlal	r2, ip, r4, r7
    3f04:	9c03      	ldr	r4, [sp, #12]
    3f06:	fbc4 2c05 	smlal	r2, ip, r4, r5
    3f0a:	9c02      	ldr	r4, [sp, #8]
    3f0c:	9d0c      	ldr	r5, [sp, #48]	; 0x30
    3f0e:	fbc4 2c0a 	smlal	r2, ip, r4, sl
    3f12:	9c0b      	ldr	r4, [sp, #44]	; 0x2c
    3f14:	fbc1 2c04 	smlal	r2, ip, r1, r4
    3f18:	9c05      	ldr	r4, [sp, #20]
    3f1a:	fbc0 2c08 	smlal	r2, ip, r0, r8
    3f1e:	fbc4 2c05 	smlal	r2, ip, r4, r5
    3f22:	9c11      	ldr	r4, [sp, #68]	; 0x44
    3f24:	9d17      	ldr	r5, [sp, #92]	; 0x5c
    3f26:	e9cd 2c22 	strd	r2, ip, [sp, #136]	; 0x88
    3f2a:	9a16      	ldr	r2, [sp, #88]	; 0x58
    3f2c:	fb82 2c04 	smull	r2, ip, r2, r4
    3f30:	9c01      	ldr	r4, [sp, #4]
    3f32:	fbc4 2c05 	smlal	r2, ip, r4, r5
    3f36:	9c0f      	ldr	r4, [sp, #60]	; 0x3c
    3f38:	9d12      	ldr	r5, [sp, #72]	; 0x48
    3f3a:	fbc4 2c09 	smlal	r2, ip, r4, r9
    3f3e:	9c0d      	ldr	r4, [sp, #52]	; 0x34
    3f40:	fbc4 2c05 	smlal	r2, ip, r4, r5
    3f44:	9c06      	ldr	r4, [sp, #24]
    3f46:	9d13      	ldr	r5, [sp, #76]	; 0x4c
    3f48:	fbc4 2c07 	smlal	r2, ip, r4, r7
    3f4c:	9c04      	ldr	r4, [sp, #16]
    3f4e:	fbc4 2c05 	smlal	r2, ip, r4, r5
    3f52:	9c03      	ldr	r4, [sp, #12]
    3f54:	fbc4 2c0a 	smlal	r2, ip, r4, sl
    3f58:	9c14      	ldr	r4, [sp, #80]	; 0x50
    3f5a:	9d02      	ldr	r5, [sp, #8]
    3f5c:	fbc5 2c04 	smlal	r2, ip, r5, r4
    3f60:	9c15      	ldr	r4, [sp, #84]	; 0x54
    3f62:	fbc1 2c08 	smlal	r2, ip, r1, r8
    3f66:	9d19      	ldr	r5, [sp, #100]	; 0x64
    3f68:	fbc0 2c04 	smlal	r2, ip, r0, r4
    3f6c:	9808      	ldr	r0, [sp, #32]
    3f6e:	9c01      	ldr	r4, [sp, #4]
    3f70:	e9cd 2c11 	strd	r2, ip, [sp, #68]	; 0x44
    3f74:	9a17      	ldr	r2, [sp, #92]	; 0x5c
    3f76:	fb82 2000 	smull	r2, r0, r2, r0
    3f7a:	fbc4 2005 	smlal	r2, r0, r4, r5
    3f7e:	9c16      	ldr	r4, [sp, #88]	; 0x58
    3f80:	9d09      	ldr	r5, [sp, #36]	; 0x24
    3f82:	fbc4 2009 	smlal	r2, r0, r4, r9
    3f86:	9c0f      	ldr	r4, [sp, #60]	; 0x3c
    3f88:	fbc4 2005 	smlal	r2, r0, r4, r5
    3f8c:	9c0d      	ldr	r4, [sp, #52]	; 0x34
    3f8e:	9d0a      	ldr	r5, [sp, #40]	; 0x28
    3f90:	fbc4 2007 	smlal	r2, r0, r4, r7
    3f94:	9c06      	ldr	r4, [sp, #24]
    3f96:	fbc4 2005 	smlal	r2, r0, r4, r5
    3f9a:	9c04      	ldr	r4, [sp, #16]
    3f9c:	9d0b      	ldr	r5, [sp, #44]	; 0x2c
    3f9e:	fbc4 200a 	smlal	r2, r0, r4, sl
    3fa2:	9c03      	ldr	r4, [sp, #12]
    3fa4:	fbc4 2005 	smlal	r2, r0, r4, r5
    3fa8:	9c02      	ldr	r4, [sp, #8]
    3faa:	fbc4 2008 	smlal	r2, r0, r4, r8
    3fae:	4684      	mov	ip, r0
    3fb0:	980c      	ldr	r0, [sp, #48]	; 0x30
    3fb2:	9c1b      	ldr	r4, [sp, #108]	; 0x6c
    3fb4:	fbc1 2c00 	smlal	r2, ip, r1, r0
    3fb8:	9203      	str	r2, [sp, #12]
    3fba:	9a1b      	ldr	r2, [sp, #108]	; 0x6c
    3fbc:	f8cd c020 	str.w	ip, [sp, #32]
    3fc0:	f112 7000 	adds.w	r0, r2, #33554432	; 0x2000000
    3fc4:	9a1c      	ldr	r2, [sp, #112]	; 0x70
    3fc6:	ea4f 6890 	mov.w	r8, r0, lsr #26
    3fca:	f142 0100 	adc.w	r1, r2, #0
    3fce:	9a1a      	ldr	r2, [sp, #104]	; 0x68
    3fd0:	f000 407c 	and.w	r0, r0, #4227858432	; 0xfc000000
    3fd4:	ea48 1881 	orr.w	r8, r8, r1, lsl #6
    3fd8:	eb18 0802 	adds.w	r8, r8, r2
    3fdc:	9a1d      	ldr	r2, [sp, #116]	; 0x74
    3fde:	eb42 62a1 	adc.w	r2, r2, r1, asr #26
    3fe2:	1a20      	subs	r0, r4, r0
    3fe4:	9009      	str	r0, [sp, #36]	; 0x24
    3fe6:	981c      	ldr	r0, [sp, #112]	; 0x70
    3fe8:	eb60 0101 	sbc.w	r1, r0, r1
    3fec:	910a      	str	r1, [sp, #40]	; 0x28
    3fee:	9910      	ldr	r1, [sp, #64]	; 0x40
    3ff0:	f111 7400 	adds.w	r4, r1, #33554432	; 0x2000000
    3ff4:	990e      	ldr	r1, [sp, #56]	; 0x38
    3ff6:	f143 0500 	adc.w	r5, r3, #0
    3ffa:	0ea0      	lsrs	r0, r4, #26
    3ffc:	f004 447c 	and.w	r4, r4, #4227858432	; 0xfc000000
    4000:	ea40 1085 	orr.w	r0, r0, r5, lsl #6
    4004:	1840      	adds	r0, r0, r1
    4006:	9920      	ldr	r1, [sp, #128]	; 0x80
    4008:	9f18      	ldr	r7, [sp, #96]	; 0x60
    400a:	eb41 6ca5 	adc.w	ip, r1, r5, asr #26
    400e:	9910      	ldr	r1, [sp, #64]	; 0x40
    4010:	1b09      	subs	r1, r1, r4
    4012:	eb63 0305 	sbc.w	r3, r3, r5
    4016:	f118 7580 	adds.w	r5, r8, #16777216	; 0x1000000
    401a:	f142 0200 	adc.w	r2, r2, #0
    401e:	0e6c      	lsrs	r4, r5, #25
    4020:	f005 457e 	and.w	r5, r5, #4261412864	; 0xfe000000
    4024:	ea44 14c2 	orr.w	r4, r4, r2, lsl #7
    4028:	19e4      	adds	r4, r4, r7
    402a:	9f07      	ldr	r7, [sp, #28]
    402c:	9404      	str	r4, [sp, #16]
    402e:	9c1e      	ldr	r4, [sp, #120]	; 0x78
    4030:	eb44 6262 	adc.w	r2, r4, r2, asr #25
    4034:	ebb8 0405 	subs.w	r4, r8, r5
    4038:	940b      	str	r4, [sp, #44]	; 0x2c
    403a:	f110 7480 	adds.w	r4, r0, #16777216	; 0x1000000
    403e:	f14c 0c00 	adc.w	ip, ip, #0
    4042:	0e65      	lsrs	r5, r4, #25
    4044:	f004 447e 	and.w	r4, r4, #4261412864	; 0xfe000000
    4048:	ea45 15cc 	orr.w	r5, r5, ip, lsl #7
    404c:	19ed      	adds	r5, r5, r7
    404e:	9505      	str	r5, [sp, #20]
    4050:	9d21      	ldr	r5, [sp, #132]	; 0x84
    4052:	eb45 6c6c 	adc.w	ip, r5, ip, asr #25
    4056:	1b00      	subs	r0, r0, r4
    4058:	9c22      	ldr	r4, [sp, #136]	; 0x88
    405a:	900c      	str	r0, [sp, #48]	; 0x30
    405c:	9804      	ldr	r0, [sp, #16]
    405e:	9d03      	ldr	r5, [sp, #12]
    4060:	f110 7000 	adds.w	r0, r0, #33554432	; 0x2000000
    4064:	9001      	str	r0, [sp, #4]
    4066:	f142 0200 	adc.w	r2, r2, #0
    406a:	0e80      	lsrs	r0, r0, #26
    406c:	ea40 1082 	orr.w	r0, r0, r2, lsl #6
    4070:	1980      	adds	r0, r0, r6
    4072:	9006      	str	r0, [sp, #24]
    4074:	981f      	ldr	r0, [sp, #124]	; 0x7c
    4076:	eb40 62a2 	adc.w	r2, r0, r2, asr #26
    407a:	9805      	ldr	r0, [sp, #20]
    407c:	f110 7000 	adds.w	r0, r0, #33554432	; 0x2000000
    4080:	f14c 0c00 	adc.w	ip, ip, #0
    4084:	9002      	str	r0, [sp, #8]
    4086:	0e80      	lsrs	r0, r0, #26
    4088:	ea40 108c 	orr.w	r0, r0, ip, lsl #6
    408c:	1900      	adds	r0, r0, r4
    408e:	9c23      	ldr	r4, [sp, #140]	; 0x8c
    4090:	eb44 6cac 	adc.w	ip, r4, ip, asr #26
    4094:	9c06      	ldr	r4, [sp, #24]
    4096:	f114 7a80 	adds.w	sl, r4, #16777216	; 0x1000000
    409a:	f142 0200 	adc.w	r2, r2, #0
    409e:	ea4f 645a 	mov.w	r4, sl, lsr #25
    40a2:	f00a 4a7e 	and.w	sl, sl, #4261412864	; 0xfe000000
    40a6:	ea44 14c2 	orr.w	r4, r4, r2, lsl #7
    40aa:	1864      	adds	r4, r4, r1
    40ac:	eb43 6362 	adc.w	r3, r3, r2, asr #25
    40b0:	f110 7980 	adds.w	r9, r0, #16777216	; 0x1000000
    40b4:	9a11      	ldr	r2, [sp, #68]	; 0x44
    40b6:	f14c 0c00 	adc.w	ip, ip, #0
    40ba:	ea4f 6159 	mov.w	r1, r9, lsr #25
    40be:	f009 497e 	and.w	r9, r9, #4261412864	; 0xfe000000
    40c2:	ea41 11cc 	orr.w	r1, r1, ip, lsl #7
    40c6:	1889      	adds	r1, r1, r2
    40c8:	9a12      	ldr	r2, [sp, #72]	; 0x48
    40ca:	eb42 6c6c 	adc.w	ip, r2, ip, asr #25
    40ce:	f114 7700 	adds.w	r7, r4, #33554432	; 0x2000000
    40d2:	f143 0300 	adc.w	r3, r3, #0
    40d6:	f111 7800 	adds.w	r8, r1, #33554432	; 0x2000000
    40da:	f14c 0c00 	adc.w	ip, ip, #0
    40de:	ea4f 6298 	mov.w	r2, r8, lsr #26
    40e2:	9307      	str	r3, [sp, #28]
    40e4:	f008 487c 	and.w	r8, r8, #4227858432	; 0xfc000000
    40e8:	ea42 128c 	orr.w	r2, r2, ip, lsl #6
    40ec:	9b09      	ldr	r3, [sp, #36]	; 0x24
    40ee:	1952      	adds	r2, r2, r5
    40f0:	9d08      	ldr	r5, [sp, #32]
    40f2:	eb45 6cac 	adc.w	ip, r5, ip, asr #26
    40f6:	f112 7580 	adds.w	r5, r2, #16777216	; 0x1000000
    40fa:	f14c 0c00 	adc.w	ip, ip, #0
    40fe:	9503      	str	r5, [sp, #12]
    4100:	0e6d      	lsrs	r5, r5, #25
    4102:	ea45 15cc 	orr.w	r5, r5, ip, lsl #7
    4106:	ea4f 6c6c 	mov.w	ip, ip, asr #25
    410a:	fba5 650b 	umull	r6, r5, r5, fp
    410e:	18f6      	adds	r6, r6, r3
    4110:	fb0b 550c 	mla	r5, fp, ip, r5
    4114:	9b0a      	ldr	r3, [sp, #40]	; 0x28
    4116:	eb45 0503 	adc.w	r5, r5, r3
    411a:	f116 7c00 	adds.w	ip, r6, #33554432	; 0x2000000
    411e:	9b0b      	ldr	r3, [sp, #44]	; 0x2c
    4120:	f145 0500 	adc.w	r5, r5, #0
    4124:	f00c 4b7c 	and.w	fp, ip, #4227858432	; 0xfc000000
    4128:	ea4f 6c9c 	mov.w	ip, ip, lsr #26
    412c:	ebb6 060b 	subs.w	r6, r6, fp
    4130:	ea4c 1c85 	orr.w	ip, ip, r5, lsl #6
    4134:	f8ce 6000 	str.w	r6, [lr]
    4138:	eb1c 0503 	adds.w	r5, ip, r3
    413c:	9b01      	ldr	r3, [sp, #4]
    413e:	f8ce 5004 	str.w	r5, [lr, #4]
    4142:	f003 457c 	and.w	r5, r3, #4227858432	; 0xfc000000
    4146:	9b04      	ldr	r3, [sp, #16]
    4148:	1b5d      	subs	r5, r3, r5
    414a:	f8ce 5008 	str.w	r5, [lr, #8]
    414e:	9b06      	ldr	r3, [sp, #24]
    4150:	ebb3 050a 	subs.w	r5, r3, sl
    4154:	9b07      	ldr	r3, [sp, #28]
    4156:	f8ce 500c 	str.w	r5, [lr, #12]
    415a:	f007 457c 	and.w	r5, r7, #4227858432	; 0xfc000000
    415e:	0ebf      	lsrs	r7, r7, #26
    4160:	1b64      	subs	r4, r4, r5
    4162:	ea47 1783 	orr.w	r7, r7, r3, lsl #6
    4166:	9b0c      	ldr	r3, [sp, #48]	; 0x30
    4168:	f8ce 4010 	str.w	r4, [lr, #16]
    416c:	18ff      	adds	r7, r7, r3
    416e:	9b02      	ldr	r3, [sp, #8]
    4170:	9c05      	ldr	r4, [sp, #20]
    4172:	f003 437c 	and.w	r3, r3, #4227858432	; 0xfc000000
    4176:	f8ce 7014 	str.w	r7, [lr, #20]
    417a:	1ae3      	subs	r3, r4, r3
    417c:	ebb0 0009 	subs.w	r0, r0, r9
    4180:	ebb1 0108 	subs.w	r1, r1, r8
    4184:	f8ce 3018 	str.w	r3, [lr, #24]
    4188:	9b03      	ldr	r3, [sp, #12]
    418a:	f8ce 001c 	str.w	r0, [lr, #28]
    418e:	f003 437e 	and.w	r3, r3, #4261412864	; 0xfe000000
    4192:	f8ce 1020 	str.w	r1, [lr, #32]
    4196:	1ad2      	subs	r2, r2, r3
    4198:	f8ce 2024 	str.w	r2, [lr, #36]	; 0x24
    419c:	b025      	add	sp, #148	; 0x94
    419e:	e8bd 8ff0 	ldmia.w	sp!, {r4, r5, r6, r7, r8, r9, sl, fp, pc}

000041a2 <fe_sq>:
    41a2:	e92d 4ff0 	stmdb	sp!, {r4, r5, r6, r7, r8, r9, sl, fp, lr}
    41a6:	e9d1 5300 	ldrd	r5, r3, [r1]
    41aa:	b097      	sub	sp, #92	; 0x5c
    41ac:	f04f 0926 	mov.w	r9, #38	; 0x26
    41b0:	2213      	movs	r2, #19
    41b2:	4682      	mov	sl, r0
    41b4:	9308      	str	r3, [sp, #32]
    41b6:	006f      	lsls	r7, r5, #1
    41b8:	e9d1 e302 	ldrd	lr, r3, [r1, #8]
    41bc:	9307      	str	r3, [sp, #28]
    41be:	e9d1 b304 	ldrd	fp, r3, [r1, #16]
    41c2:	9302      	str	r3, [sp, #8]
    41c4:	e9d1 4306 	ldrd	r4, r3, [r1, #24]
    41c8:	9305      	str	r3, [sp, #20]
    41ca:	6a0b      	ldr	r3, [r1, #32]
    41cc:	9306      	str	r3, [sp, #24]
    41ce:	6a4b      	ldr	r3, [r1, #36]	; 0x24
    41d0:	fb02 f104 	mul.w	r1, r2, r4
    41d4:	9309      	str	r3, [sp, #36]	; 0x24
    41d6:	9b08      	ldr	r3, [sp, #32]
    41d8:	ea4f 0843 	mov.w	r8, r3, lsl #1
    41dc:	ea4f 034e 	mov.w	r3, lr, lsl #1
    41e0:	9303      	str	r3, [sp, #12]
    41e2:	9b07      	ldr	r3, [sp, #28]
    41e4:	005b      	lsls	r3, r3, #1
    41e6:	9300      	str	r3, [sp, #0]
    41e8:	ea4f 034b 	mov.w	r3, fp, lsl #1
    41ec:	930a      	str	r3, [sp, #40]	; 0x28
    41ee:	9b02      	ldr	r3, [sp, #8]
    41f0:	005b      	lsls	r3, r3, #1
    41f2:	9304      	str	r3, [sp, #16]
    41f4:	9b05      	ldr	r3, [sp, #20]
    41f6:	005b      	lsls	r3, r3, #1
    41f8:	930b      	str	r3, [sp, #44]	; 0x2c
    41fa:	9b05      	ldr	r3, [sp, #20]
    41fc:	fb09 fc03 	mul.w	ip, r9, r3
    4200:	9b06      	ldr	r3, [sp, #24]
    4202:	fb02 f003 	mul.w	r0, r2, r3
    4206:	9b09      	ldr	r3, [sp, #36]	; 0x24
    4208:	9001      	str	r0, [sp, #4]
    420a:	fb09 f003 	mul.w	r0, r9, r3
    420e:	9b02      	ldr	r3, [sp, #8]
    4210:	fb09 f903 	mul.w	r9, r9, r3
    4214:	fb88 3600 	smull	r3, r6, r8, r0
    4218:	fbc5 3605 	smlal	r3, r6, r5, r5
    421c:	9d03      	ldr	r5, [sp, #12]
    421e:	9a01      	ldr	r2, [sp, #4]
    4220:	fbc5 3602 	smlal	r3, r6, r5, r2
    4224:	9a00      	ldr	r2, [sp, #0]
    4226:	fbc2 360c 	smlal	r3, r6, r2, ip
    422a:	9a0a      	ldr	r2, [sp, #40]	; 0x28
    422c:	fbc2 3601 	smlal	r3, r6, r2, r1
    4230:	9a02      	ldr	r2, [sp, #8]
    4232:	fbc2 3609 	smlal	r3, r6, r2, r9
    4236:	fb8e 5900 	smull	r5, r9, lr, r0
    423a:	e9cd 360c 	strd	r3, r6, [sp, #48]	; 0x30
    423e:	9b08      	ldr	r3, [sp, #32]
    4240:	9e0a      	ldr	r6, [sp, #40]	; 0x28
    4242:	fbc7 5903 	smlal	r5, r9, r7, r3
    4246:	e9dd 3200 	ldrd	r3, r2, [sp]
    424a:	fbc3 5902 	smlal	r5, r9, r3, r2
    424e:	9b04      	ldr	r3, [sp, #16]
    4250:	fbcb 590c 	smlal	r5, r9, fp, ip
    4254:	9a00      	ldr	r2, [sp, #0]
    4256:	fbc3 5901 	smlal	r5, r9, r3, r1
    425a:	9b08      	ldr	r3, [sp, #32]
    425c:	950e      	str	r5, [sp, #56]	; 0x38
    425e:	fb83 5308 	smull	r5, r3, r3, r8
    4262:	fbc7 530e 	smlal	r5, r3, r7, lr
    4266:	fbc2 5300 	smlal	r5, r3, r2, r0
    426a:	9a01      	ldr	r2, [sp, #4]
    426c:	fbc2 5306 	smlal	r5, r3, r2, r6
    4270:	9a04      	ldr	r2, [sp, #16]
    4272:	fbc2 530c 	smlal	r5, r3, r2, ip
    4276:	9a07      	ldr	r2, [sp, #28]
    4278:	fbc4 5301 	smlal	r5, r3, r4, r1
    427c:	930f      	str	r3, [sp, #60]	; 0x3c
    427e:	fb8e 1308 	smull	r1, r3, lr, r8
    4282:	9508      	str	r5, [sp, #32]
    4284:	fbc7 1302 	smlal	r1, r3, r7, r2
    4288:	9d01      	ldr	r5, [sp, #4]
    428a:	9a04      	ldr	r2, [sp, #16]
    428c:	fbcb 1300 	smlal	r1, r3, fp, r0
    4290:	fbc2 1305 	smlal	r1, r3, r2, r5
    4294:	fbc4 130c 	smlal	r1, r3, r4, ip
    4298:	9311      	str	r3, [sp, #68]	; 0x44
    429a:	0065      	lsls	r5, r4, #1
    429c:	9b00      	ldr	r3, [sp, #0]
    429e:	9110      	str	r1, [sp, #64]	; 0x40
    42a0:	fb88 2103 	smull	r2, r1, r8, r3
    42a4:	9b04      	ldr	r3, [sp, #16]
    42a6:	fbc7 210b 	smlal	r2, r1, r7, fp
    42aa:	fbce 210e 	smlal	r2, r1, lr, lr
    42ae:	fbc3 2100 	smlal	r2, r1, r3, r0
    42b2:	9b01      	ldr	r3, [sp, #4]
    42b4:	fbc3 2105 	smlal	r2, r1, r3, r5
    42b8:	9b05      	ldr	r3, [sp, #20]
    42ba:	4615      	mov	r5, r2
    42bc:	fbc3 510c 	smlal	r5, r1, r3, ip
    42c0:	fb8b 3208 	smull	r3, r2, fp, r8
    42c4:	468e      	mov	lr, r1
    42c6:	9902      	ldr	r1, [sp, #8]
    42c8:	462e      	mov	r6, r5
    42ca:	9d03      	ldr	r5, [sp, #12]
    42cc:	fbc7 3201 	smlal	r3, r2, r7, r1
    42d0:	9907      	ldr	r1, [sp, #28]
    42d2:	fbc1 3205 	smlal	r3, r2, r1, r5
    42d6:	990b      	ldr	r1, [sp, #44]	; 0x2c
    42d8:	9d01      	ldr	r5, [sp, #4]
    42da:	fbc4 3200 	smlal	r3, r2, r4, r0
    42de:	fbc1 3205 	smlal	r3, r2, r1, r5
    42e2:	9312      	str	r3, [sp, #72]	; 0x48
    42e4:	9b04      	ldr	r3, [sp, #16]
    42e6:	9903      	ldr	r1, [sp, #12]
    42e8:	fb88 3c03 	smull	r3, ip, r8, r3
    42ec:	9d00      	ldr	r5, [sp, #0]
    42ee:	fbc7 3c04 	smlal	r3, ip, r7, r4
    42f2:	fbcb 3c01 	smlal	r3, ip, fp, r1
    42f6:	9907      	ldr	r1, [sp, #28]
    42f8:	fbc1 3c05 	smlal	r3, ip, r1, r5
    42fc:	990b      	ldr	r1, [sp, #44]	; 0x2c
    42fe:	9d01      	ldr	r5, [sp, #4]
    4300:	fbc1 3c00 	smlal	r3, ip, r1, r0
    4304:	9906      	ldr	r1, [sp, #24]
    4306:	fbc1 3c05 	smlal	r3, ip, r1, r5
    430a:	9905      	ldr	r1, [sp, #20]
    430c:	f8cd c01c 	str.w	ip, [sp, #28]
    4310:	9301      	str	r3, [sp, #4]
    4312:	fb84 3c08 	smull	r3, ip, r4, r8
    4316:	fbc7 3c01 	smlal	r3, ip, r7, r1
    431a:	e9dd 1502 	ldrd	r1, r5, [sp, #8]
    431e:	fbc1 3c05 	smlal	r3, ip, r1, r5
    4322:	9900      	ldr	r1, [sp, #0]
    4324:	fbcb 3c01 	smlal	r3, ip, fp, r1
    4328:	9906      	ldr	r1, [sp, #24]
    432a:	fbc1 3c00 	smlal	r3, ip, r1, r0
    432e:	e9cd 3c13 	strd	r3, ip, [sp, #76]	; 0x4c
    4332:	9b0b      	ldr	r3, [sp, #44]	; 0x2c
    4334:	fb88 1c03 	smull	r1, ip, r8, r3
    4338:	9b06      	ldr	r3, [sp, #24]
    433a:	fbc7 1c03 	smlal	r1, ip, r7, r3
    433e:	9b00      	ldr	r3, [sp, #0]
    4340:	fbc4 1c05 	smlal	r1, ip, r4, r5
    4344:	9d04      	ldr	r5, [sp, #16]
    4346:	fbc3 1c05 	smlal	r1, ip, r3, r5
    434a:	9b09      	ldr	r3, [sp, #36]	; 0x24
    434c:	fbcb 1c0b 	smlal	r1, ip, fp, fp
    4350:	fbc3 1c00 	smlal	r1, ip, r3, r0
    4354:	9b06      	ldr	r3, [sp, #24]
    4356:	f8cd c054 	str.w	ip, [sp, #84]	; 0x54
    435a:	fb83 0c08 	smull	r0, ip, r3, r8
    435e:	9b09      	ldr	r3, [sp, #36]	; 0x24
    4360:	910b      	str	r1, [sp, #44]	; 0x2c
    4362:	fbc7 0c03 	smlal	r0, ip, r7, r3
    4366:	9903      	ldr	r1, [sp, #12]
    4368:	9b05      	ldr	r3, [sp, #20]
    436a:	fbc3 0c01 	smlal	r0, ip, r3, r1
    436e:	9b00      	ldr	r3, [sp, #0]
    4370:	990a      	ldr	r1, [sp, #40]	; 0x28
    4372:	fbc4 0c03 	smlal	r0, ip, r4, r3
    4376:	9b02      	ldr	r3, [sp, #8]
    4378:	fbc3 0c01 	smlal	r0, ip, r3, r1
    437c:	f8cd c028 	str.w	ip, [sp, #40]	; 0x28
    4380:	9009      	str	r0, [sp, #36]	; 0x24
    4382:	9b0c      	ldr	r3, [sp, #48]	; 0x30
    4384:	9f01      	ldr	r7, [sp, #4]
    4386:	f113 7b00 	adds.w	fp, r3, #33554432	; 0x2000000
    438a:	9b0d      	ldr	r3, [sp, #52]	; 0x34
    438c:	ea4f 689b 	mov.w	r8, fp, lsr #26
    4390:	f143 0500 	adc.w	r5, r3, #0
    4394:	9b0e      	ldr	r3, [sp, #56]	; 0x38
    4396:	f00b 4b7c 	and.w	fp, fp, #4227858432	; 0xfc000000
    439a:	ea48 1885 	orr.w	r8, r8, r5, lsl #6
    439e:	eb18 0803 	adds.w	r8, r8, r3
    43a2:	9b0c      	ldr	r3, [sp, #48]	; 0x30
    43a4:	eb49 69a5 	adc.w	r9, r9, r5, asr #26
    43a8:	ebb3 0b0b 	subs.w	fp, r3, fp
