Archive member included to satisfy reference by file (symbol)

/home/zjian_zhang/Dplus_Z/project/realtek_amebaDplus_va0_example/GCC-RELEASE/project_km4/asdk/../toolchain/linux/asdk-10.3.1/linux/newlib/arm-none-eabi/lib/thumb/v8-m.main+fp/fpu/libc.a(lib_a-atoi.o)
                              ./build/stdlib/stdlib_link.o (atoi)
/home/zjian_zhang/Dplus_Z/project/realtek_amebaDplus_va0_example/GCC-RELEASE/project_km4/asdk/../toolchain/linux/asdk-10.3.1/linux/newlib/arm-none-eabi/lib/thumb/v8-m.main+fp/fpu/libc.a(lib_a-printf.o)
                              ./build/stdlib/stdlib_link.o (printf)
/home/zjian_zhang/Dplus_Z/project/realtek_amebaDplus_va0_example/GCC-RELEASE/project_km4/asdk/../toolchain/linux/asdk-10.3.1/linux/newlib/arm-none-eabi/lib/thumb/v8-m.main+fp/fpu/libc.a(lib_a-putchar.o)
                              ./build/stdlib/stdlib_link.o (putchar)
/home/zjian_zhang/Dplus_Z/project/realtek_amebaDplus_va0_example/GCC-RELEASE/project_km4/asdk/../toolchain/linux/asdk-10.3.1/linux/newlib/arm-none-eabi/lib/thumb/v8-m.main+fp/fpu/libc.a(lib_a-putc.o)
                              /home/zjian_zhang/Dplus_Z/project/realtek_amebaDplus_va0_example/GCC-RELEASE/project_km4/asdk/../toolchain/linux/asdk-10.3.1/linux/newlib/arm-none-eabi/lib/thumb/v8-m.main+fp/fpu/libc.a(lib_a-putchar.o) (_putc_r)
/home/zjian_zhang/Dplus_Z/project/realtek_amebaDplus_va0_example/GCC-RELEASE/project_km4/asdk/../toolchain/linux/asdk-10.3.1/linux/newlib/arm-none-eabi/lib/thumb/v8-m.main+fp/fpu/libc.a(lib_a-puts.o)
                              ./build/stdlib/stdlib_link.o (puts)
/home/zjian_zhang/Dplus_Z/project/realtek_amebaDplus_va0_example/GCC-RELEASE/project_km4/asdk/../toolchain/linux/asdk-10.3.1/linux/newlib/arm-none-eabi/lib/thumb/v8-m.main+fp/fpu/libc.a(lib_a-snprintf.o)
                              ./build/stdlib/stdlib_link.o (snprintf)
/home/zjian_zhang/Dplus_Z/project/realtek_amebaDplus_va0_example/GCC-RELEASE/project_km4/asdk/../toolchain/linux/asdk-10.3.1/linux/newlib/arm-none-eabi/lib/thumb/v8-m.main+fp/fpu/libc.a(lib_a-sprintf.o)
                              ./build/stdlib/stdlib_link.o (sprintf)
/home/zjian_zhang/Dplus_Z/project/realtek_amebaDplus_va0_example/GCC-RELEASE/project_km4/asdk/../toolchain/linux/asdk-10.3.1/linux/newlib/arm-none-eabi/lib/thumb/v8-m.main+fp/fpu/libc.a(lib_a-sscanf.o)
                              ./build/stdlib/stdlib_link.o (sscanf)
/home/zjian_zhang/Dplus_Z/project/realtek_amebaDplus_va0_example/GCC-RELEASE/project_km4/asdk/../toolchain/linux/asdk-10.3.1/linux/newlib/arm-none-eabi/lib/thumb/v8-m.main+fp/fpu/libc.a(lib_a-stdio.o)
                              /home/zjian_zhang/Dplus_Z/project/realtek_amebaDplus_va0_example/GCC-RELEASE/project_km4/asdk/../toolchain/linux/asdk-10.3.1/linux/newlib/arm-none-eabi/lib/thumb/v8-m.main+fp/fpu/libc.a(lib_a-sscanf.o) (__seofread)
/home/zjian_zhang/Dplus_Z/project/realtek_amebaDplus_va0_example/GCC-RELEASE/project_km4/asdk/../toolchain/linux/asdk-10.3.1/linux/newlib/arm-none-eabi/lib/thumb/v8-m.main+fp/fpu/libc.a(lib_a-strcat.o)
                              ./build/stdlib/stdlib_link.o (strcat)
/home/zjian_zhang/Dplus_Z/project/realtek_amebaDplus_va0_example/GCC-RELEASE/project_km4/asdk/../toolchain/linux/asdk-10.3.1/linux/newlib/arm-none-eabi/lib/thumb/v8-m.main+fp/fpu/libc.a(lib_a-strchr.o)
                              ./build/stdlib/stdlib_link.o (strchr)
/home/zjian_zhang/Dplus_Z/project/realtek_amebaDplus_va0_example/GCC-RELEASE/project_km4/asdk/../toolchain/linux/asdk-10.3.1/linux/newlib/arm-none-eabi/lib/thumb/v8-m.main+fp/fpu/libc.a(lib_a-strcpy.o)
                              ./build/stdlib/stdlib_link.o (strcpy)
/home/zjian_zhang/Dplus_Z/project/realtek_amebaDplus_va0_example/GCC-RELEASE/project_km4/asdk/../toolchain/linux/asdk-10.3.1/linux/newlib/arm-none-eabi/lib/thumb/v8-m.main+fp/fpu/libc.a(lib_a-strlen-stub.o)
                              /home/zjian_zhang/Dplus_Z/project/realtek_amebaDplus_va0_example/GCC-RELEASE/project_km4/asdk/../toolchain/linux/asdk-10.3.1/linux/newlib/arm-none-eabi/lib/thumb/v8-m.main+fp/fpu/libc.a(lib_a-puts.o) (strlen)
/home/zjian_zhang/Dplus_Z/project/realtek_amebaDplus_va0_example/GCC-RELEASE/project_km4/asdk/../toolchain/linux/asdk-10.3.1/linux/newlib/arm-none-eabi/lib/thumb/v8-m.main+fp/fpu/libc.a(lib_a-strncat.o)
                              ./build/stdlib/stdlib_link.o (strncat)
/home/zjian_zhang/Dplus_Z/project/realtek_amebaDplus_va0_example/GCC-RELEASE/project_km4/asdk/../toolchain/linux/asdk-10.3.1/linux/newlib/arm-none-eabi/lib/thumb/v8-m.main+fp/fpu/libc.a(lib_a-strncmp.o)
                              ./build/stdlib/stdlib_link.o (strncmp)
/home/zjian_zhang/Dplus_Z/project/realtek_amebaDplus_va0_example/GCC-RELEASE/project_km4/asdk/../toolchain/linux/asdk-10.3.1/linux/newlib/arm-none-eabi/lib/thumb/v8-m.main+fp/fpu/libc.a(lib_a-strncpy.o)
                              ./build/stdlib/stdlib_link.o (strncpy)
/home/zjian_zhang/Dplus_Z/project/realtek_amebaDplus_va0_example/GCC-RELEASE/project_km4/asdk/../toolchain/linux/asdk-10.3.1/linux/newlib/arm-none-eabi/lib/thumb/v8-m.main+fp/fpu/libc.a(lib_a-strpbrk.o)
                              ./build/stdlib/stdlib_link.o (strpbrk)
/home/zjian_zhang/Dplus_Z/project/realtek_amebaDplus_va0_example/GCC-RELEASE/project_km4/asdk/../toolchain/linux/asdk-10.3.1/linux/newlib/arm-none-eabi/lib/thumb/v8-m.main+fp/fpu/libc.a(lib_a-strsep.o)
                              ./build/stdlib/stdlib_link.o (strsep)
/home/zjian_zhang/Dplus_Z/project/realtek_amebaDplus_va0_example/GCC-RELEASE/project_km4/asdk/../toolchain/linux/asdk-10.3.1/linux/newlib/arm-none-eabi/lib/thumb/v8-m.main+fp/fpu/libc.a(lib_a-strstr.o)
                              ./build/stdlib/stdlib_link.o (strstr)
/home/zjian_zhang/Dplus_Z/project/realtek_amebaDplus_va0_example/GCC-RELEASE/project_km4/asdk/../toolchain/linux/asdk-10.3.1/linux/newlib/arm-none-eabi/lib/thumb/v8-m.main+fp/fpu/libc.a(lib_a-strtok.o)
                              ./build/stdlib/stdlib_link.o (strtok)
/home/zjian_zhang/Dplus_Z/project/realtek_amebaDplus_va0_example/GCC-RELEASE/project_km4/asdk/../toolchain/linux/asdk-10.3.1/linux/newlib/arm-none-eabi/lib/thumb/v8-m.main+fp/fpu/libc.a(lib_a-strtok_r.o)
                              /home/zjian_zhang/Dplus_Z/project/realtek_amebaDplus_va0_example/GCC-RELEASE/project_km4/asdk/../toolchain/linux/asdk-10.3.1/linux/newlib/arm-none-eabi/lib/thumb/v8-m.main+fp/fpu/libc.a(lib_a-strsep.o) (__strtok_r)
/home/zjian_zhang/Dplus_Z/project/realtek_amebaDplus_va0_example/GCC-RELEASE/project_km4/asdk/../toolchain/linux/asdk-10.3.1/linux/newlib/arm-none-eabi/lib/thumb/v8-m.main+fp/fpu/libc.a(lib_a-strtol.o)
                              /home/zjian_zhang/Dplus_Z/project/realtek_amebaDplus_va0_example/GCC-RELEASE/project_km4/asdk/../toolchain/linux/asdk-10.3.1/linux/newlib/arm-none-eabi/lib/thumb/v8-m.main+fp/fpu/libc.a(lib_a-atoi.o) (_strtol_r)
/home/zjian_zhang/Dplus_Z/project/realtek_amebaDplus_va0_example/GCC-RELEASE/project_km4/asdk/../toolchain/linux/asdk-10.3.1/linux/newlib/arm-none-eabi/lib/thumb/v8-m.main+fp/fpu/libc.a(lib_a-svfprintf.o)
                              /home/zjian_zhang/Dplus_Z/project/realtek_amebaDplus_va0_example/GCC-RELEASE/project_km4/asdk/../toolchain/linux/asdk-10.3.1/linux/newlib/arm-none-eabi/lib/thumb/v8-m.main+fp/fpu/libc.a(lib_a-snprintf.o) (_svfprintf_r)
/home/zjian_zhang/Dplus_Z/project/realtek_amebaDplus_va0_example/GCC-RELEASE/project_km4/asdk/../toolchain/linux/asdk-10.3.1/linux/newlib/arm-none-eabi/lib/thumb/v8-m.main+fp/fpu/libc.a(lib_a-svfscanf.o)
                              /home/zjian_zhang/Dplus_Z/project/realtek_amebaDplus_va0_example/GCC-RELEASE/project_km4/asdk/../toolchain/linux/asdk-10.3.1/linux/newlib/arm-none-eabi/lib/thumb/v8-m.main+fp/fpu/libc.a(lib_a-sscanf.o) (__ssvfscanf_r)
/home/zjian_zhang/Dplus_Z/project/realtek_amebaDplus_va0_example/GCC-RELEASE/project_km4/asdk/../toolchain/linux/asdk-10.3.1/linux/newlib/arm-none-eabi/lib/thumb/v8-m.main+fp/fpu/libc.a(lib_a-vfprintf.o)
                              /home/zjian_zhang/Dplus_Z/project/realtek_amebaDplus_va0_example/GCC-RELEASE/project_km4/asdk/../toolchain/linux/asdk-10.3.1/linux/newlib/arm-none-eabi/lib/thumb/v8-m.main+fp/fpu/libc.a(lib_a-printf.o) (_vfprintf_r)
/home/zjian_zhang/Dplus_Z/project/realtek_amebaDplus_va0_example/GCC-RELEASE/project_km4/asdk/../toolchain/linux/asdk-10.3.1/linux/newlib/arm-none-eabi/lib/thumb/v8-m.main+fp/fpu/libc.a(lib_a-vsnprintf.o)
                              ./build/stdlib/stdlib_link.o (vsnprintf)
/home/zjian_zhang/Dplus_Z/project/realtek_amebaDplus_va0_example/GCC-RELEASE/project_km4/asdk/../toolchain/linux/asdk-10.3.1/linux/newlib/arm-none-eabi/lib/thumb/v8-m.main+fp/fpu/libc.a(lib_a-wbuf.o)
                              /home/zjian_zhang/Dplus_Z/project/realtek_amebaDplus_va0_example/GCC-RELEASE/project_km4/asdk/../toolchain/linux/asdk-10.3.1/linux/newlib/arm-none-eabi/lib/thumb/v8-m.main+fp/fpu/libc.a(lib_a-putc.o) (__swbuf_r)
/home/zjian_zhang/Dplus_Z/project/realtek_amebaDplus_va0_example/GCC-RELEASE/project_km4/asdk/../toolchain/linux/asdk-10.3.1/linux/newlib/arm-none-eabi/lib/thumb/v8-m.main+fp/fpu/libc.a(lib_a-writer.o)
                              /home/zjian_zhang/Dplus_Z/project/realtek_amebaDplus_va0_example/GCC-RELEASE/project_km4/asdk/../toolchain/linux/asdk-10.3.1/linux/newlib/arm-none-eabi/lib/thumb/v8-m.main+fp/fpu/libc.a(lib_a-stdio.o) (_write_r)
/home/zjian_zhang/Dplus_Z/project/realtek_amebaDplus_va0_example/GCC-RELEASE/project_km4/asdk/../toolchain/linux/asdk-10.3.1/linux/newlib/arm-none-eabi/lib/thumb/v8-m.main+fp/fpu/libc.a(lib_a-wsetup.o)
                              /home/zjian_zhang/Dplus_Z/project/realtek_amebaDplus_va0_example/GCC-RELEASE/project_km4/asdk/../toolchain/linux/asdk-10.3.1/linux/newlib/arm-none-eabi/lib/thumb/v8-m.main+fp/fpu/libc.a(lib_a-vfprintf.o) (__swsetup_r)
/home/zjian_zhang/Dplus_Z/project/realtek_amebaDplus_va0_example/GCC-RELEASE/project_km4/asdk/../toolchain/linux/asdk-10.3.1/linux/newlib/arm-none-eabi/lib/thumb/v8-m.main+fp/fpu/libc.a(lib_a-closer.o)
                              /home/zjian_zhang/Dplus_Z/project/realtek_amebaDplus_va0_example/GCC-RELEASE/project_km4/asdk/../toolchain/linux/asdk-10.3.1/linux/newlib/arm-none-eabi/lib/thumb/v8-m.main+fp/fpu/libc.a(lib_a-stdio.o) (_close_r)
/home/zjian_zhang/Dplus_Z/project/realtek_amebaDplus_va0_example/GCC-RELEASE/project_km4/asdk/../toolchain/linux/asdk-10.3.1/linux/newlib/arm-none-eabi/lib/thumb/v8-m.main+fp/fpu/libc.a(lib_a-ctype_.o)
                              /home/zjian_zhang/Dplus_Z/project/realtek_amebaDplus_va0_example/GCC-RELEASE/project_km4/asdk/../toolchain/linux/asdk-10.3.1/linux/newlib/arm-none-eabi/lib/thumb/v8-m.main+fp/fpu/libc.a(lib_a-strtol.o) (_ctype_)
/home/zjian_zhang/Dplus_Z/project/realtek_amebaDplus_va0_example/GCC-RELEASE/project_km4/asdk/../toolchain/linux/asdk-10.3.1/linux/newlib/arm-none-eabi/lib/thumb/v8-m.main+fp/fpu/libc.a(lib_a-dtoa.o)
                              /home/zjian_zhang/Dplus_Z/project/realtek_amebaDplus_va0_example/GCC-RELEASE/project_km4/asdk/../toolchain/linux/asdk-10.3.1/linux/newlib/arm-none-eabi/lib/thumb/v8-m.main+fp/fpu/libc.a(lib_a-svfprintf.o) (_dtoa_r)
/home/zjian_zhang/Dplus_Z/project/realtek_amebaDplus_va0_example/GCC-RELEASE/project_km4/asdk/../toolchain/linux/asdk-10.3.1/linux/newlib/arm-none-eabi/lib/thumb/v8-m.main+fp/fpu/libc.a(lib_a-errno.o)
                              /home/zjian_zhang/Dplus_Z/project/realtek_amebaDplus_va0_example/GCC-RELEASE/project_km4/asdk/../toolchain/linux/asdk-10.3.1/linux/newlib/arm-none-eabi/lib/thumb/v8-m.main+fp/fpu/libc.a(lib_a-strtol.o) (__errno)
/home/zjian_zhang/Dplus_Z/project/realtek_amebaDplus_va0_example/GCC-RELEASE/project_km4/asdk/../toolchain/linux/asdk-10.3.1/linux/newlib/arm-none-eabi/lib/thumb/v8-m.main+fp/fpu/libc.a(lib_a-fflush.o)
                              /home/zjian_zhang/Dplus_Z/project/realtek_amebaDplus_va0_example/GCC-RELEASE/project_km4/asdk/../toolchain/linux/asdk-10.3.1/linux/newlib/arm-none-eabi/lib/thumb/v8-m.main+fp/fpu/libc.a(lib_a-vfprintf.o) (_fflush_r)
/home/zjian_zhang/Dplus_Z/project/realtek_amebaDplus_va0_example/GCC-RELEASE/project_km4/asdk/../toolchain/linux/asdk-10.3.1/linux/newlib/arm-none-eabi/lib/thumb/v8-m.main+fp/fpu/libc.a(lib_a-findfp.o)
                              /home/zjian_zhang/Dplus_Z/project/realtek_amebaDplus_va0_example/GCC-RELEASE/project_km4/asdk/../toolchain/linux/asdk-10.3.1/linux/newlib/arm-none-eabi/lib/thumb/v8-m.main+fp/fpu/libc.a(lib_a-putc.o) (__sinit)
/home/zjian_zhang/Dplus_Z/project/realtek_amebaDplus_va0_example/GCC-RELEASE/project_km4/asdk/../toolchain/linux/asdk-10.3.1/linux/newlib/arm-none-eabi/lib/thumb/v8-m.main+fp/fpu/libc.a(lib_a-free.o)
                              /home/zjian_zhang/Dplus_Z/project/realtek_amebaDplus_va0_example/GCC-RELEASE/project_km4/asdk/../toolchain/linux/asdk-10.3.1/linux/newlib/arm-none-eabi/lib/thumb/v8-m.main+fp/fpu/libc.a(lib_a-svfscanf.o) (free)
/home/zjian_zhang/Dplus_Z/project/realtek_amebaDplus_va0_example/GCC-RELEASE/project_km4/asdk/../toolchain/linux/asdk-10.3.1/linux/newlib/arm-none-eabi/lib/thumb/v8-m.main+fp/fpu/libc.a(lib_a-freer.o)
                              /home/zjian_zhang/Dplus_Z/project/realtek_amebaDplus_va0_example/GCC-RELEASE/project_km4/asdk/../toolchain/linux/asdk-10.3.1/linux/newlib/arm-none-eabi/lib/thumb/v8-m.main+fp/fpu/libc.a(lib_a-svfprintf.o) (_free_r)
/home/zjian_zhang/Dplus_Z/project/realtek_amebaDplus_va0_example/GCC-RELEASE/project_km4/asdk/../toolchain/linux/asdk-10.3.1/linux/newlib/arm-none-eabi/lib/thumb/v8-m.main+fp/fpu/libc.a(lib_a-fvwrite.o)
                              /home/zjian_zhang/Dplus_Z/project/realtek_amebaDplus_va0_example/GCC-RELEASE/project_km4/asdk/../toolchain/linux/asdk-10.3.1/linux/newlib/arm-none-eabi/lib/thumb/v8-m.main+fp/fpu/libc.a(lib_a-puts.o) (__sfvwrite_r)
/home/zjian_zhang/Dplus_Z/project/realtek_amebaDplus_va0_example/GCC-RELEASE/project_km4/asdk/../toolchain/linux/asdk-10.3.1/linux/newlib/arm-none-eabi/lib/thumb/v8-m.main+fp/fpu/libc.a(lib_a-fwalk.o)
                              /home/zjian_zhang/Dplus_Z/project/realtek_amebaDplus_va0_example/GCC-RELEASE/project_km4/asdk/../toolchain/linux/asdk-10.3.1/linux/newlib/arm-none-eabi/lib/thumb/v8-m.main+fp/fpu/libc.a(lib_a-findfp.o) (_fwalk)
/home/zjian_zhang/Dplus_Z/project/realtek_amebaDplus_va0_example/GCC-RELEASE/project_km4/asdk/../toolchain/linux/asdk-10.3.1/linux/newlib/arm-none-eabi/lib/thumb/v8-m.main+fp/fpu/libc.a(lib_a-impure.o)
                              /home/zjian_zhang/Dplus_Z/project/realtek_amebaDplus_va0_example/GCC-RELEASE/project_km4/asdk/../toolchain/linux/asdk-10.3.1/linux/newlib/arm-none-eabi/lib/thumb/v8-m.main+fp/fpu/libc.a(lib_a-fflush.o) (_global_impure_ptr)
/home/zjian_zhang/Dplus_Z/project/realtek_amebaDplus_va0_example/GCC-RELEASE/project_km4/asdk/../toolchain/linux/asdk-10.3.1/linux/newlib/arm-none-eabi/lib/thumb/v8-m.main+fp/fpu/libc.a(lib_a-iswspace.o)
                              /home/zjian_zhang/Dplus_Z/project/realtek_amebaDplus_va0_example/GCC-RELEASE/project_km4/asdk/../toolchain/linux/asdk-10.3.1/linux/newlib/arm-none-eabi/lib/thumb/v8-m.main+fp/fpu/libc.a(lib_a-svfscanf.o) (iswspace)
/home/zjian_zhang/Dplus_Z/project/realtek_amebaDplus_va0_example/GCC-RELEASE/project_km4/asdk/../toolchain/linux/asdk-10.3.1/linux/newlib/arm-none-eabi/lib/thumb/v8-m.main+fp/fpu/libc.a(lib_a-localeconv.o)
                              /home/zjian_zhang/Dplus_Z/project/realtek_amebaDplus_va0_example/GCC-RELEASE/project_km4/asdk/../toolchain/linux/asdk-10.3.1/linux/newlib/arm-none-eabi/lib/thumb/v8-m.main+fp/fpu/libc.a(lib_a-svfprintf.o) (_localeconv_r)
/home/zjian_zhang/Dplus_Z/project/realtek_amebaDplus_va0_example/GCC-RELEASE/project_km4/asdk/../toolchain/linux/asdk-10.3.1/linux/newlib/arm-none-eabi/lib/thumb/v8-m.main+fp/fpu/libc.a(lib_a-locale.o)
                              /home/zjian_zhang/Dplus_Z/project/realtek_amebaDplus_va0_example/GCC-RELEASE/project_km4/asdk/../toolchain/linux/asdk-10.3.1/linux/newlib/arm-none-eabi/lib/thumb/v8-m.main+fp/fpu/libc.a(lib_a-svfscanf.o) (__locale_mb_cur_max)
/home/zjian_zhang/Dplus_Z/project/realtek_amebaDplus_va0_example/GCC-RELEASE/project_km4/asdk/../toolchain/linux/asdk-10.3.1/linux/newlib/arm-none-eabi/lib/thumb/v8-m.main+fp/fpu/libc.a(lib_a-lock.o)
                              /home/zjian_zhang/Dplus_Z/project/realtek_amebaDplus_va0_example/GCC-RELEASE/project_km4/asdk/../toolchain/linux/asdk-10.3.1/linux/newlib/arm-none-eabi/lib/thumb/v8-m.main+fp/fpu/libc.a(lib_a-vfprintf.o) (__retarget_lock_init_recursive)
/home/zjian_zhang/Dplus_Z/project/realtek_amebaDplus_va0_example/GCC-RELEASE/project_km4/asdk/../toolchain/linux/asdk-10.3.1/linux/newlib/arm-none-eabi/lib/thumb/v8-m.main+fp/fpu/libc.a(lib_a-lseekr.o)
                              /home/zjian_zhang/Dplus_Z/project/realtek_amebaDplus_va0_example/GCC-RELEASE/project_km4/asdk/../toolchain/linux/asdk-10.3.1/linux/newlib/arm-none-eabi/lib/thumb/v8-m.main+fp/fpu/libc.a(lib_a-stdio.o) (_lseek_r)
/home/zjian_zhang/Dplus_Z/project/realtek_amebaDplus_va0_example/GCC-RELEASE/project_km4/asdk/../toolchain/linux/asdk-10.3.1/linux/newlib/arm-none-eabi/lib/thumb/v8-m.main+fp/fpu/libc.a(lib_a-makebuf.o)
                              /home/zjian_zhang/Dplus_Z/project/realtek_amebaDplus_va0_example/GCC-RELEASE/project_km4/asdk/../toolchain/linux/asdk-10.3.1/linux/newlib/arm-none-eabi/lib/thumb/v8-m.main+fp/fpu/libc.a(lib_a-wsetup.o) (__smakebuf_r)
/home/zjian_zhang/Dplus_Z/project/realtek_amebaDplus_va0_example/GCC-RELEASE/project_km4/asdk/../toolchain/linux/asdk-10.3.1/linux/newlib/arm-none-eabi/lib/thumb/v8-m.main+fp/fpu/libc.a(lib_a-malloc.o)
                              /home/zjian_zhang/Dplus_Z/project/realtek_amebaDplus_va0_example/GCC-RELEASE/project_km4/asdk/../toolchain/linux/asdk-10.3.1/linux/newlib/arm-none-eabi/lib/thumb/v8-m.main+fp/fpu/libc.a(lib_a-svfscanf.o) (malloc)
/home/zjian_zhang/Dplus_Z/project/realtek_amebaDplus_va0_example/GCC-RELEASE/project_km4/asdk/../toolchain/linux/asdk-10.3.1/linux/newlib/arm-none-eabi/lib/thumb/v8-m.main+fp/fpu/libc.a(lib_a-mallocr.o)
                              /home/zjian_zhang/Dplus_Z/project/realtek_amebaDplus_va0_example/GCC-RELEASE/project_km4/asdk/../toolchain/linux/asdk-10.3.1/linux/newlib/arm-none-eabi/lib/thumb/v8-m.main+fp/fpu/libc.a(lib_a-svfprintf.o) (_malloc_r)
/home/zjian_zhang/Dplus_Z/project/realtek_amebaDplus_va0_example/GCC-RELEASE/project_km4/asdk/../toolchain/linux/asdk-10.3.1/linux/newlib/arm-none-eabi/lib/thumb/v8-m.main+fp/fpu/libc.a(lib_a-mbrtowc.o)
                              /home/zjian_zhang/Dplus_Z/project/realtek_amebaDplus_va0_example/GCC-RELEASE/project_km4/asdk/../toolchain/linux/asdk-10.3.1/linux/newlib/arm-none-eabi/lib/thumb/v8-m.main+fp/fpu/libc.a(lib_a-svfscanf.o) (_mbrtowc_r)
/home/zjian_zhang/Dplus_Z/project/realtek_amebaDplus_va0_example/GCC-RELEASE/project_km4/asdk/../toolchain/linux/asdk-10.3.1/linux/newlib/arm-none-eabi/lib/thumb/v8-m.main+fp/fpu/libc.a(lib_a-mbtowc_r.o)
                              /home/zjian_zhang/Dplus_Z/project/realtek_amebaDplus_va0_example/GCC-RELEASE/project_km4/asdk/../toolchain/linux/asdk-10.3.1/linux/newlib/arm-none-eabi/lib/thumb/v8-m.main+fp/fpu/libc.a(lib_a-locale.o) (__ascii_mbtowc)
/home/zjian_zhang/Dplus_Z/project/realtek_amebaDplus_va0_example/GCC-RELEASE/project_km4/asdk/../toolchain/linux/asdk-10.3.1/linux/newlib/arm-none-eabi/lib/thumb/v8-m.main+fp/fpu/libc.a(lib_a-memchr-stub.o)
                              /home/zjian_zhang/Dplus_Z/project/realtek_amebaDplus_va0_example/GCC-RELEASE/project_km4/asdk/../toolchain/linux/asdk-10.3.1/linux/newlib/arm-none-eabi/lib/thumb/v8-m.main+fp/fpu/libc.a(lib_a-svfprintf.o) (memchr)
/home/zjian_zhang/Dplus_Z/project/realtek_amebaDplus_va0_example/GCC-RELEASE/project_km4/asdk/../toolchain/linux/asdk-10.3.1/linux/newlib/arm-none-eabi/lib/thumb/v8-m.main+fp/fpu/libc.a(lib_a-memcmp.o)
                              /home/zjian_zhang/Dplus_Z/project/realtek_amebaDplus_va0_example/GCC-RELEASE/project_km4/asdk/../toolchain/linux/asdk-10.3.1/linux/newlib/arm-none-eabi/lib/thumb/v8-m.main+fp/fpu/libc.a(lib_a-strstr.o) (memcmp)
/home/zjian_zhang/Dplus_Z/project/realtek_amebaDplus_va0_example/GCC-RELEASE/project_km4/asdk/../toolchain/linux/asdk-10.3.1/linux/newlib/arm-none-eabi/lib/thumb/v8-m.main+fp/fpu/libc.a(lib_a-memcpy.o)
                              /home/zjian_zhang/Dplus_Z/project/realtek_amebaDplus_va0_example/GCC-RELEASE/project_km4/asdk/../toolchain/linux/asdk-10.3.1/linux/newlib/arm-none-eabi/lib/thumb/v8-m.main+fp/fpu/libc.a(lib_a-dtoa.o) (memcpy)
/home/zjian_zhang/Dplus_Z/project/realtek_amebaDplus_va0_example/GCC-RELEASE/project_km4/asdk/../toolchain/linux/asdk-10.3.1/linux/newlib/arm-none-eabi/lib/thumb/v8-m.main+fp/fpu/libc.a(lib_a-memmove.o)
                              /home/zjian_zhang/Dplus_Z/project/realtek_amebaDplus_va0_example/GCC-RELEASE/project_km4/asdk/../toolchain/linux/asdk-10.3.1/linux/newlib/arm-none-eabi/lib/thumb/v8-m.main+fp/fpu/libc.a(lib_a-fvwrite.o) (memmove)
/home/zjian_zhang/Dplus_Z/project/realtek_amebaDplus_va0_example/GCC-RELEASE/project_km4/asdk/../toolchain/linux/asdk-10.3.1/linux/newlib/arm-none-eabi/lib/thumb/v8-m.main+fp/fpu/libc.a(lib_a-memset-stub.o)
                              /home/zjian_zhang/Dplus_Z/project/realtek_amebaDplus_va0_example/GCC-RELEASE/project_km4/asdk/../toolchain/linux/asdk-10.3.1/linux/newlib/arm-none-eabi/lib/thumb/v8-m.main+fp/fpu/libc.a(lib_a-strstr.o) (memset)
/home/zjian_zhang/Dplus_Z/project/realtek_amebaDplus_va0_example/GCC-RELEASE/project_km4/asdk/../toolchain/linux/asdk-10.3.1/linux/newlib/arm-none-eabi/lib/thumb/v8-m.main+fp/fpu/libc.a(lib_a-mlock.o)
                              /home/zjian_zhang/Dplus_Z/project/realtek_amebaDplus_va0_example/GCC-RELEASE/project_km4/asdk/../toolchain/linux/asdk-10.3.1/linux/newlib/arm-none-eabi/lib/thumb/v8-m.main+fp/fpu/libc.a(lib_a-freer.o) (__malloc_lock)
/home/zjian_zhang/Dplus_Z/project/realtek_amebaDplus_va0_example/GCC-RELEASE/project_km4/asdk/../toolchain/linux/asdk-10.3.1/linux/newlib/arm-none-eabi/lib/thumb/v8-m.main+fp/fpu/libc.a(lib_a-mprec.o)
                              /home/zjian_zhang/Dplus_Z/project/realtek_amebaDplus_va0_example/GCC-RELEASE/project_km4/asdk/../toolchain/linux/asdk-10.3.1/linux/newlib/arm-none-eabi/lib/thumb/v8-m.main+fp/fpu/libc.a(lib_a-dtoa.o) (_Balloc)
/home/zjian_zhang/Dplus_Z/project/realtek_amebaDplus_va0_example/GCC-RELEASE/project_km4/asdk/../toolchain/linux/asdk-10.3.1/linux/newlib/arm-none-eabi/lib/thumb/v8-m.main+fp/fpu/libc.a(lib_a-readr.o)
                              /home/zjian_zhang/Dplus_Z/project/realtek_amebaDplus_va0_example/GCC-RELEASE/project_km4/asdk/../toolchain/linux/asdk-10.3.1/linux/newlib/arm-none-eabi/lib/thumb/v8-m.main+fp/fpu/libc.a(lib_a-stdio.o) (_read_r)
/home/zjian_zhang/Dplus_Z/project/realtek_amebaDplus_va0_example/GCC-RELEASE/project_km4/asdk/../toolchain/linux/asdk-10.3.1/linux/newlib/arm-none-eabi/lib/thumb/v8-m.main+fp/fpu/libc.a(lib_a-realloc.o)
                              /home/zjian_zhang/Dplus_Z/project/realtek_amebaDplus_va0_example/GCC-RELEASE/project_km4/asdk/../toolchain/linux/asdk-10.3.1/linux/newlib/arm-none-eabi/lib/thumb/v8-m.main+fp/fpu/libc.a(lib_a-svfscanf.o) (realloc)
/home/zjian_zhang/Dplus_Z/project/realtek_amebaDplus_va0_example/GCC-RELEASE/project_km4/asdk/../toolchain/linux/asdk-10.3.1/linux/newlib/arm-none-eabi/lib/thumb/v8-m.main+fp/fpu/libc.a(lib_a-reallocr.o)
                              /home/zjian_zhang/Dplus_Z/project/realtek_amebaDplus_va0_example/GCC-RELEASE/project_km4/asdk/../toolchain/linux/asdk-10.3.1/linux/newlib/arm-none-eabi/lib/thumb/v8-m.main+fp/fpu/libc.a(lib_a-fvwrite.o) (_realloc_r)
/home/zjian_zhang/Dplus_Z/project/realtek_amebaDplus_va0_example/GCC-RELEASE/project_km4/asdk/../toolchain/linux/asdk-10.3.1/linux/newlib/arm-none-eabi/lib/thumb/v8-m.main+fp/fpu/libc.a(lib_a-reent.o)
                              /home/zjian_zhang/Dplus_Z/project/realtek_amebaDplus_va0_example/GCC-RELEASE/project_km4/asdk/../toolchain/linux/asdk-10.3.1/linux/newlib/arm-none-eabi/lib/thumb/v8-m.main+fp/fpu/libc.a(lib_a-writer.o) (errno)
/home/zjian_zhang/Dplus_Z/project/realtek_amebaDplus_va0_example/GCC-RELEASE/project_km4/asdk/../toolchain/linux/asdk-10.3.1/linux/newlib/arm-none-eabi/lib/thumb/v8-m.main+fp/fpu/libc.a(lib_a-sbrkr.o)
                              /home/zjian_zhang/Dplus_Z/project/realtek_amebaDplus_va0_example/GCC-RELEASE/project_km4/asdk/../toolchain/linux/asdk-10.3.1/linux/newlib/arm-none-eabi/lib/thumb/v8-m.main+fp/fpu/libc.a(lib_a-freer.o) (_sbrk_r)
/home/zjian_zhang/Dplus_Z/project/realtek_amebaDplus_va0_example/GCC-RELEASE/project_km4/asdk/../toolchain/linux/asdk-10.3.1/linux/newlib/arm-none-eabi/lib/thumb/v8-m.main+fp/fpu/libc.a(lib_a-sccl.o)
                              /home/zjian_zhang/Dplus_Z/project/realtek_amebaDplus_va0_example/GCC-RELEASE/project_km4/asdk/../toolchain/linux/asdk-10.3.1/linux/newlib/arm-none-eabi/lib/thumb/v8-m.main+fp/fpu/libc.a(lib_a-svfscanf.o) (__sccl)
/home/zjian_zhang/Dplus_Z/project/realtek_amebaDplus_va0_example/GCC-RELEASE/project_km4/asdk/../toolchain/linux/asdk-10.3.1/linux/newlib/arm-none-eabi/lib/thumb/v8-m.main+fp/fpu/libc.a(lib_a-sf_nan.o)
                              /home/zjian_zhang/Dplus_Z/project/realtek_amebaDplus_va0_example/GCC-RELEASE/project_km4/asdk/../toolchain/linux/asdk-10.3.1/linux/newlib/arm-none-eabi/lib/thumb/v8-m.main+fp/fpu/libc.a(lib_a-svfscanf.o) (nanf)
/home/zjian_zhang/Dplus_Z/project/realtek_amebaDplus_va0_example/GCC-RELEASE/project_km4/asdk/../toolchain/linux/asdk-10.3.1/linux/newlib/arm-none-eabi/lib/thumb/v8-m.main+fp/fpu/libc.a(lib_a-s_frexp.o)
                              /home/zjian_zhang/Dplus_Z/project/realtek_amebaDplus_va0_example/GCC-RELEASE/project_km4/asdk/../toolchain/linux/asdk-10.3.1/linux/newlib/arm-none-eabi/lib/thumb/v8-m.main+fp/fpu/libc.a(lib_a-svfprintf.o) (frexp)
/home/zjian_zhang/Dplus_Z/project/realtek_amebaDplus_va0_example/GCC-RELEASE/project_km4/asdk/../toolchain/linux/asdk-10.3.1/linux/newlib/arm-none-eabi/lib/thumb/v8-m.main+fp/fpu/libc.a(lib_a-strcmp.o)
                              /home/zjian_zhang/Dplus_Z/project/realtek_amebaDplus_va0_example/GCC-RELEASE/project_km4/asdk/../toolchain/linux/asdk-10.3.1/linux/newlib/arm-none-eabi/lib/thumb/v8-m.main+fp/fpu/libc.a(lib_a-locale.o) (strcmp)
/home/zjian_zhang/Dplus_Z/project/realtek_amebaDplus_va0_example/GCC-RELEASE/project_km4/asdk/../toolchain/linux/asdk-10.3.1/linux/newlib/arm-none-eabi/lib/thumb/v8-m.main+fp/fpu/libc.a(lib_a-strnlen.o)
                              /home/zjian_zhang/Dplus_Z/project/realtek_amebaDplus_va0_example/GCC-RELEASE/project_km4/asdk/../toolchain/linux/asdk-10.3.1/linux/newlib/arm-none-eabi/lib/thumb/v8-m.main+fp/fpu/libc.a(lib_a-strstr.o) (strnlen)
/home/zjian_zhang/Dplus_Z/project/realtek_amebaDplus_va0_example/GCC-RELEASE/project_km4/asdk/../toolchain/linux/asdk-10.3.1/linux/newlib/arm-none-eabi/lib/thumb/v8-m.main+fp/fpu/libc.a(lib_a-strtod.o)
                              /home/zjian_zhang/Dplus_Z/project/realtek_amebaDplus_va0_example/GCC-RELEASE/project_km4/asdk/../toolchain/linux/asdk-10.3.1/linux/newlib/arm-none-eabi/lib/thumb/v8-m.main+fp/fpu/libc.a(lib_a-svfscanf.o) (_strtod_r)
/home/zjian_zhang/Dplus_Z/project/realtek_amebaDplus_va0_example/GCC-RELEASE/project_km4/asdk/../toolchain/linux/asdk-10.3.1/linux/newlib/arm-none-eabi/lib/thumb/v8-m.main+fp/fpu/libc.a(lib_a-strtoll.o)
                              /home/zjian_zhang/Dplus_Z/project/realtek_amebaDplus_va0_example/GCC-RELEASE/project_km4/asdk/../toolchain/linux/asdk-10.3.1/linux/newlib/arm-none-eabi/lib/thumb/v8-m.main+fp/fpu/libc.a(lib_a-svfscanf.o) (_strtoll_r)
/home/zjian_zhang/Dplus_Z/project/realtek_amebaDplus_va0_example/GCC-RELEASE/project_km4/asdk/../toolchain/linux/asdk-10.3.1/linux/newlib/arm-none-eabi/lib/thumb/v8-m.main+fp/fpu/libc.a(lib_a-strtoull.o)
                              /home/zjian_zhang/Dplus_Z/project/realtek_amebaDplus_va0_example/GCC-RELEASE/project_km4/asdk/../toolchain/linux/asdk-10.3.1/linux/newlib/arm-none-eabi/lib/thumb/v8-m.main+fp/fpu/libc.a(lib_a-svfscanf.o) (_strtoull_r)
/home/zjian_zhang/Dplus_Z/project/realtek_amebaDplus_va0_example/GCC-RELEASE/project_km4/asdk/../toolchain/linux/asdk-10.3.1/linux/newlib/arm-none-eabi/lib/thumb/v8-m.main+fp/fpu/libc.a(lib_a-strtoul.o)
                              /home/zjian_zhang/Dplus_Z/project/realtek_amebaDplus_va0_example/GCC-RELEASE/project_km4/asdk/../toolchain/linux/asdk-10.3.1/linux/newlib/arm-none-eabi/lib/thumb/v8-m.main+fp/fpu/libc.a(lib_a-svfscanf.o) (_strtoul_r)
/home/zjian_zhang/Dplus_Z/project/realtek_amebaDplus_va0_example/GCC-RELEASE/project_km4/asdk/../toolchain/linux/asdk-10.3.1/linux/newlib/arm-none-eabi/lib/thumb/v8-m.main+fp/fpu/libc.a(lib_a-svfiprintf.o)
                              /home/zjian_zhang/Dplus_Z/project/realtek_amebaDplus_va0_example/GCC-RELEASE/project_km4/asdk/../toolchain/linux/asdk-10.3.1/linux/newlib/arm-none-eabi/lib/thumb/v8-m.main+fp/fpu/libc.a(lib_a-svfprintf.o) (__ssprint_r)
/home/zjian_zhang/Dplus_Z/project/realtek_amebaDplus_va0_example/GCC-RELEASE/project_km4/asdk/../toolchain/linux/asdk-10.3.1/linux/newlib/arm-none-eabi/lib/thumb/v8-m.main+fp/fpu/libc.a(lib_a-svfiscanf.o)
                              /home/zjian_zhang/Dplus_Z/project/realtek_amebaDplus_va0_example/GCC-RELEASE/project_km4/asdk/../toolchain/linux/asdk-10.3.1/linux/newlib/arm-none-eabi/lib/thumb/v8-m.main+fp/fpu/libc.a(lib_a-svfscanf.o) (_sungetc_r)
/home/zjian_zhang/Dplus_Z/project/realtek_amebaDplus_va0_example/GCC-RELEASE/project_km4/asdk/../toolchain/linux/asdk-10.3.1/linux/newlib/arm-none-eabi/lib/thumb/v8-m.main+fp/fpu/libc.a(lib_a-ungetc.o)
                              /home/zjian_zhang/Dplus_Z/project/realtek_amebaDplus_va0_example/GCC-RELEASE/project_km4/asdk/../toolchain/linux/asdk-10.3.1/linux/newlib/arm-none-eabi/lib/thumb/v8-m.main+fp/fpu/libc.a(lib_a-svfiscanf.o) (__submore)
/home/zjian_zhang/Dplus_Z/project/realtek_amebaDplus_va0_example/GCC-RELEASE/project_km4/asdk/../toolchain/linux/asdk-10.3.1/linux/newlib/arm-none-eabi/lib/thumb/v8-m.main+fp/fpu/libc.a(lib_a-vfiprintf.o)
                              /home/zjian_zhang/Dplus_Z/project/realtek_amebaDplus_va0_example/GCC-RELEASE/project_km4/asdk/../toolchain/linux/asdk-10.3.1/linux/newlib/arm-none-eabi/lib/thumb/v8-m.main+fp/fpu/libc.a(lib_a-vfprintf.o) (__sprint_r)
/home/zjian_zhang/Dplus_Z/project/realtek_amebaDplus_va0_example/GCC-RELEASE/project_km4/asdk/../toolchain/linux/asdk-10.3.1/linux/newlib/arm-none-eabi/lib/thumb/v8-m.main+fp/fpu/libc.a(lib_a-wctomb_r.o)
                              /home/zjian_zhang/Dplus_Z/project/realtek_amebaDplus_va0_example/GCC-RELEASE/project_km4/asdk/../toolchain/linux/asdk-10.3.1/linux/newlib/arm-none-eabi/lib/thumb/v8-m.main+fp/fpu/libc.a(lib_a-locale.o) (__ascii_wctomb)
/home/zjian_zhang/Dplus_Z/project/realtek_amebaDplus_va0_example/GCC-RELEASE/project_km4/asdk/../toolchain/linux/asdk-10.3.1/linux/newlib/arm-none-eabi/lib/thumb/v8-m.main+fp/fpu/libc.a(lib_a-assert.o)
                              /home/zjian_zhang/Dplus_Z/project/realtek_amebaDplus_va0_example/GCC-RELEASE/project_km4/asdk/../toolchain/linux/asdk-10.3.1/linux/newlib/arm-none-eabi/lib/thumb/v8-m.main+fp/fpu/libc.a(lib_a-dtoa.o) (__assert_func)
/home/zjian_zhang/Dplus_Z/project/realtek_amebaDplus_va0_example/GCC-RELEASE/project_km4/asdk/../toolchain/linux/asdk-10.3.1/linux/newlib/arm-none-eabi/lib/thumb/v8-m.main+fp/fpu/libc.a(lib_a-callocr.o)
                              /home/zjian_zhang/Dplus_Z/project/realtek_amebaDplus_va0_example/GCC-RELEASE/project_km4/asdk/../toolchain/linux/asdk-10.3.1/linux/newlib/arm-none-eabi/lib/thumb/v8-m.main+fp/fpu/libc.a(lib_a-mprec.o) (_calloc_r)
/home/zjian_zhang/Dplus_Z/project/realtek_amebaDplus_va0_example/GCC-RELEASE/project_km4/asdk/../toolchain/linux/asdk-10.3.1/linux/newlib/arm-none-eabi/lib/thumb/v8-m.main+fp/fpu/libc.a(lib_a-fclose.o)
                              /home/zjian_zhang/Dplus_Z/project/realtek_amebaDplus_va0_example/GCC-RELEASE/project_km4/asdk/../toolchain/linux/asdk-10.3.1/linux/newlib/arm-none-eabi/lib/thumb/v8-m.main+fp/fpu/libc.a(lib_a-findfp.o) (_fclose_r)
/home/zjian_zhang/Dplus_Z/project/realtek_amebaDplus_va0_example/GCC-RELEASE/project_km4/asdk/../toolchain/linux/asdk-10.3.1/linux/newlib/arm-none-eabi/lib/thumb/v8-m.main+fp/fpu/libc.a(lib_a-fiprintf.o)
                              /home/zjian_zhang/Dplus_Z/project/realtek_amebaDplus_va0_example/GCC-RELEASE/project_km4/asdk/../toolchain/linux/asdk-10.3.1/linux/newlib/arm-none-eabi/lib/thumb/v8-m.main+fp/fpu/libc.a(lib_a-assert.o) (fiprintf)
/home/zjian_zhang/Dplus_Z/project/realtek_amebaDplus_va0_example/GCC-RELEASE/project_km4/asdk/../toolchain/linux/asdk-10.3.1/linux/newlib/arm-none-eabi/lib/thumb/v8-m.main+fp/fpu/libc.a(lib_a-fputwc.o)
                              /home/zjian_zhang/Dplus_Z/project/realtek_amebaDplus_va0_example/GCC-RELEASE/project_km4/asdk/../toolchain/linux/asdk-10.3.1/linux/newlib/arm-none-eabi/lib/thumb/v8-m.main+fp/fpu/libc.a(lib_a-vfiprintf.o) (_fputwc_r)
/home/zjian_zhang/Dplus_Z/project/realtek_amebaDplus_va0_example/GCC-RELEASE/project_km4/asdk/../toolchain/linux/asdk-10.3.1/linux/newlib/arm-none-eabi/lib/thumb/v8-m.main+fp/fpu/libc.a(lib_a-fstatr.o)
                              /home/zjian_zhang/Dplus_Z/project/realtek_amebaDplus_va0_example/GCC-RELEASE/project_km4/asdk/../toolchain/linux/asdk-10.3.1/linux/newlib/arm-none-eabi/lib/thumb/v8-m.main+fp/fpu/libc.a(lib_a-makebuf.o) (_fstat_r)
/home/zjian_zhang/Dplus_Z/project/realtek_amebaDplus_va0_example/GCC-RELEASE/project_km4/asdk/../toolchain/linux/asdk-10.3.1/linux/newlib/arm-none-eabi/lib/thumb/v8-m.main+fp/fpu/libc.a(lib_a-gdtoa-gethex.o)
                              /home/zjian_zhang/Dplus_Z/project/realtek_amebaDplus_va0_example/GCC-RELEASE/project_km4/asdk/../toolchain/linux/asdk-10.3.1/linux/newlib/arm-none-eabi/lib/thumb/v8-m.main+fp/fpu/libc.a(lib_a-strtod.o) (__gethex)
/home/zjian_zhang/Dplus_Z/project/realtek_amebaDplus_va0_example/GCC-RELEASE/project_km4/asdk/../toolchain/linux/asdk-10.3.1/linux/newlib/arm-none-eabi/lib/thumb/v8-m.main+fp/fpu/libc.a(lib_a-gdtoa-hexnan.o)
                              /home/zjian_zhang/Dplus_Z/project/realtek_amebaDplus_va0_example/GCC-RELEASE/project_km4/asdk/../toolchain/linux/asdk-10.3.1/linux/newlib/arm-none-eabi/lib/thumb/v8-m.main+fp/fpu/libc.a(lib_a-strtod.o) (__match)
/home/zjian_zhang/Dplus_Z/project/realtek_amebaDplus_va0_example/GCC-RELEASE/project_km4/asdk/../toolchain/linux/asdk-10.3.1/linux/newlib/arm-none-eabi/lib/thumb/v8-m.main+fp/fpu/libc.a(lib_a-isattyr.o)
                              /home/zjian_zhang/Dplus_Z/project/realtek_amebaDplus_va0_example/GCC-RELEASE/project_km4/asdk/../toolchain/linux/asdk-10.3.1/linux/newlib/arm-none-eabi/lib/thumb/v8-m.main+fp/fpu/libc.a(lib_a-makebuf.o) (_isatty_r)
/home/zjian_zhang/Dplus_Z/project/realtek_amebaDplus_va0_example/GCC-RELEASE/project_km4/asdk/../toolchain/linux/asdk-10.3.1/linux/newlib/arm-none-eabi/lib/thumb/v8-m.main+fp/fpu/libc.a(lib_a-iswspace_l.o)
                              /home/zjian_zhang/Dplus_Z/project/realtek_amebaDplus_va0_example/GCC-RELEASE/project_km4/asdk/../toolchain/linux/asdk-10.3.1/linux/newlib/arm-none-eabi/lib/thumb/v8-m.main+fp/fpu/libc.a(lib_a-iswspace.o) (iswspace_l)
/home/zjian_zhang/Dplus_Z/project/realtek_amebaDplus_va0_example/GCC-RELEASE/project_km4/asdk/../toolchain/linux/asdk-10.3.1/linux/newlib/arm-none-eabi/lib/thumb/v8-m.main+fp/fpu/libc.a(lib_a-lnumeric.o)
                              /home/zjian_zhang/Dplus_Z/project/realtek_amebaDplus_va0_example/GCC-RELEASE/project_km4/asdk/../toolchain/linux/asdk-10.3.1/linux/newlib/arm-none-eabi/lib/thumb/v8-m.main+fp/fpu/libc.a(lib_a-strtod.o) (_C_numeric_locale)
/home/zjian_zhang/Dplus_Z/project/realtek_amebaDplus_va0_example/GCC-RELEASE/project_km4/asdk/../toolchain/linux/asdk-10.3.1/linux/newlib/arm-none-eabi/lib/thumb/v8-m.main+fp/fpu/libc.a(lib_a-s_nan.o)
                              /home/zjian_zhang/Dplus_Z/project/realtek_amebaDplus_va0_example/GCC-RELEASE/project_km4/asdk/../toolchain/linux/asdk-10.3.1/linux/newlib/arm-none-eabi/lib/thumb/v8-m.main+fp/fpu/libc.a(lib_a-strtod.o) (nan)
/home/zjian_zhang/Dplus_Z/project/realtek_amebaDplus_va0_example/GCC-RELEASE/project_km4/asdk/../toolchain/linux/asdk-10.3.1/linux/newlib/arm-none-eabi/lib/thumb/v8-m.main+fp/fpu/libc.a(lib_a-wcrtomb.o)
                              /home/zjian_zhang/Dplus_Z/project/realtek_amebaDplus_va0_example/GCC-RELEASE/project_km4/asdk/../toolchain/linux/asdk-10.3.1/linux/newlib/arm-none-eabi/lib/thumb/v8-m.main+fp/fpu/libc.a(lib_a-fputwc.o) (_wcrtomb_r)
/home/zjian_zhang/Dplus_Z/project/realtek_amebaDplus_va0_example/GCC-RELEASE/project_km4/asdk/../toolchain/linux/asdk-10.3.1/linux/newlib/arm-none-eabi/lib/thumb/v8-m.main+fp/fpu/libc.a(lib_a-abort.o)
                              /home/zjian_zhang/Dplus_Z/project/realtek_amebaDplus_va0_example/GCC-RELEASE/project_km4/asdk/../toolchain/linux/asdk-10.3.1/linux/newlib/arm-none-eabi/lib/thumb/v8-m.main+fp/fpu/libc.a(lib_a-assert.o) (abort)
/home/zjian_zhang/Dplus_Z/project/realtek_amebaDplus_va0_example/GCC-RELEASE/project_km4/asdk/../toolchain/linux/asdk-10.3.1/linux/newlib/arm-none-eabi/lib/thumb/v8-m.main+fp/fpu/libc.a(lib_a-signal.o)
                              /home/zjian_zhang/Dplus_Z/project/realtek_amebaDplus_va0_example/GCC-RELEASE/project_km4/asdk/../toolchain/linux/asdk-10.3.1/linux/newlib/arm-none-eabi/lib/thumb/v8-m.main+fp/fpu/libc.a(lib_a-abort.o) (raise)
/home/zjian_zhang/Dplus_Z/project/realtek_amebaDplus_va0_example/GCC-RELEASE/project_km4/asdk/../toolchain/linux/asdk-10.3.1/linux/newlib/arm-none-eabi/lib/thumb/v8-m.main+fp/fpu/libc.a(lib_a-signalr.o)
                              /home/zjian_zhang/Dplus_Z/project/realtek_amebaDplus_va0_example/GCC-RELEASE/project_km4/asdk/../toolchain/linux/asdk-10.3.1/linux/newlib/arm-none-eabi/lib/thumb/v8-m.main+fp/fpu/libc.a(lib_a-signal.o) (_kill_r)
/home/zjian_zhang/Dplus_Z/project/realtek_amebaDplus_va0_example/GCC-RELEASE/project_km4/asdk/../toolchain/linux/asdk-10.3.1/linux/newlib/lib/gcc/arm-none-eabi/10.3.1/thumb/v8-m.main+fp/fpu/libgcc.a(_arm_muldf3.o)
                              /home/zjian_zhang/Dplus_Z/project/realtek_amebaDplus_va0_example/GCC-RELEASE/project_km4/asdk/../toolchain/linux/asdk-10.3.1/linux/newlib/arm-none-eabi/lib/thumb/v8-m.main+fp/fpu/libc.a(lib_a-svfprintf.o) (__aeabi_dmul)
/home/zjian_zhang/Dplus_Z/project/realtek_amebaDplus_va0_example/GCC-RELEASE/project_km4/asdk/../toolchain/linux/asdk-10.3.1/linux/newlib/lib/gcc/arm-none-eabi/10.3.1/thumb/v8-m.main+fp/fpu/libgcc.a(_arm_addsubdf3.o)
                              /home/zjian_zhang/Dplus_Z/project/realtek_amebaDplus_va0_example/GCC-RELEASE/project_km4/asdk/../toolchain/linux/asdk-10.3.1/linux/newlib/arm-none-eabi/lib/thumb/v8-m.main+fp/fpu/libc.a(lib_a-svfprintf.o) (__aeabi_dsub)
/home/zjian_zhang/Dplus_Z/project/realtek_amebaDplus_va0_example/GCC-RELEASE/project_km4/asdk/../toolchain/linux/asdk-10.3.1/linux/newlib/lib/gcc/arm-none-eabi/10.3.1/thumb/v8-m.main+fp/fpu/libgcc.a(_arm_muldivdf3.o)
                              /home/zjian_zhang/Dplus_Z/project/realtek_amebaDplus_va0_example/GCC-RELEASE/project_km4/asdk/../toolchain/linux/asdk-10.3.1/linux/newlib/arm-none-eabi/lib/thumb/v8-m.main+fp/fpu/libc.a(lib_a-dtoa.o) (__aeabi_ddiv)
/home/zjian_zhang/Dplus_Z/project/realtek_amebaDplus_va0_example/GCC-RELEASE/project_km4/asdk/../toolchain/linux/asdk-10.3.1/linux/newlib/lib/gcc/arm-none-eabi/10.3.1/thumb/v8-m.main+fp/fpu/libgcc.a(_arm_cmpdf2.o)
                              /home/zjian_zhang/Dplus_Z/project/realtek_amebaDplus_va0_example/GCC-RELEASE/project_km4/asdk/../toolchain/linux/asdk-10.3.1/linux/newlib/arm-none-eabi/lib/thumb/v8-m.main+fp/fpu/libc.a(lib_a-svfprintf.o) (__aeabi_dcmpeq)
/home/zjian_zhang/Dplus_Z/project/realtek_amebaDplus_va0_example/GCC-RELEASE/project_km4/asdk/../toolchain/linux/asdk-10.3.1/linux/newlib/lib/gcc/arm-none-eabi/10.3.1/thumb/v8-m.main+fp/fpu/libgcc.a(_arm_unorddf2.o)
                              /home/zjian_zhang/Dplus_Z/project/realtek_amebaDplus_va0_example/GCC-RELEASE/project_km4/asdk/../toolchain/linux/asdk-10.3.1/linux/newlib/arm-none-eabi/lib/thumb/v8-m.main+fp/fpu/libc.a(lib_a-svfprintf.o) (__aeabi_dcmpun)
/home/zjian_zhang/Dplus_Z/project/realtek_amebaDplus_va0_example/GCC-RELEASE/project_km4/asdk/../toolchain/linux/asdk-10.3.1/linux/newlib/lib/gcc/arm-none-eabi/10.3.1/thumb/v8-m.main+fp/fpu/libgcc.a(_arm_fixdfsi.o)
                              /home/zjian_zhang/Dplus_Z/project/realtek_amebaDplus_va0_example/GCC-RELEASE/project_km4/asdk/../toolchain/linux/asdk-10.3.1/linux/newlib/arm-none-eabi/lib/thumb/v8-m.main+fp/fpu/libc.a(lib_a-svfprintf.o) (__aeabi_d2iz)
/home/zjian_zhang/Dplus_Z/project/realtek_amebaDplus_va0_example/GCC-RELEASE/project_km4/asdk/../toolchain/linux/asdk-10.3.1/linux/newlib/lib/gcc/arm-none-eabi/10.3.1/thumb/v8-m.main+fp/fpu/libgcc.a(_arm_fixunsdfsi.o)
                              /home/zjian_zhang/Dplus_Z/project/realtek_amebaDplus_va0_example/GCC-RELEASE/project_km4/asdk/../toolchain/linux/asdk-10.3.1/linux/newlib/arm-none-eabi/lib/thumb/v8-m.main+fp/fpu/libc.a(lib_a-strtod.o) (__aeabi_d2uiz)
/home/zjian_zhang/Dplus_Z/project/realtek_amebaDplus_va0_example/GCC-RELEASE/project_km4/asdk/../toolchain/linux/asdk-10.3.1/linux/newlib/lib/gcc/arm-none-eabi/10.3.1/thumb/v8-m.main+fp/fpu/libgcc.a(_arm_truncdfsf2.o)
                              /home/zjian_zhang/Dplus_Z/project/realtek_amebaDplus_va0_example/GCC-RELEASE/project_km4/asdk/../toolchain/linux/asdk-10.3.1/linux/newlib/arm-none-eabi/lib/thumb/v8-m.main+fp/fpu/libc.a(lib_a-svfscanf.o) (__aeabi_d2f)
/home/zjian_zhang/Dplus_Z/project/realtek_amebaDplus_va0_example/GCC-RELEASE/project_km4/asdk/../toolchain/linux/asdk-10.3.1/linux/newlib/lib/gcc/arm-none-eabi/10.3.1/thumb/v8-m.main+fp/fpu/libgcc.a(_aeabi_uldivmod.o)
                              /home/zjian_zhang/Dplus_Z/project/realtek_amebaDplus_va0_example/GCC-RELEASE/project_km4/asdk/../toolchain/linux/asdk-10.3.1/linux/newlib/arm-none-eabi/lib/thumb/v8-m.main+fp/fpu/libc.a(lib_a-svfprintf.o) (__aeabi_uldivmod)
/home/zjian_zhang/Dplus_Z/project/realtek_amebaDplus_va0_example/GCC-RELEASE/project_km4/asdk/../toolchain/linux/asdk-10.3.1/linux/newlib/lib/gcc/arm-none-eabi/10.3.1/thumb/v8-m.main+fp/fpu/libgcc.a(_fixdfdi.o)
                              /home/zjian_zhang/Dplus_Z/project/realtek_amebaDplus_va0_example/GCC-RELEASE/project_km4/asdk/../toolchain/linux/asdk-10.3.1/linux/newlib/arm-none-eabi/lib/thumb/v8-m.main+fp/fpu/libc.a(lib_a-strtod.o) (__aeabi_d2lz)
/home/zjian_zhang/Dplus_Z/project/realtek_amebaDplus_va0_example/GCC-RELEASE/project_km4/asdk/../toolchain/linux/asdk-10.3.1/linux/newlib/lib/gcc/arm-none-eabi/10.3.1/thumb/v8-m.main+fp/fpu/libgcc.a(_fixunsdfdi.o)
                              /home/zjian_zhang/Dplus_Z/project/realtek_amebaDplus_va0_example/GCC-RELEASE/project_km4/asdk/../toolchain/linux/asdk-10.3.1/linux/newlib/lib/gcc/arm-none-eabi/10.3.1/thumb/v8-m.main+fp/fpu/libgcc.a(_fixdfdi.o) (__aeabi_d2ulz)
/home/zjian_zhang/Dplus_Z/project/realtek_amebaDplus_va0_example/GCC-RELEASE/project_km4/asdk/../toolchain/linux/asdk-10.3.1/linux/newlib/lib/gcc/arm-none-eabi/10.3.1/thumb/v8-m.main+fp/fpu/libgcc.a(_udivmoddi4.o)
                              /home/zjian_zhang/Dplus_Z/project/realtek_amebaDplus_va0_example/GCC-RELEASE/project_km4/asdk/../toolchain/linux/asdk-10.3.1/linux/newlib/lib/gcc/arm-none-eabi/10.3.1/thumb/v8-m.main+fp/fpu/libgcc.a(_aeabi_uldivmod.o) (__udivmoddi4)
/home/zjian_zhang/Dplus_Z/project/realtek_amebaDplus_va0_example/GCC-RELEASE/project_km4/asdk/../toolchain/linux/asdk-10.3.1/linux/newlib/lib/gcc/arm-none-eabi/10.3.1/thumb/v8-m.main+fp/fpu/libgcc.a(_dvmd_tls.o)
                              /home/zjian_zhang/Dplus_Z/project/realtek_amebaDplus_va0_example/GCC-RELEASE/project_km4/asdk/../toolchain/linux/asdk-10.3.1/linux/newlib/lib/gcc/arm-none-eabi/10.3.1/thumb/v8-m.main+fp/fpu/libgcc.a(_aeabi_uldivmod.o) (__aeabi_ldiv0)
/home/zjian_zhang/Dplus_Z/project/realtek_amebaDplus_va0_example/GCC-RELEASE/project_km4/asdk/../toolchain/linux/asdk-10.3.1/linux/newlib/arm-none-eabi/lib/thumb/v8-m.main+fp/fpu/libnosys.a(close.o)
                              /home/zjian_zhang/Dplus_Z/project/realtek_amebaDplus_va0_example/GCC-RELEASE/project_km4/asdk/../toolchain/linux/asdk-10.3.1/linux/newlib/arm-none-eabi/lib/thumb/v8-m.main+fp/fpu/libc.a(lib_a-closer.o) (_close)
/home/zjian_zhang/Dplus_Z/project/realtek_amebaDplus_va0_example/GCC-RELEASE/project_km4/asdk/../toolchain/linux/asdk-10.3.1/linux/newlib/arm-none-eabi/lib/thumb/v8-m.main+fp/fpu/libnosys.a(fstat.o)
                              /home/zjian_zhang/Dplus_Z/project/realtek_amebaDplus_va0_example/GCC-RELEASE/project_km4/asdk/../toolchain/linux/asdk-10.3.1/linux/newlib/arm-none-eabi/lib/thumb/v8-m.main+fp/fpu/libc.a(lib_a-fstatr.o) (_fstat)
/home/zjian_zhang/Dplus_Z/project/realtek_amebaDplus_va0_example/GCC-RELEASE/project_km4/asdk/../toolchain/linux/asdk-10.3.1/linux/newlib/arm-none-eabi/lib/thumb/v8-m.main+fp/fpu/libnosys.a(getpid.o)
                              /home/zjian_zhang/Dplus_Z/project/realtek_amebaDplus_va0_example/GCC-RELEASE/project_km4/asdk/../toolchain/linux/asdk-10.3.1/linux/newlib/arm-none-eabi/lib/thumb/v8-m.main+fp/fpu/libc.a(lib_a-signalr.o) (_getpid)
/home/zjian_zhang/Dplus_Z/project/realtek_amebaDplus_va0_example/GCC-RELEASE/project_km4/asdk/../toolchain/linux/asdk-10.3.1/linux/newlib/arm-none-eabi/lib/thumb/v8-m.main+fp/fpu/libnosys.a(isatty.o)
                              /home/zjian_zhang/Dplus_Z/project/realtek_amebaDplus_va0_example/GCC-RELEASE/project_km4/asdk/../toolchain/linux/asdk-10.3.1/linux/newlib/arm-none-eabi/lib/thumb/v8-m.main+fp/fpu/libc.a(lib_a-isattyr.o) (_isatty)
/home/zjian_zhang/Dplus_Z/project/realtek_amebaDplus_va0_example/GCC-RELEASE/project_km4/asdk/../toolchain/linux/asdk-10.3.1/linux/newlib/arm-none-eabi/lib/thumb/v8-m.main+fp/fpu/libnosys.a(kill.o)
                              /home/zjian_zhang/Dplus_Z/project/realtek_amebaDplus_va0_example/GCC-RELEASE/project_km4/asdk/../toolchain/linux/asdk-10.3.1/linux/newlib/arm-none-eabi/lib/thumb/v8-m.main+fp/fpu/libc.a(lib_a-signalr.o) (_kill)
/home/zjian_zhang/Dplus_Z/project/realtek_amebaDplus_va0_example/GCC-RELEASE/project_km4/asdk/../toolchain/linux/asdk-10.3.1/linux/newlib/arm-none-eabi/lib/thumb/v8-m.main+fp/fpu/libnosys.a(lseek.o)
                              /home/zjian_zhang/Dplus_Z/project/realtek_amebaDplus_va0_example/GCC-RELEASE/project_km4/asdk/../toolchain/linux/asdk-10.3.1/linux/newlib/arm-none-eabi/lib/thumb/v8-m.main+fp/fpu/libc.a(lib_a-lseekr.o) (_lseek)
/home/zjian_zhang/Dplus_Z/project/realtek_amebaDplus_va0_example/GCC-RELEASE/project_km4/asdk/../toolchain/linux/asdk-10.3.1/linux/newlib/arm-none-eabi/lib/thumb/v8-m.main+fp/fpu/libnosys.a(sbrk.o)
                              /home/zjian_zhang/Dplus_Z/project/realtek_amebaDplus_va0_example/GCC-RELEASE/project_km4/asdk/../toolchain/linux/asdk-10.3.1/linux/newlib/arm-none-eabi/lib/thumb/v8-m.main+fp/fpu/libc.a(lib_a-sbrkr.o) (_sbrk)
/home/zjian_zhang/Dplus_Z/project/realtek_amebaDplus_va0_example/GCC-RELEASE/project_km4/asdk/../toolchain/linux/asdk-10.3.1/linux/newlib/arm-none-eabi/lib/thumb/v8-m.main+fp/fpu/libnosys.a(_exit.o)
                              /home/zjian_zhang/Dplus_Z/project/realtek_amebaDplus_va0_example/GCC-RELEASE/project_km4/asdk/../toolchain/linux/asdk-10.3.1/linux/newlib/arm-none-eabi/lib/thumb/v8-m.main+fp/fpu/libc.a(lib_a-abort.o) (_exit)

Memory Configuration

Name             Origin             Length             Attributes
EMPTY_SECTION    0x0000000000000000 0x0000000000000000 xrw
KM4_IROM         0x0000000000000000 0x000000000001e000 xr
KM4_IROM_NS      0x000000000001e000 0x0000000000015000 xr
KM4_IROM_STDLIB_NS 0x0000000000033000 0x000000000000f000 xr
KM4_DROM_NS      0x0000000000042000 0x0000000000002800 xr
KM4_DROM         0x0000000000044800 0x0000000000003800 xr
KM4_ROMBSS_RAM_S 0x0000000030007000 0x0000000000001000 rw
KM4_MSP_RAM_S    0x0000000030008000 0x0000000000002000 rw
KM4_BOOTLOADER_RAM_S 0x000000003000a020 0x0000000000005fe0 xrw
KM4_FLOADER_RAM_S 0x000000003000a020 0x0000000000015fe0 xrw
KM4_MSP_RAM_NS   0x0000000020003000 0x0000000000001000 rw
KM4_ROMBSS_RAM_COM 0x0000000020004000 0x0000000000001000 rw
KM4_ROMBSS_RAM_NS 0x0000000020005000 0x0000000000001000 rw
KM4_STDLIB_HEAP_RAM_NS 0x0000000020006000 0x0000000000001000 rw
KM0_BOOT_RAM     0x0000000020004d20 0x0000000000000020 xrw
KM0_IPC_RAM      0x0000000020004e00 0x00000000000001e0 xrw
KM4_BD_RAM       0x0000000020010020 0x000000000003ffe0 xrw
KM0_BD_RAM       0x0000000020050020 0x000000000001ffe0 xrw
KM4_BD_RAM_TZ_NSC 0x0000000020070020 0x0000000000000fe0 xrw
KM4_BD_RAM_TZ_ENTRY 0x0000000020071000 0x0000000000004000 xrw
KM4_BD_RAM_TZ_S  0x0000000030075020 0x000000000000afe0 xrw
KM4_BD_PSRAM     0x0000000060000020 0x000000000015afe0 xrw
KM0_BD_PSRAM     0x0000000060180020 0x000000000017ffe0 xrw
KM4_BD_PSRAM_TZ_NSC 0x000000006015b020 0x0000000000000fe0 xrw
KM4_BD_PSRAM_TZ_ENTRY 0x000000006015c000 0x0000000000004000 xrw
KM4_BD_PSRAM_TZ_S 0x0000000070160020 0x000000000001ffe0 xrw
RETENTION_RAM    0x0000000041008e00 0x0000000000000200 xrw
KM0_IROM         0x0000000000000000 0x0000000000006000 xr
KM0_IROM_STDLIB  0x0000000000006000 0x0000000000004000 xr
KM0_DROM         0x000000000000a000 0x0000000000001000 xr
WIFI_ROM         0x000000000000b000 0x000000000001d000 xr
KM0_ROMBSS_RAM   0x0000000020000000 0x0000000000001000 rw
KM0_MSP_RAM      0x0000000020001000 0x0000000000001000 rw
KM0_STDLIB_HEAP_RAM 0x0000000020002000 0x0000000000001000 rw
PHY_IMG1         0x0000000008001020 0x0000000000005fe0 xr
PHY_IMG2         0x0000000008014000 0x00000000001cc000 xr
KM4_IMG3         0x00000000081e0000 0x0000000000020000 xr
KM4_BOOT_XIP     0x000000000f800020 0x00000000007fffe0 xr
KM0_IMG2_XIP     0x000000000c000020 0x0000000001ffffe0 xr
KM4_IMG2_XIP     0x000000000e000020 0x00000000017fffe0 xr
BTRACE           0x00000000c8800000 0x0000000000800000 xr
*default*        0x0000000000000000 0xffffffffffffffff

Linker script and memory map

LOAD ./build/stdlib/stdlib_link.o
START GROUP
LOAD /home/zjian_zhang/Dplus_Z/project/realtek_amebaDplus_va0_example/GCC-RELEASE/project_km4/asdk/../toolchain/linux/asdk-10.3.1/linux/newlib/lib/gcc/arm-none-eabi/10.3.1/thumb/v8-m.main+fp/fpu/libgcc.a
LOAD /home/zjian_zhang/Dplus_Z/project/realtek_amebaDplus_va0_example/GCC-RELEASE/project_km4/asdk/../toolchain/linux/asdk-10.3.1/linux/newlib/arm-none-eabi/lib/thumb/v8-m.main+fp/fpu/libc.a
END GROUP
START GROUP
LOAD /home/zjian_zhang/Dplus_Z/project/realtek_amebaDplus_va0_example/GCC-RELEASE/project_km4/asdk/../toolchain/linux/asdk-10.3.1/linux/newlib/lib/gcc/arm-none-eabi/10.3.1/thumb/v8-m.main+fp/fpu/libgcc.a
LOAD /home/zjian_zhang/Dplus_Z/project/realtek_amebaDplus_va0_example/GCC-RELEASE/project_km4/asdk/../toolchain/linux/asdk-10.3.1/linux/newlib/arm-none-eabi/lib/thumb/v8-m.main+fp/fpu/libc.a
LOAD /home/zjian_zhang/Dplus_Z/project/realtek_amebaDplus_va0_example/GCC-RELEASE/project_km4/asdk/../toolchain/linux/asdk-10.3.1/linux/newlib/arm-none-eabi/lib/thumb/v8-m.main+fp/fpu/libnosys.a
END GROUP
                0x0000000020050020                __km0_image2_entry_func__ = ORIGIN (KM0_BD_RAM)
                0x0000000020004e00                __km0_ipc_memory_start__ = ORIGIN (KM0_IPC_RAM)
                0x000000000c000020                __km0_flash_text_start__ = ORIGIN (KM0_IMG2_XIP)
                0x000000000e000020                __km4_flash_text_start__ = ORIGIN (KM4_IMG2_XIP)
                0x0000000060180020                __km0_psram_text_start__ = ORIGIN (KM0_BD_PSRAM)
                0x000000000f800020                __km4_boot_text_start__ = ORIGIN (KM4_BOOT_XIP)
                0x00000000081e0000                __km4_image3_flash_start__ = ORIGIN (KM4_IMG3)
                0x0000000008014000                __nspe_phy_addr__ = ORIGIN (PHY_IMG2)

.rom.rodata     0x0000000000042000        0x0
                0x0000000000042000                __rom_entry_ns_start__ = .

.rom.stdlib.data
                0x0000000020006000      0x9c0
                0x0000000020006000                __rom_stdlib_data_start__ = .
 *(.data*)
 .data          0x0000000020006000        0x0 ./build/stdlib/stdlib_link.o
 .data          0x0000000020006000        0x0 /home/zjian_zhang/Dplus_Z/project/realtek_amebaDplus_va0_example/GCC-RELEASE/project_km4/asdk/../toolchain/linux/asdk-10.3.1/linux/newlib/arm-none-eabi/lib/thumb/v8-m.main+fp/fpu/libc.a(lib_a-atoi.o)
 .data          0x0000000020006000        0x0 /home/zjian_zhang/Dplus_Z/project/realtek_amebaDplus_va0_example/GCC-RELEASE/project_km4/asdk/../toolchain/linux/asdk-10.3.1/linux/newlib/arm-none-eabi/lib/thumb/v8-m.main+fp/fpu/libc.a(lib_a-printf.o)
 .data          0x0000000020006000        0x0 /home/zjian_zhang/Dplus_Z/project/realtek_amebaDplus_va0_example/GCC-RELEASE/project_km4/asdk/../toolchain/linux/asdk-10.3.1/linux/newlib/arm-none-eabi/lib/thumb/v8-m.main+fp/fpu/libc.a(lib_a-putchar.o)
 .data          0x0000000020006000        0x0 /home/zjian_zhang/Dplus_Z/project/realtek_amebaDplus_va0_example/GCC-RELEASE/project_km4/asdk/../toolchain/linux/asdk-10.3.1/linux/newlib/arm-none-eabi/lib/thumb/v8-m.main+fp/fpu/libc.a(lib_a-putc.o)
 .data          0x0000000020006000        0x0 /home/zjian_zhang/Dplus_Z/project/realtek_amebaDplus_va0_example/GCC-RELEASE/project_km4/asdk/../toolchain/linux/asdk-10.3.1/linux/newlib/arm-none-eabi/lib/thumb/v8-m.main+fp/fpu/libc.a(lib_a-puts.o)
 .data          0x0000000020006000        0x0 /home/zjian_zhang/Dplus_Z/project/realtek_amebaDplus_va0_example/GCC-RELEASE/project_km4/asdk/../toolchain/linux/asdk-10.3.1/linux/newlib/arm-none-eabi/lib/thumb/v8-m.main+fp/fpu/libc.a(lib_a-snprintf.o)
 .data          0x0000000020006000        0x0 /home/zjian_zhang/Dplus_Z/project/realtek_amebaDplus_va0_example/GCC-RELEASE/project_km4/asdk/../toolchain/linux/asdk-10.3.1/linux/newlib/arm-none-eabi/lib/thumb/v8-m.main+fp/fpu/libc.a(lib_a-sprintf.o)
 .data          0x0000000020006000        0x0 /home/zjian_zhang/Dplus_Z/project/realtek_amebaDplus_va0_example/GCC-RELEASE/project_km4/asdk/../toolchain/linux/asdk-10.3.1/linux/newlib/arm-none-eabi/lib/thumb/v8-m.main+fp/fpu/libc.a(lib_a-sscanf.o)
 .data          0x0000000020006000        0x0 /home/zjian_zhang/Dplus_Z/project/realtek_amebaDplus_va0_example/GCC-RELEASE/project_km4/asdk/../toolchain/linux/asdk-10.3.1/linux/newlib/arm-none-eabi/lib/thumb/v8-m.main+fp/fpu/libc.a(lib_a-stdio.o)
 .data          0x0000000020006000        0x0 /home/zjian_zhang/Dplus_Z/project/realtek_amebaDplus_va0_example/GCC-RELEASE/project_km4/asdk/../toolchain/linux/asdk-10.3.1/linux/newlib/arm-none-eabi/lib/thumb/v8-m.main+fp/fpu/libc.a(lib_a-strcat.o)
 .data          0x0000000020006000        0x0 /home/zjian_zhang/Dplus_Z/project/realtek_amebaDplus_va0_example/GCC-RELEASE/project_km4/asdk/../toolchain/linux/asdk-10.3.1/linux/newlib/arm-none-eabi/lib/thumb/v8-m.main+fp/fpu/libc.a(lib_a-strchr.o)
 .data          0x0000000020006000        0x0 /home/zjian_zhang/Dplus_Z/project/realtek_amebaDplus_va0_example/GCC-RELEASE/project_km4/asdk/../toolchain/linux/asdk-10.3.1/linux/newlib/arm-none-eabi/lib/thumb/v8-m.main+fp/fpu/libc.a(lib_a-strcpy.o)
 .data          0x0000000020006000        0x0 /home/zjian_zhang/Dplus_Z/project/realtek_amebaDplus_va0_example/GCC-RELEASE/project_km4/asdk/../toolchain/linux/asdk-10.3.1/linux/newlib/arm-none-eabi/lib/thumb/v8-m.main+fp/fpu/libc.a(lib_a-strlen-stub.o)
 .data          0x0000000020006000        0x0 /home/zjian_zhang/Dplus_Z/project/realtek_amebaDplus_va0_example/GCC-RELEASE/project_km4/asdk/../toolchain/linux/asdk-10.3.1/linux/newlib/arm-none-eabi/lib/thumb/v8-m.main+fp/fpu/libc.a(lib_a-strncat.o)
 .data          0x0000000020006000        0x0 /home/zjian_zhang/Dplus_Z/project/realtek_amebaDplus_va0_example/GCC-RELEASE/project_km4/asdk/../toolchain/linux/asdk-10.3.1/linux/newlib/arm-none-eabi/lib/thumb/v8-m.main+fp/fpu/libc.a(lib_a-strncmp.o)
 .data          0x0000000020006000        0x0 /home/zjian_zhang/Dplus_Z/project/realtek_amebaDplus_va0_example/GCC-RELEASE/project_km4/asdk/../toolchain/linux/asdk-10.3.1/linux/newlib/arm-none-eabi/lib/thumb/v8-m.main+fp/fpu/libc.a(lib_a-strncpy.o)
 .data          0x0000000020006000        0x0 /home/zjian_zhang/Dplus_Z/project/realtek_amebaDplus_va0_example/GCC-RELEASE/project_km4/asdk/../toolchain/linux/asdk-10.3.1/linux/newlib/arm-none-eabi/lib/thumb/v8-m.main+fp/fpu/libc.a(lib_a-strpbrk.o)
 .data          0x0000000020006000        0x0 /home/zjian_zhang/Dplus_Z/project/realtek_amebaDplus_va0_example/GCC-RELEASE/project_km4/asdk/../toolchain/linux/asdk-10.3.1/linux/newlib/arm-none-eabi/lib/thumb/v8-m.main+fp/fpu/libc.a(lib_a-strsep.o)
 .data          0x0000000020006000        0x0 /home/zjian_zhang/Dplus_Z/project/realtek_amebaDplus_va0_example/GCC-RELEASE/project_km4/asdk/../toolchain/linux/asdk-10.3.1/linux/newlib/arm-none-eabi/lib/thumb/v8-m.main+fp/fpu/libc.a(lib_a-strstr.o)
 .data          0x0000000020006000        0x0 /home/zjian_zhang/Dplus_Z/project/realtek_amebaDplus_va0_example/GCC-RELEASE/project_km4/asdk/../toolchain/linux/asdk-10.3.1/linux/newlib/arm-none-eabi/lib/thumb/v8-m.main+fp/fpu/libc.a(lib_a-strtok.o)
 .data          0x0000000020006000        0x0 /home/zjian_zhang/Dplus_Z/project/realtek_amebaDplus_va0_example/GCC-RELEASE/project_km4/asdk/../toolchain/linux/asdk-10.3.1/linux/newlib/arm-none-eabi/lib/thumb/v8-m.main+fp/fpu/libc.a(lib_a-strtok_r.o)
 .data          0x0000000020006000        0x0 /home/zjian_zhang/Dplus_Z/project/realtek_amebaDplus_va0_example/GCC-RELEASE/project_km4/asdk/../toolchain/linux/asdk-10.3.1/linux/newlib/arm-none-eabi/lib/thumb/v8-m.main+fp/fpu/libc.a(lib_a-strtol.o)
 .data          0x0000000020006000        0x0 /home/zjian_zhang/Dplus_Z/project/realtek_amebaDplus_va0_example/GCC-RELEASE/project_km4/asdk/../toolchain/linux/asdk-10.3.1/linux/newlib/arm-none-eabi/lib/thumb/v8-m.main+fp/fpu/libc.a(lib_a-svfprintf.o)
 .data          0x0000000020006000        0x0 /home/zjian_zhang/Dplus_Z/project/realtek_amebaDplus_va0_example/GCC-RELEASE/project_km4/asdk/../toolchain/linux/asdk-10.3.1/linux/newlib/arm-none-eabi/lib/thumb/v8-m.main+fp/fpu/libc.a(lib_a-svfscanf.o)
 .data          0x0000000020006000        0x0 /home/zjian_zhang/Dplus_Z/project/realtek_amebaDplus_va0_example/GCC-RELEASE/project_km4/asdk/../toolchain/linux/asdk-10.3.1/linux/newlib/arm-none-eabi/lib/thumb/v8-m.main+fp/fpu/libc.a(lib_a-vfprintf.o)
 .data          0x0000000020006000        0x0 /home/zjian_zhang/Dplus_Z/project/realtek_amebaDplus_va0_example/GCC-RELEASE/project_km4/asdk/../toolchain/linux/asdk-10.3.1/linux/newlib/arm-none-eabi/lib/thumb/v8-m.main+fp/fpu/libc.a(lib_a-vsnprintf.o)
 .data          0x0000000020006000        0x0 /home/zjian_zhang/Dplus_Z/project/realtek_amebaDplus_va0_example/GCC-RELEASE/project_km4/asdk/../toolchain/linux/asdk-10.3.1/linux/newlib/arm-none-eabi/lib/thumb/v8-m.main+fp/fpu/libc.a(lib_a-wbuf.o)
 .data          0x0000000020006000        0x0 /home/zjian_zhang/Dplus_Z/project/realtek_amebaDplus_va0_example/GCC-RELEASE/project_km4/asdk/../toolchain/linux/asdk-10.3.1/linux/newlib/arm-none-eabi/lib/thumb/v8-m.main+fp/fpu/libc.a(lib_a-writer.o)
 .data          0x0000000020006000        0x0 /home/zjian_zhang/Dplus_Z/project/realtek_amebaDplus_va0_example/GCC-RELEASE/project_km4/asdk/../toolchain/linux/asdk-10.3.1/linux/newlib/arm-none-eabi/lib/thumb/v8-m.main+fp/fpu/libc.a(lib_a-wsetup.o)
 .data          0x0000000020006000        0x0 /home/zjian_zhang/Dplus_Z/project/realtek_amebaDplus_va0_example/GCC-RELEASE/project_km4/asdk/../toolchain/linux/asdk-10.3.1/linux/newlib/arm-none-eabi/lib/thumb/v8-m.main+fp/fpu/libc.a(lib_a-closer.o)
 .data          0x0000000020006000        0x0 /home/zjian_zhang/Dplus_Z/project/realtek_amebaDplus_va0_example/GCC-RELEASE/project_km4/asdk/../toolchain/linux/asdk-10.3.1/linux/newlib/arm-none-eabi/lib/thumb/v8-m.main+fp/fpu/libc.a(lib_a-ctype_.o)
 .data          0x0000000020006000        0x0 /home/zjian_zhang/Dplus_Z/project/realtek_amebaDplus_va0_example/GCC-RELEASE/project_km4/asdk/../toolchain/linux/asdk-10.3.1/linux/newlib/arm-none-eabi/lib/thumb/v8-m.main+fp/fpu/libc.a(lib_a-dtoa.o)
 .data          0x0000000020006000        0x0 /home/zjian_zhang/Dplus_Z/project/realtek_amebaDplus_va0_example/GCC-RELEASE/project_km4/asdk/../toolchain/linux/asdk-10.3.1/linux/newlib/arm-none-eabi/lib/thumb/v8-m.main+fp/fpu/libc.a(lib_a-errno.o)
 .data          0x0000000020006000        0x0 /home/zjian_zhang/Dplus_Z/project/realtek_amebaDplus_va0_example/GCC-RELEASE/project_km4/asdk/../toolchain/linux/asdk-10.3.1/linux/newlib/arm-none-eabi/lib/thumb/v8-m.main+fp/fpu/libc.a(lib_a-fflush.o)
 .data          0x0000000020006000        0x0 /home/zjian_zhang/Dplus_Z/project/realtek_amebaDplus_va0_example/GCC-RELEASE/project_km4/asdk/../toolchain/linux/asdk-10.3.1/linux/newlib/arm-none-eabi/lib/thumb/v8-m.main+fp/fpu/libc.a(lib_a-findfp.o)
 .data          0x0000000020006000        0x0 /home/zjian_zhang/Dplus_Z/project/realtek_amebaDplus_va0_example/GCC-RELEASE/project_km4/asdk/../toolchain/linux/asdk-10.3.1/linux/newlib/arm-none-eabi/lib/thumb/v8-m.main+fp/fpu/libc.a(lib_a-free.o)
 .data          0x0000000020006000        0x0 /home/zjian_zhang/Dplus_Z/project/realtek_amebaDplus_va0_example/GCC-RELEASE/project_km4/asdk/../toolchain/linux/asdk-10.3.1/linux/newlib/arm-none-eabi/lib/thumb/v8-m.main+fp/fpu/libc.a(lib_a-freer.o)
 .data          0x0000000020006000        0x0 /home/zjian_zhang/Dplus_Z/project/realtek_amebaDplus_va0_example/GCC-RELEASE/project_km4/asdk/../toolchain/linux/asdk-10.3.1/linux/newlib/arm-none-eabi/lib/thumb/v8-m.main+fp/fpu/libc.a(lib_a-fvwrite.o)
 .data          0x0000000020006000        0x0 /home/zjian_zhang/Dplus_Z/project/realtek_amebaDplus_va0_example/GCC-RELEASE/project_km4/asdk/../toolchain/linux/asdk-10.3.1/linux/newlib/arm-none-eabi/lib/thumb/v8-m.main+fp/fpu/libc.a(lib_a-fwalk.o)
 .data          0x0000000020006000      0x430 /home/zjian_zhang/Dplus_Z/project/realtek_amebaDplus_va0_example/GCC-RELEASE/project_km4/asdk/../toolchain/linux/asdk-10.3.1/linux/newlib/arm-none-eabi/lib/thumb/v8-m.main+fp/fpu/libc.a(lib_a-impure.o)
                0x0000000020006000                _impure_ptr
 .data          0x0000000020006430        0x0 /home/zjian_zhang/Dplus_Z/project/realtek_amebaDplus_va0_example/GCC-RELEASE/project_km4/asdk/../toolchain/linux/asdk-10.3.1/linux/newlib/arm-none-eabi/lib/thumb/v8-m.main+fp/fpu/libc.a(lib_a-iswspace.o)
 .data          0x0000000020006430        0x0 /home/zjian_zhang/Dplus_Z/project/realtek_amebaDplus_va0_example/GCC-RELEASE/project_km4/asdk/../toolchain/linux/asdk-10.3.1/linux/newlib/arm-none-eabi/lib/thumb/v8-m.main+fp/fpu/libc.a(lib_a-localeconv.o)
 .data          0x0000000020006430      0x16c /home/zjian_zhang/Dplus_Z/project/realtek_amebaDplus_va0_example/GCC-RELEASE/project_km4/asdk/../toolchain/linux/asdk-10.3.1/linux/newlib/arm-none-eabi/lib/thumb/v8-m.main+fp/fpu/libc.a(lib_a-locale.o)
                0x0000000020006430                __global_locale
 .data          0x000000002000659c        0x0 /home/zjian_zhang/Dplus_Z/project/realtek_amebaDplus_va0_example/GCC-RELEASE/project_km4/asdk/../toolchain/linux/asdk-10.3.1/linux/newlib/arm-none-eabi/lib/thumb/v8-m.main+fp/fpu/libc.a(lib_a-lock.o)
 .data          0x000000002000659c        0x0 /home/zjian_zhang/Dplus_Z/project/realtek_amebaDplus_va0_example/GCC-RELEASE/project_km4/asdk/../toolchain/linux/asdk-10.3.1/linux/newlib/arm-none-eabi/lib/thumb/v8-m.main+fp/fpu/libc.a(lib_a-lseekr.o)
 .data          0x000000002000659c        0x0 /home/zjian_zhang/Dplus_Z/project/realtek_amebaDplus_va0_example/GCC-RELEASE/project_km4/asdk/../toolchain/linux/asdk-10.3.1/linux/newlib/arm-none-eabi/lib/thumb/v8-m.main+fp/fpu/libc.a(lib_a-makebuf.o)
 .data          0x000000002000659c        0x0 /home/zjian_zhang/Dplus_Z/project/realtek_amebaDplus_va0_example/GCC-RELEASE/project_km4/asdk/../toolchain/linux/asdk-10.3.1/linux/newlib/arm-none-eabi/lib/thumb/v8-m.main+fp/fpu/libc.a(lib_a-malloc.o)
 .data          0x000000002000659c      0x410 /home/zjian_zhang/Dplus_Z/project/realtek_amebaDplus_va0_example/GCC-RELEASE/project_km4/asdk/../toolchain/linux/asdk-10.3.1/linux/newlib/arm-none-eabi/lib/thumb/v8-m.main+fp/fpu/libc.a(lib_a-mallocr.o)
                0x000000002000659c                __malloc_av_
                0x00000000200069a4                __malloc_sbrk_base
                0x00000000200069a8                __malloc_trim_threshold
 .data          0x00000000200069ac        0x0 /home/zjian_zhang/Dplus_Z/project/realtek_amebaDplus_va0_example/GCC-RELEASE/project_km4/asdk/../toolchain/linux/asdk-10.3.1/linux/newlib/arm-none-eabi/lib/thumb/v8-m.main+fp/fpu/libc.a(lib_a-mbrtowc.o)
 .data          0x00000000200069ac        0x0 /home/zjian_zhang/Dplus_Z/project/realtek_amebaDplus_va0_example/GCC-RELEASE/project_km4/asdk/../toolchain/linux/asdk-10.3.1/linux/newlib/arm-none-eabi/lib/thumb/v8-m.main+fp/fpu/libc.a(lib_a-mbtowc_r.o)
 .data          0x00000000200069ac        0x0 /home/zjian_zhang/Dplus_Z/project/realtek_amebaDplus_va0_example/GCC-RELEASE/project_km4/asdk/../toolchain/linux/asdk-10.3.1/linux/newlib/arm-none-eabi/lib/thumb/v8-m.main+fp/fpu/libc.a(lib_a-memchr-stub.o)
 .data          0x00000000200069ac        0x0 /home/zjian_zhang/Dplus_Z/project/realtek_amebaDplus_va0_example/GCC-RELEASE/project_km4/asdk/../toolchain/linux/asdk-10.3.1/linux/newlib/arm-none-eabi/lib/thumb/v8-m.main+fp/fpu/libc.a(lib_a-memcmp.o)
 .data          0x00000000200069ac        0x0 /home/zjian_zhang/Dplus_Z/project/realtek_amebaDplus_va0_example/GCC-RELEASE/project_km4/asdk/../toolchain/linux/asdk-10.3.1/linux/newlib/arm-none-eabi/lib/thumb/v8-m.main+fp/fpu/libc.a(lib_a-memcpy.o)
 .data          0x00000000200069ac        0x0 /home/zjian_zhang/Dplus_Z/project/realtek_amebaDplus_va0_example/GCC-RELEASE/project_km4/asdk/../toolchain/linux/asdk-10.3.1/linux/newlib/arm-none-eabi/lib/thumb/v8-m.main+fp/fpu/libc.a(lib_a-memmove.o)
 .data          0x00000000200069ac        0x0 /home/zjian_zhang/Dplus_Z/project/realtek_amebaDplus_va0_example/GCC-RELEASE/project_km4/asdk/../toolchain/linux/asdk-10.3.1/linux/newlib/arm-none-eabi/lib/thumb/v8-m.main+fp/fpu/libc.a(lib_a-memset-stub.o)
 .data          0x00000000200069ac        0x0 /home/zjian_zhang/Dplus_Z/project/realtek_amebaDplus_va0_example/GCC-RELEASE/project_km4/asdk/../toolchain/linux/asdk-10.3.1/linux/newlib/arm-none-eabi/lib/thumb/v8-m.main+fp/fpu/libc.a(lib_a-mlock.o)
 .data          0x00000000200069ac        0x0 /home/zjian_zhang/Dplus_Z/project/realtek_amebaDplus_va0_example/GCC-RELEASE/project_km4/asdk/../toolchain/linux/asdk-10.3.1/linux/newlib/arm-none-eabi/lib/thumb/v8-m.main+fp/fpu/libc.a(lib_a-mprec.o)
 .data          0x00000000200069ac        0x0 /home/zjian_zhang/Dplus_Z/project/realtek_amebaDplus_va0_example/GCC-RELEASE/project_km4/asdk/../toolchain/linux/asdk-10.3.1/linux/newlib/arm-none-eabi/lib/thumb/v8-m.main+fp/fpu/libc.a(lib_a-readr.o)
 .data          0x00000000200069ac        0x0 /home/zjian_zhang/Dplus_Z/project/realtek_amebaDplus_va0_example/GCC-RELEASE/project_km4/asdk/../toolchain/linux/asdk-10.3.1/linux/newlib/arm-none-eabi/lib/thumb/v8-m.main+fp/fpu/libc.a(lib_a-realloc.o)
 .data          0x00000000200069ac        0x0 /home/zjian_zhang/Dplus_Z/project/realtek_amebaDplus_va0_example/GCC-RELEASE/project_km4/asdk/../toolchain/linux/asdk-10.3.1/linux/newlib/arm-none-eabi/lib/thumb/v8-m.main+fp/fpu/libc.a(lib_a-reallocr.o)
 .data          0x00000000200069ac        0x0 /home/zjian_zhang/Dplus_Z/project/realtek_amebaDplus_va0_example/GCC-RELEASE/project_km4/asdk/../toolchain/linux/asdk-10.3.1/linux/newlib/arm-none-eabi/lib/thumb/v8-m.main+fp/fpu/libc.a(lib_a-reent.o)
 .data          0x00000000200069ac        0x0 /home/zjian_zhang/Dplus_Z/project/realtek_amebaDplus_va0_example/GCC-RELEASE/project_km4/asdk/../toolchain/linux/asdk-10.3.1/linux/newlib/arm-none-eabi/lib/thumb/v8-m.main+fp/fpu/libc.a(lib_a-sbrkr.o)
 .data          0x00000000200069ac        0x0 /home/zjian_zhang/Dplus_Z/project/realtek_amebaDplus_va0_example/GCC-RELEASE/project_km4/asdk/../toolchain/linux/asdk-10.3.1/linux/newlib/arm-none-eabi/lib/thumb/v8-m.main+fp/fpu/libc.a(lib_a-sccl.o)
 .data          0x00000000200069ac        0x0 /home/zjian_zhang/Dplus_Z/project/realtek_amebaDplus_va0_example/GCC-RELEASE/project_km4/asdk/../toolchain/linux/asdk-10.3.1/linux/newlib/arm-none-eabi/lib/thumb/v8-m.main+fp/fpu/libc.a(lib_a-sf_nan.o)
 .data          0x00000000200069ac        0x0 /home/zjian_zhang/Dplus_Z/project/realtek_amebaDplus_va0_example/GCC-RELEASE/project_km4/asdk/../toolchain/linux/asdk-10.3.1/linux/newlib/arm-none-eabi/lib/thumb/v8-m.main+fp/fpu/libc.a(lib_a-s_frexp.o)
 .data          0x00000000200069ac        0x0 /home/zjian_zhang/Dplus_Z/project/realtek_amebaDplus_va0_example/GCC-RELEASE/project_km4/asdk/../toolchain/linux/asdk-10.3.1/linux/newlib/arm-none-eabi/lib/thumb/v8-m.main+fp/fpu/libc.a(lib_a-strcmp.o)
 .data          0x00000000200069ac        0x0 /home/zjian_zhang/Dplus_Z/project/realtek_amebaDplus_va0_example/GCC-RELEASE/project_km4/asdk/../toolchain/linux/asdk-10.3.1/linux/newlib/arm-none-eabi/lib/thumb/v8-m.main+fp/fpu/libc.a(lib_a-strnlen.o)
 .data          0x00000000200069ac        0x0 /home/zjian_zhang/Dplus_Z/project/realtek_amebaDplus_va0_example/GCC-RELEASE/project_km4/asdk/../toolchain/linux/asdk-10.3.1/linux/newlib/arm-none-eabi/lib/thumb/v8-m.main+fp/fpu/libc.a(lib_a-strtod.o)
 .data          0x00000000200069ac        0x0 /home/zjian_zhang/Dplus_Z/project/realtek_amebaDplus_va0_example/GCC-RELEASE/project_km4/asdk/../toolchain/linux/asdk-10.3.1/linux/newlib/arm-none-eabi/lib/thumb/v8-m.main+fp/fpu/libc.a(lib_a-strtoll.o)
 .data          0x00000000200069ac        0x0 /home/zjian_zhang/Dplus_Z/project/realtek_amebaDplus_va0_example/GCC-RELEASE/project_km4/asdk/../toolchain/linux/asdk-10.3.1/linux/newlib/arm-none-eabi/lib/thumb/v8-m.main+fp/fpu/libc.a(lib_a-strtoull.o)
 .data          0x00000000200069ac        0x0 /home/zjian_zhang/Dplus_Z/project/realtek_amebaDplus_va0_example/GCC-RELEASE/project_km4/asdk/../toolchain/linux/asdk-10.3.1/linux/newlib/arm-none-eabi/lib/thumb/v8-m.main+fp/fpu/libc.a(lib_a-strtoul.o)
 .data          0x00000000200069ac        0x0 /home/zjian_zhang/Dplus_Z/project/realtek_amebaDplus_va0_example/GCC-RELEASE/project_km4/asdk/../toolchain/linux/asdk-10.3.1/linux/newlib/arm-none-eabi/lib/thumb/v8-m.main+fp/fpu/libc.a(lib_a-svfiprintf.o)
 .data          0x00000000200069ac        0x0 /home/zjian_zhang/Dplus_Z/project/realtek_amebaDplus_va0_example/GCC-RELEASE/project_km4/asdk/../toolchain/linux/asdk-10.3.1/linux/newlib/arm-none-eabi/lib/thumb/v8-m.main+fp/fpu/libc.a(lib_a-svfiscanf.o)
 .data          0x00000000200069ac        0x0 /home/zjian_zhang/Dplus_Z/project/realtek_amebaDplus_va0_example/GCC-RELEASE/project_km4/asdk/../toolchain/linux/asdk-10.3.1/linux/newlib/arm-none-eabi/lib/thumb/v8-m.main+fp/fpu/libc.a(lib_a-ungetc.o)
 .data          0x00000000200069ac        0x0 /home/zjian_zhang/Dplus_Z/project/realtek_amebaDplus_va0_example/GCC-RELEASE/project_km4/asdk/../toolchain/linux/asdk-10.3.1/linux/newlib/arm-none-eabi/lib/thumb/v8-m.main+fp/fpu/libc.a(lib_a-vfiprintf.o)
 .data          0x00000000200069ac        0x0 /home/zjian_zhang/Dplus_Z/project/realtek_amebaDplus_va0_example/GCC-RELEASE/project_km4/asdk/../toolchain/linux/asdk-10.3.1/linux/newlib/arm-none-eabi/lib/thumb/v8-m.main+fp/fpu/libc.a(lib_a-wctomb_r.o)
 .data          0x00000000200069ac        0x0 /home/zjian_zhang/Dplus_Z/project/realtek_amebaDplus_va0_example/GCC-RELEASE/project_km4/asdk/../toolchain/linux/asdk-10.3.1/linux/newlib/arm-none-eabi/lib/thumb/v8-m.main+fp/fpu/libc.a(lib_a-assert.o)
 .data          0x00000000200069ac        0x0 /home/zjian_zhang/Dplus_Z/project/realtek_amebaDplus_va0_example/GCC-RELEASE/project_km4/asdk/../toolchain/linux/asdk-10.3.1/linux/newlib/arm-none-eabi/lib/thumb/v8-m.main+fp/fpu/libc.a(lib_a-callocr.o)
 .data          0x00000000200069ac        0x0 /home/zjian_zhang/Dplus_Z/project/realtek_amebaDplus_va0_example/GCC-RELEASE/project_km4/asdk/../toolchain/linux/asdk-10.3.1/linux/newlib/arm-none-eabi/lib/thumb/v8-m.main+fp/fpu/libc.a(lib_a-fclose.o)
 .data          0x00000000200069ac        0x0 /home/zjian_zhang/Dplus_Z/project/realtek_amebaDplus_va0_example/GCC-RELEASE/project_km4/asdk/../toolchain/linux/asdk-10.3.1/linux/newlib/arm-none-eabi/lib/thumb/v8-m.main+fp/fpu/libc.a(lib_a-fiprintf.o)
 .data          0x00000000200069ac        0x0 /home/zjian_zhang/Dplus_Z/project/realtek_amebaDplus_va0_example/GCC-RELEASE/project_km4/asdk/../toolchain/linux/asdk-10.3.1/linux/newlib/arm-none-eabi/lib/thumb/v8-m.main+fp/fpu/libc.a(lib_a-fputwc.o)
 .data          0x00000000200069ac        0x0 /home/zjian_zhang/Dplus_Z/project/realtek_amebaDplus_va0_example/GCC-RELEASE/project_km4/asdk/../toolchain/linux/asdk-10.3.1/linux/newlib/arm-none-eabi/lib/thumb/v8-m.main+fp/fpu/libc.a(lib_a-fstatr.o)
 .data          0x00000000200069ac        0x0 /home/zjian_zhang/Dplus_Z/project/realtek_amebaDplus_va0_example/GCC-RELEASE/project_km4/asdk/../toolchain/linux/asdk-10.3.1/linux/newlib/arm-none-eabi/lib/thumb/v8-m.main+fp/fpu/libc.a(lib_a-gdtoa-gethex.o)
 .data          0x00000000200069ac        0x0 /home/zjian_zhang/Dplus_Z/project/realtek_amebaDplus_va0_example/GCC-RELEASE/project_km4/asdk/../toolchain/linux/asdk-10.3.1/linux/newlib/arm-none-eabi/lib/thumb/v8-m.main+fp/fpu/libc.a(lib_a-gdtoa-hexnan.o)
 .data          0x00000000200069ac        0x0 /home/zjian_zhang/Dplus_Z/project/realtek_amebaDplus_va0_example/GCC-RELEASE/project_km4/asdk/../toolchain/linux/asdk-10.3.1/linux/newlib/arm-none-eabi/lib/thumb/v8-m.main+fp/fpu/libc.a(lib_a-isattyr.o)
 .data          0x00000000200069ac        0x0 /home/zjian_zhang/Dplus_Z/project/realtek_amebaDplus_va0_example/GCC-RELEASE/project_km4/asdk/../toolchain/linux/asdk-10.3.1/linux/newlib/arm-none-eabi/lib/thumb/v8-m.main+fp/fpu/libc.a(lib_a-iswspace_l.o)
 .data          0x00000000200069ac        0x2 /home/zjian_zhang/Dplus_Z/project/realtek_amebaDplus_va0_example/GCC-RELEASE/project_km4/asdk/../toolchain/linux/asdk-10.3.1/linux/newlib/arm-none-eabi/lib/thumb/v8-m.main+fp/fpu/libc.a(lib_a-lnumeric.o)
 .data          0x00000000200069ae        0x0 /home/zjian_zhang/Dplus_Z/project/realtek_amebaDplus_va0_example/GCC-RELEASE/project_km4/asdk/../toolchain/linux/asdk-10.3.1/linux/newlib/arm-none-eabi/lib/thumb/v8-m.main+fp/fpu/libc.a(lib_a-s_nan.o)
 .data          0x00000000200069ae        0x0 /home/zjian_zhang/Dplus_Z/project/realtek_amebaDplus_va0_example/GCC-RELEASE/project_km4/asdk/../toolchain/linux/asdk-10.3.1/linux/newlib/arm-none-eabi/lib/thumb/v8-m.main+fp/fpu/libc.a(lib_a-wcrtomb.o)
 .data          0x00000000200069ae        0x0 /home/zjian_zhang/Dplus_Z/project/realtek_amebaDplus_va0_example/GCC-RELEASE/project_km4/asdk/../toolchain/linux/asdk-10.3.1/linux/newlib/arm-none-eabi/lib/thumb/v8-m.main+fp/fpu/libc.a(lib_a-abort.o)
 .data          0x00000000200069ae        0x0 /home/zjian_zhang/Dplus_Z/project/realtek_amebaDplus_va0_example/GCC-RELEASE/project_km4/asdk/../toolchain/linux/asdk-10.3.1/linux/newlib/arm-none-eabi/lib/thumb/v8-m.main+fp/fpu/libc.a(lib_a-signal.o)
 .data          0x00000000200069ae        0x0 /home/zjian_zhang/Dplus_Z/project/realtek_amebaDplus_va0_example/GCC-RELEASE/project_km4/asdk/../toolchain/linux/asdk-10.3.1/linux/newlib/arm-none-eabi/lib/thumb/v8-m.main+fp/fpu/libc.a(lib_a-signalr.o)
 .data          0x00000000200069ae        0x0 /home/zjian_zhang/Dplus_Z/project/realtek_amebaDplus_va0_example/GCC-RELEASE/project_km4/asdk/../toolchain/linux/asdk-10.3.1/linux/newlib/lib/gcc/arm-none-eabi/10.3.1/thumb/v8-m.main+fp/fpu/libgcc.a(_arm_muldf3.o)
 .data          0x00000000200069ae        0x0 /home/zjian_zhang/Dplus_Z/project/realtek_amebaDplus_va0_example/GCC-RELEASE/project_km4/asdk/../toolchain/linux/asdk-10.3.1/linux/newlib/lib/gcc/arm-none-eabi/10.3.1/thumb/v8-m.main+fp/fpu/libgcc.a(_arm_addsubdf3.o)
 .data          0x00000000200069ae        0x0 /home/zjian_zhang/Dplus_Z/project/realtek_amebaDplus_va0_example/GCC-RELEASE/project_km4/asdk/../toolchain/linux/asdk-10.3.1/linux/newlib/lib/gcc/arm-none-eabi/10.3.1/thumb/v8-m.main+fp/fpu/libgcc.a(_arm_muldivdf3.o)
 .data          0x00000000200069ae        0x0 /home/zjian_zhang/Dplus_Z/project/realtek_amebaDplus_va0_example/GCC-RELEASE/project_km4/asdk/../toolchain/linux/asdk-10.3.1/linux/newlib/lib/gcc/arm-none-eabi/10.3.1/thumb/v8-m.main+fp/fpu/libgcc.a(_arm_cmpdf2.o)
 .data          0x00000000200069ae        0x0 /home/zjian_zhang/Dplus_Z/project/realtek_amebaDplus_va0_example/GCC-RELEASE/project_km4/asdk/../toolchain/linux/asdk-10.3.1/linux/newlib/lib/gcc/arm-none-eabi/10.3.1/thumb/v8-m.main+fp/fpu/libgcc.a(_arm_unorddf2.o)
 .data          0x00000000200069ae        0x0 /home/zjian_zhang/Dplus_Z/project/realtek_amebaDplus_va0_example/GCC-RELEASE/project_km4/asdk/../toolchain/linux/asdk-10.3.1/linux/newlib/lib/gcc/arm-none-eabi/10.3.1/thumb/v8-m.main+fp/fpu/libgcc.a(_arm_fixdfsi.o)
 .data          0x00000000200069ae        0x0 /home/zjian_zhang/Dplus_Z/project/realtek_amebaDplus_va0_example/GCC-RELEASE/project_km4/asdk/../toolchain/linux/asdk-10.3.1/linux/newlib/lib/gcc/arm-none-eabi/10.3.1/thumb/v8-m.main+fp/fpu/libgcc.a(_arm_fixunsdfsi.o)
 .data          0x00000000200069ae        0x0 /home/zjian_zhang/Dplus_Z/project/realtek_amebaDplus_va0_example/GCC-RELEASE/project_km4/asdk/../toolchain/linux/asdk-10.3.1/linux/newlib/lib/gcc/arm-none-eabi/10.3.1/thumb/v8-m.main+fp/fpu/libgcc.a(_arm_truncdfsf2.o)
 .data          0x00000000200069ae        0x0 /home/zjian_zhang/Dplus_Z/project/realtek_amebaDplus_va0_example/GCC-RELEASE/project_km4/asdk/../toolchain/linux/asdk-10.3.1/linux/newlib/lib/gcc/arm-none-eabi/10.3.1/thumb/v8-m.main+fp/fpu/libgcc.a(_aeabi_uldivmod.o)
 .data          0x00000000200069ae        0x0 /home/zjian_zhang/Dplus_Z/project/realtek_amebaDplus_va0_example/GCC-RELEASE/project_km4/asdk/../toolchain/linux/asdk-10.3.1/linux/newlib/lib/gcc/arm-none-eabi/10.3.1/thumb/v8-m.main+fp/fpu/libgcc.a(_fixdfdi.o)
 .data          0x00000000200069ae        0x0 /home/zjian_zhang/Dplus_Z/project/realtek_amebaDplus_va0_example/GCC-RELEASE/project_km4/asdk/../toolchain/linux/asdk-10.3.1/linux/newlib/lib/gcc/arm-none-eabi/10.3.1/thumb/v8-m.main+fp/fpu/libgcc.a(_fixunsdfdi.o)
 .data          0x00000000200069ae        0x0 /home/zjian_zhang/Dplus_Z/project/realtek_amebaDplus_va0_example/GCC-RELEASE/project_km4/asdk/../toolchain/linux/asdk-10.3.1/linux/newlib/lib/gcc/arm-none-eabi/10.3.1/thumb/v8-m.main+fp/fpu/libgcc.a(_udivmoddi4.o)
 .data          0x00000000200069ae        0x0 /home/zjian_zhang/Dplus_Z/project/realtek_amebaDplus_va0_example/GCC-RELEASE/project_km4/asdk/../toolchain/linux/asdk-10.3.1/linux/newlib/lib/gcc/arm-none-eabi/10.3.1/thumb/v8-m.main+fp/fpu/libgcc.a(_dvmd_tls.o)
 .data          0x00000000200069ae        0x0 /home/zjian_zhang/Dplus_Z/project/realtek_amebaDplus_va0_example/GCC-RELEASE/project_km4/asdk/../toolchain/linux/asdk-10.3.1/linux/newlib/arm-none-eabi/lib/thumb/v8-m.main+fp/fpu/libnosys.a(close.o)
 .data          0x00000000200069ae        0x0 /home/zjian_zhang/Dplus_Z/project/realtek_amebaDplus_va0_example/GCC-RELEASE/project_km4/asdk/../toolchain/linux/asdk-10.3.1/linux/newlib/arm-none-eabi/lib/thumb/v8-m.main+fp/fpu/libnosys.a(fstat.o)
 .data          0x00000000200069ae        0x0 /home/zjian_zhang/Dplus_Z/project/realtek_amebaDplus_va0_example/GCC-RELEASE/project_km4/asdk/../toolchain/linux/asdk-10.3.1/linux/newlib/arm-none-eabi/lib/thumb/v8-m.main+fp/fpu/libnosys.a(getpid.o)
 .data          0x00000000200069ae        0x0 /home/zjian_zhang/Dplus_Z/project/realtek_amebaDplus_va0_example/GCC-RELEASE/project_km4/asdk/../toolchain/linux/asdk-10.3.1/linux/newlib/arm-none-eabi/lib/thumb/v8-m.main+fp/fpu/libnosys.a(isatty.o)
 .data          0x00000000200069ae        0x0 /home/zjian_zhang/Dplus_Z/project/realtek_amebaDplus_va0_example/GCC-RELEASE/project_km4/asdk/../toolchain/linux/asdk-10.3.1/linux/newlib/arm-none-eabi/lib/thumb/v8-m.main+fp/fpu/libnosys.a(kill.o)
 .data          0x00000000200069ae        0x0 /home/zjian_zhang/Dplus_Z/project/realtek_amebaDplus_va0_example/GCC-RELEASE/project_km4/asdk/../toolchain/linux/asdk-10.3.1/linux/newlib/arm-none-eabi/lib/thumb/v8-m.main+fp/fpu/libnosys.a(lseek.o)
 .data          0x00000000200069ae        0x0 /home/zjian_zhang/Dplus_Z/project/realtek_amebaDplus_va0_example/GCC-RELEASE/project_km4/asdk/../toolchain/linux/asdk-10.3.1/linux/newlib/arm-none-eabi/lib/thumb/v8-m.main+fp/fpu/libnosys.a(sbrk.o)
 .data          0x00000000200069ae        0x0 /home/zjian_zhang/Dplus_Z/project/realtek_amebaDplus_va0_example/GCC-RELEASE/project_km4/asdk/../toolchain/linux/asdk-10.3.1/linux/newlib/arm-none-eabi/lib/thumb/v8-m.main+fp/fpu/libnosys.a(_exit.o)
                0x00000000200069ae                __rom_stdlib_data_end__ = .
                0x00000000200069c0                . = ALIGN (0x20)
 *fill*         0x00000000200069ae       0x12 

.rom.stdlib.bss
                0x00000000200069c0       0x60
                0x00000000200069c0                __rom_stdlib_bss_start__ = .
 *(.bss*)
 .bss           0x00000000200069c0        0x8 ./build/stdlib/stdlib_link.o
                0x00000000200069c0                rom_customer_log
 .bss           0x00000000200069c8        0x0 /home/zjian_zhang/Dplus_Z/project/realtek_amebaDplus_va0_example/GCC-RELEASE/project_km4/asdk/../toolchain/linux/asdk-10.3.1/linux/newlib/arm-none-eabi/lib/thumb/v8-m.main+fp/fpu/libc.a(lib_a-atoi.o)
 .bss           0x00000000200069c8        0x0 /home/zjian_zhang/Dplus_Z/project/realtek_amebaDplus_va0_example/GCC-RELEASE/project_km4/asdk/../toolchain/linux/asdk-10.3.1/linux/newlib/arm-none-eabi/lib/thumb/v8-m.main+fp/fpu/libc.a(lib_a-printf.o)
 .bss           0x00000000200069c8        0x0 /home/zjian_zhang/Dplus_Z/project/realtek_amebaDplus_va0_example/GCC-RELEASE/project_km4/asdk/../toolchain/linux/asdk-10.3.1/linux/newlib/arm-none-eabi/lib/thumb/v8-m.main+fp/fpu/libc.a(lib_a-putchar.o)
 .bss           0x00000000200069c8        0x0 /home/zjian_zhang/Dplus_Z/project/realtek_amebaDplus_va0_example/GCC-RELEASE/project_km4/asdk/../toolchain/linux/asdk-10.3.1/linux/newlib/arm-none-eabi/lib/thumb/v8-m.main+fp/fpu/libc.a(lib_a-putc.o)
 .bss           0x00000000200069c8        0x0 /home/zjian_zhang/Dplus_Z/project/realtek_amebaDplus_va0_example/GCC-RELEASE/project_km4/asdk/../toolchain/linux/asdk-10.3.1/linux/newlib/arm-none-eabi/lib/thumb/v8-m.main+fp/fpu/libc.a(lib_a-puts.o)
 .bss           0x00000000200069c8        0x0 /home/zjian_zhang/Dplus_Z/project/realtek_amebaDplus_va0_example/GCC-RELEASE/project_km4/asdk/../toolchain/linux/asdk-10.3.1/linux/newlib/arm-none-eabi/lib/thumb/v8-m.main+fp/fpu/libc.a(lib_a-snprintf.o)
 .bss           0x00000000200069c8        0x0 /home/zjian_zhang/Dplus_Z/project/realtek_amebaDplus_va0_example/GCC-RELEASE/project_km4/asdk/../toolchain/linux/asdk-10.3.1/linux/newlib/arm-none-eabi/lib/thumb/v8-m.main+fp/fpu/libc.a(lib_a-sprintf.o)
 .bss           0x00000000200069c8        0x0 /home/zjian_zhang/Dplus_Z/project/realtek_amebaDplus_va0_example/GCC-RELEASE/project_km4/asdk/../toolchain/linux/asdk-10.3.1/linux/newlib/arm-none-eabi/lib/thumb/v8-m.main+fp/fpu/libc.a(lib_a-sscanf.o)
 .bss           0x00000000200069c8        0x0 /home/zjian_zhang/Dplus_Z/project/realtek_amebaDplus_va0_example/GCC-RELEASE/project_km4/asdk/../toolchain/linux/asdk-10.3.1/linux/newlib/arm-none-eabi/lib/thumb/v8-m.main+fp/fpu/libc.a(lib_a-stdio.o)
 .bss           0x00000000200069c8        0x0 /home/zjian_zhang/Dplus_Z/project/realtek_amebaDplus_va0_example/GCC-RELEASE/project_km4/asdk/../toolchain/linux/asdk-10.3.1/linux/newlib/arm-none-eabi/lib/thumb/v8-m.main+fp/fpu/libc.a(lib_a-strcat.o)
 .bss           0x00000000200069c8        0x0 /home/zjian_zhang/Dplus_Z/project/realtek_amebaDplus_va0_example/GCC-RELEASE/project_km4/asdk/../toolchain/linux/asdk-10.3.1/linux/newlib/arm-none-eabi/lib/thumb/v8-m.main+fp/fpu/libc.a(lib_a-strchr.o)
 .bss           0x00000000200069c8        0x0 /home/zjian_zhang/Dplus_Z/project/realtek_amebaDplus_va0_example/GCC-RELEASE/project_km4/asdk/../toolchain/linux/asdk-10.3.1/linux/newlib/arm-none-eabi/lib/thumb/v8-m.main+fp/fpu/libc.a(lib_a-strcpy.o)
 .bss           0x00000000200069c8        0x0 /home/zjian_zhang/Dplus_Z/project/realtek_amebaDplus_va0_example/GCC-RELEASE/project_km4/asdk/../toolchain/linux/asdk-10.3.1/linux/newlib/arm-none-eabi/lib/thumb/v8-m.main+fp/fpu/libc.a(lib_a-strlen-stub.o)
 .bss           0x00000000200069c8        0x0 /home/zjian_zhang/Dplus_Z/project/realtek_amebaDplus_va0_example/GCC-RELEASE/project_km4/asdk/../toolchain/linux/asdk-10.3.1/linux/newlib/arm-none-eabi/lib/thumb/v8-m.main+fp/fpu/libc.a(lib_a-strncat.o)
 .bss           0x00000000200069c8        0x0 /home/zjian_zhang/Dplus_Z/project/realtek_amebaDplus_va0_example/GCC-RELEASE/project_km4/asdk/../toolchain/linux/asdk-10.3.1/linux/newlib/arm-none-eabi/lib/thumb/v8-m.main+fp/fpu/libc.a(lib_a-strncmp.o)
 .bss           0x00000000200069c8        0x0 /home/zjian_zhang/Dplus_Z/project/realtek_amebaDplus_va0_example/GCC-RELEASE/project_km4/asdk/../toolchain/linux/asdk-10.3.1/linux/newlib/arm-none-eabi/lib/thumb/v8-m.main+fp/fpu/libc.a(lib_a-strncpy.o)
 .bss           0x00000000200069c8        0x0 /home/zjian_zhang/Dplus_Z/project/realtek_amebaDplus_va0_example/GCC-RELEASE/project_km4/asdk/../toolchain/linux/asdk-10.3.1/linux/newlib/arm-none-eabi/lib/thumb/v8-m.main+fp/fpu/libc.a(lib_a-strpbrk.o)
 .bss           0x00000000200069c8        0x0 /home/zjian_zhang/Dplus_Z/project/realtek_amebaDplus_va0_example/GCC-RELEASE/project_km4/asdk/../toolchain/linux/asdk-10.3.1/linux/newlib/arm-none-eabi/lib/thumb/v8-m.main+fp/fpu/libc.a(lib_a-strsep.o)
 .bss           0x00000000200069c8        0x0 /home/zjian_zhang/Dplus_Z/project/realtek_amebaDplus_va0_example/GCC-RELEASE/project_km4/asdk/../toolchain/linux/asdk-10.3.1/linux/newlib/arm-none-eabi/lib/thumb/v8-m.main+fp/fpu/libc.a(lib_a-strstr.o)
 .bss           0x00000000200069c8        0x0 /home/zjian_zhang/Dplus_Z/project/realtek_amebaDplus_va0_example/GCC-RELEASE/project_km4/asdk/../toolchain/linux/asdk-10.3.1/linux/newlib/arm-none-eabi/lib/thumb/v8-m.main+fp/fpu/libc.a(lib_a-strtok.o)
 .bss           0x00000000200069c8        0x0 /home/zjian_zhang/Dplus_Z/project/realtek_amebaDplus_va0_example/GCC-RELEASE/project_km4/asdk/../toolchain/linux/asdk-10.3.1/linux/newlib/arm-none-eabi/lib/thumb/v8-m.main+fp/fpu/libc.a(lib_a-strtok_r.o)
 .bss           0x00000000200069c8        0x0 /home/zjian_zhang/Dplus_Z/project/realtek_amebaDplus_va0_example/GCC-RELEASE/project_km4/asdk/../toolchain/linux/asdk-10.3.1/linux/newlib/arm-none-eabi/lib/thumb/v8-m.main+fp/fpu/libc.a(lib_a-strtol.o)
 .bss           0x00000000200069c8        0x0 /home/zjian_zhang/Dplus_Z/project/realtek_amebaDplus_va0_example/GCC-RELEASE/project_km4/asdk/../toolchain/linux/asdk-10.3.1/linux/newlib/arm-none-eabi/lib/thumb/v8-m.main+fp/fpu/libc.a(lib_a-svfprintf.o)
 .bss           0x00000000200069c8        0x0 /home/zjian_zhang/Dplus_Z/project/realtek_amebaDplus_va0_example/GCC-RELEASE/project_km4/asdk/../toolchain/linux/asdk-10.3.1/linux/newlib/arm-none-eabi/lib/thumb/v8-m.main+fp/fpu/libc.a(lib_a-svfscanf.o)
 .bss           0x00000000200069c8        0x0 /home/zjian_zhang/Dplus_Z/project/realtek_amebaDplus_va0_example/GCC-RELEASE/project_km4/asdk/../toolchain/linux/asdk-10.3.1/linux/newlib/arm-none-eabi/lib/thumb/v8-m.main+fp/fpu/libc.a(lib_a-vfprintf.o)
 .bss           0x00000000200069c8        0x0 /home/zjian_zhang/Dplus_Z/project/realtek_amebaDplus_va0_example/GCC-RELEASE/project_km4/asdk/../toolchain/linux/asdk-10.3.1/linux/newlib/arm-none-eabi/lib/thumb/v8-m.main+fp/fpu/libc.a(lib_a-vsnprintf.o)
 .bss           0x00000000200069c8        0x0 /home/zjian_zhang/Dplus_Z/project/realtek_amebaDplus_va0_example/GCC-RELEASE/project_km4/asdk/../toolchain/linux/asdk-10.3.1/linux/newlib/arm-none-eabi/lib/thumb/v8-m.main+fp/fpu/libc.a(lib_a-wbuf.o)
 .bss           0x00000000200069c8        0x0 /home/zjian_zhang/Dplus_Z/project/realtek_amebaDplus_va0_example/GCC-RELEASE/project_km4/asdk/../toolchain/linux/asdk-10.3.1/linux/newlib/arm-none-eabi/lib/thumb/v8-m.main+fp/fpu/libc.a(lib_a-writer.o)
 .bss           0x00000000200069c8        0x0 /home/zjian_zhang/Dplus_Z/project/realtek_amebaDplus_va0_example/GCC-RELEASE/project_km4/asdk/../toolchain/linux/asdk-10.3.1/linux/newlib/arm-none-eabi/lib/thumb/v8-m.main+fp/fpu/libc.a(lib_a-wsetup.o)
 .bss           0x00000000200069c8        0x0 /home/zjian_zhang/Dplus_Z/project/realtek_amebaDplus_va0_example/GCC-RELEASE/project_km4/asdk/../toolchain/linux/asdk-10.3.1/linux/newlib/arm-none-eabi/lib/thumb/v8-m.main+fp/fpu/libc.a(lib_a-closer.o)
 .bss           0x00000000200069c8        0x0 /home/zjian_zhang/Dplus_Z/project/realtek_amebaDplus_va0_example/GCC-RELEASE/project_km4/asdk/../toolchain/linux/asdk-10.3.1/linux/newlib/arm-none-eabi/lib/thumb/v8-m.main+fp/fpu/libc.a(lib_a-ctype_.o)
 .bss           0x00000000200069c8        0x0 /home/zjian_zhang/Dplus_Z/project/realtek_amebaDplus_va0_example/GCC-RELEASE/project_km4/asdk/../toolchain/linux/asdk-10.3.1/linux/newlib/arm-none-eabi/lib/thumb/v8-m.main+fp/fpu/libc.a(lib_a-dtoa.o)
 .bss           0x00000000200069c8        0x0 /home/zjian_zhang/Dplus_Z/project/realtek_amebaDplus_va0_example/GCC-RELEASE/project_km4/asdk/../toolchain/linux/asdk-10.3.1/linux/newlib/arm-none-eabi/lib/thumb/v8-m.main+fp/fpu/libc.a(lib_a-errno.o)
 .bss           0x00000000200069c8        0x0 /home/zjian_zhang/Dplus_Z/project/realtek_amebaDplus_va0_example/GCC-RELEASE/project_km4/asdk/../toolchain/linux/asdk-10.3.1/linux/newlib/arm-none-eabi/lib/thumb/v8-m.main+fp/fpu/libc.a(lib_a-fflush.o)
 .bss           0x00000000200069c8        0x0 /home/zjian_zhang/Dplus_Z/project/realtek_amebaDplus_va0_example/GCC-RELEASE/project_km4/asdk/../toolchain/linux/asdk-10.3.1/linux/newlib/arm-none-eabi/lib/thumb/v8-m.main+fp/fpu/libc.a(lib_a-findfp.o)
 .bss           0x00000000200069c8        0x0 /home/zjian_zhang/Dplus_Z/project/realtek_amebaDplus_va0_example/GCC-RELEASE/project_km4/asdk/../toolchain/linux/asdk-10.3.1/linux/newlib/arm-none-eabi/lib/thumb/v8-m.main+fp/fpu/libc.a(lib_a-free.o)
 .bss           0x00000000200069c8        0x0 /home/zjian_zhang/Dplus_Z/project/realtek_amebaDplus_va0_example/GCC-RELEASE/project_km4/asdk/../toolchain/linux/asdk-10.3.1/linux/newlib/arm-none-eabi/lib/thumb/v8-m.main+fp/fpu/libc.a(lib_a-freer.o)
 .bss           0x00000000200069c8        0x0 /home/zjian_zhang/Dplus_Z/project/realtek_amebaDplus_va0_example/GCC-RELEASE/project_km4/asdk/../toolchain/linux/asdk-10.3.1/linux/newlib/arm-none-eabi/lib/thumb/v8-m.main+fp/fpu/libc.a(lib_a-fvwrite.o)
 .bss           0x00000000200069c8        0x0 /home/zjian_zhang/Dplus_Z/project/realtek_amebaDplus_va0_example/GCC-RELEASE/project_km4/asdk/../toolchain/linux/asdk-10.3.1/linux/newlib/arm-none-eabi/lib/thumb/v8-m.main+fp/fpu/libc.a(lib_a-fwalk.o)
 .bss           0x00000000200069c8        0x0 /home/zjian_zhang/Dplus_Z/project/realtek_amebaDplus_va0_example/GCC-RELEASE/project_km4/asdk/../toolchain/linux/asdk-10.3.1/linux/newlib/arm-none-eabi/lib/thumb/v8-m.main+fp/fpu/libc.a(lib_a-impure.o)
 .bss           0x00000000200069c8        0x0 /home/zjian_zhang/Dplus_Z/project/realtek_amebaDplus_va0_example/GCC-RELEASE/project_km4/asdk/../toolchain/linux/asdk-10.3.1/linux/newlib/arm-none-eabi/lib/thumb/v8-m.main+fp/fpu/libc.a(lib_a-iswspace.o)
 .bss           0x00000000200069c8        0x0 /home/zjian_zhang/Dplus_Z/project/realtek_amebaDplus_va0_example/GCC-RELEASE/project_km4/asdk/../toolchain/linux/asdk-10.3.1/linux/newlib/arm-none-eabi/lib/thumb/v8-m.main+fp/fpu/libc.a(lib_a-localeconv.o)
 .bss           0x00000000200069c8        0x4 /home/zjian_zhang/Dplus_Z/project/realtek_amebaDplus_va0_example/GCC-RELEASE/project_km4/asdk/../toolchain/linux/asdk-10.3.1/linux/newlib/arm-none-eabi/lib/thumb/v8-m.main+fp/fpu/libc.a(lib_a-locale.o)
                0x00000000200069c8                _PathLocale
 .bss           0x00000000200069cc        0x9 /home/zjian_zhang/Dplus_Z/project/realtek_amebaDplus_va0_example/GCC-RELEASE/project_km4/asdk/../toolchain/linux/asdk-10.3.1/linux/newlib/arm-none-eabi/lib/thumb/v8-m.main+fp/fpu/libc.a(lib_a-lock.o)
                0x00000000200069cc                __lock___arc4random_mutex
                0x00000000200069cd                __lock___dd_hash_mutex
                0x00000000200069ce                __lock___tz_mutex
                0x00000000200069cf                __lock___env_recursive_mutex
                0x00000000200069d0                __lock___malloc_recursive_mutex
                0x00000000200069d1                __lock___at_quick_exit_mutex
                0x00000000200069d2                __lock___atexit_recursive_mutex
                0x00000000200069d3                __lock___sfp_recursive_mutex
                0x00000000200069d4                __lock___sinit_recursive_mutex
 .bss           0x00000000200069d5        0x0 /home/zjian_zhang/Dplus_Z/project/realtek_amebaDplus_va0_example/GCC-RELEASE/project_km4/asdk/../toolchain/linux/asdk-10.3.1/linux/newlib/arm-none-eabi/lib/thumb/v8-m.main+fp/fpu/libc.a(lib_a-lseekr.o)
 .bss           0x00000000200069d5        0x0 /home/zjian_zhang/Dplus_Z/project/realtek_amebaDplus_va0_example/GCC-RELEASE/project_km4/asdk/../toolchain/linux/asdk-10.3.1/linux/newlib/arm-none-eabi/lib/thumb/v8-m.main+fp/fpu/libc.a(lib_a-makebuf.o)
 .bss           0x00000000200069d5        0x0 /home/zjian_zhang/Dplus_Z/project/realtek_amebaDplus_va0_example/GCC-RELEASE/project_km4/asdk/../toolchain/linux/asdk-10.3.1/linux/newlib/arm-none-eabi/lib/thumb/v8-m.main+fp/fpu/libc.a(lib_a-malloc.o)
 *fill*         0x00000000200069d5        0x3 
 .bss           0x00000000200069d8       0x34 /home/zjian_zhang/Dplus_Z/project/realtek_amebaDplus_va0_example/GCC-RELEASE/project_km4/asdk/../toolchain/linux/asdk-10.3.1/linux/newlib/arm-none-eabi/lib/thumb/v8-m.main+fp/fpu/libc.a(lib_a-mallocr.o)
                0x00000000200069d8                __malloc_top_pad
                0x00000000200069dc                __malloc_current_mallinfo
                0x0000000020006a04                __malloc_max_sbrked_mem
                0x0000000020006a08                __malloc_max_total_mem
 .bss           0x0000000020006a0c        0x0 /home/zjian_zhang/Dplus_Z/project/realtek_amebaDplus_va0_example/GCC-RELEASE/project_km4/asdk/../toolchain/linux/asdk-10.3.1/linux/newlib/arm-none-eabi/lib/thumb/v8-m.main+fp/fpu/libc.a(lib_a-mbrtowc.o)
 .bss           0x0000000020006a0c        0x0 /home/zjian_zhang/Dplus_Z/project/realtek_amebaDplus_va0_example/GCC-RELEASE/project_km4/asdk/../toolchain/linux/asdk-10.3.1/linux/newlib/arm-none-eabi/lib/thumb/v8-m.main+fp/fpu/libc.a(lib_a-mbtowc_r.o)
 .bss           0x0000000020006a0c        0x0 /home/zjian_zhang/Dplus_Z/project/realtek_amebaDplus_va0_example/GCC-RELEASE/project_km4/asdk/../toolchain/linux/asdk-10.3.1/linux/newlib/arm-none-eabi/lib/thumb/v8-m.main+fp/fpu/libc.a(lib_a-memchr-stub.o)
 .bss           0x0000000020006a0c        0x0 /home/zjian_zhang/Dplus_Z/project/realtek_amebaDplus_va0_example/GCC-RELEASE/project_km4/asdk/../toolchain/linux/asdk-10.3.1/linux/newlib/arm-none-eabi/lib/thumb/v8-m.main+fp/fpu/libc.a(lib_a-memcmp.o)
 .bss           0x0000000020006a0c        0x0 /home/zjian_zhang/Dplus_Z/project/realtek_amebaDplus_va0_example/GCC-RELEASE/project_km4/asdk/../toolchain/linux/asdk-10.3.1/linux/newlib/arm-none-eabi/lib/thumb/v8-m.main+fp/fpu/libc.a(lib_a-memcpy.o)
 .bss           0x0000000020006a0c        0x0 /home/zjian_zhang/Dplus_Z/project/realtek_amebaDplus_va0_example/GCC-RELEASE/project_km4/asdk/../toolchain/linux/asdk-10.3.1/linux/newlib/arm-none-eabi/lib/thumb/v8-m.main+fp/fpu/libc.a(lib_a-memmove.o)
 .bss           0x0000000020006a0c        0x0 /home/zjian_zhang/Dplus_Z/project/realtek_amebaDplus_va0_example/GCC-RELEASE/project_km4/asdk/../toolchain/linux/asdk-10.3.1/linux/newlib/arm-none-eabi/lib/thumb/v8-m.main+fp/fpu/libc.a(lib_a-memset-stub.o)
 .bss           0x0000000020006a0c        0x0 /home/zjian_zhang/Dplus_Z/project/realtek_amebaDplus_va0_example/GCC-RELEASE/project_km4/asdk/../toolchain/linux/asdk-10.3.1/linux/newlib/arm-none-eabi/lib/thumb/v8-m.main+fp/fpu/libc.a(lib_a-mlock.o)
 .bss           0x0000000020006a0c        0x0 /home/zjian_zhang/Dplus_Z/project/realtek_amebaDplus_va0_example/GCC-RELEASE/project_km4/asdk/../toolchain/linux/asdk-10.3.1/linux/newlib/arm-none-eabi/lib/thumb/v8-m.main+fp/fpu/libc.a(lib_a-mprec.o)
 .bss           0x0000000020006a0c        0x0 /home/zjian_zhang/Dplus_Z/project/realtek_amebaDplus_va0_example/GCC-RELEASE/project_km4/asdk/../toolchain/linux/asdk-10.3.1/linux/newlib/arm-none-eabi/lib/thumb/v8-m.main+fp/fpu/libc.a(lib_a-readr.o)
 .bss           0x0000000020006a0c        0x0 /home/zjian_zhang/Dplus_Z/project/realtek_amebaDplus_va0_example/GCC-RELEASE/project_km4/asdk/../toolchain/linux/asdk-10.3.1/linux/newlib/arm-none-eabi/lib/thumb/v8-m.main+fp/fpu/libc.a(lib_a-realloc.o)
 .bss           0x0000000020006a0c        0x0 /home/zjian_zhang/Dplus_Z/project/realtek_amebaDplus_va0_example/GCC-RELEASE/project_km4/asdk/../toolchain/linux/asdk-10.3.1/linux/newlib/arm-none-eabi/lib/thumb/v8-m.main+fp/fpu/libc.a(lib_a-reallocr.o)
 .bss           0x0000000020006a0c        0x4 /home/zjian_zhang/Dplus_Z/project/realtek_amebaDplus_va0_example/GCC-RELEASE/project_km4/asdk/../toolchain/linux/asdk-10.3.1/linux/newlib/arm-none-eabi/lib/thumb/v8-m.main+fp/fpu/libc.a(lib_a-reent.o)
                0x0000000020006a0c                errno
 .bss           0x0000000020006a10        0x0 /home/zjian_zhang/Dplus_Z/project/realtek_amebaDplus_va0_example/GCC-RELEASE/project_km4/asdk/../toolchain/linux/asdk-10.3.1/linux/newlib/arm-none-eabi/lib/thumb/v8-m.main+fp/fpu/libc.a(lib_a-sbrkr.o)
 .bss           0x0000000020006a10        0x0 /home/zjian_zhang/Dplus_Z/project/realtek_amebaDplus_va0_example/GCC-RELEASE/project_km4/asdk/../toolchain/linux/asdk-10.3.1/linux/newlib/arm-none-eabi/lib/thumb/v8-m.main+fp/fpu/libc.a(lib_a-sccl.o)
 .bss           0x0000000020006a10        0x0 /home/zjian_zhang/Dplus_Z/project/realtek_amebaDplus_va0_example/GCC-RELEASE/project_km4/asdk/../toolchain/linux/asdk-10.3.1/linux/newlib/arm-none-eabi/lib/thumb/v8-m.main+fp/fpu/libc.a(lib_a-sf_nan.o)
 .bss           0x0000000020006a10        0x0 /home/zjian_zhang/Dplus_Z/project/realtek_amebaDplus_va0_example/GCC-RELEASE/project_km4/asdk/../toolchain/linux/asdk-10.3.1/linux/newlib/arm-none-eabi/lib/thumb/v8-m.main+fp/fpu/libc.a(lib_a-s_frexp.o)
 .bss           0x0000000020006a10        0x0 /home/zjian_zhang/Dplus_Z/project/realtek_amebaDplus_va0_example/GCC-RELEASE/project_km4/asdk/../toolchain/linux/asdk-10.3.1/linux/newlib/arm-none-eabi/lib/thumb/v8-m.main+fp/fpu/libc.a(lib_a-strcmp.o)
 .bss           0x0000000020006a10        0x0 /home/zjian_zhang/Dplus_Z/project/realtek_amebaDplus_va0_example/GCC-RELEASE/project_km4/asdk/../toolchain/linux/asdk-10.3.1/linux/newlib/arm-none-eabi/lib/thumb/v8-m.main+fp/fpu/libc.a(lib_a-strnlen.o)
 .bss           0x0000000020006a10        0x0 /home/zjian_zhang/Dplus_Z/project/realtek_amebaDplus_va0_example/GCC-RELEASE/project_km4/asdk/../toolchain/linux/asdk-10.3.1/linux/newlib/arm-none-eabi/lib/thumb/v8-m.main+fp/fpu/libc.a(lib_a-strtod.o)
 .bss           0x0000000020006a10        0x0 /home/zjian_zhang/Dplus_Z/project/realtek_amebaDplus_va0_example/GCC-RELEASE/project_km4/asdk/../toolchain/linux/asdk-10.3.1/linux/newlib/arm-none-eabi/lib/thumb/v8-m.main+fp/fpu/libc.a(lib_a-strtoll.o)
 .bss           0x0000000020006a10        0x0 /home/zjian_zhang/Dplus_Z/project/realtek_amebaDplus_va0_example/GCC-RELEASE/project_km4/asdk/../toolchain/linux/asdk-10.3.1/linux/newlib/arm-none-eabi/lib/thumb/v8-m.main+fp/fpu/libc.a(lib_a-strtoull.o)
 .bss           0x0000000020006a10        0x0 /home/zjian_zhang/Dplus_Z/project/realtek_amebaDplus_va0_example/GCC-RELEASE/project_km4/asdk/../toolchain/linux/asdk-10.3.1/linux/newlib/arm-none-eabi/lib/thumb/v8-m.main+fp/fpu/libc.a(lib_a-strtoul.o)
 .bss           0x0000000020006a10        0x0 /home/zjian_zhang/Dplus_Z/project/realtek_amebaDplus_va0_example/GCC-RELEASE/project_km4/asdk/../toolchain/linux/asdk-10.3.1/linux/newlib/arm-none-eabi/lib/thumb/v8-m.main+fp/fpu/libc.a(lib_a-svfiprintf.o)
 .bss           0x0000000020006a10        0x0 /home/zjian_zhang/Dplus_Z/project/realtek_amebaDplus_va0_example/GCC-RELEASE/project_km4/asdk/../toolchain/linux/asdk-10.3.1/linux/newlib/arm-none-eabi/lib/thumb/v8-m.main+fp/fpu/libc.a(lib_a-svfiscanf.o)
 .bss           0x0000000020006a10        0x0 /home/zjian_zhang/Dplus_Z/project/realtek_amebaDplus_va0_example/GCC-RELEASE/project_km4/asdk/../toolchain/linux/asdk-10.3.1/linux/newlib/arm-none-eabi/lib/thumb/v8-m.main+fp/fpu/libc.a(lib_a-ungetc.o)
 .bss           0x0000000020006a10        0x0 /home/zjian_zhang/Dplus_Z/project/realtek_amebaDplus_va0_example/GCC-RELEASE/project_km4/asdk/../toolchain/linux/asdk-10.3.1/linux/newlib/arm-none-eabi/lib/thumb/v8-m.main+fp/fpu/libc.a(lib_a-vfiprintf.o)
 .bss           0x0000000020006a10        0x0 /home/zjian_zhang/Dplus_Z/project/realtek_amebaDplus_va0_example/GCC-RELEASE/project_km4/asdk/../toolchain/linux/asdk-10.3.1/linux/newlib/arm-none-eabi/lib/thumb/v8-m.main+fp/fpu/libc.a(lib_a-wctomb_r.o)
 .bss           0x0000000020006a10        0x0 /home/zjian_zhang/Dplus_Z/project/realtek_amebaDplus_va0_example/GCC-RELEASE/project_km4/asdk/../toolchain/linux/asdk-10.3.1/linux/newlib/arm-none-eabi/lib/thumb/v8-m.main+fp/fpu/libc.a(lib_a-assert.o)
 .bss           0x0000000020006a10        0x0 /home/zjian_zhang/Dplus_Z/project/realtek_amebaDplus_va0_example/GCC-RELEASE/project_km4/asdk/../toolchain/linux/asdk-10.3.1/linux/newlib/arm-none-eabi/lib/thumb/v8-m.main+fp/fpu/libc.a(lib_a-callocr.o)
 .bss           0x0000000020006a10        0x0 /home/zjian_zhang/Dplus_Z/project/realtek_amebaDplus_va0_example/GCC-RELEASE/project_km4/asdk/../toolchain/linux/asdk-10.3.1/linux/newlib/arm-none-eabi/lib/thumb/v8-m.main+fp/fpu/libc.a(lib_a-fclose.o)
 .bss           0x0000000020006a10        0x0 /home/zjian_zhang/Dplus_Z/project/realtek_amebaDplus_va0_example/GCC-RELEASE/project_km4/asdk/../toolchain/linux/asdk-10.3.1/linux/newlib/arm-none-eabi/lib/thumb/v8-m.main+fp/fpu/libc.a(lib_a-fiprintf.o)
 .bss           0x0000000020006a10        0x0 /home/zjian_zhang/Dplus_Z/project/realtek_amebaDplus_va0_example/GCC-RELEASE/project_km4/asdk/../toolchain/linux/asdk-10.3.1/linux/newlib/arm-none-eabi/lib/thumb/v8-m.main+fp/fpu/libc.a(lib_a-fputwc.o)
 .bss           0x0000000020006a10        0x0 /home/zjian_zhang/Dplus_Z/project/realtek_amebaDplus_va0_example/GCC-RELEASE/project_km4/asdk/../toolchain/linux/asdk-10.3.1/linux/newlib/arm-none-eabi/lib/thumb/v8-m.main+fp/fpu/libc.a(lib_a-fstatr.o)
 .bss           0x0000000020006a10        0x0 /home/zjian_zhang/Dplus_Z/project/realtek_amebaDplus_va0_example/GCC-RELEASE/project_km4/asdk/../toolchain/linux/asdk-10.3.1/linux/newlib/arm-none-eabi/lib/thumb/v8-m.main+fp/fpu/libc.a(lib_a-gdtoa-gethex.o)
 .bss           0x0000000020006a10        0x0 /home/zjian_zhang/Dplus_Z/project/realtek_amebaDplus_va0_example/GCC-RELEASE/project_km4/asdk/../toolchain/linux/asdk-10.3.1/linux/newlib/arm-none-eabi/lib/thumb/v8-m.main+fp/fpu/libc.a(lib_a-gdtoa-hexnan.o)
 .bss           0x0000000020006a10        0x0 /home/zjian_zhang/Dplus_Z/project/realtek_amebaDplus_va0_example/GCC-RELEASE/project_km4/asdk/../toolchain/linux/asdk-10.3.1/linux/newlib/arm-none-eabi/lib/thumb/v8-m.main+fp/fpu/libc.a(lib_a-isattyr.o)
 .bss           0x0000000020006a10        0x0 /home/zjian_zhang/Dplus_Z/project/realtek_amebaDplus_va0_example/GCC-RELEASE/project_km4/asdk/../toolchain/linux/asdk-10.3.1/linux/newlib/arm-none-eabi/lib/thumb/v8-m.main+fp/fpu/libc.a(lib_a-iswspace_l.o)
 .bss           0x0000000020006a10        0x0 /home/zjian_zhang/Dplus_Z/project/realtek_amebaDplus_va0_example/GCC-RELEASE/project_km4/asdk/../toolchain/linux/asdk-10.3.1/linux/newlib/arm-none-eabi/lib/thumb/v8-m.main+fp/fpu/libc.a(lib_a-lnumeric.o)
 .bss           0x0000000020006a10        0x0 /home/zjian_zhang/Dplus_Z/project/realtek_amebaDplus_va0_example/GCC-RELEASE/project_km4/asdk/../toolchain/linux/asdk-10.3.1/linux/newlib/arm-none-eabi/lib/thumb/v8-m.main+fp/fpu/libc.a(lib_a-s_nan.o)
 .bss           0x0000000020006a10        0x0 /home/zjian_zhang/Dplus_Z/project/realtek_amebaDplus_va0_example/GCC-RELEASE/project_km4/asdk/../toolchain/linux/asdk-10.3.1/linux/newlib/arm-none-eabi/lib/thumb/v8-m.main+fp/fpu/libc.a(lib_a-wcrtomb.o)
 .bss           0x0000000020006a10        0x0 /home/zjian_zhang/Dplus_Z/project/realtek_amebaDplus_va0_example/GCC-RELEASE/project_km4/asdk/../toolchain/linux/asdk-10.3.1/linux/newlib/arm-none-eabi/lib/thumb/v8-m.main+fp/fpu/libc.a(lib_a-abort.o)
 .bss           0x0000000020006a10        0x0 /home/zjian_zhang/Dplus_Z/project/realtek_amebaDplus_va0_example/GCC-RELEASE/project_km4/asdk/../toolchain/linux/asdk-10.3.1/linux/newlib/arm-none-eabi/lib/thumb/v8-m.main+fp/fpu/libc.a(lib_a-signal.o)
 .bss           0x0000000020006a10        0x0 /home/zjian_zhang/Dplus_Z/project/realtek_amebaDplus_va0_example/GCC-RELEASE/project_km4/asdk/../toolchain/linux/asdk-10.3.1/linux/newlib/arm-none-eabi/lib/thumb/v8-m.main+fp/fpu/libc.a(lib_a-signalr.o)
 .bss           0x0000000020006a10        0x0 /home/zjian_zhang/Dplus_Z/project/realtek_amebaDplus_va0_example/GCC-RELEASE/project_km4/asdk/../toolchain/linux/asdk-10.3.1/linux/newlib/lib/gcc/arm-none-eabi/10.3.1/thumb/v8-m.main+fp/fpu/libgcc.a(_arm_muldf3.o)
 .bss           0x0000000020006a10        0x0 /home/zjian_zhang/Dplus_Z/project/realtek_amebaDplus_va0_example/GCC-RELEASE/project_km4/asdk/../toolchain/linux/asdk-10.3.1/linux/newlib/lib/gcc/arm-none-eabi/10.3.1/thumb/v8-m.main+fp/fpu/libgcc.a(_arm_addsubdf3.o)
 .bss           0x0000000020006a10        0x0 /home/zjian_zhang/Dplus_Z/project/realtek_amebaDplus_va0_example/GCC-RELEASE/project_km4/asdk/../toolchain/linux/asdk-10.3.1/linux/newlib/lib/gcc/arm-none-eabi/10.3.1/thumb/v8-m.main+fp/fpu/libgcc.a(_arm_muldivdf3.o)
 .bss           0x0000000020006a10        0x0 /home/zjian_zhang/Dplus_Z/project/realtek_amebaDplus_va0_example/GCC-RELEASE/project_km4/asdk/../toolchain/linux/asdk-10.3.1/linux/newlib/lib/gcc/arm-none-eabi/10.3.1/thumb/v8-m.main+fp/fpu/libgcc.a(_arm_cmpdf2.o)
 .bss           0x0000000020006a10        0x0 /home/zjian_zhang/Dplus_Z/project/realtek_amebaDplus_va0_example/GCC-RELEASE/project_km4/asdk/../toolchain/linux/asdk-10.3.1/linux/newlib/lib/gcc/arm-none-eabi/10.3.1/thumb/v8-m.main+fp/fpu/libgcc.a(_arm_unorddf2.o)
 .bss           0x0000000020006a10        0x0 /home/zjian_zhang/Dplus_Z/project/realtek_amebaDplus_va0_example/GCC-RELEASE/project_km4/asdk/../toolchain/linux/asdk-10.3.1/linux/newlib/lib/gcc/arm-none-eabi/10.3.1/thumb/v8-m.main+fp/fpu/libgcc.a(_arm_fixdfsi.o)
 .bss           0x0000000020006a10        0x0 /home/zjian_zhang/Dplus_Z/project/realtek_amebaDplus_va0_example/GCC-RELEASE/project_km4/asdk/../toolchain/linux/asdk-10.3.1/linux/newlib/lib/gcc/arm-none-eabi/10.3.1/thumb/v8-m.main+fp/fpu/libgcc.a(_arm_fixunsdfsi.o)
 .bss           0x0000000020006a10        0x0 /home/zjian_zhang/Dplus_Z/project/realtek_amebaDplus_va0_example/GCC-RELEASE/project_km4/asdk/../toolchain/linux/asdk-10.3.1/linux/newlib/lib/gcc/arm-none-eabi/10.3.1/thumb/v8-m.main+fp/fpu/libgcc.a(_arm_truncdfsf2.o)
 .bss           0x0000000020006a10        0x0 /home/zjian_zhang/Dplus_Z/project/realtek_amebaDplus_va0_example/GCC-RELEASE/project_km4/asdk/../toolchain/linux/asdk-10.3.1/linux/newlib/lib/gcc/arm-none-eabi/10.3.1/thumb/v8-m.main+fp/fpu/libgcc.a(_aeabi_uldivmod.o)
 .bss           0x0000000020006a10        0x0 /home/zjian_zhang/Dplus_Z/project/realtek_amebaDplus_va0_example/GCC-RELEASE/project_km4/asdk/../toolchain/linux/asdk-10.3.1/linux/newlib/lib/gcc/arm-none-eabi/10.3.1/thumb/v8-m.main+fp/fpu/libgcc.a(_fixdfdi.o)
 .bss           0x0000000020006a10        0x0 /home/zjian_zhang/Dplus_Z/project/realtek_amebaDplus_va0_example/GCC-RELEASE/project_km4/asdk/../toolchain/linux/asdk-10.3.1/linux/newlib/lib/gcc/arm-none-eabi/10.3.1/thumb/v8-m.main+fp/fpu/libgcc.a(_fixunsdfdi.o)
 .bss           0x0000000020006a10        0x0 /home/zjian_zhang/Dplus_Z/project/realtek_amebaDplus_va0_example/GCC-RELEASE/project_km4/asdk/../toolchain/linux/asdk-10.3.1/linux/newlib/lib/gcc/arm-none-eabi/10.3.1/thumb/v8-m.main+fp/fpu/libgcc.a(_udivmoddi4.o)
 .bss           0x0000000020006a10        0x0 /home/zjian_zhang/Dplus_Z/project/realtek_amebaDplus_va0_example/GCC-RELEASE/project_km4/asdk/../toolchain/linux/asdk-10.3.1/linux/newlib/lib/gcc/arm-none-eabi/10.3.1/thumb/v8-m.main+fp/fpu/libgcc.a(_dvmd_tls.o)
 .bss           0x0000000020006a10        0x0 /home/zjian_zhang/Dplus_Z/project/realtek_amebaDplus_va0_example/GCC-RELEASE/project_km4/asdk/../toolchain/linux/asdk-10.3.1/linux/newlib/arm-none-eabi/lib/thumb/v8-m.main+fp/fpu/libnosys.a(close.o)
 .bss           0x0000000020006a10        0x0 /home/zjian_zhang/Dplus_Z/project/realtek_amebaDplus_va0_example/GCC-RELEASE/project_km4/asdk/../toolchain/linux/asdk-10.3.1/linux/newlib/arm-none-eabi/lib/thumb/v8-m.main+fp/fpu/libnosys.a(fstat.o)
 .bss           0x0000000020006a10        0x0 /home/zjian_zhang/Dplus_Z/project/realtek_amebaDplus_va0_example/GCC-RELEASE/project_km4/asdk/../toolchain/linux/asdk-10.3.1/linux/newlib/arm-none-eabi/lib/thumb/v8-m.main+fp/fpu/libnosys.a(getpid.o)
 .bss           0x0000000020006a10        0x0 /home/zjian_zhang/Dplus_Z/project/realtek_amebaDplus_va0_example/GCC-RELEASE/project_km4/asdk/../toolchain/linux/asdk-10.3.1/linux/newlib/arm-none-eabi/lib/thumb/v8-m.main+fp/fpu/libnosys.a(isatty.o)
 .bss           0x0000000020006a10        0x0 /home/zjian_zhang/Dplus_Z/project/realtek_amebaDplus_va0_example/GCC-RELEASE/project_km4/asdk/../toolchain/linux/asdk-10.3.1/linux/newlib/arm-none-eabi/lib/thumb/v8-m.main+fp/fpu/libnosys.a(kill.o)
 .bss           0x0000000020006a10        0x0 /home/zjian_zhang/Dplus_Z/project/realtek_amebaDplus_va0_example/GCC-RELEASE/project_km4/asdk/../toolchain/linux/asdk-10.3.1/linux/newlib/arm-none-eabi/lib/thumb/v8-m.main+fp/fpu/libnosys.a(lseek.o)
 .bss           0x0000000020006a10        0x4 /home/zjian_zhang/Dplus_Z/project/realtek_amebaDplus_va0_example/GCC-RELEASE/project_km4/asdk/../toolchain/linux/asdk-10.3.1/linux/newlib/arm-none-eabi/lib/thumb/v8-m.main+fp/fpu/libnosys.a(sbrk.o)
 .bss           0x0000000020006a14        0x0 /home/zjian_zhang/Dplus_Z/project/realtek_amebaDplus_va0_example/GCC-RELEASE/project_km4/asdk/../toolchain/linux/asdk-10.3.1/linux/newlib/arm-none-eabi/lib/thumb/v8-m.main+fp/fpu/libnosys.a(_exit.o)
 *(COMMON)
                0x0000000020006a14                __rom_stdlib_bss_end__ = .
                0x0000000020006a20                . = ALIGN (0x20)
 *fill*         0x0000000020006a14        0xc 

.rom.stdlib.heap
                0x0000000020006a20        0x0
                0x0000000020006a20                __rom_stdlib_heap_start__ = .
                0x0000000020006a20                end = .

.rom.stdlib.text
                0x0000000000033000     0xda40
                0x0000000000033000                __rom_stdlib_text_start__ = .
 *(SORT_BY_NAME(.stdlib.entry.table*))
 .stdlib.entry.table
                0x0000000000033000        0x8 ./build/stdlib/stdlib_link.o
                0x0000000000033000                stdlib_entry_table
 *(*.text*)
 .text          0x0000000000033008      0x7c0 ./build/stdlib/stdlib_link.o
                0x0000000000033008                test_strcat
                0x000000000003305c                test_strchr
                0x0000000000033084                test_strcpy
                0x00000000000330e4                test_strncat
                0x0000000000033144                test_strncmp
                0x000000000003317c                test_strncpy
                0x00000000000331dc                test_strsep
                0x0000000000033230                test_strstr
                0x000000000003325c                test_strtok
                0x00000000000332b8                test_strpbrk
                0x0000000000033324                test_stratoi
                0x0000000000033360                test_strtol
                0x00000000000333c4                _write
                0x0000000000033434                _read
                0x00000000000334bc                rtl_string_test
                0x00000000000334f4                stdlib_vsnprintf_call
                0x0000000000033514                stdlib_printf_call
                0x0000000000033570                stdlib_scanf_call
                0x00000000000335c0                stdlib_test
                0x0000000000033604                stdlib_memset
                0x00000000000336a8                stdlib_memcpy
                0x0000000000033788                stdlib_init
                0x00000000000337bc                stdlib_loguart_relocation
 .text          0x00000000000337c8       0x10 /home/zjian_zhang/Dplus_Z/project/realtek_amebaDplus_va0_example/GCC-RELEASE/project_km4/asdk/../toolchain/linux/asdk-10.3.1/linux/newlib/arm-none-eabi/lib/thumb/v8-m.main+fp/fpu/libc.a(lib_a-atoi.o)
                0x00000000000337c8                atoi
                0x00000000000337d0                _atoi_r
 .text          0x00000000000337d8       0x40 /home/zjian_zhang/Dplus_Z/project/realtek_amebaDplus_va0_example/GCC-RELEASE/project_km4/asdk/../toolchain/linux/asdk-10.3.1/linux/newlib/arm-none-eabi/lib/thumb/v8-m.main+fp/fpu/libc.a(lib_a-printf.o)
                0x00000000000337d8                _printf_r
                0x00000000000337f4                printf
 .text          0x0000000000033818       0x18 /home/zjian_zhang/Dplus_Z/project/realtek_amebaDplus_va0_example/GCC-RELEASE/project_km4/asdk/../toolchain/linux/asdk-10.3.1/linux/newlib/arm-none-eabi/lib/thumb/v8-m.main+fp/fpu/libc.a(lib_a-putchar.o)
                0x0000000000033818                _putchar_r
                0x000000000003381e                putchar
 .text          0x0000000000033830       0x78 /home/zjian_zhang/Dplus_Z/project/realtek_amebaDplus_va0_example/GCC-RELEASE/project_km4/asdk/../toolchain/linux/asdk-10.3.1/linux/newlib/arm-none-eabi/lib/thumb/v8-m.main+fp/fpu/libc.a(lib_a-putc.o)
                0x0000000000033830                _putc_r
                0x0000000000033898                putc
 .text          0x00000000000338a8       0x9c /home/zjian_zhang/Dplus_Z/project/realtek_amebaDplus_va0_example/GCC-RELEASE/project_km4/asdk/../toolchain/linux/asdk-10.3.1/linux/newlib/arm-none-eabi/lib/thumb/v8-m.main+fp/fpu/libc.a(lib_a-puts.o)
                0x00000000000338a8                _puts_r
                0x0000000000033934                puts
 .text          0x0000000000033944       0xc4 /home/zjian_zhang/Dplus_Z/project/realtek_amebaDplus_va0_example/GCC-RELEASE/project_km4/asdk/../toolchain/linux/asdk-10.3.1/linux/newlib/arm-none-eabi/lib/thumb/v8-m.main+fp/fpu/libc.a(lib_a-snprintf.o)
                0x0000000000033944                _snprintf_r
                0x00000000000339a2                snprintf
 .text          0x0000000000033a08       0x78 /home/zjian_zhang/Dplus_Z/project/realtek_amebaDplus_va0_example/GCC-RELEASE/project_km4/asdk/../toolchain/linux/asdk-10.3.1/linux/newlib/arm-none-eabi/lib/thumb/v8-m.main+fp/fpu/libc.a(lib_a-sprintf.o)
                0x0000000000033a08                _sprintf_r
                0x0000000000033a40                sprintf
 .text          0x0000000000033a80       0xac /home/zjian_zhang/Dplus_Z/project/realtek_amebaDplus_va0_example/GCC-RELEASE/project_km4/asdk/../toolchain/linux/asdk-10.3.1/linux/newlib/arm-none-eabi/lib/thumb/v8-m.main+fp/fpu/libc.a(lib_a-sscanf.o)
                0x0000000000033a80                sscanf
                0x0000000000033ad8                _sscanf_r
 .text          0x0000000000033b2c       0x8a /home/zjian_zhang/Dplus_Z/project/realtek_amebaDplus_va0_example/GCC-RELEASE/project_km4/asdk/../toolchain/linux/asdk-10.3.1/linux/newlib/arm-none-eabi/lib/thumb/v8-m.main+fp/fpu/libc.a(lib_a-stdio.o)
                0x0000000000033b2c                __sread
                0x0000000000033b4e                __seofread
                0x0000000000033b52                __swrite
                0x0000000000033b8a                __sseek
                0x0000000000033bae                __sclose
 .text          0x0000000000033bb6       0x32 /home/zjian_zhang/Dplus_Z/project/realtek_amebaDplus_va0_example/GCC-RELEASE/project_km4/asdk/../toolchain/linux/asdk-10.3.1/linux/newlib/arm-none-eabi/lib/thumb/v8-m.main+fp/fpu/libc.a(lib_a-strcat.o)
                0x0000000000033bb6                strcat
 .text          0x0000000000033be8       0x8a /home/zjian_zhang/Dplus_Z/project/realtek_amebaDplus_va0_example/GCC-RELEASE/project_km4/asdk/../toolchain/linux/asdk-10.3.1/linux/newlib/arm-none-eabi/lib/thumb/v8-m.main+fp/fpu/libc.a(lib_a-strchr.o)
                0x0000000000033be8                strchr
 *fill*         0x0000000000033c72        0x2 
 .text          0x0000000000033c74       0xbc /home/zjian_zhang/Dplus_Z/project/realtek_amebaDplus_va0_example/GCC-RELEASE/project_km4/asdk/../toolchain/linux/asdk-10.3.1/linux/newlib/arm-none-eabi/lib/thumb/v8-m.main+fp/fpu/libc.a(lib_a-strcpy.o)
                0x0000000000033c74                strcpy
 .text          0x0000000000033d30       0x5c /home/zjian_zhang/Dplus_Z/project/realtek_amebaDplus_va0_example/GCC-RELEASE/project_km4/asdk/../toolchain/linux/asdk-10.3.1/linux/newlib/arm-none-eabi/lib/thumb/v8-m.main+fp/fpu/libc.a(lib_a-strlen-stub.o)
                0x0000000000033d30                strlen
 .text          0x0000000000033d8c       0x42 /home/zjian_zhang/Dplus_Z/project/realtek_amebaDplus_va0_example/GCC-RELEASE/project_km4/asdk/../toolchain/linux/asdk-10.3.1/linux/newlib/arm-none-eabi/lib/thumb/v8-m.main+fp/fpu/libc.a(lib_a-strncat.o)
                0x0000000000033d8c                strncat
 .text          0x0000000000033dce       0x5c /home/zjian_zhang/Dplus_Z/project/realtek_amebaDplus_va0_example/GCC-RELEASE/project_km4/asdk/../toolchain/linux/asdk-10.3.1/linux/newlib/arm-none-eabi/lib/thumb/v8-m.main+fp/fpu/libc.a(lib_a-strncmp.o)
                0x0000000000033dce                strncmp
 .text          0x0000000000033e2a       0x54 /home/zjian_zhang/Dplus_Z/project/realtek_amebaDplus_va0_example/GCC-RELEASE/project_km4/asdk/../toolchain/linux/asdk-10.3.1/linux/newlib/arm-none-eabi/lib/thumb/v8-m.main+fp/fpu/libc.a(lib_a-strncpy.o)
                0x0000000000033e2a                strncpy
 .text          0x0000000000033e7e       0x34 /home/zjian_zhang/Dplus_Z/project/realtek_amebaDplus_va0_example/GCC-RELEASE/project_km4/asdk/../toolchain/linux/asdk-10.3.1/linux/newlib/arm-none-eabi/lib/thumb/v8-m.main+fp/fpu/libc.a(lib_a-strpbrk.o)
                0x0000000000033e7e                strpbrk
 .text          0x0000000000033eb2        0xa /home/zjian_zhang/Dplus_Z/project/realtek_amebaDplus_va0_example/GCC-RELEASE/project_km4/asdk/../toolchain/linux/asdk-10.3.1/linux/newlib/arm-none-eabi/lib/thumb/v8-m.main+fp/fpu/libc.a(lib_a-strsep.o)
                0x0000000000033eb2                strsep
 .text          0x0000000000033ebc      0x358 /home/zjian_zhang/Dplus_Z/project/realtek_amebaDplus_va0_example/GCC-RELEASE/project_km4/asdk/../toolchain/linux/asdk-10.3.1/linux/newlib/arm-none-eabi/lib/thumb/v8-m.main+fp/fpu/libc.a(lib_a-strstr.o)
                0x00000000000340d6                strstr
 .text          0x0000000000034214       0x10 /home/zjian_zhang/Dplus_Z/project/realtek_amebaDplus_va0_example/GCC-RELEASE/project_km4/asdk/../toolchain/linux/asdk-10.3.1/linux/newlib/arm-none-eabi/lib/thumb/v8-m.main+fp/fpu/libc.a(lib_a-strtok.o)
                0x0000000000034214                strtok
 .text          0x0000000000034224       0x56 /home/zjian_zhang/Dplus_Z/project/realtek_amebaDplus_va0_example/GCC-RELEASE/project_km4/asdk/../toolchain/linux/asdk-10.3.1/linux/newlib/arm-none-eabi/lib/thumb/v8-m.main+fp/fpu/libc.a(lib_a-strtok_r.o)
                0x0000000000034224                __strtok_r
                0x0000000000034274                strtok_r
 *fill*         0x000000000003427a        0x2 
 .text          0x000000000003427c      0x128 /home/zjian_zhang/Dplus_Z/project/realtek_amebaDplus_va0_example/GCC-RELEASE/project_km4/asdk/../toolchain/linux/asdk-10.3.1/linux/newlib/arm-none-eabi/lib/thumb/v8-m.main+fp/fpu/libc.a(lib_a-strtol.o)
                0x0000000000034380                _strtol_r
                0x0000000000034382                strtol_l
                0x0000000000034394                strtol
 *fill*         0x00000000000343a4        0x4 
 .text          0x00000000000343a8     0x13bc /home/zjian_zhang/Dplus_Z/project/realtek_amebaDplus_va0_example/GCC-RELEASE/project_km4/asdk/../toolchain/linux/asdk-10.3.1/linux/newlib/arm-none-eabi/lib/thumb/v8-m.main+fp/fpu/libc.a(lib_a-svfprintf.o)
                0x00000000000343a8                _svfprintf_r
 .text          0x0000000000035764     0x1320 /home/zjian_zhang/Dplus_Z/project/realtek_amebaDplus_va0_example/GCC-RELEASE/project_km4/asdk/../toolchain/linux/asdk-10.3.1/linux/newlib/arm-none-eabi/lib/thumb/v8-m.main+fp/fpu/libc.a(lib_a-svfscanf.o)
                0x0000000000035764                __ssvfscanf_r
 *fill*         0x0000000000036a84        0x4 
 .text          0x0000000000036a88     0x14f8 /home/zjian_zhang/Dplus_Z/project/realtek_amebaDplus_va0_example/GCC-RELEASE/project_km4/asdk/../toolchain/linux/asdk-10.3.1/linux/newlib/arm-none-eabi/lib/thumb/v8-m.main+fp/fpu/libc.a(lib_a-vfprintf.o)
                0x0000000000036a88                _vfprintf_r
                0x0000000000037eec                vfprintf
 .text          0x0000000000037f80       0x74 /home/zjian_zhang/Dplus_Z/project/realtek_amebaDplus_va0_example/GCC-RELEASE/project_km4/asdk/../toolchain/linux/asdk-10.3.1/linux/newlib/arm-none-eabi/lib/thumb/v8-m.main+fp/fpu/libc.a(lib_a-vsnprintf.o)
                0x0000000000037f80                _vsnprintf_r
                0x0000000000037fd6                vsnprintf
 .text          0x0000000000037ff4       0xa4 /home/zjian_zhang/Dplus_Z/project/realtek_amebaDplus_va0_example/GCC-RELEASE/project_km4/asdk/../toolchain/linux/asdk-10.3.1/linux/newlib/arm-none-eabi/lib/thumb/v8-m.main+fp/fpu/libc.a(lib_a-wbuf.o)
                0x0000000000037ff4                __swbuf_r
                0x0000000000038086                __swbuf
 .text          0x0000000000038098       0x24 /home/zjian_zhang/Dplus_Z/project/realtek_amebaDplus_va0_example/GCC-RELEASE/project_km4/asdk/../toolchain/linux/asdk-10.3.1/linux/newlib/arm-none-eabi/lib/thumb/v8-m.main+fp/fpu/libc.a(lib_a-writer.o)
                0x0000000000038098                _write_r
 .text          0x00000000000380bc       0xb0 /home/zjian_zhang/Dplus_Z/project/realtek_amebaDplus_va0_example/GCC-RELEASE/project_km4/asdk/../toolchain/linux/asdk-10.3.1/linux/newlib/arm-none-eabi/lib/thumb/v8-m.main+fp/fpu/libc.a(lib_a-wsetup.o)
                0x00000000000380bc                __swsetup_r
 .text          0x000000000003816c       0x20 /home/zjian_zhang/Dplus_Z/project/realtek_amebaDplus_va0_example/GCC-RELEASE/project_km4/asdk/../toolchain/linux/asdk-10.3.1/linux/newlib/arm-none-eabi/lib/thumb/v8-m.main+fp/fpu/libc.a(lib_a-closer.o)
                0x000000000003816c                _close_r
 .text          0x000000000003818c        0x0 /home/zjian_zhang/Dplus_Z/project/realtek_amebaDplus_va0_example/GCC-RELEASE/project_km4/asdk/../toolchain/linux/asdk-10.3.1/linux/newlib/arm-none-eabi/lib/thumb/v8-m.main+fp/fpu/libc.a(lib_a-ctype_.o)
 *fill*         0x000000000003818c        0x4 
 .text          0x0000000000038190      0xcbc /home/zjian_zhang/Dplus_Z/project/realtek_amebaDplus_va0_example/GCC-RELEASE/project_km4/asdk/../toolchain/linux/asdk-10.3.1/linux/newlib/arm-none-eabi/lib/thumb/v8-m.main+fp/fpu/libc.a(lib_a-dtoa.o)
                0x00000000000382b2                _dtoa_r
 .text          0x0000000000038e4c        0xc /home/zjian_zhang/Dplus_Z/project/realtek_amebaDplus_va0_example/GCC-RELEASE/project_km4/asdk/../toolchain/linux/asdk-10.3.1/linux/newlib/arm-none-eabi/lib/thumb/v8-m.main+fp/fpu/libc.a(lib_a-errno.o)
                0x0000000000038e4c                __errno
 .text          0x0000000000038e58      0x188 /home/zjian_zhang/Dplus_Z/project/realtek_amebaDplus_va0_example/GCC-RELEASE/project_km4/asdk/../toolchain/linux/asdk-10.3.1/linux/newlib/arm-none-eabi/lib/thumb/v8-m.main+fp/fpu/libc.a(lib_a-fflush.o)
                0x0000000000038e58                __sflush_r
                0x0000000000038f74                _fflush_r
                0x0000000000038fbe                fflush
 .text          0x0000000000038fe0      0x208 /home/zjian_zhang/Dplus_Z/project/realtek_amebaDplus_va0_example/GCC-RELEASE/project_km4/asdk/../toolchain/linux/asdk-10.3.1/linux/newlib/arm-none-eabi/lib/thumb/v8-m.main+fp/fpu/libc.a(lib_a-findfp.o)
                0x0000000000039030                _cleanup_r
                0x000000000003906c                __sfmoreglue
                0x0000000000039098                _cleanup
                0x00000000000390a4                __sfp_lock_acquire
                0x00000000000390b0                __sfp_lock_release
                0x00000000000390bc                __sinit_lock_acquire
                0x00000000000390c8                __sinit_lock_release
                0x00000000000390d4                __sinit
                0x0000000000039124                __sfp
                0x00000000000391b0                __fp_lock_all
                0x00000000000391cc                __fp_unlock_all
 .text          0x00000000000391e8       0x10 /home/zjian_zhang/Dplus_Z/project/realtek_amebaDplus_va0_example/GCC-RELEASE/project_km4/asdk/../toolchain/linux/asdk-10.3.1/linux/newlib/arm-none-eabi/lib/thumb/v8-m.main+fp/fpu/libc.a(lib_a-free.o)
                0x00000000000391e8                free
 .text          0x00000000000391f8      0x220 /home/zjian_zhang/Dplus_Z/project/realtek_amebaDplus_va0_example/GCC-RELEASE/project_km4/asdk/../toolchain/linux/asdk-10.3.1/linux/newlib/arm-none-eabi/lib/thumb/v8-m.main+fp/fpu/libc.a(lib_a-freer.o)
                0x00000000000391f8                _malloc_trim_r
                0x0000000000039298                _free_r
 .text          0x0000000000039418      0x294 /home/zjian_zhang/Dplus_Z/project/realtek_amebaDplus_va0_example/GCC-RELEASE/project_km4/asdk/../toolchain/linux/asdk-10.3.1/linux/newlib/arm-none-eabi/lib/thumb/v8-m.main+fp/fpu/libc.a(lib_a-fvwrite.o)
                0x0000000000039418                __sfvwrite_r
 .text          0x00000000000396ac       0x78 /home/zjian_zhang/Dplus_Z/project/realtek_amebaDplus_va0_example/GCC-RELEASE/project_km4/asdk/../toolchain/linux/asdk-10.3.1/linux/newlib/arm-none-eabi/lib/thumb/v8-m.main+fp/fpu/libc.a(lib_a-fwalk.o)
                0x00000000000396ac                _fwalk
                0x00000000000396e6                _fwalk_reent
 .text          0x0000000000039724        0x0 /home/zjian_zhang/Dplus_Z/project/realtek_amebaDplus_va0_example/GCC-RELEASE/project_km4/asdk/../toolchain/linux/asdk-10.3.1/linux/newlib/arm-none-eabi/lib/thumb/v8-m.main+fp/fpu/libc.a(lib_a-impure.o)
 .text          0x0000000000039724        0x6 /home/zjian_zhang/Dplus_Z/project/realtek_amebaDplus_va0_example/GCC-RELEASE/project_km4/asdk/../toolchain/linux/asdk-10.3.1/linux/newlib/arm-none-eabi/lib/thumb/v8-m.main+fp/fpu/libc.a(lib_a-iswspace.o)
                0x0000000000039724                iswspace
 *fill*         0x000000000003972a        0x2 
 .text          0x000000000003972c       0x14 /home/zjian_zhang/Dplus_Z/project/realtek_amebaDplus_va0_example/GCC-RELEASE/project_km4/asdk/../toolchain/linux/asdk-10.3.1/linux/newlib/arm-none-eabi/lib/thumb/v8-m.main+fp/fpu/libc.a(lib_a-localeconv.o)
                0x000000000003972c                __localeconv_l
                0x0000000000039730                _localeconv_r
                0x0000000000039738                localeconv
 .text          0x0000000000039740       0x5c /home/zjian_zhang/Dplus_Z/project/realtek_amebaDplus_va0_example/GCC-RELEASE/project_km4/asdk/../toolchain/linux/asdk-10.3.1/linux/newlib/arm-none-eabi/lib/thumb/v8-m.main+fp/fpu/libc.a(lib_a-locale.o)
                0x0000000000039740                _setlocale_r
                0x0000000000039780                __locale_mb_cur_max
                0x000000000003978c                setlocale
 .text          0x000000000003979c       0x18 /home/zjian_zhang/Dplus_Z/project/realtek_amebaDplus_va0_example/GCC-RELEASE/project_km4/asdk/../toolchain/linux/asdk-10.3.1/linux/newlib/arm-none-eabi/lib/thumb/v8-m.main+fp/fpu/libc.a(lib_a-lock.o)
                0x000000000003979c                __retarget_lock_init
                0x000000000003979e                __retarget_lock_init_recursive
                0x00000000000397a0                __retarget_lock_close
                0x00000000000397a2                __retarget_lock_close_recursive
                0x00000000000397a4                __retarget_lock_acquire
                0x00000000000397a6                __retarget_lock_acquire_recursive
                0x00000000000397a8                __retarget_lock_try_acquire
                0x00000000000397ac                __retarget_lock_try_acquire_recursive
                0x00000000000397b0                __retarget_lock_release
                0x00000000000397b2                __retarget_lock_release_recursive
 .text          0x00000000000397b4       0x24 /home/zjian_zhang/Dplus_Z/project/realtek_amebaDplus_va0_example/GCC-RELEASE/project_km4/asdk/../toolchain/linux/asdk-10.3.1/linux/newlib/arm-none-eabi/lib/thumb/v8-m.main+fp/fpu/libc.a(lib_a-lseekr.o)
                0x00000000000397b4                _lseek_r
 .text          0x00000000000397d8       0xd8 /home/zjian_zhang/Dplus_Z/project/realtek_amebaDplus_va0_example/GCC-RELEASE/project_km4/asdk/../toolchain/linux/asdk-10.3.1/linux/newlib/arm-none-eabi/lib/thumb/v8-m.main+fp/fpu/libc.a(lib_a-makebuf.o)
                0x00000000000397d8                __swhatbuf_r
                0x0000000000039830                __smakebuf_r
 .text          0x00000000000398b0       0x10 /home/zjian_zhang/Dplus_Z/project/realtek_amebaDplus_va0_example/GCC-RELEASE/project_km4/asdk/../toolchain/linux/asdk-10.3.1/linux/newlib/arm-none-eabi/lib/thumb/v8-m.main+fp/fpu/libc.a(lib_a-malloc.o)
                0x00000000000398b0                malloc
 .text          0x00000000000398c0      0x460 /home/zjian_zhang/Dplus_Z/project/realtek_amebaDplus_va0_example/GCC-RELEASE/project_km4/asdk/../toolchain/linux/asdk-10.3.1/linux/newlib/arm-none-eabi/lib/thumb/v8-m.main+fp/fpu/libc.a(lib_a-mallocr.o)
                0x00000000000398c0                _malloc_r
 .text          0x0000000000039d20       0x50 /home/zjian_zhang/Dplus_Z/project/realtek_amebaDplus_va0_example/GCC-RELEASE/project_km4/asdk/../toolchain/linux/asdk-10.3.1/linux/newlib/arm-none-eabi/lib/thumb/v8-m.main+fp/fpu/libc.a(lib_a-mbrtowc.o)
                0x0000000000039d20                _mbrtowc_r
                0x0000000000039d54                mbrtowc
 .text          0x0000000000039d70       0x38 /home/zjian_zhang/Dplus_Z/project/realtek_amebaDplus_va0_example/GCC-RELEASE/project_km4/asdk/../toolchain/linux/asdk-10.3.1/linux/newlib/arm-none-eabi/lib/thumb/v8-m.main+fp/fpu/libc.a(lib_a-mbtowc_r.o)
                0x0000000000039d70                _mbtowc_r
                0x0000000000039d84                __ascii_mbtowc
 .text          0x0000000000039da8       0x62 /home/zjian_zhang/Dplus_Z/project/realtek_amebaDplus_va0_example/GCC-RELEASE/project_km4/asdk/../toolchain/linux/asdk-10.3.1/linux/newlib/arm-none-eabi/lib/thumb/v8-m.main+fp/fpu/libc.a(lib_a-memchr-stub.o)
                0x0000000000039da8                memchr
 .text          0x0000000000039e0a       0x4c /home/zjian_zhang/Dplus_Z/project/realtek_amebaDplus_va0_example/GCC-RELEASE/project_km4/asdk/../toolchain/linux/asdk-10.3.1/linux/newlib/arm-none-eabi/lib/thumb/v8-m.main+fp/fpu/libc.a(lib_a-memcmp.o)
                0x0000000000039e0a                memcmp
 *fill*         0x0000000000039e56        0x2 
 .text          0x0000000000039e58       0xec /home/zjian_zhang/Dplus_Z/project/realtek_amebaDplus_va0_example/GCC-RELEASE/project_km4/asdk/../toolchain/linux/asdk-10.3.1/linux/newlib/arm-none-eabi/lib/thumb/v8-m.main+fp/fpu/libc.a(lib_a-memcpy.o)
                0x0000000000039e58                memcpy
 .text          0x0000000000039f44       0xac /home/zjian_zhang/Dplus_Z/project/realtek_amebaDplus_va0_example/GCC-RELEASE/project_km4/asdk/../toolchain/linux/asdk-10.3.1/linux/newlib/arm-none-eabi/lib/thumb/v8-m.main+fp/fpu/libc.a(lib_a-memmove.o)
                0x0000000000039f44                memmove
 .text          0x0000000000039ff0       0x70 /home/zjian_zhang/Dplus_Z/project/realtek_amebaDplus_va0_example/GCC-RELEASE/project_km4/asdk/../toolchain/linux/asdk-10.3.1/linux/newlib/arm-none-eabi/lib/thumb/v8-m.main+fp/fpu/libc.a(lib_a-memset-stub.o)
                0x0000000000039ff0                memset
 .text          0x000000000003a060       0x18 /home/zjian_zhang/Dplus_Z/project/realtek_amebaDplus_va0_example/GCC-RELEASE/project_km4/asdk/../toolchain/linux/asdk-10.3.1/linux/newlib/arm-none-eabi/lib/thumb/v8-m.main+fp/fpu/libc.a(lib_a-mlock.o)
                0x000000000003a060                __malloc_lock
                0x000000000003a06c                __malloc_unlock
 .text          0x000000000003a078      0x924 /home/zjian_zhang/Dplus_Z/project/realtek_amebaDplus_va0_example/GCC-RELEASE/project_km4/asdk/../toolchain/linux/asdk-10.3.1/linux/newlib/arm-none-eabi/lib/thumb/v8-m.main+fp/fpu/libc.a(lib_a-mprec.o)
                0x000000000003a078                _Balloc
                0x000000000003a0c2                _Bfree
                0x000000000003a0d4                __multadd
                0x000000000003a164                __s2b
                0x000000000003a1f8                __hi0bits
                0x000000000003a238                __lo0bits
                0x000000000003a296                __i2b
                0x000000000003a2c0                __multiply
                0x000000000003a410                __pow5mult
                0x000000000003a490                __lshift
                0x000000000003a570                __mcmp
                0x000000000003a5a8                __mdiff
                0x000000000003a6c8                __ulp
                0x000000000003a71c                __b2d
                0x000000000003a7bc                __d2b
                0x000000000003a874                __ratio
                0x000000000003a8da                _mprec_log10
                0x000000000003a914                __copybits
                0x000000000003a95a                __any_on
 .text          0x000000000003a99c       0x24 /home/zjian_zhang/Dplus_Z/project/realtek_amebaDplus_va0_example/GCC-RELEASE/project_km4/asdk/../toolchain/linux/asdk-10.3.1/linux/newlib/arm-none-eabi/lib/thumb/v8-m.main+fp/fpu/libc.a(lib_a-readr.o)
                0x000000000003a99c                _read_r
 .text          0x000000000003a9c0       0x10 /home/zjian_zhang/Dplus_Z/project/realtek_amebaDplus_va0_example/GCC-RELEASE/project_km4/asdk/../toolchain/linux/asdk-10.3.1/linux/newlib/arm-none-eabi/lib/thumb/v8-m.main+fp/fpu/libc.a(lib_a-realloc.o)
                0x000000000003a9c0                realloc
 .text          0x000000000003a9d0      0x358 /home/zjian_zhang/Dplus_Z/project/realtek_amebaDplus_va0_example/GCC-RELEASE/project_km4/asdk/../toolchain/linux/asdk-10.3.1/linux/newlib/arm-none-eabi/lib/thumb/v8-m.main+fp/fpu/libc.a(lib_a-reallocr.o)
                0x000000000003a9d0                _realloc_r
 .text          0x000000000003ad28       0xa0 /home/zjian_zhang/Dplus_Z/project/realtek_amebaDplus_va0_example/GCC-RELEASE/project_km4/asdk/../toolchain/linux/asdk-10.3.1/linux/newlib/arm-none-eabi/lib/thumb/v8-m.main+fp/fpu/libc.a(lib_a-reent.o)
                0x000000000003ad28                cleanup_glue
                0x000000000003ad42                _reclaim_reent
 .text          0x000000000003adc8       0x20 /home/zjian_zhang/Dplus_Z/project/realtek_amebaDplus_va0_example/GCC-RELEASE/project_km4/asdk/../toolchain/linux/asdk-10.3.1/linux/newlib/arm-none-eabi/lib/thumb/v8-m.main+fp/fpu/libc.a(lib_a-sbrkr.o)
                0x000000000003adc8                _sbrk_r
 .text          0x000000000003ade8       0x70 /home/zjian_zhang/Dplus_Z/project/realtek_amebaDplus_va0_example/GCC-RELEASE/project_km4/asdk/../toolchain/linux/asdk-10.3.1/linux/newlib/arm-none-eabi/lib/thumb/v8-m.main+fp/fpu/libc.a(lib_a-sccl.o)
                0x000000000003ade8                __sccl
 .text          0x000000000003ae58        0xc /home/zjian_zhang/Dplus_Z/project/realtek_amebaDplus_va0_example/GCC-RELEASE/project_km4/asdk/../toolchain/linux/asdk-10.3.1/linux/newlib/arm-none-eabi/lib/thumb/v8-m.main+fp/fpu/libc.a(lib_a-sf_nan.o)
                0x000000000003ae58                nanf
 .text          0x000000000003ae64       0x70 /home/zjian_zhang/Dplus_Z/project/realtek_amebaDplus_va0_example/GCC-RELEASE/project_km4/asdk/../toolchain/linux/asdk-10.3.1/linux/newlib/arm-none-eabi/lib/thumb/v8-m.main+fp/fpu/libc.a(lib_a-s_frexp.o)
                0x000000000003ae64                frexp
 .text          0x000000000003aed4      0x1bc /home/zjian_zhang/Dplus_Z/project/realtek_amebaDplus_va0_example/GCC-RELEASE/project_km4/asdk/../toolchain/linux/asdk-10.3.1/linux/newlib/arm-none-eabi/lib/thumb/v8-m.main+fp/fpu/libc.a(lib_a-strcmp.o)
                0x000000000003aed4                strcmp
 .text          0x000000000003b090       0x18 /home/zjian_zhang/Dplus_Z/project/realtek_amebaDplus_va0_example/GCC-RELEASE/project_km4/asdk/../toolchain/linux/asdk-10.3.1/linux/newlib/arm-none-eabi/lib/thumb/v8-m.main+fp/fpu/libc.a(lib_a-strnlen.o)
                0x000000000003b090                strnlen
 .text          0x000000000003b0a8      0xde0 /home/zjian_zhang/Dplus_Z/project/realtek_amebaDplus_va0_example/GCC-RELEASE/project_km4/asdk/../toolchain/linux/asdk-10.3.1/linux/newlib/arm-none-eabi/lib/thumb/v8-m.main+fp/fpu/libc.a(lib_a-strtod.o)
                0x000000000003b0e0                _strtod_l
                0x000000000003bce4                _strtod_r
                0x000000000003bcf0                strtod_l
                0x000000000003bd04                strtod
                0x000000000003bd1c                strtof_l
                0x000000000003bdd0                strtof
 .text          0x000000000003be88      0x150 /home/zjian_zhang/Dplus_Z/project/realtek_amebaDplus_va0_example/GCC-RELEASE/project_km4/asdk/../toolchain/linux/asdk-10.3.1/linux/newlib/arm-none-eabi/lib/thumb/v8-m.main+fp/fpu/libc.a(lib_a-strtoll.o)
                0x000000000003bfb4                _strtoll_r
                0x000000000003bfb6                strtoll_l
                0x000000000003bfc8                strtoll
 .text          0x000000000003bfd8      0x158 /home/zjian_zhang/Dplus_Z/project/realtek_amebaDplus_va0_example/GCC-RELEASE/project_km4/asdk/../toolchain/linux/asdk-10.3.1/linux/newlib/arm-none-eabi/lib/thumb/v8-m.main+fp/fpu/libc.a(lib_a-strtoull.o)
                0x000000000003c10c                _strtoull_r
                0x000000000003c10e                strtoull_l
                0x000000000003c120                strtoull
 .text          0x000000000003c130      0x108 /home/zjian_zhang/Dplus_Z/project/realtek_amebaDplus_va0_example/GCC-RELEASE/project_km4/asdk/../toolchain/linux/asdk-10.3.1/linux/newlib/arm-none-eabi/lib/thumb/v8-m.main+fp/fpu/libc.a(lib_a-strtoul.o)
                0x000000000003c214                _strtoul_r
                0x000000000003c216                strtoul_l
                0x000000000003c228                strtoul
 .text          0x000000000003c238      0x9a4 /home/zjian_zhang/Dplus_Z/project/realtek_amebaDplus_va0_example/GCC-RELEASE/project_km4/asdk/../toolchain/linux/asdk-10.3.1/linux/newlib/arm-none-eabi/lib/thumb/v8-m.main+fp/fpu/libc.a(lib_a-svfiprintf.o)
                0x000000000003c238                __ssprint_r
                0x000000000003c32e                _svfiprintf_r
 .text          0x000000000003cbdc      0xff4 /home/zjian_zhang/Dplus_Z/project/realtek_amebaDplus_va0_example/GCC-RELEASE/project_km4/asdk/../toolchain/linux/asdk-10.3.1/linux/newlib/arm-none-eabi/lib/thumb/v8-m.main+fp/fpu/libc.a(lib_a-svfiscanf.o)
                0x000000000003cbdc                _sungetc_r
                0x000000000003cc56                __ssrefill_r
                0x000000000003cc90                _sfread_r
                0x000000000003cd00                __ssvfiscanf_r
 .text          0x000000000003dbd0      0x19c /home/zjian_zhang/Dplus_Z/project/realtek_amebaDplus_va0_example/GCC-RELEASE/project_km4/asdk/../toolchain/linux/asdk-10.3.1/linux/newlib/arm-none-eabi/lib/thumb/v8-m.main+fp/fpu/libc.a(lib_a-ungetc.o)
                0x000000000003dbd0                __submore
                0x000000000003dc3e                _ungetc_r
                0x000000000003dd5c                ungetc
 .text          0x000000000003dd6c      0xa24 /home/zjian_zhang/Dplus_Z/project/realtek_amebaDplus_va0_example/GCC-RELEASE/project_km4/asdk/../toolchain/linux/asdk-10.3.1/linux/newlib/arm-none-eabi/lib/thumb/v8-m.main+fp/fpu/libc.a(lib_a-vfiprintf.o)
                0x000000000003dd6c                __sprint_r
                0x000000000003ddd0                _vfiprintf_r
                0x000000000003e6fc                vfiprintf
 .text          0x000000000003e790       0x30 /home/zjian_zhang/Dplus_Z/project/realtek_amebaDplus_va0_example/GCC-RELEASE/project_km4/asdk/../toolchain/linux/asdk-10.3.1/linux/newlib/arm-none-eabi/lib/thumb/v8-m.main+fp/fpu/libc.a(lib_a-wctomb_r.o)
                0x000000000003e790                _wctomb_r
                0x000000000003e7a4                __ascii_wctomb
 .text          0x000000000003e7c0       0x48 /home/zjian_zhang/Dplus_Z/project/realtek_amebaDplus_va0_example/GCC-RELEASE/project_km4/asdk/../toolchain/linux/asdk-10.3.1/linux/newlib/arm-none-eabi/lib/thumb/v8-m.main+fp/fpu/libc.a(lib_a-assert.o)
                0x000000000003e7c0                __assert_func
                0x000000000003e7fc                __assert
 .text          0x000000000003e808       0x6a /home/zjian_zhang/Dplus_Z/project/realtek_amebaDplus_va0_example/GCC-RELEASE/project_km4/asdk/../toolchain/linux/asdk-10.3.1/linux/newlib/arm-none-eabi/lib/thumb/v8-m.main+fp/fpu/libc.a(lib_a-callocr.o)
                0x000000000003e808                _calloc_r
 *fill*         0x000000000003e872        0x2 
 .text          0x000000000003e874       0xbc /home/zjian_zhang/Dplus_Z/project/realtek_amebaDplus_va0_example/GCC-RELEASE/project_km4/asdk/../toolchain/linux/asdk-10.3.1/linux/newlib/arm-none-eabi/lib/thumb/v8-m.main+fp/fpu/libc.a(lib_a-fclose.o)
                0x000000000003e874                _fclose_r
                0x000000000003e922                fclose
 .text          0x000000000003e930       0x40 /home/zjian_zhang/Dplus_Z/project/realtek_amebaDplus_va0_example/GCC-RELEASE/project_km4/asdk/../toolchain/linux/asdk-10.3.1/linux/newlib/arm-none-eabi/lib/thumb/v8-m.main+fp/fpu/libc.a(lib_a-fiprintf.o)
                0x000000000003e930                _fiprintf_r
                0x000000000003e94a                fiprintf
 .text          0x000000000003e970      0x104 /home/zjian_zhang/Dplus_Z/project/realtek_amebaDplus_va0_example/GCC-RELEASE/project_km4/asdk/../toolchain/linux/asdk-10.3.1/linux/newlib/arm-none-eabi/lib/thumb/v8-m.main+fp/fpu/libc.a(lib_a-fputwc.o)
                0x000000000003e970                __fputwc
                0x000000000003e9f2                _fputwc_r
                0x000000000003ea46                fputwc
 .text          0x000000000003ea74       0x24 /home/zjian_zhang/Dplus_Z/project/realtek_amebaDplus_va0_example/GCC-RELEASE/project_km4/asdk/../toolchain/linux/asdk-10.3.1/linux/newlib/arm-none-eabi/lib/thumb/v8-m.main+fp/fpu/libc.a(lib_a-fstatr.o)
                0x000000000003ea74                _fstat_r
 .text          0x000000000003ea98      0x558 /home/zjian_zhang/Dplus_Z/project/realtek_amebaDplus_va0_example/GCC-RELEASE/project_km4/asdk/../toolchain/linux/asdk-10.3.1/linux/newlib/arm-none-eabi/lib/thumb/v8-m.main+fp/fpu/libc.a(lib_a-gdtoa-gethex.o)
                0x000000000003eb3a                __hexdig_fun
                0x000000000003eb64                __gethex
 .text          0x000000000003eff0      0x184 /home/zjian_zhang/Dplus_Z/project/realtek_amebaDplus_va0_example/GCC-RELEASE/project_km4/asdk/../toolchain/linux/asdk-10.3.1/linux/newlib/arm-none-eabi/lib/thumb/v8-m.main+fp/fpu/libc.a(lib_a-gdtoa-hexnan.o)
                0x000000000003f014                __match
                0x000000000003f03c                __hexnan
 .text          0x000000000003f174       0x20 /home/zjian_zhang/Dplus_Z/project/realtek_amebaDplus_va0_example/GCC-RELEASE/project_km4/asdk/../toolchain/linux/asdk-10.3.1/linux/newlib/arm-none-eabi/lib/thumb/v8-m.main+fp/fpu/libc.a(lib_a-isattyr.o)
                0x000000000003f174                _isatty_r
 .text          0x000000000003f194       0x14 /home/zjian_zhang/Dplus_Z/project/realtek_amebaDplus_va0_example/GCC-RELEASE/project_km4/asdk/../toolchain/linux/asdk-10.3.1/linux/newlib/arm-none-eabi/lib/thumb/v8-m.main+fp/fpu/libc.a(lib_a-iswspace_l.o)
                0x000000000003f194                iswspace_l
 .text          0x000000000003f1a8        0x4 /home/zjian_zhang/Dplus_Z/project/realtek_amebaDplus_va0_example/GCC-RELEASE/project_km4/asdk/../toolchain/linux/asdk-10.3.1/linux/newlib/arm-none-eabi/lib/thumb/v8-m.main+fp/fpu/libc.a(lib_a-lnumeric.o)
                0x000000000003f1a8                __numeric_load_locale
 *fill*         0x000000000003f1ac        0x4 
 .text          0x000000000003f1b0       0x10 /home/zjian_zhang/Dplus_Z/project/realtek_amebaDplus_va0_example/GCC-RELEASE/project_km4/asdk/../toolchain/linux/asdk-10.3.1/linux/newlib/arm-none-eabi/lib/thumb/v8-m.main+fp/fpu/libc.a(lib_a-s_nan.o)
                0x000000000003f1b0                nan
 .text          0x000000000003f1c0       0x40 /home/zjian_zhang/Dplus_Z/project/realtek_amebaDplus_va0_example/GCC-RELEASE/project_km4/asdk/../toolchain/linux/asdk-10.3.1/linux/newlib/arm-none-eabi/lib/thumb/v8-m.main+fp/fpu/libc.a(lib_a-wcrtomb.o)
                0x000000000003f1c0                _wcrtomb_r
                0x000000000003f1ec                wcrtomb
 .text          0x000000000003f200        0xe /home/zjian_zhang/Dplus_Z/project/realtek_amebaDplus_va0_example/GCC-RELEASE/project_km4/asdk/../toolchain/linux/asdk-10.3.1/linux/newlib/arm-none-eabi/lib/thumb/v8-m.main+fp/fpu/libc.a(lib_a-abort.o)
                0x000000000003f200                abort
 *fill*         0x000000000003f20e        0x2 
 .text          0x000000000003f210      0x138 /home/zjian_zhang/Dplus_Z/project/realtek_amebaDplus_va0_example/GCC-RELEASE/project_km4/asdk/../toolchain/linux/asdk-10.3.1/linux/newlib/arm-none-eabi/lib/thumb/v8-m.main+fp/fpu/libc.a(lib_a-signal.o)
                0x000000000003f210                _init_signal_r
                0x000000000003f23c                _signal_r
                0x000000000003f270                _raise_r
                0x000000000003f2c2                __sigtramp_r
                0x000000000003f30e                raise
                0x000000000003f31c                signal
                0x000000000003f32c                _init_signal
                0x000000000003f338                __sigtramp
 .text          0x000000000003f348       0x28 /home/zjian_zhang/Dplus_Z/project/realtek_amebaDplus_va0_example/GCC-RELEASE/project_km4/asdk/../toolchain/linux/asdk-10.3.1/linux/newlib/arm-none-eabi/lib/thumb/v8-m.main+fp/fpu/libc.a(lib_a-signalr.o)
                0x000000000003f348                _kill_r
                0x000000000003f36c                _getpid_r
 .text          0x000000000003f370      0x254 /home/zjian_zhang/Dplus_Z/project/realtek_amebaDplus_va0_example/GCC-RELEASE/project_km4/asdk/../toolchain/linux/asdk-10.3.1/linux/newlib/lib/gcc/arm-none-eabi/10.3.1/thumb/v8-m.main+fp/fpu/libgcc.a(_arm_muldf3.o)
 .text          0x000000000003f5c4      0x378 /home/zjian_zhang/Dplus_Z/project/realtek_amebaDplus_va0_example/GCC-RELEASE/project_km4/asdk/../toolchain/linux/asdk-10.3.1/linux/newlib/lib/gcc/arm-none-eabi/10.3.1/thumb/v8-m.main+fp/fpu/libgcc.a(_arm_addsubdf3.o)
                0x000000000003f5c4                __aeabi_drsub
                0x000000000003f5cc                __aeabi_dsub
                0x000000000003f5cc                __subdf3
                0x000000000003f5d0                __adddf3
                0x000000000003f5d0                __aeabi_dadd
                0x000000000003f848                __aeabi_ui2d
                0x000000000003f848                __floatunsidf
                0x000000000003f868                __floatsidf
                0x000000000003f868                __aeabi_i2d
                0x000000000003f88c                __extendsfdf2
                0x000000000003f88c                __aeabi_f2d
                0x000000000003f8d0                __aeabi_ul2d
                0x000000000003f8d0                __floatundidf
                0x000000000003f8e0                __floatdidf
                0x000000000003f8e0                __aeabi_l2d
 .text          0x000000000003f93c      0x424 /home/zjian_zhang/Dplus_Z/project/realtek_amebaDplus_va0_example/GCC-RELEASE/project_km4/asdk/../toolchain/linux/asdk-10.3.1/linux/newlib/lib/gcc/arm-none-eabi/10.3.1/thumb/v8-m.main+fp/fpu/libgcc.a(_arm_muldivdf3.o)
                0x000000000003f93c                __aeabi_dmul
                0x000000000003f93c                __muldf3
                0x000000000003fb90                __aeabi_ddiv
                0x000000000003fb90                __divdf3
 .text          0x000000000003fd60      0x110 /home/zjian_zhang/Dplus_Z/project/realtek_amebaDplus_va0_example/GCC-RELEASE/project_km4/asdk/../toolchain/linux/asdk-10.3.1/linux/newlib/lib/gcc/arm-none-eabi/10.3.1/thumb/v8-m.main+fp/fpu/libgcc.a(_arm_cmpdf2.o)
                0x000000000003fd60                __gtdf2
                0x000000000003fd60                __gedf2
                0x000000000003fd68                __ltdf2
                0x000000000003fd68                __ledf2
                0x000000000003fd70                __cmpdf2
                0x000000000003fd70                __eqdf2
                0x000000000003fd70                __nedf2
                0x000000000003fdec                __aeabi_cdrcmple
                0x000000000003fdfc                __aeabi_cdcmple
                0x000000000003fdfc                __aeabi_cdcmpeq
                0x000000000003fe0c                __aeabi_dcmpeq
                0x000000000003fe20                __aeabi_dcmplt
                0x000000000003fe34                __aeabi_dcmple
                0x000000000003fe48                __aeabi_dcmpge
                0x000000000003fe5c                __aeabi_dcmpgt
 .text          0x000000000003fe70       0x2c /home/zjian_zhang/Dplus_Z/project/realtek_amebaDplus_va0_example/GCC-RELEASE/project_km4/asdk/../toolchain/linux/asdk-10.3.1/linux/newlib/lib/gcc/arm-none-eabi/10.3.1/thumb/v8-m.main+fp/fpu/libgcc.a(_arm_unorddf2.o)
                0x000000000003fe70                __aeabi_dcmpun
                0x000000000003fe70                __unorddf2
 .text          0x000000000003fe9c       0x50 /home/zjian_zhang/Dplus_Z/project/realtek_amebaDplus_va0_example/GCC-RELEASE/project_km4/asdk/../toolchain/linux/asdk-10.3.1/linux/newlib/lib/gcc/arm-none-eabi/10.3.1/thumb/v8-m.main+fp/fpu/libgcc.a(_arm_fixdfsi.o)
                0x000000000003fe9c                __fixdfsi
                0x000000000003fe9c                __aeabi_d2iz
 .text          0x000000000003feec       0x40 /home/zjian_zhang/Dplus_Z/project/realtek_amebaDplus_va0_example/GCC-RELEASE/project_km4/asdk/../toolchain/linux/asdk-10.3.1/linux/newlib/lib/gcc/arm-none-eabi/10.3.1/thumb/v8-m.main+fp/fpu/libgcc.a(_arm_fixunsdfsi.o)
                0x000000000003feec                __fixunsdfsi
                0x000000000003feec                __aeabi_d2uiz
 .text          0x000000000003ff2c       0xa0 /home/zjian_zhang/Dplus_Z/project/realtek_amebaDplus_va0_example/GCC-RELEASE/project_km4/asdk/../toolchain/linux/asdk-10.3.1/linux/newlib/lib/gcc/arm-none-eabi/10.3.1/thumb/v8-m.main+fp/fpu/libgcc.a(_arm_truncdfsf2.o)
                0x000000000003ff2c                __aeabi_d2f
                0x000000000003ff2c                __truncdfsf2
 .text          0x000000000003ffcc       0x30 /home/zjian_zhang/Dplus_Z/project/realtek_amebaDplus_va0_example/GCC-RELEASE/project_km4/asdk/../toolchain/linux/asdk-10.3.1/linux/newlib/lib/gcc/arm-none-eabi/10.3.1/thumb/v8-m.main+fp/fpu/libgcc.a(_aeabi_uldivmod.o)
                0x000000000003ffcc                __aeabi_uldivmod
 .text          0x000000000003fffc       0x2e /home/zjian_zhang/Dplus_Z/project/realtek_amebaDplus_va0_example/GCC-RELEASE/project_km4/asdk/../toolchain/linux/asdk-10.3.1/linux/newlib/lib/gcc/arm-none-eabi/10.3.1/thumb/v8-m.main+fp/fpu/libgcc.a(_fixdfdi.o)
                0x000000000003fffc                __aeabi_d2lz
                0x000000000003fffc                __fixdfdi
 *fill*         0x000000000004002a        0x2 
 .text          0x000000000004002c       0x3c /home/zjian_zhang/Dplus_Z/project/realtek_amebaDplus_va0_example/GCC-RELEASE/project_km4/asdk/../toolchain/linux/asdk-10.3.1/linux/newlib/lib/gcc/arm-none-eabi/10.3.1/thumb/v8-m.main+fp/fpu/libgcc.a(_fixunsdfdi.o)
                0x000000000004002c                __aeabi_d2ulz
                0x000000000004002c                __fixunsdfdi
 .text          0x0000000000040068      0x2a8 /home/zjian_zhang/Dplus_Z/project/realtek_amebaDplus_va0_example/GCC-RELEASE/project_km4/asdk/../toolchain/linux/asdk-10.3.1/linux/newlib/lib/gcc/arm-none-eabi/10.3.1/thumb/v8-m.main+fp/fpu/libgcc.a(_udivmoddi4.o)
                0x0000000000040068                __udivmoddi4
 .text          0x0000000000040310        0x4 /home/zjian_zhang/Dplus_Z/project/realtek_amebaDplus_va0_example/GCC-RELEASE/project_km4/asdk/../toolchain/linux/asdk-10.3.1/linux/newlib/lib/gcc/arm-none-eabi/10.3.1/thumb/v8-m.main+fp/fpu/libgcc.a(_dvmd_tls.o)
                0x0000000000040310                __aeabi_ldiv0
                0x0000000000040310                __aeabi_idiv0
 .text          0x0000000000040314       0x10 /home/zjian_zhang/Dplus_Z/project/realtek_amebaDplus_va0_example/GCC-RELEASE/project_km4/asdk/../toolchain/linux/asdk-10.3.1/linux/newlib/arm-none-eabi/lib/thumb/v8-m.main+fp/fpu/libnosys.a(close.o)
                0x0000000000040314                _close
 .text          0x0000000000040324       0x10 /home/zjian_zhang/Dplus_Z/project/realtek_amebaDplus_va0_example/GCC-RELEASE/project_km4/asdk/../toolchain/linux/asdk-10.3.1/linux/newlib/arm-none-eabi/lib/thumb/v8-m.main+fp/fpu/libnosys.a(fstat.o)
                0x0000000000040324                _fstat
 .text          0x0000000000040334       0x10 /home/zjian_zhang/Dplus_Z/project/realtek_amebaDplus_va0_example/GCC-RELEASE/project_km4/asdk/../toolchain/linux/asdk-10.3.1/linux/newlib/arm-none-eabi/lib/thumb/v8-m.main+fp/fpu/libnosys.a(getpid.o)
                0x0000000000040334                _getpid
 .text          0x0000000000040344       0x10 /home/zjian_zhang/Dplus_Z/project/realtek_amebaDplus_va0_example/GCC-RELEASE/project_km4/asdk/../toolchain/linux/asdk-10.3.1/linux/newlib/arm-none-eabi/lib/thumb/v8-m.main+fp/fpu/libnosys.a(isatty.o)
                0x0000000000040344                _isatty
 .text          0x0000000000040354       0x10 /home/zjian_zhang/Dplus_Z/project/realtek_amebaDplus_va0_example/GCC-RELEASE/project_km4/asdk/../toolchain/linux/asdk-10.3.1/linux/newlib/arm-none-eabi/lib/thumb/v8-m.main+fp/fpu/libnosys.a(kill.o)
                0x0000000000040354                _kill
 .text          0x0000000000040364       0x10 /home/zjian_zhang/Dplus_Z/project/realtek_amebaDplus_va0_example/GCC-RELEASE/project_km4/asdk/../toolchain/linux/asdk-10.3.1/linux/newlib/arm-none-eabi/lib/thumb/v8-m.main+fp/fpu/libnosys.a(lseek.o)
                0x0000000000040364                _lseek
 .text          0x0000000000040374       0x1c /home/zjian_zhang/Dplus_Z/project/realtek_amebaDplus_va0_example/GCC-RELEASE/project_km4/asdk/../toolchain/linux/asdk-10.3.1/linux/newlib/arm-none-eabi/lib/thumb/v8-m.main+fp/fpu/libnosys.a(sbrk.o)
                0x0000000000040374                _sbrk
 .text          0x0000000000040390        0x2 /home/zjian_zhang/Dplus_Z/project/realtek_amebaDplus_va0_example/GCC-RELEASE/project_km4/asdk/../toolchain/linux/asdk-10.3.1/linux/newlib/arm-none-eabi/lib/thumb/v8-m.main+fp/fpu/libnosys.a(_exit.o)
                0x0000000000040390                _exit
 *(*.rodata*)
 *fill*         0x0000000000040392        0x2 
 .rom.rodata    0x0000000000040394      0x13b ./build/stdlib/stdlib_link.o
 .rodata.str1.1
                0x00000000000404cf        0x0 /home/zjian_zhang/Dplus_Z/project/realtek_amebaDplus_va0_example/GCC-RELEASE/project_km4/asdk/../toolchain/linux/asdk-10.3.1/linux/newlib/arm-none-eabi/lib/thumb/v8-m.main+fp/fpu/libc.a(lib_a-puts.o)
                                          0x2 (size before relaxing)
 .rodata.str1.1
                0x00000000000404cf       0x34 /home/zjian_zhang/Dplus_Z/project/realtek_amebaDplus_va0_example/GCC-RELEASE/project_km4/asdk/../toolchain/linux/asdk-10.3.1/linux/newlib/arm-none-eabi/lib/thumb/v8-m.main+fp/fpu/libc.a(lib_a-svfprintf.o)
 .rodata        0x0000000000040503       0x20 /home/zjian_zhang/Dplus_Z/project/realtek_amebaDplus_va0_example/GCC-RELEASE/project_km4/asdk/../toolchain/linux/asdk-10.3.1/linux/newlib/arm-none-eabi/lib/thumb/v8-m.main+fp/fpu/libc.a(lib_a-svfprintf.o)
 .rodata.str1.1
                0x0000000000040523        0x5 /home/zjian_zhang/Dplus_Z/project/realtek_amebaDplus_va0_example/GCC-RELEASE/project_km4/asdk/../toolchain/linux/asdk-10.3.1/linux/newlib/arm-none-eabi/lib/thumb/v8-m.main+fp/fpu/libc.a(lib_a-svfscanf.o)
                                          0x6 (size before relaxing)
 .rodata        0x0000000000040528       0x22 /home/zjian_zhang/Dplus_Z/project/realtek_amebaDplus_va0_example/GCC-RELEASE/project_km4/asdk/../toolchain/linux/asdk-10.3.1/linux/newlib/arm-none-eabi/lib/thumb/v8-m.main+fp/fpu/libc.a(lib_a-svfscanf.o)
 .rodata.str1.1
                0x000000000004054a       0x34 /home/zjian_zhang/Dplus_Z/project/realtek_amebaDplus_va0_example/GCC-RELEASE/project_km4/asdk/../toolchain/linux/asdk-10.3.1/linux/newlib/arm-none-eabi/lib/thumb/v8-m.main+fp/fpu/libc.a(lib_a-vfprintf.o)
 .rodata        0x000000000004054a       0x20 /home/zjian_zhang/Dplus_Z/project/realtek_amebaDplus_va0_example/GCC-RELEASE/project_km4/asdk/../toolchain/linux/asdk-10.3.1/linux/newlib/arm-none-eabi/lib/thumb/v8-m.main+fp/fpu/libc.a(lib_a-vfprintf.o)
 .rodata        0x000000000004056a      0x101 /home/zjian_zhang/Dplus_Z/project/realtek_amebaDplus_va0_example/GCC-RELEASE/project_km4/asdk/../toolchain/linux/asdk-10.3.1/linux/newlib/arm-none-eabi/lib/thumb/v8-m.main+fp/fpu/libc.a(lib_a-ctype_.o)
                0x000000000004056a                _ctype_
 .rodata.str1.1
                0x000000000004066b       0x92 /home/zjian_zhang/Dplus_Z/project/realtek_amebaDplus_va0_example/GCC-RELEASE/project_km4/asdk/../toolchain/linux/asdk-10.3.1/linux/newlib/arm-none-eabi/lib/thumb/v8-m.main+fp/fpu/libc.a(lib_a-dtoa.o)
                                         0x94 (size before relaxing)
 *fill*         0x00000000000406fd        0x3 
 .rodata        0x0000000000040700        0x4 /home/zjian_zhang/Dplus_Z/project/realtek_amebaDplus_va0_example/GCC-RELEASE/project_km4/asdk/../toolchain/linux/asdk-10.3.1/linux/newlib/arm-none-eabi/lib/thumb/v8-m.main+fp/fpu/libc.a(lib_a-impure.o)
                0x0000000000040700                _global_impure_ptr
 .rodata.str1.1
                0x0000000000040704        0xa /home/zjian_zhang/Dplus_Z/project/realtek_amebaDplus_va0_example/GCC-RELEASE/project_km4/asdk/../toolchain/linux/asdk-10.3.1/linux/newlib/arm-none-eabi/lib/thumb/v8-m.main+fp/fpu/libc.a(lib_a-locale.o)
                                          0xb (size before relaxing)
 .rodata.str1.1
                0x000000000004070e        0x1 /home/zjian_zhang/Dplus_Z/project/realtek_amebaDplus_va0_example/GCC-RELEASE/project_km4/asdk/../toolchain/linux/asdk-10.3.1/linux/newlib/arm-none-eabi/lib/thumb/v8-m.main+fp/fpu/libc.a(lib_a-mbrtowc.o)
 .rodata.str1.1
                0x000000000004070e       0x75 /home/zjian_zhang/Dplus_Z/project/realtek_amebaDplus_va0_example/GCC-RELEASE/project_km4/asdk/../toolchain/linux/asdk-10.3.1/linux/newlib/arm-none-eabi/lib/thumb/v8-m.main+fp/fpu/libc.a(lib_a-mprec.o)
                                         0x86 (size before relaxing)
 *fill*         0x0000000000040783        0x5 
 .rodata        0x0000000000040788      0x128 /home/zjian_zhang/Dplus_Z/project/realtek_amebaDplus_va0_example/GCC-RELEASE/project_km4/asdk/../toolchain/linux/asdk-10.3.1/linux/newlib/arm-none-eabi/lib/thumb/v8-m.main+fp/fpu/libc.a(lib_a-mprec.o)
                0x0000000000040798                __mprec_tens
                0x0000000000040860                __mprec_tinytens
                0x0000000000040888                __mprec_bigtens
 .rodata.str1.1
                0x00000000000408b0       0x75 /home/zjian_zhang/Dplus_Z/project/realtek_amebaDplus_va0_example/GCC-RELEASE/project_km4/asdk/../toolchain/linux/asdk-10.3.1/linux/newlib/arm-none-eabi/lib/thumb/v8-m.main+fp/fpu/libc.a(lib_a-strtod.o)
                                          0xd (size before relaxing)
 .rodata        0x00000000000408b0       0x50 /home/zjian_zhang/Dplus_Z/project/realtek_amebaDplus_va0_example/GCC-RELEASE/project_km4/asdk/../toolchain/linux/asdk-10.3.1/linux/newlib/arm-none-eabi/lib/thumb/v8-m.main+fp/fpu/libc.a(lib_a-strtod.o)
 .rodata.str1.1
                0x0000000000040900       0x22 /home/zjian_zhang/Dplus_Z/project/realtek_amebaDplus_va0_example/GCC-RELEASE/project_km4/asdk/../toolchain/linux/asdk-10.3.1/linux/newlib/arm-none-eabi/lib/thumb/v8-m.main+fp/fpu/libc.a(lib_a-svfiprintf.o)
 .rodata        0x0000000000040900       0x20 /home/zjian_zhang/Dplus_Z/project/realtek_amebaDplus_va0_example/GCC-RELEASE/project_km4/asdk/../toolchain/linux/asdk-10.3.1/linux/newlib/arm-none-eabi/lib/thumb/v8-m.main+fp/fpu/libc.a(lib_a-svfiprintf.o)
 .rodata        0x0000000000040920       0x22 /home/zjian_zhang/Dplus_Z/project/realtek_amebaDplus_va0_example/GCC-RELEASE/project_km4/asdk/../toolchain/linux/asdk-10.3.1/linux/newlib/arm-none-eabi/lib/thumb/v8-m.main+fp/fpu/libc.a(lib_a-svfiscanf.o)
 .rodata.str1.1
                0x0000000000040942       0x22 /home/zjian_zhang/Dplus_Z/project/realtek_amebaDplus_va0_example/GCC-RELEASE/project_km4/asdk/../toolchain/linux/asdk-10.3.1/linux/newlib/arm-none-eabi/lib/thumb/v8-m.main+fp/fpu/libc.a(lib_a-vfiprintf.o)
 .rodata        0x0000000000040942       0x20 /home/zjian_zhang/Dplus_Z/project/realtek_amebaDplus_va0_example/GCC-RELEASE/project_km4/asdk/../toolchain/linux/asdk-10.3.1/linux/newlib/arm-none-eabi/lib/thumb/v8-m.main+fp/fpu/libc.a(lib_a-vfiprintf.o)
 .rodata.str1.1
                0x0000000000040962       0x3c /home/zjian_zhang/Dplus_Z/project/realtek_amebaDplus_va0_example/GCC-RELEASE/project_km4/asdk/../toolchain/linux/asdk-10.3.1/linux/newlib/arm-none-eabi/lib/thumb/v8-m.main+fp/fpu/libc.a(lib_a-assert.o)
                                         0x3d (size before relaxing)
 .rodata.str1.1
                0x000000000004099e       0x7c /home/zjian_zhang/Dplus_Z/project/realtek_amebaDplus_va0_example/GCC-RELEASE/project_km4/asdk/../toolchain/linux/asdk-10.3.1/linux/newlib/arm-none-eabi/lib/thumb/v8-m.main+fp/fpu/libc.a(lib_a-gdtoa-gethex.o)
                                         0x8d (size before relaxing)
 .rodata.str1.1
                0x0000000000040a1a        0x3 /home/zjian_zhang/Dplus_Z/project/realtek_amebaDplus_va0_example/GCC-RELEASE/project_km4/asdk/../toolchain/linux/asdk-10.3.1/linux/newlib/arm-none-eabi/lib/thumb/v8-m.main+fp/fpu/libc.a(lib_a-lnumeric.o)
 *fill*         0x0000000000040a1a        0x2 
 .rodata        0x0000000000040a1c        0xc /home/zjian_zhang/Dplus_Z/project/realtek_amebaDplus_va0_example/GCC-RELEASE/project_km4/asdk/../toolchain/linux/asdk-10.3.1/linux/newlib/arm-none-eabi/lib/thumb/v8-m.main+fp/fpu/libc.a(lib_a-lnumeric.o)
                0x0000000000040a1c                _C_numeric_locale
                0x0000000000040a40                . = ALIGN (0x20)
 *fill*         0x0000000000040a28       0x18 
                0x0000000000040a40                __rom_stdlib_text_end__ = .
                0x0000000000000001                ASSERT ((((__rom_stdlib_data_end__ - __rom_stdlib_data_start__) + __rom_stdlib_text_end__) < (ORIGIN (KM4_IROM_STDLIB_NS) + LENGTH (KM4_IROM_STDLIB_NS))), STDLIB size overflow.)
OUTPUT(target_stdlib.axf elf32-littlearm)
LOAD linker stubs

.glue_7         0x0000000000040a40        0x0
 .glue_7        0x0000000000040a40        0x0 linker stubs

.glue_7t        0x0000000000040a40        0x0
 .glue_7t       0x0000000000040a40        0x0 linker stubs

.vfp11_veneer   0x0000000000040a40        0x0
 .vfp11_veneer  0x0000000000040a40        0x0 linker stubs

.v4_bx          0x0000000000040a40        0x0
 .v4_bx         0x0000000000040a40        0x0 linker stubs

.iplt           0x0000000000040a40        0x0
 .iplt          0x0000000000040a40        0x0 ./build/stdlib/stdlib_link.o

.igot.plt       0x0000000000040a40        0x0
 .igot.plt      0x0000000000040a40        0x0 ./build/stdlib/stdlib_link.o

.rel.dyn        0x0000000000040a40        0x0
 .rel.iplt      0x0000000000040a40        0x0 ./build/stdlib/stdlib_link.o

.ARM.extab      0x0000000000040a40        0x0
 .ARM.extab     0x0000000000040a40        0x0 /home/zjian_zhang/Dplus_Z/project/realtek_amebaDplus_va0_example/GCC-RELEASE/project_km4/asdk/../toolchain/linux/asdk-10.3.1/linux/newlib/lib/gcc/arm-none-eabi/10.3.1/thumb/v8-m.main+fp/fpu/libgcc.a(_udivmoddi4.o)

.ARM.exidx      0x0000000000040a40        0x8
 .ARM.exidx     0x0000000000040a40        0x8 /home/zjian_zhang/Dplus_Z/project/realtek_amebaDplus_va0_example/GCC-RELEASE/project_km4/asdk/../toolchain/linux/asdk-10.3.1/linux/newlib/lib/gcc/arm-none-eabi/10.3.1/thumb/v8-m.main+fp/fpu/libgcc.a(_udivmoddi4.o)

.debug_info     0x0000000000000000    0x3cb03
 .debug_info    0x0000000000000000     0x1154 ./build/stdlib/stdlib_link.o
 .debug_info    0x0000000000001154      0x9b9 /home/zjian_zhang/Dplus_Z/project/realtek_amebaDplus_va0_example/GCC-RELEASE/project_km4/asdk/../toolchain/linux/asdk-10.3.1/linux/newlib/arm-none-eabi/lib/thumb/v8-m.main+fp/fpu/libc.a(lib_a-atoi.o)
 .debug_info    0x0000000000001b0d      0xa3c /home/zjian_zhang/Dplus_Z/project/realtek_amebaDplus_va0_example/GCC-RELEASE/project_km4/asdk/../toolchain/linux/asdk-10.3.1/linux/newlib/arm-none-eabi/lib/thumb/v8-m.main+fp/fpu/libc.a(lib_a-printf.o)
 .debug_info    0x0000000000002549      0x9bc /home/zjian_zhang/Dplus_Z/project/realtek_amebaDplus_va0_example/GCC-RELEASE/project_km4/asdk/../toolchain/linux/asdk-10.3.1/linux/newlib/arm-none-eabi/lib/thumb/v8-m.main+fp/fpu/libc.a(lib_a-putchar.o)
 .debug_info    0x0000000000002f05      0xad8 /home/zjian_zhang/Dplus_Z/project/realtek_amebaDplus_va0_example/GCC-RELEASE/project_km4/asdk/../toolchain/linux/asdk-10.3.1/linux/newlib/arm-none-eabi/lib/thumb/v8-m.main+fp/fpu/libc.a(lib_a-putc.o)
 .debug_info    0x00000000000039dd      0xb26 /home/zjian_zhang/Dplus_Z/project/realtek_amebaDplus_va0_example/GCC-RELEASE/project_km4/asdk/../toolchain/linux/asdk-10.3.1/linux/newlib/arm-none-eabi/lib/thumb/v8-m.main+fp/fpu/libc.a(lib_a-puts.o)
 .debug_info    0x0000000000004503      0xad4 /home/zjian_zhang/Dplus_Z/project/realtek_amebaDplus_va0_example/GCC-RELEASE/project_km4/asdk/../toolchain/linux/asdk-10.3.1/linux/newlib/arm-none-eabi/lib/thumb/v8-m.main+fp/fpu/libc.a(lib_a-snprintf.o)
 .debug_info    0x0000000000004fd7      0xa97 /home/zjian_zhang/Dplus_Z/project/realtek_amebaDplus_va0_example/GCC-RELEASE/project_km4/asdk/../toolchain/linux/asdk-10.3.1/linux/newlib/arm-none-eabi/lib/thumb/v8-m.main+fp/fpu/libc.a(lib_a-sprintf.o)
 .debug_info    0x0000000000005a6e      0xac9 /home/zjian_zhang/Dplus_Z/project/realtek_amebaDplus_va0_example/GCC-RELEASE/project_km4/asdk/../toolchain/linux/asdk-10.3.1/linux/newlib/arm-none-eabi/lib/thumb/v8-m.main+fp/fpu/libc.a(lib_a-sscanf.o)
 .debug_info    0x0000000000006537      0xc33 /home/zjian_zhang/Dplus_Z/project/realtek_amebaDplus_va0_example/GCC-RELEASE/project_km4/asdk/../toolchain/linux/asdk-10.3.1/linux/newlib/arm-none-eabi/lib/thumb/v8-m.main+fp/fpu/libc.a(lib_a-stdio.o)
 .debug_info    0x000000000000716a      0x125 /home/zjian_zhang/Dplus_Z/project/realtek_amebaDplus_va0_example/GCC-RELEASE/project_km4/asdk/../toolchain/linux/asdk-10.3.1/linux/newlib/arm-none-eabi/lib/thumb/v8-m.main+fp/fpu/libc.a(lib_a-strcat.o)
 .debug_info    0x000000000000728f      0x134 /home/zjian_zhang/Dplus_Z/project/realtek_amebaDplus_va0_example/GCC-RELEASE/project_km4/asdk/../toolchain/linux/asdk-10.3.1/linux/newlib/arm-none-eabi/lib/thumb/v8-m.main+fp/fpu/libc.a(lib_a-strchr.o)
 .debug_info    0x00000000000073c3       0xc4 /home/zjian_zhang/Dplus_Z/project/realtek_amebaDplus_va0_example/GCC-RELEASE/project_km4/asdk/../toolchain/linux/asdk-10.3.1/linux/newlib/arm-none-eabi/lib/thumb/v8-m.main+fp/fpu/libc.a(lib_a-strcpy.o)
 .debug_info    0x0000000000007487       0xbc /home/zjian_zhang/Dplus_Z/project/realtek_amebaDplus_va0_example/GCC-RELEASE/project_km4/asdk/../toolchain/linux/asdk-10.3.1/linux/newlib/arm-none-eabi/lib/thumb/v8-m.main+fp/fpu/libc.a(lib_a-strlen-stub.o)
 .debug_info    0x0000000000007543      0x12a /home/zjian_zhang/Dplus_Z/project/realtek_amebaDplus_va0_example/GCC-RELEASE/project_km4/asdk/../toolchain/linux/asdk-10.3.1/linux/newlib/arm-none-eabi/lib/thumb/v8-m.main+fp/fpu/libc.a(lib_a-strncat.o)
 .debug_info    0x000000000000766d      0x110 /home/zjian_zhang/Dplus_Z/project/realtek_amebaDplus_va0_example/GCC-RELEASE/project_km4/asdk/../toolchain/linux/asdk-10.3.1/linux/newlib/arm-none-eabi/lib/thumb/v8-m.main+fp/fpu/libc.a(lib_a-strncmp.o)
 .debug_info    0x000000000000777d      0x153 /home/zjian_zhang/Dplus_Z/project/realtek_amebaDplus_va0_example/GCC-RELEASE/project_km4/asdk/../toolchain/linux/asdk-10.3.1/linux/newlib/arm-none-eabi/lib/thumb/v8-m.main+fp/fpu/libc.a(lib_a-strncpy.o)
 .debug_info    0x00000000000078d0       0xd4 /home/zjian_zhang/Dplus_Z/project/realtek_amebaDplus_va0_example/GCC-RELEASE/project_km4/asdk/../toolchain/linux/asdk-10.3.1/linux/newlib/arm-none-eabi/lib/thumb/v8-m.main+fp/fpu/libc.a(lib_a-strpbrk.o)
 .debug_info    0x00000000000079a4       0xfd /home/zjian_zhang/Dplus_Z/project/realtek_amebaDplus_va0_example/GCC-RELEASE/project_km4/asdk/../toolchain/linux/asdk-10.3.1/linux/newlib/arm-none-eabi/lib/thumb/v8-m.main+fp/fpu/libc.a(lib_a-strsep.o)
 .debug_info    0x0000000000007aa1      0x739 /home/zjian_zhang/Dplus_Z/project/realtek_amebaDplus_va0_example/GCC-RELEASE/project_km4/asdk/../toolchain/linux/asdk-10.3.1/linux/newlib/arm-none-eabi/lib/thumb/v8-m.main+fp/fpu/libc.a(lib_a-strstr.o)
 .debug_info    0x00000000000081da      0x98b /home/zjian_zhang/Dplus_Z/project/realtek_amebaDplus_va0_example/GCC-RELEASE/project_km4/asdk/../toolchain/linux/asdk-10.3.1/linux/newlib/arm-none-eabi/lib/thumb/v8-m.main+fp/fpu/libc.a(lib_a-strtok.o)
 .debug_info    0x0000000000008b65      0x1b1 /home/zjian_zhang/Dplus_Z/project/realtek_amebaDplus_va0_example/GCC-RELEASE/project_km4/asdk/../toolchain/linux/asdk-10.3.1/linux/newlib/arm-none-eabi/lib/thumb/v8-m.main+fp/fpu/libc.a(lib_a-strtok_r.o)
 .debug_info    0x0000000000008d16      0xf8a /home/zjian_zhang/Dplus_Z/project/realtek_amebaDplus_va0_example/GCC-RELEASE/project_km4/asdk/../toolchain/linux/asdk-10.3.1/linux/newlib/arm-none-eabi/lib/thumb/v8-m.main+fp/fpu/libc.a(lib_a-strtol.o)
 .debug_info    0x0000000000009ca0     0x1b7c /home/zjian_zhang/Dplus_Z/project/realtek_amebaDplus_va0_example/GCC-RELEASE/project_km4/asdk/../toolchain/linux/asdk-10.3.1/linux/newlib/arm-none-eabi/lib/thumb/v8-m.main+fp/fpu/libc.a(lib_a-svfprintf.o)
 .debug_info    0x000000000000b81c     0x1ee7 /home/zjian_zhang/Dplus_Z/project/realtek_amebaDplus_va0_example/GCC-RELEASE/project_km4/asdk/../toolchain/linux/asdk-10.3.1/linux/newlib/arm-none-eabi/lib/thumb/v8-m.main+fp/fpu/libc.a(lib_a-svfscanf.o)
 .debug_info    0x000000000000d703     0x1dee /home/zjian_zhang/Dplus_Z/project/realtek_amebaDplus_va0_example/GCC-RELEASE/project_km4/asdk/../toolchain/linux/asdk-10.3.1/linux/newlib/arm-none-eabi/lib/thumb/v8-m.main+fp/fpu/libc.a(lib_a-vfprintf.o)
 .debug_info    0x000000000000f4f1      0xa9d /home/zjian_zhang/Dplus_Z/project/realtek_amebaDplus_va0_example/GCC-RELEASE/project_km4/asdk/../toolchain/linux/asdk-10.3.1/linux/newlib/arm-none-eabi/lib/thumb/v8-m.main+fp/fpu/libc.a(lib_a-vsnprintf.o)
 .debug_info    0x000000000000ff8e      0xa71 /home/zjian_zhang/Dplus_Z/project/realtek_amebaDplus_va0_example/GCC-RELEASE/project_km4/asdk/../toolchain/linux/asdk-10.3.1/linux/newlib/arm-none-eabi/lib/thumb/v8-m.main+fp/fpu/libc.a(lib_a-wbuf.o)
 .debug_info    0x00000000000109ff      0x9cb /home/zjian_zhang/Dplus_Z/project/realtek_amebaDplus_va0_example/GCC-RELEASE/project_km4/asdk/../toolchain/linux/asdk-10.3.1/linux/newlib/arm-none-eabi/lib/thumb/v8-m.main+fp/fpu/libc.a(lib_a-writer.o)
 .debug_info    0x00000000000113ca      0x9cd /home/zjian_zhang/Dplus_Z/project/realtek_amebaDplus_va0_example/GCC-RELEASE/project_km4/asdk/../toolchain/linux/asdk-10.3.1/linux/newlib/arm-none-eabi/lib/thumb/v8-m.main+fp/fpu/libc.a(lib_a-wsetup.o)
 .debug_info    0x0000000000011d97      0x976 /home/zjian_zhang/Dplus_Z/project/realtek_amebaDplus_va0_example/GCC-RELEASE/project_km4/asdk/../toolchain/linux/asdk-10.3.1/linux/newlib/arm-none-eabi/lib/thumb/v8-m.main+fp/fpu/libc.a(lib_a-closer.o)
 .debug_info    0x000000000001270d       0xb8 /home/zjian_zhang/Dplus_Z/project/realtek_amebaDplus_va0_example/GCC-RELEASE/project_km4/asdk/../toolchain/linux/asdk-10.3.1/linux/newlib/arm-none-eabi/lib/thumb/v8-m.main+fp/fpu/libc.a(lib_a-ctype_.o)
 .debug_info    0x00000000000127c5     0x1911 /home/zjian_zhang/Dplus_Z/project/realtek_amebaDplus_va0_example/GCC-RELEASE/project_km4/asdk/../toolchain/linux/asdk-10.3.1/linux/newlib/arm-none-eabi/lib/thumb/v8-m.main+fp/fpu/libc.a(lib_a-dtoa.o)
 .debug_info    0x00000000000140d6      0x91f /home/zjian_zhang/Dplus_Z/project/realtek_amebaDplus_va0_example/GCC-RELEASE/project_km4/asdk/../toolchain/linux/asdk-10.3.1/linux/newlib/arm-none-eabi/lib/thumb/v8-m.main+fp/fpu/libc.a(lib_a-errno.o)
 .debug_info    0x00000000000149f5      0xb99 /home/zjian_zhang/Dplus_Z/project/realtek_amebaDplus_va0_example/GCC-RELEASE/project_km4/asdk/../toolchain/linux/asdk-10.3.1/linux/newlib/arm-none-eabi/lib/thumb/v8-m.main+fp/fpu/libc.a(lib_a-fflush.o)
 .debug_info    0x000000000001558e     0x1038 /home/zjian_zhang/Dplus_Z/project/realtek_amebaDplus_va0_example/GCC-RELEASE/project_km4/asdk/../toolchain/linux/asdk-10.3.1/linux/newlib/arm-none-eabi/lib/thumb/v8-m.main+fp/fpu/libc.a(lib_a-findfp.o)
 .debug_info    0x00000000000165c6      0x94b /home/zjian_zhang/Dplus_Z/project/realtek_amebaDplus_va0_example/GCC-RELEASE/project_km4/asdk/../toolchain/linux/asdk-10.3.1/linux/newlib/arm-none-eabi/lib/thumb/v8-m.main+fp/fpu/libc.a(lib_a-free.o)
 .debug_info    0x0000000000016f11      0xcf1 /home/zjian_zhang/Dplus_Z/project/realtek_amebaDplus_va0_example/GCC-RELEASE/project_km4/asdk/../toolchain/linux/asdk-10.3.1/linux/newlib/arm-none-eabi/lib/thumb/v8-m.main+fp/fpu/libc.a(lib_a-freer.o)
 .debug_info    0x0000000000017c02      0xcdb /home/zjian_zhang/Dplus_Z/project/realtek_amebaDplus_va0_example/GCC-RELEASE/project_km4/asdk/../toolchain/linux/asdk-10.3.1/linux/newlib/arm-none-eabi/lib/thumb/v8-m.main+fp/fpu/libc.a(lib_a-fvwrite.o)
 .debug_info    0x00000000000188dd      0xa71 /home/zjian_zhang/Dplus_Z/project/realtek_amebaDplus_va0_example/GCC-RELEASE/project_km4/asdk/../toolchain/linux/asdk-10.3.1/linux/newlib/arm-none-eabi/lib/thumb/v8-m.main+fp/fpu/libc.a(lib_a-fwalk.o)
 .debug_info    0x000000000001934e      0x935 /home/zjian_zhang/Dplus_Z/project/realtek_amebaDplus_va0_example/GCC-RELEASE/project_km4/asdk/../toolchain/linux/asdk-10.3.1/linux/newlib/arm-none-eabi/lib/thumb/v8-m.main+fp/fpu/libc.a(lib_a-impure.o)
 .debug_info    0x0000000000019c83       0xc8 /home/zjian_zhang/Dplus_Z/project/realtek_amebaDplus_va0_example/GCC-RELEASE/project_km4/asdk/../toolchain/linux/asdk-10.3.1/linux/newlib/arm-none-eabi/lib/thumb/v8-m.main+fp/fpu/libc.a(lib_a-iswspace.o)
 .debug_info    0x0000000000019d4b      0xc49 /home/zjian_zhang/Dplus_Z/project/realtek_amebaDplus_va0_example/GCC-RELEASE/project_km4/asdk/../toolchain/linux/asdk-10.3.1/linux/newlib/arm-none-eabi/lib/thumb/v8-m.main+fp/fpu/libc.a(lib_a-localeconv.o)
 .debug_info    0x000000000001a994      0xd6b /home/zjian_zhang/Dplus_Z/project/realtek_amebaDplus_va0_example/GCC-RELEASE/project_km4/asdk/../toolchain/linux/asdk-10.3.1/linux/newlib/arm-none-eabi/lib/thumb/v8-m.main+fp/fpu/libc.a(lib_a-locale.o)
 .debug_info    0x000000000001b6ff      0x245 /home/zjian_zhang/Dplus_Z/project/realtek_amebaDplus_va0_example/GCC-RELEASE/project_km4/asdk/../toolchain/linux/asdk-10.3.1/linux/newlib/arm-none-eabi/lib/thumb/v8-m.main+fp/fpu/libc.a(lib_a-lock.o)
 .debug_info    0x000000000001b944      0x9ac /home/zjian_zhang/Dplus_Z/project/realtek_amebaDplus_va0_example/GCC-RELEASE/project_km4/asdk/../toolchain/linux/asdk-10.3.1/linux/newlib/arm-none-eabi/lib/thumb/v8-m.main+fp/fpu/libc.a(lib_a-lseekr.o)
 .debug_info    0x000000000001c2f0      0xd19 /home/zjian_zhang/Dplus_Z/project/realtek_amebaDplus_va0_example/GCC-RELEASE/project_km4/asdk/../toolchain/linux/asdk-10.3.1/linux/newlib/arm-none-eabi/lib/thumb/v8-m.main+fp/fpu/libc.a(lib_a-makebuf.o)
 .debug_info    0x000000000001d009      0x95b /home/zjian_zhang/Dplus_Z/project/realtek_amebaDplus_va0_example/GCC-RELEASE/project_km4/asdk/../toolchain/linux/asdk-10.3.1/linux/newlib/arm-none-eabi/lib/thumb/v8-m.main+fp/fpu/libc.a(lib_a-malloc.o)
 .debug_info    0x000000000001d964      0xe34 /home/zjian_zhang/Dplus_Z/project/realtek_amebaDplus_va0_example/GCC-RELEASE/project_km4/asdk/../toolchain/linux/asdk-10.3.1/linux/newlib/arm-none-eabi/lib/thumb/v8-m.main+fp/fpu/libc.a(lib_a-mallocr.o)
 .debug_info    0x000000000001e798      0xcd0 /home/zjian_zhang/Dplus_Z/project/realtek_amebaDplus_va0_example/GCC-RELEASE/project_km4/asdk/../toolchain/linux/asdk-10.3.1/linux/newlib/arm-none-eabi/lib/thumb/v8-m.main+fp/fpu/libc.a(lib_a-mbrtowc.o)
 .debug_info    0x000000000001f468      0xcd8 /home/zjian_zhang/Dplus_Z/project/realtek_amebaDplus_va0_example/GCC-RELEASE/project_km4/asdk/../toolchain/linux/asdk-10.3.1/linux/newlib/arm-none-eabi/lib/thumb/v8-m.main+fp/fpu/libc.a(lib_a-mbtowc_r.o)
 .debug_info    0x0000000000020140      0x155 /home/zjian_zhang/Dplus_Z/project/realtek_amebaDplus_va0_example/GCC-RELEASE/project_km4/asdk/../toolchain/linux/asdk-10.3.1/linux/newlib/arm-none-eabi/lib/thumb/v8-m.main+fp/fpu/libc.a(lib_a-memchr-stub.o)
 .debug_info    0x0000000000020295      0x138 /home/zjian_zhang/Dplus_Z/project/realtek_amebaDplus_va0_example/GCC-RELEASE/project_km4/asdk/../toolchain/linux/asdk-10.3.1/linux/newlib/arm-none-eabi/lib/thumb/v8-m.main+fp/fpu/libc.a(lib_a-memcmp.o)
 .debug_info    0x00000000000203cd       0x26 /home/zjian_zhang/Dplus_Z/project/realtek_amebaDplus_va0_example/GCC-RELEASE/project_km4/asdk/../toolchain/linux/asdk-10.3.1/linux/newlib/arm-none-eabi/lib/thumb/v8-m.main+fp/fpu/libc.a(lib_a-memcpy.o)
 .debug_info    0x00000000000203f3      0x14a /home/zjian_zhang/Dplus_Z/project/realtek_amebaDplus_va0_example/GCC-RELEASE/project_km4/asdk/../toolchain/linux/asdk-10.3.1/linux/newlib/arm-none-eabi/lib/thumb/v8-m.main+fp/fpu/libc.a(lib_a-memmove.o)
 .debug_info    0x000000000002053d      0x137 /home/zjian_zhang/Dplus_Z/project/realtek_amebaDplus_va0_example/GCC-RELEASE/project_km4/asdk/../toolchain/linux/asdk-10.3.1/linux/newlib/arm-none-eabi/lib/thumb/v8-m.main+fp/fpu/libc.a(lib_a-memset-stub.o)
 .debug_info    0x0000000000020674      0x98e /home/zjian_zhang/Dplus_Z/project/realtek_amebaDplus_va0_example/GCC-RELEASE/project_km4/asdk/../toolchain/linux/asdk-10.3.1/linux/newlib/arm-none-eabi/lib/thumb/v8-m.main+fp/fpu/libc.a(lib_a-mlock.o)
 .debug_info    0x0000000000021002     0x1e9f /home/zjian_zhang/Dplus_Z/project/realtek_amebaDplus_va0_example/GCC-RELEASE/project_km4/asdk/../toolchain/linux/asdk-10.3.1/linux/newlib/arm-none-eabi/lib/thumb/v8-m.main+fp/fpu/libc.a(lib_a-mprec.o)
 .debug_info    0x0000000000022ea1      0x9c4 /home/zjian_zhang/Dplus_Z/project/realtek_amebaDplus_va0_example/GCC-RELEASE/project_km4/asdk/../toolchain/linux/asdk-10.3.1/linux/newlib/arm-none-eabi/lib/thumb/v8-m.main+fp/fpu/libc.a(lib_a-readr.o)
 .debug_info    0x0000000000023865      0x975 /home/zjian_zhang/Dplus_Z/project/realtek_amebaDplus_va0_example/GCC-RELEASE/project_km4/asdk/../toolchain/linux/asdk-10.3.1/linux/newlib/arm-none-eabi/lib/thumb/v8-m.main+fp/fpu/libc.a(lib_a-realloc.o)
 .debug_info    0x00000000000241da      0xd9c /home/zjian_zhang/Dplus_Z/project/realtek_amebaDplus_va0_example/GCC-RELEASE/project_km4/asdk/../toolchain/linux/asdk-10.3.1/linux/newlib/arm-none-eabi/lib/thumb/v8-m.main+fp/fpu/libc.a(lib_a-reallocr.o)
 .debug_info    0x0000000000024f76      0xaae /home/zjian_zhang/Dplus_Z/project/realtek_amebaDplus_va0_example/GCC-RELEASE/project_km4/asdk/../toolchain/linux/asdk-10.3.1/linux/newlib/arm-none-eabi/lib/thumb/v8-m.main+fp/fpu/libc.a(lib_a-reent.o)
 .debug_info    0x0000000000025a24      0x999 /home/zjian_zhang/Dplus_Z/project/realtek_amebaDplus_va0_example/GCC-RELEASE/project_km4/asdk/../toolchain/linux/asdk-10.3.1/linux/newlib/arm-none-eabi/lib/thumb/v8-m.main+fp/fpu/libc.a(lib_a-sbrkr.o)
 .debug_info    0x00000000000263bd      0x117 /home/zjian_zhang/Dplus_Z/project/realtek_amebaDplus_va0_example/GCC-RELEASE/project_km4/asdk/../toolchain/linux/asdk-10.3.1/linux/newlib/arm-none-eabi/lib/thumb/v8-m.main+fp/fpu/libc.a(lib_a-sccl.o)
 .debug_info    0x00000000000264d4       0xc8 /home/zjian_zhang/Dplus_Z/project/realtek_amebaDplus_va0_example/GCC-RELEASE/project_km4/asdk/../toolchain/linux/asdk-10.3.1/linux/newlib/arm-none-eabi/lib/thumb/v8-m.main+fp/fpu/libc.a(lib_a-sf_nan.o)
 .debug_info    0x000000000002659c      0x1e7 /home/zjian_zhang/Dplus_Z/project/realtek_amebaDplus_va0_example/GCC-RELEASE/project_km4/asdk/../toolchain/linux/asdk-10.3.1/linux/newlib/arm-none-eabi/lib/thumb/v8-m.main+fp/fpu/libc.a(lib_a-s_frexp.o)
 .debug_info    0x0000000000026783       0x26 /home/zjian_zhang/Dplus_Z/project/realtek_amebaDplus_va0_example/GCC-RELEASE/project_km4/asdk/../toolchain/linux/asdk-10.3.1/linux/newlib/arm-none-eabi/lib/thumb/v8-m.main+fp/fpu/libc.a(lib_a-strcmp.o)
 .debug_info    0x00000000000267a9       0xe2 /home/zjian_zhang/Dplus_Z/project/realtek_amebaDplus_va0_example/GCC-RELEASE/project_km4/asdk/../toolchain/linux/asdk-10.3.1/linux/newlib/arm-none-eabi/lib/thumb/v8-m.main+fp/fpu/libc.a(lib_a-strnlen.o)
 .debug_info    0x000000000002688b     0x1e48 /home/zjian_zhang/Dplus_Z/project/realtek_amebaDplus_va0_example/GCC-RELEASE/project_km4/asdk/../toolchain/linux/asdk-10.3.1/linux/newlib/arm-none-eabi/lib/thumb/v8-m.main+fp/fpu/libc.a(lib_a-strtod.o)
 .debug_info    0x00000000000286d3      0xf21 /home/zjian_zhang/Dplus_Z/project/realtek_amebaDplus_va0_example/GCC-RELEASE/project_km4/asdk/../toolchain/linux/asdk-10.3.1/linux/newlib/arm-none-eabi/lib/thumb/v8-m.main+fp/fpu/libc.a(lib_a-strtoll.o)
 .debug_info    0x00000000000295f4      0xf2a /home/zjian_zhang/Dplus_Z/project/realtek_amebaDplus_va0_example/GCC-RELEASE/project_km4/asdk/../toolchain/linux/asdk-10.3.1/linux/newlib/arm-none-eabi/lib/thumb/v8-m.main+fp/fpu/libc.a(lib_a-strtoull.o)
 .debug_info    0x000000000002a51e      0xef6 /home/zjian_zhang/Dplus_Z/project/realtek_amebaDplus_va0_example/GCC-RELEASE/project_km4/asdk/../toolchain/linux/asdk-10.3.1/linux/newlib/arm-none-eabi/lib/thumb/v8-m.main+fp/fpu/libc.a(lib_a-strtoul.o)
 .debug_info    0x000000000002b414     0x1450 /home/zjian_zhang/Dplus_Z/project/realtek_amebaDplus_va0_example/GCC-RELEASE/project_km4/asdk/../toolchain/linux/asdk-10.3.1/linux/newlib/arm-none-eabi/lib/thumb/v8-m.main+fp/fpu/libc.a(lib_a-svfiprintf.o)
 .debug_info    0x000000000002c864     0x1e11 /home/zjian_zhang/Dplus_Z/project/realtek_amebaDplus_va0_example/GCC-RELEASE/project_km4/asdk/../toolchain/linux/asdk-10.3.1/linux/newlib/arm-none-eabi/lib/thumb/v8-m.main+fp/fpu/libc.a(lib_a-svfiscanf.o)
 .debug_info    0x000000000002e675      0xb58 /home/zjian_zhang/Dplus_Z/project/realtek_amebaDplus_va0_example/GCC-RELEASE/project_km4/asdk/../toolchain/linux/asdk-10.3.1/linux/newlib/arm-none-eabi/lib/thumb/v8-m.main+fp/fpu/libc.a(lib_a-ungetc.o)
 .debug_info    0x000000000002f1cd     0x169c /home/zjian_zhang/Dplus_Z/project/realtek_amebaDplus_va0_example/GCC-RELEASE/project_km4/asdk/../toolchain/linux/asdk-10.3.1/linux/newlib/arm-none-eabi/lib/thumb/v8-m.main+fp/fpu/libc.a(lib_a-vfiprintf.o)
 .debug_info    0x0000000000030869      0xc91 /home/zjian_zhang/Dplus_Z/project/realtek_amebaDplus_va0_example/GCC-RELEASE/project_km4/asdk/../toolchain/linux/asdk-10.3.1/linux/newlib/arm-none-eabi/lib/thumb/v8-m.main+fp/fpu/libc.a(lib_a-wctomb_r.o)
 .debug_info    0x00000000000314fa      0xa2f /home/zjian_zhang/Dplus_Z/project/realtek_amebaDplus_va0_example/GCC-RELEASE/project_km4/asdk/../toolchain/linux/asdk-10.3.1/linux/newlib/arm-none-eabi/lib/thumb/v8-m.main+fp/fpu/libc.a(lib_a-assert.o)
 .debug_info    0x0000000000031f29      0xa9e /home/zjian_zhang/Dplus_Z/project/realtek_amebaDplus_va0_example/GCC-RELEASE/project_km4/asdk/../toolchain/linux/asdk-10.3.1/linux/newlib/arm-none-eabi/lib/thumb/v8-m.main+fp/fpu/libc.a(lib_a-callocr.o)
 .debug_info    0x00000000000329c7      0xada /home/zjian_zhang/Dplus_Z/project/realtek_amebaDplus_va0_example/GCC-RELEASE/project_km4/asdk/../toolchain/linux/asdk-10.3.1/linux/newlib/arm-none-eabi/lib/thumb/v8-m.main+fp/fpu/libc.a(lib_a-fclose.o)
 .debug_info    0x00000000000334a1      0xa6a /home/zjian_zhang/Dplus_Z/project/realtek_amebaDplus_va0_example/GCC-RELEASE/project_km4/asdk/../toolchain/linux/asdk-10.3.1/linux/newlib/arm-none-eabi/lib/thumb/v8-m.main+fp/fpu/libc.a(lib_a-fiprintf.o)
 .debug_info    0x0000000000033f0b      0xbe7 /home/zjian_zhang/Dplus_Z/project/realtek_amebaDplus_va0_example/GCC-RELEASE/project_km4/asdk/../toolchain/linux/asdk-10.3.1/linux/newlib/arm-none-eabi/lib/thumb/v8-m.main+fp/fpu/libc.a(lib_a-fputwc.o)
 .debug_info    0x0000000000034af2      0xb8e /home/zjian_zhang/Dplus_Z/project/realtek_amebaDplus_va0_example/GCC-RELEASE/project_km4/asdk/../toolchain/linux/asdk-10.3.1/linux/newlib/arm-none-eabi/lib/thumb/v8-m.main+fp/fpu/libc.a(lib_a-fstatr.o)
 .debug_info    0x0000000000035680     0x142a /home/zjian_zhang/Dplus_Z/project/realtek_amebaDplus_va0_example/GCC-RELEASE/project_km4/asdk/../toolchain/linux/asdk-10.3.1/linux/newlib/arm-none-eabi/lib/thumb/v8-m.main+fp/fpu/libc.a(lib_a-gdtoa-gethex.o)
 .debug_info    0x0000000000036aaa      0x3ba /home/zjian_zhang/Dplus_Z/project/realtek_amebaDplus_va0_example/GCC-RELEASE/project_km4/asdk/../toolchain/linux/asdk-10.3.1/linux/newlib/arm-none-eabi/lib/thumb/v8-m.main+fp/fpu/libc.a(lib_a-gdtoa-hexnan.o)
 .debug_info    0x0000000000036e64      0x976 /home/zjian_zhang/Dplus_Z/project/realtek_amebaDplus_va0_example/GCC-RELEASE/project_km4/asdk/../toolchain/linux/asdk-10.3.1/linux/newlib/arm-none-eabi/lib/thumb/v8-m.main+fp/fpu/libc.a(lib_a-isattyr.o)
 .debug_info    0x00000000000377da      0xbc5 /home/zjian_zhang/Dplus_Z/project/realtek_amebaDplus_va0_example/GCC-RELEASE/project_km4/asdk/../toolchain/linux/asdk-10.3.1/linux/newlib/arm-none-eabi/lib/thumb/v8-m.main+fp/fpu/libc.a(lib_a-iswspace_l.o)
 .debug_info    0x000000000003839f      0xc51 /home/zjian_zhang/Dplus_Z/project/realtek_amebaDplus_va0_example/GCC-RELEASE/project_km4/asdk/../toolchain/linux/asdk-10.3.1/linux/newlib/arm-none-eabi/lib/thumb/v8-m.main+fp/fpu/libc.a(lib_a-lnumeric.o)
 .debug_info    0x0000000000038ff0       0xcc /home/zjian_zhang/Dplus_Z/project/realtek_amebaDplus_va0_example/GCC-RELEASE/project_km4/asdk/../toolchain/linux/asdk-10.3.1/linux/newlib/arm-none-eabi/lib/thumb/v8-m.main+fp/fpu/libc.a(lib_a-s_nan.o)
 .debug_info    0x00000000000390bc      0xcbc /home/zjian_zhang/Dplus_Z/project/realtek_amebaDplus_va0_example/GCC-RELEASE/project_km4/asdk/../toolchain/linux/asdk-10.3.1/linux/newlib/arm-none-eabi/lib/thumb/v8-m.main+fp/fpu/libc.a(lib_a-wcrtomb.o)
 .debug_info    0x0000000000039d78       0xcb /home/zjian_zhang/Dplus_Z/project/realtek_amebaDplus_va0_example/GCC-RELEASE/project_km4/asdk/../toolchain/linux/asdk-10.3.1/linux/newlib/arm-none-eabi/lib/thumb/v8-m.main+fp/fpu/libc.a(lib_a-abort.o)
 .debug_info    0x0000000000039e43      0xc34 /home/zjian_zhang/Dplus_Z/project/realtek_amebaDplus_va0_example/GCC-RELEASE/project_km4/asdk/../toolchain/linux/asdk-10.3.1/linux/newlib/arm-none-eabi/lib/thumb/v8-m.main+fp/fpu/libc.a(lib_a-signal.o)
 .debug_info    0x000000000003aa77      0x9e2 /home/zjian_zhang/Dplus_Z/project/realtek_amebaDplus_va0_example/GCC-RELEASE/project_km4/asdk/../toolchain/linux/asdk-10.3.1/linux/newlib/arm-none-eabi/lib/thumb/v8-m.main+fp/fpu/libc.a(lib_a-signalr.o)
 .debug_info    0x000000000003b459       0x26 /home/zjian_zhang/Dplus_Z/project/realtek_amebaDplus_va0_example/GCC-RELEASE/project_km4/asdk/../toolchain/linux/asdk-10.3.1/linux/newlib/lib/gcc/arm-none-eabi/10.3.1/thumb/v8-m.main+fp/fpu/libgcc.a(_arm_muldf3.o)
 .debug_info    0x000000000003b47f       0x26 /home/zjian_zhang/Dplus_Z/project/realtek_amebaDplus_va0_example/GCC-RELEASE/project_km4/asdk/../toolchain/linux/asdk-10.3.1/linux/newlib/lib/gcc/arm-none-eabi/10.3.1/thumb/v8-m.main+fp/fpu/libgcc.a(_arm_addsubdf3.o)
 .debug_info    0x000000000003b4a5       0x26 /home/zjian_zhang/Dplus_Z/project/realtek_amebaDplus_va0_example/GCC-RELEASE/project_km4/asdk/../toolchain/linux/asdk-10.3.1/linux/newlib/lib/gcc/arm-none-eabi/10.3.1/thumb/v8-m.main+fp/fpu/libgcc.a(_arm_muldivdf3.o)
 .debug_info    0x000000000003b4cb       0x26 /home/zjian_zhang/Dplus_Z/project/realtek_amebaDplus_va0_example/GCC-RELEASE/project_km4/asdk/../toolchain/linux/asdk-10.3.1/linux/newlib/lib/gcc/arm-none-eabi/10.3.1/thumb/v8-m.main+fp/fpu/libgcc.a(_arm_cmpdf2.o)
 .debug_info    0x000000000003b4f1       0x26 /home/zjian_zhang/Dplus_Z/project/realtek_amebaDplus_va0_example/GCC-RELEASE/project_km4/asdk/../toolchain/linux/asdk-10.3.1/linux/newlib/lib/gcc/arm-none-eabi/10.3.1/thumb/v8-m.main+fp/fpu/libgcc.a(_arm_unorddf2.o)
 .debug_info    0x000000000003b517       0x26 /home/zjian_zhang/Dplus_Z/project/realtek_amebaDplus_va0_example/GCC-RELEASE/project_km4/asdk/../toolchain/linux/asdk-10.3.1/linux/newlib/lib/gcc/arm-none-eabi/10.3.1/thumb/v8-m.main+fp/fpu/libgcc.a(_arm_fixdfsi.o)
 .debug_info    0x000000000003b53d       0x26 /home/zjian_zhang/Dplus_Z/project/realtek_amebaDplus_va0_example/GCC-RELEASE/project_km4/asdk/../toolchain/linux/asdk-10.3.1/linux/newlib/lib/gcc/arm-none-eabi/10.3.1/thumb/v8-m.main+fp/fpu/libgcc.a(_arm_fixunsdfsi.o)
 .debug_info    0x000000000003b563       0x26 /home/zjian_zhang/Dplus_Z/project/realtek_amebaDplus_va0_example/GCC-RELEASE/project_km4/asdk/../toolchain/linux/asdk-10.3.1/linux/newlib/lib/gcc/arm-none-eabi/10.3.1/thumb/v8-m.main+fp/fpu/libgcc.a(_arm_truncdfsf2.o)
 .debug_info    0x000000000003b589       0x26 /home/zjian_zhang/Dplus_Z/project/realtek_amebaDplus_va0_example/GCC-RELEASE/project_km4/asdk/../toolchain/linux/asdk-10.3.1/linux/newlib/lib/gcc/arm-none-eabi/10.3.1/thumb/v8-m.main+fp/fpu/libgcc.a(_aeabi_uldivmod.o)
 .debug_info    0x000000000003b5af      0x309 /home/zjian_zhang/Dplus_Z/project/realtek_amebaDplus_va0_example/GCC-RELEASE/project_km4/asdk/../toolchain/linux/asdk-10.3.1/linux/newlib/lib/gcc/arm-none-eabi/10.3.1/thumb/v8-m.main+fp/fpu/libgcc.a(_fixdfdi.o)
 .debug_info    0x000000000003b8b8      0x36c /home/zjian_zhang/Dplus_Z/project/realtek_amebaDplus_va0_example/GCC-RELEASE/project_km4/asdk/../toolchain/linux/asdk-10.3.1/linux/newlib/lib/gcc/arm-none-eabi/10.3.1/thumb/v8-m.main+fp/fpu/libgcc.a(_fixunsdfdi.o)
 .debug_info    0x000000000003bc24      0x71d /home/zjian_zhang/Dplus_Z/project/realtek_amebaDplus_va0_example/GCC-RELEASE/project_km4/asdk/../toolchain/linux/asdk-10.3.1/linux/newlib/lib/gcc/arm-none-eabi/10.3.1/thumb/v8-m.main+fp/fpu/libgcc.a(_udivmoddi4.o)
 .debug_info    0x000000000003c341       0x26 /home/zjian_zhang/Dplus_Z/project/realtek_amebaDplus_va0_example/GCC-RELEASE/project_km4/asdk/../toolchain/linux/asdk-10.3.1/linux/newlib/lib/gcc/arm-none-eabi/10.3.1/thumb/v8-m.main+fp/fpu/libgcc.a(_dvmd_tls.o)
 .debug_info    0x000000000003c367       0xb1 /home/zjian_zhang/Dplus_Z/project/realtek_amebaDplus_va0_example/GCC-RELEASE/project_km4/asdk/../toolchain/linux/asdk-10.3.1/linux/newlib/arm-none-eabi/lib/thumb/v8-m.main+fp/fpu/libnosys.a(close.o)
 .debug_info    0x000000000003c418      0x2cc /home/zjian_zhang/Dplus_Z/project/realtek_amebaDplus_va0_example/GCC-RELEASE/project_km4/asdk/../toolchain/linux/asdk-10.3.1/linux/newlib/arm-none-eabi/lib/thumb/v8-m.main+fp/fpu/libnosys.a(fstat.o)
 .debug_info    0x000000000003c6e4       0x9c /home/zjian_zhang/Dplus_Z/project/realtek_amebaDplus_va0_example/GCC-RELEASE/project_km4/asdk/../toolchain/linux/asdk-10.3.1/linux/newlib/arm-none-eabi/lib/thumb/v8-m.main+fp/fpu/libnosys.a(getpid.o)
 .debug_info    0x000000000003c780       0xb1 /home/zjian_zhang/Dplus_Z/project/realtek_amebaDplus_va0_example/GCC-RELEASE/project_km4/asdk/../toolchain/linux/asdk-10.3.1/linux/newlib/arm-none-eabi/lib/thumb/v8-m.main+fp/fpu/libnosys.a(isatty.o)
 .debug_info    0x000000000003c831       0xbf /home/zjian_zhang/Dplus_Z/project/realtek_amebaDplus_va0_example/GCC-RELEASE/project_km4/asdk/../toolchain/linux/asdk-10.3.1/linux/newlib/arm-none-eabi/lib/thumb/v8-m.main+fp/fpu/libnosys.a(kill.o)
 .debug_info    0x000000000003c8f0       0xd3 /home/zjian_zhang/Dplus_Z/project/realtek_amebaDplus_va0_example/GCC-RELEASE/project_km4/asdk/../toolchain/linux/asdk-10.3.1/linux/newlib/arm-none-eabi/lib/thumb/v8-m.main+fp/fpu/libnosys.a(lseek.o)
 .debug_info    0x000000000003c9c3       0x9d /home/zjian_zhang/Dplus_Z/project/realtek_amebaDplus_va0_example/GCC-RELEASE/project_km4/asdk/../toolchain/linux/asdk-10.3.1/linux/newlib/arm-none-eabi/lib/thumb/v8-m.main+fp/fpu/libnosys.a(sbrk.o)
 .debug_info    0x000000000003ca60       0xa3 /home/zjian_zhang/Dplus_Z/project/realtek_amebaDplus_va0_example/GCC-RELEASE/project_km4/asdk/../toolchain/linux/asdk-10.3.1/linux/newlib/arm-none-eabi/lib/thumb/v8-m.main+fp/fpu/libnosys.a(_exit.o)

.debug_abbrev   0x0000000000000000     0xcb81
 .debug_abbrev  0x0000000000000000      0x349 ./build/stdlib/stdlib_link.o
 .debug_abbrev  0x0000000000000349      0x1ee /home/zjian_zhang/Dplus_Z/project/realtek_amebaDplus_va0_example/GCC-RELEASE/project_km4/asdk/../toolchain/linux/asdk-10.3.1/linux/newlib/arm-none-eabi/lib/thumb/v8-m.main+fp/fpu/libc.a(lib_a-atoi.o)
 .debug_abbrev  0x0000000000000537      0x27a /home/zjian_zhang/Dplus_Z/project/realtek_amebaDplus_va0_example/GCC-RELEASE/project_km4/asdk/../toolchain/linux/asdk-10.3.1/linux/newlib/arm-none-eabi/lib/thumb/v8-m.main+fp/fpu/libc.a(lib_a-printf.o)
 .debug_abbrev  0x00000000000007b1      0x233 /home/zjian_zhang/Dplus_Z/project/realtek_amebaDplus_va0_example/GCC-RELEASE/project_km4/asdk/../toolchain/linux/asdk-10.3.1/linux/newlib/arm-none-eabi/lib/thumb/v8-m.main+fp/fpu/libc.a(lib_a-putchar.o)
 .debug_abbrev  0x00000000000009e4      0x2ba /home/zjian_zhang/Dplus_Z/project/realtek_amebaDplus_va0_example/GCC-RELEASE/project_km4/asdk/../toolchain/linux/asdk-10.3.1/linux/newlib/arm-none-eabi/lib/thumb/v8-m.main+fp/fpu/libc.a(lib_a-putc.o)
 .debug_abbrev  0x0000000000000c9e      0x28b /home/zjian_zhang/Dplus_Z/project/realtek_amebaDplus_va0_example/GCC-RELEASE/project_km4/asdk/../toolchain/linux/asdk-10.3.1/linux/newlib/arm-none-eabi/lib/thumb/v8-m.main+fp/fpu/libc.a(lib_a-puts.o)
 .debug_abbrev  0x0000000000000f29      0x270 /home/zjian_zhang/Dplus_Z/project/realtek_amebaDplus_va0_example/GCC-RELEASE/project_km4/asdk/../toolchain/linux/asdk-10.3.1/linux/newlib/arm-none-eabi/lib/thumb/v8-m.main+fp/fpu/libc.a(lib_a-snprintf.o)
 .debug_abbrev  0x0000000000001199      0x27a /home/zjian_zhang/Dplus_Z/project/realtek_amebaDplus_va0_example/GCC-RELEASE/project_km4/asdk/../toolchain/linux/asdk-10.3.1/linux/newlib/arm-none-eabi/lib/thumb/v8-m.main+fp/fpu/libc.a(lib_a-sprintf.o)
 .debug_abbrev  0x0000000000001413      0x287 /home/zjian_zhang/Dplus_Z/project/realtek_amebaDplus_va0_example/GCC-RELEASE/project_km4/asdk/../toolchain/linux/asdk-10.3.1/linux/newlib/arm-none-eabi/lib/thumb/v8-m.main+fp/fpu/libc.a(lib_a-sscanf.o)
 .debug_abbrev  0x000000000000169a      0x25f /home/zjian_zhang/Dplus_Z/project/realtek_amebaDplus_va0_example/GCC-RELEASE/project_km4/asdk/../toolchain/linux/asdk-10.3.1/linux/newlib/arm-none-eabi/lib/thumb/v8-m.main+fp/fpu/libc.a(lib_a-stdio.o)
 .debug_abbrev  0x00000000000018f9       0xc4 /home/zjian_zhang/Dplus_Z/project/realtek_amebaDplus_va0_example/GCC-RELEASE/project_km4/asdk/../toolchain/linux/asdk-10.3.1/linux/newlib/arm-none-eabi/lib/thumb/v8-m.main+fp/fpu/libc.a(lib_a-strcat.o)
 .debug_abbrev  0x00000000000019bd       0xa5 /home/zjian_zhang/Dplus_Z/project/realtek_amebaDplus_va0_example/GCC-RELEASE/project_km4/asdk/../toolchain/linux/asdk-10.3.1/linux/newlib/arm-none-eabi/lib/thumb/v8-m.main+fp/fpu/libc.a(lib_a-strchr.o)
 .debug_abbrev  0x0000000000001a62       0x7b /home/zjian_zhang/Dplus_Z/project/realtek_amebaDplus_va0_example/GCC-RELEASE/project_km4/asdk/../toolchain/linux/asdk-10.3.1/linux/newlib/arm-none-eabi/lib/thumb/v8-m.main+fp/fpu/libc.a(lib_a-strcpy.o)
 .debug_abbrev  0x0000000000001add       0x79 /home/zjian_zhang/Dplus_Z/project/realtek_amebaDplus_va0_example/GCC-RELEASE/project_km4/asdk/../toolchain/linux/asdk-10.3.1/linux/newlib/arm-none-eabi/lib/thumb/v8-m.main+fp/fpu/libc.a(lib_a-strlen-stub.o)
 .debug_abbrev  0x0000000000001b56       0xb3 /home/zjian_zhang/Dplus_Z/project/realtek_amebaDplus_va0_example/GCC-RELEASE/project_km4/asdk/../toolchain/linux/asdk-10.3.1/linux/newlib/arm-none-eabi/lib/thumb/v8-m.main+fp/fpu/libc.a(lib_a-strncat.o)
 .debug_abbrev  0x0000000000001c09       0x8f /home/zjian_zhang/Dplus_Z/project/realtek_amebaDplus_va0_example/GCC-RELEASE/project_km4/asdk/../toolchain/linux/asdk-10.3.1/linux/newlib/arm-none-eabi/lib/thumb/v8-m.main+fp/fpu/libc.a(lib_a-strncmp.o)
 .debug_abbrev  0x0000000000001c98       0xbb /home/zjian_zhang/Dplus_Z/project/realtek_amebaDplus_va0_example/GCC-RELEASE/project_km4/asdk/../toolchain/linux/asdk-10.3.1/linux/newlib/arm-none-eabi/lib/thumb/v8-m.main+fp/fpu/libc.a(lib_a-strncpy.o)
 .debug_abbrev  0x0000000000001d53       0x8f /home/zjian_zhang/Dplus_Z/project/realtek_amebaDplus_va0_example/GCC-RELEASE/project_km4/asdk/../toolchain/linux/asdk-10.3.1/linux/newlib/arm-none-eabi/lib/thumb/v8-m.main+fp/fpu/libc.a(lib_a-strpbrk.o)
 .debug_abbrev  0x0000000000001de2       0x99 /home/zjian_zhang/Dplus_Z/project/realtek_amebaDplus_va0_example/GCC-RELEASE/project_km4/asdk/../toolchain/linux/asdk-10.3.1/linux/newlib/arm-none-eabi/lib/thumb/v8-m.main+fp/fpu/libc.a(lib_a-strsep.o)
 .debug_abbrev  0x0000000000001e7b      0x237 /home/zjian_zhang/Dplus_Z/project/realtek_amebaDplus_va0_example/GCC-RELEASE/project_km4/asdk/../toolchain/linux/asdk-10.3.1/linux/newlib/arm-none-eabi/lib/thumb/v8-m.main+fp/fpu/libc.a(lib_a-strstr.o)
 .debug_abbrev  0x00000000000020b2      0x230 /home/zjian_zhang/Dplus_Z/project/realtek_amebaDplus_va0_example/GCC-RELEASE/project_km4/asdk/../toolchain/linux/asdk-10.3.1/linux/newlib/arm-none-eabi/lib/thumb/v8-m.main+fp/fpu/libc.a(lib_a-strtok.o)
 .debug_abbrev  0x00000000000022e2      0x112 /home/zjian_zhang/Dplus_Z/project/realtek_amebaDplus_va0_example/GCC-RELEASE/project_km4/asdk/../toolchain/linux/asdk-10.3.1/linux/newlib/arm-none-eabi/lib/thumb/v8-m.main+fp/fpu/libc.a(lib_a-strtok_r.o)
 .debug_abbrev  0x00000000000023f4      0x331 /home/zjian_zhang/Dplus_Z/project/realtek_amebaDplus_va0_example/GCC-RELEASE/project_km4/asdk/../toolchain/linux/asdk-10.3.1/linux/newlib/arm-none-eabi/lib/thumb/v8-m.main+fp/fpu/libc.a(lib_a-strtol.o)
 .debug_abbrev  0x0000000000002725      0x3d3 /home/zjian_zhang/Dplus_Z/project/realtek_amebaDplus_va0_example/GCC-RELEASE/project_km4/asdk/../toolchain/linux/asdk-10.3.1/linux/newlib/arm-none-eabi/lib/thumb/v8-m.main+fp/fpu/libc.a(lib_a-svfprintf.o)
 .debug_abbrev  0x0000000000002af8      0x3d8 /home/zjian_zhang/Dplus_Z/project/realtek_amebaDplus_va0_example/GCC-RELEASE/project_km4/asdk/../toolchain/linux/asdk-10.3.1/linux/newlib/arm-none-eabi/lib/thumb/v8-m.main+fp/fpu/libc.a(lib_a-svfscanf.o)
 .debug_abbrev  0x0000000000002ed0      0x452 /home/zjian_zhang/Dplus_Z/project/realtek_amebaDplus_va0_example/GCC-RELEASE/project_km4/asdk/../toolchain/linux/asdk-10.3.1/linux/newlib/arm-none-eabi/lib/thumb/v8-m.main+fp/fpu/libc.a(lib_a-vfprintf.o)
 .debug_abbrev  0x0000000000003322      0x26b /home/zjian_zhang/Dplus_Z/project/realtek_amebaDplus_va0_example/GCC-RELEASE/project_km4/asdk/../toolchain/linux/asdk-10.3.1/linux/newlib/arm-none-eabi/lib/thumb/v8-m.main+fp/fpu/libc.a(lib_a-vsnprintf.o)
 .debug_abbrev  0x000000000000358d      0x27b /home/zjian_zhang/Dplus_Z/project/realtek_amebaDplus_va0_example/GCC-RELEASE/project_km4/asdk/../toolchain/linux/asdk-10.3.1/linux/newlib/arm-none-eabi/lib/thumb/v8-m.main+fp/fpu/libc.a(lib_a-wbuf.o)
 .debug_abbrev  0x0000000000003808      0x217 /home/zjian_zhang/Dplus_Z/project/realtek_amebaDplus_va0_example/GCC-RELEASE/project_km4/asdk/../toolchain/linux/asdk-10.3.1/linux/newlib/arm-none-eabi/lib/thumb/v8-m.main+fp/fpu/libc.a(lib_a-writer.o)
 .debug_abbrev  0x0000000000003a1f      0x246 /home/zjian_zhang/Dplus_Z/project/realtek_amebaDplus_va0_example/GCC-RELEASE/project_km4/asdk/../toolchain/linux/asdk-10.3.1/linux/newlib/arm-none-eabi/lib/thumb/v8-m.main+fp/fpu/libc.a(lib_a-wsetup.o)
 .debug_abbrev  0x0000000000003c65      0x212 /home/zjian_zhang/Dplus_Z/project/realtek_amebaDplus_va0_example/GCC-RELEASE/project_km4/asdk/../toolchain/linux/asdk-10.3.1/linux/newlib/arm-none-eabi/lib/thumb/v8-m.main+fp/fpu/libc.a(lib_a-closer.o)
 .debug_abbrev  0x0000000000003e77       0x62 /home/zjian_zhang/Dplus_Z/project/realtek_amebaDplus_va0_example/GCC-RELEASE/project_km4/asdk/../toolchain/linux/asdk-10.3.1/linux/newlib/arm-none-eabi/lib/thumb/v8-m.main+fp/fpu/libc.a(lib_a-ctype_.o)
 .debug_abbrev  0x0000000000003ed9      0x310 /home/zjian_zhang/Dplus_Z/project/realtek_amebaDplus_va0_example/GCC-RELEASE/project_km4/asdk/../toolchain/linux/asdk-10.3.1/linux/newlib/arm-none-eabi/lib/thumb/v8-m.main+fp/fpu/libc.a(lib_a-dtoa.o)
 .debug_abbrev  0x00000000000041e9      0x1be /home/zjian_zhang/Dplus_Z/project/realtek_amebaDplus_va0_example/GCC-RELEASE/project_km4/asdk/../toolchain/linux/asdk-10.3.1/linux/newlib/arm-none-eabi/lib/thumb/v8-m.main+fp/fpu/libc.a(lib_a-errno.o)
 .debug_abbrev  0x00000000000043a7      0x2e1 /home/zjian_zhang/Dplus_Z/project/realtek_amebaDplus_va0_example/GCC-RELEASE/project_km4/asdk/../toolchain/linux/asdk-10.3.1/linux/newlib/arm-none-eabi/lib/thumb/v8-m.main+fp/fpu/libc.a(lib_a-fflush.o)
 .debug_abbrev  0x0000000000004688      0x3e4 /home/zjian_zhang/Dplus_Z/project/realtek_amebaDplus_va0_example/GCC-RELEASE/project_km4/asdk/../toolchain/linux/asdk-10.3.1/linux/newlib/arm-none-eabi/lib/thumb/v8-m.main+fp/fpu/libc.a(lib_a-findfp.o)
 .debug_abbrev  0x0000000000004a6c      0x1ff /home/zjian_zhang/Dplus_Z/project/realtek_amebaDplus_va0_example/GCC-RELEASE/project_km4/asdk/../toolchain/linux/asdk-10.3.1/linux/newlib/arm-none-eabi/lib/thumb/v8-m.main+fp/fpu/libc.a(lib_a-free.o)
 .debug_abbrev  0x0000000000004c6b      0x2af /home/zjian_zhang/Dplus_Z/project/realtek_amebaDplus_va0_example/GCC-RELEASE/project_km4/asdk/../toolchain/linux/asdk-10.3.1/linux/newlib/arm-none-eabi/lib/thumb/v8-m.main+fp/fpu/libc.a(lib_a-freer.o)
 .debug_abbrev  0x0000000000004f1a      0x25e /home/zjian_zhang/Dplus_Z/project/realtek_amebaDplus_va0_example/GCC-RELEASE/project_km4/asdk/../toolchain/linux/asdk-10.3.1/linux/newlib/arm-none-eabi/lib/thumb/v8-m.main+fp/fpu/libc.a(lib_a-fvwrite.o)
 .debug_abbrev  0x0000000000005178      0x1fe /home/zjian_zhang/Dplus_Z/project/realtek_amebaDplus_va0_example/GCC-RELEASE/project_km4/asdk/../toolchain/linux/asdk-10.3.1/linux/newlib/arm-none-eabi/lib/thumb/v8-m.main+fp/fpu/libc.a(lib_a-fwalk.o)
 .debug_abbrev  0x0000000000005376      0x1b8 /home/zjian_zhang/Dplus_Z/project/realtek_amebaDplus_va0_example/GCC-RELEASE/project_km4/asdk/../toolchain/linux/asdk-10.3.1/linux/newlib/arm-none-eabi/lib/thumb/v8-m.main+fp/fpu/libc.a(lib_a-impure.o)
 .debug_abbrev  0x000000000000552e       0x98 /home/zjian_zhang/Dplus_Z/project/realtek_amebaDplus_va0_example/GCC-RELEASE/project_km4/asdk/../toolchain/linux/asdk-10.3.1/linux/newlib/arm-none-eabi/lib/thumb/v8-m.main+fp/fpu/libc.a(lib_a-iswspace.o)
 .debug_abbrev  0x00000000000055c6      0x273 /home/zjian_zhang/Dplus_Z/project/realtek_amebaDplus_va0_example/GCC-RELEASE/project_km4/asdk/../toolchain/linux/asdk-10.3.1/linux/newlib/arm-none-eabi/lib/thumb/v8-m.main+fp/fpu/libc.a(lib_a-localeconv.o)
 .debug_abbrev  0x0000000000005839      0x2f1 /home/zjian_zhang/Dplus_Z/project/realtek_amebaDplus_va0_example/GCC-RELEASE/project_km4/asdk/../toolchain/linux/asdk-10.3.1/linux/newlib/arm-none-eabi/lib/thumb/v8-m.main+fp/fpu/libc.a(lib_a-locale.o)
 .debug_abbrev  0x0000000000005b2a      0x111 /home/zjian_zhang/Dplus_Z/project/realtek_amebaDplus_va0_example/GCC-RELEASE/project_km4/asdk/../toolchain/linux/asdk-10.3.1/linux/newlib/arm-none-eabi/lib/thumb/v8-m.main+fp/fpu/libc.a(lib_a-lock.o)
 .debug_abbrev  0x0000000000005c3b      0x226 /home/zjian_zhang/Dplus_Z/project/realtek_amebaDplus_va0_example/GCC-RELEASE/project_km4/asdk/../toolchain/linux/asdk-10.3.1/linux/newlib/arm-none-eabi/lib/thumb/v8-m.main+fp/fpu/libc.a(lib_a-lseekr.o)
 .debug_abbrev  0x0000000000005e61      0x2f0 /home/zjian_zhang/Dplus_Z/project/realtek_amebaDplus_va0_example/GCC-RELEASE/project_km4/asdk/../toolchain/linux/asdk-10.3.1/linux/newlib/arm-none-eabi/lib/thumb/v8-m.main+fp/fpu/libc.a(lib_a-makebuf.o)
 .debug_abbrev  0x0000000000006151      0x201 /home/zjian_zhang/Dplus_Z/project/realtek_amebaDplus_va0_example/GCC-RELEASE/project_km4/asdk/../toolchain/linux/asdk-10.3.1/linux/newlib/arm-none-eabi/lib/thumb/v8-m.main+fp/fpu/libc.a(lib_a-malloc.o)
 .debug_abbrev  0x0000000000006352      0x2e4 /home/zjian_zhang/Dplus_Z/project/realtek_amebaDplus_va0_example/GCC-RELEASE/project_km4/asdk/../toolchain/linux/asdk-10.3.1/linux/newlib/arm-none-eabi/lib/thumb/v8-m.main+fp/fpu/libc.a(lib_a-mallocr.o)
 .debug_abbrev  0x0000000000006636      0x25b /home/zjian_zhang/Dplus_Z/project/realtek_amebaDplus_va0_example/GCC-RELEASE/project_km4/asdk/../toolchain/linux/asdk-10.3.1/linux/newlib/arm-none-eabi/lib/thumb/v8-m.main+fp/fpu/libc.a(lib_a-mbrtowc.o)
 .debug_abbrev  0x0000000000006891      0x250 /home/zjian_zhang/Dplus_Z/project/realtek_amebaDplus_va0_example/GCC-RELEASE/project_km4/asdk/../toolchain/linux/asdk-10.3.1/linux/newlib/arm-none-eabi/lib/thumb/v8-m.main+fp/fpu/libc.a(lib_a-mbtowc_r.o)
 .debug_abbrev  0x0000000000006ae1       0xc3 /home/zjian_zhang/Dplus_Z/project/realtek_amebaDplus_va0_example/GCC-RELEASE/project_km4/asdk/../toolchain/linux/asdk-10.3.1/linux/newlib/arm-none-eabi/lib/thumb/v8-m.main+fp/fpu/libc.a(lib_a-memchr-stub.o)
 .debug_abbrev  0x0000000000006ba4       0x8d /home/zjian_zhang/Dplus_Z/project/realtek_amebaDplus_va0_example/GCC-RELEASE/project_km4/asdk/../toolchain/linux/asdk-10.3.1/linux/newlib/arm-none-eabi/lib/thumb/v8-m.main+fp/fpu/libc.a(lib_a-memcmp.o)
 .debug_abbrev  0x0000000000006c31       0x14 /home/zjian_zhang/Dplus_Z/project/realtek_amebaDplus_va0_example/GCC-RELEASE/project_km4/asdk/../toolchain/linux/asdk-10.3.1/linux/newlib/arm-none-eabi/lib/thumb/v8-m.main+fp/fpu/libc.a(lib_a-memcpy.o)
 .debug_abbrev  0x0000000000006c45       0xcf /home/zjian_zhang/Dplus_Z/project/realtek_amebaDplus_va0_example/GCC-RELEASE/project_km4/asdk/../toolchain/linux/asdk-10.3.1/linux/newlib/arm-none-eabi/lib/thumb/v8-m.main+fp/fpu/libc.a(lib_a-memmove.o)
 .debug_abbrev  0x0000000000006d14       0xb4 /home/zjian_zhang/Dplus_Z/project/realtek_amebaDplus_va0_example/GCC-RELEASE/project_km4/asdk/../toolchain/linux/asdk-10.3.1/linux/newlib/arm-none-eabi/lib/thumb/v8-m.main+fp/fpu/libc.a(lib_a-memset-stub.o)
 .debug_abbrev  0x0000000000006dc8      0x202 /home/zjian_zhang/Dplus_Z/project/realtek_amebaDplus_va0_example/GCC-RELEASE/project_km4/asdk/../toolchain/linux/asdk-10.3.1/linux/newlib/arm-none-eabi/lib/thumb/v8-m.main+fp/fpu/libc.a(lib_a-mlock.o)
 .debug_abbrev  0x0000000000006fca      0x42e /home/zjian_zhang/Dplus_Z/project/realtek_amebaDplus_va0_example/GCC-RELEASE/project_km4/asdk/../toolchain/linux/asdk-10.3.1/linux/newlib/arm-none-eabi/lib/thumb/v8-m.main+fp/fpu/libc.a(lib_a-mprec.o)
 .debug_abbrev  0x00000000000073f8      0x212 /home/zjian_zhang/Dplus_Z/project/realtek_amebaDplus_va0_example/GCC-RELEASE/project_km4/asdk/../toolchain/linux/asdk-10.3.1/linux/newlib/arm-none-eabi/lib/thumb/v8-m.main+fp/fpu/libc.a(lib_a-readr.o)
 .debug_abbrev  0x000000000000760a      0x215 /home/zjian_zhang/Dplus_Z/project/realtek_amebaDplus_va0_example/GCC-RELEASE/project_km4/asdk/../toolchain/linux/asdk-10.3.1/linux/newlib/arm-none-eabi/lib/thumb/v8-m.main+fp/fpu/libc.a(lib_a-realloc.o)
 .debug_abbrev  0x000000000000781f      0x280 /home/zjian_zhang/Dplus_Z/project/realtek_amebaDplus_va0_example/GCC-RELEASE/project_km4/asdk/../toolchain/linux/asdk-10.3.1/linux/newlib/arm-none-eabi/lib/thumb/v8-m.main+fp/fpu/libc.a(lib_a-reallocr.o)
 .debug_abbrev  0x0000000000007a9f      0x2c0 /home/zjian_zhang/Dplus_Z/project/realtek_amebaDplus_va0_example/GCC-RELEASE/project_km4/asdk/../toolchain/linux/asdk-10.3.1/linux/newlib/arm-none-eabi/lib/thumb/v8-m.main+fp/fpu/libc.a(lib_a-reent.o)
 .debug_abbrev  0x0000000000007d5f      0x23d /home/zjian_zhang/Dplus_Z/project/realtek_amebaDplus_va0_example/GCC-RELEASE/project_km4/asdk/../toolchain/linux/asdk-10.3.1/linux/newlib/arm-none-eabi/lib/thumb/v8-m.main+fp/fpu/libc.a(lib_a-sbrkr.o)
 .debug_abbrev  0x0000000000007f9c       0x97 /home/zjian_zhang/Dplus_Z/project/realtek_amebaDplus_va0_example/GCC-RELEASE/project_km4/asdk/../toolchain/linux/asdk-10.3.1/linux/newlib/arm-none-eabi/lib/thumb/v8-m.main+fp/fpu/libc.a(lib_a-sccl.o)
 .debug_abbrev  0x0000000000008033       0x78 /home/zjian_zhang/Dplus_Z/project/realtek_amebaDplus_va0_example/GCC-RELEASE/project_km4/asdk/../toolchain/linux/asdk-10.3.1/linux/newlib/arm-none-eabi/lib/thumb/v8-m.main+fp/fpu/libc.a(lib_a-sf_nan.o)
 .debug_abbrev  0x00000000000080ab      0x154 /home/zjian_zhang/Dplus_Z/project/realtek_amebaDplus_va0_example/GCC-RELEASE/project_km4/asdk/../toolchain/linux/asdk-10.3.1/linux/newlib/arm-none-eabi/lib/thumb/v8-m.main+fp/fpu/libc.a(lib_a-s_frexp.o)
 .debug_abbrev  0x00000000000081ff       0x14 /home/zjian_zhang/Dplus_Z/project/realtek_amebaDplus_va0_example/GCC-RELEASE/project_km4/asdk/../toolchain/linux/asdk-10.3.1/linux/newlib/arm-none-eabi/lib/thumb/v8-m.main+fp/fpu/libc.a(lib_a-strcmp.o)
 .debug_abbrev  0x0000000000008213       0x8d /home/zjian_zhang/Dplus_Z/project/realtek_amebaDplus_va0_example/GCC-RELEASE/project_km4/asdk/../toolchain/linux/asdk-10.3.1/linux/newlib/arm-none-eabi/lib/thumb/v8-m.main+fp/fpu/libc.a(lib_a-strnlen.o)
 .debug_abbrev  0x00000000000082a0      0x490 /home/zjian_zhang/Dplus_Z/project/realtek_amebaDplus_va0_example/GCC-RELEASE/project_km4/asdk/../toolchain/linux/asdk-10.3.1/linux/newlib/arm-none-eabi/lib/thumb/v8-m.main+fp/fpu/libc.a(lib_a-strtod.o)
 .debug_abbrev  0x0000000000008730      0x323 /home/zjian_zhang/Dplus_Z/project/realtek_amebaDplus_va0_example/GCC-RELEASE/project_km4/asdk/../toolchain/linux/asdk-10.3.1/linux/newlib/arm-none-eabi/lib/thumb/v8-m.main+fp/fpu/libc.a(lib_a-strtoll.o)
 .debug_abbrev  0x0000000000008a53      0x323 /home/zjian_zhang/Dplus_Z/project/realtek_amebaDplus_va0_example/GCC-RELEASE/project_km4/asdk/../toolchain/linux/asdk-10.3.1/linux/newlib/arm-none-eabi/lib/thumb/v8-m.main+fp/fpu/libc.a(lib_a-strtoull.o)
 .debug_abbrev  0x0000000000008d76      0x303 /home/zjian_zhang/Dplus_Z/project/realtek_amebaDplus_va0_example/GCC-RELEASE/project_km4/asdk/../toolchain/linux/asdk-10.3.1/linux/newlib/arm-none-eabi/lib/thumb/v8-m.main+fp/fpu/libc.a(lib_a-strtoul.o)
 .debug_abbrev  0x0000000000009079      0x30e /home/zjian_zhang/Dplus_Z/project/realtek_amebaDplus_va0_example/GCC-RELEASE/project_km4/asdk/../toolchain/linux/asdk-10.3.1/linux/newlib/arm-none-eabi/lib/thumb/v8-m.main+fp/fpu/libc.a(lib_a-svfiprintf.o)
 .debug_abbrev  0x0000000000009387      0x403 /home/zjian_zhang/Dplus_Z/project/realtek_amebaDplus_va0_example/GCC-RELEASE/project_km4/asdk/../toolchain/linux/asdk-10.3.1/linux/newlib/arm-none-eabi/lib/thumb/v8-m.main+fp/fpu/libc.a(lib_a-svfiscanf.o)
 .debug_abbrev  0x000000000000978a      0x29c /home/zjian_zhang/Dplus_Z/project/realtek_amebaDplus_va0_example/GCC-RELEASE/project_km4/asdk/../toolchain/linux/asdk-10.3.1/linux/newlib/arm-none-eabi/lib/thumb/v8-m.main+fp/fpu/libc.a(lib_a-ungetc.o)
 .debug_abbrev  0x0000000000009a26      0x420 /home/zjian_zhang/Dplus_Z/project/realtek_amebaDplus_va0_example/GCC-RELEASE/project_km4/asdk/../toolchain/linux/asdk-10.3.1/linux/newlib/arm-none-eabi/lib/thumb/v8-m.main+fp/fpu/libc.a(lib_a-vfiprintf.o)
 .debug_abbrev  0x0000000000009e46      0x25a /home/zjian_zhang/Dplus_Z/project/realtek_amebaDplus_va0_example/GCC-RELEASE/project_km4/asdk/../toolchain/linux/asdk-10.3.1/linux/newlib/arm-none-eabi/lib/thumb/v8-m.main+fp/fpu/libc.a(lib_a-wctomb_r.o)
 .debug_abbrev  0x000000000000a0a0      0x22a /home/zjian_zhang/Dplus_Z/project/realtek_amebaDplus_va0_example/GCC-RELEASE/project_km4/asdk/../toolchain/linux/asdk-10.3.1/linux/newlib/arm-none-eabi/lib/thumb/v8-m.main+fp/fpu/libc.a(lib_a-assert.o)
 .debug_abbrev  0x000000000000a2ca      0x27b /home/zjian_zhang/Dplus_Z/project/realtek_amebaDplus_va0_example/GCC-RELEASE/project_km4/asdk/../toolchain/linux/asdk-10.3.1/linux/newlib/arm-none-eabi/lib/thumb/v8-m.main+fp/fpu/libc.a(lib_a-callocr.o)
 .debug_abbrev  0x000000000000a545      0x2a7 /home/zjian_zhang/Dplus_Z/project/realtek_amebaDplus_va0_example/GCC-RELEASE/project_km4/asdk/../toolchain/linux/asdk-10.3.1/linux/newlib/arm-none-eabi/lib/thumb/v8-m.main+fp/fpu/libc.a(lib_a-fclose.o)
 .debug_abbrev  0x000000000000a7ec      0x255 /home/zjian_zhang/Dplus_Z/project/realtek_amebaDplus_va0_example/GCC-RELEASE/project_km4/asdk/../toolchain/linux/asdk-10.3.1/linux/newlib/arm-none-eabi/lib/thumb/v8-m.main+fp/fpu/libc.a(lib_a-fiprintf.o)
 .debug_abbrev  0x000000000000aa41      0x2d5 /home/zjian_zhang/Dplus_Z/project/realtek_amebaDplus_va0_example/GCC-RELEASE/project_km4/asdk/../toolchain/linux/asdk-10.3.1/linux/newlib/arm-none-eabi/lib/thumb/v8-m.main+fp/fpu/libc.a(lib_a-fputwc.o)
 .debug_abbrev  0x000000000000ad16      0x226 /home/zjian_zhang/Dplus_Z/project/realtek_amebaDplus_va0_example/GCC-RELEASE/project_km4/asdk/../toolchain/linux/asdk-10.3.1/linux/newlib/arm-none-eabi/lib/thumb/v8-m.main+fp/fpu/libc.a(lib_a-fstatr.o)
 .debug_abbrev  0x000000000000af3c      0x3dd /home/zjian_zhang/Dplus_Z/project/realtek_amebaDplus_va0_example/GCC-RELEASE/project_km4/asdk/../toolchain/linux/asdk-10.3.1/linux/newlib/arm-none-eabi/lib/thumb/v8-m.main+fp/fpu/libc.a(lib_a-gdtoa-gethex.o)
 .debug_abbrev  0x000000000000b319      0x152 /home/zjian_zhang/Dplus_Z/project/realtek_amebaDplus_va0_example/GCC-RELEASE/project_km4/asdk/../toolchain/linux/asdk-10.3.1/linux/newlib/arm-none-eabi/lib/thumb/v8-m.main+fp/fpu/libc.a(lib_a-gdtoa-hexnan.o)
 .debug_abbrev  0x000000000000b46b      0x212 /home/zjian_zhang/Dplus_Z/project/realtek_amebaDplus_va0_example/GCC-RELEASE/project_km4/asdk/../toolchain/linux/asdk-10.3.1/linux/newlib/arm-none-eabi/lib/thumb/v8-m.main+fp/fpu/libc.a(lib_a-isattyr.o)
 .debug_abbrev  0x000000000000b67d      0x1e8 /home/zjian_zhang/Dplus_Z/project/realtek_amebaDplus_va0_example/GCC-RELEASE/project_km4/asdk/../toolchain/linux/asdk-10.3.1/linux/newlib/arm-none-eabi/lib/thumb/v8-m.main+fp/fpu/libc.a(lib_a-iswspace_l.o)
 .debug_abbrev  0x000000000000b865      0x223 /home/zjian_zhang/Dplus_Z/project/realtek_amebaDplus_va0_example/GCC-RELEASE/project_km4/asdk/../toolchain/linux/asdk-10.3.1/linux/newlib/arm-none-eabi/lib/thumb/v8-m.main+fp/fpu/libc.a(lib_a-lnumeric.o)
 .debug_abbrev  0x000000000000ba88       0x78 /home/zjian_zhang/Dplus_Z/project/realtek_amebaDplus_va0_example/GCC-RELEASE/project_km4/asdk/../toolchain/linux/asdk-10.3.1/linux/newlib/arm-none-eabi/lib/thumb/v8-m.main+fp/fpu/libc.a(lib_a-s_nan.o)
 .debug_abbrev  0x000000000000bb00      0x26f /home/zjian_zhang/Dplus_Z/project/realtek_amebaDplus_va0_example/GCC-RELEASE/project_km4/asdk/../toolchain/linux/asdk-10.3.1/linux/newlib/arm-none-eabi/lib/thumb/v8-m.main+fp/fpu/libc.a(lib_a-wcrtomb.o)
 .debug_abbrev  0x000000000000bd6f       0x80 /home/zjian_zhang/Dplus_Z/project/realtek_amebaDplus_va0_example/GCC-RELEASE/project_km4/asdk/../toolchain/linux/asdk-10.3.1/linux/newlib/arm-none-eabi/lib/thumb/v8-m.main+fp/fpu/libc.a(lib_a-abort.o)
 .debug_abbrev  0x000000000000bdef      0x2fb /home/zjian_zhang/Dplus_Z/project/realtek_amebaDplus_va0_example/GCC-RELEASE/project_km4/asdk/../toolchain/linux/asdk-10.3.1/linux/newlib/arm-none-eabi/lib/thumb/v8-m.main+fp/fpu/libc.a(lib_a-signal.o)
 .debug_abbrev  0x000000000000c0ea      0x242 /home/zjian_zhang/Dplus_Z/project/realtek_amebaDplus_va0_example/GCC-RELEASE/project_km4/asdk/../toolchain/linux/asdk-10.3.1/linux/newlib/arm-none-eabi/lib/thumb/v8-m.main+fp/fpu/libc.a(lib_a-signalr.o)
 .debug_abbrev  0x000000000000c32c       0x14 /home/zjian_zhang/Dplus_Z/project/realtek_amebaDplus_va0_example/GCC-RELEASE/project_km4/asdk/../toolchain/linux/asdk-10.3.1/linux/newlib/lib/gcc/arm-none-eabi/10.3.1/thumb/v8-m.main+fp/fpu/libgcc.a(_arm_muldf3.o)
 .debug_abbrev  0x000000000000c340       0x14 /home/zjian_zhang/Dplus_Z/project/realtek_amebaDplus_va0_example/GCC-RELEASE/project_km4/asdk/../toolchain/linux/asdk-10.3.1/linux/newlib/lib/gcc/arm-none-eabi/10.3.1/thumb/v8-m.main+fp/fpu/libgcc.a(_arm_addsubdf3.o)
 .debug_abbrev  0x000000000000c354       0x14 /home/zjian_zhang/Dplus_Z/project/realtek_amebaDplus_va0_example/GCC-RELEASE/project_km4/asdk/../toolchain/linux/asdk-10.3.1/linux/newlib/lib/gcc/arm-none-eabi/10.3.1/thumb/v8-m.main+fp/fpu/libgcc.a(_arm_muldivdf3.o)
 .debug_abbrev  0x000000000000c368       0x14 /home/zjian_zhang/Dplus_Z/project/realtek_amebaDplus_va0_example/GCC-RELEASE/project_km4/asdk/../toolchain/linux/asdk-10.3.1/linux/newlib/lib/gcc/arm-none-eabi/10.3.1/thumb/v8-m.main+fp/fpu/libgcc.a(_arm_cmpdf2.o)
 .debug_abbrev  0x000000000000c37c       0x14 /home/zjian_zhang/Dplus_Z/project/realtek_amebaDplus_va0_example/GCC-RELEASE/project_km4/asdk/../toolchain/linux/asdk-10.3.1/linux/newlib/lib/gcc/arm-none-eabi/10.3.1/thumb/v8-m.main+fp/fpu/libgcc.a(_arm_unorddf2.o)
 .debug_abbrev  0x000000000000c390       0x14 /home/zjian_zhang/Dplus_Z/project/realtek_amebaDplus_va0_example/GCC-RELEASE/project_km4/asdk/../toolchain/linux/asdk-10.3.1/linux/newlib/lib/gcc/arm-none-eabi/10.3.1/thumb/v8-m.main+fp/fpu/libgcc.a(_arm_fixdfsi.o)
 .debug_abbrev  0x000000000000c3a4       0x14 /home/zjian_zhang/Dplus_Z/project/realtek_amebaDplus_va0_example/GCC-RELEASE/project_km4/asdk/../toolchain/linux/asdk-10.3.1/linux/newlib/lib/gcc/arm-none-eabi/10.3.1/thumb/v8-m.main+fp/fpu/libgcc.a(_arm_fixunsdfsi.o)
 .debug_abbrev  0x000000000000c3b8       0x14 /home/zjian_zhang/Dplus_Z/project/realtek_amebaDplus_va0_example/GCC-RELEASE/project_km4/asdk/../toolchain/linux/asdk-10.3.1/linux/newlib/lib/gcc/arm-none-eabi/10.3.1/thumb/v8-m.main+fp/fpu/libgcc.a(_arm_truncdfsf2.o)
 .debug_abbrev  0x000000000000c3cc       0x14 /home/zjian_zhang/Dplus_Z/project/realtek_amebaDplus_va0_example/GCC-RELEASE/project_km4/asdk/../toolchain/linux/asdk-10.3.1/linux/newlib/lib/gcc/arm-none-eabi/10.3.1/thumb/v8-m.main+fp/fpu/libgcc.a(_aeabi_uldivmod.o)
 .debug_abbrev  0x000000000000c3e0      0x10e /home/zjian_zhang/Dplus_Z/project/realtek_amebaDplus_va0_example/GCC-RELEASE/project_km4/asdk/../toolchain/linux/asdk-10.3.1/linux/newlib/lib/gcc/arm-none-eabi/10.3.1/thumb/v8-m.main+fp/fpu/libgcc.a(_fixdfdi.o)
 .debug_abbrev  0x000000000000c4ee      0x101 /home/zjian_zhang/Dplus_Z/project/realtek_amebaDplus_va0_example/GCC-RELEASE/project_km4/asdk/../toolchain/linux/asdk-10.3.1/linux/newlib/lib/gcc/arm-none-eabi/10.3.1/thumb/v8-m.main+fp/fpu/libgcc.a(_fixunsdfdi.o)
 .debug_abbrev  0x000000000000c5ef      0x163 /home/zjian_zhang/Dplus_Z/project/realtek_amebaDplus_va0_example/GCC-RELEASE/project_km4/asdk/../toolchain/linux/asdk-10.3.1/linux/newlib/lib/gcc/arm-none-eabi/10.3.1/thumb/v8-m.main+fp/fpu/libgcc.a(_udivmoddi4.o)
 .debug_abbrev  0x000000000000c752       0x14 /home/zjian_zhang/Dplus_Z/project/realtek_amebaDplus_va0_example/GCC-RELEASE/project_km4/asdk/../toolchain/linux/asdk-10.3.1/linux/newlib/lib/gcc/arm-none-eabi/10.3.1/thumb/v8-m.main+fp/fpu/libgcc.a(_dvmd_tls.o)
 .debug_abbrev  0x000000000000c766       0x6d /home/zjian_zhang/Dplus_Z/project/realtek_amebaDplus_va0_example/GCC-RELEASE/project_km4/asdk/../toolchain/linux/asdk-10.3.1/linux/newlib/arm-none-eabi/lib/thumb/v8-m.main+fp/fpu/libnosys.a(close.o)
 .debug_abbrev  0x000000000000c7d3       0xcc /home/zjian_zhang/Dplus_Z/project/realtek_amebaDplus_va0_example/GCC-RELEASE/project_km4/asdk/../toolchain/linux/asdk-10.3.1/linux/newlib/arm-none-eabi/lib/thumb/v8-m.main+fp/fpu/libnosys.a(fstat.o)
 .debug_abbrev  0x000000000000c89f       0x59 /home/zjian_zhang/Dplus_Z/project/realtek_amebaDplus_va0_example/GCC-RELEASE/project_km4/asdk/../toolchain/linux/asdk-10.3.1/linux/newlib/arm-none-eabi/lib/thumb/v8-m.main+fp/fpu/libnosys.a(getpid.o)
 .debug_abbrev  0x000000000000c8f8       0x6d /home/zjian_zhang/Dplus_Z/project/realtek_amebaDplus_va0_example/GCC-RELEASE/project_km4/asdk/../toolchain/linux/asdk-10.3.1/linux/newlib/arm-none-eabi/lib/thumb/v8-m.main+fp/fpu/libnosys.a(isatty.o)
 .debug_abbrev  0x000000000000c965       0x7e /home/zjian_zhang/Dplus_Z/project/realtek_amebaDplus_va0_example/GCC-RELEASE/project_km4/asdk/../toolchain/linux/asdk-10.3.1/linux/newlib/arm-none-eabi/lib/thumb/v8-m.main+fp/fpu/libnosys.a(kill.o)
 .debug_abbrev  0x000000000000c9e3       0x92 /home/zjian_zhang/Dplus_Z/project/realtek_amebaDplus_va0_example/GCC-RELEASE/project_km4/asdk/../toolchain/linux/asdk-10.3.1/linux/newlib/arm-none-eabi/lib/thumb/v8-m.main+fp/fpu/libnosys.a(lseek.o)
 .debug_abbrev  0x000000000000ca75       0xa2 /home/zjian_zhang/Dplus_Z/project/realtek_amebaDplus_va0_example/GCC-RELEASE/project_km4/asdk/../toolchain/linux/asdk-10.3.1/linux/newlib/arm-none-eabi/lib/thumb/v8-m.main+fp/fpu/libnosys.a(sbrk.o)
 .debug_abbrev  0x000000000000cb17       0x6a /home/zjian_zhang/Dplus_Z/project/realtek_amebaDplus_va0_example/GCC-RELEASE/project_km4/asdk/../toolchain/linux/asdk-10.3.1/linux/newlib/arm-none-eabi/lib/thumb/v8-m.main+fp/fpu/libnosys.a(_exit.o)

.debug_loc      0x0000000000000000    0x1e7f2
 .debug_loc     0x0000000000000000      0xacb ./build/stdlib/stdlib_link.o
 .debug_loc     0x0000000000000acb       0x6f /home/zjian_zhang/Dplus_Z/project/realtek_amebaDplus_va0_example/GCC-RELEASE/project_km4/asdk/../toolchain/linux/asdk-10.3.1/linux/newlib/arm-none-eabi/lib/thumb/v8-m.main+fp/fpu/libc.a(lib_a-atoi.o)
 .debug_loc     0x0000000000000b3a       0x64 /home/zjian_zhang/Dplus_Z/project/realtek_amebaDplus_va0_example/GCC-RELEASE/project_km4/asdk/../toolchain/linux/asdk-10.3.1/linux/newlib/arm-none-eabi/lib/thumb/v8-m.main+fp/fpu/libc.a(lib_a-printf.o)
 .debug_loc     0x0000000000000b9e       0x91 /home/zjian_zhang/Dplus_Z/project/realtek_amebaDplus_va0_example/GCC-RELEASE/project_km4/asdk/../toolchain/linux/asdk-10.3.1/linux/newlib/arm-none-eabi/lib/thumb/v8-m.main+fp/fpu/libc.a(lib_a-putchar.o)
 .debug_loc     0x0000000000000c2f      0x1a4 /home/zjian_zhang/Dplus_Z/project/realtek_amebaDplus_va0_example/GCC-RELEASE/project_km4/asdk/../toolchain/linux/asdk-10.3.1/linux/newlib/arm-none-eabi/lib/thumb/v8-m.main+fp/fpu/libc.a(lib_a-putc.o)
 .debug_loc     0x0000000000000dd3      0x132 /home/zjian_zhang/Dplus_Z/project/realtek_amebaDplus_va0_example/GCC-RELEASE/project_km4/asdk/../toolchain/linux/asdk-10.3.1/linux/newlib/arm-none-eabi/lib/thumb/v8-m.main+fp/fpu/libc.a(lib_a-puts.o)
 .debug_loc     0x0000000000000f05      0x1c3 /home/zjian_zhang/Dplus_Z/project/realtek_amebaDplus_va0_example/GCC-RELEASE/project_km4/asdk/../toolchain/linux/asdk-10.3.1/linux/newlib/arm-none-eabi/lib/thumb/v8-m.main+fp/fpu/libc.a(lib_a-snprintf.o)
 .debug_loc     0x00000000000010c8       0xb7 /home/zjian_zhang/Dplus_Z/project/realtek_amebaDplus_va0_example/GCC-RELEASE/project_km4/asdk/../toolchain/linux/asdk-10.3.1/linux/newlib/arm-none-eabi/lib/thumb/v8-m.main+fp/fpu/libc.a(lib_a-sprintf.o)
 .debug_loc     0x000000000000117f       0xa6 /home/zjian_zhang/Dplus_Z/project/realtek_amebaDplus_va0_example/GCC-RELEASE/project_km4/asdk/../toolchain/linux/asdk-10.3.1/linux/newlib/arm-none-eabi/lib/thumb/v8-m.main+fp/fpu/libc.a(lib_a-sscanf.o)
 .debug_loc     0x0000000000001225      0x345 /home/zjian_zhang/Dplus_Z/project/realtek_amebaDplus_va0_example/GCC-RELEASE/project_km4/asdk/../toolchain/linux/asdk-10.3.1/linux/newlib/arm-none-eabi/lib/thumb/v8-m.main+fp/fpu/libc.a(lib_a-stdio.o)
 .debug_loc     0x000000000000156a       0xa5 /home/zjian_zhang/Dplus_Z/project/realtek_amebaDplus_va0_example/GCC-RELEASE/project_km4/asdk/../toolchain/linux/asdk-10.3.1/linux/newlib/arm-none-eabi/lib/thumb/v8-m.main+fp/fpu/libc.a(lib_a-strcat.o)
 .debug_loc     0x000000000000160f      0x1c1 /home/zjian_zhang/Dplus_Z/project/realtek_amebaDplus_va0_example/GCC-RELEASE/project_km4/asdk/../toolchain/linux/asdk-10.3.1/linux/newlib/arm-none-eabi/lib/thumb/v8-m.main+fp/fpu/libc.a(lib_a-strchr.o)
 .debug_loc     0x00000000000017d0       0x25 /home/zjian_zhang/Dplus_Z/project/realtek_amebaDplus_va0_example/GCC-RELEASE/project_km4/asdk/../toolchain/linux/asdk-10.3.1/linux/newlib/arm-none-eabi/lib/thumb/v8-m.main+fp/fpu/libc.a(lib_a-strcpy.o)
 .debug_loc     0x00000000000017f5       0x25 /home/zjian_zhang/Dplus_Z/project/realtek_amebaDplus_va0_example/GCC-RELEASE/project_km4/asdk/../toolchain/linux/asdk-10.3.1/linux/newlib/arm-none-eabi/lib/thumb/v8-m.main+fp/fpu/libc.a(lib_a-strlen-stub.o)
 .debug_loc     0x000000000000181a      0x102 /home/zjian_zhang/Dplus_Z/project/realtek_amebaDplus_va0_example/GCC-RELEASE/project_km4/asdk/../toolchain/linux/asdk-10.3.1/linux/newlib/arm-none-eabi/lib/thumb/v8-m.main+fp/fpu/libc.a(lib_a-strncat.o)
 .debug_loc     0x000000000000191c      0x133 /home/zjian_zhang/Dplus_Z/project/realtek_amebaDplus_va0_example/GCC-RELEASE/project_km4/asdk/../toolchain/linux/asdk-10.3.1/linux/newlib/arm-none-eabi/lib/thumb/v8-m.main+fp/fpu/libc.a(lib_a-strncmp.o)
 .debug_loc     0x0000000000001a4f      0x184 /home/zjian_zhang/Dplus_Z/project/realtek_amebaDplus_va0_example/GCC-RELEASE/project_km4/asdk/../toolchain/linux/asdk-10.3.1/linux/newlib/arm-none-eabi/lib/thumb/v8-m.main+fp/fpu/libc.a(lib_a-strncpy.o)
 .debug_loc     0x0000000000001bd3       0x95 /home/zjian_zhang/Dplus_Z/project/realtek_amebaDplus_va0_example/GCC-RELEASE/project_km4/asdk/../toolchain/linux/asdk-10.3.1/linux/newlib/arm-none-eabi/lib/thumb/v8-m.main+fp/fpu/libc.a(lib_a-strpbrk.o)
 .debug_loc     0x0000000000001c68       0x57 /home/zjian_zhang/Dplus_Z/project/realtek_amebaDplus_va0_example/GCC-RELEASE/project_km4/asdk/../toolchain/linux/asdk-10.3.1/linux/newlib/arm-none-eabi/lib/thumb/v8-m.main+fp/fpu/libc.a(lib_a-strsep.o)
 .debug_loc     0x0000000000001cbf      0xcc6 /home/zjian_zhang/Dplus_Z/project/realtek_amebaDplus_va0_example/GCC-RELEASE/project_km4/asdk/../toolchain/linux/asdk-10.3.1/linux/newlib/arm-none-eabi/lib/thumb/v8-m.main+fp/fpu/libc.a(lib_a-strstr.o)
 .debug_loc     0x0000000000002985       0x6d /home/zjian_zhang/Dplus_Z/project/realtek_amebaDplus_va0_example/GCC-RELEASE/project_km4/asdk/../toolchain/linux/asdk-10.3.1/linux/newlib/arm-none-eabi/lib/thumb/v8-m.main+fp/fpu/libc.a(lib_a-strtok.o)
 .debug_loc     0x00000000000029f2      0x1b1 /home/zjian_zhang/Dplus_Z/project/realtek_amebaDplus_va0_example/GCC-RELEASE/project_km4/asdk/../toolchain/linux/asdk-10.3.1/linux/newlib/arm-none-eabi/lib/thumb/v8-m.main+fp/fpu/libc.a(lib_a-strtok_r.o)
 .debug_loc     0x0000000000002ba3      0x6f4 /home/zjian_zhang/Dplus_Z/project/realtek_amebaDplus_va0_example/GCC-RELEASE/project_km4/asdk/../toolchain/linux/asdk-10.3.1/linux/newlib/arm-none-eabi/lib/thumb/v8-m.main+fp/fpu/libc.a(lib_a-strtol.o)
 .debug_loc     0x0000000000003297     0x2580 /home/zjian_zhang/Dplus_Z/project/realtek_amebaDplus_va0_example/GCC-RELEASE/project_km4/asdk/../toolchain/linux/asdk-10.3.1/linux/newlib/arm-none-eabi/lib/thumb/v8-m.main+fp/fpu/libc.a(lib_a-svfprintf.o)
 .debug_loc     0x0000000000005817     0x24ae /home/zjian_zhang/Dplus_Z/project/realtek_amebaDplus_va0_example/GCC-RELEASE/project_km4/asdk/../toolchain/linux/asdk-10.3.1/linux/newlib/arm-none-eabi/lib/thumb/v8-m.main+fp/fpu/libc.a(lib_a-svfscanf.o)
 .debug_loc     0x0000000000007cc5     0x2886 /home/zjian_zhang/Dplus_Z/project/realtek_amebaDplus_va0_example/GCC-RELEASE/project_km4/asdk/../toolchain/linux/asdk-10.3.1/linux/newlib/arm-none-eabi/lib/thumb/v8-m.main+fp/fpu/libc.a(lib_a-vfprintf.o)
 .debug_loc     0x000000000000a54b      0x1bd /home/zjian_zhang/Dplus_Z/project/realtek_amebaDplus_va0_example/GCC-RELEASE/project_km4/asdk/../toolchain/linux/asdk-10.3.1/linux/newlib/arm-none-eabi/lib/thumb/v8-m.main+fp/fpu/libc.a(lib_a-vsnprintf.o)
 .debug_loc     0x000000000000a708      0x16a /home/zjian_zhang/Dplus_Z/project/realtek_amebaDplus_va0_example/GCC-RELEASE/project_km4/asdk/../toolchain/linux/asdk-10.3.1/linux/newlib/arm-none-eabi/lib/thumb/v8-m.main+fp/fpu/libc.a(lib_a-wbuf.o)
 .debug_loc     0x000000000000a872       0xd0 /home/zjian_zhang/Dplus_Z/project/realtek_amebaDplus_va0_example/GCC-RELEASE/project_km4/asdk/../toolchain/linux/asdk-10.3.1/linux/newlib/arm-none-eabi/lib/thumb/v8-m.main+fp/fpu/libc.a(lib_a-writer.o)
 .debug_loc     0x000000000000a942       0x59 /home/zjian_zhang/Dplus_Z/project/realtek_amebaDplus_va0_example/GCC-RELEASE/project_km4/asdk/../toolchain/linux/asdk-10.3.1/linux/newlib/arm-none-eabi/lib/thumb/v8-m.main+fp/fpu/libc.a(lib_a-wsetup.o)
 .debug_loc     0x000000000000a99b       0x6c /home/zjian_zhang/Dplus_Z/project/realtek_amebaDplus_va0_example/GCC-RELEASE/project_km4/asdk/../toolchain/linux/asdk-10.3.1/linux/newlib/arm-none-eabi/lib/thumb/v8-m.main+fp/fpu/libc.a(lib_a-closer.o)
 .debug_loc     0x000000000000aa07     0x24de /home/zjian_zhang/Dplus_Z/project/realtek_amebaDplus_va0_example/GCC-RELEASE/project_km4/asdk/../toolchain/linux/asdk-10.3.1/linux/newlib/arm-none-eabi/lib/thumb/v8-m.main+fp/fpu/libc.a(lib_a-dtoa.o)
 .debug_loc     0x000000000000cee5      0x2c4 /home/zjian_zhang/Dplus_Z/project/realtek_amebaDplus_va0_example/GCC-RELEASE/project_km4/asdk/../toolchain/linux/asdk-10.3.1/linux/newlib/arm-none-eabi/lib/thumb/v8-m.main+fp/fpu/libc.a(lib_a-fflush.o)
 .debug_loc     0x000000000000d1a9      0x2f4 /home/zjian_zhang/Dplus_Z/project/realtek_amebaDplus_va0_example/GCC-RELEASE/project_km4/asdk/../toolchain/linux/asdk-10.3.1/linux/newlib/arm-none-eabi/lib/thumb/v8-m.main+fp/fpu/libc.a(lib_a-findfp.o)
 .debug_loc     0x000000000000d49d       0x32 /home/zjian_zhang/Dplus_Z/project/realtek_amebaDplus_va0_example/GCC-RELEASE/project_km4/asdk/../toolchain/linux/asdk-10.3.1/linux/newlib/arm-none-eabi/lib/thumb/v8-m.main+fp/fpu/libc.a(lib_a-free.o)
 .debug_loc     0x000000000000d4cf      0x49d /home/zjian_zhang/Dplus_Z/project/realtek_amebaDplus_va0_example/GCC-RELEASE/project_km4/asdk/../toolchain/linux/asdk-10.3.1/linux/newlib/arm-none-eabi/lib/thumb/v8-m.main+fp/fpu/libc.a(lib_a-freer.o)
 .debug_loc     0x000000000000d96c      0x61b /home/zjian_zhang/Dplus_Z/project/realtek_amebaDplus_va0_example/GCC-RELEASE/project_km4/asdk/../toolchain/linux/asdk-10.3.1/linux/newlib/arm-none-eabi/lib/thumb/v8-m.main+fp/fpu/libc.a(lib_a-fvwrite.o)
 .debug_loc     0x000000000000df87      0x187 /home/zjian_zhang/Dplus_Z/project/realtek_amebaDplus_va0_example/GCC-RELEASE/project_km4/asdk/../toolchain/linux/asdk-10.3.1/linux/newlib/arm-none-eabi/lib/thumb/v8-m.main+fp/fpu/libc.a(lib_a-fwalk.o)
 .debug_loc     0x000000000000e10e       0x25 /home/zjian_zhang/Dplus_Z/project/realtek_amebaDplus_va0_example/GCC-RELEASE/project_km4/asdk/../toolchain/linux/asdk-10.3.1/linux/newlib/arm-none-eabi/lib/thumb/v8-m.main+fp/fpu/libc.a(lib_a-iswspace.o)
 .debug_loc     0x000000000000e133       0x6f /home/zjian_zhang/Dplus_Z/project/realtek_amebaDplus_va0_example/GCC-RELEASE/project_km4/asdk/../toolchain/linux/asdk-10.3.1/linux/newlib/arm-none-eabi/lib/thumb/v8-m.main+fp/fpu/libc.a(lib_a-localeconv.o)
 .debug_loc     0x000000000000e1a2      0x169 /home/zjian_zhang/Dplus_Z/project/realtek_amebaDplus_va0_example/GCC-RELEASE/project_km4/asdk/../toolchain/linux/asdk-10.3.1/linux/newlib/arm-none-eabi/lib/thumb/v8-m.main+fp/fpu/libc.a(lib_a-locale.o)
 .debug_loc     0x000000000000e30b       0x25 /home/zjian_zhang/Dplus_Z/project/realtek_amebaDplus_va0_example/GCC-RELEASE/project_km4/asdk/../toolchain/linux/asdk-10.3.1/linux/newlib/arm-none-eabi/lib/thumb/v8-m.main+fp/fpu/libc.a(lib_a-lock.o)
 .debug_loc     0x000000000000e330       0xd0 /home/zjian_zhang/Dplus_Z/project/realtek_amebaDplus_va0_example/GCC-RELEASE/project_km4/asdk/../toolchain/linux/asdk-10.3.1/linux/newlib/arm-none-eabi/lib/thumb/v8-m.main+fp/fpu/libc.a(lib_a-lseekr.o)
 .debug_loc     0x000000000000e400      0x205 /home/zjian_zhang/Dplus_Z/project/realtek_amebaDplus_va0_example/GCC-RELEASE/project_km4/asdk/../toolchain/linux/asdk-10.3.1/linux/newlib/arm-none-eabi/lib/thumb/v8-m.main+fp/fpu/libc.a(lib_a-makebuf.o)
 .debug_loc     0x000000000000e605       0x32 /home/zjian_zhang/Dplus_Z/project/realtek_amebaDplus_va0_example/GCC-RELEASE/project_km4/asdk/../toolchain/linux/asdk-10.3.1/linux/newlib/arm-none-eabi/lib/thumb/v8-m.main+fp/fpu/libc.a(lib_a-malloc.o)
 .debug_loc     0x000000000000e637      0xa87 /home/zjian_zhang/Dplus_Z/project/realtek_amebaDplus_va0_example/GCC-RELEASE/project_km4/asdk/../toolchain/linux/asdk-10.3.1/linux/newlib/arm-none-eabi/lib/thumb/v8-m.main+fp/fpu/libc.a(lib_a-mallocr.o)
 .debug_loc     0x000000000000f0be      0x1be /home/zjian_zhang/Dplus_Z/project/realtek_amebaDplus_va0_example/GCC-RELEASE/project_km4/asdk/../toolchain/linux/asdk-10.3.1/linux/newlib/arm-none-eabi/lib/thumb/v8-m.main+fp/fpu/libc.a(lib_a-mbrtowc.o)
 .debug_loc     0x000000000000f27c      0x201 /home/zjian_zhang/Dplus_Z/project/realtek_amebaDplus_va0_example/GCC-RELEASE/project_km4/asdk/../toolchain/linux/asdk-10.3.1/linux/newlib/arm-none-eabi/lib/thumb/v8-m.main+fp/fpu/libc.a(lib_a-mbtowc_r.o)
 .debug_loc     0x000000000000f47d      0x201 /home/zjian_zhang/Dplus_Z/project/realtek_amebaDplus_va0_example/GCC-RELEASE/project_km4/asdk/../toolchain/linux/asdk-10.3.1/linux/newlib/arm-none-eabi/lib/thumb/v8-m.main+fp/fpu/libc.a(lib_a-memchr-stub.o)
 .debug_loc     0x000000000000f67e      0x130 /home/zjian_zhang/Dplus_Z/project/realtek_amebaDplus_va0_example/GCC-RELEASE/project_km4/asdk/../toolchain/linux/asdk-10.3.1/linux/newlib/arm-none-eabi/lib/thumb/v8-m.main+fp/fpu/libc.a(lib_a-memcmp.o)
 .debug_loc     0x000000000000f7ae      0x2c8 /home/zjian_zhang/Dplus_Z/project/realtek_amebaDplus_va0_example/GCC-RELEASE/project_km4/asdk/../toolchain/linux/asdk-10.3.1/linux/newlib/arm-none-eabi/lib/thumb/v8-m.main+fp/fpu/libc.a(lib_a-memmove.o)
 .debug_loc     0x000000000000fa76      0x1df /home/zjian_zhang/Dplus_Z/project/realtek_amebaDplus_va0_example/GCC-RELEASE/project_km4/asdk/../toolchain/linux/asdk-10.3.1/linux/newlib/arm-none-eabi/lib/thumb/v8-m.main+fp/fpu/libc.a(lib_a-memset-stub.o)
 .debug_loc     0x000000000000fc55       0x4a /home/zjian_zhang/Dplus_Z/project/realtek_amebaDplus_va0_example/GCC-RELEASE/project_km4/asdk/../toolchain/linux/asdk-10.3.1/linux/newlib/arm-none-eabi/lib/thumb/v8-m.main+fp/fpu/libc.a(lib_a-mlock.o)
 .debug_loc     0x000000000000fc9f     0x220b /home/zjian_zhang/Dplus_Z/project/realtek_amebaDplus_va0_example/GCC-RELEASE/project_km4/asdk/../toolchain/linux/asdk-10.3.1/linux/newlib/arm-none-eabi/lib/thumb/v8-m.main+fp/fpu/libc.a(lib_a-mprec.o)
 .debug_loc     0x0000000000011eaa       0xd0 /home/zjian_zhang/Dplus_Z/project/realtek_amebaDplus_va0_example/GCC-RELEASE/project_km4/asdk/../toolchain/linux/asdk-10.3.1/linux/newlib/arm-none-eabi/lib/thumb/v8-m.main+fp/fpu/libc.a(lib_a-readr.o)
 .debug_loc     0x0000000000011f7a       0x64 /home/zjian_zhang/Dplus_Z/project/realtek_amebaDplus_va0_example/GCC-RELEASE/project_km4/asdk/../toolchain/linux/asdk-10.3.1/linux/newlib/arm-none-eabi/lib/thumb/v8-m.main+fp/fpu/libc.a(lib_a-realloc.o)
 .debug_loc     0x0000000000011fde     0x1068 /home/zjian_zhang/Dplus_Z/project/realtek_amebaDplus_va0_example/GCC-RELEASE/project_km4/asdk/../toolchain/linux/asdk-10.3.1/linux/newlib/arm-none-eabi/lib/thumb/v8-m.main+fp/fpu/libc.a(lib_a-reallocr.o)
 .debug_loc     0x0000000000013046      0x16f /home/zjian_zhang/Dplus_Z/project/realtek_amebaDplus_va0_example/GCC-RELEASE/project_km4/asdk/../toolchain/linux/asdk-10.3.1/linux/newlib/arm-none-eabi/lib/thumb/v8-m.main+fp/fpu/libc.a(lib_a-reent.o)
 .debug_loc     0x00000000000131b5       0x6c /home/zjian_zhang/Dplus_Z/project/realtek_amebaDplus_va0_example/GCC-RELEASE/project_km4/asdk/../toolchain/linux/asdk-10.3.1/linux/newlib/arm-none-eabi/lib/thumb/v8-m.main+fp/fpu/libc.a(lib_a-sbrkr.o)
 .debug_loc     0x0000000000013221      0x19d /home/zjian_zhang/Dplus_Z/project/realtek_amebaDplus_va0_example/GCC-RELEASE/project_km4/asdk/../toolchain/linux/asdk-10.3.1/linux/newlib/arm-none-eabi/lib/thumb/v8-m.main+fp/fpu/libc.a(lib_a-sccl.o)
 .debug_loc     0x00000000000133be      0x114 /home/zjian_zhang/Dplus_Z/project/realtek_amebaDplus_va0_example/GCC-RELEASE/project_km4/asdk/../toolchain/linux/asdk-10.3.1/linux/newlib/arm-none-eabi/lib/thumb/v8-m.main+fp/fpu/libc.a(lib_a-s_frexp.o)
 .debug_loc     0x00000000000134d2       0x79 /home/zjian_zhang/Dplus_Z/project/realtek_amebaDplus_va0_example/GCC-RELEASE/project_km4/asdk/../toolchain/linux/asdk-10.3.1/linux/newlib/arm-none-eabi/lib/thumb/v8-m.main+fp/fpu/libc.a(lib_a-strnlen.o)
 .debug_loc     0x000000000001354b     0x1d2d /home/zjian_zhang/Dplus_Z/project/realtek_amebaDplus_va0_example/GCC-RELEASE/project_km4/asdk/../toolchain/linux/asdk-10.3.1/linux/newlib/arm-none-eabi/lib/thumb/v8-m.main+fp/fpu/libc.a(lib_a-strtod.o)
 .debug_loc     0x0000000000015278      0x611 /home/zjian_zhang/Dplus_Z/project/realtek_amebaDplus_va0_example/GCC-RELEASE/project_km4/asdk/../toolchain/linux/asdk-10.3.1/linux/newlib/arm-none-eabi/lib/thumb/v8-m.main+fp/fpu/libc.a(lib_a-strtoll.o)
 .debug_loc     0x0000000000015889      0x62c /home/zjian_zhang/Dplus_Z/project/realtek_amebaDplus_va0_example/GCC-RELEASE/project_km4/asdk/../toolchain/linux/asdk-10.3.1/linux/newlib/arm-none-eabi/lib/thumb/v8-m.main+fp/fpu/libc.a(lib_a-strtoull.o)
 .debug_loc     0x0000000000015eb5      0x4c0 /home/zjian_zhang/Dplus_Z/project/realtek_amebaDplus_va0_example/GCC-RELEASE/project_km4/asdk/../toolchain/linux/asdk-10.3.1/linux/newlib/arm-none-eabi/lib/thumb/v8-m.main+fp/fpu/libc.a(lib_a-strtoul.o)
 .debug_loc     0x0000000000016375     0x144c /home/zjian_zhang/Dplus_Z/project/realtek_amebaDplus_va0_example/GCC-RELEASE/project_km4/asdk/../toolchain/linux/asdk-10.3.1/linux/newlib/arm-none-eabi/lib/thumb/v8-m.main+fp/fpu/libc.a(lib_a-svfiprintf.o)
 .debug_loc     0x00000000000177c1     0x2074 /home/zjian_zhang/Dplus_Z/project/realtek_amebaDplus_va0_example/GCC-RELEASE/project_km4/asdk/../toolchain/linux/asdk-10.3.1/linux/newlib/arm-none-eabi/lib/thumb/v8-m.main+fp/fpu/libc.a(lib_a-svfiscanf.o)
 .debug_loc     0x0000000000019835      0x261 /home/zjian_zhang/Dplus_Z/project/realtek_amebaDplus_va0_example/GCC-RELEASE/project_km4/asdk/../toolchain/linux/asdk-10.3.1/linux/newlib/arm-none-eabi/lib/thumb/v8-m.main+fp/fpu/libc.a(lib_a-ungetc.o)
 .debug_loc     0x0000000000019a96     0x181b /home/zjian_zhang/Dplus_Z/project/realtek_amebaDplus_va0_example/GCC-RELEASE/project_km4/asdk/../toolchain/linux/asdk-10.3.1/linux/newlib/arm-none-eabi/lib/thumb/v8-m.main+fp/fpu/libc.a(lib_a-vfiprintf.o)
 .debug_loc     0x000000000001b2b1      0x11d /home/zjian_zhang/Dplus_Z/project/realtek_amebaDplus_va0_example/GCC-RELEASE/project_km4/asdk/../toolchain/linux/asdk-10.3.1/linux/newlib/arm-none-eabi/lib/thumb/v8-m.main+fp/fpu/libc.a(lib_a-wctomb_r.o)
 .debug_loc     0x000000000001b3ce      0x16c /home/zjian_zhang/Dplus_Z/project/realtek_amebaDplus_va0_example/GCC-RELEASE/project_km4/asdk/../toolchain/linux/asdk-10.3.1/linux/newlib/arm-none-eabi/lib/thumb/v8-m.main+fp/fpu/libc.a(lib_a-assert.o)
 .debug_loc     0x000000000001b53a      0x215 /home/zjian_zhang/Dplus_Z/project/realtek_amebaDplus_va0_example/GCC-RELEASE/project_km4/asdk/../toolchain/linux/asdk-10.3.1/linux/newlib/arm-none-eabi/lib/thumb/v8-m.main+fp/fpu/libc.a(lib_a-callocr.o)
 .debug_loc     0x000000000001b74f       0xee /home/zjian_zhang/Dplus_Z/project/realtek_amebaDplus_va0_example/GCC-RELEASE/project_km4/asdk/../toolchain/linux/asdk-10.3.1/linux/newlib/arm-none-eabi/lib/thumb/v8-m.main+fp/fpu/libc.a(lib_a-fclose.o)
 .debug_loc     0x000000000001b83d       0xa6 /home/zjian_zhang/Dplus_Z/project/realtek_amebaDplus_va0_example/GCC-RELEASE/project_km4/asdk/../toolchain/linux/asdk-10.3.1/linux/newlib/arm-none-eabi/lib/thumb/v8-m.main+fp/fpu/libc.a(lib_a-fiprintf.o)
 .debug_loc     0x000000000001b8e3      0x29f /home/zjian_zhang/Dplus_Z/project/realtek_amebaDplus_va0_example/GCC-RELEASE/project_km4/asdk/../toolchain/linux/asdk-10.3.1/linux/newlib/arm-none-eabi/lib/thumb/v8-m.main+fp/fpu/libc.a(lib_a-fputwc.o)
 .debug_loc     0x000000000001bb82       0x9e /home/zjian_zhang/Dplus_Z/project/realtek_amebaDplus_va0_example/GCC-RELEASE/project_km4/asdk/../toolchain/linux/asdk-10.3.1/linux/newlib/arm-none-eabi/lib/thumb/v8-m.main+fp/fpu/libc.a(lib_a-fstatr.o)
 .debug_loc     0x000000000001bc20      0xfd7 /home/zjian_zhang/Dplus_Z/project/realtek_amebaDplus_va0_example/GCC-RELEASE/project_km4/asdk/../toolchain/linux/asdk-10.3.1/linux/newlib/arm-none-eabi/lib/thumb/v8-m.main+fp/fpu/libc.a(lib_a-gdtoa-gethex.o)
 .debug_loc     0x000000000001cbf7      0x513 /home/zjian_zhang/Dplus_Z/project/realtek_amebaDplus_va0_example/GCC-RELEASE/project_km4/asdk/../toolchain/linux/asdk-10.3.1/linux/newlib/arm-none-eabi/lib/thumb/v8-m.main+fp/fpu/libc.a(lib_a-gdtoa-hexnan.o)
 .debug_loc     0x000000000001d10a       0x6c /home/zjian_zhang/Dplus_Z/project/realtek_amebaDplus_va0_example/GCC-RELEASE/project_km4/asdk/../toolchain/linux/asdk-10.3.1/linux/newlib/arm-none-eabi/lib/thumb/v8-m.main+fp/fpu/libc.a(lib_a-isattyr.o)
 .debug_loc     0x000000000001d176       0x25 /home/zjian_zhang/Dplus_Z/project/realtek_amebaDplus_va0_example/GCC-RELEASE/project_km4/asdk/../toolchain/linux/asdk-10.3.1/linux/newlib/arm-none-eabi/lib/thumb/v8-m.main+fp/fpu/libc.a(lib_a-iswspace_l.o)
 .debug_loc     0x000000000001d19b       0x25 /home/zjian_zhang/Dplus_Z/project/realtek_amebaDplus_va0_example/GCC-RELEASE/project_km4/asdk/../toolchain/linux/asdk-10.3.1/linux/newlib/arm-none-eabi/lib/thumb/v8-m.main+fp/fpu/libc.a(lib_a-lnumeric.o)
 .debug_loc     0x000000000001d1c0      0x167 /home/zjian_zhang/Dplus_Z/project/realtek_amebaDplus_va0_example/GCC-RELEASE/project_km4/asdk/../toolchain/linux/asdk-10.3.1/linux/newlib/arm-none-eabi/lib/thumb/v8-m.main+fp/fpu/libc.a(lib_a-wcrtomb.o)
 .debug_loc     0x000000000001d327      0x480 /home/zjian_zhang/Dplus_Z/project/realtek_amebaDplus_va0_example/GCC-RELEASE/project_km4/asdk/../toolchain/linux/asdk-10.3.1/linux/newlib/arm-none-eabi/lib/thumb/v8-m.main+fp/fpu/libc.a(lib_a-signal.o)
 .debug_loc     0x000000000001d7a7       0xc3 /home/zjian_zhang/Dplus_Z/project/realtek_amebaDplus_va0_example/GCC-RELEASE/project_km4/asdk/../toolchain/linux/asdk-10.3.1/linux/newlib/arm-none-eabi/lib/thumb/v8-m.main+fp/fpu/libc.a(lib_a-signalr.o)
 .debug_loc     0x000000000001d86a       0x2c /home/zjian_zhang/Dplus_Z/project/realtek_amebaDplus_va0_example/GCC-RELEASE/project_km4/asdk/../toolchain/linux/asdk-10.3.1/linux/newlib/lib/gcc/arm-none-eabi/10.3.1/thumb/v8-m.main+fp/fpu/libgcc.a(_fixdfdi.o)
 .debug_loc     0x000000000001d896       0xad /home/zjian_zhang/Dplus_Z/project/realtek_amebaDplus_va0_example/GCC-RELEASE/project_km4/asdk/../toolchain/linux/asdk-10.3.1/linux/newlib/lib/gcc/arm-none-eabi/10.3.1/thumb/v8-m.main+fp/fpu/libgcc.a(_fixunsdfdi.o)
 .debug_loc     0x000000000001d943      0xd75 /home/zjian_zhang/Dplus_Z/project/realtek_amebaDplus_va0_example/GCC-RELEASE/project_km4/asdk/../toolchain/linux/asdk-10.3.1/linux/newlib/lib/gcc/arm-none-eabi/10.3.1/thumb/v8-m.main+fp/fpu/libgcc.a(_udivmoddi4.o)
 .debug_loc     0x000000000001e6b8       0x25 /home/zjian_zhang/Dplus_Z/project/realtek_amebaDplus_va0_example/GCC-RELEASE/project_km4/asdk/../toolchain/linux/asdk-10.3.1/linux/newlib/arm-none-eabi/lib/thumb/v8-m.main+fp/fpu/libnosys.a(close.o)
 .debug_loc     0x000000000001e6dd       0x25 /home/zjian_zhang/Dplus_Z/project/realtek_amebaDplus_va0_example/GCC-RELEASE/project_km4/asdk/../toolchain/linux/asdk-10.3.1/linux/newlib/arm-none-eabi/lib/thumb/v8-m.main+fp/fpu/libnosys.a(fstat.o)
 .debug_loc     0x000000000001e702       0x25 /home/zjian_zhang/Dplus_Z/project/realtek_amebaDplus_va0_example/GCC-RELEASE/project_km4/asdk/../toolchain/linux/asdk-10.3.1/linux/newlib/arm-none-eabi/lib/thumb/v8-m.main+fp/fpu/libnosys.a(isatty.o)
 .debug_loc     0x000000000001e727       0x25 /home/zjian_zhang/Dplus_Z/project/realtek_amebaDplus_va0_example/GCC-RELEASE/project_km4/asdk/../toolchain/linux/asdk-10.3.1/linux/newlib/arm-none-eabi/lib/thumb/v8-m.main+fp/fpu/libnosys.a(kill.o)
 .debug_loc     0x000000000001e74c       0x4a /home/zjian_zhang/Dplus_Z/project/realtek_amebaDplus_va0_example/GCC-RELEASE/project_km4/asdk/../toolchain/linux/asdk-10.3.1/linux/newlib/arm-none-eabi/lib/thumb/v8-m.main+fp/fpu/libnosys.a(lseek.o)
 .debug_loc     0x000000000001e796       0x47 /home/zjian_zhang/Dplus_Z/project/realtek_amebaDplus_va0_example/GCC-RELEASE/project_km4/asdk/../toolchain/linux/asdk-10.3.1/linux/newlib/arm-none-eabi/lib/thumb/v8-m.main+fp/fpu/libnosys.a(sbrk.o)
 .debug_loc     0x000000000001e7dd       0x15 /home/zjian_zhang/Dplus_Z/project/realtek_amebaDplus_va0_example/GCC-RELEASE/project_km4/asdk/../toolchain/linux/asdk-10.3.1/linux/newlib/arm-none-eabi/lib/thumb/v8-m.main+fp/fpu/libnosys.a(_exit.o)

.debug_aranges  0x0000000000000000      0xe30
 .debug_aranges
                0x0000000000000000       0x20 ./build/stdlib/stdlib_link.o
 .debug_aranges
                0x0000000000000020       0x20 /home/zjian_zhang/Dplus_Z/project/realtek_amebaDplus_va0_example/GCC-RELEASE/project_km4/asdk/../toolchain/linux/asdk-10.3.1/linux/newlib/arm-none-eabi/lib/thumb/v8-m.main+fp/fpu/libc.a(lib_a-atoi.o)
 .debug_aranges
                0x0000000000000040       0x20 /home/zjian_zhang/Dplus_Z/project/realtek_amebaDplus_va0_example/GCC-RELEASE/project_km4/asdk/../toolchain/linux/asdk-10.3.1/linux/newlib/arm-none-eabi/lib/thumb/v8-m.main+fp/fpu/libc.a(lib_a-printf.o)
 .debug_aranges
                0x0000000000000060       0x20 /home/zjian_zhang/Dplus_Z/project/realtek_amebaDplus_va0_example/GCC-RELEASE/project_km4/asdk/../toolchain/linux/asdk-10.3.1/linux/newlib/arm-none-eabi/lib/thumb/v8-m.main+fp/fpu/libc.a(lib_a-putchar.o)
 .debug_aranges
                0x0000000000000080       0x20 /home/zjian_zhang/Dplus_Z/project/realtek_amebaDplus_va0_example/GCC-RELEASE/project_km4/asdk/../toolchain/linux/asdk-10.3.1/linux/newlib/arm-none-eabi/lib/thumb/v8-m.main+fp/fpu/libc.a(lib_a-putc.o)
 .debug_aranges
                0x00000000000000a0       0x20 /home/zjian_zhang/Dplus_Z/project/realtek_amebaDplus_va0_example/GCC-RELEASE/project_km4/asdk/../toolchain/linux/asdk-10.3.1/linux/newlib/arm-none-eabi/lib/thumb/v8-m.main+fp/fpu/libc.a(lib_a-puts.o)
 .debug_aranges
                0x00000000000000c0       0x20 /home/zjian_zhang/Dplus_Z/project/realtek_amebaDplus_va0_example/GCC-RELEASE/project_km4/asdk/../toolchain/linux/asdk-10.3.1/linux/newlib/arm-none-eabi/lib/thumb/v8-m.main+fp/fpu/libc.a(lib_a-snprintf.o)
 .debug_aranges
                0x00000000000000e0       0x20 /home/zjian_zhang/Dplus_Z/project/realtek_amebaDplus_va0_example/GCC-RELEASE/project_km4/asdk/../toolchain/linux/asdk-10.3.1/linux/newlib/arm-none-eabi/lib/thumb/v8-m.main+fp/fpu/libc.a(lib_a-sprintf.o)
 .debug_aranges
                0x0000000000000100       0x20 /home/zjian_zhang/Dplus_Z/project/realtek_amebaDplus_va0_example/GCC-RELEASE/project_km4/asdk/../toolchain/linux/asdk-10.3.1/linux/newlib/arm-none-eabi/lib/thumb/v8-m.main+fp/fpu/libc.a(lib_a-sscanf.o)
 .debug_aranges
                0x0000000000000120       0x20 /home/zjian_zhang/Dplus_Z/project/realtek_amebaDplus_va0_example/GCC-RELEASE/project_km4/asdk/../toolchain/linux/asdk-10.3.1/linux/newlib/arm-none-eabi/lib/thumb/v8-m.main+fp/fpu/libc.a(lib_a-stdio.o)
 .debug_aranges
                0x0000000000000140       0x20 /home/zjian_zhang/Dplus_Z/project/realtek_amebaDplus_va0_example/GCC-RELEASE/project_km4/asdk/../toolchain/linux/asdk-10.3.1/linux/newlib/arm-none-eabi/lib/thumb/v8-m.main+fp/fpu/libc.a(lib_a-strcat.o)
 .debug_aranges
                0x0000000000000160       0x20 /home/zjian_zhang/Dplus_Z/project/realtek_amebaDplus_va0_example/GCC-RELEASE/project_km4/asdk/../toolchain/linux/asdk-10.3.1/linux/newlib/arm-none-eabi/lib/thumb/v8-m.main+fp/fpu/libc.a(lib_a-strchr.o)
 .debug_aranges
                0x0000000000000180       0x20 /home/zjian_zhang/Dplus_Z/project/realtek_amebaDplus_va0_example/GCC-RELEASE/project_km4/asdk/../toolchain/linux/asdk-10.3.1/linux/newlib/arm-none-eabi/lib/thumb/v8-m.main+fp/fpu/libc.a(lib_a-strcpy.o)
 .debug_aranges
                0x00000000000001a0       0x20 /home/zjian_zhang/Dplus_Z/project/realtek_amebaDplus_va0_example/GCC-RELEASE/project_km4/asdk/../toolchain/linux/asdk-10.3.1/linux/newlib/arm-none-eabi/lib/thumb/v8-m.main+fp/fpu/libc.a(lib_a-strlen-stub.o)
 .debug_aranges
                0x00000000000001c0       0x20 /home/zjian_zhang/Dplus_Z/project/realtek_amebaDplus_va0_example/GCC-RELEASE/project_km4/asdk/../toolchain/linux/asdk-10.3.1/linux/newlib/arm-none-eabi/lib/thumb/v8-m.main+fp/fpu/libc.a(lib_a-strncat.o)
 .debug_aranges
                0x00000000000001e0       0x20 /home/zjian_zhang/Dplus_Z/project/realtek_amebaDplus_va0_example/GCC-RELEASE/project_km4/asdk/../toolchain/linux/asdk-10.3.1/linux/newlib/arm-none-eabi/lib/thumb/v8-m.main+fp/fpu/libc.a(lib_a-strncmp.o)
 .debug_aranges
                0x0000000000000200       0x20 /home/zjian_zhang/Dplus_Z/project/realtek_amebaDplus_va0_example/GCC-RELEASE/project_km4/asdk/../toolchain/linux/asdk-10.3.1/linux/newlib/arm-none-eabi/lib/thumb/v8-m.main+fp/fpu/libc.a(lib_a-strncpy.o)
 .debug_aranges
                0x0000000000000220       0x20 /home/zjian_zhang/Dplus_Z/project/realtek_amebaDplus_va0_example/GCC-RELEASE/project_km4/asdk/../toolchain/linux/asdk-10.3.1/linux/newlib/arm-none-eabi/lib/thumb/v8-m.main+fp/fpu/libc.a(lib_a-strpbrk.o)
 .debug_aranges
                0x0000000000000240       0x20 /home/zjian_zhang/Dplus_Z/project/realtek_amebaDplus_va0_example/GCC-RELEASE/project_km4/asdk/../toolchain/linux/asdk-10.3.1/linux/newlib/arm-none-eabi/lib/thumb/v8-m.main+fp/fpu/libc.a(lib_a-strsep.o)
 .debug_aranges
                0x0000000000000260       0x20 /home/zjian_zhang/Dplus_Z/project/realtek_amebaDplus_va0_example/GCC-RELEASE/project_km4/asdk/../toolchain/linux/asdk-10.3.1/linux/newlib/arm-none-eabi/lib/thumb/v8-m.main+fp/fpu/libc.a(lib_a-strstr.o)
 .debug_aranges
                0x0000000000000280       0x20 /home/zjian_zhang/Dplus_Z/project/realtek_amebaDplus_va0_example/GCC-RELEASE/project_km4/asdk/../toolchain/linux/asdk-10.3.1/linux/newlib/arm-none-eabi/lib/thumb/v8-m.main+fp/fpu/libc.a(lib_a-strtok.o)
 .debug_aranges
                0x00000000000002a0       0x20 /home/zjian_zhang/Dplus_Z/project/realtek_amebaDplus_va0_example/GCC-RELEASE/project_km4/asdk/../toolchain/linux/asdk-10.3.1/linux/newlib/arm-none-eabi/lib/thumb/v8-m.main+fp/fpu/libc.a(lib_a-strtok_r.o)
 .debug_aranges
                0x00000000000002c0       0x20 /home/zjian_zhang/Dplus_Z/project/realtek_amebaDplus_va0_example/GCC-RELEASE/project_km4/asdk/../toolchain/linux/asdk-10.3.1/linux/newlib/arm-none-eabi/lib/thumb/v8-m.main+fp/fpu/libc.a(lib_a-strtol.o)
 .debug_aranges
                0x00000000000002e0       0x20 /home/zjian_zhang/Dplus_Z/project/realtek_amebaDplus_va0_example/GCC-RELEASE/project_km4/asdk/../toolchain/linux/asdk-10.3.1/linux/newlib/arm-none-eabi/lib/thumb/v8-m.main+fp/fpu/libc.a(lib_a-svfprintf.o)
 .debug_aranges
                0x0000000000000300       0x20 /home/zjian_zhang/Dplus_Z/project/realtek_amebaDplus_va0_example/GCC-RELEASE/project_km4/asdk/../toolchain/linux/asdk-10.3.1/linux/newlib/arm-none-eabi/lib/thumb/v8-m.main+fp/fpu/libc.a(lib_a-svfscanf.o)
 .debug_aranges
                0x0000000000000320       0x20 /home/zjian_zhang/Dplus_Z/project/realtek_amebaDplus_va0_example/GCC-RELEASE/project_km4/asdk/../toolchain/linux/asdk-10.3.1/linux/newlib/arm-none-eabi/lib/thumb/v8-m.main+fp/fpu/libc.a(lib_a-vfprintf.o)
 .debug_aranges
                0x0000000000000340       0x20 /home/zjian_zhang/Dplus_Z/project/realtek_amebaDplus_va0_example/GCC-RELEASE/project_km4/asdk/../toolchain/linux/asdk-10.3.1/linux/newlib/arm-none-eabi/lib/thumb/v8-m.main+fp/fpu/libc.a(lib_a-vsnprintf.o)
 .debug_aranges
                0x0000000000000360       0x20 /home/zjian_zhang/Dplus_Z/project/realtek_amebaDplus_va0_example/GCC-RELEASE/project_km4/asdk/../toolchain/linux/asdk-10.3.1/linux/newlib/arm-none-eabi/lib/thumb/v8-m.main+fp/fpu/libc.a(lib_a-wbuf.o)
 .debug_aranges
                0x0000000000000380       0x20 /home/zjian_zhang/Dplus_Z/project/realtek_amebaDplus_va0_example/GCC-RELEASE/project_km4/asdk/../toolchain/linux/asdk-10.3.1/linux/newlib/arm-none-eabi/lib/thumb/v8-m.main+fp/fpu/libc.a(lib_a-writer.o)
 .debug_aranges
                0x00000000000003a0       0x20 /home/zjian_zhang/Dplus_Z/project/realtek_amebaDplus_va0_example/GCC-RELEASE/project_km4/asdk/../toolchain/linux/asdk-10.3.1/linux/newlib/arm-none-eabi/lib/thumb/v8-m.main+fp/fpu/libc.a(lib_a-wsetup.o)
 .debug_aranges
                0x00000000000003c0       0x20 /home/zjian_zhang/Dplus_Z/project/realtek_amebaDplus_va0_example/GCC-RELEASE/project_km4/asdk/../toolchain/linux/asdk-10.3.1/linux/newlib/arm-none-eabi/lib/thumb/v8-m.main+fp/fpu/libc.a(lib_a-closer.o)
 .debug_aranges
                0x00000000000003e0       0x18 /home/zjian_zhang/Dplus_Z/project/realtek_amebaDplus_va0_example/GCC-RELEASE/project_km4/asdk/../toolchain/linux/asdk-10.3.1/linux/newlib/arm-none-eabi/lib/thumb/v8-m.main+fp/fpu/libc.a(lib_a-ctype_.o)
 .debug_aranges
                0x00000000000003f8       0x20 /home/zjian_zhang/Dplus_Z/project/realtek_amebaDplus_va0_example/GCC-RELEASE/project_km4/asdk/../toolchain/linux/asdk-10.3.1/linux/newlib/arm-none-eabi/lib/thumb/v8-m.main+fp/fpu/libc.a(lib_a-dtoa.o)
 .debug_aranges
                0x0000000000000418       0x20 /home/zjian_zhang/Dplus_Z/project/realtek_amebaDplus_va0_example/GCC-RELEASE/project_km4/asdk/../toolchain/linux/asdk-10.3.1/linux/newlib/arm-none-eabi/lib/thumb/v8-m.main+fp/fpu/libc.a(lib_a-errno.o)
 .debug_aranges
                0x0000000000000438       0x20 /home/zjian_zhang/Dplus_Z/project/realtek_amebaDplus_va0_example/GCC-RELEASE/project_km4/asdk/../toolchain/linux/asdk-10.3.1/linux/newlib/arm-none-eabi/lib/thumb/v8-m.main+fp/fpu/libc.a(lib_a-fflush.o)
 .debug_aranges
                0x0000000000000458       0x20 /home/zjian_zhang/Dplus_Z/project/realtek_amebaDplus_va0_example/GCC-RELEASE/project_km4/asdk/../toolchain/linux/asdk-10.3.1/linux/newlib/arm-none-eabi/lib/thumb/v8-m.main+fp/fpu/libc.a(lib_a-findfp.o)
 .debug_aranges
                0x0000000000000478       0x20 /home/zjian_zhang/Dplus_Z/project/realtek_amebaDplus_va0_example/GCC-RELEASE/project_km4/asdk/../toolchain/linux/asdk-10.3.1/linux/newlib/arm-none-eabi/lib/thumb/v8-m.main+fp/fpu/libc.a(lib_a-free.o)
 .debug_aranges
                0x0000000000000498       0x20 /home/zjian_zhang/Dplus_Z/project/realtek_amebaDplus_va0_example/GCC-RELEASE/project_km4/asdk/../toolchain/linux/asdk-10.3.1/linux/newlib/arm-none-eabi/lib/thumb/v8-m.main+fp/fpu/libc.a(lib_a-freer.o)
 .debug_aranges
                0x00000000000004b8       0x20 /home/zjian_zhang/Dplus_Z/project/realtek_amebaDplus_va0_example/GCC-RELEASE/project_km4/asdk/../toolchain/linux/asdk-10.3.1/linux/newlib/arm-none-eabi/lib/thumb/v8-m.main+fp/fpu/libc.a(lib_a-fvwrite.o)
 .debug_aranges
                0x00000000000004d8       0x20 /home/zjian_zhang/Dplus_Z/project/realtek_amebaDplus_va0_example/GCC-RELEASE/project_km4/asdk/../toolchain/linux/asdk-10.3.1/linux/newlib/arm-none-eabi/lib/thumb/v8-m.main+fp/fpu/libc.a(lib_a-fwalk.o)
 .debug_aranges
                0x00000000000004f8       0x18 /home/zjian_zhang/Dplus_Z/project/realtek_amebaDplus_va0_example/GCC-RELEASE/project_km4/asdk/../toolchain/linux/asdk-10.3.1/linux/newlib/arm-none-eabi/lib/thumb/v8-m.main+fp/fpu/libc.a(lib_a-impure.o)
 .debug_aranges
                0x0000000000000510       0x20 /home/zjian_zhang/Dplus_Z/project/realtek_amebaDplus_va0_example/GCC-RELEASE/project_km4/asdk/../toolchain/linux/asdk-10.3.1/linux/newlib/arm-none-eabi/lib/thumb/v8-m.main+fp/fpu/libc.a(lib_a-iswspace.o)
 .debug_aranges
                0x0000000000000530       0x20 /home/zjian_zhang/Dplus_Z/project/realtek_amebaDplus_va0_example/GCC-RELEASE/project_km4/asdk/../toolchain/linux/asdk-10.3.1/linux/newlib/arm-none-eabi/lib/thumb/v8-m.main+fp/fpu/libc.a(lib_a-localeconv.o)
 .debug_aranges
                0x0000000000000550       0x20 /home/zjian_zhang/Dplus_Z/project/realtek_amebaDplus_va0_example/GCC-RELEASE/project_km4/asdk/../toolchain/linux/asdk-10.3.1/linux/newlib/arm-none-eabi/lib/thumb/v8-m.main+fp/fpu/libc.a(lib_a-locale.o)
 .debug_aranges
                0x0000000000000570       0x20 /home/zjian_zhang/Dplus_Z/project/realtek_amebaDplus_va0_example/GCC-RELEASE/project_km4/asdk/../toolchain/linux/asdk-10.3.1/linux/newlib/arm-none-eabi/lib/thumb/v8-m.main+fp/fpu/libc.a(lib_a-lock.o)
 .debug_aranges
                0x0000000000000590       0x20 /home/zjian_zhang/Dplus_Z/project/realtek_amebaDplus_va0_example/GCC-RELEASE/project_km4/asdk/../toolchain/linux/asdk-10.3.1/linux/newlib/arm-none-eabi/lib/thumb/v8-m.main+fp/fpu/libc.a(lib_a-lseekr.o)
 .debug_aranges
                0x00000000000005b0       0x20 /home/zjian_zhang/Dplus_Z/project/realtek_amebaDplus_va0_example/GCC-RELEASE/project_km4/asdk/../toolchain/linux/asdk-10.3.1/linux/newlib/arm-none-eabi/lib/thumb/v8-m.main+fp/fpu/libc.a(lib_a-makebuf.o)
 .debug_aranges
                0x00000000000005d0       0x20 /home/zjian_zhang/Dplus_Z/project/realtek_amebaDplus_va0_example/GCC-RELEASE/project_km4/asdk/../toolchain/linux/asdk-10.3.1/linux/newlib/arm-none-eabi/lib/thumb/v8-m.main+fp/fpu/libc.a(lib_a-malloc.o)
 .debug_aranges
                0x00000000000005f0       0x20 /home/zjian_zhang/Dplus_Z/project/realtek_amebaDplus_va0_example/GCC-RELEASE/project_km4/asdk/../toolchain/linux/asdk-10.3.1/linux/newlib/arm-none-eabi/lib/thumb/v8-m.main+fp/fpu/libc.a(lib_a-mallocr.o)
 .debug_aranges
                0x0000000000000610       0x20 /home/zjian_zhang/Dplus_Z/project/realtek_amebaDplus_va0_example/GCC-RELEASE/project_km4/asdk/../toolchain/linux/asdk-10.3.1/linux/newlib/arm-none-eabi/lib/thumb/v8-m.main+fp/fpu/libc.a(lib_a-mbrtowc.o)
 .debug_aranges
                0x0000000000000630       0x20 /home/zjian_zhang/Dplus_Z/project/realtek_amebaDplus_va0_example/GCC-RELEASE/project_km4/asdk/../toolchain/linux/asdk-10.3.1/linux/newlib/arm-none-eabi/lib/thumb/v8-m.main+fp/fpu/libc.a(lib_a-mbtowc_r.o)
 .debug_aranges
                0x0000000000000650       0x20 /home/zjian_zhang/Dplus_Z/project/realtek_amebaDplus_va0_example/GCC-RELEASE/project_km4/asdk/../toolchain/linux/asdk-10.3.1/linux/newlib/arm-none-eabi/lib/thumb/v8-m.main+fp/fpu/libc.a(lib_a-memchr-stub.o)
 .debug_aranges
                0x0000000000000670       0x20 /home/zjian_zhang/Dplus_Z/project/realtek_amebaDplus_va0_example/GCC-RELEASE/project_km4/asdk/../toolchain/linux/asdk-10.3.1/linux/newlib/arm-none-eabi/lib/thumb/v8-m.main+fp/fpu/libc.a(lib_a-memcmp.o)
 .debug_aranges
                0x0000000000000690       0x20 /home/zjian_zhang/Dplus_Z/project/realtek_amebaDplus_va0_example/GCC-RELEASE/project_km4/asdk/../toolchain/linux/asdk-10.3.1/linux/newlib/arm-none-eabi/lib/thumb/v8-m.main+fp/fpu/libc.a(lib_a-memcpy.o)
 .debug_aranges
                0x00000000000006b0       0x20 /home/zjian_zhang/Dplus_Z/project/realtek_amebaDplus_va0_example/GCC-RELEASE/project_km4/asdk/../toolchain/linux/asdk-10.3.1/linux/newlib/arm-none-eabi/lib/thumb/v8-m.main+fp/fpu/libc.a(lib_a-memmove.o)
 .debug_aranges
                0x00000000000006d0       0x20 /home/zjian_zhang/Dplus_Z/project/realtek_amebaDplus_va0_example/GCC-RELEASE/project_km4/asdk/../toolchain/linux/asdk-10.3.1/linux/newlib/arm-none-eabi/lib/thumb/v8-m.main+fp/fpu/libc.a(lib_a-memset-stub.o)
 .debug_aranges
                0x00000000000006f0       0x20 /home/zjian_zhang/Dplus_Z/project/realtek_amebaDplus_va0_example/GCC-RELEASE/project_km4/asdk/../toolchain/linux/asdk-10.3.1/linux/newlib/arm-none-eabi/lib/thumb/v8-m.main+fp/fpu/libc.a(lib_a-mlock.o)
 .debug_aranges
                0x0000000000000710       0x20 /home/zjian_zhang/Dplus_Z/project/realtek_amebaDplus_va0_example/GCC-RELEASE/project_km4/asdk/../toolchain/linux/asdk-10.3.1/linux/newlib/arm-none-eabi/lib/thumb/v8-m.main+fp/fpu/libc.a(lib_a-mprec.o)
 .debug_aranges
                0x0000000000000730       0x20 /home/zjian_zhang/Dplus_Z/project/realtek_amebaDplus_va0_example/GCC-RELEASE/project_km4/asdk/../toolchain/linux/asdk-10.3.1/linux/newlib/arm-none-eabi/lib/thumb/v8-m.main+fp/fpu/libc.a(lib_a-readr.o)
 .debug_aranges
                0x0000000000000750       0x20 /home/zjian_zhang/Dplus_Z/project/realtek_amebaDplus_va0_example/GCC-RELEASE/project_km4/asdk/../toolchain/linux/asdk-10.3.1/linux/newlib/arm-none-eabi/lib/thumb/v8-m.main+fp/fpu/libc.a(lib_a-realloc.o)
 .debug_aranges
                0x0000000000000770       0x20 /home/zjian_zhang/Dplus_Z/project/realtek_amebaDplus_va0_example/GCC-RELEASE/project_km4/asdk/../toolchain/linux/asdk-10.3.1/linux/newlib/arm-none-eabi/lib/thumb/v8-m.main+fp/fpu/libc.a(lib_a-reallocr.o)
 .debug_aranges
                0x0000000000000790       0x20 /home/zjian_zhang/Dplus_Z/project/realtek_amebaDplus_va0_example/GCC-RELEASE/project_km4/asdk/../toolchain/linux/asdk-10.3.1/linux/newlib/arm-none-eabi/lib/thumb/v8-m.main+fp/fpu/libc.a(lib_a-reent.o)
 .debug_aranges
                0x00000000000007b0       0x20 /home/zjian_zhang/Dplus_Z/project/realtek_amebaDplus_va0_example/GCC-RELEASE/project_km4/asdk/../toolchain/linux/asdk-10.3.1/linux/newlib/arm-none-eabi/lib/thumb/v8-m.main+fp/fpu/libc.a(lib_a-sbrkr.o)
 .debug_aranges
                0x00000000000007d0       0x20 /home/zjian_zhang/Dplus_Z/project/realtek_amebaDplus_va0_example/GCC-RELEASE/project_km4/asdk/../toolchain/linux/asdk-10.3.1/linux/newlib/arm-none-eabi/lib/thumb/v8-m.main+fp/fpu/libc.a(lib_a-sccl.o)
 .debug_aranges
                0x00000000000007f0       0x20 /home/zjian_zhang/Dplus_Z/project/realtek_amebaDplus_va0_example/GCC-RELEASE/project_km4/asdk/../toolchain/linux/asdk-10.3.1/linux/newlib/arm-none-eabi/lib/thumb/v8-m.main+fp/fpu/libc.a(lib_a-sf_nan.o)
 .debug_aranges
                0x0000000000000810       0x20 /home/zjian_zhang/Dplus_Z/project/realtek_amebaDplus_va0_example/GCC-RELEASE/project_km4/asdk/../toolchain/linux/asdk-10.3.1/linux/newlib/arm-none-eabi/lib/thumb/v8-m.main+fp/fpu/libc.a(lib_a-s_frexp.o)
 .debug_aranges
                0x0000000000000830       0x20 /home/zjian_zhang/Dplus_Z/project/realtek_amebaDplus_va0_example/GCC-RELEASE/project_km4/asdk/../toolchain/linux/asdk-10.3.1/linux/newlib/arm-none-eabi/lib/thumb/v8-m.main+fp/fpu/libc.a(lib_a-strcmp.o)
 .debug_aranges
                0x0000000000000850       0x20 /home/zjian_zhang/Dplus_Z/project/realtek_amebaDplus_va0_example/GCC-RELEASE/project_km4/asdk/../toolchain/linux/asdk-10.3.1/linux/newlib/arm-none-eabi/lib/thumb/v8-m.main+fp/fpu/libc.a(lib_a-strnlen.o)
 .debug_aranges
                0x0000000000000870       0x20 /home/zjian_zhang/Dplus_Z/project/realtek_amebaDplus_va0_example/GCC-RELEASE/project_km4/asdk/../toolchain/linux/asdk-10.3.1/linux/newlib/arm-none-eabi/lib/thumb/v8-m.main+fp/fpu/libc.a(lib_a-strtod.o)
 .debug_aranges
                0x0000000000000890       0x20 /home/zjian_zhang/Dplus_Z/project/realtek_amebaDplus_va0_example/GCC-RELEASE/project_km4/asdk/../toolchain/linux/asdk-10.3.1/linux/newlib/arm-none-eabi/lib/thumb/v8-m.main+fp/fpu/libc.a(lib_a-strtoll.o)
 .debug_aranges
                0x00000000000008b0       0x20 /home/zjian_zhang/Dplus_Z/project/realtek_amebaDplus_va0_example/GCC-RELEASE/project_km4/asdk/../toolchain/linux/asdk-10.3.1/linux/newlib/arm-none-eabi/lib/thumb/v8-m.main+fp/fpu/libc.a(lib_a-strtoull.o)
 .debug_aranges
                0x00000000000008d0       0x20 /home/zjian_zhang/Dplus_Z/project/realtek_amebaDplus_va0_example/GCC-RELEASE/project_km4/asdk/../toolchain/linux/asdk-10.3.1/linux/newlib/arm-none-eabi/lib/thumb/v8-m.main+fp/fpu/libc.a(lib_a-strtoul.o)
 .debug_aranges
                0x00000000000008f0       0x20 /home/zjian_zhang/Dplus_Z/project/realtek_amebaDplus_va0_example/GCC-RELEASE/project_km4/asdk/../toolchain/linux/asdk-10.3.1/linux/newlib/arm-none-eabi/lib/thumb/v8-m.main+fp/fpu/libc.a(lib_a-svfiprintf.o)
 .debug_aranges
                0x0000000000000910       0x20 /home/zjian_zhang/Dplus_Z/project/realtek_amebaDplus_va0_example/GCC-RELEASE/project_km4/asdk/../toolchain/linux/asdk-10.3.1/linux/newlib/arm-none-eabi/lib/thumb/v8-m.main+fp/fpu/libc.a(lib_a-svfiscanf.o)
 .debug_aranges
                0x0000000000000930       0x20 /home/zjian_zhang/Dplus_Z/project/realtek_amebaDplus_va0_example/GCC-RELEASE/project_km4/asdk/../toolchain/linux/asdk-10.3.1/linux/newlib/arm-none-eabi/lib/thumb/v8-m.main+fp/fpu/libc.a(lib_a-ungetc.o)
 .debug_aranges
                0x0000000000000950       0x20 /home/zjian_zhang/Dplus_Z/project/realtek_amebaDplus_va0_example/GCC-RELEASE/project_km4/asdk/../toolchain/linux/asdk-10.3.1/linux/newlib/arm-none-eabi/lib/thumb/v8-m.main+fp/fpu/libc.a(lib_a-vfiprintf.o)
 .debug_aranges
                0x0000000000000970       0x20 /home/zjian_zhang/Dplus_Z/project/realtek_amebaDplus_va0_example/GCC-RELEASE/project_km4/asdk/../toolchain/linux/asdk-10.3.1/linux/newlib/arm-none-eabi/lib/thumb/v8-m.main+fp/fpu/libc.a(lib_a-wctomb_r.o)
 .debug_aranges
                0x0000000000000990       0x20 /home/zjian_zhang/Dplus_Z/project/realtek_amebaDplus_va0_example/GCC-RELEASE/project_km4/asdk/../toolchain/linux/asdk-10.3.1/linux/newlib/arm-none-eabi/lib/thumb/v8-m.main+fp/fpu/libc.a(lib_a-assert.o)
 .debug_aranges
                0x00000000000009b0       0x20 /home/zjian_zhang/Dplus_Z/project/realtek_amebaDplus_va0_example/GCC-RELEASE/project_km4/asdk/../toolchain/linux/asdk-10.3.1/linux/newlib/arm-none-eabi/lib/thumb/v8-m.main+fp/fpu/libc.a(lib_a-callocr.o)
 .debug_aranges
                0x00000000000009d0       0x20 /home/zjian_zhang/Dplus_Z/project/realtek_amebaDplus_va0_example/GCC-RELEASE/project_km4/asdk/../toolchain/linux/asdk-10.3.1/linux/newlib/arm-none-eabi/lib/thumb/v8-m.main+fp/fpu/libc.a(lib_a-fclose.o)
 .debug_aranges
                0x00000000000009f0       0x20 /home/zjian_zhang/Dplus_Z/project/realtek_amebaDplus_va0_example/GCC-RELEASE/project_km4/asdk/../toolchain/linux/asdk-10.3.1/linux/newlib/arm-none-eabi/lib/thumb/v8-m.main+fp/fpu/libc.a(lib_a-fiprintf.o)
 .debug_aranges
                0x0000000000000a10       0x20 /home/zjian_zhang/Dplus_Z/project/realtek_amebaDplus_va0_example/GCC-RELEASE/project_km4/asdk/../toolchain/linux/asdk-10.3.1/linux/newlib/arm-none-eabi/lib/thumb/v8-m.main+fp/fpu/libc.a(lib_a-fputwc.o)
 .debug_aranges
                0x0000000000000a30       0x20 /home/zjian_zhang/Dplus_Z/project/realtek_amebaDplus_va0_example/GCC-RELEASE/project_km4/asdk/../toolchain/linux/asdk-10.3.1/linux/newlib/arm-none-eabi/lib/thumb/v8-m.main+fp/fpu/libc.a(lib_a-fstatr.o)
 .debug_aranges
                0x0000000000000a50       0x20 /home/zjian_zhang/Dplus_Z/project/realtek_amebaDplus_va0_example/GCC-RELEASE/project_km4/asdk/../toolchain/linux/asdk-10.3.1/linux/newlib/arm-none-eabi/lib/thumb/v8-m.main+fp/fpu/libc.a(lib_a-gdtoa-gethex.o)
 .debug_aranges
                0x0000000000000a70       0x20 /home/zjian_zhang/Dplus_Z/project/realtek_amebaDplus_va0_example/GCC-RELEASE/project_km4/asdk/../toolchain/linux/asdk-10.3.1/linux/newlib/arm-none-eabi/lib/thumb/v8-m.main+fp/fpu/libc.a(lib_a-gdtoa-hexnan.o)
 .debug_aranges
                0x0000000000000a90       0x20 /home/zjian_zhang/Dplus_Z/project/realtek_amebaDplus_va0_example/GCC-RELEASE/project_km4/asdk/../toolchain/linux/asdk-10.3.1/linux/newlib/arm-none-eabi/lib/thumb/v8-m.main+fp/fpu/libc.a(lib_a-isattyr.o)
 .debug_aranges
                0x0000000000000ab0       0x20 /home/zjian_zhang/Dplus_Z/project/realtek_amebaDplus_va0_example/GCC-RELEASE/project_km4/asdk/../toolchain/linux/asdk-10.3.1/linux/newlib/arm-none-eabi/lib/thumb/v8-m.main+fp/fpu/libc.a(lib_a-iswspace_l.o)
 .debug_aranges
                0x0000000000000ad0       0x20 /home/zjian_zhang/Dplus_Z/project/realtek_amebaDplus_va0_example/GCC-RELEASE/project_km4/asdk/../toolchain/linux/asdk-10.3.1/linux/newlib/arm-none-eabi/lib/thumb/v8-m.main+fp/fpu/libc.a(lib_a-lnumeric.o)
 .debug_aranges
                0x0000000000000af0       0x20 /home/zjian_zhang/Dplus_Z/project/realtek_amebaDplus_va0_example/GCC-RELEASE/project_km4/asdk/../toolchain/linux/asdk-10.3.1/linux/newlib/arm-none-eabi/lib/thumb/v8-m.main+fp/fpu/libc.a(lib_a-s_nan.o)
 .debug_aranges
                0x0000000000000b10       0x20 /home/zjian_zhang/Dplus_Z/project/realtek_amebaDplus_va0_example/GCC-RELEASE/project_km4/asdk/../toolchain/linux/asdk-10.3.1/linux/newlib/arm-none-eabi/lib/thumb/v8-m.main+fp/fpu/libc.a(lib_a-wcrtomb.o)
 .debug_aranges
                0x0000000000000b30       0x20 /home/zjian_zhang/Dplus_Z/project/realtek_amebaDplus_va0_example/GCC-RELEASE/project_km4/asdk/../toolchain/linux/asdk-10.3.1/linux/newlib/arm-none-eabi/lib/thumb/v8-m.main+fp/fpu/libc.a(lib_a-abort.o)
 .debug_aranges
                0x0000000000000b50       0x20 /home/zjian_zhang/Dplus_Z/project/realtek_amebaDplus_va0_example/GCC-RELEASE/project_km4/asdk/../toolchain/linux/asdk-10.3.1/linux/newlib/arm-none-eabi/lib/thumb/v8-m.main+fp/fpu/libc.a(lib_a-signal.o)
 .debug_aranges
                0x0000000000000b70       0x20 /home/zjian_zhang/Dplus_Z/project/realtek_amebaDplus_va0_example/GCC-RELEASE/project_km4/asdk/../toolchain/linux/asdk-10.3.1/linux/newlib/arm-none-eabi/lib/thumb/v8-m.main+fp/fpu/libc.a(lib_a-signalr.o)
 .debug_aranges
                0x0000000000000b90       0x20 /home/zjian_zhang/Dplus_Z/project/realtek_amebaDplus_va0_example/GCC-RELEASE/project_km4/asdk/../toolchain/linux/asdk-10.3.1/linux/newlib/lib/gcc/arm-none-eabi/10.3.1/thumb/v8-m.main+fp/fpu/libgcc.a(_arm_muldf3.o)
 .debug_aranges
                0x0000000000000bb0       0x20 /home/zjian_zhang/Dplus_Z/project/realtek_amebaDplus_va0_example/GCC-RELEASE/project_km4/asdk/../toolchain/linux/asdk-10.3.1/linux/newlib/lib/gcc/arm-none-eabi/10.3.1/thumb/v8-m.main+fp/fpu/libgcc.a(_arm_addsubdf3.o)
 .debug_aranges
                0x0000000000000bd0       0x20 /home/zjian_zhang/Dplus_Z/project/realtek_amebaDplus_va0_example/GCC-RELEASE/project_km4/asdk/../toolchain/linux/asdk-10.3.1/linux/newlib/lib/gcc/arm-none-eabi/10.3.1/thumb/v8-m.main+fp/fpu/libgcc.a(_arm_muldivdf3.o)
 .debug_aranges
                0x0000000000000bf0       0x20 /home/zjian_zhang/Dplus_Z/project/realtek_amebaDplus_va0_example/GCC-RELEASE/project_km4/asdk/../toolchain/linux/asdk-10.3.1/linux/newlib/lib/gcc/arm-none-eabi/10.3.1/thumb/v8-m.main+fp/fpu/libgcc.a(_arm_cmpdf2.o)
 .debug_aranges
                0x0000000000000c10       0x20 /home/zjian_zhang/Dplus_Z/project/realtek_amebaDplus_va0_example/GCC-RELEASE/project_km4/asdk/../toolchain/linux/asdk-10.3.1/linux/newlib/lib/gcc/arm-none-eabi/10.3.1/thumb/v8-m.main+fp/fpu/libgcc.a(_arm_unorddf2.o)
 .debug_aranges
                0x0000000000000c30       0x20 /home/zjian_zhang/Dplus_Z/project/realtek_amebaDplus_va0_example/GCC-RELEASE/project_km4/asdk/../toolchain/linux/asdk-10.3.1/linux/newlib/lib/gcc/arm-none-eabi/10.3.1/thumb/v8-m.main+fp/fpu/libgcc.a(_arm_fixdfsi.o)
 .debug_aranges
                0x0000000000000c50       0x20 /home/zjian_zhang/Dplus_Z/project/realtek_amebaDplus_va0_example/GCC-RELEASE/project_km4/asdk/../toolchain/linux/asdk-10.3.1/linux/newlib/lib/gcc/arm-none-eabi/10.3.1/thumb/v8-m.main+fp/fpu/libgcc.a(_arm_fixunsdfsi.o)
 .debug_aranges
                0x0000000000000c70       0x20 /home/zjian_zhang/Dplus_Z/project/realtek_amebaDplus_va0_example/GCC-RELEASE/project_km4/asdk/../toolchain/linux/asdk-10.3.1/linux/newlib/lib/gcc/arm-none-eabi/10.3.1/thumb/v8-m.main+fp/fpu/libgcc.a(_arm_truncdfsf2.o)
 .debug_aranges
                0x0000000000000c90       0x20 /home/zjian_zhang/Dplus_Z/project/realtek_amebaDplus_va0_example/GCC-RELEASE/project_km4/asdk/../toolchain/linux/asdk-10.3.1/linux/newlib/lib/gcc/arm-none-eabi/10.3.1/thumb/v8-m.main+fp/fpu/libgcc.a(_aeabi_uldivmod.o)
 .debug_aranges
                0x0000000000000cb0       0x20 /home/zjian_zhang/Dplus_Z/project/realtek_amebaDplus_va0_example/GCC-RELEASE/project_km4/asdk/../toolchain/linux/asdk-10.3.1/linux/newlib/lib/gcc/arm-none-eabi/10.3.1/thumb/v8-m.main+fp/fpu/libgcc.a(_fixdfdi.o)
 .debug_aranges
                0x0000000000000cd0       0x20 /home/zjian_zhang/Dplus_Z/project/realtek_amebaDplus_va0_example/GCC-RELEASE/project_km4/asdk/../toolchain/linux/asdk-10.3.1/linux/newlib/lib/gcc/arm-none-eabi/10.3.1/thumb/v8-m.main+fp/fpu/libgcc.a(_fixunsdfdi.o)
 .debug_aranges
                0x0000000000000cf0       0x20 /home/zjian_zhang/Dplus_Z/project/realtek_amebaDplus_va0_example/GCC-RELEASE/project_km4/asdk/../toolchain/linux/asdk-10.3.1/linux/newlib/lib/gcc/arm-none-eabi/10.3.1/thumb/v8-m.main+fp/fpu/libgcc.a(_udivmoddi4.o)
 .debug_aranges
                0x0000000000000d10       0x20 /home/zjian_zhang/Dplus_Z/project/realtek_amebaDplus_va0_example/GCC-RELEASE/project_km4/asdk/../toolchain/linux/asdk-10.3.1/linux/newlib/lib/gcc/arm-none-eabi/10.3.1/thumb/v8-m.main+fp/fpu/libgcc.a(_dvmd_tls.o)
 .debug_aranges
                0x0000000000000d30       0x20 /home/zjian_zhang/Dplus_Z/project/realtek_amebaDplus_va0_example/GCC-RELEASE/project_km4/asdk/../toolchain/linux/asdk-10.3.1/linux/newlib/arm-none-eabi/lib/thumb/v8-m.main+fp/fpu/libnosys.a(close.o)
 .debug_aranges
                0x0000000000000d50       0x20 /home/zjian_zhang/Dplus_Z/project/realtek_amebaDplus_va0_example/GCC-RELEASE/project_km4/asdk/../toolchain/linux/asdk-10.3.1/linux/newlib/arm-none-eabi/lib/thumb/v8-m.main+fp/fpu/libnosys.a(fstat.o)
 .debug_aranges
                0x0000000000000d70       0x20 /home/zjian_zhang/Dplus_Z/project/realtek_amebaDplus_va0_example/GCC-RELEASE/project_km4/asdk/../toolchain/linux/asdk-10.3.1/linux/newlib/arm-none-eabi/lib/thumb/v8-m.main+fp/fpu/libnosys.a(getpid.o)
 .debug_aranges
                0x0000000000000d90       0x20 /home/zjian_zhang/Dplus_Z/project/realtek_amebaDplus_va0_example/GCC-RELEASE/project_km4/asdk/../toolchain/linux/asdk-10.3.1/linux/newlib/arm-none-eabi/lib/thumb/v8-m.main+fp/fpu/libnosys.a(isatty.o)
 .debug_aranges
                0x0000000000000db0       0x20 /home/zjian_zhang/Dplus_Z/project/realtek_amebaDplus_va0_example/GCC-RELEASE/project_km4/asdk/../toolchain/linux/asdk-10.3.1/linux/newlib/arm-none-eabi/lib/thumb/v8-m.main+fp/fpu/libnosys.a(kill.o)
 .debug_aranges
                0x0000000000000dd0       0x20 /home/zjian_zhang/Dplus_Z/project/realtek_amebaDplus_va0_example/GCC-RELEASE/project_km4/asdk/../toolchain/linux/asdk-10.3.1/linux/newlib/arm-none-eabi/lib/thumb/v8-m.main+fp/fpu/libnosys.a(lseek.o)
 .debug_aranges
                0x0000000000000df0       0x20 /home/zjian_zhang/Dplus_Z/project/realtek_amebaDplus_va0_example/GCC-RELEASE/project_km4/asdk/../toolchain/linux/asdk-10.3.1/linux/newlib/arm-none-eabi/lib/thumb/v8-m.main+fp/fpu/libnosys.a(sbrk.o)
 .debug_aranges
                0x0000000000000e10       0x20 /home/zjian_zhang/Dplus_Z/project/realtek_amebaDplus_va0_example/GCC-RELEASE/project_km4/asdk/../toolchain/linux/asdk-10.3.1/linux/newlib/arm-none-eabi/lib/thumb/v8-m.main+fp/fpu/libnosys.a(_exit.o)

.debug_ranges   0x0000000000000000      0xdb8
 .debug_ranges  0x0000000000000000       0x18 ./build/stdlib/stdlib_link.o
 .debug_ranges  0x0000000000000018       0x30 /home/zjian_zhang/Dplus_Z/project/realtek_amebaDplus_va0_example/GCC-RELEASE/project_km4/asdk/../toolchain/linux/asdk-10.3.1/linux/newlib/arm-none-eabi/lib/thumb/v8-m.main+fp/fpu/libc.a(lib_a-putc.o)
 .debug_ranges  0x0000000000000048       0x10 /home/zjian_zhang/Dplus_Z/project/realtek_amebaDplus_va0_example/GCC-RELEASE/project_km4/asdk/../toolchain/linux/asdk-10.3.1/linux/newlib/arm-none-eabi/lib/thumb/v8-m.main+fp/fpu/libc.a(lib_a-strcpy.o)
 .debug_ranges  0x0000000000000058       0x10 /home/zjian_zhang/Dplus_Z/project/realtek_amebaDplus_va0_example/GCC-RELEASE/project_km4/asdk/../toolchain/linux/asdk-10.3.1/linux/newlib/arm-none-eabi/lib/thumb/v8-m.main+fp/fpu/libc.a(lib_a-strlen-stub.o)
 .debug_ranges  0x0000000000000068      0x100 /home/zjian_zhang/Dplus_Z/project/realtek_amebaDplus_va0_example/GCC-RELEASE/project_km4/asdk/../toolchain/linux/asdk-10.3.1/linux/newlib/arm-none-eabi/lib/thumb/v8-m.main+fp/fpu/libc.a(lib_a-strstr.o)
 .debug_ranges  0x0000000000000168       0x18 /home/zjian_zhang/Dplus_Z/project/realtek_amebaDplus_va0_example/GCC-RELEASE/project_km4/asdk/../toolchain/linux/asdk-10.3.1/linux/newlib/arm-none-eabi/lib/thumb/v8-m.main+fp/fpu/libc.a(lib_a-strtol.o)
 .debug_ranges  0x0000000000000180       0xf8 /home/zjian_zhang/Dplus_Z/project/realtek_amebaDplus_va0_example/GCC-RELEASE/project_km4/asdk/../toolchain/linux/asdk-10.3.1/linux/newlib/arm-none-eabi/lib/thumb/v8-m.main+fp/fpu/libc.a(lib_a-svfprintf.o)
 .debug_ranges  0x0000000000000278      0x260 /home/zjian_zhang/Dplus_Z/project/realtek_amebaDplus_va0_example/GCC-RELEASE/project_km4/asdk/../toolchain/linux/asdk-10.3.1/linux/newlib/arm-none-eabi/lib/thumb/v8-m.main+fp/fpu/libc.a(lib_a-svfscanf.o)
 .debug_ranges  0x00000000000004d8       0xe8 /home/zjian_zhang/Dplus_Z/project/realtek_amebaDplus_va0_example/GCC-RELEASE/project_km4/asdk/../toolchain/linux/asdk-10.3.1/linux/newlib/arm-none-eabi/lib/thumb/v8-m.main+fp/fpu/libc.a(lib_a-vfprintf.o)
 .debug_ranges  0x00000000000005c0       0x18 /home/zjian_zhang/Dplus_Z/project/realtek_amebaDplus_va0_example/GCC-RELEASE/project_km4/asdk/../toolchain/linux/asdk-10.3.1/linux/newlib/arm-none-eabi/lib/thumb/v8-m.main+fp/fpu/libc.a(lib_a-wbuf.o)
 .debug_ranges  0x00000000000005d8       0x20 /home/zjian_zhang/Dplus_Z/project/realtek_amebaDplus_va0_example/GCC-RELEASE/project_km4/asdk/../toolchain/linux/asdk-10.3.1/linux/newlib/arm-none-eabi/lib/thumb/v8-m.main+fp/fpu/libc.a(lib_a-wsetup.o)
 .debug_ranges  0x00000000000005f8       0x30 /home/zjian_zhang/Dplus_Z/project/realtek_amebaDplus_va0_example/GCC-RELEASE/project_km4/asdk/../toolchain/linux/asdk-10.3.1/linux/newlib/arm-none-eabi/lib/thumb/v8-m.main+fp/fpu/libc.a(lib_a-dtoa.o)
 .debug_ranges  0x0000000000000628       0x48 /home/zjian_zhang/Dplus_Z/project/realtek_amebaDplus_va0_example/GCC-RELEASE/project_km4/asdk/../toolchain/linux/asdk-10.3.1/linux/newlib/arm-none-eabi/lib/thumb/v8-m.main+fp/fpu/libc.a(lib_a-fflush.o)
 .debug_ranges  0x0000000000000670       0x30 /home/zjian_zhang/Dplus_Z/project/realtek_amebaDplus_va0_example/GCC-RELEASE/project_km4/asdk/../toolchain/linux/asdk-10.3.1/linux/newlib/arm-none-eabi/lib/thumb/v8-m.main+fp/fpu/libc.a(lib_a-findfp.o)
 .debug_ranges  0x00000000000006a0       0x30 /home/zjian_zhang/Dplus_Z/project/realtek_amebaDplus_va0_example/GCC-RELEASE/project_km4/asdk/../toolchain/linux/asdk-10.3.1/linux/newlib/arm-none-eabi/lib/thumb/v8-m.main+fp/fpu/libc.a(lib_a-fvwrite.o)
 .debug_ranges  0x00000000000006d0       0x18 /home/zjian_zhang/Dplus_Z/project/realtek_amebaDplus_va0_example/GCC-RELEASE/project_km4/asdk/../toolchain/linux/asdk-10.3.1/linux/newlib/arm-none-eabi/lib/thumb/v8-m.main+fp/fpu/libc.a(lib_a-makebuf.o)
 .debug_ranges  0x00000000000006e8       0x20 /home/zjian_zhang/Dplus_Z/project/realtek_amebaDplus_va0_example/GCC-RELEASE/project_km4/asdk/../toolchain/linux/asdk-10.3.1/linux/newlib/arm-none-eabi/lib/thumb/v8-m.main+fp/fpu/libc.a(lib_a-mallocr.o)
 .debug_ranges  0x0000000000000708       0xb0 /home/zjian_zhang/Dplus_Z/project/realtek_amebaDplus_va0_example/GCC-RELEASE/project_km4/asdk/../toolchain/linux/asdk-10.3.1/linux/newlib/arm-none-eabi/lib/thumb/v8-m.main+fp/fpu/libc.a(lib_a-mprec.o)
 .debug_ranges  0x00000000000007b8      0x100 /home/zjian_zhang/Dplus_Z/project/realtek_amebaDplus_va0_example/GCC-RELEASE/project_km4/asdk/../toolchain/linux/asdk-10.3.1/linux/newlib/arm-none-eabi/lib/thumb/v8-m.main+fp/fpu/libc.a(lib_a-reallocr.o)
 .debug_ranges  0x00000000000008b8       0x20 /home/zjian_zhang/Dplus_Z/project/realtek_amebaDplus_va0_example/GCC-RELEASE/project_km4/asdk/../toolchain/linux/asdk-10.3.1/linux/newlib/arm-none-eabi/lib/thumb/v8-m.main+fp/fpu/libc.a(lib_a-reent.o)
 .debug_ranges  0x00000000000008d8       0x10 /home/zjian_zhang/Dplus_Z/project/realtek_amebaDplus_va0_example/GCC-RELEASE/project_km4/asdk/../toolchain/linux/asdk-10.3.1/linux/newlib/arm-none-eabi/lib/thumb/v8-m.main+fp/fpu/libc.a(lib_a-sccl.o)
 .debug_ranges  0x00000000000008e8       0x58 /home/zjian_zhang/Dplus_Z/project/realtek_amebaDplus_va0_example/GCC-RELEASE/project_km4/asdk/../toolchain/linux/asdk-10.3.1/linux/newlib/arm-none-eabi/lib/thumb/v8-m.main+fp/fpu/libc.a(lib_a-s_frexp.o)
 .debug_ranges  0x0000000000000940       0xc0 /home/zjian_zhang/Dplus_Z/project/realtek_amebaDplus_va0_example/GCC-RELEASE/project_km4/asdk/../toolchain/linux/asdk-10.3.1/linux/newlib/arm-none-eabi/lib/thumb/v8-m.main+fp/fpu/libc.a(lib_a-strtod.o)
 .debug_ranges  0x0000000000000a00       0x28 /home/zjian_zhang/Dplus_Z/project/realtek_amebaDplus_va0_example/GCC-RELEASE/project_km4/asdk/../toolchain/linux/asdk-10.3.1/linux/newlib/arm-none-eabi/lib/thumb/v8-m.main+fp/fpu/libc.a(lib_a-svfiprintf.o)
 .debug_ranges  0x0000000000000a28      0x1f0 /home/zjian_zhang/Dplus_Z/project/realtek_amebaDplus_va0_example/GCC-RELEASE/project_km4/asdk/../toolchain/linux/asdk-10.3.1/linux/newlib/arm-none-eabi/lib/thumb/v8-m.main+fp/fpu/libc.a(lib_a-svfiscanf.o)
 .debug_ranges  0x0000000000000c18       0x30 /home/zjian_zhang/Dplus_Z/project/realtek_amebaDplus_va0_example/GCC-RELEASE/project_km4/asdk/../toolchain/linux/asdk-10.3.1/linux/newlib/arm-none-eabi/lib/thumb/v8-m.main+fp/fpu/libc.a(lib_a-vfiprintf.o)
 .debug_ranges  0x0000000000000c48       0x30 /home/zjian_zhang/Dplus_Z/project/realtek_amebaDplus_va0_example/GCC-RELEASE/project_km4/asdk/../toolchain/linux/asdk-10.3.1/linux/newlib/arm-none-eabi/lib/thumb/v8-m.main+fp/fpu/libc.a(lib_a-callocr.o)
 .debug_ranges  0x0000000000000c78       0x38 /home/zjian_zhang/Dplus_Z/project/realtek_amebaDplus_va0_example/GCC-RELEASE/project_km4/asdk/../toolchain/linux/asdk-10.3.1/linux/newlib/arm-none-eabi/lib/thumb/v8-m.main+fp/fpu/libc.a(lib_a-fputwc.o)
 .debug_ranges  0x0000000000000cb0       0x50 /home/zjian_zhang/Dplus_Z/project/realtek_amebaDplus_va0_example/GCC-RELEASE/project_km4/asdk/../toolchain/linux/asdk-10.3.1/linux/newlib/arm-none-eabi/lib/thumb/v8-m.main+fp/fpu/libc.a(lib_a-gdtoa-gethex.o)
 .debug_ranges  0x0000000000000d00       0x18 /home/zjian_zhang/Dplus_Z/project/realtek_amebaDplus_va0_example/GCC-RELEASE/project_km4/asdk/../toolchain/linux/asdk-10.3.1/linux/newlib/arm-none-eabi/lib/thumb/v8-m.main+fp/fpu/libc.a(lib_a-signal.o)
 .debug_ranges  0x0000000000000d18       0xa0 /home/zjian_zhang/Dplus_Z/project/realtek_amebaDplus_va0_example/GCC-RELEASE/project_km4/asdk/../toolchain/linux/asdk-10.3.1/linux/newlib/lib/gcc/arm-none-eabi/10.3.1/thumb/v8-m.main+fp/fpu/libgcc.a(_udivmoddi4.o)

.debug_line     0x0000000000000000    0x1f70d
 .debug_line    0x0000000000000000      0x9af ./build/stdlib/stdlib_link.o
 .debug_line    0x00000000000009af      0x282 /home/zjian_zhang/Dplus_Z/project/realtek_amebaDplus_va0_example/GCC-RELEASE/project_km4/asdk/../toolchain/linux/asdk-10.3.1/linux/newlib/arm-none-eabi/lib/thumb/v8-m.main+fp/fpu/libc.a(lib_a-atoi.o)
 .debug_line    0x0000000000000c31      0x2eb /home/zjian_zhang/Dplus_Z/project/realtek_amebaDplus_va0_example/GCC-RELEASE/project_km4/asdk/../toolchain/linux/asdk-10.3.1/linux/newlib/arm-none-eabi/lib/thumb/v8-m.main+fp/fpu/libc.a(lib_a-printf.o)
 .debug_line    0x0000000000000f1c      0x29a /home/zjian_zhang/Dplus_Z/project/realtek_amebaDplus_va0_example/GCC-RELEASE/project_km4/asdk/../toolchain/linux/asdk-10.3.1/linux/newlib/arm-none-eabi/lib/thumb/v8-m.main+fp/fpu/libc.a(lib_a-putchar.o)
 .debug_line    0x00000000000011b6      0x32c /home/zjian_zhang/Dplus_Z/project/realtek_amebaDplus_va0_example/GCC-RELEASE/project_km4/asdk/../toolchain/linux/asdk-10.3.1/linux/newlib/arm-none-eabi/lib/thumb/v8-m.main+fp/fpu/libc.a(lib_a-putc.o)
 .debug_line    0x00000000000014e2      0x37a /home/zjian_zhang/Dplus_Z/project/realtek_amebaDplus_va0_example/GCC-RELEASE/project_km4/asdk/../toolchain/linux/asdk-10.3.1/linux/newlib/arm-none-eabi/lib/thumb/v8-m.main+fp/fpu/libc.a(lib_a-puts.o)
 .debug_line    0x000000000000185c      0x3bd /home/zjian_zhang/Dplus_Z/project/realtek_amebaDplus_va0_example/GCC-RELEASE/project_km4/asdk/../toolchain/linux/asdk-10.3.1/linux/newlib/arm-none-eabi/lib/thumb/v8-m.main+fp/fpu/libc.a(lib_a-snprintf.o)
 .debug_line    0x0000000000001c19      0x347 /home/zjian_zhang/Dplus_Z/project/realtek_amebaDplus_va0_example/GCC-RELEASE/project_km4/asdk/../toolchain/linux/asdk-10.3.1/linux/newlib/arm-none-eabi/lib/thumb/v8-m.main+fp/fpu/libc.a(lib_a-sprintf.o)
 .debug_line    0x0000000000001f60      0x394 /home/zjian_zhang/Dplus_Z/project/realtek_amebaDplus_va0_example/GCC-RELEASE/project_km4/asdk/../toolchain/linux/asdk-10.3.1/linux/newlib/arm-none-eabi/lib/thumb/v8-m.main+fp/fpu/libc.a(lib_a-sscanf.o)
 .debug_line    0x00000000000022f4      0x372 /home/zjian_zhang/Dplus_Z/project/realtek_amebaDplus_va0_example/GCC-RELEASE/project_km4/asdk/../toolchain/linux/asdk-10.3.1/linux/newlib/arm-none-eabi/lib/thumb/v8-m.main+fp/fpu/libc.a(lib_a-stdio.o)
 .debug_line    0x0000000000002666      0x15c /home/zjian_zhang/Dplus_Z/project/realtek_amebaDplus_va0_example/GCC-RELEASE/project_km4/asdk/../toolchain/linux/asdk-10.3.1/linux/newlib/arm-none-eabi/lib/thumb/v8-m.main+fp/fpu/libc.a(lib_a-strcat.o)
 .debug_line    0x00000000000027c2      0x1d3 /home/zjian_zhang/Dplus_Z/project/realtek_amebaDplus_va0_example/GCC-RELEASE/project_km4/asdk/../toolchain/linux/asdk-10.3.1/linux/newlib/arm-none-eabi/lib/thumb/v8-m.main+fp/fpu/libc.a(lib_a-strchr.o)
 .debug_line    0x0000000000002995      0x131 /home/zjian_zhang/Dplus_Z/project/realtek_amebaDplus_va0_example/GCC-RELEASE/project_km4/asdk/../toolchain/linux/asdk-10.3.1/linux/newlib/arm-none-eabi/lib/thumb/v8-m.main+fp/fpu/libc.a(lib_a-strcpy.o)
 .debug_line    0x0000000000002ac6      0x1ec /home/zjian_zhang/Dplus_Z/project/realtek_amebaDplus_va0_example/GCC-RELEASE/project_km4/asdk/../toolchain/linux/asdk-10.3.1/linux/newlib/arm-none-eabi/lib/thumb/v8-m.main+fp/fpu/libc.a(lib_a-strlen-stub.o)
 .debug_line    0x0000000000002cb2      0x239 /home/zjian_zhang/Dplus_Z/project/realtek_amebaDplus_va0_example/GCC-RELEASE/project_km4/asdk/../toolchain/linux/asdk-10.3.1/linux/newlib/arm-none-eabi/lib/thumb/v8-m.main+fp/fpu/libc.a(lib_a-strncat.o)
 .debug_line    0x0000000000002eeb      0x25f /home/zjian_zhang/Dplus_Z/project/realtek_amebaDplus_va0_example/GCC-RELEASE/project_km4/asdk/../toolchain/linux/asdk-10.3.1/linux/newlib/arm-none-eabi/lib/thumb/v8-m.main+fp/fpu/libc.a(lib_a-strncmp.o)
 .debug_line    0x000000000000314a      0x25b /home/zjian_zhang/Dplus_Z/project/realtek_amebaDplus_va0_example/GCC-RELEASE/project_km4/asdk/../toolchain/linux/asdk-10.3.1/linux/newlib/arm-none-eabi/lib/thumb/v8-m.main+fp/fpu/libc.a(lib_a-strncpy.o)
 .debug_line    0x00000000000033a5      0x169 /home/zjian_zhang/Dplus_Z/project/realtek_amebaDplus_va0_example/GCC-RELEASE/project_km4/asdk/../toolchain/linux/asdk-10.3.1/linux/newlib/arm-none-eabi/lib/thumb/v8-m.main+fp/fpu/libc.a(lib_a-strpbrk.o)
 .debug_line    0x000000000000350e      0x12b /home/zjian_zhang/Dplus_Z/project/realtek_amebaDplus_va0_example/GCC-RELEASE/project_km4/asdk/../toolchain/linux/asdk-10.3.1/linux/newlib/arm-none-eabi/lib/thumb/v8-m.main+fp/fpu/libc.a(lib_a-strsep.o)
 .debug_line    0x0000000000003639      0x8a3 /home/zjian_zhang/Dplus_Z/project/realtek_amebaDplus_va0_example/GCC-RELEASE/project_km4/asdk/../toolchain/linux/asdk-10.3.1/linux/newlib/arm-none-eabi/lib/thumb/v8-m.main+fp/fpu/libc.a(lib_a-strstr.o)
 .debug_line    0x0000000000003edc      0x27f /home/zjian_zhang/Dplus_Z/project/realtek_amebaDplus_va0_example/GCC-RELEASE/project_km4/asdk/../toolchain/linux/asdk-10.3.1/linux/newlib/arm-none-eabi/lib/thumb/v8-m.main+fp/fpu/libc.a(lib_a-strtok.o)
 .debug_line    0x000000000000415b      0x216 /home/zjian_zhang/Dplus_Z/project/realtek_amebaDplus_va0_example/GCC-RELEASE/project_km4/asdk/../toolchain/linux/asdk-10.3.1/linux/newlib/arm-none-eabi/lib/thumb/v8-m.main+fp/fpu/libc.a(lib_a-strtok_r.o)
 .debug_line    0x0000000000004371      0x531 /home/zjian_zhang/Dplus_Z/project/realtek_amebaDplus_va0_example/GCC-RELEASE/project_km4/asdk/../toolchain/linux/asdk-10.3.1/linux/newlib/arm-none-eabi/lib/thumb/v8-m.main+fp/fpu/libc.a(lib_a-strtol.o)
 .debug_line    0x00000000000048a2     0x19ef /home/zjian_zhang/Dplus_Z/project/realtek_amebaDplus_va0_example/GCC-RELEASE/project_km4/asdk/../toolchain/linux/asdk-10.3.1/linux/newlib/arm-none-eabi/lib/thumb/v8-m.main+fp/fpu/libc.a(lib_a-svfprintf.o)
 .debug_line    0x0000000000006291     0x1a8b /home/zjian_zhang/Dplus_Z/project/realtek_amebaDplus_va0_example/GCC-RELEASE/project_km4/asdk/../toolchain/linux/asdk-10.3.1/linux/newlib/arm-none-eabi/lib/thumb/v8-m.main+fp/fpu/libc.a(lib_a-svfscanf.o)
 .debug_line    0x0000000000007d1c     0x1b92 /home/zjian_zhang/Dplus_Z/project/realtek_amebaDplus_va0_example/GCC-RELEASE/project_km4/asdk/../toolchain/linux/asdk-10.3.1/linux/newlib/arm-none-eabi/lib/thumb/v8-m.main+fp/fpu/libc.a(lib_a-vfprintf.o)
 .debug_line    0x00000000000098ae      0x32b /home/zjian_zhang/Dplus_Z/project/realtek_amebaDplus_va0_example/GCC-RELEASE/project_km4/asdk/../toolchain/linux/asdk-10.3.1/linux/newlib/arm-none-eabi/lib/thumb/v8-m.main+fp/fpu/libc.a(lib_a-vsnprintf.o)
 .debug_line    0x0000000000009bd9      0x38b /home/zjian_zhang/Dplus_Z/project/realtek_amebaDplus_va0_example/GCC-RELEASE/project_km4/asdk/../toolchain/linux/asdk-10.3.1/linux/newlib/arm-none-eabi/lib/thumb/v8-m.main+fp/fpu/libc.a(lib_a-wbuf.o)
 .debug_line    0x0000000000009f64      0x2b3 /home/zjian_zhang/Dplus_Z/project/realtek_amebaDplus_va0_example/GCC-RELEASE/project_km4/asdk/../toolchain/linux/asdk-10.3.1/linux/newlib/arm-none-eabi/lib/thumb/v8-m.main+fp/fpu/libc.a(lib_a-writer.o)
 .debug_line    0x000000000000a217      0x3a3 /home/zjian_zhang/Dplus_Z/project/realtek_amebaDplus_va0_example/GCC-RELEASE/project_km4/asdk/../toolchain/linux/asdk-10.3.1/linux/newlib/arm-none-eabi/lib/thumb/v8-m.main+fp/fpu/libc.a(lib_a-wsetup.o)
 .debug_line    0x000000000000a5ba      0x2b3 /home/zjian_zhang/Dplus_Z/project/realtek_amebaDplus_va0_example/GCC-RELEASE/project_km4/asdk/../toolchain/linux/asdk-10.3.1/linux/newlib/arm-none-eabi/lib/thumb/v8-m.main+fp/fpu/libc.a(lib_a-closer.o)
 .debug_line    0x000000000000a86d       0x96 /home/zjian_zhang/Dplus_Z/project/realtek_amebaDplus_va0_example/GCC-RELEASE/project_km4/asdk/../toolchain/linux/asdk-10.3.1/linux/newlib/arm-none-eabi/lib/thumb/v8-m.main+fp/fpu/libc.a(lib_a-ctype_.o)
 .debug_line    0x000000000000a903     0x139b /home/zjian_zhang/Dplus_Z/project/realtek_amebaDplus_va0_example/GCC-RELEASE/project_km4/asdk/../toolchain/linux/asdk-10.3.1/linux/newlib/arm-none-eabi/lib/thumb/v8-m.main+fp/fpu/libc.a(lib_a-dtoa.o)
 .debug_line    0x000000000000bc9e      0x201 /home/zjian_zhang/Dplus_Z/project/realtek_amebaDplus_va0_example/GCC-RELEASE/project_km4/asdk/../toolchain/linux/asdk-10.3.1/linux/newlib/arm-none-eabi/lib/thumb/v8-m.main+fp/fpu/libc.a(lib_a-errno.o)
 .debug_line    0x000000000000be9f      0x523 /home/zjian_zhang/Dplus_Z/project/realtek_amebaDplus_va0_example/GCC-RELEASE/project_km4/asdk/../toolchain/linux/asdk-10.3.1/linux/newlib/arm-none-eabi/lib/thumb/v8-m.main+fp/fpu/libc.a(lib_a-fflush.o)
 .debug_line    0x000000000000c3c2      0x5f4 /home/zjian_zhang/Dplus_Z/project/realtek_amebaDplus_va0_example/GCC-RELEASE/project_km4/asdk/../toolchain/linux/asdk-10.3.1/linux/newlib/arm-none-eabi/lib/thumb/v8-m.main+fp/fpu/libc.a(lib_a-findfp.o)
 .debug_line    0x000000000000c9b6      0x278 /home/zjian_zhang/Dplus_Z/project/realtek_amebaDplus_va0_example/GCC-RELEASE/project_km4/asdk/../toolchain/linux/asdk-10.3.1/linux/newlib/arm-none-eabi/lib/thumb/v8-m.main+fp/fpu/libc.a(lib_a-free.o)
 .debug_line    0x000000000000cc2e      0x585 /home/zjian_zhang/Dplus_Z/project/realtek_amebaDplus_va0_example/GCC-RELEASE/project_km4/asdk/../toolchain/linux/asdk-10.3.1/linux/newlib/arm-none-eabi/lib/thumb/v8-m.main+fp/fpu/libc.a(lib_a-freer.o)
 .debug_line    0x000000000000d1b3      0x693 /home/zjian_zhang/Dplus_Z/project/realtek_amebaDplus_va0_example/GCC-RELEASE/project_km4/asdk/../toolchain/linux/asdk-10.3.1/linux/newlib/arm-none-eabi/lib/thumb/v8-m.main+fp/fpu/libc.a(lib_a-fvwrite.o)
 .debug_line    0x000000000000d846      0x399 /home/zjian_zhang/Dplus_Z/project/realtek_amebaDplus_va0_example/GCC-RELEASE/project_km4/asdk/../toolchain/linux/asdk-10.3.1/linux/newlib/arm-none-eabi/lib/thumb/v8-m.main+fp/fpu/libc.a(lib_a-fwalk.o)
 .debug_line    0x000000000000dbdf      0x1df /home/zjian_zhang/Dplus_Z/project/realtek_amebaDplus_va0_example/GCC-RELEASE/project_km4/asdk/../toolchain/linux/asdk-10.3.1/linux/newlib/arm-none-eabi/lib/thumb/v8-m.main+fp/fpu/libc.a(lib_a-impure.o)
 .debug_line    0x000000000000ddbe      0x1e0 /home/zjian_zhang/Dplus_Z/project/realtek_amebaDplus_va0_example/GCC-RELEASE/project_km4/asdk/../toolchain/linux/asdk-10.3.1/linux/newlib/arm-none-eabi/lib/thumb/v8-m.main+fp/fpu/libc.a(lib_a-iswspace.o)
 .debug_line    0x000000000000df9e      0x2f2 /home/zjian_zhang/Dplus_Z/project/realtek_amebaDplus_va0_example/GCC-RELEASE/project_km4/asdk/../toolchain/linux/asdk-10.3.1/linux/newlib/arm-none-eabi/lib/thumb/v8-m.main+fp/fpu/libc.a(lib_a-localeconv.o)
 .debug_line    0x000000000000e290      0x330 /home/zjian_zhang/Dplus_Z/project/realtek_amebaDplus_va0_example/GCC-RELEASE/project_km4/asdk/../toolchain/linux/asdk-10.3.1/linux/newlib/arm-none-eabi/lib/thumb/v8-m.main+fp/fpu/libc.a(lib_a-locale.o)
 .debug_line    0x000000000000e5c0      0x12c /home/zjian_zhang/Dplus_Z/project/realtek_amebaDplus_va0_example/GCC-RELEASE/project_km4/asdk/../toolchain/linux/asdk-10.3.1/linux/newlib/arm-none-eabi/lib/thumb/v8-m.main+fp/fpu/libc.a(lib_a-lock.o)
 .debug_line    0x000000000000e6ec      0x2b3 /home/zjian_zhang/Dplus_Z/project/realtek_amebaDplus_va0_example/GCC-RELEASE/project_km4/asdk/../toolchain/linux/asdk-10.3.1/linux/newlib/arm-none-eabi/lib/thumb/v8-m.main+fp/fpu/libc.a(lib_a-lseekr.o)
 .debug_line    0x000000000000e99f      0x4a6 /home/zjian_zhang/Dplus_Z/project/realtek_amebaDplus_va0_example/GCC-RELEASE/project_km4/asdk/../toolchain/linux/asdk-10.3.1/linux/newlib/arm-none-eabi/lib/thumb/v8-m.main+fp/fpu/libc.a(lib_a-makebuf.o)
 .debug_line    0x000000000000ee45      0x27b /home/zjian_zhang/Dplus_Z/project/realtek_amebaDplus_va0_example/GCC-RELEASE/project_km4/asdk/../toolchain/linux/asdk-10.3.1/linux/newlib/arm-none-eabi/lib/thumb/v8-m.main+fp/fpu/libc.a(lib_a-malloc.o)
 .debug_line    0x000000000000f0c0      0x8a8 /home/zjian_zhang/Dplus_Z/project/realtek_amebaDplus_va0_example/GCC-RELEASE/project_km4/asdk/../toolchain/linux/asdk-10.3.1/linux/newlib/arm-none-eabi/lib/thumb/v8-m.main+fp/fpu/libc.a(lib_a-mallocr.o)
 .debug_line    0x000000000000f968      0x389 /home/zjian_zhang/Dplus_Z/project/realtek_amebaDplus_va0_example/GCC-RELEASE/project_km4/asdk/../toolchain/linux/asdk-10.3.1/linux/newlib/arm-none-eabi/lib/thumb/v8-m.main+fp/fpu/libc.a(lib_a-mbrtowc.o)
 .debug_line    0x000000000000fcf1      0x377 /home/zjian_zhang/Dplus_Z/project/realtek_amebaDplus_va0_example/GCC-RELEASE/project_km4/asdk/../toolchain/linux/asdk-10.3.1/linux/newlib/arm-none-eabi/lib/thumb/v8-m.main+fp/fpu/libc.a(lib_a-mbtowc_r.o)
 .debug_line    0x0000000000010068      0x283 /home/zjian_zhang/Dplus_Z/project/realtek_amebaDplus_va0_example/GCC-RELEASE/project_km4/asdk/../toolchain/linux/asdk-10.3.1/linux/newlib/arm-none-eabi/lib/thumb/v8-m.main+fp/fpu/libc.a(lib_a-memchr-stub.o)
 .debug_line    0x00000000000102eb      0x263 /home/zjian_zhang/Dplus_Z/project/realtek_amebaDplus_va0_example/GCC-RELEASE/project_km4/asdk/../toolchain/linux/asdk-10.3.1/linux/newlib/arm-none-eabi/lib/thumb/v8-m.main+fp/fpu/libc.a(lib_a-memcmp.o)
 .debug_line    0x000000000001054e      0x100 /home/zjian_zhang/Dplus_Z/project/realtek_amebaDplus_va0_example/GCC-RELEASE/project_km4/asdk/../toolchain/linux/asdk-10.3.1/linux/newlib/arm-none-eabi/lib/thumb/v8-m.main+fp/fpu/libc.a(lib_a-memcpy.o)
 .debug_line    0x000000000001064e      0x2bc /home/zjian_zhang/Dplus_Z/project/realtek_amebaDplus_va0_example/GCC-RELEASE/project_km4/asdk/../toolchain/linux/asdk-10.3.1/linux/newlib/arm-none-eabi/lib/thumb/v8-m.main+fp/fpu/libc.a(lib_a-memmove.o)
 .debug_line    0x000000000001090a      0x287 /home/zjian_zhang/Dplus_Z/project/realtek_amebaDplus_va0_example/GCC-RELEASE/project_km4/asdk/../toolchain/linux/asdk-10.3.1/linux/newlib/arm-none-eabi/lib/thumb/v8-m.main+fp/fpu/libc.a(lib_a-memset-stub.o)
 .debug_line    0x0000000000010b91      0x27f /home/zjian_zhang/Dplus_Z/project/realtek_amebaDplus_va0_example/GCC-RELEASE/project_km4/asdk/../toolchain/linux/asdk-10.3.1/linux/newlib/arm-none-eabi/lib/thumb/v8-m.main+fp/fpu/libc.a(lib_a-mlock.o)
 .debug_line    0x0000000000010e10     0x151b /home/zjian_zhang/Dplus_Z/project/realtek_amebaDplus_va0_example/GCC-RELEASE/project_km4/asdk/../toolchain/linux/asdk-10.3.1/linux/newlib/arm-none-eabi/lib/thumb/v8-m.main+fp/fpu/libc.a(lib_a-mprec.o)
 .debug_line    0x000000000001232b      0x2b2 /home/zjian_zhang/Dplus_Z/project/realtek_amebaDplus_va0_example/GCC-RELEASE/project_km4/asdk/../toolchain/linux/asdk-10.3.1/linux/newlib/arm-none-eabi/lib/thumb/v8-m.main+fp/fpu/libc.a(lib_a-readr.o)
 .debug_line    0x00000000000125dd      0x27c /home/zjian_zhang/Dplus_Z/project/realtek_amebaDplus_va0_example/GCC-RELEASE/project_km4/asdk/../toolchain/linux/asdk-10.3.1/linux/newlib/arm-none-eabi/lib/thumb/v8-m.main+fp/fpu/libc.a(lib_a-realloc.o)
 .debug_line    0x0000000000012859      0x7b6 /home/zjian_zhang/Dplus_Z/project/realtek_amebaDplus_va0_example/GCC-RELEASE/project_km4/asdk/../toolchain/linux/asdk-10.3.1/linux/newlib/arm-none-eabi/lib/thumb/v8-m.main+fp/fpu/libc.a(lib_a-reallocr.o)
 .debug_line    0x000000000001300f      0x37b /home/zjian_zhang/Dplus_Z/project/realtek_amebaDplus_va0_example/GCC-RELEASE/project_km4/asdk/../toolchain/linux/asdk-10.3.1/linux/newlib/arm-none-eabi/lib/thumb/v8-m.main+fp/fpu/libc.a(lib_a-reent.o)
 .debug_line    0x000000000001338a      0x2b3 /home/zjian_zhang/Dplus_Z/project/realtek_amebaDplus_va0_example/GCC-RELEASE/project_km4/asdk/../toolchain/linux/asdk-10.3.1/linux/newlib/arm-none-eabi/lib/thumb/v8-m.main+fp/fpu/libc.a(lib_a-sbrkr.o)
 .debug_line    0x000000000001363d      0x210 /home/zjian_zhang/Dplus_Z/project/realtek_amebaDplus_va0_example/GCC-RELEASE/project_km4/asdk/../toolchain/linux/asdk-10.3.1/linux/newlib/arm-none-eabi/lib/thumb/v8-m.main+fp/fpu/libc.a(lib_a-sccl.o)
 .debug_line    0x000000000001384d      0x126 /home/zjian_zhang/Dplus_Z/project/realtek_amebaDplus_va0_example/GCC-RELEASE/project_km4/asdk/../toolchain/linux/asdk-10.3.1/linux/newlib/arm-none-eabi/lib/thumb/v8-m.main+fp/fpu/libc.a(lib_a-sf_nan.o)
 .debug_line    0x0000000000013973      0x2c6 /home/zjian_zhang/Dplus_Z/project/realtek_amebaDplus_va0_example/GCC-RELEASE/project_km4/asdk/../toolchain/linux/asdk-10.3.1/linux/newlib/arm-none-eabi/lib/thumb/v8-m.main+fp/fpu/libc.a(lib_a-s_frexp.o)
 .debug_line    0x0000000000013c39      0x145 /home/zjian_zhang/Dplus_Z/project/realtek_amebaDplus_va0_example/GCC-RELEASE/project_km4/asdk/../toolchain/linux/asdk-10.3.1/linux/newlib/arm-none-eabi/lib/thumb/v8-m.main+fp/fpu/libc.a(lib_a-strcmp.o)
 .debug_line    0x0000000000013d7e      0x1fe /home/zjian_zhang/Dplus_Z/project/realtek_amebaDplus_va0_example/GCC-RELEASE/project_km4/asdk/../toolchain/linux/asdk-10.3.1/linux/newlib/arm-none-eabi/lib/thumb/v8-m.main+fp/fpu/libc.a(lib_a-strnlen.o)
 .debug_line    0x0000000000013f7c     0x142d /home/zjian_zhang/Dplus_Z/project/realtek_amebaDplus_va0_example/GCC-RELEASE/project_km4/asdk/../toolchain/linux/asdk-10.3.1/linux/newlib/arm-none-eabi/lib/thumb/v8-m.main+fp/fpu/libc.a(lib_a-strtod.o)
 .debug_line    0x00000000000153a9      0x522 /home/zjian_zhang/Dplus_Z/project/realtek_amebaDplus_va0_example/GCC-RELEASE/project_km4/asdk/../toolchain/linux/asdk-10.3.1/linux/newlib/arm-none-eabi/lib/thumb/v8-m.main+fp/fpu/libc.a(lib_a-strtoll.o)
 .debug_line    0x00000000000158cb      0x51d /home/zjian_zhang/Dplus_Z/project/realtek_amebaDplus_va0_example/GCC-RELEASE/project_km4/asdk/../toolchain/linux/asdk-10.3.1/linux/newlib/arm-none-eabi/lib/thumb/v8-m.main+fp/fpu/libc.a(lib_a-strtoull.o)
 .debug_line    0x0000000000015de8      0x4fa /home/zjian_zhang/Dplus_Z/project/realtek_amebaDplus_va0_example/GCC-RELEASE/project_km4/asdk/../toolchain/linux/asdk-10.3.1/linux/newlib/arm-none-eabi/lib/thumb/v8-m.main+fp/fpu/libc.a(lib_a-strtoul.o)
 .debug_line    0x00000000000162e2     0x1015 /home/zjian_zhang/Dplus_Z/project/realtek_amebaDplus_va0_example/GCC-RELEASE/project_km4/asdk/../toolchain/linux/asdk-10.3.1/linux/newlib/arm-none-eabi/lib/thumb/v8-m.main+fp/fpu/libc.a(lib_a-svfiprintf.o)
 .debug_line    0x00000000000172f7     0x18e3 /home/zjian_zhang/Dplus_Z/project/realtek_amebaDplus_va0_example/GCC-RELEASE/project_km4/asdk/../toolchain/linux/asdk-10.3.1/linux/newlib/arm-none-eabi/lib/thumb/v8-m.main+fp/fpu/libc.a(lib_a-svfiscanf.o)
 .debug_line    0x0000000000018bda      0x528 /home/zjian_zhang/Dplus_Z/project/realtek_amebaDplus_va0_example/GCC-RELEASE/project_km4/asdk/../toolchain/linux/asdk-10.3.1/linux/newlib/arm-none-eabi/lib/thumb/v8-m.main+fp/fpu/libc.a(lib_a-ungetc.o)
 .debug_line    0x0000000000019102     0x10cb /home/zjian_zhang/Dplus_Z/project/realtek_amebaDplus_va0_example/GCC-RELEASE/project_km4/asdk/../toolchain/linux/asdk-10.3.1/linux/newlib/arm-none-eabi/lib/thumb/v8-m.main+fp/fpu/libc.a(lib_a-vfiprintf.o)
 .debug_line    0x000000000001a1cd      0x36f /home/zjian_zhang/Dplus_Z/project/realtek_amebaDplus_va0_example/GCC-RELEASE/project_km4/asdk/../toolchain/linux/asdk-10.3.1/linux/newlib/arm-none-eabi/lib/thumb/v8-m.main+fp/fpu/libc.a(lib_a-wctomb_r.o)
 .debug_line    0x000000000001a53c      0x2c1 /home/zjian_zhang/Dplus_Z/project/realtek_amebaDplus_va0_example/GCC-RELEASE/project_km4/asdk/../toolchain/linux/asdk-10.3.1/linux/newlib/arm-none-eabi/lib/thumb/v8-m.main+fp/fpu/libc.a(lib_a-assert.o)
 .debug_line    0x000000000001a7fd      0x2cc /home/zjian_zhang/Dplus_Z/project/realtek_amebaDplus_va0_example/GCC-RELEASE/project_km4/asdk/../toolchain/linux/asdk-10.3.1/linux/newlib/arm-none-eabi/lib/thumb/v8-m.main+fp/fpu/libc.a(lib_a-callocr.o)
 .debug_line    0x000000000001aac9      0x3ba /home/zjian_zhang/Dplus_Z/project/realtek_amebaDplus_va0_example/GCC-RELEASE/project_km4/asdk/../toolchain/linux/asdk-10.3.1/linux/newlib/arm-none-eabi/lib/thumb/v8-m.main+fp/fpu/libc.a(lib_a-fclose.o)
 .debug_line    0x000000000001ae83      0x2cf /home/zjian_zhang/Dplus_Z/project/realtek_amebaDplus_va0_example/GCC-RELEASE/project_km4/asdk/../toolchain/linux/asdk-10.3.1/linux/newlib/arm-none-eabi/lib/thumb/v8-m.main+fp/fpu/libc.a(lib_a-fiprintf.o)
 .debug_line    0x000000000001b152      0x466 /home/zjian_zhang/Dplus_Z/project/realtek_amebaDplus_va0_example/GCC-RELEASE/project_km4/asdk/../toolchain/linux/asdk-10.3.1/linux/newlib/arm-none-eabi/lib/thumb/v8-m.main+fp/fpu/libc.a(lib_a-fputwc.o)
 .debug_line    0x000000000001b5b8      0x363 /home/zjian_zhang/Dplus_Z/project/realtek_amebaDplus_va0_example/GCC-RELEASE/project_km4/asdk/../toolchain/linux/asdk-10.3.1/linux/newlib/arm-none-eabi/lib/thumb/v8-m.main+fp/fpu/libc.a(lib_a-fstatr.o)
 .debug_line    0x000000000001b91b      0xac9 /home/zjian_zhang/Dplus_Z/project/realtek_amebaDplus_va0_example/GCC-RELEASE/project_km4/asdk/../toolchain/linux/asdk-10.3.1/linux/newlib/arm-none-eabi/lib/thumb/v8-m.main+fp/fpu/libc.a(lib_a-gdtoa-gethex.o)
 .debug_line    0x000000000001c3e4      0x400 /home/zjian_zhang/Dplus_Z/project/realtek_amebaDplus_va0_example/GCC-RELEASE/project_km4/asdk/../toolchain/linux/asdk-10.3.1/linux/newlib/arm-none-eabi/lib/thumb/v8-m.main+fp/fpu/libc.a(lib_a-gdtoa-hexnan.o)
 .debug_line    0x000000000001c7e4      0x2b4 /home/zjian_zhang/Dplus_Z/project/realtek_amebaDplus_va0_example/GCC-RELEASE/project_km4/asdk/../toolchain/linux/asdk-10.3.1/linux/newlib/arm-none-eabi/lib/thumb/v8-m.main+fp/fpu/libc.a(lib_a-isattyr.o)
 .debug_line    0x000000000001ca98      0x328 /home/zjian_zhang/Dplus_Z/project/realtek_amebaDplus_va0_example/GCC-RELEASE/project_km4/asdk/../toolchain/linux/asdk-10.3.1/linux/newlib/arm-none-eabi/lib/thumb/v8-m.main+fp/fpu/libc.a(lib_a-iswspace_l.o)
 .debug_line    0x000000000001cdc0      0x294 /home/zjian_zhang/Dplus_Z/project/realtek_amebaDplus_va0_example/GCC-RELEASE/project_km4/asdk/../toolchain/linux/asdk-10.3.1/linux/newlib/arm-none-eabi/lib/thumb/v8-m.main+fp/fpu/libc.a(lib_a-lnumeric.o)
 .debug_line    0x000000000001d054      0x127 /home/zjian_zhang/Dplus_Z/project/realtek_amebaDplus_va0_example/GCC-RELEASE/project_km4/asdk/../toolchain/linux/asdk-10.3.1/linux/newlib/arm-none-eabi/lib/thumb/v8-m.main+fp/fpu/libc.a(lib_a-s_nan.o)
 .debug_line    0x000000000001d17b      0x388 /home/zjian_zhang/Dplus_Z/project/realtek_amebaDplus_va0_example/GCC-RELEASE/project_km4/asdk/../toolchain/linux/asdk-10.3.1/linux/newlib/arm-none-eabi/lib/thumb/v8-m.main+fp/fpu/libc.a(lib_a-wcrtomb.o)
 .debug_line    0x000000000001d503      0x1bb /home/zjian_zhang/Dplus_Z/project/realtek_amebaDplus_va0_example/GCC-RELEASE/project_km4/asdk/../toolchain/linux/asdk-10.3.1/linux/newlib/arm-none-eabi/lib/thumb/v8-m.main+fp/fpu/libc.a(lib_a-abort.o)
 .debug_line    0x000000000001d6be      0x4b5 /home/zjian_zhang/Dplus_Z/project/realtek_amebaDplus_va0_example/GCC-RELEASE/project_km4/asdk/../toolchain/linux/asdk-10.3.1/linux/newlib/arm-none-eabi/lib/thumb/v8-m.main+fp/fpu/libc.a(lib_a-signal.o)
 .debug_line    0x000000000001db73      0x2d2 /home/zjian_zhang/Dplus_Z/project/realtek_amebaDplus_va0_example/GCC-RELEASE/project_km4/asdk/../toolchain/linux/asdk-10.3.1/linux/newlib/arm-none-eabi/lib/thumb/v8-m.main+fp/fpu/libc.a(lib_a-signalr.o)
 .debug_line    0x000000000001de45      0x150 /home/zjian_zhang/Dplus_Z/project/realtek_amebaDplus_va0_example/GCC-RELEASE/project_km4/asdk/../toolchain/linux/asdk-10.3.1/linux/newlib/lib/gcc/arm-none-eabi/10.3.1/thumb/v8-m.main+fp/fpu/libgcc.a(_arm_muldf3.o)
 .debug_line    0x000000000001df95      0x1ca /home/zjian_zhang/Dplus_Z/project/realtek_amebaDplus_va0_example/GCC-RELEASE/project_km4/asdk/../toolchain/linux/asdk-10.3.1/linux/newlib/lib/gcc/arm-none-eabi/10.3.1/thumb/v8-m.main+fp/fpu/libgcc.a(_arm_addsubdf3.o)
 .debug_line    0x000000000001e15f      0x1df /home/zjian_zhang/Dplus_Z/project/realtek_amebaDplus_va0_example/GCC-RELEASE/project_km4/asdk/../toolchain/linux/asdk-10.3.1/linux/newlib/lib/gcc/arm-none-eabi/10.3.1/thumb/v8-m.main+fp/fpu/libgcc.a(_arm_muldivdf3.o)
 .debug_line    0x000000000001e33e      0x101 /home/zjian_zhang/Dplus_Z/project/realtek_amebaDplus_va0_example/GCC-RELEASE/project_km4/asdk/../toolchain/linux/asdk-10.3.1/linux/newlib/lib/gcc/arm-none-eabi/10.3.1/thumb/v8-m.main+fp/fpu/libgcc.a(_arm_cmpdf2.o)
 .debug_line    0x000000000001e43f       0xb2 /home/zjian_zhang/Dplus_Z/project/realtek_amebaDplus_va0_example/GCC-RELEASE/project_km4/asdk/../toolchain/linux/asdk-10.3.1/linux/newlib/lib/gcc/arm-none-eabi/10.3.1/thumb/v8-m.main+fp/fpu/libgcc.a(_arm_unorddf2.o)
 .debug_line    0x000000000001e4f1       0xbd /home/zjian_zhang/Dplus_Z/project/realtek_amebaDplus_va0_example/GCC-RELEASE/project_km4/asdk/../toolchain/linux/asdk-10.3.1/linux/newlib/lib/gcc/arm-none-eabi/10.3.1/thumb/v8-m.main+fp/fpu/libgcc.a(_arm_fixdfsi.o)
 .debug_line    0x000000000001e5ae       0xb9 /home/zjian_zhang/Dplus_Z/project/realtek_amebaDplus_va0_example/GCC-RELEASE/project_km4/asdk/../toolchain/linux/asdk-10.3.1/linux/newlib/lib/gcc/arm-none-eabi/10.3.1/thumb/v8-m.main+fp/fpu/libgcc.a(_arm_fixunsdfsi.o)
 .debug_line    0x000000000001e667       0xd1 /home/zjian_zhang/Dplus_Z/project/realtek_amebaDplus_va0_example/GCC-RELEASE/project_km4/asdk/../toolchain/linux/asdk-10.3.1/linux/newlib/lib/gcc/arm-none-eabi/10.3.1/thumb/v8-m.main+fp/fpu/libgcc.a(_arm_truncdfsf2.o)
 .debug_line    0x000000000001e738       0xa4 /home/zjian_zhang/Dplus_Z/project/realtek_amebaDplus_va0_example/GCC-RELEASE/project_km4/asdk/../toolchain/linux/asdk-10.3.1/linux/newlib/lib/gcc/arm-none-eabi/10.3.1/thumb/v8-m.main+fp/fpu/libgcc.a(_aeabi_uldivmod.o)
 .debug_line    0x000000000001e7dc       0xf5 /home/zjian_zhang/Dplus_Z/project/realtek_amebaDplus_va0_example/GCC-RELEASE/project_km4/asdk/../toolchain/linux/asdk-10.3.1/linux/newlib/lib/gcc/arm-none-eabi/10.3.1/thumb/v8-m.main+fp/fpu/libgcc.a(_fixdfdi.o)
 .debug_line    0x000000000001e8d1       0xf1 /home/zjian_zhang/Dplus_Z/project/realtek_amebaDplus_va0_example/GCC-RELEASE/project_km4/asdk/../toolchain/linux/asdk-10.3.1/linux/newlib/lib/gcc/arm-none-eabi/10.3.1/thumb/v8-m.main+fp/fpu/libgcc.a(_fixunsdfdi.o)
 .debug_line    0x000000000001e9c2      0x583 /home/zjian_zhang/Dplus_Z/project/realtek_amebaDplus_va0_example/GCC-RELEASE/project_km4/asdk/../toolchain/linux/asdk-10.3.1/linux/newlib/lib/gcc/arm-none-eabi/10.3.1/thumb/v8-m.main+fp/fpu/libgcc.a(_udivmoddi4.o)
 .debug_line    0x000000000001ef45       0xa4 /home/zjian_zhang/Dplus_Z/project/realtek_amebaDplus_va0_example/GCC-RELEASE/project_km4/asdk/../toolchain/linux/asdk-10.3.1/linux/newlib/lib/gcc/arm-none-eabi/10.3.1/thumb/v8-m.main+fp/fpu/libgcc.a(_dvmd_tls.o)
 .debug_line    0x000000000001efe9       0xba /home/zjian_zhang/Dplus_Z/project/realtek_amebaDplus_va0_example/GCC-RELEASE/project_km4/asdk/../toolchain/linux/asdk-10.3.1/linux/newlib/arm-none-eabi/lib/thumb/v8-m.main+fp/fpu/libnosys.a(close.o)
 .debug_line    0x000000000001f0a3      0x1f4 /home/zjian_zhang/Dplus_Z/project/realtek_amebaDplus_va0_example/GCC-RELEASE/project_km4/asdk/../toolchain/linux/asdk-10.3.1/linux/newlib/arm-none-eabi/lib/thumb/v8-m.main+fp/fpu/libnosys.a(fstat.o)
 .debug_line    0x000000000001f297       0xbb /home/zjian_zhang/Dplus_Z/project/realtek_amebaDplus_va0_example/GCC-RELEASE/project_km4/asdk/../toolchain/linux/asdk-10.3.1/linux/newlib/arm-none-eabi/lib/thumb/v8-m.main+fp/fpu/libnosys.a(getpid.o)
 .debug_line    0x000000000001f352       0xbb /home/zjian_zhang/Dplus_Z/project/realtek_amebaDplus_va0_example/GCC-RELEASE/project_km4/asdk/../toolchain/linux/asdk-10.3.1/linux/newlib/arm-none-eabi/lib/thumb/v8-m.main+fp/fpu/libnosys.a(isatty.o)
 .debug_line    0x000000000001f40d       0xb9 /home/zjian_zhang/Dplus_Z/project/realtek_amebaDplus_va0_example/GCC-RELEASE/project_km4/asdk/../toolchain/linux/asdk-10.3.1/linux/newlib/arm-none-eabi/lib/thumb/v8-m.main+fp/fpu/libnosys.a(kill.o)
 .debug_line    0x000000000001f4c6       0xba /home/zjian_zhang/Dplus_Z/project/realtek_amebaDplus_va0_example/GCC-RELEASE/project_km4/asdk/../toolchain/linux/asdk-10.3.1/linux/newlib/arm-none-eabi/lib/thumb/v8-m.main+fp/fpu/libnosys.a(lseek.o)
 .debug_line    0x000000000001f580       0xd3 /home/zjian_zhang/Dplus_Z/project/realtek_amebaDplus_va0_example/GCC-RELEASE/project_km4/asdk/../toolchain/linux/asdk-10.3.1/linux/newlib/arm-none-eabi/lib/thumb/v8-m.main+fp/fpu/libnosys.a(sbrk.o)
 .debug_line    0x000000000001f653       0xba /home/zjian_zhang/Dplus_Z/project/realtek_amebaDplus_va0_example/GCC-RELEASE/project_km4/asdk/../toolchain/linux/asdk-10.3.1/linux/newlib/arm-none-eabi/lib/thumb/v8-m.main+fp/fpu/libnosys.a(_exit.o)

.debug_str      0x0000000000000000     0x5e0c
 .debug_str     0x0000000000000000      0x531 ./build/stdlib/stdlib_link.o
                                        0x60f (size before relaxing)
 .debug_str     0x0000000000000531      0x514 /home/zjian_zhang/Dplus_Z/project/realtek_amebaDplus_va0_example/GCC-RELEASE/project_km4/asdk/../toolchain/linux/asdk-10.3.1/linux/newlib/arm-none-eabi/lib/thumb/v8-m.main+fp/fpu/libc.a(lib_a-atoi.o)
                                        0x61f (size before relaxing)
 .debug_str     0x0000000000000a45      0x141 /home/zjian_zhang/Dplus_Z/project/realtek_amebaDplus_va0_example/GCC-RELEASE/project_km4/asdk/../toolchain/linux/asdk-10.3.1/linux/newlib/arm-none-eabi/lib/thumb/v8-m.main+fp/fpu/libc.a(lib_a-printf.o)
                                        0x650 (size before relaxing)
 .debug_str     0x0000000000000b86       0x89 /home/zjian_zhang/Dplus_Z/project/realtek_amebaDplus_va0_example/GCC-RELEASE/project_km4/asdk/../toolchain/linux/asdk-10.3.1/linux/newlib/arm-none-eabi/lib/thumb/v8-m.main+fp/fpu/libc.a(lib_a-putchar.o)
                                        0x62f (size before relaxing)
 .debug_str     0x0000000000000c0f       0xe8 /home/zjian_zhang/Dplus_Z/project/realtek_amebaDplus_va0_example/GCC-RELEASE/project_km4/asdk/../toolchain/linux/asdk-10.3.1/linux/newlib/arm-none-eabi/lib/thumb/v8-m.main+fp/fpu/libc.a(lib_a-putc.o)
                                        0x699 (size before relaxing)
 .debug_str     0x0000000000000cf7       0xcb /home/zjian_zhang/Dplus_Z/project/realtek_amebaDplus_va0_example/GCC-RELEASE/project_km4/asdk/../toolchain/linux/asdk-10.3.1/linux/newlib/arm-none-eabi/lib/thumb/v8-m.main+fp/fpu/libc.a(lib_a-puts.o)
                                        0x6d7 (size before relaxing)
 .debug_str     0x0000000000000dc2       0x90 /home/zjian_zhang/Dplus_Z/project/realtek_amebaDplus_va0_example/GCC-RELEASE/project_km4/asdk/../toolchain/linux/asdk-10.3.1/linux/newlib/arm-none-eabi/lib/thumb/v8-m.main+fp/fpu/libc.a(lib_a-snprintf.o)
                                        0x668 (size before relaxing)
 .debug_str     0x0000000000000e52       0x81 /home/zjian_zhang/Dplus_Z/project/realtek_amebaDplus_va0_example/GCC-RELEASE/project_km4/asdk/../toolchain/linux/asdk-10.3.1/linux/newlib/arm-none-eabi/lib/thumb/v8-m.main+fp/fpu/libc.a(lib_a-sprintf.o)
                                        0x659 (size before relaxing)
 .debug_str     0x0000000000000ed3       0x8d /home/zjian_zhang/Dplus_Z/project/realtek_amebaDplus_va0_example/GCC-RELEASE/project_km4/asdk/../toolchain/linux/asdk-10.3.1/linux/newlib/arm-none-eabi/lib/thumb/v8-m.main+fp/fpu/libc.a(lib_a-sscanf.o)
                                        0x65e (size before relaxing)
 .debug_str     0x0000000000000f60       0xd4 /home/zjian_zhang/Dplus_Z/project/realtek_amebaDplus_va0_example/GCC-RELEASE/project_km4/asdk/../toolchain/linux/asdk-10.3.1/linux/newlib/arm-none-eabi/lib/thumb/v8-m.main+fp/fpu/libc.a(lib_a-stdio.o)
                                        0x680 (size before relaxing)
 .debug_str     0x0000000000001034      0x138 /home/zjian_zhang/Dplus_Z/project/realtek_amebaDplus_va0_example/GCC-RELEASE/project_km4/asdk/../toolchain/linux/asdk-10.3.1/linux/newlib/arm-none-eabi/lib/thumb/v8-m.main+fp/fpu/libc.a(lib_a-strcat.o)
                                        0x25f (size before relaxing)
 .debug_str     0x000000000000116c       0x76 /home/zjian_zhang/Dplus_Z/project/realtek_amebaDplus_va0_example/GCC-RELEASE/project_km4/asdk/../toolchain/linux/asdk-10.3.1/linux/newlib/arm-none-eabi/lib/thumb/v8-m.main+fp/fpu/libc.a(lib_a-strchr.o)
                                        0x25f (size before relaxing)
 .debug_str     0x00000000000011e2      0x137 /home/zjian_zhang/Dplus_Z/project/realtek_amebaDplus_va0_example/GCC-RELEASE/project_km4/asdk/../toolchain/linux/asdk-10.3.1/linux/newlib/arm-none-eabi/lib/thumb/v8-m.main+fp/fpu/libc.a(lib_a-strcpy.o)
                                        0x257 (size before relaxing)
 .debug_str     0x0000000000001319       0x80 /home/zjian_zhang/Dplus_Z/project/realtek_amebaDplus_va0_example/GCC-RELEASE/project_km4/asdk/../toolchain/linux/asdk-10.3.1/linux/newlib/arm-none-eabi/lib/thumb/v8-m.main+fp/fpu/libc.a(lib_a-strlen-stub.o)
                                        0x263 (size before relaxing)
 .debug_str     0x0000000000001399       0x77 /home/zjian_zhang/Dplus_Z/project/realtek_amebaDplus_va0_example/GCC-RELEASE/project_km4/asdk/../toolchain/linux/asdk-10.3.1/linux/newlib/arm-none-eabi/lib/thumb/v8-m.main+fp/fpu/libc.a(lib_a-strncat.o)
                                        0x261 (size before relaxing)
 .debug_str     0x0000000000001410       0x77 /home/zjian_zhang/Dplus_Z/project/realtek_amebaDplus_va0_example/GCC-RELEASE/project_km4/asdk/../toolchain/linux/asdk-10.3.1/linux/newlib/arm-none-eabi/lib/thumb/v8-m.main+fp/fpu/libc.a(lib_a-strncmp.o)
                                        0x256 (size before relaxing)
 .debug_str     0x0000000000001487       0x77 /home/zjian_zhang/Dplus_Z/project/realtek_amebaDplus_va0_example/GCC-RELEASE/project_km4/asdk/../toolchain/linux/asdk-10.3.1/linux/newlib/arm-none-eabi/lib/thumb/v8-m.main+fp/fpu/libc.a(lib_a-strncpy.o)
                                        0x27e (size before relaxing)
 .debug_str     0x00000000000014fe       0x77 /home/zjian_zhang/Dplus_Z/project/realtek_amebaDplus_va0_example/GCC-RELEASE/project_km4/asdk/../toolchain/linux/asdk-10.3.1/linux/newlib/arm-none-eabi/lib/thumb/v8-m.main+fp/fpu/libc.a(lib_a-strpbrk.o)
                                        0x24f (size before relaxing)
 .debug_str     0x0000000000001575       0x8c /home/zjian_zhang/Dplus_Z/project/realtek_amebaDplus_va0_example/GCC-RELEASE/project_km4/asdk/../toolchain/linux/asdk-10.3.1/linux/newlib/arm-none-eabi/lib/thumb/v8-m.main+fp/fpu/libc.a(lib_a-strsep.o)
                                        0x269 (size before relaxing)
 .debug_str     0x0000000000001601      0x12b /home/zjian_zhang/Dplus_Z/project/realtek_amebaDplus_va0_example/GCC-RELEASE/project_km4/asdk/../toolchain/linux/asdk-10.3.1/linux/newlib/arm-none-eabi/lib/thumb/v8-m.main+fp/fpu/libc.a(lib_a-strstr.o)
                                        0x358 (size before relaxing)
 .debug_str     0x000000000000172c       0x76 /home/zjian_zhang/Dplus_Z/project/realtek_amebaDplus_va0_example/GCC-RELEASE/project_km4/asdk/../toolchain/linux/asdk-10.3.1/linux/newlib/arm-none-eabi/lib/thumb/v8-m.main+fp/fpu/libc.a(lib_a-strtok.o)
                                        0x62d (size before relaxing)
 .debug_str     0x00000000000017a2       0x9c /home/zjian_zhang/Dplus_Z/project/realtek_amebaDplus_va0_example/GCC-RELEASE/project_km4/asdk/../toolchain/linux/asdk-10.3.1/linux/newlib/arm-none-eabi/lib/thumb/v8-m.main+fp/fpu/libc.a(lib_a-strtok_r.o)
                                        0x286 (size before relaxing)
 .debug_str     0x000000000000183e      0x229 /home/zjian_zhang/Dplus_Z/project/realtek_amebaDplus_va0_example/GCC-RELEASE/project_km4/asdk/../toolchain/linux/asdk-10.3.1/linux/newlib/arm-none-eabi/lib/thumb/v8-m.main+fp/fpu/libc.a(lib_a-strtol.o)
                                        0x89c (size before relaxing)
 .debug_str     0x0000000000001a67      0x26c /home/zjian_zhang/Dplus_Z/project/realtek_amebaDplus_va0_example/GCC-RELEASE/project_km4/asdk/../toolchain/linux/asdk-10.3.1/linux/newlib/arm-none-eabi/lib/thumb/v8-m.main+fp/fpu/libc.a(lib_a-svfprintf.o)
                                        0xab8 (size before relaxing)
 .debug_str     0x0000000000001cd3      0x22c /home/zjian_zhang/Dplus_Z/project/realtek_amebaDplus_va0_example/GCC-RELEASE/project_km4/asdk/../toolchain/linux/asdk-10.3.1/linux/newlib/arm-none-eabi/lib/thumb/v8-m.main+fp/fpu/libc.a(lib_a-svfscanf.o)
                                        0xab7 (size before relaxing)
 .debug_str     0x0000000000001eff       0x79 /home/zjian_zhang/Dplus_Z/project/realtek_amebaDplus_va0_example/GCC-RELEASE/project_km4/asdk/../toolchain/linux/asdk-10.3.1/linux/newlib/arm-none-eabi/lib/thumb/v8-m.main+fp/fpu/libc.a(lib_a-vfprintf.o)
                                        0xb98 (size before relaxing)
 .debug_str     0x0000000000001f78       0x85 /home/zjian_zhang/Dplus_Z/project/realtek_amebaDplus_va0_example/GCC-RELEASE/project_km4/asdk/../toolchain/linux/asdk-10.3.1/linux/newlib/arm-none-eabi/lib/thumb/v8-m.main+fp/fpu/libc.a(lib_a-vsnprintf.o)
                                        0x66b (size before relaxing)
 .debug_str     0x0000000000001ffd       0x7b /home/zjian_zhang/Dplus_Z/project/realtek_amebaDplus_va0_example/GCC-RELEASE/project_km4/asdk/../toolchain/linux/asdk-10.3.1/linux/newlib/arm-none-eabi/lib/thumb/v8-m.main+fp/fpu/libc.a(lib_a-wbuf.o)
                                        0x650 (size before relaxing)
 .debug_str     0x0000000000002078      0x12b /home/zjian_zhang/Dplus_Z/project/realtek_amebaDplus_va0_example/GCC-RELEASE/project_km4/asdk/../toolchain/linux/asdk-10.3.1/linux/newlib/arm-none-eabi/lib/thumb/v8-m.main+fp/fpu/libc.a(lib_a-writer.o)
                                        0x620 (size before relaxing)
 .debug_str     0x00000000000021a3       0x82 /home/zjian_zhang/Dplus_Z/project/realtek_amebaDplus_va0_example/GCC-RELEASE/project_km4/asdk/../toolchain/linux/asdk-10.3.1/linux/newlib/arm-none-eabi/lib/thumb/v8-m.main+fp/fpu/libc.a(lib_a-wsetup.o)
                                        0x64b (size before relaxing)
 .debug_str     0x0000000000002225       0x75 /home/zjian_zhang/Dplus_Z/project/realtek_amebaDplus_va0_example/GCC-RELEASE/project_km4/asdk/../toolchain/linux/asdk-10.3.1/linux/newlib/arm-none-eabi/lib/thumb/v8-m.main+fp/fpu/libc.a(lib_a-closer.o)
                                        0x610 (size before relaxing)
 .debug_str     0x000000000000229a      0x12b /home/zjian_zhang/Dplus_Z/project/realtek_amebaDplus_va0_example/GCC-RELEASE/project_km4/asdk/../toolchain/linux/asdk-10.3.1/linux/newlib/arm-none-eabi/lib/thumb/v8-m.main+fp/fpu/libc.a(lib_a-ctype_.o)
                                        0x24c (size before relaxing)
 .debug_str     0x00000000000023c5      0x1d6 /home/zjian_zhang/Dplus_Z/project/realtek_amebaDplus_va0_example/GCC-RELEASE/project_km4/asdk/../toolchain/linux/asdk-10.3.1/linux/newlib/arm-none-eabi/lib/thumb/v8-m.main+fp/fpu/libc.a(lib_a-dtoa.o)
                                        0x9f3 (size before relaxing)
 .debug_str     0x000000000000259b      0x12a /home/zjian_zhang/Dplus_Z/project/realtek_amebaDplus_va0_example/GCC-RELEASE/project_km4/asdk/../toolchain/linux/asdk-10.3.1/linux/newlib/arm-none-eabi/lib/thumb/v8-m.main+fp/fpu/libc.a(lib_a-errno.o)
                                        0x614 (size before relaxing)
 .debug_str     0x00000000000026c5       0xb8 /home/zjian_zhang/Dplus_Z/project/realtek_amebaDplus_va0_example/GCC-RELEASE/project_km4/asdk/../toolchain/linux/asdk-10.3.1/linux/newlib/arm-none-eabi/lib/thumb/v8-m.main+fp/fpu/libc.a(lib_a-fflush.o)
                                        0x6d0 (size before relaxing)
 .debug_str     0x000000000000277d      0x21a /home/zjian_zhang/Dplus_Z/project/realtek_amebaDplus_va0_example/GCC-RELEASE/project_km4/asdk/../toolchain/linux/asdk-10.3.1/linux/newlib/arm-none-eabi/lib/thumb/v8-m.main+fp/fpu/libc.a(lib_a-findfp.o)
                                        0x8a4 (size before relaxing)
 .debug_str     0x0000000000002997       0x7b /home/zjian_zhang/Dplus_Z/project/realtek_amebaDplus_va0_example/GCC-RELEASE/project_km4/asdk/../toolchain/linux/asdk-10.3.1/linux/newlib/arm-none-eabi/lib/thumb/v8-m.main+fp/fpu/libc.a(lib_a-free.o)
                                        0x621 (size before relaxing)
 .debug_str     0x0000000000002a12      0x1b4 /home/zjian_zhang/Dplus_Z/project/realtek_amebaDplus_va0_example/GCC-RELEASE/project_km4/asdk/../toolchain/linux/asdk-10.3.1/linux/newlib/arm-none-eabi/lib/thumb/v8-m.main+fp/fpu/libc.a(lib_a-freer.o)
                                        0x77b (size before relaxing)
 .debug_str     0x0000000000002bc6       0xa7 /home/zjian_zhang/Dplus_Z/project/realtek_amebaDplus_va0_example/GCC-RELEASE/project_km4/asdk/../toolchain/linux/asdk-10.3.1/linux/newlib/arm-none-eabi/lib/thumb/v8-m.main+fp/fpu/libc.a(lib_a-fvwrite.o)
                                        0x6be (size before relaxing)
 .debug_str     0x0000000000002c6d       0x83 /home/zjian_zhang/Dplus_Z/project/realtek_amebaDplus_va0_example/GCC-RELEASE/project_km4/asdk/../toolchain/linux/asdk-10.3.1/linux/newlib/arm-none-eabi/lib/thumb/v8-m.main+fp/fpu/libc.a(lib_a-fwalk.o)
                                        0x631 (size before relaxing)
 .debug_str     0x0000000000002cf0       0x81 /home/zjian_zhang/Dplus_Z/project/realtek_amebaDplus_va0_example/GCC-RELEASE/project_km4/asdk/../toolchain/linux/asdk-10.3.1/linux/newlib/arm-none-eabi/lib/thumb/v8-m.main+fp/fpu/libc.a(lib_a-impure.o)
                                        0x62c (size before relaxing)
 .debug_str     0x0000000000002d71       0x82 /home/zjian_zhang/Dplus_Z/project/realtek_amebaDplus_va0_example/GCC-RELEASE/project_km4/asdk/../toolchain/linux/asdk-10.3.1/linux/newlib/arm-none-eabi/lib/thumb/v8-m.main+fp/fpu/libc.a(lib_a-iswspace.o)
                                        0x250 (size before relaxing)
 .debug_str     0x0000000000002df3      0x15a /home/zjian_zhang/Dplus_Z/project/realtek_amebaDplus_va0_example/GCC-RELEASE/project_km4/asdk/../toolchain/linux/asdk-10.3.1/linux/newlib/arm-none-eabi/lib/thumb/v8-m.main+fp/fpu/libc.a(lib_a-localeconv.o)
                                        0x861 (size before relaxing)
 .debug_str     0x0000000000002f4d       0xa9 /home/zjian_zhang/Dplus_Z/project/realtek_amebaDplus_va0_example/GCC-RELEASE/project_km4/asdk/../toolchain/linux/asdk-10.3.1/linux/newlib/arm-none-eabi/lib/thumb/v8-m.main+fp/fpu/libc.a(lib_a-locale.o)
                                        0x87c (size before relaxing)
 .debug_str     0x0000000000002ff6      0x281 /home/zjian_zhang/Dplus_Z/project/realtek_amebaDplus_va0_example/GCC-RELEASE/project_km4/asdk/../toolchain/linux/asdk-10.3.1/linux/newlib/arm-none-eabi/lib/thumb/v8-m.main+fp/fpu/libc.a(lib_a-lock.o)
                                        0x3e4 (size before relaxing)
 .debug_str     0x0000000000003277       0x7c /home/zjian_zhang/Dplus_Z/project/realtek_amebaDplus_va0_example/GCC-RELEASE/project_km4/asdk/../toolchain/linux/asdk-10.3.1/linux/newlib/arm-none-eabi/lib/thumb/v8-m.main+fp/fpu/libc.a(lib_a-lseekr.o)
                                        0x61e (size before relaxing)
 .debug_str     0x00000000000032f3      0x1a3 /home/zjian_zhang/Dplus_Z/project/realtek_amebaDplus_va0_example/GCC-RELEASE/project_km4/asdk/../toolchain/linux/asdk-10.3.1/linux/newlib/arm-none-eabi/lib/thumb/v8-m.main+fp/fpu/libc.a(lib_a-makebuf.o)
                                        0x7ad (size before relaxing)
 .debug_str     0x0000000000003496      0x62e /home/zjian_zhang/Dplus_Z/project/realtek_amebaDplus_va0_example/GCC-RELEASE/project_km4/asdk/../toolchain/linux/asdk-10.3.1/linux/newlib/arm-none-eabi/lib/thumb/v8-m.main+fp/fpu/libc.a(lib_a-malloc.o)
 .debug_str     0x0000000000003496       0xdf /home/zjian_zhang/Dplus_Z/project/realtek_amebaDplus_va0_example/GCC-RELEASE/project_km4/asdk/../toolchain/linux/asdk-10.3.1/linux/newlib/arm-none-eabi/lib/thumb/v8-m.main+fp/fpu/libc.a(lib_a-mallocr.o)
                                        0x831 (size before relaxing)
 .debug_str     0x0000000000003575       0x86 /home/zjian_zhang/Dplus_Z/project/realtek_amebaDplus_va0_example/GCC-RELEASE/project_km4/asdk/../toolchain/linux/asdk-10.3.1/linux/newlib/arm-none-eabi/lib/thumb/v8-m.main+fp/fpu/libc.a(lib_a-mbrtowc.o)
                                        0x841 (size before relaxing)
 .debug_str     0x00000000000035fb       0x97 /home/zjian_zhang/Dplus_Z/project/realtek_amebaDplus_va0_example/GCC-RELEASE/project_km4/asdk/../toolchain/linux/asdk-10.3.1/linux/newlib/arm-none-eabi/lib/thumb/v8-m.main+fp/fpu/libc.a(lib_a-mbtowc_r.o)
                                        0x841 (size before relaxing)
 .debug_str     0x0000000000003692       0x8e /home/zjian_zhang/Dplus_Z/project/realtek_amebaDplus_va0_example/GCC-RELEASE/project_km4/asdk/../toolchain/linux/asdk-10.3.1/linux/newlib/arm-none-eabi/lib/thumb/v8-m.main+fp/fpu/libc.a(lib_a-memchr-stub.o)
                                        0x27d (size before relaxing)
 .debug_str     0x0000000000003720       0x76 /home/zjian_zhang/Dplus_Z/project/realtek_amebaDplus_va0_example/GCC-RELEASE/project_km4/asdk/../toolchain/linux/asdk-10.3.1/linux/newlib/arm-none-eabi/lib/thumb/v8-m.main+fp/fpu/libc.a(lib_a-memcmp.o)
                                        0x254 (size before relaxing)
 .debug_str     0x0000000000003796       0x90 /home/zjian_zhang/Dplus_Z/project/realtek_amebaDplus_va0_example/GCC-RELEASE/project_km4/asdk/../toolchain/linux/asdk-10.3.1/linux/newlib/arm-none-eabi/lib/thumb/v8-m.main+fp/fpu/libc.a(lib_a-memcpy.o)
                                        0x14c (size before relaxing)
 .debug_str     0x0000000000003826       0x80 /home/zjian_zhang/Dplus_Z/project/realtek_amebaDplus_va0_example/GCC-RELEASE/project_km4/asdk/../toolchain/linux/asdk-10.3.1/linux/newlib/arm-none-eabi/lib/thumb/v8-m.main+fp/fpu/libc.a(lib_a-memmove.o)
                                        0x287 (size before relaxing)
 .debug_str     0x00000000000038a6       0x80 /home/zjian_zhang/Dplus_Z/project/realtek_amebaDplus_va0_example/GCC-RELEASE/project_km4/asdk/../toolchain/linux/asdk-10.3.1/linux/newlib/arm-none-eabi/lib/thumb/v8-m.main+fp/fpu/libc.a(lib_a-memset-stub.o)
                                        0x277 (size before relaxing)
 .debug_str     0x0000000000003926       0x75 /home/zjian_zhang/Dplus_Z/project/realtek_amebaDplus_va0_example/GCC-RELEASE/project_km4/asdk/../toolchain/linux/asdk-10.3.1/linux/newlib/arm-none-eabi/lib/thumb/v8-m.main+fp/fpu/libc.a(lib_a-mlock.o)
                                        0x69d (size before relaxing)
 .debug_str     0x000000000000399b       0xe0 /home/zjian_zhang/Dplus_Z/project/realtek_amebaDplus_va0_example/GCC-RELEASE/project_km4/asdk/../toolchain/linux/asdk-10.3.1/linux/newlib/arm-none-eabi/lib/thumb/v8-m.main+fp/fpu/libc.a(lib_a-mprec.o)
                                        0x931 (size before relaxing)
 .debug_str     0x0000000000003a7b       0x74 /home/zjian_zhang/Dplus_Z/project/realtek_amebaDplus_va0_example/GCC-RELEASE/project_km4/asdk/../toolchain/linux/asdk-10.3.1/linux/newlib/arm-none-eabi/lib/thumb/v8-m.main+fp/fpu/libc.a(lib_a-readr.o)
                                        0x61e (size before relaxing)
 .debug_str     0x0000000000003aef       0x77 /home/zjian_zhang/Dplus_Z/project/realtek_amebaDplus_va0_example/GCC-RELEASE/project_km4/asdk/../toolchain/linux/asdk-10.3.1/linux/newlib/arm-none-eabi/lib/thumb/v8-m.main+fp/fpu/libc.a(lib_a-realloc.o)
                                        0x631 (size before relaxing)
 .debug_str     0x0000000000003b66       0x4e /home/zjian_zhang/Dplus_Z/project/realtek_amebaDplus_va0_example/GCC-RELEASE/project_km4/asdk/../toolchain/linux/asdk-10.3.1/linux/newlib/arm-none-eabi/lib/thumb/v8-m.main+fp/fpu/libc.a(lib_a-reallocr.o)
                                        0x70d (size before relaxing)
 .debug_str     0x0000000000003bb4       0xa0 /home/zjian_zhang/Dplus_Z/project/realtek_amebaDplus_va0_example/GCC-RELEASE/project_km4/asdk/../toolchain/linux/asdk-10.3.1/linux/newlib/arm-none-eabi/lib/thumb/v8-m.main+fp/fpu/libc.a(lib_a-reent.o)
                                        0x64b (size before relaxing)
 .debug_str     0x0000000000003c54       0x7f /home/zjian_zhang/Dplus_Z/project/realtek_amebaDplus_va0_example/GCC-RELEASE/project_km4/asdk/../toolchain/linux/asdk-10.3.1/linux/newlib/arm-none-eabi/lib/thumb/v8-m.main+fp/fpu/libc.a(lib_a-sbrkr.o)
                                        0x623 (size before relaxing)
 .debug_str     0x0000000000003cd3       0x83 /home/zjian_zhang/Dplus_Z/project/realtek_amebaDplus_va0_example/GCC-RELEASE/project_km4/asdk/../toolchain/linux/asdk-10.3.1/linux/newlib/arm-none-eabi/lib/thumb/v8-m.main+fp/fpu/libc.a(lib_a-sccl.o)
                                        0x259 (size before relaxing)
 .debug_str     0x0000000000003d56      0x1be /home/zjian_zhang/Dplus_Z/project/realtek_amebaDplus_va0_example/GCC-RELEASE/project_km4/asdk/../toolchain/linux/asdk-10.3.1/linux/newlib/arm-none-eabi/lib/thumb/v8-m.main+fp/fpu/libc.a(lib_a-sf_nan.o)
                                        0x26c (size before relaxing)
 .debug_str     0x0000000000003f14      0x16b /home/zjian_zhang/Dplus_Z/project/realtek_amebaDplus_va0_example/GCC-RELEASE/project_km4/asdk/../toolchain/linux/asdk-10.3.1/linux/newlib/arm-none-eabi/lib/thumb/v8-m.main+fp/fpu/libc.a(lib_a-s_frexp.o)
                                        0x2b5 (size before relaxing)
 .debug_str     0x000000000000407f       0x82 /home/zjian_zhang/Dplus_Z/project/realtek_amebaDplus_va0_example/GCC-RELEASE/project_km4/asdk/../toolchain/linux/asdk-10.3.1/linux/newlib/arm-none-eabi/lib/thumb/v8-m.main+fp/fpu/libc.a(lib_a-strcmp.o)
                                        0x14c (size before relaxing)
 .debug_str     0x0000000000004101       0x77 /home/zjian_zhang/Dplus_Z/project/realtek_amebaDplus_va0_example/GCC-RELEASE/project_km4/asdk/../toolchain/linux/asdk-10.3.1/linux/newlib/arm-none-eabi/lib/thumb/v8-m.main+fp/fpu/libc.a(lib_a-strnlen.o)
                                        0x25c (size before relaxing)
 .debug_str     0x0000000000004178      0x282 /home/zjian_zhang/Dplus_Z/project/realtek_amebaDplus_va0_example/GCC-RELEASE/project_km4/asdk/../toolchain/linux/asdk-10.3.1/linux/newlib/arm-none-eabi/lib/thumb/v8-m.main+fp/fpu/libc.a(lib_a-strtod.o)
                                        0xbe5 (size before relaxing)
 .debug_str     0x00000000000043fa       0x8a /home/zjian_zhang/Dplus_Z/project/realtek_amebaDplus_va0_example/GCC-RELEASE/project_km4/asdk/../toolchain/linux/asdk-10.3.1/linux/newlib/arm-none-eabi/lib/thumb/v8-m.main+fp/fpu/libc.a(lib_a-strtoll.o)
                                        0x8aa (size before relaxing)
 .debug_str     0x0000000000004484       0x8d /home/zjian_zhang/Dplus_Z/project/realtek_amebaDplus_va0_example/GCC-RELEASE/project_km4/asdk/../toolchain/linux/asdk-10.3.1/linux/newlib/arm-none-eabi/lib/thumb/v8-m.main+fp/fpu/libc.a(lib_a-strtoull.o)
                                        0x8af (size before relaxing)
 .debug_str     0x0000000000004511       0x95 /home/zjian_zhang/Dplus_Z/project/realtek_amebaDplus_va0_example/GCC-RELEASE/project_km4/asdk/../toolchain/linux/asdk-10.3.1/linux/newlib/arm-none-eabi/lib/thumb/v8-m.main+fp/fpu/libc.a(lib_a-strtoul.o)
                                        0x899 (size before relaxing)
 .debug_str     0x00000000000045a6        0xe /home/zjian_zhang/Dplus_Z/project/realtek_amebaDplus_va0_example/GCC-RELEASE/project_km4/asdk/../toolchain/linux/asdk-10.3.1/linux/newlib/arm-none-eabi/lib/thumb/v8-m.main+fp/fpu/libc.a(lib_a-svfiprintf.o)
                                        0x9b1 (size before relaxing)
 .debug_str     0x00000000000045b4       0x1f /home/zjian_zhang/Dplus_Z/project/realtek_amebaDplus_va0_example/GCC-RELEASE/project_km4/asdk/../toolchain/linux/asdk-10.3.1/linux/newlib/arm-none-eabi/lib/thumb/v8-m.main+fp/fpu/libc.a(lib_a-svfiscanf.o)
                                        0xa45 (size before relaxing)
 .debug_str     0x00000000000045d3       0x86 /home/zjian_zhang/Dplus_Z/project/realtek_amebaDplus_va0_example/GCC-RELEASE/project_km4/asdk/../toolchain/linux/asdk-10.3.1/linux/newlib/arm-none-eabi/lib/thumb/v8-m.main+fp/fpu/libc.a(lib_a-ungetc.o)
                                        0x6bb (size before relaxing)
 .debug_str     0x0000000000004659       0x21 /home/zjian_zhang/Dplus_Z/project/realtek_amebaDplus_va0_example/GCC-RELEASE/project_km4/asdk/../toolchain/linux/asdk-10.3.1/linux/newlib/arm-none-eabi/lib/thumb/v8-m.main+fp/fpu/libc.a(lib_a-vfiprintf.o)
                                        0xa6e (size before relaxing)
 .debug_str     0x000000000000467a       0x98 /home/zjian_zhang/Dplus_Z/project/realtek_amebaDplus_va0_example/GCC-RELEASE/project_km4/asdk/../toolchain/linux/asdk-10.3.1/linux/newlib/arm-none-eabi/lib/thumb/v8-m.main+fp/fpu/libc.a(lib_a-wctomb_r.o)
                                        0x848 (size before relaxing)
 .debug_str     0x0000000000004712       0x95 /home/zjian_zhang/Dplus_Z/project/realtek_amebaDplus_va0_example/GCC-RELEASE/project_km4/asdk/../toolchain/linux/asdk-10.3.1/linux/newlib/arm-none-eabi/lib/thumb/v8-m.main+fp/fpu/libc.a(lib_a-assert.o)
                                        0x64f (size before relaxing)
 .debug_str     0x00000000000047a7        0xf /home/zjian_zhang/Dplus_Z/project/realtek_amebaDplus_va0_example/GCC-RELEASE/project_km4/asdk/../toolchain/linux/asdk-10.3.1/linux/newlib/arm-none-eabi/lib/thumb/v8-m.main+fp/fpu/libc.a(lib_a-callocr.o)
                                        0x66d (size before relaxing)
 .debug_str     0x00000000000047b6       0x86 /home/zjian_zhang/Dplus_Z/project/realtek_amebaDplus_va0_example/GCC-RELEASE/project_km4/asdk/../toolchain/linux/asdk-10.3.1/linux/newlib/arm-none-eabi/lib/thumb/v8-m.main+fp/fpu/libc.a(lib_a-fclose.o)
                                        0x6dd (size before relaxing)
 .debug_str     0x000000000000483c       0x83 /home/zjian_zhang/Dplus_Z/project/realtek_amebaDplus_va0_example/GCC-RELEASE/project_km4/asdk/../toolchain/linux/asdk-10.3.1/linux/newlib/arm-none-eabi/lib/thumb/v8-m.main+fp/fpu/libc.a(lib_a-fiprintf.o)
                                        0x65c (size before relaxing)
 .debug_str     0x00000000000048bf       0x89 /home/zjian_zhang/Dplus_Z/project/realtek_amebaDplus_va0_example/GCC-RELEASE/project_km4/asdk/../toolchain/linux/asdk-10.3.1/linux/newlib/arm-none-eabi/lib/thumb/v8-m.main+fp/fpu/libc.a(lib_a-fputwc.o)
                                        0x6d5 (size before relaxing)
 .debug_str     0x0000000000004948       0x82 /home/zjian_zhang/Dplus_Z/project/realtek_amebaDplus_va0_example/GCC-RELEASE/project_km4/asdk/../toolchain/linux/asdk-10.3.1/linux/newlib/arm-none-eabi/lib/thumb/v8-m.main+fp/fpu/libc.a(lib_a-fstatr.o)
                                        0x762 (size before relaxing)
 .debug_str     0x00000000000049ca      0x10f /home/zjian_zhang/Dplus_Z/project/realtek_amebaDplus_va0_example/GCC-RELEASE/project_km4/asdk/../toolchain/linux/asdk-10.3.1/linux/newlib/arm-none-eabi/lib/thumb/v8-m.main+fp/fpu/libc.a(lib_a-gdtoa-gethex.o)
                                        0xa4b (size before relaxing)
 .debug_str     0x0000000000004ad9       0x84 /home/zjian_zhang/Dplus_Z/project/realtek_amebaDplus_va0_example/GCC-RELEASE/project_km4/asdk/../toolchain/linux/asdk-10.3.1/linux/newlib/arm-none-eabi/lib/thumb/v8-m.main+fp/fpu/libc.a(lib_a-gdtoa-hexnan.o)
                                        0x383 (size before relaxing)
 .debug_str     0x0000000000004b5d       0x7e /home/zjian_zhang/Dplus_Z/project/realtek_amebaDplus_va0_example/GCC-RELEASE/project_km4/asdk/../toolchain/linux/asdk-10.3.1/linux/newlib/arm-none-eabi/lib/thumb/v8-m.main+fp/fpu/libc.a(lib_a-isattyr.o)
                                        0x61a (size before relaxing)
 .debug_str     0x0000000000004bdb       0x79 /home/zjian_zhang/Dplus_Z/project/realtek_amebaDplus_va0_example/GCC-RELEASE/project_km4/asdk/../toolchain/linux/asdk-10.3.1/linux/newlib/arm-none-eabi/lib/thumb/v8-m.main+fp/fpu/libc.a(lib_a-iswspace_l.o)
                                        0x7fd (size before relaxing)
 .debug_str     0x0000000000004c54       0xb2 /home/zjian_zhang/Dplus_Z/project/realtek_amebaDplus_va0_example/GCC-RELEASE/project_km4/asdk/../toolchain/linux/asdk-10.3.1/linux/newlib/arm-none-eabi/lib/thumb/v8-m.main+fp/fpu/libc.a(lib_a-lnumeric.o)
                                        0x843 (size before relaxing)
 .debug_str     0x0000000000004d06       0x75 /home/zjian_zhang/Dplus_Z/project/realtek_amebaDplus_va0_example/GCC-RELEASE/project_km4/asdk/../toolchain/linux/asdk-10.3.1/linux/newlib/arm-none-eabi/lib/thumb/v8-m.main+fp/fpu/libc.a(lib_a-s_nan.o)
                                        0x266 (size before relaxing)
 .debug_str     0x0000000000004d7b       0x7f /home/zjian_zhang/Dplus_Z/project/realtek_amebaDplus_va0_example/GCC-RELEASE/project_km4/asdk/../toolchain/linux/asdk-10.3.1/linux/newlib/arm-none-eabi/lib/thumb/v8-m.main+fp/fpu/libc.a(lib_a-wcrtomb.o)
                                        0x841 (size before relaxing)
 .debug_str     0x0000000000004dfa       0x81 /home/zjian_zhang/Dplus_Z/project/realtek_amebaDplus_va0_example/GCC-RELEASE/project_km4/asdk/../toolchain/linux/asdk-10.3.1/linux/newlib/arm-none-eabi/lib/thumb/v8-m.main+fp/fpu/libc.a(lib_a-abort.o)
                                        0x257 (size before relaxing)
 .debug_str     0x0000000000004e7b      0x193 /home/zjian_zhang/Dplus_Z/project/realtek_amebaDplus_va0_example/GCC-RELEASE/project_km4/asdk/../toolchain/linux/asdk-10.3.1/linux/newlib/arm-none-eabi/lib/thumb/v8-m.main+fp/fpu/libc.a(lib_a-signal.o)
                                        0x69b (size before relaxing)
 .debug_str     0x000000000000500e       0x84 /home/zjian_zhang/Dplus_Z/project/realtek_amebaDplus_va0_example/GCC-RELEASE/project_km4/asdk/../toolchain/linux/asdk-10.3.1/linux/newlib/arm-none-eabi/lib/thumb/v8-m.main+fp/fpu/libc.a(lib_a-signalr.o)
                                        0x628 (size before relaxing)
 .debug_str     0x0000000000005092      0x11d /home/zjian_zhang/Dplus_Z/project/realtek_amebaDplus_va0_example/GCC-RELEASE/project_km4/asdk/../toolchain/linux/asdk-10.3.1/linux/newlib/lib/gcc/arm-none-eabi/10.3.1/thumb/v8-m.main+fp/fpu/libgcc.a(_arm_muldf3.o)
                                        0x12b (size before relaxing)
 .debug_str     0x00000000000051af      0x12b /home/zjian_zhang/Dplus_Z/project/realtek_amebaDplus_va0_example/GCC-RELEASE/project_km4/asdk/../toolchain/linux/asdk-10.3.1/linux/newlib/lib/gcc/arm-none-eabi/10.3.1/thumb/v8-m.main+fp/fpu/libgcc.a(_arm_addsubdf3.o)
 .debug_str     0x00000000000051af      0x12b /home/zjian_zhang/Dplus_Z/project/realtek_amebaDplus_va0_example/GCC-RELEASE/project_km4/asdk/../toolchain/linux/asdk-10.3.1/linux/newlib/lib/gcc/arm-none-eabi/10.3.1/thumb/v8-m.main+fp/fpu/libgcc.a(_arm_muldivdf3.o)
 .debug_str     0x00000000000051af      0x12b /home/zjian_zhang/Dplus_Z/project/realtek_amebaDplus_va0_example/GCC-RELEASE/project_km4/asdk/../toolchain/linux/asdk-10.3.1/linux/newlib/lib/gcc/arm-none-eabi/10.3.1/thumb/v8-m.main+fp/fpu/libgcc.a(_arm_cmpdf2.o)
 .debug_str     0x00000000000051af      0x12b /home/zjian_zhang/Dplus_Z/project/realtek_amebaDplus_va0_example/GCC-RELEASE/project_km4/asdk/../toolchain/linux/asdk-10.3.1/linux/newlib/lib/gcc/arm-none-eabi/10.3.1/thumb/v8-m.main+fp/fpu/libgcc.a(_arm_unorddf2.o)
 .debug_str     0x00000000000051af      0x12b /home/zjian_zhang/Dplus_Z/project/realtek_amebaDplus_va0_example/GCC-RELEASE/project_km4/asdk/../toolchain/linux/asdk-10.3.1/linux/newlib/lib/gcc/arm-none-eabi/10.3.1/thumb/v8-m.main+fp/fpu/libgcc.a(_arm_fixdfsi.o)
 .debug_str     0x00000000000051af      0x12b /home/zjian_zhang/Dplus_Z/project/realtek_amebaDplus_va0_example/GCC-RELEASE/project_km4/asdk/../toolchain/linux/asdk-10.3.1/linux/newlib/lib/gcc/arm-none-eabi/10.3.1/thumb/v8-m.main+fp/fpu/libgcc.a(_arm_fixunsdfsi.o)
 .debug_str     0x00000000000051af      0x12b /home/zjian_zhang/Dplus_Z/project/realtek_amebaDplus_va0_example/GCC-RELEASE/project_km4/asdk/../toolchain/linux/asdk-10.3.1/linux/newlib/lib/gcc/arm-none-eabi/10.3.1/thumb/v8-m.main+fp/fpu/libgcc.a(_arm_truncdfsf2.o)
 .debug_str     0x00000000000051af       0x70 /home/zjian_zhang/Dplus_Z/project/realtek_amebaDplus_va0_example/GCC-RELEASE/project_km4/asdk/../toolchain/linux/asdk-10.3.1/linux/newlib/lib/gcc/arm-none-eabi/10.3.1/thumb/v8-m.main+fp/fpu/libgcc.a(_aeabi_uldivmod.o)
                                        0x126 (size before relaxing)
 .debug_str     0x000000000000521f      0x579 /home/zjian_zhang/Dplus_Z/project/realtek_amebaDplus_va0_example/GCC-RELEASE/project_km4/asdk/../toolchain/linux/asdk-10.3.1/linux/newlib/lib/gcc/arm-none-eabi/10.3.1/thumb/v8-m.main+fp/fpu/libgcc.a(_fixdfdi.o)
                                        0x6be (size before relaxing)
 .debug_str     0x0000000000005798       0x10 /home/zjian_zhang/Dplus_Z/project/realtek_amebaDplus_va0_example/GCC-RELEASE/project_km4/asdk/../toolchain/linux/asdk-10.3.1/linux/newlib/lib/gcc/arm-none-eabi/10.3.1/thumb/v8-m.main+fp/fpu/libgcc.a(_fixunsdfdi.o)
                                        0x6d5 (size before relaxing)
 .debug_str     0x00000000000057a8      0x111 /home/zjian_zhang/Dplus_Z/project/realtek_amebaDplus_va0_example/GCC-RELEASE/project_km4/asdk/../toolchain/linux/asdk-10.3.1/linux/newlib/lib/gcc/arm-none-eabi/10.3.1/thumb/v8-m.main+fp/fpu/libgcc.a(_udivmoddi4.o)
                                        0x6ed (size before relaxing)
 .debug_str     0x00000000000058b9       0x74 /home/zjian_zhang/Dplus_Z/project/realtek_amebaDplus_va0_example/GCC-RELEASE/project_km4/asdk/../toolchain/linux/asdk-10.3.1/linux/newlib/lib/gcc/arm-none-eabi/10.3.1/thumb/v8-m.main+fp/fpu/libgcc.a(_dvmd_tls.o)
                                        0x12a (size before relaxing)
 .debug_str     0x000000000000592d      0x1a5 /home/zjian_zhang/Dplus_Z/project/realtek_amebaDplus_va0_example/GCC-RELEASE/project_km4/asdk/../toolchain/linux/asdk-10.3.1/linux/newlib/arm-none-eabi/lib/thumb/v8-m.main+fp/fpu/libnosys.a(close.o)
                                        0x247 (size before relaxing)
 .debug_str     0x0000000000005ad2       0x74 /home/zjian_zhang/Dplus_Z/project/realtek_amebaDplus_va0_example/GCC-RELEASE/project_km4/asdk/../toolchain/linux/asdk-10.3.1/linux/newlib/arm-none-eabi/lib/thumb/v8-m.main+fp/fpu/libnosys.a(fstat.o)
                                        0x393 (size before relaxing)
 .debug_str     0x0000000000005b46       0x75 /home/zjian_zhang/Dplus_Z/project/realtek_amebaDplus_va0_example/GCC-RELEASE/project_km4/asdk/../toolchain/linux/asdk-10.3.1/linux/newlib/arm-none-eabi/lib/thumb/v8-m.main+fp/fpu/libnosys.a(getpid.o)
                                        0x242 (size before relaxing)
 .debug_str     0x0000000000005bbb       0x75 /home/zjian_zhang/Dplus_Z/project/realtek_amebaDplus_va0_example/GCC-RELEASE/project_km4/asdk/../toolchain/linux/asdk-10.3.1/linux/newlib/arm-none-eabi/lib/thumb/v8-m.main+fp/fpu/libnosys.a(isatty.o)
                                        0x247 (size before relaxing)
 .debug_str     0x0000000000005c30       0x73 /home/zjian_zhang/Dplus_Z/project/realtek_amebaDplus_va0_example/GCC-RELEASE/project_km4/asdk/../toolchain/linux/asdk-10.3.1/linux/newlib/arm-none-eabi/lib/thumb/v8-m.main+fp/fpu/libnosys.a(kill.o)
                                        0x23e (size before relaxing)
 .debug_str     0x0000000000005ca3       0x74 /home/zjian_zhang/Dplus_Z/project/realtek_amebaDplus_va0_example/GCC-RELEASE/project_km4/asdk/../toolchain/linux/asdk-10.3.1/linux/newlib/arm-none-eabi/lib/thumb/v8-m.main+fp/fpu/libnosys.a(lseek.o)
                                        0x245 (size before relaxing)
 .debug_str     0x0000000000005d17       0x81 /home/zjian_zhang/Dplus_Z/project/realtek_amebaDplus_va0_example/GCC-RELEASE/project_km4/asdk/../toolchain/linux/asdk-10.3.1/linux/newlib/arm-none-eabi/lib/thumb/v8-m.main+fp/fpu/libnosys.a(sbrk.o)
                                        0x1c4 (size before relaxing)
 .debug_str     0x0000000000005d98       0x74 /home/zjian_zhang/Dplus_Z/project/realtek_amebaDplus_va0_example/GCC-RELEASE/project_km4/asdk/../toolchain/linux/asdk-10.3.1/linux/newlib/arm-none-eabi/lib/thumb/v8-m.main+fp/fpu/libnosys.a(_exit.o)
                                        0x234 (size before relaxing)

.comment        0x0000000000000000       0x36
 .comment       0x0000000000000000       0x36 ./build/stdlib/stdlib_link.o
                                         0x37 (size before relaxing)
 .comment       0x0000000000000036       0x37 /home/zjian_zhang/Dplus_Z/project/realtek_amebaDplus_va0_example/GCC-RELEASE/project_km4/asdk/../toolchain/linux/asdk-10.3.1/linux/newlib/arm-none-eabi/lib/thumb/v8-m.main+fp/fpu/libc.a(lib_a-atoi.o)
 .comment       0x0000000000000036       0x37 /home/zjian_zhang/Dplus_Z/project/realtek_amebaDplus_va0_example/GCC-RELEASE/project_km4/asdk/../toolchain/linux/asdk-10.3.1/linux/newlib/arm-none-eabi/lib/thumb/v8-m.main+fp/fpu/libc.a(lib_a-printf.o)
 .comment       0x0000000000000036       0x37 /home/zjian_zhang/Dplus_Z/project/realtek_amebaDplus_va0_example/GCC-RELEASE/project_km4/asdk/../toolchain/linux/asdk-10.3.1/linux/newlib/arm-none-eabi/lib/thumb/v8-m.main+fp/fpu/libc.a(lib_a-putchar.o)
 .comment       0x0000000000000036       0x37 /home/zjian_zhang/Dplus_Z/project/realtek_amebaDplus_va0_example/GCC-RELEASE/project_km4/asdk/../toolchain/linux/asdk-10.3.1/linux/newlib/arm-none-eabi/lib/thumb/v8-m.main+fp/fpu/libc.a(lib_a-putc.o)
 .comment       0x0000000000000036       0x37 /home/zjian_zhang/Dplus_Z/project/realtek_amebaDplus_va0_example/GCC-RELEASE/project_km4/asdk/../toolchain/linux/asdk-10.3.1/linux/newlib/arm-none-eabi/lib/thumb/v8-m.main+fp/fpu/libc.a(lib_a-puts.o)
 .comment       0x0000000000000036       0x37 /home/zjian_zhang/Dplus_Z/project/realtek_amebaDplus_va0_example/GCC-RELEASE/project_km4/asdk/../toolchain/linux/asdk-10.3.1/linux/newlib/arm-none-eabi/lib/thumb/v8-m.main+fp/fpu/libc.a(lib_a-snprintf.o)
 .comment       0x0000000000000036       0x37 /home/zjian_zhang/Dplus_Z/project/realtek_amebaDplus_va0_example/GCC-RELEASE/project_km4/asdk/../toolchain/linux/asdk-10.3.1/linux/newlib/arm-none-eabi/lib/thumb/v8-m.main+fp/fpu/libc.a(lib_a-sprintf.o)
 .comment       0x0000000000000036       0x37 /home/zjian_zhang/Dplus_Z/project/realtek_amebaDplus_va0_example/GCC-RELEASE/project_km4/asdk/../toolchain/linux/asdk-10.3.1/linux/newlib/arm-none-eabi/lib/thumb/v8-m.main+fp/fpu/libc.a(lib_a-sscanf.o)
 .comment       0x0000000000000036       0x37 /home/zjian_zhang/Dplus_Z/project/realtek_amebaDplus_va0_example/GCC-RELEASE/project_km4/asdk/../toolchain/linux/asdk-10.3.1/linux/newlib/arm-none-eabi/lib/thumb/v8-m.main+fp/fpu/libc.a(lib_a-stdio.o)
 .comment       0x0000000000000036       0x37 /home/zjian_zhang/Dplus_Z/project/realtek_amebaDplus_va0_example/GCC-RELEASE/project_km4/asdk/../toolchain/linux/asdk-10.3.1/linux/newlib/arm-none-eabi/lib/thumb/v8-m.main+fp/fpu/libc.a(lib_a-strcat.o)
 .comment       0x0000000000000036       0x37 /home/zjian_zhang/Dplus_Z/project/realtek_amebaDplus_va0_example/GCC-RELEASE/project_km4/asdk/../toolchain/linux/asdk-10.3.1/linux/newlib/arm-none-eabi/lib/thumb/v8-m.main+fp/fpu/libc.a(lib_a-strchr.o)
 .comment       0x0000000000000036       0x37 /home/zjian_zhang/Dplus_Z/project/realtek_amebaDplus_va0_example/GCC-RELEASE/project_km4/asdk/../toolchain/linux/asdk-10.3.1/linux/newlib/arm-none-eabi/lib/thumb/v8-m.main+fp/fpu/libc.a(lib_a-strcpy.o)
 .comment       0x0000000000000036       0x37 /home/zjian_zhang/Dplus_Z/project/realtek_amebaDplus_va0_example/GCC-RELEASE/project_km4/asdk/../toolchain/linux/asdk-10.3.1/linux/newlib/arm-none-eabi/lib/thumb/v8-m.main+fp/fpu/libc.a(lib_a-strlen-stub.o)
 .comment       0x0000000000000036       0x37 /home/zjian_zhang/Dplus_Z/project/realtek_amebaDplus_va0_example/GCC-RELEASE/project_km4/asdk/../toolchain/linux/asdk-10.3.1/linux/newlib/arm-none-eabi/lib/thumb/v8-m.main+fp/fpu/libc.a(lib_a-strncat.o)
 .comment       0x0000000000000036       0x37 /home/zjian_zhang/Dplus_Z/project/realtek_amebaDplus_va0_example/GCC-RELEASE/project_km4/asdk/../toolchain/linux/asdk-10.3.1/linux/newlib/arm-none-eabi/lib/thumb/v8-m.main+fp/fpu/libc.a(lib_a-strncmp.o)
 .comment       0x0000000000000036       0x37 /home/zjian_zhang/Dplus_Z/project/realtek_amebaDplus_va0_example/GCC-RELEASE/project_km4/asdk/../toolchain/linux/asdk-10.3.1/linux/newlib/arm-none-eabi/lib/thumb/v8-m.main+fp/fpu/libc.a(lib_a-strncpy.o)
 .comment       0x0000000000000036       0x37 /home/zjian_zhang/Dplus_Z/project/realtek_amebaDplus_va0_example/GCC-RELEASE/project_km4/asdk/../toolchain/linux/asdk-10.3.1/linux/newlib/arm-none-eabi/lib/thumb/v8-m.main+fp/fpu/libc.a(lib_a-strpbrk.o)
 .comment       0x0000000000000036       0x37 /home/zjian_zhang/Dplus_Z/project/realtek_amebaDplus_va0_example/GCC-RELEASE/project_km4/asdk/../toolchain/linux/asdk-10.3.1/linux/newlib/arm-none-eabi/lib/thumb/v8-m.main+fp/fpu/libc.a(lib_a-strsep.o)
 .comment       0x0000000000000036       0x37 /home/zjian_zhang/Dplus_Z/project/realtek_amebaDplus_va0_example/GCC-RELEASE/project_km4/asdk/../toolchain/linux/asdk-10.3.1/linux/newlib/arm-none-eabi/lib/thumb/v8-m.main+fp/fpu/libc.a(lib_a-strstr.o)
 .comment       0x0000000000000036       0x37 /home/zjian_zhang/Dplus_Z/project/realtek_amebaDplus_va0_example/GCC-RELEASE/project_km4/asdk/../toolchain/linux/asdk-10.3.1/linux/newlib/arm-none-eabi/lib/thumb/v8-m.main+fp/fpu/libc.a(lib_a-strtok.o)
 .comment       0x0000000000000036       0x37 /home/zjian_zhang/Dplus_Z/project/realtek_amebaDplus_va0_example/GCC-RELEASE/project_km4/asdk/../toolchain/linux/asdk-10.3.1/linux/newlib/arm-none-eabi/lib/thumb/v8-m.main+fp/fpu/libc.a(lib_a-strtok_r.o)
 .comment       0x0000000000000036       0x37 /home/zjian_zhang/Dplus_Z/project/realtek_amebaDplus_va0_example/GCC-RELEASE/project_km4/asdk/../toolchain/linux/asdk-10.3.1/linux/newlib/arm-none-eabi/lib/thumb/v8-m.main+fp/fpu/libc.a(lib_a-strtol.o)
 .comment       0x0000000000000036       0x37 /home/zjian_zhang/Dplus_Z/project/realtek_amebaDplus_va0_example/GCC-RELEASE/project_km4/asdk/../toolchain/linux/asdk-10.3.1/linux/newlib/arm-none-eabi/lib/thumb/v8-m.main+fp/fpu/libc.a(lib_a-svfprintf.o)
 .comment       0x0000000000000036       0x37 /home/zjian_zhang/Dplus_Z/project/realtek_amebaDplus_va0_example/GCC-RELEASE/project_km4/asdk/../toolchain/linux/asdk-10.3.1/linux/newlib/arm-none-eabi/lib/thumb/v8-m.main+fp/fpu/libc.a(lib_a-svfscanf.o)
 .comment       0x0000000000000036       0x37 /home/zjian_zhang/Dplus_Z/project/realtek_amebaDplus_va0_example/GCC-RELEASE/project_km4/asdk/../toolchain/linux/asdk-10.3.1/linux/newlib/arm-none-eabi/lib/thumb/v8-m.main+fp/fpu/libc.a(lib_a-vfprintf.o)
 .comment       0x0000000000000036       0x37 /home/zjian_zhang/Dplus_Z/project/realtek_amebaDplus_va0_example/GCC-RELEASE/project_km4/asdk/../toolchain/linux/asdk-10.3.1/linux/newlib/arm-none-eabi/lib/thumb/v8-m.main+fp/fpu/libc.a(lib_a-vsnprintf.o)
 .comment       0x0000000000000036       0x37 /home/zjian_zhang/Dplus_Z/project/realtek_amebaDplus_va0_example/GCC-RELEASE/project_km4/asdk/../toolchain/linux/asdk-10.3.1/linux/newlib/arm-none-eabi/lib/thumb/v8-m.main+fp/fpu/libc.a(lib_a-wbuf.o)
 .comment       0x0000000000000036       0x37 /home/zjian_zhang/Dplus_Z/project/realtek_amebaDplus_va0_example/GCC-RELEASE/project_km4/asdk/../toolchain/linux/asdk-10.3.1/linux/newlib/arm-none-eabi/lib/thumb/v8-m.main+fp/fpu/libc.a(lib_a-writer.o)
 .comment       0x0000000000000036       0x37 /home/zjian_zhang/Dplus_Z/project/realtek_amebaDplus_va0_example/GCC-RELEASE/project_km4/asdk/../toolchain/linux/asdk-10.3.1/linux/newlib/arm-none-eabi/lib/thumb/v8-m.main+fp/fpu/libc.a(lib_a-wsetup.o)
 .comment       0x0000000000000036       0x37 /home/zjian_zhang/Dplus_Z/project/realtek_amebaDplus_va0_example/GCC-RELEASE/project_km4/asdk/../toolchain/linux/asdk-10.3.1/linux/newlib/arm-none-eabi/lib/thumb/v8-m.main+fp/fpu/libc.a(lib_a-closer.o)
 .comment       0x0000000000000036       0x37 /home/zjian_zhang/Dplus_Z/project/realtek_amebaDplus_va0_example/GCC-RELEASE/project_km4/asdk/../toolchain/linux/asdk-10.3.1/linux/newlib/arm-none-eabi/lib/thumb/v8-m.main+fp/fpu/libc.a(lib_a-ctype_.o)
 .comment       0x0000000000000036       0x37 /home/zjian_zhang/Dplus_Z/project/realtek_amebaDplus_va0_example/GCC-RELEASE/project_km4/asdk/../toolchain/linux/asdk-10.3.1/linux/newlib/arm-none-eabi/lib/thumb/v8-m.main+fp/fpu/libc.a(lib_a-dtoa.o)
 .comment       0x0000000000000036       0x37 /home/zjian_zhang/Dplus_Z/project/realtek_amebaDplus_va0_example/GCC-RELEASE/project_km4/asdk/../toolchain/linux/asdk-10.3.1/linux/newlib/arm-none-eabi/lib/thumb/v8-m.main+fp/fpu/libc.a(lib_a-errno.o)
 .comment       0x0000000000000036       0x37 /home/zjian_zhang/Dplus_Z/project/realtek_amebaDplus_va0_example/GCC-RELEASE/project_km4/asdk/../toolchain/linux/asdk-10.3.1/linux/newlib/arm-none-eabi/lib/thumb/v8-m.main+fp/fpu/libc.a(lib_a-fflush.o)
 .comment       0x0000000000000036       0x37 /home/zjian_zhang/Dplus_Z/project/realtek_amebaDplus_va0_example/GCC-RELEASE/project_km4/asdk/../toolchain/linux/asdk-10.3.1/linux/newlib/arm-none-eabi/lib/thumb/v8-m.main+fp/fpu/libc.a(lib_a-findfp.o)
 .comment       0x0000000000000036       0x37 /home/zjian_zhang/Dplus_Z/project/realtek_amebaDplus_va0_example/GCC-RELEASE/project_km4/asdk/../toolchain/linux/asdk-10.3.1/linux/newlib/arm-none-eabi/lib/thumb/v8-m.main+fp/fpu/libc.a(lib_a-free.o)
 .comment       0x0000000000000036       0x37 /home/zjian_zhang/Dplus_Z/project/realtek_amebaDplus_va0_example/GCC-RELEASE/project_km4/asdk/../toolchain/linux/asdk-10.3.1/linux/newlib/arm-none-eabi/lib/thumb/v8-m.main+fp/fpu/libc.a(lib_a-freer.o)
 .comment       0x0000000000000036       0x37 /home/zjian_zhang/Dplus_Z/project/realtek_amebaDplus_va0_example/GCC-RELEASE/project_km4/asdk/../toolchain/linux/asdk-10.3.1/linux/newlib/arm-none-eabi/lib/thumb/v8-m.main+fp/fpu/libc.a(lib_a-fvwrite.o)
 .comment       0x0000000000000036       0x37 /home/zjian_zhang/Dplus_Z/project/realtek_amebaDplus_va0_example/GCC-RELEASE/project_km4/asdk/../toolchain/linux/asdk-10.3.1/linux/newlib/arm-none-eabi/lib/thumb/v8-m.main+fp/fpu/libc.a(lib_a-fwalk.o)
 .comment       0x0000000000000036       0x37 /home/zjian_zhang/Dplus_Z/project/realtek_amebaDplus_va0_example/GCC-RELEASE/project_km4/asdk/../toolchain/linux/asdk-10.3.1/linux/newlib/arm-none-eabi/lib/thumb/v8-m.main+fp/fpu/libc.a(lib_a-impure.o)
 .comment       0x0000000000000036       0x37 /home/zjian_zhang/Dplus_Z/project/realtek_amebaDplus_va0_example/GCC-RELEASE/project_km4/asdk/../toolchain/linux/asdk-10.3.1/linux/newlib/arm-none-eabi/lib/thumb/v8-m.main+fp/fpu/libc.a(lib_a-iswspace.o)
 .comment       0x0000000000000036       0x37 /home/zjian_zhang/Dplus_Z/project/realtek_amebaDplus_va0_example/GCC-RELEASE/project_km4/asdk/../toolchain/linux/asdk-10.3.1/linux/newlib/arm-none-eabi/lib/thumb/v8-m.main+fp/fpu/libc.a(lib_a-localeconv.o)
 .comment       0x0000000000000036       0x37 /home/zjian_zhang/Dplus_Z/project/realtek_amebaDplus_va0_example/GCC-RELEASE/project_km4/asdk/../toolchain/linux/asdk-10.3.1/linux/newlib/arm-none-eabi/lib/thumb/v8-m.main+fp/fpu/libc.a(lib_a-locale.o)
 .comment       0x0000000000000036       0x37 /home/zjian_zhang/Dplus_Z/project/realtek_amebaDplus_va0_example/GCC-RELEASE/project_km4/asdk/../toolchain/linux/asdk-10.3.1/linux/newlib/arm-none-eabi/lib/thumb/v8-m.main+fp/fpu/libc.a(lib_a-lock.o)
 .comment       0x0000000000000036       0x37 /home/zjian_zhang/Dplus_Z/project/realtek_amebaDplus_va0_example/GCC-RELEASE/project_km4/asdk/../toolchain/linux/asdk-10.3.1/linux/newlib/arm-none-eabi/lib/thumb/v8-m.main+fp/fpu/libc.a(lib_a-lseekr.o)
 .comment       0x0000000000000036       0x37 /home/zjian_zhang/Dplus_Z/project/realtek_amebaDplus_va0_example/GCC-RELEASE/project_km4/asdk/../toolchain/linux/asdk-10.3.1/linux/newlib/arm-none-eabi/lib/thumb/v8-m.main+fp/fpu/libc.a(lib_a-makebuf.o)
 .comment       0x0000000000000036       0x37 /home/zjian_zhang/Dplus_Z/project/realtek_amebaDplus_va0_example/GCC-RELEASE/project_km4/asdk/../toolchain/linux/asdk-10.3.1/linux/newlib/arm-none-eabi/lib/thumb/v8-m.main+fp/fpu/libc.a(lib_a-malloc.o)
 .comment       0x0000000000000036       0x37 /home/zjian_zhang/Dplus_Z/project/realtek_amebaDplus_va0_example/GCC-RELEASE/project_km4/asdk/../toolchain/linux/asdk-10.3.1/linux/newlib/arm-none-eabi/lib/thumb/v8-m.main+fp/fpu/libc.a(lib_a-mallocr.o)
 .comment       0x0000000000000036       0x37 /home/zjian_zhang/Dplus_Z/project/realtek_amebaDplus_va0_example/GCC-RELEASE/project_km4/asdk/../toolchain/linux/asdk-10.3.1/linux/newlib/arm-none-eabi/lib/thumb/v8-m.main+fp/fpu/libc.a(lib_a-mbrtowc.o)
 .comment       0x0000000000000036       0x37 /home/zjian_zhang/Dplus_Z/project/realtek_amebaDplus_va0_example/GCC-RELEASE/project_km4/asdk/../toolchain/linux/asdk-10.3.1/linux/newlib/arm-none-eabi/lib/thumb/v8-m.main+fp/fpu/libc.a(lib_a-mbtowc_r.o)
 .comment       0x0000000000000036       0x37 /home/zjian_zhang/Dplus_Z/project/realtek_amebaDplus_va0_example/GCC-RELEASE/project_km4/asdk/../toolchain/linux/asdk-10.3.1/linux/newlib/arm-none-eabi/lib/thumb/v8-m.main+fp/fpu/libc.a(lib_a-memchr-stub.o)
 .comment       0x0000000000000036       0x37 /home/zjian_zhang/Dplus_Z/project/realtek_amebaDplus_va0_example/GCC-RELEASE/project_km4/asdk/../toolchain/linux/asdk-10.3.1/linux/newlib/arm-none-eabi/lib/thumb/v8-m.main+fp/fpu/libc.a(lib_a-memcmp.o)
 .comment       0x0000000000000036       0x37 /home/zjian_zhang/Dplus_Z/project/realtek_amebaDplus_va0_example/GCC-RELEASE/project_km4/asdk/../toolchain/linux/asdk-10.3.1/linux/newlib/arm-none-eabi/lib/thumb/v8-m.main+fp/fpu/libc.a(lib_a-memmove.o)
 .comment       0x0000000000000036       0x37 /home/zjian_zhang/Dplus_Z/project/realtek_amebaDplus_va0_example/GCC-RELEASE/project_km4/asdk/../toolchain/linux/asdk-10.3.1/linux/newlib/arm-none-eabi/lib/thumb/v8-m.main+fp/fpu/libc.a(lib_a-memset-stub.o)
 .comment       0x0000000000000036       0x37 /home/zjian_zhang/Dplus_Z/project/realtek_amebaDplus_va0_example/GCC-RELEASE/project_km4/asdk/../toolchain/linux/asdk-10.3.1/linux/newlib/arm-none-eabi/lib/thumb/v8-m.main+fp/fpu/libc.a(lib_a-mlock.o)
 .comment       0x0000000000000036       0x37 /home/zjian_zhang/Dplus_Z/project/realtek_amebaDplus_va0_example/GCC-RELEASE/project_km4/asdk/../toolchain/linux/asdk-10.3.1/linux/newlib/arm-none-eabi/lib/thumb/v8-m.main+fp/fpu/libc.a(lib_a-mprec.o)
 .comment       0x0000000000000036       0x37 /home/zjian_zhang/Dplus_Z/project/realtek_amebaDplus_va0_example/GCC-RELEASE/project_km4/asdk/../toolchain/linux/asdk-10.3.1/linux/newlib/arm-none-eabi/lib/thumb/v8-m.main+fp/fpu/libc.a(lib_a-readr.o)
 .comment       0x0000000000000036       0x37 /home/zjian_zhang/Dplus_Z/project/realtek_amebaDplus_va0_example/GCC-RELEASE/project_km4/asdk/../toolchain/linux/asdk-10.3.1/linux/newlib/arm-none-eabi/lib/thumb/v8-m.main+fp/fpu/libc.a(lib_a-realloc.o)
 .comment       0x0000000000000036       0x37 /home/zjian_zhang/Dplus_Z/project/realtek_amebaDplus_va0_example/GCC-RELEASE/project_km4/asdk/../toolchain/linux/asdk-10.3.1/linux/newlib/arm-none-eabi/lib/thumb/v8-m.main+fp/fpu/libc.a(lib_a-reallocr.o)
 .comment       0x0000000000000036       0x37 /home/zjian_zhang/Dplus_Z/project/realtek_amebaDplus_va0_example/GCC-RELEASE/project_km4/asdk/../toolchain/linux/asdk-10.3.1/linux/newlib/arm-none-eabi/lib/thumb/v8-m.main+fp/fpu/libc.a(lib_a-reent.o)
 .comment       0x0000000000000036       0x37 /home/zjian_zhang/Dplus_Z/project/realtek_amebaDplus_va0_example/GCC-RELEASE/project_km4/asdk/../toolchain/linux/asdk-10.3.1/linux/newlib/arm-none-eabi/lib/thumb/v8-m.main+fp/fpu/libc.a(lib_a-sbrkr.o)
 .comment       0x0000000000000036       0x37 /home/zjian_zhang/Dplus_Z/project/realtek_amebaDplus_va0_example/GCC-RELEASE/project_km4/asdk/../toolchain/linux/asdk-10.3.1/linux/newlib/arm-none-eabi/lib/thumb/v8-m.main+fp/fpu/libc.a(lib_a-sccl.o)
 .comment       0x0000000000000036       0x37 /home/zjian_zhang/Dplus_Z/project/realtek_amebaDplus_va0_example/GCC-RELEASE/project_km4/asdk/../toolchain/linux/asdk-10.3.1/linux/newlib/arm-none-eabi/lib/thumb/v8-m.main+fp/fpu/libc.a(lib_a-sf_nan.o)
 .comment       0x0000000000000036       0x37 /home/zjian_zhang/Dplus_Z/project/realtek_amebaDplus_va0_example/GCC-RELEASE/project_km4/asdk/../toolchain/linux/asdk-10.3.1/linux/newlib/arm-none-eabi/lib/thumb/v8-m.main+fp/fpu/libc.a(lib_a-s_frexp.o)
 .comment       0x0000000000000036       0x37 /home/zjian_zhang/Dplus_Z/project/realtek_amebaDplus_va0_example/GCC-RELEASE/project_km4/asdk/../toolchain/linux/asdk-10.3.1/linux/newlib/arm-none-eabi/lib/thumb/v8-m.main+fp/fpu/libc.a(lib_a-strnlen.o)
 .comment       0x0000000000000036       0x37 /home/zjian_zhang/Dplus_Z/project/realtek_amebaDplus_va0_example/GCC-RELEASE/project_km4/asdk/../toolchain/linux/asdk-10.3.1/linux/newlib/arm-none-eabi/lib/thumb/v8-m.main+fp/fpu/libc.a(lib_a-strtod.o)
 .comment       0x0000000000000036       0x37 /home/zjian_zhang/Dplus_Z/project/realtek_amebaDplus_va0_example/GCC-RELEASE/project_km4/asdk/../toolchain/linux/asdk-10.3.1/linux/newlib/arm-none-eabi/lib/thumb/v8-m.main+fp/fpu/libc.a(lib_a-strtoll.o)
 .comment       0x0000000000000036       0x37 /home/zjian_zhang/Dplus_Z/project/realtek_amebaDplus_va0_example/GCC-RELEASE/project_km4/asdk/../toolchain/linux/asdk-10.3.1/linux/newlib/arm-none-eabi/lib/thumb/v8-m.main+fp/fpu/libc.a(lib_a-strtoull.o)
 .comment       0x0000000000000036       0x37 /home/zjian_zhang/Dplus_Z/project/realtek_amebaDplus_va0_example/GCC-RELEASE/project_km4/asdk/../toolchain/linux/asdk-10.3.1/linux/newlib/arm-none-eabi/lib/thumb/v8-m.main+fp/fpu/libc.a(lib_a-strtoul.o)
 .comment       0x0000000000000036       0x37 /home/zjian_zhang/Dplus_Z/project/realtek_amebaDplus_va0_example/GCC-RELEASE/project_km4/asdk/../toolchain/linux/asdk-10.3.1/linux/newlib/arm-none-eabi/lib/thumb/v8-m.main+fp/fpu/libc.a(lib_a-svfiprintf.o)
 .comment       0x0000000000000036       0x37 /home/zjian_zhang/Dplus_Z/project/realtek_amebaDplus_va0_example/GCC-RELEASE/project_km4/asdk/../toolchain/linux/asdk-10.3.1/linux/newlib/arm-none-eabi/lib/thumb/v8-m.main+fp/fpu/libc.a(lib_a-svfiscanf.o)
 .comment       0x0000000000000036       0x37 /home/zjian_zhang/Dplus_Z/project/realtek_amebaDplus_va0_example/GCC-RELEASE/project_km4/asdk/../toolchain/linux/asdk-10.3.1/linux/newlib/arm-none-eabi/lib/thumb/v8-m.main+fp/fpu/libc.a(lib_a-ungetc.o)
 .comment       0x0000000000000036       0x37 /home/zjian_zhang/Dplus_Z/project/realtek_amebaDplus_va0_example/GCC-RELEASE/project_km4/asdk/../toolchain/linux/asdk-10.3.1/linux/newlib/arm-none-eabi/lib/thumb/v8-m.main+fp/fpu/libc.a(lib_a-vfiprintf.o)
 .comment       0x0000000000000036       0x37 /home/zjian_zhang/Dplus_Z/project/realtek_amebaDplus_va0_example/GCC-RELEASE/project_km4/asdk/../toolchain/linux/asdk-10.3.1/linux/newlib/arm-none-eabi/lib/thumb/v8-m.main+fp/fpu/libc.a(lib_a-wctomb_r.o)
 .comment       0x0000000000000036       0x37 /home/zjian_zhang/Dplus_Z/project/realtek_amebaDplus_va0_example/GCC-RELEASE/project_km4/asdk/../toolchain/linux/asdk-10.3.1/linux/newlib/arm-none-eabi/lib/thumb/v8-m.main+fp/fpu/libc.a(lib_a-assert.o)
 .comment       0x0000000000000036       0x37 /home/zjian_zhang/Dplus_Z/project/realtek_amebaDplus_va0_example/GCC-RELEASE/project_km4/asdk/../toolchain/linux/asdk-10.3.1/linux/newlib/arm-none-eabi/lib/thumb/v8-m.main+fp/fpu/libc.a(lib_a-callocr.o)
 .comment       0x0000000000000036       0x37 /home/zjian_zhang/Dplus_Z/project/realtek_amebaDplus_va0_example/GCC-RELEASE/project_km4/asdk/../toolchain/linux/asdk-10.3.1/linux/newlib/arm-none-eabi/lib/thumb/v8-m.main+fp/fpu/libc.a(lib_a-fclose.o)
 .comment       0x0000000000000036       0x37 /home/zjian_zhang/Dplus_Z/project/realtek_amebaDplus_va0_example/GCC-RELEASE/project_km4/asdk/../toolchain/linux/asdk-10.3.1/linux/newlib/arm-none-eabi/lib/thumb/v8-m.main+fp/fpu/libc.a(lib_a-fiprintf.o)
 .comment       0x0000000000000036       0x37 /home/zjian_zhang/Dplus_Z/project/realtek_amebaDplus_va0_example/GCC-RELEASE/project_km4/asdk/../toolchain/linux/asdk-10.3.1/linux/newlib/arm-none-eabi/lib/thumb/v8-m.main+fp/fpu/libc.a(lib_a-fputwc.o)
 .comment       0x0000000000000036       0x37 /home/zjian_zhang/Dplus_Z/project/realtek_amebaDplus_va0_example/GCC-RELEASE/project_km4/asdk/../toolchain/linux/asdk-10.3.1/linux/newlib/arm-none-eabi/lib/thumb/v8-m.main+fp/fpu/libc.a(lib_a-fstatr.o)
 .comment       0x0000000000000036       0x37 /home/zjian_zhang/Dplus_Z/project/realtek_amebaDplus_va0_example/GCC-RELEASE/project_km4/asdk/../toolchain/linux/asdk-10.3.1/linux/newlib/arm-none-eabi/lib/thumb/v8-m.main+fp/fpu/libc.a(lib_a-gdtoa-gethex.o)
 .comment       0x0000000000000036       0x37 /home/zjian_zhang/Dplus_Z/project/realtek_amebaDplus_va0_example/GCC-RELEASE/project_km4/asdk/../toolchain/linux/asdk-10.3.1/linux/newlib/arm-none-eabi/lib/thumb/v8-m.main+fp/fpu/libc.a(lib_a-gdtoa-hexnan.o)
 .comment       0x0000000000000036       0x37 /home/zjian_zhang/Dplus_Z/project/realtek_amebaDplus_va0_example/GCC-RELEASE/project_km4/asdk/../toolchain/linux/asdk-10.3.1/linux/newlib/arm-none-eabi/lib/thumb/v8-m.main+fp/fpu/libc.a(lib_a-isattyr.o)
 .comment       0x0000000000000036       0x37 /home/zjian_zhang/Dplus_Z/project/realtek_amebaDplus_va0_example/GCC-RELEASE/project_km4/asdk/../toolchain/linux/asdk-10.3.1/linux/newlib/arm-none-eabi/lib/thumb/v8-m.main+fp/fpu/libc.a(lib_a-iswspace_l.o)
 .comment       0x0000000000000036       0x37 /home/zjian_zhang/Dplus_Z/project/realtek_amebaDplus_va0_example/GCC-RELEASE/project_km4/asdk/../toolchain/linux/asdk-10.3.1/linux/newlib/arm-none-eabi/lib/thumb/v8-m.main+fp/fpu/libc.a(lib_a-lnumeric.o)
 .comment       0x0000000000000036       0x37 /home/zjian_zhang/Dplus_Z/project/realtek_amebaDplus_va0_example/GCC-RELEASE/project_km4/asdk/../toolchain/linux/asdk-10.3.1/linux/newlib/arm-none-eabi/lib/thumb/v8-m.main+fp/fpu/libc.a(lib_a-s_nan.o)
 .comment       0x0000000000000036       0x37 /home/zjian_zhang/Dplus_Z/project/realtek_amebaDplus_va0_example/GCC-RELEASE/project_km4/asdk/../toolchain/linux/asdk-10.3.1/linux/newlib/arm-none-eabi/lib/thumb/v8-m.main+fp/fpu/libc.a(lib_a-wcrtomb.o)
 .comment       0x0000000000000036       0x37 /home/zjian_zhang/Dplus_Z/project/realtek_amebaDplus_va0_example/GCC-RELEASE/project_km4/asdk/../toolchain/linux/asdk-10.3.1/linux/newlib/arm-none-eabi/lib/thumb/v8-m.main+fp/fpu/libc.a(lib_a-abort.o)
 .comment       0x0000000000000036       0x37 /home/zjian_zhang/Dplus_Z/project/realtek_amebaDplus_va0_example/GCC-RELEASE/project_km4/asdk/../toolchain/linux/asdk-10.3.1/linux/newlib/arm-none-eabi/lib/thumb/v8-m.main+fp/fpu/libc.a(lib_a-signal.o)
 .comment       0x0000000000000036       0x37 /home/zjian_zhang/Dplus_Z/project/realtek_amebaDplus_va0_example/GCC-RELEASE/project_km4/asdk/../toolchain/linux/asdk-10.3.1/linux/newlib/arm-none-eabi/lib/thumb/v8-m.main+fp/fpu/libc.a(lib_a-signalr.o)
 .comment       0x0000000000000036       0x37 /home/zjian_zhang/Dplus_Z/project/realtek_amebaDplus_va0_example/GCC-RELEASE/project_km4/asdk/../toolchain/linux/asdk-10.3.1/linux/newlib/lib/gcc/arm-none-eabi/10.3.1/thumb/v8-m.main+fp/fpu/libgcc.a(_fixdfdi.o)
 .comment       0x0000000000000036       0x37 /home/zjian_zhang/Dplus_Z/project/realtek_amebaDplus_va0_example/GCC-RELEASE/project_km4/asdk/../toolchain/linux/asdk-10.3.1/linux/newlib/lib/gcc/arm-none-eabi/10.3.1/thumb/v8-m.main+fp/fpu/libgcc.a(_fixunsdfdi.o)
 .comment       0x0000000000000036       0x37 /home/zjian_zhang/Dplus_Z/project/realtek_amebaDplus_va0_example/GCC-RELEASE/project_km4/asdk/../toolchain/linux/asdk-10.3.1/linux/newlib/lib/gcc/arm-none-eabi/10.3.1/thumb/v8-m.main+fp/fpu/libgcc.a(_udivmoddi4.o)
 .comment       0x0000000000000036       0x37 /home/zjian_zhang/Dplus_Z/project/realtek_amebaDplus_va0_example/GCC-RELEASE/project_km4/asdk/../toolchain/linux/asdk-10.3.1/linux/newlib/arm-none-eabi/lib/thumb/v8-m.main+fp/fpu/libnosys.a(close.o)
 .comment       0x0000000000000036       0x37 /home/zjian_zhang/Dplus_Z/project/realtek_amebaDplus_va0_example/GCC-RELEASE/project_km4/asdk/../toolchain/linux/asdk-10.3.1/linux/newlib/arm-none-eabi/lib/thumb/v8-m.main+fp/fpu/libnosys.a(fstat.o)
 .comment       0x0000000000000036       0x37 /home/zjian_zhang/Dplus_Z/project/realtek_amebaDplus_va0_example/GCC-RELEASE/project_km4/asdk/../toolchain/linux/asdk-10.3.1/linux/newlib/arm-none-eabi/lib/thumb/v8-m.main+fp/fpu/libnosys.a(getpid.o)
 .comment       0x0000000000000036       0x37 /home/zjian_zhang/Dplus_Z/project/realtek_amebaDplus_va0_example/GCC-RELEASE/project_km4/asdk/../toolchain/linux/asdk-10.3.1/linux/newlib/arm-none-eabi/lib/thumb/v8-m.main+fp/fpu/libnosys.a(isatty.o)
 .comment       0x0000000000000036       0x37 /home/zjian_zhang/Dplus_Z/project/realtek_amebaDplus_va0_example/GCC-RELEASE/project_km4/asdk/../toolchain/linux/asdk-10.3.1/linux/newlib/arm-none-eabi/lib/thumb/v8-m.main+fp/fpu/libnosys.a(kill.o)
 .comment       0x0000000000000036       0x37 /home/zjian_zhang/Dplus_Z/project/realtek_amebaDplus_va0_example/GCC-RELEASE/project_km4/asdk/../toolchain/linux/asdk-10.3.1/linux/newlib/arm-none-eabi/lib/thumb/v8-m.main+fp/fpu/libnosys.a(lseek.o)
 .comment       0x0000000000000036       0x37 /home/zjian_zhang/Dplus_Z/project/realtek_amebaDplus_va0_example/GCC-RELEASE/project_km4/asdk/../toolchain/linux/asdk-10.3.1/linux/newlib/arm-none-eabi/lib/thumb/v8-m.main+fp/fpu/libnosys.a(sbrk.o)
 .comment       0x0000000000000036       0x37 /home/zjian_zhang/Dplus_Z/project/realtek_amebaDplus_va0_example/GCC-RELEASE/project_km4/asdk/../toolchain/linux/asdk-10.3.1/linux/newlib/arm-none-eabi/lib/thumb/v8-m.main+fp/fpu/libnosys.a(_exit.o)

.ARM.attributes
                0x0000000000000000       0x3c
 .ARM.attributes
                0x0000000000000000       0x3e ./build/stdlib/stdlib_link.o
 .ARM.attributes
                0x000000000000003e       0x38 /home/zjian_zhang/Dplus_Z/project/realtek_amebaDplus_va0_example/GCC-RELEASE/project_km4/asdk/../toolchain/linux/asdk-10.3.1/linux/newlib/arm-none-eabi/lib/thumb/v8-m.main+fp/fpu/libc.a(lib_a-atoi.o)
 .ARM.attributes
                0x0000000000000076       0x38 /home/zjian_zhang/Dplus_Z/project/realtek_amebaDplus_va0_example/GCC-RELEASE/project_km4/asdk/../toolchain/linux/asdk-10.3.1/linux/newlib/arm-none-eabi/lib/thumb/v8-m.main+fp/fpu/libc.a(lib_a-printf.o)
 .ARM.attributes
                0x00000000000000ae       0x38 /home/zjian_zhang/Dplus_Z/project/realtek_amebaDplus_va0_example/GCC-RELEASE/project_km4/asdk/../toolchain/linux/asdk-10.3.1/linux/newlib/arm-none-eabi/lib/thumb/v8-m.main+fp/fpu/libc.a(lib_a-putchar.o)
 .ARM.attributes
                0x00000000000000e6       0x38 /home/zjian_zhang/Dplus_Z/project/realtek_amebaDplus_va0_example/GCC-RELEASE/project_km4/asdk/../toolchain/linux/asdk-10.3.1/linux/newlib/arm-none-eabi/lib/thumb/v8-m.main+fp/fpu/libc.a(lib_a-putc.o)
 .ARM.attributes
                0x000000000000011e       0x38 /home/zjian_zhang/Dplus_Z/project/realtek_amebaDplus_va0_example/GCC-RELEASE/project_km4/asdk/../toolchain/linux/asdk-10.3.1/linux/newlib/arm-none-eabi/lib/thumb/v8-m.main+fp/fpu/libc.a(lib_a-puts.o)
 .ARM.attributes
                0x0000000000000156       0x38 /home/zjian_zhang/Dplus_Z/project/realtek_amebaDplus_va0_example/GCC-RELEASE/project_km4/asdk/../toolchain/linux/asdk-10.3.1/linux/newlib/arm-none-eabi/lib/thumb/v8-m.main+fp/fpu/libc.a(lib_a-snprintf.o)
 .ARM.attributes
                0x000000000000018e       0x38 /home/zjian_zhang/Dplus_Z/project/realtek_amebaDplus_va0_example/GCC-RELEASE/project_km4/asdk/../toolchain/linux/asdk-10.3.1/linux/newlib/arm-none-eabi/lib/thumb/v8-m.main+fp/fpu/libc.a(lib_a-sprintf.o)
 .ARM.attributes
                0x00000000000001c6       0x38 /home/zjian_zhang/Dplus_Z/project/realtek_amebaDplus_va0_example/GCC-RELEASE/project_km4/asdk/../toolchain/linux/asdk-10.3.1/linux/newlib/arm-none-eabi/lib/thumb/v8-m.main+fp/fpu/libc.a(lib_a-sscanf.o)
 .ARM.attributes
                0x00000000000001fe       0x38 /home/zjian_zhang/Dplus_Z/project/realtek_amebaDplus_va0_example/GCC-RELEASE/project_km4/asdk/../toolchain/linux/asdk-10.3.1/linux/newlib/arm-none-eabi/lib/thumb/v8-m.main+fp/fpu/libc.a(lib_a-stdio.o)
 .ARM.attributes
                0x0000000000000236       0x38 /home/zjian_zhang/Dplus_Z/project/realtek_amebaDplus_va0_example/GCC-RELEASE/project_km4/asdk/../toolchain/linux/asdk-10.3.1/linux/newlib/arm-none-eabi/lib/thumb/v8-m.main+fp/fpu/libc.a(lib_a-strcat.o)
 .ARM.attributes
                0x000000000000026e       0x38 /home/zjian_zhang/Dplus_Z/project/realtek_amebaDplus_va0_example/GCC-RELEASE/project_km4/asdk/../toolchain/linux/asdk-10.3.1/linux/newlib/arm-none-eabi/lib/thumb/v8-m.main+fp/fpu/libc.a(lib_a-strchr.o)
 .ARM.attributes
                0x00000000000002a6       0x38 /home/zjian_zhang/Dplus_Z/project/realtek_amebaDplus_va0_example/GCC-RELEASE/project_km4/asdk/../toolchain/linux/asdk-10.3.1/linux/newlib/arm-none-eabi/lib/thumb/v8-m.main+fp/fpu/libc.a(lib_a-strcpy.o)
 .ARM.attributes
                0x00000000000002de       0x38 /home/zjian_zhang/Dplus_Z/project/realtek_amebaDplus_va0_example/GCC-RELEASE/project_km4/asdk/../toolchain/linux/asdk-10.3.1/linux/newlib/arm-none-eabi/lib/thumb/v8-m.main+fp/fpu/libc.a(lib_a-strlen-stub.o)
 .ARM.attributes
                0x0000000000000316       0x38 /home/zjian_zhang/Dplus_Z/project/realtek_amebaDplus_va0_example/GCC-RELEASE/project_km4/asdk/../toolchain/linux/asdk-10.3.1/linux/newlib/arm-none-eabi/lib/thumb/v8-m.main+fp/fpu/libc.a(lib_a-strncat.o)
 .ARM.attributes
                0x000000000000034e       0x38 /home/zjian_zhang/Dplus_Z/project/realtek_amebaDplus_va0_example/GCC-RELEASE/project_km4/asdk/../toolchain/linux/asdk-10.3.1/linux/newlib/arm-none-eabi/lib/thumb/v8-m.main+fp/fpu/libc.a(lib_a-strncmp.o)
 .ARM.attributes
                0x0000000000000386       0x38 /home/zjian_zhang/Dplus_Z/project/realtek_amebaDplus_va0_example/GCC-RELEASE/project_km4/asdk/../toolchain/linux/asdk-10.3.1/linux/newlib/arm-none-eabi/lib/thumb/v8-m.main+fp/fpu/libc.a(lib_a-strncpy.o)
 .ARM.attributes
                0x00000000000003be       0x38 /home/zjian_zhang/Dplus_Z/project/realtek_amebaDplus_va0_example/GCC-RELEASE/project_km4/asdk/../toolchain/linux/asdk-10.3.1/linux/newlib/arm-none-eabi/lib/thumb/v8-m.main+fp/fpu/libc.a(lib_a-strpbrk.o)
 .ARM.attributes
                0x00000000000003f6       0x38 /home/zjian_zhang/Dplus_Z/project/realtek_amebaDplus_va0_example/GCC-RELEASE/project_km4/asdk/../toolchain/linux/asdk-10.3.1/linux/newlib/arm-none-eabi/lib/thumb/v8-m.main+fp/fpu/libc.a(lib_a-strsep.o)
 .ARM.attributes
                0x000000000000042e       0x38 /home/zjian_zhang/Dplus_Z/project/realtek_amebaDplus_va0_example/GCC-RELEASE/project_km4/asdk/../toolchain/linux/asdk-10.3.1/linux/newlib/arm-none-eabi/lib/thumb/v8-m.main+fp/fpu/libc.a(lib_a-strstr.o)
 .ARM.attributes
                0x0000000000000466       0x38 /home/zjian_zhang/Dplus_Z/project/realtek_amebaDplus_va0_example/GCC-RELEASE/project_km4/asdk/../toolchain/linux/asdk-10.3.1/linux/newlib/arm-none-eabi/lib/thumb/v8-m.main+fp/fpu/libc.a(lib_a-strtok.o)
 .ARM.attributes
                0x000000000000049e       0x38 /home/zjian_zhang/Dplus_Z/project/realtek_amebaDplus_va0_example/GCC-RELEASE/project_km4/asdk/../toolchain/linux/asdk-10.3.1/linux/newlib/arm-none-eabi/lib/thumb/v8-m.main+fp/fpu/libc.a(lib_a-strtok_r.o)
 .ARM.attributes
                0x00000000000004d6       0x38 /home/zjian_zhang/Dplus_Z/project/realtek_amebaDplus_va0_example/GCC-RELEASE/project_km4/asdk/../toolchain/linux/asdk-10.3.1/linux/newlib/arm-none-eabi/lib/thumb/v8-m.main+fp/fpu/libc.a(lib_a-strtol.o)
 .ARM.attributes
                0x000000000000050e       0x38 /home/zjian_zhang/Dplus_Z/project/realtek_amebaDplus_va0_example/GCC-RELEASE/project_km4/asdk/../toolchain/linux/asdk-10.3.1/linux/newlib/arm-none-eabi/lib/thumb/v8-m.main+fp/fpu/libc.a(lib_a-svfprintf.o)
 .ARM.attributes
                0x0000000000000546       0x38 /home/zjian_zhang/Dplus_Z/project/realtek_amebaDplus_va0_example/GCC-RELEASE/project_km4/asdk/../toolchain/linux/asdk-10.3.1/linux/newlib/arm-none-eabi/lib/thumb/v8-m.main+fp/fpu/libc.a(lib_a-svfscanf.o)
 .ARM.attributes
                0x000000000000057e       0x38 /home/zjian_zhang/Dplus_Z/project/realtek_amebaDplus_va0_example/GCC-RELEASE/project_km4/asdk/../toolchain/linux/asdk-10.3.1/linux/newlib/arm-none-eabi/lib/thumb/v8-m.main+fp/fpu/libc.a(lib_a-vfprintf.o)
 .ARM.attributes
                0x00000000000005b6       0x38 /home/zjian_zhang/Dplus_Z/project/realtek_amebaDplus_va0_example/GCC-RELEASE/project_km4/asdk/../toolchain/linux/asdk-10.3.1/linux/newlib/arm-none-eabi/lib/thumb/v8-m.main+fp/fpu/libc.a(lib_a-vsnprintf.o)
 .ARM.attributes
                0x00000000000005ee       0x38 /home/zjian_zhang/Dplus_Z/project/realtek_amebaDplus_va0_example/GCC-RELEASE/project_km4/asdk/../toolchain/linux/asdk-10.3.1/linux/newlib/arm-none-eabi/lib/thumb/v8-m.main+fp/fpu/libc.a(lib_a-wbuf.o)
 .ARM.attributes
                0x0000000000000626       0x38 /home/zjian_zhang/Dplus_Z/project/realtek_amebaDplus_va0_example/GCC-RELEASE/project_km4/asdk/../toolchain/linux/asdk-10.3.1/linux/newlib/arm-none-eabi/lib/thumb/v8-m.main+fp/fpu/libc.a(lib_a-writer.o)
 .ARM.attributes
                0x000000000000065e       0x38 /home/zjian_zhang/Dplus_Z/project/realtek_amebaDplus_va0_example/GCC-RELEASE/project_km4/asdk/../toolchain/linux/asdk-10.3.1/linux/newlib/arm-none-eabi/lib/thumb/v8-m.main+fp/fpu/libc.a(lib_a-wsetup.o)
 .ARM.attributes
                0x0000000000000696       0x38 /home/zjian_zhang/Dplus_Z/project/realtek_amebaDplus_va0_example/GCC-RELEASE/project_km4/asdk/../toolchain/linux/asdk-10.3.1/linux/newlib/arm-none-eabi/lib/thumb/v8-m.main+fp/fpu/libc.a(lib_a-closer.o)
 .ARM.attributes
                0x00000000000006ce       0x38 /home/zjian_zhang/Dplus_Z/project/realtek_amebaDplus_va0_example/GCC-RELEASE/project_km4/asdk/../toolchain/linux/asdk-10.3.1/linux/newlib/arm-none-eabi/lib/thumb/v8-m.main+fp/fpu/libc.a(lib_a-ctype_.o)
 .ARM.attributes
                0x0000000000000706       0x38 /home/zjian_zhang/Dplus_Z/project/realtek_amebaDplus_va0_example/GCC-RELEASE/project_km4/asdk/../toolchain/linux/asdk-10.3.1/linux/newlib/arm-none-eabi/lib/thumb/v8-m.main+fp/fpu/libc.a(lib_a-dtoa.o)
 .ARM.attributes
                0x000000000000073e       0x38 /home/zjian_zhang/Dplus_Z/project/realtek_amebaDplus_va0_example/GCC-RELEASE/project_km4/asdk/../toolchain/linux/asdk-10.3.1/linux/newlib/arm-none-eabi/lib/thumb/v8-m.main+fp/fpu/libc.a(lib_a-errno.o)
 .ARM.attributes
                0x0000000000000776       0x38 /home/zjian_zhang/Dplus_Z/project/realtek_amebaDplus_va0_example/GCC-RELEASE/project_km4/asdk/../toolchain/linux/asdk-10.3.1/linux/newlib/arm-none-eabi/lib/thumb/v8-m.main+fp/fpu/libc.a(lib_a-fflush.o)
 .ARM.attributes
                0x00000000000007ae       0x38 /home/zjian_zhang/Dplus_Z/project/realtek_amebaDplus_va0_example/GCC-RELEASE/project_km4/asdk/../toolchain/linux/asdk-10.3.1/linux/newlib/arm-none-eabi/lib/thumb/v8-m.main+fp/fpu/libc.a(lib_a-findfp.o)
 .ARM.attributes
                0x00000000000007e6       0x38 /home/zjian_zhang/Dplus_Z/project/realtek_amebaDplus_va0_example/GCC-RELEASE/project_km4/asdk/../toolchain/linux/asdk-10.3.1/linux/newlib/arm-none-eabi/lib/thumb/v8-m.main+fp/fpu/libc.a(lib_a-free.o)
 .ARM.attributes
                0x000000000000081e       0x38 /home/zjian_zhang/Dplus_Z/project/realtek_amebaDplus_va0_example/GCC-RELEASE/project_km4/asdk/../toolchain/linux/asdk-10.3.1/linux/newlib/arm-none-eabi/lib/thumb/v8-m.main+fp/fpu/libc.a(lib_a-freer.o)
 .ARM.attributes
                0x0000000000000856       0x38 /home/zjian_zhang/Dplus_Z/project/realtek_amebaDplus_va0_example/GCC-RELEASE/project_km4/asdk/../toolchain/linux/asdk-10.3.1/linux/newlib/arm-none-eabi/lib/thumb/v8-m.main+fp/fpu/libc.a(lib_a-fvwrite.o)
 .ARM.attributes
                0x000000000000088e       0x38 /home/zjian_zhang/Dplus_Z/project/realtek_amebaDplus_va0_example/GCC-RELEASE/project_km4/asdk/../toolchain/linux/asdk-10.3.1/linux/newlib/arm-none-eabi/lib/thumb/v8-m.main+fp/fpu/libc.a(lib_a-fwalk.o)
 .ARM.attributes
                0x00000000000008c6       0x38 /home/zjian_zhang/Dplus_Z/project/realtek_amebaDplus_va0_example/GCC-RELEASE/project_km4/asdk/../toolchain/linux/asdk-10.3.1/linux/newlib/arm-none-eabi/lib/thumb/v8-m.main+fp/fpu/libc.a(lib_a-impure.o)
 .ARM.attributes
                0x00000000000008fe       0x38 /home/zjian_zhang/Dplus_Z/project/realtek_amebaDplus_va0_example/GCC-RELEASE/project_km4/asdk/../toolchain/linux/asdk-10.3.1/linux/newlib/arm-none-eabi/lib/thumb/v8-m.main+fp/fpu/libc.a(lib_a-iswspace.o)
 .ARM.attributes
                0x0000000000000936       0x38 /home/zjian_zhang/Dplus_Z/project/realtek_amebaDplus_va0_example/GCC-RELEASE/project_km4/asdk/../toolchain/linux/asdk-10.3.1/linux/newlib/arm-none-eabi/lib/thumb/v8-m.main+fp/fpu/libc.a(lib_a-localeconv.o)
 .ARM.attributes
                0x000000000000096e       0x38 /home/zjian_zhang/Dplus_Z/project/realtek_amebaDplus_va0_example/GCC-RELEASE/project_km4/asdk/../toolchain/linux/asdk-10.3.1/linux/newlib/arm-none-eabi/lib/thumb/v8-m.main+fp/fpu/libc.a(lib_a-locale.o)
 .ARM.attributes
                0x00000000000009a6       0x38 /home/zjian_zhang/Dplus_Z/project/realtek_amebaDplus_va0_example/GCC-RELEASE/project_km4/asdk/../toolchain/linux/asdk-10.3.1/linux/newlib/arm-none-eabi/lib/thumb/v8-m.main+fp/fpu/libc.a(lib_a-lock.o)
 .ARM.attributes
                0x00000000000009de       0x38 /home/zjian_zhang/Dplus_Z/project/realtek_amebaDplus_va0_example/GCC-RELEASE/project_km4/asdk/../toolchain/linux/asdk-10.3.1/linux/newlib/arm-none-eabi/lib/thumb/v8-m.main+fp/fpu/libc.a(lib_a-lseekr.o)
 .ARM.attributes
                0x0000000000000a16       0x38 /home/zjian_zhang/Dplus_Z/project/realtek_amebaDplus_va0_example/GCC-RELEASE/project_km4/asdk/../toolchain/linux/asdk-10.3.1/linux/newlib/arm-none-eabi/lib/thumb/v8-m.main+fp/fpu/libc.a(lib_a-makebuf.o)
 .ARM.attributes
                0x0000000000000a4e       0x38 /home/zjian_zhang/Dplus_Z/project/realtek_amebaDplus_va0_example/GCC-RELEASE/project_km4/asdk/../toolchain/linux/asdk-10.3.1/linux/newlib/arm-none-eabi/lib/thumb/v8-m.main+fp/fpu/libc.a(lib_a-malloc.o)
 .ARM.attributes
                0x0000000000000a86       0x38 /home/zjian_zhang/Dplus_Z/project/realtek_amebaDplus_va0_example/GCC-RELEASE/project_km4/asdk/../toolchain/linux/asdk-10.3.1/linux/newlib/arm-none-eabi/lib/thumb/v8-m.main+fp/fpu/libc.a(lib_a-mallocr.o)
 .ARM.attributes
                0x0000000000000abe       0x38 /home/zjian_zhang/Dplus_Z/project/realtek_amebaDplus_va0_example/GCC-RELEASE/project_km4/asdk/../toolchain/linux/asdk-10.3.1/linux/newlib/arm-none-eabi/lib/thumb/v8-m.main+fp/fpu/libc.a(lib_a-mbrtowc.o)
 .ARM.attributes
                0x0000000000000af6       0x38 /home/zjian_zhang/Dplus_Z/project/realtek_amebaDplus_va0_example/GCC-RELEASE/project_km4/asdk/../toolchain/linux/asdk-10.3.1/linux/newlib/arm-none-eabi/lib/thumb/v8-m.main+fp/fpu/libc.a(lib_a-mbtowc_r.o)
 .ARM.attributes
                0x0000000000000b2e       0x38 /home/zjian_zhang/Dplus_Z/project/realtek_amebaDplus_va0_example/GCC-RELEASE/project_km4/asdk/../toolchain/linux/asdk-10.3.1/linux/newlib/arm-none-eabi/lib/thumb/v8-m.main+fp/fpu/libc.a(lib_a-memchr-stub.o)
 .ARM.attributes
                0x0000000000000b66       0x38 /home/zjian_zhang/Dplus_Z/project/realtek_amebaDplus_va0_example/GCC-RELEASE/project_km4/asdk/../toolchain/linux/asdk-10.3.1/linux/newlib/arm-none-eabi/lib/thumb/v8-m.main+fp/fpu/libc.a(lib_a-memcmp.o)
 .ARM.attributes
                0x0000000000000b9e       0x20 /home/zjian_zhang/Dplus_Z/project/realtek_amebaDplus_va0_example/GCC-RELEASE/project_km4/asdk/../toolchain/linux/asdk-10.3.1/linux/newlib/arm-none-eabi/lib/thumb/v8-m.main+fp/fpu/libc.a(lib_a-memcpy.o)
 .ARM.attributes
                0x0000000000000bbe       0x38 /home/zjian_zhang/Dplus_Z/project/realtek_amebaDplus_va0_example/GCC-RELEASE/project_km4/asdk/../toolchain/linux/asdk-10.3.1/linux/newlib/arm-none-eabi/lib/thumb/v8-m.main+fp/fpu/libc.a(lib_a-memmove.o)
 .ARM.attributes
                0x0000000000000bf6       0x38 /home/zjian_zhang/Dplus_Z/project/realtek_amebaDplus_va0_example/GCC-RELEASE/project_km4/asdk/../toolchain/linux/asdk-10.3.1/linux/newlib/arm-none-eabi/lib/thumb/v8-m.main+fp/fpu/libc.a(lib_a-memset-stub.o)
 .ARM.attributes
                0x0000000000000c2e       0x38 /home/zjian_zhang/Dplus_Z/project/realtek_amebaDplus_va0_example/GCC-RELEASE/project_km4/asdk/../toolchain/linux/asdk-10.3.1/linux/newlib/arm-none-eabi/lib/thumb/v8-m.main+fp/fpu/libc.a(lib_a-mlock.o)
 .ARM.attributes
                0x0000000000000c66       0x38 /home/zjian_zhang/Dplus_Z/project/realtek_amebaDplus_va0_example/GCC-RELEASE/project_km4/asdk/../toolchain/linux/asdk-10.3.1/linux/newlib/arm-none-eabi/lib/thumb/v8-m.main+fp/fpu/libc.a(lib_a-mprec.o)
 .ARM.attributes
                0x0000000000000c9e       0x38 /home/zjian_zhang/Dplus_Z/project/realtek_amebaDplus_va0_example/GCC-RELEASE/project_km4/asdk/../toolchain/linux/asdk-10.3.1/linux/newlib/arm-none-eabi/lib/thumb/v8-m.main+fp/fpu/libc.a(lib_a-readr.o)
 .ARM.attributes
                0x0000000000000cd6       0x38 /home/zjian_zhang/Dplus_Z/project/realtek_amebaDplus_va0_example/GCC-RELEASE/project_km4/asdk/../toolchain/linux/asdk-10.3.1/linux/newlib/arm-none-eabi/lib/thumb/v8-m.main+fp/fpu/libc.a(lib_a-realloc.o)
 .ARM.attributes
                0x0000000000000d0e       0x38 /home/zjian_zhang/Dplus_Z/project/realtek_amebaDplus_va0_example/GCC-RELEASE/project_km4/asdk/../toolchain/linux/asdk-10.3.1/linux/newlib/arm-none-eabi/lib/thumb/v8-m.main+fp/fpu/libc.a(lib_a-reallocr.o)
 .ARM.attributes
                0x0000000000000d46       0x38 /home/zjian_zhang/Dplus_Z/project/realtek_amebaDplus_va0_example/GCC-RELEASE/project_km4/asdk/../toolchain/linux/asdk-10.3.1/linux/newlib/arm-none-eabi/lib/thumb/v8-m.main+fp/fpu/libc.a(lib_a-reent.o)
 .ARM.attributes
                0x0000000000000d7e       0x38 /home/zjian_zhang/Dplus_Z/project/realtek_amebaDplus_va0_example/GCC-RELEASE/project_km4/asdk/../toolchain/linux/asdk-10.3.1/linux/newlib/arm-none-eabi/lib/thumb/v8-m.main+fp/fpu/libc.a(lib_a-sbrkr.o)
 .ARM.attributes
                0x0000000000000db6       0x38 /home/zjian_zhang/Dplus_Z/project/realtek_amebaDplus_va0_example/GCC-RELEASE/project_km4/asdk/../toolchain/linux/asdk-10.3.1/linux/newlib/arm-none-eabi/lib/thumb/v8-m.main+fp/fpu/libc.a(lib_a-sccl.o)
 .ARM.attributes
                0x0000000000000dee       0x38 /home/zjian_zhang/Dplus_Z/project/realtek_amebaDplus_va0_example/GCC-RELEASE/project_km4/asdk/../toolchain/linux/asdk-10.3.1/linux/newlib/arm-none-eabi/lib/thumb/v8-m.main+fp/fpu/libc.a(lib_a-sf_nan.o)
 .ARM.attributes
                0x0000000000000e26       0x38 /home/zjian_zhang/Dplus_Z/project/realtek_amebaDplus_va0_example/GCC-RELEASE/project_km4/asdk/../toolchain/linux/asdk-10.3.1/linux/newlib/arm-none-eabi/lib/thumb/v8-m.main+fp/fpu/libc.a(lib_a-s_frexp.o)
 .ARM.attributes
                0x0000000000000e5e       0x20 /home/zjian_zhang/Dplus_Z/project/realtek_amebaDplus_va0_example/GCC-RELEASE/project_km4/asdk/../toolchain/linux/asdk-10.3.1/linux/newlib/arm-none-eabi/lib/thumb/v8-m.main+fp/fpu/libc.a(lib_a-strcmp.o)
 .ARM.attributes
                0x0000000000000e7e       0x38 /home/zjian_zhang/Dplus_Z/project/realtek_amebaDplus_va0_example/GCC-RELEASE/project_km4/asdk/../toolchain/linux/asdk-10.3.1/linux/newlib/arm-none-eabi/lib/thumb/v8-m.main+fp/fpu/libc.a(lib_a-strnlen.o)
 .ARM.attributes
                0x0000000000000eb6       0x38 /home/zjian_zhang/Dplus_Z/project/realtek_amebaDplus_va0_example/GCC-RELEASE/project_km4/asdk/../toolchain/linux/asdk-10.3.1/linux/newlib/arm-none-eabi/lib/thumb/v8-m.main+fp/fpu/libc.a(lib_a-strtod.o)
 .ARM.attributes
                0x0000000000000eee       0x38 /home/zjian_zhang/Dplus_Z/project/realtek_amebaDplus_va0_example/GCC-RELEASE/project_km4/asdk/../toolchain/linux/asdk-10.3.1/linux/newlib/arm-none-eabi/lib/thumb/v8-m.main+fp/fpu/libc.a(lib_a-strtoll.o)
 .ARM.attributes
                0x0000000000000f26       0x38 /home/zjian_zhang/Dplus_Z/project/realtek_amebaDplus_va0_example/GCC-RELEASE/project_km4/asdk/../toolchain/linux/asdk-10.3.1/linux/newlib/arm-none-eabi/lib/thumb/v8-m.main+fp/fpu/libc.a(lib_a-strtoull.o)
 .ARM.attributes
                0x0000000000000f5e       0x38 /home/zjian_zhang/Dplus_Z/project/realtek_amebaDplus_va0_example/GCC-RELEASE/project_km4/asdk/../toolchain/linux/asdk-10.3.1/linux/newlib/arm-none-eabi/lib/thumb/v8-m.main+fp/fpu/libc.a(lib_a-strtoul.o)
 .ARM.attributes
                0x0000000000000f96       0x38 /home/zjian_zhang/Dplus_Z/project/realtek_amebaDplus_va0_example/GCC-RELEASE/project_km4/asdk/../toolchain/linux/asdk-10.3.1/linux/newlib/arm-none-eabi/lib/thumb/v8-m.main+fp/fpu/libc.a(lib_a-svfiprintf.o)
 .ARM.attributes
                0x0000000000000fce       0x38 /home/zjian_zhang/Dplus_Z/project/realtek_amebaDplus_va0_example/GCC-RELEASE/project_km4/asdk/../toolchain/linux/asdk-10.3.1/linux/newlib/arm-none-eabi/lib/thumb/v8-m.main+fp/fpu/libc.a(lib_a-svfiscanf.o)
 .ARM.attributes
                0x0000000000001006       0x38 /home/zjian_zhang/Dplus_Z/project/realtek_amebaDplus_va0_example/GCC-RELEASE/project_km4/asdk/../toolchain/linux/asdk-10.3.1/linux/newlib/arm-none-eabi/lib/thumb/v8-m.main+fp/fpu/libc.a(lib_a-ungetc.o)
 .ARM.attributes
                0x000000000000103e       0x38 /home/zjian_zhang/Dplus_Z/project/realtek_amebaDplus_va0_example/GCC-RELEASE/project_km4/asdk/../toolchain/linux/asdk-10.3.1/linux/newlib/arm-none-eabi/lib/thumb/v8-m.main+fp/fpu/libc.a(lib_a-vfiprintf.o)
 .ARM.attributes
                0x0000000000001076       0x38 /home/zjian_zhang/Dplus_Z/project/realtek_amebaDplus_va0_example/GCC-RELEASE/project_km4/asdk/../toolchain/linux/asdk-10.3.1/linux/newlib/arm-none-eabi/lib/thumb/v8-m.main+fp/fpu/libc.a(lib_a-wctomb_r.o)
 .ARM.attributes
                0x00000000000010ae       0x38 /home/zjian_zhang/Dplus_Z/project/realtek_amebaDplus_va0_example/GCC-RELEASE/project_km4/asdk/../toolchain/linux/asdk-10.3.1/linux/newlib/arm-none-eabi/lib/thumb/v8-m.main+fp/fpu/libc.a(lib_a-assert.o)
 .ARM.attributes
                0x00000000000010e6       0x38 /home/zjian_zhang/Dplus_Z/project/realtek_amebaDplus_va0_example/GCC-RELEASE/project_km4/asdk/../toolchain/linux/asdk-10.3.1/linux/newlib/arm-none-eabi/lib/thumb/v8-m.main+fp/fpu/libc.a(lib_a-callocr.o)
 .ARM.attributes
                0x000000000000111e       0x38 /home/zjian_zhang/Dplus_Z/project/realtek_amebaDplus_va0_example/GCC-RELEASE/project_km4/asdk/../toolchain/linux/asdk-10.3.1/linux/newlib/arm-none-eabi/lib/thumb/v8-m.main+fp/fpu/libc.a(lib_a-fclose.o)
 .ARM.attributes
                0x0000000000001156       0x38 /home/zjian_zhang/Dplus_Z/project/realtek_amebaDplus_va0_example/GCC-RELEASE/project_km4/asdk/../toolchain/linux/asdk-10.3.1/linux/newlib/arm-none-eabi/lib/thumb/v8-m.main+fp/fpu/libc.a(lib_a-fiprintf.o)
 .ARM.attributes
                0x000000000000118e       0x38 /home/zjian_zhang/Dplus_Z/project/realtek_amebaDplus_va0_example/GCC-RELEASE/project_km4/asdk/../toolchain/linux/asdk-10.3.1/linux/newlib/arm-none-eabi/lib/thumb/v8-m.main+fp/fpu/libc.a(lib_a-fputwc.o)
 .ARM.attributes
                0x00000000000011c6       0x38 /home/zjian_zhang/Dplus_Z/project/realtek_amebaDplus_va0_example/GCC-RELEASE/project_km4/asdk/../toolchain/linux/asdk-10.3.1/linux/newlib/arm-none-eabi/lib/thumb/v8-m.main+fp/fpu/libc.a(lib_a-fstatr.o)
 .ARM.attributes
                0x00000000000011fe       0x38 /home/zjian_zhang/Dplus_Z/project/realtek_amebaDplus_va0_example/GCC-RELEASE/project_km4/asdk/../toolchain/linux/asdk-10.3.1/linux/newlib/arm-none-eabi/lib/thumb/v8-m.main+fp/fpu/libc.a(lib_a-gdtoa-gethex.o)
 .ARM.attributes
                0x0000000000001236       0x38 /home/zjian_zhang/Dplus_Z/project/realtek_amebaDplus_va0_example/GCC-RELEASE/project_km4/asdk/../toolchain/linux/asdk-10.3.1/linux/newlib/arm-none-eabi/lib/thumb/v8-m.main+fp/fpu/libc.a(lib_a-gdtoa-hexnan.o)
 .ARM.attributes
                0x000000000000126e       0x38 /home/zjian_zhang/Dplus_Z/project/realtek_amebaDplus_va0_example/GCC-RELEASE/project_km4/asdk/../toolchain/linux/asdk-10.3.1/linux/newlib/arm-none-eabi/lib/thumb/v8-m.main+fp/fpu/libc.a(lib_a-isattyr.o)
 .ARM.attributes
                0x00000000000012a6       0x38 /home/zjian_zhang/Dplus_Z/project/realtek_amebaDplus_va0_example/GCC-RELEASE/project_km4/asdk/../toolchain/linux/asdk-10.3.1/linux/newlib/arm-none-eabi/lib/thumb/v8-m.main+fp/fpu/libc.a(lib_a-iswspace_l.o)
 .ARM.attributes
                0x00000000000012de       0x38 /home/zjian_zhang/Dplus_Z/project/realtek_amebaDplus_va0_example/GCC-RELEASE/project_km4/asdk/../toolchain/linux/asdk-10.3.1/linux/newlib/arm-none-eabi/lib/thumb/v8-m.main+fp/fpu/libc.a(lib_a-lnumeric.o)
 .ARM.attributes
                0x0000000000001316       0x38 /home/zjian_zhang/Dplus_Z/project/realtek_amebaDplus_va0_example/GCC-RELEASE/project_km4/asdk/../toolchain/linux/asdk-10.3.1/linux/newlib/arm-none-eabi/lib/thumb/v8-m.main+fp/fpu/libc.a(lib_a-s_nan.o)
 .ARM.attributes
                0x000000000000134e       0x38 /home/zjian_zhang/Dplus_Z/project/realtek_amebaDplus_va0_example/GCC-RELEASE/project_km4/asdk/../toolchain/linux/asdk-10.3.1/linux/newlib/arm-none-eabi/lib/thumb/v8-m.main+fp/fpu/libc.a(lib_a-wcrtomb.o)
 .ARM.attributes
                0x0000000000001386       0x38 /home/zjian_zhang/Dplus_Z/project/realtek_amebaDplus_va0_example/GCC-RELEASE/project_km4/asdk/../toolchain/linux/asdk-10.3.1/linux/newlib/arm-none-eabi/lib/thumb/v8-m.main+fp/fpu/libc.a(lib_a-abort.o)
 .ARM.attributes
                0x00000000000013be       0x38 /home/zjian_zhang/Dplus_Z/project/realtek_amebaDplus_va0_example/GCC-RELEASE/project_km4/asdk/../toolchain/linux/asdk-10.3.1/linux/newlib/arm-none-eabi/lib/thumb/v8-m.main+fp/fpu/libc.a(lib_a-signal.o)
 .ARM.attributes
                0x00000000000013f6       0x38 /home/zjian_zhang/Dplus_Z/project/realtek_amebaDplus_va0_example/GCC-RELEASE/project_km4/asdk/../toolchain/linux/asdk-10.3.1/linux/newlib/arm-none-eabi/lib/thumb/v8-m.main+fp/fpu/libc.a(lib_a-signalr.o)
 .ARM.attributes
                0x000000000000142e       0x22 /home/zjian_zhang/Dplus_Z/project/realtek_amebaDplus_va0_example/GCC-RELEASE/project_km4/asdk/../toolchain/linux/asdk-10.3.1/linux/newlib/lib/gcc/arm-none-eabi/10.3.1/thumb/v8-m.main+fp/fpu/libgcc.a(_arm_muldf3.o)
 .ARM.attributes
                0x0000000000001450       0x22 /home/zjian_zhang/Dplus_Z/project/realtek_amebaDplus_va0_example/GCC-RELEASE/project_km4/asdk/../toolchain/linux/asdk-10.3.1/linux/newlib/lib/gcc/arm-none-eabi/10.3.1/thumb/v8-m.main+fp/fpu/libgcc.a(_arm_addsubdf3.o)
 .ARM.attributes
                0x0000000000001472       0x22 /home/zjian_zhang/Dplus_Z/project/realtek_amebaDplus_va0_example/GCC-RELEASE/project_km4/asdk/../toolchain/linux/asdk-10.3.1/linux/newlib/lib/gcc/arm-none-eabi/10.3.1/thumb/v8-m.main+fp/fpu/libgcc.a(_arm_muldivdf3.o)
 .ARM.attributes
                0x0000000000001494       0x22 /home/zjian_zhang/Dplus_Z/project/realtek_amebaDplus_va0_example/GCC-RELEASE/project_km4/asdk/../toolchain/linux/asdk-10.3.1/linux/newlib/lib/gcc/arm-none-eabi/10.3.1/thumb/v8-m.main+fp/fpu/libgcc.a(_arm_cmpdf2.o)
 .ARM.attributes
                0x00000000000014b6       0x22 /home/zjian_zhang/Dplus_Z/project/realtek_amebaDplus_va0_example/GCC-RELEASE/project_km4/asdk/../toolchain/linux/asdk-10.3.1/linux/newlib/lib/gcc/arm-none-eabi/10.3.1/thumb/v8-m.main+fp/fpu/libgcc.a(_arm_unorddf2.o)
 .ARM.attributes
                0x00000000000014d8       0x22 /home/zjian_zhang/Dplus_Z/project/realtek_amebaDplus_va0_example/GCC-RELEASE/project_km4/asdk/../toolchain/linux/asdk-10.3.1/linux/newlib/lib/gcc/arm-none-eabi/10.3.1/thumb/v8-m.main+fp/fpu/libgcc.a(_arm_fixdfsi.o)
 .ARM.attributes
                0x00000000000014fa       0x22 /home/zjian_zhang/Dplus_Z/project/realtek_amebaDplus_va0_example/GCC-RELEASE/project_km4/asdk/../toolchain/linux/asdk-10.3.1/linux/newlib/lib/gcc/arm-none-eabi/10.3.1/thumb/v8-m.main+fp/fpu/libgcc.a(_arm_fixunsdfsi.o)
 .ARM.attributes
                0x000000000000151c       0x22 /home/zjian_zhang/Dplus_Z/project/realtek_amebaDplus_va0_example/GCC-RELEASE/project_km4/asdk/../toolchain/linux/asdk-10.3.1/linux/newlib/lib/gcc/arm-none-eabi/10.3.1/thumb/v8-m.main+fp/fpu/libgcc.a(_arm_truncdfsf2.o)
 .ARM.attributes
                0x000000000000153e       0x22 /home/zjian_zhang/Dplus_Z/project/realtek_amebaDplus_va0_example/GCC-RELEASE/project_km4/asdk/../toolchain/linux/asdk-10.3.1/linux/newlib/lib/gcc/arm-none-eabi/10.3.1/thumb/v8-m.main+fp/fpu/libgcc.a(_aeabi_uldivmod.o)
 .ARM.attributes
                0x0000000000001560       0x38 /home/zjian_zhang/Dplus_Z/project/realtek_amebaDplus_va0_example/GCC-RELEASE/project_km4/asdk/../toolchain/linux/asdk-10.3.1/linux/newlib/lib/gcc/arm-none-eabi/10.3.1/thumb/v8-m.main+fp/fpu/libgcc.a(_fixdfdi.o)
 .ARM.attributes
                0x0000000000001598       0x38 /home/zjian_zhang/Dplus_Z/project/realtek_amebaDplus_va0_example/GCC-RELEASE/project_km4/asdk/../toolchain/linux/asdk-10.3.1/linux/newlib/lib/gcc/arm-none-eabi/10.3.1/thumb/v8-m.main+fp/fpu/libgcc.a(_fixunsdfdi.o)
 .ARM.attributes
                0x00000000000015d0       0x38 /home/zjian_zhang/Dplus_Z/project/realtek_amebaDplus_va0_example/GCC-RELEASE/project_km4/asdk/../toolchain/linux/asdk-10.3.1/linux/newlib/lib/gcc/arm-none-eabi/10.3.1/thumb/v8-m.main+fp/fpu/libgcc.a(_udivmoddi4.o)
 .ARM.attributes
                0x0000000000001608       0x22 /home/zjian_zhang/Dplus_Z/project/realtek_amebaDplus_va0_example/GCC-RELEASE/project_km4/asdk/../toolchain/linux/asdk-10.3.1/linux/newlib/lib/gcc/arm-none-eabi/10.3.1/thumb/v8-m.main+fp/fpu/libgcc.a(_dvmd_tls.o)
 .ARM.attributes
                0x000000000000162a       0x38 /home/zjian_zhang/Dplus_Z/project/realtek_amebaDplus_va0_example/GCC-RELEASE/project_km4/asdk/../toolchain/linux/asdk-10.3.1/linux/newlib/arm-none-eabi/lib/thumb/v8-m.main+fp/fpu/libnosys.a(close.o)
 .ARM.attributes
                0x0000000000001662       0x38 /home/zjian_zhang/Dplus_Z/project/realtek_amebaDplus_va0_example/GCC-RELEASE/project_km4/asdk/../toolchain/linux/asdk-10.3.1/linux/newlib/arm-none-eabi/lib/thumb/v8-m.main+fp/fpu/libnosys.a(fstat.o)
 .ARM.attributes
                0x000000000000169a       0x38 /home/zjian_zhang/Dplus_Z/project/realtek_amebaDplus_va0_example/GCC-RELEASE/project_km4/asdk/../toolchain/linux/asdk-10.3.1/linux/newlib/arm-none-eabi/lib/thumb/v8-m.main+fp/fpu/libnosys.a(getpid.o)
 .ARM.attributes
                0x00000000000016d2       0x38 /home/zjian_zhang/Dplus_Z/project/realtek_amebaDplus_va0_example/GCC-RELEASE/project_km4/asdk/../toolchain/linux/asdk-10.3.1/linux/newlib/arm-none-eabi/lib/thumb/v8-m.main+fp/fpu/libnosys.a(isatty.o)
 .ARM.attributes
                0x000000000000170a       0x38 /home/zjian_zhang/Dplus_Z/project/realtek_amebaDplus_va0_example/GCC-RELEASE/project_km4/asdk/../toolchain/linux/asdk-10.3.1/linux/newlib/arm-none-eabi/lib/thumb/v8-m.main+fp/fpu/libnosys.a(kill.o)
 .ARM.attributes
                0x0000000000001742       0x38 /home/zjian_zhang/Dplus_Z/project/realtek_amebaDplus_va0_example/GCC-RELEASE/project_km4/asdk/../toolchain/linux/asdk-10.3.1/linux/newlib/arm-none-eabi/lib/thumb/v8-m.main+fp/fpu/libnosys.a(lseek.o)
 .ARM.attributes
                0x000000000000177a       0x38 /home/zjian_zhang/Dplus_Z/project/realtek_amebaDplus_va0_example/GCC-RELEASE/project_km4/asdk/../toolchain/linux/asdk-10.3.1/linux/newlib/arm-none-eabi/lib/thumb/v8-m.main+fp/fpu/libnosys.a(sbrk.o)
 .ARM.attributes
                0x00000000000017b2       0x38 /home/zjian_zhang/Dplus_Z/project/realtek_amebaDplus_va0_example/GCC-RELEASE/project_km4/asdk/../toolchain/linux/asdk-10.3.1/linux/newlib/arm-none-eabi/lib/thumb/v8-m.main+fp/fpu/libnosys.a(_exit.o)

.debug_frame    0x0000000000000000     0x24cc
 .debug_frame   0x0000000000000000      0x32c ./build/stdlib/stdlib_link.o
 .debug_frame   0x000000000000032c       0x30 /home/zjian_zhang/Dplus_Z/project/realtek_amebaDplus_va0_example/GCC-RELEASE/project_km4/asdk/../toolchain/linux/asdk-10.3.1/linux/newlib/arm-none-eabi/lib/thumb/v8-m.main+fp/fpu/libc.a(lib_a-atoi.o)
 .debug_frame   0x000000000000035c       0x6c /home/zjian_zhang/Dplus_Z/project/realtek_amebaDplus_va0_example/GCC-RELEASE/project_km4/asdk/../toolchain/linux/asdk-10.3.1/linux/newlib/arm-none-eabi/lib/thumb/v8-m.main+fp/fpu/libc.a(lib_a-printf.o)
 .debug_frame   0x00000000000003c8       0x30 /home/zjian_zhang/Dplus_Z/project/realtek_amebaDplus_va0_example/GCC-RELEASE/project_km4/asdk/../toolchain/linux/asdk-10.3.1/linux/newlib/arm-none-eabi/lib/thumb/v8-m.main+fp/fpu/libc.a(lib_a-putchar.o)
 .debug_frame   0x00000000000003f8       0x3c /home/zjian_zhang/Dplus_Z/project/realtek_amebaDplus_va0_example/GCC-RELEASE/project_km4/asdk/../toolchain/linux/asdk-10.3.1/linux/newlib/arm-none-eabi/lib/thumb/v8-m.main+fp/fpu/libc.a(lib_a-putc.o)
 .debug_frame   0x0000000000000434       0x40 /home/zjian_zhang/Dplus_Z/project/realtek_amebaDplus_va0_example/GCC-RELEASE/project_km4/asdk/../toolchain/linux/asdk-10.3.1/linux/newlib/arm-none-eabi/lib/thumb/v8-m.main+fp/fpu/libc.a(lib_a-puts.o)
 .debug_frame   0x0000000000000474       0x7c /home/zjian_zhang/Dplus_Z/project/realtek_amebaDplus_va0_example/GCC-RELEASE/project_km4/asdk/../toolchain/linux/asdk-10.3.1/linux/newlib/arm-none-eabi/lib/thumb/v8-m.main+fp/fpu/libc.a(lib_a-snprintf.o)
 .debug_frame   0x00000000000004f0       0x6c /home/zjian_zhang/Dplus_Z/project/realtek_amebaDplus_va0_example/GCC-RELEASE/project_km4/asdk/../toolchain/linux/asdk-10.3.1/linux/newlib/arm-none-eabi/lib/thumb/v8-m.main+fp/fpu/libc.a(lib_a-sprintf.o)
 .debug_frame   0x000000000000055c       0x78 /home/zjian_zhang/Dplus_Z/project/realtek_amebaDplus_va0_example/GCC-RELEASE/project_km4/asdk/../toolchain/linux/asdk-10.3.1/linux/newlib/arm-none-eabi/lib/thumb/v8-m.main+fp/fpu/libc.a(lib_a-sscanf.o)
 .debug_frame   0x00000000000005d4       0x88 /home/zjian_zhang/Dplus_Z/project/realtek_amebaDplus_va0_example/GCC-RELEASE/project_km4/asdk/../toolchain/linux/asdk-10.3.1/linux/newlib/arm-none-eabi/lib/thumb/v8-m.main+fp/fpu/libc.a(lib_a-stdio.o)
 .debug_frame   0x000000000000065c       0x2c /home/zjian_zhang/Dplus_Z/project/realtek_amebaDplus_va0_example/GCC-RELEASE/project_km4/asdk/../toolchain/linux/asdk-10.3.1/linux/newlib/arm-none-eabi/lib/thumb/v8-m.main+fp/fpu/libc.a(lib_a-strcat.o)
 .debug_frame   0x0000000000000688       0x30 /home/zjian_zhang/Dplus_Z/project/realtek_amebaDplus_va0_example/GCC-RELEASE/project_km4/asdk/../toolchain/linux/asdk-10.3.1/linux/newlib/arm-none-eabi/lib/thumb/v8-m.main+fp/fpu/libc.a(lib_a-strchr.o)
 .debug_frame   0x00000000000006b8       0x20 /home/zjian_zhang/Dplus_Z/project/realtek_amebaDplus_va0_example/GCC-RELEASE/project_km4/asdk/../toolchain/linux/asdk-10.3.1/linux/newlib/arm-none-eabi/lib/thumb/v8-m.main+fp/fpu/libc.a(lib_a-strcpy.o)
 .debug_frame   0x00000000000006d8       0x20 /home/zjian_zhang/Dplus_Z/project/realtek_amebaDplus_va0_example/GCC-RELEASE/project_km4/asdk/../toolchain/linux/asdk-10.3.1/linux/newlib/arm-none-eabi/lib/thumb/v8-m.main+fp/fpu/libc.a(lib_a-strlen-stub.o)
 .debug_frame   0x00000000000006f8       0x2c /home/zjian_zhang/Dplus_Z/project/realtek_amebaDplus_va0_example/GCC-RELEASE/project_km4/asdk/../toolchain/linux/asdk-10.3.1/linux/newlib/arm-none-eabi/lib/thumb/v8-m.main+fp/fpu/libc.a(lib_a-strncat.o)
 .debug_frame   0x0000000000000724       0x2c /home/zjian_zhang/Dplus_Z/project/realtek_amebaDplus_va0_example/GCC-RELEASE/project_km4/asdk/../toolchain/linux/asdk-10.3.1/linux/newlib/arm-none-eabi/lib/thumb/v8-m.main+fp/fpu/libc.a(lib_a-strncmp.o)
 .debug_frame   0x0000000000000750       0x2c /home/zjian_zhang/Dplus_Z/project/realtek_amebaDplus_va0_example/GCC-RELEASE/project_km4/asdk/../toolchain/linux/asdk-10.3.1/linux/newlib/arm-none-eabi/lib/thumb/v8-m.main+fp/fpu/libc.a(lib_a-strncpy.o)
 .debug_frame   0x000000000000077c       0x2c /home/zjian_zhang/Dplus_Z/project/realtek_amebaDplus_va0_example/GCC-RELEASE/project_km4/asdk/../toolchain/linux/asdk-10.3.1/linux/newlib/arm-none-eabi/lib/thumb/v8-m.main+fp/fpu/libc.a(lib_a-strpbrk.o)
 .debug_frame   0x00000000000007a8       0x20 /home/zjian_zhang/Dplus_Z/project/realtek_amebaDplus_va0_example/GCC-RELEASE/project_km4/asdk/../toolchain/linux/asdk-10.3.1/linux/newlib/arm-none-eabi/lib/thumb/v8-m.main+fp/fpu/libc.a(lib_a-strsep.o)
 .debug_frame   0x00000000000007c8       0x88 /home/zjian_zhang/Dplus_Z/project/realtek_amebaDplus_va0_example/GCC-RELEASE/project_km4/asdk/../toolchain/linux/asdk-10.3.1/linux/newlib/arm-none-eabi/lib/thumb/v8-m.main+fp/fpu/libc.a(lib_a-strstr.o)
 .debug_frame   0x0000000000000850       0x20 /home/zjian_zhang/Dplus_Z/project/realtek_amebaDplus_va0_example/GCC-RELEASE/project_km4/asdk/../toolchain/linux/asdk-10.3.1/linux/newlib/arm-none-eabi/lib/thumb/v8-m.main+fp/fpu/libc.a(lib_a-strtok.o)
 .debug_frame   0x0000000000000870       0x40 /home/zjian_zhang/Dplus_Z/project/realtek_amebaDplus_va0_example/GCC-RELEASE/project_km4/asdk/../toolchain/linux/asdk-10.3.1/linux/newlib/arm-none-eabi/lib/thumb/v8-m.main+fp/fpu/libc.a(lib_a-strtok_r.o)
 .debug_frame   0x00000000000008b0       0x64 /home/zjian_zhang/Dplus_Z/project/realtek_amebaDplus_va0_example/GCC-RELEASE/project_km4/asdk/../toolchain/linux/asdk-10.3.1/linux/newlib/arm-none-eabi/lib/thumb/v8-m.main+fp/fpu/libc.a(lib_a-strtol.o)
 .debug_frame   0x0000000000000914       0x5c /home/zjian_zhang/Dplus_Z/project/realtek_amebaDplus_va0_example/GCC-RELEASE/project_km4/asdk/../toolchain/linux/asdk-10.3.1/linux/newlib/arm-none-eabi/lib/thumb/v8-m.main+fp/fpu/libc.a(lib_a-svfprintf.o)
 .debug_frame   0x0000000000000970       0x5c /home/zjian_zhang/Dplus_Z/project/realtek_amebaDplus_va0_example/GCC-RELEASE/project_km4/asdk/../toolchain/linux/asdk-10.3.1/linux/newlib/arm-none-eabi/lib/thumb/v8-m.main+fp/fpu/libc.a(lib_a-svfscanf.o)
 .debug_frame   0x00000000000009cc       0xac /home/zjian_zhang/Dplus_Z/project/realtek_amebaDplus_va0_example/GCC-RELEASE/project_km4/asdk/../toolchain/linux/asdk-10.3.1/linux/newlib/arm-none-eabi/lib/thumb/v8-m.main+fp/fpu/libc.a(lib_a-vfprintf.o)
 .debug_frame   0x0000000000000a78       0x4c /home/zjian_zhang/Dplus_Z/project/realtek_amebaDplus_va0_example/GCC-RELEASE/project_km4/asdk/../toolchain/linux/asdk-10.3.1/linux/newlib/arm-none-eabi/lib/thumb/v8-m.main+fp/fpu/libc.a(lib_a-vsnprintf.o)
 .debug_frame   0x0000000000000ac4       0x40 /home/zjian_zhang/Dplus_Z/project/realtek_amebaDplus_va0_example/GCC-RELEASE/project_km4/asdk/../toolchain/linux/asdk-10.3.1/linux/newlib/arm-none-eabi/lib/thumb/v8-m.main+fp/fpu/libc.a(lib_a-wbuf.o)
 .debug_frame   0x0000000000000b04       0x2c /home/zjian_zhang/Dplus_Z/project/realtek_amebaDplus_va0_example/GCC-RELEASE/project_km4/asdk/../toolchain/linux/asdk-10.3.1/linux/newlib/arm-none-eabi/lib/thumb/v8-m.main+fp/fpu/libc.a(lib_a-writer.o)
 .debug_frame   0x0000000000000b30       0x2c /home/zjian_zhang/Dplus_Z/project/realtek_amebaDplus_va0_example/GCC-RELEASE/project_km4/asdk/../toolchain/linux/asdk-10.3.1/linux/newlib/arm-none-eabi/lib/thumb/v8-m.main+fp/fpu/libc.a(lib_a-wsetup.o)
 .debug_frame   0x0000000000000b5c       0x2c /home/zjian_zhang/Dplus_Z/project/realtek_amebaDplus_va0_example/GCC-RELEASE/project_km4/asdk/../toolchain/linux/asdk-10.3.1/linux/newlib/arm-none-eabi/lib/thumb/v8-m.main+fp/fpu/libc.a(lib_a-closer.o)
 .debug_frame   0x0000000000000b88       0x88 /home/zjian_zhang/Dplus_Z/project/realtek_amebaDplus_va0_example/GCC-RELEASE/project_km4/asdk/../toolchain/linux/asdk-10.3.1/linux/newlib/arm-none-eabi/lib/thumb/v8-m.main+fp/fpu/libc.a(lib_a-dtoa.o)
 .debug_frame   0x0000000000000c10       0x20 /home/zjian_zhang/Dplus_Z/project/realtek_amebaDplus_va0_example/GCC-RELEASE/project_km4/asdk/../toolchain/linux/asdk-10.3.1/linux/newlib/arm-none-eabi/lib/thumb/v8-m.main+fp/fpu/libc.a(lib_a-errno.o)
 .debug_frame   0x0000000000000c30       0x5c /home/zjian_zhang/Dplus_Z/project/realtek_amebaDplus_va0_example/GCC-RELEASE/project_km4/asdk/../toolchain/linux/asdk-10.3.1/linux/newlib/arm-none-eabi/lib/thumb/v8-m.main+fp/fpu/libc.a(lib_a-fflush.o)
 .debug_frame   0x0000000000000c8c      0x150 /home/zjian_zhang/Dplus_Z/project/realtek_amebaDplus_va0_example/GCC-RELEASE/project_km4/asdk/../toolchain/linux/asdk-10.3.1/linux/newlib/arm-none-eabi/lib/thumb/v8-m.main+fp/fpu/libc.a(lib_a-findfp.o)
 .debug_frame   0x0000000000000ddc       0x20 /home/zjian_zhang/Dplus_Z/project/realtek_amebaDplus_va0_example/GCC-RELEASE/project_km4/asdk/../toolchain/linux/asdk-10.3.1/linux/newlib/arm-none-eabi/lib/thumb/v8-m.main+fp/fpu/libc.a(lib_a-free.o)
 .debug_frame   0x0000000000000dfc       0x5c /home/zjian_zhang/Dplus_Z/project/realtek_amebaDplus_va0_example/GCC-RELEASE/project_km4/asdk/../toolchain/linux/asdk-10.3.1/linux/newlib/arm-none-eabi/lib/thumb/v8-m.main+fp/fpu/libc.a(lib_a-freer.o)
 .debug_frame   0x0000000000000e58       0x3c /home/zjian_zhang/Dplus_Z/project/realtek_amebaDplus_va0_example/GCC-RELEASE/project_km4/asdk/../toolchain/linux/asdk-10.3.1/linux/newlib/arm-none-eabi/lib/thumb/v8-m.main+fp/fpu/libc.a(lib_a-fvwrite.o)
 .debug_frame   0x0000000000000e94       0x54 /home/zjian_zhang/Dplus_Z/project/realtek_amebaDplus_va0_example/GCC-RELEASE/project_km4/asdk/../toolchain/linux/asdk-10.3.1/linux/newlib/arm-none-eabi/lib/thumb/v8-m.main+fp/fpu/libc.a(lib_a-fwalk.o)
 .debug_frame   0x0000000000000ee8       0x20 /home/zjian_zhang/Dplus_Z/project/realtek_amebaDplus_va0_example/GCC-RELEASE/project_km4/asdk/../toolchain/linux/asdk-10.3.1/linux/newlib/arm-none-eabi/lib/thumb/v8-m.main+fp/fpu/libc.a(lib_a-iswspace.o)
 .debug_frame   0x0000000000000f08       0x40 /home/zjian_zhang/Dplus_Z/project/realtek_amebaDplus_va0_example/GCC-RELEASE/project_km4/asdk/../toolchain/linux/asdk-10.3.1/linux/newlib/arm-none-eabi/lib/thumb/v8-m.main+fp/fpu/libc.a(lib_a-localeconv.o)
 .debug_frame   0x0000000000000f48       0x48 /home/zjian_zhang/Dplus_Z/project/realtek_amebaDplus_va0_example/GCC-RELEASE/project_km4/asdk/../toolchain/linux/asdk-10.3.1/linux/newlib/arm-none-eabi/lib/thumb/v8-m.main+fp/fpu/libc.a(lib_a-locale.o)
 .debug_frame   0x0000000000000f90       0xb0 /home/zjian_zhang/Dplus_Z/project/realtek_amebaDplus_va0_example/GCC-RELEASE/project_km4/asdk/../toolchain/linux/asdk-10.3.1/linux/newlib/arm-none-eabi/lib/thumb/v8-m.main+fp/fpu/libc.a(lib_a-lock.o)
 .debug_frame   0x0000000000001040       0x2c /home/zjian_zhang/Dplus_Z/project/realtek_amebaDplus_va0_example/GCC-RELEASE/project_km4/asdk/../toolchain/linux/asdk-10.3.1/linux/newlib/arm-none-eabi/lib/thumb/v8-m.main+fp/fpu/libc.a(lib_a-lseekr.o)
 .debug_frame   0x000000000000106c       0x58 /home/zjian_zhang/Dplus_Z/project/realtek_amebaDplus_va0_example/GCC-RELEASE/project_km4/asdk/../toolchain/linux/asdk-10.3.1/linux/newlib/arm-none-eabi/lib/thumb/v8-m.main+fp/fpu/libc.a(lib_a-makebuf.o)
 .debug_frame   0x00000000000010c4       0x20 /home/zjian_zhang/Dplus_Z/project/realtek_amebaDplus_va0_example/GCC-RELEASE/project_km4/asdk/../toolchain/linux/asdk-10.3.1/linux/newlib/arm-none-eabi/lib/thumb/v8-m.main+fp/fpu/libc.a(lib_a-malloc.o)
 .debug_frame   0x00000000000010e4       0x40 /home/zjian_zhang/Dplus_Z/project/realtek_amebaDplus_va0_example/GCC-RELEASE/project_km4/asdk/../toolchain/linux/asdk-10.3.1/linux/newlib/arm-none-eabi/lib/thumb/v8-m.main+fp/fpu/libc.a(lib_a-mallocr.o)
 .debug_frame   0x0000000000001124       0x48 /home/zjian_zhang/Dplus_Z/project/realtek_amebaDplus_va0_example/GCC-RELEASE/project_km4/asdk/../toolchain/linux/asdk-10.3.1/linux/newlib/arm-none-eabi/lib/thumb/v8-m.main+fp/fpu/libc.a(lib_a-mbrtowc.o)
 .debug_frame   0x000000000000116c       0x48 /home/zjian_zhang/Dplus_Z/project/realtek_amebaDplus_va0_example/GCC-RELEASE/project_km4/asdk/../toolchain/linux/asdk-10.3.1/linux/newlib/arm-none-eabi/lib/thumb/v8-m.main+fp/fpu/libc.a(lib_a-mbtowc_r.o)
 .debug_frame   0x00000000000011b4       0x2c /home/zjian_zhang/Dplus_Z/project/realtek_amebaDplus_va0_example/GCC-RELEASE/project_km4/asdk/../toolchain/linux/asdk-10.3.1/linux/newlib/arm-none-eabi/lib/thumb/v8-m.main+fp/fpu/libc.a(lib_a-memchr-stub.o)
 .debug_frame   0x00000000000011e0       0x2c /home/zjian_zhang/Dplus_Z/project/realtek_amebaDplus_va0_example/GCC-RELEASE/project_km4/asdk/../toolchain/linux/asdk-10.3.1/linux/newlib/arm-none-eabi/lib/thumb/v8-m.main+fp/fpu/libc.a(lib_a-memcmp.o)
 .debug_frame   0x000000000000120c       0x30 /home/zjian_zhang/Dplus_Z/project/realtek_amebaDplus_va0_example/GCC-RELEASE/project_km4/asdk/../toolchain/linux/asdk-10.3.1/linux/newlib/arm-none-eabi/lib/thumb/v8-m.main+fp/fpu/libc.a(lib_a-memmove.o)
 .debug_frame   0x000000000000123c       0x2c /home/zjian_zhang/Dplus_Z/project/realtek_amebaDplus_va0_example/GCC-RELEASE/project_km4/asdk/../toolchain/linux/asdk-10.3.1/linux/newlib/arm-none-eabi/lib/thumb/v8-m.main+fp/fpu/libc.a(lib_a-memset-stub.o)
 .debug_frame   0x0000000000001268       0x30 /home/zjian_zhang/Dplus_Z/project/realtek_amebaDplus_va0_example/GCC-RELEASE/project_km4/asdk/../toolchain/linux/asdk-10.3.1/linux/newlib/arm-none-eabi/lib/thumb/v8-m.main+fp/fpu/libc.a(lib_a-mlock.o)
 .debug_frame   0x0000000000001298      0x250 /home/zjian_zhang/Dplus_Z/project/realtek_amebaDplus_va0_example/GCC-RELEASE/project_km4/asdk/../toolchain/linux/asdk-10.3.1/linux/newlib/arm-none-eabi/lib/thumb/v8-m.main+fp/fpu/libc.a(lib_a-mprec.o)
 .debug_frame   0x00000000000014e8       0x2c /home/zjian_zhang/Dplus_Z/project/realtek_amebaDplus_va0_example/GCC-RELEASE/project_km4/asdk/../toolchain/linux/asdk-10.3.1/linux/newlib/arm-none-eabi/lib/thumb/v8-m.main+fp/fpu/libc.a(lib_a-readr.o)
 .debug_frame   0x0000000000001514       0x20 /home/zjian_zhang/Dplus_Z/project/realtek_amebaDplus_va0_example/GCC-RELEASE/project_km4/asdk/../toolchain/linux/asdk-10.3.1/linux/newlib/arm-none-eabi/lib/thumb/v8-m.main+fp/fpu/libc.a(lib_a-realloc.o)
 .debug_frame   0x0000000000001534       0x50 /home/zjian_zhang/Dplus_Z/project/realtek_amebaDplus_va0_example/GCC-RELEASE/project_km4/asdk/../toolchain/linux/asdk-10.3.1/linux/newlib/arm-none-eabi/lib/thumb/v8-m.main+fp/fpu/libc.a(lib_a-reallocr.o)
 .debug_frame   0x0000000000001584       0x5c /home/zjian_zhang/Dplus_Z/project/realtek_amebaDplus_va0_example/GCC-RELEASE/project_km4/asdk/../toolchain/linux/asdk-10.3.1/linux/newlib/arm-none-eabi/lib/thumb/v8-m.main+fp/fpu/libc.a(lib_a-reent.o)
 .debug_frame   0x00000000000015e0       0x2c /home/zjian_zhang/Dplus_Z/project/realtek_amebaDplus_va0_example/GCC-RELEASE/project_km4/asdk/../toolchain/linux/asdk-10.3.1/linux/newlib/arm-none-eabi/lib/thumb/v8-m.main+fp/fpu/libc.a(lib_a-sbrkr.o)
 .debug_frame   0x000000000000160c       0x2c /home/zjian_zhang/Dplus_Z/project/realtek_amebaDplus_va0_example/GCC-RELEASE/project_km4/asdk/../toolchain/linux/asdk-10.3.1/linux/newlib/arm-none-eabi/lib/thumb/v8-m.main+fp/fpu/libc.a(lib_a-sccl.o)
 .debug_frame   0x0000000000001638       0x20 /home/zjian_zhang/Dplus_Z/project/realtek_amebaDplus_va0_example/GCC-RELEASE/project_km4/asdk/../toolchain/linux/asdk-10.3.1/linux/newlib/arm-none-eabi/lib/thumb/v8-m.main+fp/fpu/libc.a(lib_a-sf_nan.o)
 .debug_frame   0x0000000000001658       0x2c /home/zjian_zhang/Dplus_Z/project/realtek_amebaDplus_va0_example/GCC-RELEASE/project_km4/asdk/../toolchain/linux/asdk-10.3.1/linux/newlib/arm-none-eabi/lib/thumb/v8-m.main+fp/fpu/libc.a(lib_a-s_frexp.o)
 .debug_frame   0x0000000000001684       0x34 /home/zjian_zhang/Dplus_Z/project/realtek_amebaDplus_va0_example/GCC-RELEASE/project_km4/asdk/../toolchain/linux/asdk-10.3.1/linux/newlib/arm-none-eabi/lib/thumb/v8-m.main+fp/fpu/libc.a(lib_a-strcmp.o)
 .debug_frame   0x00000000000016b8       0x28 /home/zjian_zhang/Dplus_Z/project/realtek_amebaDplus_va0_example/GCC-RELEASE/project_km4/asdk/../toolchain/linux/asdk-10.3.1/linux/newlib/arm-none-eabi/lib/thumb/v8-m.main+fp/fpu/libc.a(lib_a-strnlen.o)
 .debug_frame   0x00000000000016e0      0x12c /home/zjian_zhang/Dplus_Z/project/realtek_amebaDplus_va0_example/GCC-RELEASE/project_km4/asdk/../toolchain/linux/asdk-10.3.1/linux/newlib/arm-none-eabi/lib/thumb/v8-m.main+fp/fpu/libc.a(lib_a-strtod.o)
 .debug_frame   0x000000000000180c       0x70 /home/zjian_zhang/Dplus_Z/project/realtek_amebaDplus_va0_example/GCC-RELEASE/project_km4/asdk/../toolchain/linux/asdk-10.3.1/linux/newlib/arm-none-eabi/lib/thumb/v8-m.main+fp/fpu/libc.a(lib_a-strtoll.o)
 .debug_frame   0x000000000000187c       0x6c /home/zjian_zhang/Dplus_Z/project/realtek_amebaDplus_va0_example/GCC-RELEASE/project_km4/asdk/../toolchain/linux/asdk-10.3.1/linux/newlib/arm-none-eabi/lib/thumb/v8-m.main+fp/fpu/libc.a(lib_a-strtoull.o)
 .debug_frame   0x00000000000018e8       0x64 /home/zjian_zhang/Dplus_Z/project/realtek_amebaDplus_va0_example/GCC-RELEASE/project_km4/asdk/../toolchain/linux/asdk-10.3.1/linux/newlib/arm-none-eabi/lib/thumb/v8-m.main+fp/fpu/libc.a(lib_a-strtoul.o)
 .debug_frame   0x000000000000194c       0x7c /home/zjian_zhang/Dplus_Z/project/realtek_amebaDplus_va0_example/GCC-RELEASE/project_km4/asdk/../toolchain/linux/asdk-10.3.1/linux/newlib/arm-none-eabi/lib/thumb/v8-m.main+fp/fpu/libc.a(lib_a-svfiprintf.o)
 .debug_frame   0x00000000000019c8       0xbc /home/zjian_zhang/Dplus_Z/project/realtek_amebaDplus_va0_example/GCC-RELEASE/project_km4/asdk/../toolchain/linux/asdk-10.3.1/linux/newlib/arm-none-eabi/lib/thumb/v8-m.main+fp/fpu/libc.a(lib_a-svfiscanf.o)
 .debug_frame   0x0000000000001a84       0x5c /home/zjian_zhang/Dplus_Z/project/realtek_amebaDplus_va0_example/GCC-RELEASE/project_km4/asdk/../toolchain/linux/asdk-10.3.1/linux/newlib/arm-none-eabi/lib/thumb/v8-m.main+fp/fpu/libc.a(lib_a-ungetc.o)
 .debug_frame   0x0000000000001ae0       0xc4 /home/zjian_zhang/Dplus_Z/project/realtek_amebaDplus_va0_example/GCC-RELEASE/project_km4/asdk/../toolchain/linux/asdk-10.3.1/linux/newlib/arm-none-eabi/lib/thumb/v8-m.main+fp/fpu/libc.a(lib_a-vfiprintf.o)
 .debug_frame   0x0000000000001ba4       0x3c /home/zjian_zhang/Dplus_Z/project/realtek_amebaDplus_va0_example/GCC-RELEASE/project_km4/asdk/../toolchain/linux/asdk-10.3.1/linux/newlib/arm-none-eabi/lib/thumb/v8-m.main+fp/fpu/libc.a(lib_a-wctomb_r.o)
 .debug_frame   0x0000000000001be0       0x40 /home/zjian_zhang/Dplus_Z/project/realtek_amebaDplus_va0_example/GCC-RELEASE/project_km4/asdk/../toolchain/linux/asdk-10.3.1/linux/newlib/arm-none-eabi/lib/thumb/v8-m.main+fp/fpu/libc.a(lib_a-assert.o)
 .debug_frame   0x0000000000001c20       0x2c /home/zjian_zhang/Dplus_Z/project/realtek_amebaDplus_va0_example/GCC-RELEASE/project_km4/asdk/../toolchain/linux/asdk-10.3.1/linux/newlib/arm-none-eabi/lib/thumb/v8-m.main+fp/fpu/libc.a(lib_a-callocr.o)
 .debug_frame   0x0000000000001c4c       0x3c /home/zjian_zhang/Dplus_Z/project/realtek_amebaDplus_va0_example/GCC-RELEASE/project_km4/asdk/../toolchain/linux/asdk-10.3.1/linux/newlib/arm-none-eabi/lib/thumb/v8-m.main+fp/fpu/libc.a(lib_a-fclose.o)
 .debug_frame   0x0000000000001c88       0x64 /home/zjian_zhang/Dplus_Z/project/realtek_amebaDplus_va0_example/GCC-RELEASE/project_km4/asdk/../toolchain/linux/asdk-10.3.1/linux/newlib/arm-none-eabi/lib/thumb/v8-m.main+fp/fpu/libc.a(lib_a-fiprintf.o)
 .debug_frame   0x0000000000001cec       0x78 /home/zjian_zhang/Dplus_Z/project/realtek_amebaDplus_va0_example/GCC-RELEASE/project_km4/asdk/../toolchain/linux/asdk-10.3.1/linux/newlib/arm-none-eabi/lib/thumb/v8-m.main+fp/fpu/libc.a(lib_a-fputwc.o)
 .debug_frame   0x0000000000001d64       0x2c /home/zjian_zhang/Dplus_Z/project/realtek_amebaDplus_va0_example/GCC-RELEASE/project_km4/asdk/../toolchain/linux/asdk-10.3.1/linux/newlib/arm-none-eabi/lib/thumb/v8-m.main+fp/fpu/libc.a(lib_a-fstatr.o)
 .debug_frame   0x0000000000001d90       0x84 /home/zjian_zhang/Dplus_Z/project/realtek_amebaDplus_va0_example/GCC-RELEASE/project_km4/asdk/../toolchain/linux/asdk-10.3.1/linux/newlib/arm-none-eabi/lib/thumb/v8-m.main+fp/fpu/libc.a(lib_a-gdtoa-gethex.o)
 .debug_frame   0x0000000000001e14       0x74 /home/zjian_zhang/Dplus_Z/project/realtek_amebaDplus_va0_example/GCC-RELEASE/project_km4/asdk/../toolchain/linux/asdk-10.3.1/linux/newlib/arm-none-eabi/lib/thumb/v8-m.main+fp/fpu/libc.a(lib_a-gdtoa-hexnan.o)
 .debug_frame   0x0000000000001e88       0x2c /home/zjian_zhang/Dplus_Z/project/realtek_amebaDplus_va0_example/GCC-RELEASE/project_km4/asdk/../toolchain/linux/asdk-10.3.1/linux/newlib/arm-none-eabi/lib/thumb/v8-m.main+fp/fpu/libc.a(lib_a-isattyr.o)
 .debug_frame   0x0000000000001eb4       0x20 /home/zjian_zhang/Dplus_Z/project/realtek_amebaDplus_va0_example/GCC-RELEASE/project_km4/asdk/../toolchain/linux/asdk-10.3.1/linux/newlib/arm-none-eabi/lib/thumb/v8-m.main+fp/fpu/libc.a(lib_a-iswspace_l.o)
 .debug_frame   0x0000000000001ed4       0x20 /home/zjian_zhang/Dplus_Z/project/realtek_amebaDplus_va0_example/GCC-RELEASE/project_km4/asdk/../toolchain/linux/asdk-10.3.1/linux/newlib/arm-none-eabi/lib/thumb/v8-m.main+fp/fpu/libc.a(lib_a-lnumeric.o)
 .debug_frame   0x0000000000001ef4       0x20 /home/zjian_zhang/Dplus_Z/project/realtek_amebaDplus_va0_example/GCC-RELEASE/project_km4/asdk/../toolchain/linux/asdk-10.3.1/linux/newlib/arm-none-eabi/lib/thumb/v8-m.main+fp/fpu/libc.a(lib_a-s_nan.o)
 .debug_frame   0x0000000000001f14       0x44 /home/zjian_zhang/Dplus_Z/project/realtek_amebaDplus_va0_example/GCC-RELEASE/project_km4/asdk/../toolchain/linux/asdk-10.3.1/linux/newlib/arm-none-eabi/lib/thumb/v8-m.main+fp/fpu/libc.a(lib_a-wcrtomb.o)
 .debug_frame   0x0000000000001f58       0x28 /home/zjian_zhang/Dplus_Z/project/realtek_amebaDplus_va0_example/GCC-RELEASE/project_km4/asdk/../toolchain/linux/asdk-10.3.1/linux/newlib/arm-none-eabi/lib/thumb/v8-m.main+fp/fpu/libc.a(lib_a-abort.o)
 .debug_frame   0x0000000000001f80       0xcc /home/zjian_zhang/Dplus_Z/project/realtek_amebaDplus_va0_example/GCC-RELEASE/project_km4/asdk/../toolchain/linux/asdk-10.3.1/linux/newlib/arm-none-eabi/lib/thumb/v8-m.main+fp/fpu/libc.a(lib_a-signal.o)
 .debug_frame   0x000000000000204c       0x3c /home/zjian_zhang/Dplus_Z/project/realtek_amebaDplus_va0_example/GCC-RELEASE/project_km4/asdk/../toolchain/linux/asdk-10.3.1/linux/newlib/arm-none-eabi/lib/thumb/v8-m.main+fp/fpu/libc.a(lib_a-signalr.o)
 .debug_frame   0x0000000000002088       0x30 /home/zjian_zhang/Dplus_Z/project/realtek_amebaDplus_va0_example/GCC-RELEASE/project_km4/asdk/../toolchain/linux/asdk-10.3.1/linux/newlib/lib/gcc/arm-none-eabi/10.3.1/thumb/v8-m.main+fp/fpu/libgcc.a(_arm_muldf3.o)
 .debug_frame   0x00000000000020b8       0xac /home/zjian_zhang/Dplus_Z/project/realtek_amebaDplus_va0_example/GCC-RELEASE/project_km4/asdk/../toolchain/linux/asdk-10.3.1/linux/newlib/lib/gcc/arm-none-eabi/10.3.1/thumb/v8-m.main+fp/fpu/libgcc.a(_arm_addsubdf3.o)
 .debug_frame   0x0000000000002164       0x50 /home/zjian_zhang/Dplus_Z/project/realtek_amebaDplus_va0_example/GCC-RELEASE/project_km4/asdk/../toolchain/linux/asdk-10.3.1/linux/newlib/lib/gcc/arm-none-eabi/10.3.1/thumb/v8-m.main+fp/fpu/libgcc.a(_arm_muldivdf3.o)
 .debug_frame   0x00000000000021b4       0xc4 /home/zjian_zhang/Dplus_Z/project/realtek_amebaDplus_va0_example/GCC-RELEASE/project_km4/asdk/../toolchain/linux/asdk-10.3.1/linux/newlib/lib/gcc/arm-none-eabi/10.3.1/thumb/v8-m.main+fp/fpu/libgcc.a(_arm_cmpdf2.o)
 .debug_frame   0x0000000000002278       0x20 /home/zjian_zhang/Dplus_Z/project/realtek_amebaDplus_va0_example/GCC-RELEASE/project_km4/asdk/../toolchain/linux/asdk-10.3.1/linux/newlib/lib/gcc/arm-none-eabi/10.3.1/thumb/v8-m.main+fp/fpu/libgcc.a(_arm_unorddf2.o)
 .debug_frame   0x0000000000002298       0x24 /home/zjian_zhang/Dplus_Z/project/realtek_amebaDplus_va0_example/GCC-RELEASE/project_km4/asdk/../toolchain/linux/asdk-10.3.1/linux/newlib/lib/gcc/arm-none-eabi/10.3.1/thumb/v8-m.main+fp/fpu/libgcc.a(_arm_fixdfsi.o)
 .debug_frame   0x00000000000022bc       0x24 /home/zjian_zhang/Dplus_Z/project/realtek_amebaDplus_va0_example/GCC-RELEASE/project_km4/asdk/../toolchain/linux/asdk-10.3.1/linux/newlib/lib/gcc/arm-none-eabi/10.3.1/thumb/v8-m.main+fp/fpu/libgcc.a(_arm_fixunsdfsi.o)
 .debug_frame   0x00000000000022e0       0x24 /home/zjian_zhang/Dplus_Z/project/realtek_amebaDplus_va0_example/GCC-RELEASE/project_km4/asdk/../toolchain/linux/asdk-10.3.1/linux/newlib/lib/gcc/arm-none-eabi/10.3.1/thumb/v8-m.main+fp/fpu/libgcc.a(_arm_truncdfsf2.o)
 .debug_frame   0x0000000000002304       0x2c /home/zjian_zhang/Dplus_Z/project/realtek_amebaDplus_va0_example/GCC-RELEASE/project_km4/asdk/../toolchain/linux/asdk-10.3.1/linux/newlib/lib/gcc/arm-none-eabi/10.3.1/thumb/v8-m.main+fp/fpu/libgcc.a(_aeabi_uldivmod.o)
 .debug_frame   0x0000000000002330       0x38 /home/zjian_zhang/Dplus_Z/project/realtek_amebaDplus_va0_example/GCC-RELEASE/project_km4/asdk/../toolchain/linux/asdk-10.3.1/linux/newlib/lib/gcc/arm-none-eabi/10.3.1/thumb/v8-m.main+fp/fpu/libgcc.a(_fixdfdi.o)
 .debug_frame   0x0000000000002368       0x2c /home/zjian_zhang/Dplus_Z/project/realtek_amebaDplus_va0_example/GCC-RELEASE/project_km4/asdk/../toolchain/linux/asdk-10.3.1/linux/newlib/lib/gcc/arm-none-eabi/10.3.1/thumb/v8-m.main+fp/fpu/libgcc.a(_fixunsdfdi.o)
 .debug_frame   0x0000000000002394       0x38 /home/zjian_zhang/Dplus_Z/project/realtek_amebaDplus_va0_example/GCC-RELEASE/project_km4/asdk/../toolchain/linux/asdk-10.3.1/linux/newlib/lib/gcc/arm-none-eabi/10.3.1/thumb/v8-m.main+fp/fpu/libgcc.a(_udivmoddi4.o)
 .debug_frame   0x00000000000023cc       0x20 /home/zjian_zhang/Dplus_Z/project/realtek_amebaDplus_va0_example/GCC-RELEASE/project_km4/asdk/../toolchain/linux/asdk-10.3.1/linux/newlib/arm-none-eabi/lib/thumb/v8-m.main+fp/fpu/libnosys.a(close.o)
 .debug_frame   0x00000000000023ec       0x20 /home/zjian_zhang/Dplus_Z/project/realtek_amebaDplus_va0_example/GCC-RELEASE/project_km4/asdk/../toolchain/linux/asdk-10.3.1/linux/newlib/arm-none-eabi/lib/thumb/v8-m.main+fp/fpu/libnosys.a(fstat.o)
 .debug_frame   0x000000000000240c       0x20 /home/zjian_zhang/Dplus_Z/project/realtek_amebaDplus_va0_example/GCC-RELEASE/project_km4/asdk/../toolchain/linux/asdk-10.3.1/linux/newlib/arm-none-eabi/lib/thumb/v8-m.main+fp/fpu/libnosys.a(getpid.o)
 .debug_frame   0x000000000000242c       0x20 /home/zjian_zhang/Dplus_Z/project/realtek_amebaDplus_va0_example/GCC-RELEASE/project_km4/asdk/../toolchain/linux/asdk-10.3.1/linux/newlib/arm-none-eabi/lib/thumb/v8-m.main+fp/fpu/libnosys.a(isatty.o)
 .debug_frame   0x000000000000244c       0x20 /home/zjian_zhang/Dplus_Z/project/realtek_amebaDplus_va0_example/GCC-RELEASE/project_km4/asdk/../toolchain/linux/asdk-10.3.1/linux/newlib/arm-none-eabi/lib/thumb/v8-m.main+fp/fpu/libnosys.a(kill.o)
 .debug_frame   0x000000000000246c       0x20 /home/zjian_zhang/Dplus_Z/project/realtek_amebaDplus_va0_example/GCC-RELEASE/project_km4/asdk/../toolchain/linux/asdk-10.3.1/linux/newlib/arm-none-eabi/lib/thumb/v8-m.main+fp/fpu/libnosys.a(lseek.o)
 .debug_frame   0x000000000000248c       0x20 /home/zjian_zhang/Dplus_Z/project/realtek_amebaDplus_va0_example/GCC-RELEASE/project_km4/asdk/../toolchain/linux/asdk-10.3.1/linux/newlib/arm-none-eabi/lib/thumb/v8-m.main+fp/fpu/libnosys.a(sbrk.o)
 .debug_frame   0x00000000000024ac       0x20 /home/zjian_zhang/Dplus_Z/project/realtek_amebaDplus_va0_example/GCC-RELEASE/project_km4/asdk/../toolchain/linux/asdk-10.3.1/linux/newlib/arm-none-eabi/lib/thumb/v8-m.main+fp/fpu/libnosys.a(_exit.o)

.stab           0x0000000000000000       0x9c
 .stab          0x0000000000000000       0x24 /home/zjian_zhang/Dplus_Z/project/realtek_amebaDplus_va0_example/GCC-RELEASE/project_km4/asdk/../toolchain/linux/asdk-10.3.1/linux/newlib/arm-none-eabi/lib/thumb/v8-m.main+fp/fpu/libnosys.a(close.o)
 .stab          0x0000000000000024       0x18 /home/zjian_zhang/Dplus_Z/project/realtek_amebaDplus_va0_example/GCC-RELEASE/project_km4/asdk/../toolchain/linux/asdk-10.3.1/linux/newlib/arm-none-eabi/lib/thumb/v8-m.main+fp/fpu/libnosys.a(fstat.o)
                                         0x24 (size before relaxing)
 .stab          0x000000000000003c       0x18 /home/zjian_zhang/Dplus_Z/project/realtek_amebaDplus_va0_example/GCC-RELEASE/project_km4/asdk/../toolchain/linux/asdk-10.3.1/linux/newlib/arm-none-eabi/lib/thumb/v8-m.main+fp/fpu/libnosys.a(getpid.o)
                                         0x24 (size before relaxing)
 .stab          0x0000000000000054       0x18 /home/zjian_zhang/Dplus_Z/project/realtek_amebaDplus_va0_example/GCC-RELEASE/project_km4/asdk/../toolchain/linux/asdk-10.3.1/linux/newlib/arm-none-eabi/lib/thumb/v8-m.main+fp/fpu/libnosys.a(isatty.o)
                                         0x24 (size before relaxing)
 .stab          0x000000000000006c       0x18 /home/zjian_zhang/Dplus_Z/project/realtek_amebaDplus_va0_example/GCC-RELEASE/project_km4/asdk/../toolchain/linux/asdk-10.3.1/linux/newlib/arm-none-eabi/lib/thumb/v8-m.main+fp/fpu/libnosys.a(kill.o)
                                         0x24 (size before relaxing)
 .stab          0x0000000000000084       0x18 /home/zjian_zhang/Dplus_Z/project/realtek_amebaDplus_va0_example/GCC-RELEASE/project_km4/asdk/../toolchain/linux/asdk-10.3.1/linux/newlib/arm-none-eabi/lib/thumb/v8-m.main+fp/fpu/libnosys.a(lseek.o)
                                         0x24 (size before relaxing)

.stabstr        0x0000000000000000      0x14f
 .stabstr       0x0000000000000000      0x14f /home/zjian_zhang/Dplus_Z/project/realtek_amebaDplus_va0_example/GCC-RELEASE/project_km4/asdk/../toolchain/linux/asdk-10.3.1/linux/newlib/arm-none-eabi/lib/thumb/v8-m.main+fp/fpu/libnosys.a(close.o)

Cross Reference Table

Symbol                                            File
_Balloc                                           /home/zjian_zhang/Dplus_Z/project/realtek_amebaDplus_va0_example/GCC-RELEASE/project_km4/asdk/../toolchain/linux/asdk-10.3.1/linux/newlib/arm-none-eabi/lib/thumb/v8-m.main+fp/fpu/libc.a(lib_a-mprec.o)
                                                  /home/zjian_zhang/Dplus_Z/project/realtek_amebaDplus_va0_example/GCC-RELEASE/project_km4/asdk/../toolchain/linux/asdk-10.3.1/linux/newlib/arm-none-eabi/lib/thumb/v8-m.main+fp/fpu/libc.a(lib_a-gdtoa-gethex.o)
                                                  /home/zjian_zhang/Dplus_Z/project/realtek_amebaDplus_va0_example/GCC-RELEASE/project_km4/asdk/../toolchain/linux/asdk-10.3.1/linux/newlib/arm-none-eabi/lib/thumb/v8-m.main+fp/fpu/libc.a(lib_a-strtod.o)
                                                  /home/zjian_zhang/Dplus_Z/project/realtek_amebaDplus_va0_example/GCC-RELEASE/project_km4/asdk/../toolchain/linux/asdk-10.3.1/linux/newlib/arm-none-eabi/lib/thumb/v8-m.main+fp/fpu/libc.a(lib_a-dtoa.o)
_Bfree                                            /home/zjian_zhang/Dplus_Z/project/realtek_amebaDplus_va0_example/GCC-RELEASE/project_km4/asdk/../toolchain/linux/asdk-10.3.1/linux/newlib/arm-none-eabi/lib/thumb/v8-m.main+fp/fpu/libc.a(lib_a-mprec.o)
                                                  /home/zjian_zhang/Dplus_Z/project/realtek_amebaDplus_va0_example/GCC-RELEASE/project_km4/asdk/../toolchain/linux/asdk-10.3.1/linux/newlib/arm-none-eabi/lib/thumb/v8-m.main+fp/fpu/libc.a(lib_a-gdtoa-gethex.o)
                                                  /home/zjian_zhang/Dplus_Z/project/realtek_amebaDplus_va0_example/GCC-RELEASE/project_km4/asdk/../toolchain/linux/asdk-10.3.1/linux/newlib/arm-none-eabi/lib/thumb/v8-m.main+fp/fpu/libc.a(lib_a-strtod.o)
                                                  /home/zjian_zhang/Dplus_Z/project/realtek_amebaDplus_va0_example/GCC-RELEASE/project_km4/asdk/../toolchain/linux/asdk-10.3.1/linux/newlib/arm-none-eabi/lib/thumb/v8-m.main+fp/fpu/libc.a(lib_a-dtoa.o)
_C_numeric_locale                                 /home/zjian_zhang/Dplus_Z/project/realtek_amebaDplus_va0_example/GCC-RELEASE/project_km4/asdk/../toolchain/linux/asdk-10.3.1/linux/newlib/arm-none-eabi/lib/thumb/v8-m.main+fp/fpu/libc.a(lib_a-lnumeric.o)
                                                  /home/zjian_zhang/Dplus_Z/project/realtek_amebaDplus_va0_example/GCC-RELEASE/project_km4/asdk/../toolchain/linux/asdk-10.3.1/linux/newlib/arm-none-eabi/lib/thumb/v8-m.main+fp/fpu/libc.a(lib_a-gdtoa-gethex.o)
                                                  /home/zjian_zhang/Dplus_Z/project/realtek_amebaDplus_va0_example/GCC-RELEASE/project_km4/asdk/../toolchain/linux/asdk-10.3.1/linux/newlib/arm-none-eabi/lib/thumb/v8-m.main+fp/fpu/libc.a(lib_a-strtod.o)
_PathLocale                                       /home/zjian_zhang/Dplus_Z/project/realtek_amebaDplus_va0_example/GCC-RELEASE/project_km4/asdk/../toolchain/linux/asdk-10.3.1/linux/newlib/arm-none-eabi/lib/thumb/v8-m.main+fp/fpu/libc.a(lib_a-locale.o)
__adddf3                                          /home/zjian_zhang/Dplus_Z/project/realtek_amebaDplus_va0_example/GCC-RELEASE/project_km4/asdk/../toolchain/linux/asdk-10.3.1/linux/newlib/lib/gcc/arm-none-eabi/10.3.1/thumb/v8-m.main+fp/fpu/libgcc.a(_arm_addsubdf3.o)
__aeabi_cdcmpeq                                   /home/zjian_zhang/Dplus_Z/project/realtek_amebaDplus_va0_example/GCC-RELEASE/project_km4/asdk/../toolchain/linux/asdk-10.3.1/linux/newlib/lib/gcc/arm-none-eabi/10.3.1/thumb/v8-m.main+fp/fpu/libgcc.a(_arm_cmpdf2.o)
__aeabi_cdcmple                                   /home/zjian_zhang/Dplus_Z/project/realtek_amebaDplus_va0_example/GCC-RELEASE/project_km4/asdk/../toolchain/linux/asdk-10.3.1/linux/newlib/lib/gcc/arm-none-eabi/10.3.1/thumb/v8-m.main+fp/fpu/libgcc.a(_arm_cmpdf2.o)
__aeabi_cdrcmple                                  /home/zjian_zhang/Dplus_Z/project/realtek_amebaDplus_va0_example/GCC-RELEASE/project_km4/asdk/../toolchain/linux/asdk-10.3.1/linux/newlib/lib/gcc/arm-none-eabi/10.3.1/thumb/v8-m.main+fp/fpu/libgcc.a(_arm_cmpdf2.o)
__aeabi_d2f                                       /home/zjian_zhang/Dplus_Z/project/realtek_amebaDplus_va0_example/GCC-RELEASE/project_km4/asdk/../toolchain/linux/asdk-10.3.1/linux/newlib/lib/gcc/arm-none-eabi/10.3.1/thumb/v8-m.main+fp/fpu/libgcc.a(_arm_truncdfsf2.o)
                                                  /home/zjian_zhang/Dplus_Z/project/realtek_amebaDplus_va0_example/GCC-RELEASE/project_km4/asdk/../toolchain/linux/asdk-10.3.1/linux/newlib/arm-none-eabi/lib/thumb/v8-m.main+fp/fpu/libc.a(lib_a-strtod.o)
                                                  /home/zjian_zhang/Dplus_Z/project/realtek_amebaDplus_va0_example/GCC-RELEASE/project_km4/asdk/../toolchain/linux/asdk-10.3.1/linux/newlib/arm-none-eabi/lib/thumb/v8-m.main+fp/fpu/libc.a(lib_a-svfscanf.o)
__aeabi_d2iz                                      /home/zjian_zhang/Dplus_Z/project/realtek_amebaDplus_va0_example/GCC-RELEASE/project_km4/asdk/../toolchain/linux/asdk-10.3.1/linux/newlib/lib/gcc/arm-none-eabi/10.3.1/thumb/v8-m.main+fp/fpu/libgcc.a(_arm_fixdfsi.o)
                                                  /home/zjian_zhang/Dplus_Z/project/realtek_amebaDplus_va0_example/GCC-RELEASE/project_km4/asdk/../toolchain/linux/asdk-10.3.1/linux/newlib/arm-none-eabi/lib/thumb/v8-m.main+fp/fpu/libc.a(lib_a-dtoa.o)
                                                  /home/zjian_zhang/Dplus_Z/project/realtek_amebaDplus_va0_example/GCC-RELEASE/project_km4/asdk/../toolchain/linux/asdk-10.3.1/linux/newlib/arm-none-eabi/lib/thumb/v8-m.main+fp/fpu/libc.a(lib_a-vfprintf.o)
                                                  /home/zjian_zhang/Dplus_Z/project/realtek_amebaDplus_va0_example/GCC-RELEASE/project_km4/asdk/../toolchain/linux/asdk-10.3.1/linux/newlib/arm-none-eabi/lib/thumb/v8-m.main+fp/fpu/libc.a(lib_a-svfprintf.o)
__aeabi_d2lz                                      /home/zjian_zhang/Dplus_Z/project/realtek_amebaDplus_va0_example/GCC-RELEASE/project_km4/asdk/../toolchain/linux/asdk-10.3.1/linux/newlib/lib/gcc/arm-none-eabi/10.3.1/thumb/v8-m.main+fp/fpu/libgcc.a(_fixdfdi.o)
                                                  /home/zjian_zhang/Dplus_Z/project/realtek_amebaDplus_va0_example/GCC-RELEASE/project_km4/asdk/../toolchain/linux/asdk-10.3.1/linux/newlib/arm-none-eabi/lib/thumb/v8-m.main+fp/fpu/libc.a(lib_a-strtod.o)
__aeabi_d2uiz                                     /home/zjian_zhang/Dplus_Z/project/realtek_amebaDplus_va0_example/GCC-RELEASE/project_km4/asdk/../toolchain/linux/asdk-10.3.1/linux/newlib/lib/gcc/arm-none-eabi/10.3.1/thumb/v8-m.main+fp/fpu/libgcc.a(_arm_fixunsdfsi.o)
                                                  /home/zjian_zhang/Dplus_Z/project/realtek_amebaDplus_va0_example/GCC-RELEASE/project_km4/asdk/../toolchain/linux/asdk-10.3.1/linux/newlib/lib/gcc/arm-none-eabi/10.3.1/thumb/v8-m.main+fp/fpu/libgcc.a(_fixunsdfdi.o)
                                                  /home/zjian_zhang/Dplus_Z/project/realtek_amebaDplus_va0_example/GCC-RELEASE/project_km4/asdk/../toolchain/linux/asdk-10.3.1/linux/newlib/arm-none-eabi/lib/thumb/v8-m.main+fp/fpu/libc.a(lib_a-strtod.o)
__aeabi_d2ulz                                     /home/zjian_zhang/Dplus_Z/project/realtek_amebaDplus_va0_example/GCC-RELEASE/project_km4/asdk/../toolchain/linux/asdk-10.3.1/linux/newlib/lib/gcc/arm-none-eabi/10.3.1/thumb/v8-m.main+fp/fpu/libgcc.a(_fixunsdfdi.o)
                                                  /home/zjian_zhang/Dplus_Z/project/realtek_amebaDplus_va0_example/GCC-RELEASE/project_km4/asdk/../toolchain/linux/asdk-10.3.1/linux/newlib/lib/gcc/arm-none-eabi/10.3.1/thumb/v8-m.main+fp/fpu/libgcc.a(_fixdfdi.o)
__aeabi_dadd                                      /home/zjian_zhang/Dplus_Z/project/realtek_amebaDplus_va0_example/GCC-RELEASE/project_km4/asdk/../toolchain/linux/asdk-10.3.1/linux/newlib/lib/gcc/arm-none-eabi/10.3.1/thumb/v8-m.main+fp/fpu/libgcc.a(_arm_addsubdf3.o)
                                                  /home/zjian_zhang/Dplus_Z/project/realtek_amebaDplus_va0_example/GCC-RELEASE/project_km4/asdk/../toolchain/linux/asdk-10.3.1/linux/newlib/arm-none-eabi/lib/thumb/v8-m.main+fp/fpu/libc.a(lib_a-strtod.o)
                                                  /home/zjian_zhang/Dplus_Z/project/realtek_amebaDplus_va0_example/GCC-RELEASE/project_km4/asdk/../toolchain/linux/asdk-10.3.1/linux/newlib/arm-none-eabi/lib/thumb/v8-m.main+fp/fpu/libc.a(lib_a-dtoa.o)
__aeabi_dcmpeq                                    /home/zjian_zhang/Dplus_Z/project/realtek_amebaDplus_va0_example/GCC-RELEASE/project_km4/asdk/../toolchain/linux/asdk-10.3.1/linux/newlib/lib/gcc/arm-none-eabi/10.3.1/thumb/v8-m.main+fp/fpu/libgcc.a(_arm_cmpdf2.o)
                                                  /home/zjian_zhang/Dplus_Z/project/realtek_amebaDplus_va0_example/GCC-RELEASE/project_km4/asdk/../toolchain/linux/asdk-10.3.1/linux/newlib/arm-none-eabi/lib/thumb/v8-m.main+fp/fpu/libc.a(lib_a-strtod.o)
                                                  /home/zjian_zhang/Dplus_Z/project/realtek_amebaDplus_va0_example/GCC-RELEASE/project_km4/asdk/../toolchain/linux/asdk-10.3.1/linux/newlib/arm-none-eabi/lib/thumb/v8-m.main+fp/fpu/libc.a(lib_a-dtoa.o)
                                                  /home/zjian_zhang/Dplus_Z/project/realtek_amebaDplus_va0_example/GCC-RELEASE/project_km4/asdk/../toolchain/linux/asdk-10.3.1/linux/newlib/arm-none-eabi/lib/thumb/v8-m.main+fp/fpu/libc.a(lib_a-vfprintf.o)
                                                  /home/zjian_zhang/Dplus_Z/project/realtek_amebaDplus_va0_example/GCC-RELEASE/project_km4/asdk/../toolchain/linux/asdk-10.3.1/linux/newlib/arm-none-eabi/lib/thumb/v8-m.main+fp/fpu/libc.a(lib_a-svfprintf.o)
__aeabi_dcmpge                                    /home/zjian_zhang/Dplus_Z/project/realtek_amebaDplus_va0_example/GCC-RELEASE/project_km4/asdk/../toolchain/linux/asdk-10.3.1/linux/newlib/lib/gcc/arm-none-eabi/10.3.1/thumb/v8-m.main+fp/fpu/libgcc.a(_arm_cmpdf2.o)
                                                  /home/zjian_zhang/Dplus_Z/project/realtek_amebaDplus_va0_example/GCC-RELEASE/project_km4/asdk/../toolchain/linux/asdk-10.3.1/linux/newlib/arm-none-eabi/lib/thumb/v8-m.main+fp/fpu/libc.a(lib_a-dtoa.o)
__aeabi_dcmpgt                                    /home/zjian_zhang/Dplus_Z/project/realtek_amebaDplus_va0_example/GCC-RELEASE/project_km4/asdk/../toolchain/linux/asdk-10.3.1/linux/newlib/lib/gcc/arm-none-eabi/10.3.1/thumb/v8-m.main+fp/fpu/libgcc.a(_arm_cmpdf2.o)
                                                  /home/zjian_zhang/Dplus_Z/project/realtek_amebaDplus_va0_example/GCC-RELEASE/project_km4/asdk/../toolchain/linux/asdk-10.3.1/linux/newlib/arm-none-eabi/lib/thumb/v8-m.main+fp/fpu/libc.a(lib_a-strtod.o)
                                                  /home/zjian_zhang/Dplus_Z/project/realtek_amebaDplus_va0_example/GCC-RELEASE/project_km4/asdk/../toolchain/linux/asdk-10.3.1/linux/newlib/arm-none-eabi/lib/thumb/v8-m.main+fp/fpu/libc.a(lib_a-dtoa.o)
                                                  /home/zjian_zhang/Dplus_Z/project/realtek_amebaDplus_va0_example/GCC-RELEASE/project_km4/asdk/../toolchain/linux/asdk-10.3.1/linux/newlib/arm-none-eabi/lib/thumb/v8-m.main+fp/fpu/libc.a(lib_a-vfprintf.o)
                                                  /home/zjian_zhang/Dplus_Z/project/realtek_amebaDplus_va0_example/GCC-RELEASE/project_km4/asdk/../toolchain/linux/asdk-10.3.1/linux/newlib/arm-none-eabi/lib/thumb/v8-m.main+fp/fpu/libc.a(lib_a-svfprintf.o)
__aeabi_dcmple                                    /home/zjian_zhang/Dplus_Z/project/realtek_amebaDplus_va0_example/GCC-RELEASE/project_km4/asdk/../toolchain/linux/asdk-10.3.1/linux/newlib/lib/gcc/arm-none-eabi/10.3.1/thumb/v8-m.main+fp/fpu/libgcc.a(_arm_cmpdf2.o)
                                                  /home/zjian_zhang/Dplus_Z/project/realtek_amebaDplus_va0_example/GCC-RELEASE/project_km4/asdk/../toolchain/linux/asdk-10.3.1/linux/newlib/arm-none-eabi/lib/thumb/v8-m.main+fp/fpu/libc.a(lib_a-strtod.o)
                                                  /home/zjian_zhang/Dplus_Z/project/realtek_amebaDplus_va0_example/GCC-RELEASE/project_km4/asdk/../toolchain/linux/asdk-10.3.1/linux/newlib/arm-none-eabi/lib/thumb/v8-m.main+fp/fpu/libc.a(lib_a-vfprintf.o)
                                                  /home/zjian_zhang/Dplus_Z/project/realtek_amebaDplus_va0_example/GCC-RELEASE/project_km4/asdk/../toolchain/linux/asdk-10.3.1/linux/newlib/arm-none-eabi/lib/thumb/v8-m.main+fp/fpu/libc.a(lib_a-svfprintf.o)
__aeabi_dcmplt                                    /home/zjian_zhang/Dplus_Z/project/realtek_amebaDplus_va0_example/GCC-RELEASE/project_km4/asdk/../toolchain/linux/asdk-10.3.1/linux/newlib/lib/gcc/arm-none-eabi/10.3.1/thumb/v8-m.main+fp/fpu/libgcc.a(_arm_cmpdf2.o)
                                                  /home/zjian_zhang/Dplus_Z/project/realtek_amebaDplus_va0_example/GCC-RELEASE/project_km4/asdk/../toolchain/linux/asdk-10.3.1/linux/newlib/lib/gcc/arm-none-eabi/10.3.1/thumb/v8-m.main+fp/fpu/libgcc.a(_fixdfdi.o)
                                                  /home/zjian_zhang/Dplus_Z/project/realtek_amebaDplus_va0_example/GCC-RELEASE/project_km4/asdk/../toolchain/linux/asdk-10.3.1/linux/newlib/arm-none-eabi/lib/thumb/v8-m.main+fp/fpu/libc.a(lib_a-strtod.o)
                                                  /home/zjian_zhang/Dplus_Z/project/realtek_amebaDplus_va0_example/GCC-RELEASE/project_km4/asdk/../toolchain/linux/asdk-10.3.1/linux/newlib/arm-none-eabi/lib/thumb/v8-m.main+fp/fpu/libc.a(lib_a-dtoa.o)
                                                  /home/zjian_zhang/Dplus_Z/project/realtek_amebaDplus_va0_example/GCC-RELEASE/project_km4/asdk/../toolchain/linux/asdk-10.3.1/linux/newlib/arm-none-eabi/lib/thumb/v8-m.main+fp/fpu/libc.a(lib_a-vfprintf.o)
                                                  /home/zjian_zhang/Dplus_Z/project/realtek_amebaDplus_va0_example/GCC-RELEASE/project_km4/asdk/../toolchain/linux/asdk-10.3.1/linux/newlib/arm-none-eabi/lib/thumb/v8-m.main+fp/fpu/libc.a(lib_a-svfprintf.o)
__aeabi_dcmpun                                    /home/zjian_zhang/Dplus_Z/project/realtek_amebaDplus_va0_example/GCC-RELEASE/project_km4/asdk/../toolchain/linux/asdk-10.3.1/linux/newlib/lib/gcc/arm-none-eabi/10.3.1/thumb/v8-m.main+fp/fpu/libgcc.a(_arm_unorddf2.o)
                                                  /home/zjian_zhang/Dplus_Z/project/realtek_amebaDplus_va0_example/GCC-RELEASE/project_km4/asdk/../toolchain/linux/asdk-10.3.1/linux/newlib/arm-none-eabi/lib/thumb/v8-m.main+fp/fpu/libc.a(lib_a-strtod.o)
                                                  /home/zjian_zhang/Dplus_Z/project/realtek_amebaDplus_va0_example/GCC-RELEASE/project_km4/asdk/../toolchain/linux/asdk-10.3.1/linux/newlib/arm-none-eabi/lib/thumb/v8-m.main+fp/fpu/libc.a(lib_a-vfprintf.o)
                                                  /home/zjian_zhang/Dplus_Z/project/realtek_amebaDplus_va0_example/GCC-RELEASE/project_km4/asdk/../toolchain/linux/asdk-10.3.1/linux/newlib/arm-none-eabi/lib/thumb/v8-m.main+fp/fpu/libc.a(lib_a-svfscanf.o)
                                                  /home/zjian_zhang/Dplus_Z/project/realtek_amebaDplus_va0_example/GCC-RELEASE/project_km4/asdk/../toolchain/linux/asdk-10.3.1/linux/newlib/arm-none-eabi/lib/thumb/v8-m.main+fp/fpu/libc.a(lib_a-svfprintf.o)
__aeabi_ddiv                                      /home/zjian_zhang/Dplus_Z/project/realtek_amebaDplus_va0_example/GCC-RELEASE/project_km4/asdk/../toolchain/linux/asdk-10.3.1/linux/newlib/lib/gcc/arm-none-eabi/10.3.1/thumb/v8-m.main+fp/fpu/libgcc.a(_arm_muldivdf3.o)
                                                  /home/zjian_zhang/Dplus_Z/project/realtek_amebaDplus_va0_example/GCC-RELEASE/project_km4/asdk/../toolchain/linux/asdk-10.3.1/linux/newlib/arm-none-eabi/lib/thumb/v8-m.main+fp/fpu/libc.a(lib_a-strtod.o)
                                                  /home/zjian_zhang/Dplus_Z/project/realtek_amebaDplus_va0_example/GCC-RELEASE/project_km4/asdk/../toolchain/linux/asdk-10.3.1/linux/newlib/arm-none-eabi/lib/thumb/v8-m.main+fp/fpu/libc.a(lib_a-mprec.o)
                                                  /home/zjian_zhang/Dplus_Z/project/realtek_amebaDplus_va0_example/GCC-RELEASE/project_km4/asdk/../toolchain/linux/asdk-10.3.1/linux/newlib/arm-none-eabi/lib/thumb/v8-m.main+fp/fpu/libc.a(lib_a-dtoa.o)
__aeabi_dmul                                      /home/zjian_zhang/Dplus_Z/project/realtek_amebaDplus_va0_example/GCC-RELEASE/project_km4/asdk/../toolchain/linux/asdk-10.3.1/linux/newlib/lib/gcc/arm-none-eabi/10.3.1/thumb/v8-m.main+fp/fpu/libgcc.a(_arm_muldivdf3.o)
                                                  /home/zjian_zhang/Dplus_Z/project/realtek_amebaDplus_va0_example/GCC-RELEASE/project_km4/asdk/../toolchain/linux/asdk-10.3.1/linux/newlib/lib/gcc/arm-none-eabi/10.3.1/thumb/v8-m.main+fp/fpu/libgcc.a(_arm_muldf3.o)
                                                  /home/zjian_zhang/Dplus_Z/project/realtek_amebaDplus_va0_example/GCC-RELEASE/project_km4/asdk/../toolchain/linux/asdk-10.3.1/linux/newlib/lib/gcc/arm-none-eabi/10.3.1/thumb/v8-m.main+fp/fpu/libgcc.a(_fixunsdfdi.o)
                                                  /home/zjian_zhang/Dplus_Z/project/realtek_amebaDplus_va0_example/GCC-RELEASE/project_km4/asdk/../toolchain/linux/asdk-10.3.1/linux/newlib/arm-none-eabi/lib/thumb/v8-m.main+fp/fpu/libc.a(lib_a-strtod.o)
                                                  /home/zjian_zhang/Dplus_Z/project/realtek_amebaDplus_va0_example/GCC-RELEASE/project_km4/asdk/../toolchain/linux/asdk-10.3.1/linux/newlib/arm-none-eabi/lib/thumb/v8-m.main+fp/fpu/libc.a(lib_a-s_frexp.o)
                                                  /home/zjian_zhang/Dplus_Z/project/realtek_amebaDplus_va0_example/GCC-RELEASE/project_km4/asdk/../toolchain/linux/asdk-10.3.1/linux/newlib/arm-none-eabi/lib/thumb/v8-m.main+fp/fpu/libc.a(lib_a-mprec.o)
                                                  /home/zjian_zhang/Dplus_Z/project/realtek_amebaDplus_va0_example/GCC-RELEASE/project_km4/asdk/../toolchain/linux/asdk-10.3.1/linux/newlib/arm-none-eabi/lib/thumb/v8-m.main+fp/fpu/libc.a(lib_a-dtoa.o)
                                                  /home/zjian_zhang/Dplus_Z/project/realtek_amebaDplus_va0_example/GCC-RELEASE/project_km4/asdk/../toolchain/linux/asdk-10.3.1/linux/newlib/arm-none-eabi/lib/thumb/v8-m.main+fp/fpu/libc.a(lib_a-vfprintf.o)
                                                  /home/zjian_zhang/Dplus_Z/project/realtek_amebaDplus_va0_example/GCC-RELEASE/project_km4/asdk/../toolchain/linux/asdk-10.3.1/linux/newlib/arm-none-eabi/lib/thumb/v8-m.main+fp/fpu/libc.a(lib_a-svfprintf.o)
__aeabi_drsub                                     /home/zjian_zhang/Dplus_Z/project/realtek_amebaDplus_va0_example/GCC-RELEASE/project_km4/asdk/../toolchain/linux/asdk-10.3.1/linux/newlib/lib/gcc/arm-none-eabi/10.3.1/thumb/v8-m.main+fp/fpu/libgcc.a(_arm_addsubdf3.o)
__aeabi_dsub                                      /home/zjian_zhang/Dplus_Z/project/realtek_amebaDplus_va0_example/GCC-RELEASE/project_km4/asdk/../toolchain/linux/asdk-10.3.1/linux/newlib/lib/gcc/arm-none-eabi/10.3.1/thumb/v8-m.main+fp/fpu/libgcc.a(_arm_addsubdf3.o)
                                                  /home/zjian_zhang/Dplus_Z/project/realtek_amebaDplus_va0_example/GCC-RELEASE/project_km4/asdk/../toolchain/linux/asdk-10.3.1/linux/newlib/lib/gcc/arm-none-eabi/10.3.1/thumb/v8-m.main+fp/fpu/libgcc.a(_fixunsdfdi.o)
                                                  /home/zjian_zhang/Dplus_Z/project/realtek_amebaDplus_va0_example/GCC-RELEASE/project_km4/asdk/../toolchain/linux/asdk-10.3.1/linux/newlib/arm-none-eabi/lib/thumb/v8-m.main+fp/fpu/libc.a(lib_a-strtod.o)
                                                  /home/zjian_zhang/Dplus_Z/project/realtek_amebaDplus_va0_example/GCC-RELEASE/project_km4/asdk/../toolchain/linux/asdk-10.3.1/linux/newlib/arm-none-eabi/lib/thumb/v8-m.main+fp/fpu/libc.a(lib_a-dtoa.o)
                                                  /home/zjian_zhang/Dplus_Z/project/realtek_amebaDplus_va0_example/GCC-RELEASE/project_km4/asdk/../toolchain/linux/asdk-10.3.1/linux/newlib/arm-none-eabi/lib/thumb/v8-m.main+fp/fpu/libc.a(lib_a-vfprintf.o)
                                                  /home/zjian_zhang/Dplus_Z/project/realtek_amebaDplus_va0_example/GCC-RELEASE/project_km4/asdk/../toolchain/linux/asdk-10.3.1/linux/newlib/arm-none-eabi/lib/thumb/v8-m.main+fp/fpu/libc.a(lib_a-svfprintf.o)
__aeabi_f2d                                       /home/zjian_zhang/Dplus_Z/project/realtek_amebaDplus_va0_example/GCC-RELEASE/project_km4/asdk/../toolchain/linux/asdk-10.3.1/linux/newlib/lib/gcc/arm-none-eabi/10.3.1/thumb/v8-m.main+fp/fpu/libgcc.a(_arm_addsubdf3.o)
__aeabi_i2d                                       /home/zjian_zhang/Dplus_Z/project/realtek_amebaDplus_va0_example/GCC-RELEASE/project_km4/asdk/../toolchain/linux/asdk-10.3.1/linux/newlib/lib/gcc/arm-none-eabi/10.3.1/thumb/v8-m.main+fp/fpu/libgcc.a(_arm_addsubdf3.o)
                                                  /home/zjian_zhang/Dplus_Z/project/realtek_amebaDplus_va0_example/GCC-RELEASE/project_km4/asdk/../toolchain/linux/asdk-10.3.1/linux/newlib/arm-none-eabi/lib/thumb/v8-m.main+fp/fpu/libc.a(lib_a-dtoa.o)
                                                  /home/zjian_zhang/Dplus_Z/project/realtek_amebaDplus_va0_example/GCC-RELEASE/project_km4/asdk/../toolchain/linux/asdk-10.3.1/linux/newlib/arm-none-eabi/lib/thumb/v8-m.main+fp/fpu/libc.a(lib_a-vfprintf.o)
                                                  /home/zjian_zhang/Dplus_Z/project/realtek_amebaDplus_va0_example/GCC-RELEASE/project_km4/asdk/../toolchain/linux/asdk-10.3.1/linux/newlib/arm-none-eabi/lib/thumb/v8-m.main+fp/fpu/libc.a(lib_a-svfprintf.o)
__aeabi_idiv0                                     /home/zjian_zhang/Dplus_Z/project/realtek_amebaDplus_va0_example/GCC-RELEASE/project_km4/asdk/../toolchain/linux/asdk-10.3.1/linux/newlib/lib/gcc/arm-none-eabi/10.3.1/thumb/v8-m.main+fp/fpu/libgcc.a(_dvmd_tls.o)
__aeabi_l2d                                       /home/zjian_zhang/Dplus_Z/project/realtek_amebaDplus_va0_example/GCC-RELEASE/project_km4/asdk/../toolchain/linux/asdk-10.3.1/linux/newlib/lib/gcc/arm-none-eabi/10.3.1/thumb/v8-m.main+fp/fpu/libgcc.a(_arm_addsubdf3.o)
                                                  /home/zjian_zhang/Dplus_Z/project/realtek_amebaDplus_va0_example/GCC-RELEASE/project_km4/asdk/../toolchain/linux/asdk-10.3.1/linux/newlib/arm-none-eabi/lib/thumb/v8-m.main+fp/fpu/libc.a(lib_a-strtod.o)
__aeabi_ldiv0                                     /home/zjian_zhang/Dplus_Z/project/realtek_amebaDplus_va0_example/GCC-RELEASE/project_km4/asdk/../toolchain/linux/asdk-10.3.1/linux/newlib/lib/gcc/arm-none-eabi/10.3.1/thumb/v8-m.main+fp/fpu/libgcc.a(_dvmd_tls.o)
                                                  /home/zjian_zhang/Dplus_Z/project/realtek_amebaDplus_va0_example/GCC-RELEASE/project_km4/asdk/../toolchain/linux/asdk-10.3.1/linux/newlib/lib/gcc/arm-none-eabi/10.3.1/thumb/v8-m.main+fp/fpu/libgcc.a(_aeabi_uldivmod.o)
__aeabi_ui2d                                      /home/zjian_zhang/Dplus_Z/project/realtek_amebaDplus_va0_example/GCC-RELEASE/project_km4/asdk/../toolchain/linux/asdk-10.3.1/linux/newlib/lib/gcc/arm-none-eabi/10.3.1/thumb/v8-m.main+fp/fpu/libgcc.a(_arm_addsubdf3.o)
                                                  /home/zjian_zhang/Dplus_Z/project/realtek_amebaDplus_va0_example/GCC-RELEASE/project_km4/asdk/../toolchain/linux/asdk-10.3.1/linux/newlib/lib/gcc/arm-none-eabi/10.3.1/thumb/v8-m.main+fp/fpu/libgcc.a(_fixunsdfdi.o)
                                                  /home/zjian_zhang/Dplus_Z/project/realtek_amebaDplus_va0_example/GCC-RELEASE/project_km4/asdk/../toolchain/linux/asdk-10.3.1/linux/newlib/arm-none-eabi/lib/thumb/v8-m.main+fp/fpu/libc.a(lib_a-strtod.o)
                                                  /home/zjian_zhang/Dplus_Z/project/realtek_amebaDplus_va0_example/GCC-RELEASE/project_km4/asdk/../toolchain/linux/asdk-10.3.1/linux/newlib/arm-none-eabi/lib/thumb/v8-m.main+fp/fpu/libc.a(lib_a-dtoa.o)
__aeabi_ul2d                                      /home/zjian_zhang/Dplus_Z/project/realtek_amebaDplus_va0_example/GCC-RELEASE/project_km4/asdk/../toolchain/linux/asdk-10.3.1/linux/newlib/lib/gcc/arm-none-eabi/10.3.1/thumb/v8-m.main+fp/fpu/libgcc.a(_arm_addsubdf3.o)
__aeabi_uldivmod                                  /home/zjian_zhang/Dplus_Z/project/realtek_amebaDplus_va0_example/GCC-RELEASE/project_km4/asdk/../toolchain/linux/asdk-10.3.1/linux/newlib/lib/gcc/arm-none-eabi/10.3.1/thumb/v8-m.main+fp/fpu/libgcc.a(_aeabi_uldivmod.o)
                                                  /home/zjian_zhang/Dplus_Z/project/realtek_amebaDplus_va0_example/GCC-RELEASE/project_km4/asdk/../toolchain/linux/asdk-10.3.1/linux/newlib/arm-none-eabi/lib/thumb/v8-m.main+fp/fpu/libc.a(lib_a-vfiprintf.o)
                                                  /home/zjian_zhang/Dplus_Z/project/realtek_amebaDplus_va0_example/GCC-RELEASE/project_km4/asdk/../toolchain/linux/asdk-10.3.1/linux/newlib/arm-none-eabi/lib/thumb/v8-m.main+fp/fpu/libc.a(lib_a-svfiprintf.o)
                                                  /home/zjian_zhang/Dplus_Z/project/realtek_amebaDplus_va0_example/GCC-RELEASE/project_km4/asdk/../toolchain/linux/asdk-10.3.1/linux/newlib/arm-none-eabi/lib/thumb/v8-m.main+fp/fpu/libc.a(lib_a-strtoull.o)
                                                  /home/zjian_zhang/Dplus_Z/project/realtek_amebaDplus_va0_example/GCC-RELEASE/project_km4/asdk/../toolchain/linux/asdk-10.3.1/linux/newlib/arm-none-eabi/lib/thumb/v8-m.main+fp/fpu/libc.a(lib_a-strtoll.o)
                                                  /home/zjian_zhang/Dplus_Z/project/realtek_amebaDplus_va0_example/GCC-RELEASE/project_km4/asdk/../toolchain/linux/asdk-10.3.1/linux/newlib/arm-none-eabi/lib/thumb/v8-m.main+fp/fpu/libc.a(lib_a-vfprintf.o)
                                                  /home/zjian_zhang/Dplus_Z/project/realtek_amebaDplus_va0_example/GCC-RELEASE/project_km4/asdk/../toolchain/linux/asdk-10.3.1/linux/newlib/arm-none-eabi/lib/thumb/v8-m.main+fp/fpu/libc.a(lib_a-svfprintf.o)
__any_on                                          /home/zjian_zhang/Dplus_Z/project/realtek_amebaDplus_va0_example/GCC-RELEASE/project_km4/asdk/../toolchain/linux/asdk-10.3.1/linux/newlib/arm-none-eabi/lib/thumb/v8-m.main+fp/fpu/libc.a(lib_a-mprec.o)
                                                  /home/zjian_zhang/Dplus_Z/project/realtek_amebaDplus_va0_example/GCC-RELEASE/project_km4/asdk/../toolchain/linux/asdk-10.3.1/linux/newlib/arm-none-eabi/lib/thumb/v8-m.main+fp/fpu/libc.a(lib_a-gdtoa-gethex.o)
__ascii_mbtowc                                    /home/zjian_zhang/Dplus_Z/project/realtek_amebaDplus_va0_example/GCC-RELEASE/project_km4/asdk/../toolchain/linux/asdk-10.3.1/linux/newlib/arm-none-eabi/lib/thumb/v8-m.main+fp/fpu/libc.a(lib_a-mbtowc_r.o)
                                                  /home/zjian_zhang/Dplus_Z/project/realtek_amebaDplus_va0_example/GCC-RELEASE/project_km4/asdk/../toolchain/linux/asdk-10.3.1/linux/newlib/arm-none-eabi/lib/thumb/v8-m.main+fp/fpu/libc.a(lib_a-locale.o)
__ascii_wctomb                                    /home/zjian_zhang/Dplus_Z/project/realtek_amebaDplus_va0_example/GCC-RELEASE/project_km4/asdk/../toolchain/linux/asdk-10.3.1/linux/newlib/arm-none-eabi/lib/thumb/v8-m.main+fp/fpu/libc.a(lib_a-wctomb_r.o)
                                                  /home/zjian_zhang/Dplus_Z/project/realtek_amebaDplus_va0_example/GCC-RELEASE/project_km4/asdk/../toolchain/linux/asdk-10.3.1/linux/newlib/arm-none-eabi/lib/thumb/v8-m.main+fp/fpu/libc.a(lib_a-locale.o)
__assert                                          /home/zjian_zhang/Dplus_Z/project/realtek_amebaDplus_va0_example/GCC-RELEASE/project_km4/asdk/../toolchain/linux/asdk-10.3.1/linux/newlib/arm-none-eabi/lib/thumb/v8-m.main+fp/fpu/libc.a(lib_a-assert.o)
__assert_func                                     /home/zjian_zhang/Dplus_Z/project/realtek_amebaDplus_va0_example/GCC-RELEASE/project_km4/asdk/../toolchain/linux/asdk-10.3.1/linux/newlib/arm-none-eabi/lib/thumb/v8-m.main+fp/fpu/libc.a(lib_a-assert.o)
                                                  /home/zjian_zhang/Dplus_Z/project/realtek_amebaDplus_va0_example/GCC-RELEASE/project_km4/asdk/../toolchain/linux/asdk-10.3.1/linux/newlib/arm-none-eabi/lib/thumb/v8-m.main+fp/fpu/libc.a(lib_a-gdtoa-gethex.o)
                                                  /home/zjian_zhang/Dplus_Z/project/realtek_amebaDplus_va0_example/GCC-RELEASE/project_km4/asdk/../toolchain/linux/asdk-10.3.1/linux/newlib/arm-none-eabi/lib/thumb/v8-m.main+fp/fpu/libc.a(lib_a-mprec.o)
                                                  /home/zjian_zhang/Dplus_Z/project/realtek_amebaDplus_va0_example/GCC-RELEASE/project_km4/asdk/../toolchain/linux/asdk-10.3.1/linux/newlib/arm-none-eabi/lib/thumb/v8-m.main+fp/fpu/libc.a(lib_a-dtoa.o)
__b2d                                             /home/zjian_zhang/Dplus_Z/project/realtek_amebaDplus_va0_example/GCC-RELEASE/project_km4/asdk/../toolchain/linux/asdk-10.3.1/linux/newlib/arm-none-eabi/lib/thumb/v8-m.main+fp/fpu/libc.a(lib_a-mprec.o)
__cmpdf2                                          /home/zjian_zhang/Dplus_Z/project/realtek_amebaDplus_va0_example/GCC-RELEASE/project_km4/asdk/../toolchain/linux/asdk-10.3.1/linux/newlib/lib/gcc/arm-none-eabi/10.3.1/thumb/v8-m.main+fp/fpu/libgcc.a(_arm_cmpdf2.o)
__copybits                                        /home/zjian_zhang/Dplus_Z/project/realtek_amebaDplus_va0_example/GCC-RELEASE/project_km4/asdk/../toolchain/linux/asdk-10.3.1/linux/newlib/arm-none-eabi/lib/thumb/v8-m.main+fp/fpu/libc.a(lib_a-mprec.o)
                                                  /home/zjian_zhang/Dplus_Z/project/realtek_amebaDplus_va0_example/GCC-RELEASE/project_km4/asdk/../toolchain/linux/asdk-10.3.1/linux/newlib/arm-none-eabi/lib/thumb/v8-m.main+fp/fpu/libc.a(lib_a-strtod.o)
__d2b                                             /home/zjian_zhang/Dplus_Z/project/realtek_amebaDplus_va0_example/GCC-RELEASE/project_km4/asdk/../toolchain/linux/asdk-10.3.1/linux/newlib/arm-none-eabi/lib/thumb/v8-m.main+fp/fpu/libc.a(lib_a-mprec.o)
                                                  /home/zjian_zhang/Dplus_Z/project/realtek_amebaDplus_va0_example/GCC-RELEASE/project_km4/asdk/../toolchain/linux/asdk-10.3.1/linux/newlib/arm-none-eabi/lib/thumb/v8-m.main+fp/fpu/libc.a(lib_a-strtod.o)
                                                  /home/zjian_zhang/Dplus_Z/project/realtek_amebaDplus_va0_example/GCC-RELEASE/project_km4/asdk/../toolchain/linux/asdk-10.3.1/linux/newlib/arm-none-eabi/lib/thumb/v8-m.main+fp/fpu/libc.a(lib_a-dtoa.o)
__divdf3                                          /home/zjian_zhang/Dplus_Z/project/realtek_amebaDplus_va0_example/GCC-RELEASE/project_km4/asdk/../toolchain/linux/asdk-10.3.1/linux/newlib/lib/gcc/arm-none-eabi/10.3.1/thumb/v8-m.main+fp/fpu/libgcc.a(_arm_muldivdf3.o)
__eqdf2                                           /home/zjian_zhang/Dplus_Z/project/realtek_amebaDplus_va0_example/GCC-RELEASE/project_km4/asdk/../toolchain/linux/asdk-10.3.1/linux/newlib/lib/gcc/arm-none-eabi/10.3.1/thumb/v8-m.main+fp/fpu/libgcc.a(_arm_cmpdf2.o)
__errno                                           /home/zjian_zhang/Dplus_Z/project/realtek_amebaDplus_va0_example/GCC-RELEASE/project_km4/asdk/../toolchain/linux/asdk-10.3.1/linux/newlib/arm-none-eabi/lib/thumb/v8-m.main+fp/fpu/libc.a(lib_a-errno.o)
                                                  /home/zjian_zhang/Dplus_Z/project/realtek_amebaDplus_va0_example/GCC-RELEASE/project_km4/asdk/../toolchain/linux/asdk-10.3.1/linux/newlib/arm-none-eabi/lib/thumb/v8-m.main+fp/fpu/libc.a(lib_a-callocr.o)
                                                  /home/zjian_zhang/Dplus_Z/project/realtek_amebaDplus_va0_example/GCC-RELEASE/project_km4/asdk/../toolchain/linux/asdk-10.3.1/linux/newlib/arm-none-eabi/lib/thumb/v8-m.main+fp/fpu/libc.a(lib_a-strtol.o)
__extendsfdf2                                     /home/zjian_zhang/Dplus_Z/project/realtek_amebaDplus_va0_example/GCC-RELEASE/project_km4/asdk/../toolchain/linux/asdk-10.3.1/linux/newlib/lib/gcc/arm-none-eabi/10.3.1/thumb/v8-m.main+fp/fpu/libgcc.a(_arm_addsubdf3.o)
__fixdfdi                                         /home/zjian_zhang/Dplus_Z/project/realtek_amebaDplus_va0_example/GCC-RELEASE/project_km4/asdk/../toolchain/linux/asdk-10.3.1/linux/newlib/lib/gcc/arm-none-eabi/10.3.1/thumb/v8-m.main+fp/fpu/libgcc.a(_fixdfdi.o)
__fixdfsi                                         /home/zjian_zhang/Dplus_Z/project/realtek_amebaDplus_va0_example/GCC-RELEASE/project_km4/asdk/../toolchain/linux/asdk-10.3.1/linux/newlib/lib/gcc/arm-none-eabi/10.3.1/thumb/v8-m.main+fp/fpu/libgcc.a(_arm_fixdfsi.o)
__fixunsdfdi                                      /home/zjian_zhang/Dplus_Z/project/realtek_amebaDplus_va0_example/GCC-RELEASE/project_km4/asdk/../toolchain/linux/asdk-10.3.1/linux/newlib/lib/gcc/arm-none-eabi/10.3.1/thumb/v8-m.main+fp/fpu/libgcc.a(_fixunsdfdi.o)
__fixunsdfsi                                      /home/zjian_zhang/Dplus_Z/project/realtek_amebaDplus_va0_example/GCC-RELEASE/project_km4/asdk/../toolchain/linux/asdk-10.3.1/linux/newlib/lib/gcc/arm-none-eabi/10.3.1/thumb/v8-m.main+fp/fpu/libgcc.a(_arm_fixunsdfsi.o)
__floatdidf                                       /home/zjian_zhang/Dplus_Z/project/realtek_amebaDplus_va0_example/GCC-RELEASE/project_km4/asdk/../toolchain/linux/asdk-10.3.1/linux/newlib/lib/gcc/arm-none-eabi/10.3.1/thumb/v8-m.main+fp/fpu/libgcc.a(_arm_addsubdf3.o)
__floatsidf                                       /home/zjian_zhang/Dplus_Z/project/realtek_amebaDplus_va0_example/GCC-RELEASE/project_km4/asdk/../toolchain/linux/asdk-10.3.1/linux/newlib/lib/gcc/arm-none-eabi/10.3.1/thumb/v8-m.main+fp/fpu/libgcc.a(_arm_addsubdf3.o)
__floatundidf                                     /home/zjian_zhang/Dplus_Z/project/realtek_amebaDplus_va0_example/GCC-RELEASE/project_km4/asdk/../toolchain/linux/asdk-10.3.1/linux/newlib/lib/gcc/arm-none-eabi/10.3.1/thumb/v8-m.main+fp/fpu/libgcc.a(_arm_addsubdf3.o)
__floatunsidf                                     /home/zjian_zhang/Dplus_Z/project/realtek_amebaDplus_va0_example/GCC-RELEASE/project_km4/asdk/../toolchain/linux/asdk-10.3.1/linux/newlib/lib/gcc/arm-none-eabi/10.3.1/thumb/v8-m.main+fp/fpu/libgcc.a(_arm_addsubdf3.o)
__fp_lock_all                                     /home/zjian_zhang/Dplus_Z/project/realtek_amebaDplus_va0_example/GCC-RELEASE/project_km4/asdk/../toolchain/linux/asdk-10.3.1/linux/newlib/arm-none-eabi/lib/thumb/v8-m.main+fp/fpu/libc.a(lib_a-findfp.o)
__fp_unlock_all                                   /home/zjian_zhang/Dplus_Z/project/realtek_amebaDplus_va0_example/GCC-RELEASE/project_km4/asdk/../toolchain/linux/asdk-10.3.1/linux/newlib/arm-none-eabi/lib/thumb/v8-m.main+fp/fpu/libc.a(lib_a-findfp.o)
__fputwc                                          /home/zjian_zhang/Dplus_Z/project/realtek_amebaDplus_va0_example/GCC-RELEASE/project_km4/asdk/../toolchain/linux/asdk-10.3.1/linux/newlib/arm-none-eabi/lib/thumb/v8-m.main+fp/fpu/libc.a(lib_a-fputwc.o)
__gedf2                                           /home/zjian_zhang/Dplus_Z/project/realtek_amebaDplus_va0_example/GCC-RELEASE/project_km4/asdk/../toolchain/linux/asdk-10.3.1/linux/newlib/lib/gcc/arm-none-eabi/10.3.1/thumb/v8-m.main+fp/fpu/libgcc.a(_arm_cmpdf2.o)
__gethex                                          /home/zjian_zhang/Dplus_Z/project/realtek_amebaDplus_va0_example/GCC-RELEASE/project_km4/asdk/../toolchain/linux/asdk-10.3.1/linux/newlib/arm-none-eabi/lib/thumb/v8-m.main+fp/fpu/libc.a(lib_a-gdtoa-gethex.o)
                                                  /home/zjian_zhang/Dplus_Z/project/realtek_amebaDplus_va0_example/GCC-RELEASE/project_km4/asdk/../toolchain/linux/asdk-10.3.1/linux/newlib/arm-none-eabi/lib/thumb/v8-m.main+fp/fpu/libc.a(lib_a-strtod.o)
__global_locale                                   /home/zjian_zhang/Dplus_Z/project/realtek_amebaDplus_va0_example/GCC-RELEASE/project_km4/asdk/../toolchain/linux/asdk-10.3.1/linux/newlib/arm-none-eabi/lib/thumb/v8-m.main+fp/fpu/libc.a(lib_a-locale.o)
                                                  /home/zjian_zhang/Dplus_Z/project/realtek_amebaDplus_va0_example/GCC-RELEASE/project_km4/asdk/../toolchain/linux/asdk-10.3.1/linux/newlib/arm-none-eabi/lib/thumb/v8-m.main+fp/fpu/libc.a(lib_a-wcrtomb.o)
                                                  /home/zjian_zhang/Dplus_Z/project/realtek_amebaDplus_va0_example/GCC-RELEASE/project_km4/asdk/../toolchain/linux/asdk-10.3.1/linux/newlib/arm-none-eabi/lib/thumb/v8-m.main+fp/fpu/libc.a(lib_a-wctomb_r.o)
                                                  /home/zjian_zhang/Dplus_Z/project/realtek_amebaDplus_va0_example/GCC-RELEASE/project_km4/asdk/../toolchain/linux/asdk-10.3.1/linux/newlib/arm-none-eabi/lib/thumb/v8-m.main+fp/fpu/libc.a(lib_a-svfiscanf.o)
                                                  /home/zjian_zhang/Dplus_Z/project/realtek_amebaDplus_va0_example/GCC-RELEASE/project_km4/asdk/../toolchain/linux/asdk-10.3.1/linux/newlib/arm-none-eabi/lib/thumb/v8-m.main+fp/fpu/libc.a(lib_a-strtod.o)
                                                  /home/zjian_zhang/Dplus_Z/project/realtek_amebaDplus_va0_example/GCC-RELEASE/project_km4/asdk/../toolchain/linux/asdk-10.3.1/linux/newlib/arm-none-eabi/lib/thumb/v8-m.main+fp/fpu/libc.a(lib_a-mbtowc_r.o)
                                                  /home/zjian_zhang/Dplus_Z/project/realtek_amebaDplus_va0_example/GCC-RELEASE/project_km4/asdk/../toolchain/linux/asdk-10.3.1/linux/newlib/arm-none-eabi/lib/thumb/v8-m.main+fp/fpu/libc.a(lib_a-mbrtowc.o)
                                                  /home/zjian_zhang/Dplus_Z/project/realtek_amebaDplus_va0_example/GCC-RELEASE/project_km4/asdk/../toolchain/linux/asdk-10.3.1/linux/newlib/arm-none-eabi/lib/thumb/v8-m.main+fp/fpu/libc.a(lib_a-localeconv.o)
                                                  /home/zjian_zhang/Dplus_Z/project/realtek_amebaDplus_va0_example/GCC-RELEASE/project_km4/asdk/../toolchain/linux/asdk-10.3.1/linux/newlib/arm-none-eabi/lib/thumb/v8-m.main+fp/fpu/libc.a(lib_a-svfscanf.o)
__gtdf2                                           /home/zjian_zhang/Dplus_Z/project/realtek_amebaDplus_va0_example/GCC-RELEASE/project_km4/asdk/../toolchain/linux/asdk-10.3.1/linux/newlib/lib/gcc/arm-none-eabi/10.3.1/thumb/v8-m.main+fp/fpu/libgcc.a(_arm_cmpdf2.o)
__hexdig_fun                                      /home/zjian_zhang/Dplus_Z/project/realtek_amebaDplus_va0_example/GCC-RELEASE/project_km4/asdk/../toolchain/linux/asdk-10.3.1/linux/newlib/arm-none-eabi/lib/thumb/v8-m.main+fp/fpu/libc.a(lib_a-gdtoa-gethex.o)
                                                  /home/zjian_zhang/Dplus_Z/project/realtek_amebaDplus_va0_example/GCC-RELEASE/project_km4/asdk/../toolchain/linux/asdk-10.3.1/linux/newlib/arm-none-eabi/lib/thumb/v8-m.main+fp/fpu/libc.a(lib_a-gdtoa-hexnan.o)
__hexnan                                          /home/zjian_zhang/Dplus_Z/project/realtek_amebaDplus_va0_example/GCC-RELEASE/project_km4/asdk/../toolchain/linux/asdk-10.3.1/linux/newlib/arm-none-eabi/lib/thumb/v8-m.main+fp/fpu/libc.a(lib_a-gdtoa-hexnan.o)
                                                  /home/zjian_zhang/Dplus_Z/project/realtek_amebaDplus_va0_example/GCC-RELEASE/project_km4/asdk/../toolchain/linux/asdk-10.3.1/linux/newlib/arm-none-eabi/lib/thumb/v8-m.main+fp/fpu/libc.a(lib_a-strtod.o)
__hi0bits                                         /home/zjian_zhang/Dplus_Z/project/realtek_amebaDplus_va0_example/GCC-RELEASE/project_km4/asdk/../toolchain/linux/asdk-10.3.1/linux/newlib/arm-none-eabi/lib/thumb/v8-m.main+fp/fpu/libc.a(lib_a-mprec.o)
                                                  /home/zjian_zhang/Dplus_Z/project/realtek_amebaDplus_va0_example/GCC-RELEASE/project_km4/asdk/../toolchain/linux/asdk-10.3.1/linux/newlib/arm-none-eabi/lib/thumb/v8-m.main+fp/fpu/libc.a(lib_a-gdtoa-gethex.o)
                                                  /home/zjian_zhang/Dplus_Z/project/realtek_amebaDplus_va0_example/GCC-RELEASE/project_km4/asdk/../toolchain/linux/asdk-10.3.1/linux/newlib/arm-none-eabi/lib/thumb/v8-m.main+fp/fpu/libc.a(lib_a-dtoa.o)
__i2b                                             /home/zjian_zhang/Dplus_Z/project/realtek_amebaDplus_va0_example/GCC-RELEASE/project_km4/asdk/../toolchain/linux/asdk-10.3.1/linux/newlib/arm-none-eabi/lib/thumb/v8-m.main+fp/fpu/libc.a(lib_a-mprec.o)
                                                  /home/zjian_zhang/Dplus_Z/project/realtek_amebaDplus_va0_example/GCC-RELEASE/project_km4/asdk/../toolchain/linux/asdk-10.3.1/linux/newlib/arm-none-eabi/lib/thumb/v8-m.main+fp/fpu/libc.a(lib_a-strtod.o)
                                                  /home/zjian_zhang/Dplus_Z/project/realtek_amebaDplus_va0_example/GCC-RELEASE/project_km4/asdk/../toolchain/linux/asdk-10.3.1/linux/newlib/arm-none-eabi/lib/thumb/v8-m.main+fp/fpu/libc.a(lib_a-dtoa.o)
__ledf2                                           /home/zjian_zhang/Dplus_Z/project/realtek_amebaDplus_va0_example/GCC-RELEASE/project_km4/asdk/../toolchain/linux/asdk-10.3.1/linux/newlib/lib/gcc/arm-none-eabi/10.3.1/thumb/v8-m.main+fp/fpu/libgcc.a(_arm_cmpdf2.o)
__lo0bits                                         /home/zjian_zhang/Dplus_Z/project/realtek_amebaDplus_va0_example/GCC-RELEASE/project_km4/asdk/../toolchain/linux/asdk-10.3.1/linux/newlib/arm-none-eabi/lib/thumb/v8-m.main+fp/fpu/libc.a(lib_a-mprec.o)
__locale_mb_cur_max                               /home/zjian_zhang/Dplus_Z/project/realtek_amebaDplus_va0_example/GCC-RELEASE/project_km4/asdk/../toolchain/linux/asdk-10.3.1/linux/newlib/arm-none-eabi/lib/thumb/v8-m.main+fp/fpu/libc.a(lib_a-locale.o)
                                                  /home/zjian_zhang/Dplus_Z/project/realtek_amebaDplus_va0_example/GCC-RELEASE/project_km4/asdk/../toolchain/linux/asdk-10.3.1/linux/newlib/arm-none-eabi/lib/thumb/v8-m.main+fp/fpu/libc.a(lib_a-fputwc.o)
                                                  /home/zjian_zhang/Dplus_Z/project/realtek_amebaDplus_va0_example/GCC-RELEASE/project_km4/asdk/../toolchain/linux/asdk-10.3.1/linux/newlib/arm-none-eabi/lib/thumb/v8-m.main+fp/fpu/libc.a(lib_a-svfiscanf.o)
                                                  /home/zjian_zhang/Dplus_Z/project/realtek_amebaDplus_va0_example/GCC-RELEASE/project_km4/asdk/../toolchain/linux/asdk-10.3.1/linux/newlib/arm-none-eabi/lib/thumb/v8-m.main+fp/fpu/libc.a(lib_a-svfscanf.o)
__localeconv_l                                    /home/zjian_zhang/Dplus_Z/project/realtek_amebaDplus_va0_example/GCC-RELEASE/project_km4/asdk/../toolchain/linux/asdk-10.3.1/linux/newlib/arm-none-eabi/lib/thumb/v8-m.main+fp/fpu/libc.a(lib_a-localeconv.o)
__lock___arc4random_mutex                         /home/zjian_zhang/Dplus_Z/project/realtek_amebaDplus_va0_example/GCC-RELEASE/project_km4/asdk/../toolchain/linux/asdk-10.3.1/linux/newlib/arm-none-eabi/lib/thumb/v8-m.main+fp/fpu/libc.a(lib_a-lock.o)
__lock___at_quick_exit_mutex                      /home/zjian_zhang/Dplus_Z/project/realtek_amebaDplus_va0_example/GCC-RELEASE/project_km4/asdk/../toolchain/linux/asdk-10.3.1/linux/newlib/arm-none-eabi/lib/thumb/v8-m.main+fp/fpu/libc.a(lib_a-lock.o)
__lock___atexit_recursive_mutex                   /home/zjian_zhang/Dplus_Z/project/realtek_amebaDplus_va0_example/GCC-RELEASE/project_km4/asdk/../toolchain/linux/asdk-10.3.1/linux/newlib/arm-none-eabi/lib/thumb/v8-m.main+fp/fpu/libc.a(lib_a-lock.o)
__lock___dd_hash_mutex                            /home/zjian_zhang/Dplus_Z/project/realtek_amebaDplus_va0_example/GCC-RELEASE/project_km4/asdk/../toolchain/linux/asdk-10.3.1/linux/newlib/arm-none-eabi/lib/thumb/v8-m.main+fp/fpu/libc.a(lib_a-lock.o)
__lock___env_recursive_mutex                      /home/zjian_zhang/Dplus_Z/project/realtek_amebaDplus_va0_example/GCC-RELEASE/project_km4/asdk/../toolchain/linux/asdk-10.3.1/linux/newlib/arm-none-eabi/lib/thumb/v8-m.main+fp/fpu/libc.a(lib_a-lock.o)
__lock___malloc_recursive_mutex                   /home/zjian_zhang/Dplus_Z/project/realtek_amebaDplus_va0_example/GCC-RELEASE/project_km4/asdk/../toolchain/linux/asdk-10.3.1/linux/newlib/arm-none-eabi/lib/thumb/v8-m.main+fp/fpu/libc.a(lib_a-lock.o)
                                                  /home/zjian_zhang/Dplus_Z/project/realtek_amebaDplus_va0_example/GCC-RELEASE/project_km4/asdk/../toolchain/linux/asdk-10.3.1/linux/newlib/arm-none-eabi/lib/thumb/v8-m.main+fp/fpu/libc.a(lib_a-mlock.o)
__lock___sfp_recursive_mutex                      /home/zjian_zhang/Dplus_Z/project/realtek_amebaDplus_va0_example/GCC-RELEASE/project_km4/asdk/../toolchain/linux/asdk-10.3.1/linux/newlib/arm-none-eabi/lib/thumb/v8-m.main+fp/fpu/libc.a(lib_a-lock.o)
                                                  /home/zjian_zhang/Dplus_Z/project/realtek_amebaDplus_va0_example/GCC-RELEASE/project_km4/asdk/../toolchain/linux/asdk-10.3.1/linux/newlib/arm-none-eabi/lib/thumb/v8-m.main+fp/fpu/libc.a(lib_a-findfp.o)
__lock___sinit_recursive_mutex                    /home/zjian_zhang/Dplus_Z/project/realtek_amebaDplus_va0_example/GCC-RELEASE/project_km4/asdk/../toolchain/linux/asdk-10.3.1/linux/newlib/arm-none-eabi/lib/thumb/v8-m.main+fp/fpu/libc.a(lib_a-lock.o)
                                                  /home/zjian_zhang/Dplus_Z/project/realtek_amebaDplus_va0_example/GCC-RELEASE/project_km4/asdk/../toolchain/linux/asdk-10.3.1/linux/newlib/arm-none-eabi/lib/thumb/v8-m.main+fp/fpu/libc.a(lib_a-findfp.o)
__lock___tz_mutex                                 /home/zjian_zhang/Dplus_Z/project/realtek_amebaDplus_va0_example/GCC-RELEASE/project_km4/asdk/../toolchain/linux/asdk-10.3.1/linux/newlib/arm-none-eabi/lib/thumb/v8-m.main+fp/fpu/libc.a(lib_a-lock.o)
__lshift                                          /home/zjian_zhang/Dplus_Z/project/realtek_amebaDplus_va0_example/GCC-RELEASE/project_km4/asdk/../toolchain/linux/asdk-10.3.1/linux/newlib/arm-none-eabi/lib/thumb/v8-m.main+fp/fpu/libc.a(lib_a-mprec.o)
                                                  /home/zjian_zhang/Dplus_Z/project/realtek_amebaDplus_va0_example/GCC-RELEASE/project_km4/asdk/../toolchain/linux/asdk-10.3.1/linux/newlib/arm-none-eabi/lib/thumb/v8-m.main+fp/fpu/libc.a(lib_a-gdtoa-gethex.o)
                                                  /home/zjian_zhang/Dplus_Z/project/realtek_amebaDplus_va0_example/GCC-RELEASE/project_km4/asdk/../toolchain/linux/asdk-10.3.1/linux/newlib/arm-none-eabi/lib/thumb/v8-m.main+fp/fpu/libc.a(lib_a-strtod.o)
                                                  /home/zjian_zhang/Dplus_Z/project/realtek_amebaDplus_va0_example/GCC-RELEASE/project_km4/asdk/../toolchain/linux/asdk-10.3.1/linux/newlib/arm-none-eabi/lib/thumb/v8-m.main+fp/fpu/libc.a(lib_a-dtoa.o)
__ltdf2                                           /home/zjian_zhang/Dplus_Z/project/realtek_amebaDplus_va0_example/GCC-RELEASE/project_km4/asdk/../toolchain/linux/asdk-10.3.1/linux/newlib/lib/gcc/arm-none-eabi/10.3.1/thumb/v8-m.main+fp/fpu/libgcc.a(_arm_cmpdf2.o)
__malloc_av_                                      /home/zjian_zhang/Dplus_Z/project/realtek_amebaDplus_va0_example/GCC-RELEASE/project_km4/asdk/../toolchain/linux/asdk-10.3.1/linux/newlib/arm-none-eabi/lib/thumb/v8-m.main+fp/fpu/libc.a(lib_a-mallocr.o)
                                                  /home/zjian_zhang/Dplus_Z/project/realtek_amebaDplus_va0_example/GCC-RELEASE/project_km4/asdk/../toolchain/linux/asdk-10.3.1/linux/newlib/arm-none-eabi/lib/thumb/v8-m.main+fp/fpu/libc.a(lib_a-reallocr.o)
                                                  /home/zjian_zhang/Dplus_Z/project/realtek_amebaDplus_va0_example/GCC-RELEASE/project_km4/asdk/../toolchain/linux/asdk-10.3.1/linux/newlib/arm-none-eabi/lib/thumb/v8-m.main+fp/fpu/libc.a(lib_a-freer.o)
__malloc_current_mallinfo                         /home/zjian_zhang/Dplus_Z/project/realtek_amebaDplus_va0_example/GCC-RELEASE/project_km4/asdk/../toolchain/linux/asdk-10.3.1/linux/newlib/arm-none-eabi/lib/thumb/v8-m.main+fp/fpu/libc.a(lib_a-mallocr.o)
                                                  /home/zjian_zhang/Dplus_Z/project/realtek_amebaDplus_va0_example/GCC-RELEASE/project_km4/asdk/../toolchain/linux/asdk-10.3.1/linux/newlib/arm-none-eabi/lib/thumb/v8-m.main+fp/fpu/libc.a(lib_a-freer.o)
__malloc_lock                                     /home/zjian_zhang/Dplus_Z/project/realtek_amebaDplus_va0_example/GCC-RELEASE/project_km4/asdk/../toolchain/linux/asdk-10.3.1/linux/newlib/arm-none-eabi/lib/thumb/v8-m.main+fp/fpu/libc.a(lib_a-mlock.o)
                                                  /home/zjian_zhang/Dplus_Z/project/realtek_amebaDplus_va0_example/GCC-RELEASE/project_km4/asdk/../toolchain/linux/asdk-10.3.1/linux/newlib/arm-none-eabi/lib/thumb/v8-m.main+fp/fpu/libc.a(lib_a-reallocr.o)
                                                  /home/zjian_zhang/Dplus_Z/project/realtek_amebaDplus_va0_example/GCC-RELEASE/project_km4/asdk/../toolchain/linux/asdk-10.3.1/linux/newlib/arm-none-eabi/lib/thumb/v8-m.main+fp/fpu/libc.a(lib_a-mallocr.o)
                                                  /home/zjian_zhang/Dplus_Z/project/realtek_amebaDplus_va0_example/GCC-RELEASE/project_km4/asdk/../toolchain/linux/asdk-10.3.1/linux/newlib/arm-none-eabi/lib/thumb/v8-m.main+fp/fpu/libc.a(lib_a-freer.o)
__malloc_max_sbrked_mem                           /home/zjian_zhang/Dplus_Z/project/realtek_amebaDplus_va0_example/GCC-RELEASE/project_km4/asdk/../toolchain/linux/asdk-10.3.1/linux/newlib/arm-none-eabi/lib/thumb/v8-m.main+fp/fpu/libc.a(lib_a-mallocr.o)
__malloc_max_total_mem                            /home/zjian_zhang/Dplus_Z/project/realtek_amebaDplus_va0_example/GCC-RELEASE/project_km4/asdk/../toolchain/linux/asdk-10.3.1/linux/newlib/arm-none-eabi/lib/thumb/v8-m.main+fp/fpu/libc.a(lib_a-mallocr.o)
__malloc_sbrk_base                                /home/zjian_zhang/Dplus_Z/project/realtek_amebaDplus_va0_example/GCC-RELEASE/project_km4/asdk/../toolchain/linux/asdk-10.3.1/linux/newlib/arm-none-eabi/lib/thumb/v8-m.main+fp/fpu/libc.a(lib_a-mallocr.o)
                                                  /home/zjian_zhang/Dplus_Z/project/realtek_amebaDplus_va0_example/GCC-RELEASE/project_km4/asdk/../toolchain/linux/asdk-10.3.1/linux/newlib/arm-none-eabi/lib/thumb/v8-m.main+fp/fpu/libc.a(lib_a-freer.o)
__malloc_top_pad                                  /home/zjian_zhang/Dplus_Z/project/realtek_amebaDplus_va0_example/GCC-RELEASE/project_km4/asdk/../toolchain/linux/asdk-10.3.1/linux/newlib/arm-none-eabi/lib/thumb/v8-m.main+fp/fpu/libc.a(lib_a-mallocr.o)
                                                  /home/zjian_zhang/Dplus_Z/project/realtek_amebaDplus_va0_example/GCC-RELEASE/project_km4/asdk/../toolchain/linux/asdk-10.3.1/linux/newlib/arm-none-eabi/lib/thumb/v8-m.main+fp/fpu/libc.a(lib_a-freer.o)
__malloc_trim_threshold                           /home/zjian_zhang/Dplus_Z/project/realtek_amebaDplus_va0_example/GCC-RELEASE/project_km4/asdk/../toolchain/linux/asdk-10.3.1/linux/newlib/arm-none-eabi/lib/thumb/v8-m.main+fp/fpu/libc.a(lib_a-mallocr.o)
                                                  /home/zjian_zhang/Dplus_Z/project/realtek_amebaDplus_va0_example/GCC-RELEASE/project_km4/asdk/../toolchain/linux/asdk-10.3.1/linux/newlib/arm-none-eabi/lib/thumb/v8-m.main+fp/fpu/libc.a(lib_a-freer.o)
__malloc_unlock                                   /home/zjian_zhang/Dplus_Z/project/realtek_amebaDplus_va0_example/GCC-RELEASE/project_km4/asdk/../toolchain/linux/asdk-10.3.1/linux/newlib/arm-none-eabi/lib/thumb/v8-m.main+fp/fpu/libc.a(lib_a-mlock.o)
                                                  /home/zjian_zhang/Dplus_Z/project/realtek_amebaDplus_va0_example/GCC-RELEASE/project_km4/asdk/../toolchain/linux/asdk-10.3.1/linux/newlib/arm-none-eabi/lib/thumb/v8-m.main+fp/fpu/libc.a(lib_a-reallocr.o)
                                                  /home/zjian_zhang/Dplus_Z/project/realtek_amebaDplus_va0_example/GCC-RELEASE/project_km4/asdk/../toolchain/linux/asdk-10.3.1/linux/newlib/arm-none-eabi/lib/thumb/v8-m.main+fp/fpu/libc.a(lib_a-mallocr.o)
                                                  /home/zjian_zhang/Dplus_Z/project/realtek_amebaDplus_va0_example/GCC-RELEASE/project_km4/asdk/../toolchain/linux/asdk-10.3.1/linux/newlib/arm-none-eabi/lib/thumb/v8-m.main+fp/fpu/libc.a(lib_a-freer.o)
__match                                           /home/zjian_zhang/Dplus_Z/project/realtek_amebaDplus_va0_example/GCC-RELEASE/project_km4/asdk/../toolchain/linux/asdk-10.3.1/linux/newlib/arm-none-eabi/lib/thumb/v8-m.main+fp/fpu/libc.a(lib_a-gdtoa-hexnan.o)
                                                  /home/zjian_zhang/Dplus_Z/project/realtek_amebaDplus_va0_example/GCC-RELEASE/project_km4/asdk/../toolchain/linux/asdk-10.3.1/linux/newlib/arm-none-eabi/lib/thumb/v8-m.main+fp/fpu/libc.a(lib_a-strtod.o)
__mcmp                                            /home/zjian_zhang/Dplus_Z/project/realtek_amebaDplus_va0_example/GCC-RELEASE/project_km4/asdk/../toolchain/linux/asdk-10.3.1/linux/newlib/arm-none-eabi/lib/thumb/v8-m.main+fp/fpu/libc.a(lib_a-mprec.o)
                                                  /home/zjian_zhang/Dplus_Z/project/realtek_amebaDplus_va0_example/GCC-RELEASE/project_km4/asdk/../toolchain/linux/asdk-10.3.1/linux/newlib/arm-none-eabi/lib/thumb/v8-m.main+fp/fpu/libc.a(lib_a-strtod.o)
                                                  /home/zjian_zhang/Dplus_Z/project/realtek_amebaDplus_va0_example/GCC-RELEASE/project_km4/asdk/../toolchain/linux/asdk-10.3.1/linux/newlib/arm-none-eabi/lib/thumb/v8-m.main+fp/fpu/libc.a(lib_a-dtoa.o)
__mdiff                                           /home/zjian_zhang/Dplus_Z/project/realtek_amebaDplus_va0_example/GCC-RELEASE/project_km4/asdk/../toolchain/linux/asdk-10.3.1/linux/newlib/arm-none-eabi/lib/thumb/v8-m.main+fp/fpu/libc.a(lib_a-mprec.o)
                                                  /home/zjian_zhang/Dplus_Z/project/realtek_amebaDplus_va0_example/GCC-RELEASE/project_km4/asdk/../toolchain/linux/asdk-10.3.1/linux/newlib/arm-none-eabi/lib/thumb/v8-m.main+fp/fpu/libc.a(lib_a-strtod.o)
                                                  /home/zjian_zhang/Dplus_Z/project/realtek_amebaDplus_va0_example/GCC-RELEASE/project_km4/asdk/../toolchain/linux/asdk-10.3.1/linux/newlib/arm-none-eabi/lib/thumb/v8-m.main+fp/fpu/libc.a(lib_a-dtoa.o)
__mprec_bigtens                                   /home/zjian_zhang/Dplus_Z/project/realtek_amebaDplus_va0_example/GCC-RELEASE/project_km4/asdk/../toolchain/linux/asdk-10.3.1/linux/newlib/arm-none-eabi/lib/thumb/v8-m.main+fp/fpu/libc.a(lib_a-mprec.o)
                                                  /home/zjian_zhang/Dplus_Z/project/realtek_amebaDplus_va0_example/GCC-RELEASE/project_km4/asdk/../toolchain/linux/asdk-10.3.1/linux/newlib/arm-none-eabi/lib/thumb/v8-m.main+fp/fpu/libc.a(lib_a-strtod.o)
                                                  /home/zjian_zhang/Dplus_Z/project/realtek_amebaDplus_va0_example/GCC-RELEASE/project_km4/asdk/../toolchain/linux/asdk-10.3.1/linux/newlib/arm-none-eabi/lib/thumb/v8-m.main+fp/fpu/libc.a(lib_a-dtoa.o)
__mprec_tens                                      /home/zjian_zhang/Dplus_Z/project/realtek_amebaDplus_va0_example/GCC-RELEASE/project_km4/asdk/../toolchain/linux/asdk-10.3.1/linux/newlib/arm-none-eabi/lib/thumb/v8-m.main+fp/fpu/libc.a(lib_a-mprec.o)
                                                  /home/zjian_zhang/Dplus_Z/project/realtek_amebaDplus_va0_example/GCC-RELEASE/project_km4/asdk/../toolchain/linux/asdk-10.3.1/linux/newlib/arm-none-eabi/lib/thumb/v8-m.main+fp/fpu/libc.a(lib_a-strtod.o)
                                                  /home/zjian_zhang/Dplus_Z/project/realtek_amebaDplus_va0_example/GCC-RELEASE/project_km4/asdk/../toolchain/linux/asdk-10.3.1/linux/newlib/arm-none-eabi/lib/thumb/v8-m.main+fp/fpu/libc.a(lib_a-dtoa.o)
__mprec_tinytens                                  /home/zjian_zhang/Dplus_Z/project/realtek_amebaDplus_va0_example/GCC-RELEASE/project_km4/asdk/../toolchain/linux/asdk-10.3.1/linux/newlib/arm-none-eabi/lib/thumb/v8-m.main+fp/fpu/libc.a(lib_a-mprec.o)
__muldf3                                          /home/zjian_zhang/Dplus_Z/project/realtek_amebaDplus_va0_example/GCC-RELEASE/project_km4/asdk/../toolchain/linux/asdk-10.3.1/linux/newlib/lib/gcc/arm-none-eabi/10.3.1/thumb/v8-m.main+fp/fpu/libgcc.a(_arm_muldivdf3.o)
                                                  /home/zjian_zhang/Dplus_Z/project/realtek_amebaDplus_va0_example/GCC-RELEASE/project_km4/asdk/../toolchain/linux/asdk-10.3.1/linux/newlib/lib/gcc/arm-none-eabi/10.3.1/thumb/v8-m.main+fp/fpu/libgcc.a(_arm_muldf3.o)
__multadd                                         /home/zjian_zhang/Dplus_Z/project/realtek_amebaDplus_va0_example/GCC-RELEASE/project_km4/asdk/../toolchain/linux/asdk-10.3.1/linux/newlib/arm-none-eabi/lib/thumb/v8-m.main+fp/fpu/libc.a(lib_a-mprec.o)
                                                  /home/zjian_zhang/Dplus_Z/project/realtek_amebaDplus_va0_example/GCC-RELEASE/project_km4/asdk/../toolchain/linux/asdk-10.3.1/linux/newlib/arm-none-eabi/lib/thumb/v8-m.main+fp/fpu/libc.a(lib_a-dtoa.o)
__multiply                                        /home/zjian_zhang/Dplus_Z/project/realtek_amebaDplus_va0_example/GCC-RELEASE/project_km4/asdk/../toolchain/linux/asdk-10.3.1/linux/newlib/arm-none-eabi/lib/thumb/v8-m.main+fp/fpu/libc.a(lib_a-mprec.o)
                                                  /home/zjian_zhang/Dplus_Z/project/realtek_amebaDplus_va0_example/GCC-RELEASE/project_km4/asdk/../toolchain/linux/asdk-10.3.1/linux/newlib/arm-none-eabi/lib/thumb/v8-m.main+fp/fpu/libc.a(lib_a-strtod.o)
                                                  /home/zjian_zhang/Dplus_Z/project/realtek_amebaDplus_va0_example/GCC-RELEASE/project_km4/asdk/../toolchain/linux/asdk-10.3.1/linux/newlib/arm-none-eabi/lib/thumb/v8-m.main+fp/fpu/libc.a(lib_a-dtoa.o)
__nedf2                                           /home/zjian_zhang/Dplus_Z/project/realtek_amebaDplus_va0_example/GCC-RELEASE/project_km4/asdk/../toolchain/linux/asdk-10.3.1/linux/newlib/lib/gcc/arm-none-eabi/10.3.1/thumb/v8-m.main+fp/fpu/libgcc.a(_arm_cmpdf2.o)
__numeric_load_locale                             /home/zjian_zhang/Dplus_Z/project/realtek_amebaDplus_va0_example/GCC-RELEASE/project_km4/asdk/../toolchain/linux/asdk-10.3.1/linux/newlib/arm-none-eabi/lib/thumb/v8-m.main+fp/fpu/libc.a(lib_a-lnumeric.o)
__pow5mult                                        /home/zjian_zhang/Dplus_Z/project/realtek_amebaDplus_va0_example/GCC-RELEASE/project_km4/asdk/../toolchain/linux/asdk-10.3.1/linux/newlib/arm-none-eabi/lib/thumb/v8-m.main+fp/fpu/libc.a(lib_a-mprec.o)
                                                  /home/zjian_zhang/Dplus_Z/project/realtek_amebaDplus_va0_example/GCC-RELEASE/project_km4/asdk/../toolchain/linux/asdk-10.3.1/linux/newlib/arm-none-eabi/lib/thumb/v8-m.main+fp/fpu/libc.a(lib_a-strtod.o)
                                                  /home/zjian_zhang/Dplus_Z/project/realtek_amebaDplus_va0_example/GCC-RELEASE/project_km4/asdk/../toolchain/linux/asdk-10.3.1/linux/newlib/arm-none-eabi/lib/thumb/v8-m.main+fp/fpu/libc.a(lib_a-dtoa.o)
__ratio                                           /home/zjian_zhang/Dplus_Z/project/realtek_amebaDplus_va0_example/GCC-RELEASE/project_km4/asdk/../toolchain/linux/asdk-10.3.1/linux/newlib/arm-none-eabi/lib/thumb/v8-m.main+fp/fpu/libc.a(lib_a-mprec.o)
                                                  /home/zjian_zhang/Dplus_Z/project/realtek_amebaDplus_va0_example/GCC-RELEASE/project_km4/asdk/../toolchain/linux/asdk-10.3.1/linux/newlib/arm-none-eabi/lib/thumb/v8-m.main+fp/fpu/libc.a(lib_a-strtod.o)
__retarget_lock_acquire                           /home/zjian_zhang/Dplus_Z/project/realtek_amebaDplus_va0_example/GCC-RELEASE/project_km4/asdk/../toolchain/linux/asdk-10.3.1/linux/newlib/arm-none-eabi/lib/thumb/v8-m.main+fp/fpu/libc.a(lib_a-lock.o)
__retarget_lock_acquire_recursive                 /home/zjian_zhang/Dplus_Z/project/realtek_amebaDplus_va0_example/GCC-RELEASE/project_km4/asdk/../toolchain/linux/asdk-10.3.1/linux/newlib/arm-none-eabi/lib/thumb/v8-m.main+fp/fpu/libc.a(lib_a-lock.o)
                                                  /home/zjian_zhang/Dplus_Z/project/realtek_amebaDplus_va0_example/GCC-RELEASE/project_km4/asdk/../toolchain/linux/asdk-10.3.1/linux/newlib/arm-none-eabi/lib/thumb/v8-m.main+fp/fpu/libc.a(lib_a-fputwc.o)
                                                  /home/zjian_zhang/Dplus_Z/project/realtek_amebaDplus_va0_example/GCC-RELEASE/project_km4/asdk/../toolchain/linux/asdk-10.3.1/linux/newlib/arm-none-eabi/lib/thumb/v8-m.main+fp/fpu/libc.a(lib_a-fclose.o)
                                                  /home/zjian_zhang/Dplus_Z/project/realtek_amebaDplus_va0_example/GCC-RELEASE/project_km4/asdk/../toolchain/linux/asdk-10.3.1/linux/newlib/arm-none-eabi/lib/thumb/v8-m.main+fp/fpu/libc.a(lib_a-vfiprintf.o)
                                                  /home/zjian_zhang/Dplus_Z/project/realtek_amebaDplus_va0_example/GCC-RELEASE/project_km4/asdk/../toolchain/linux/asdk-10.3.1/linux/newlib/arm-none-eabi/lib/thumb/v8-m.main+fp/fpu/libc.a(lib_a-ungetc.o)
                                                  /home/zjian_zhang/Dplus_Z/project/realtek_amebaDplus_va0_example/GCC-RELEASE/project_km4/asdk/../toolchain/linux/asdk-10.3.1/linux/newlib/arm-none-eabi/lib/thumb/v8-m.main+fp/fpu/libc.a(lib_a-mlock.o)
                                                  /home/zjian_zhang/Dplus_Z/project/realtek_amebaDplus_va0_example/GCC-RELEASE/project_km4/asdk/../toolchain/linux/asdk-10.3.1/linux/newlib/arm-none-eabi/lib/thumb/v8-m.main+fp/fpu/libc.a(lib_a-findfp.o)
                                                  /home/zjian_zhang/Dplus_Z/project/realtek_amebaDplus_va0_example/GCC-RELEASE/project_km4/asdk/../toolchain/linux/asdk-10.3.1/linux/newlib/arm-none-eabi/lib/thumb/v8-m.main+fp/fpu/libc.a(lib_a-fflush.o)
                                                  /home/zjian_zhang/Dplus_Z/project/realtek_amebaDplus_va0_example/GCC-RELEASE/project_km4/asdk/../toolchain/linux/asdk-10.3.1/linux/newlib/arm-none-eabi/lib/thumb/v8-m.main+fp/fpu/libc.a(lib_a-vfprintf.o)
                                                  /home/zjian_zhang/Dplus_Z/project/realtek_amebaDplus_va0_example/GCC-RELEASE/project_km4/asdk/../toolchain/linux/asdk-10.3.1/linux/newlib/arm-none-eabi/lib/thumb/v8-m.main+fp/fpu/libc.a(lib_a-puts.o)
                                                  /home/zjian_zhang/Dplus_Z/project/realtek_amebaDplus_va0_example/GCC-RELEASE/project_km4/asdk/../toolchain/linux/asdk-10.3.1/linux/newlib/arm-none-eabi/lib/thumb/v8-m.main+fp/fpu/libc.a(lib_a-putc.o)
__retarget_lock_close                             /home/zjian_zhang/Dplus_Z/project/realtek_amebaDplus_va0_example/GCC-RELEASE/project_km4/asdk/../toolchain/linux/asdk-10.3.1/linux/newlib/arm-none-eabi/lib/thumb/v8-m.main+fp/fpu/libc.a(lib_a-lock.o)
__retarget_lock_close_recursive                   /home/zjian_zhang/Dplus_Z/project/realtek_amebaDplus_va0_example/GCC-RELEASE/project_km4/asdk/../toolchain/linux/asdk-10.3.1/linux/newlib/arm-none-eabi/lib/thumb/v8-m.main+fp/fpu/libc.a(lib_a-lock.o)
                                                  /home/zjian_zhang/Dplus_Z/project/realtek_amebaDplus_va0_example/GCC-RELEASE/project_km4/asdk/../toolchain/linux/asdk-10.3.1/linux/newlib/arm-none-eabi/lib/thumb/v8-m.main+fp/fpu/libc.a(lib_a-fclose.o)
                                                  /home/zjian_zhang/Dplus_Z/project/realtek_amebaDplus_va0_example/GCC-RELEASE/project_km4/asdk/../toolchain/linux/asdk-10.3.1/linux/newlib/arm-none-eabi/lib/thumb/v8-m.main+fp/fpu/libc.a(lib_a-vfiprintf.o)
                                                  /home/zjian_zhang/Dplus_Z/project/realtek_amebaDplus_va0_example/GCC-RELEASE/project_km4/asdk/../toolchain/linux/asdk-10.3.1/linux/newlib/arm-none-eabi/lib/thumb/v8-m.main+fp/fpu/libc.a(lib_a-vfprintf.o)
__retarget_lock_init                              /home/zjian_zhang/Dplus_Z/project/realtek_amebaDplus_va0_example/GCC-RELEASE/project_km4/asdk/../toolchain/linux/asdk-10.3.1/linux/newlib/arm-none-eabi/lib/thumb/v8-m.main+fp/fpu/libc.a(lib_a-lock.o)
__retarget_lock_init_recursive                    /home/zjian_zhang/Dplus_Z/project/realtek_amebaDplus_va0_example/GCC-RELEASE/project_km4/asdk/../toolchain/linux/asdk-10.3.1/linux/newlib/arm-none-eabi/lib/thumb/v8-m.main+fp/fpu/libc.a(lib_a-lock.o)
                                                  /home/zjian_zhang/Dplus_Z/project/realtek_amebaDplus_va0_example/GCC-RELEASE/project_km4/asdk/../toolchain/linux/asdk-10.3.1/linux/newlib/arm-none-eabi/lib/thumb/v8-m.main+fp/fpu/libc.a(lib_a-vfiprintf.o)
                                                  /home/zjian_zhang/Dplus_Z/project/realtek_amebaDplus_va0_example/GCC-RELEASE/project_km4/asdk/../toolchain/linux/asdk-10.3.1/linux/newlib/arm-none-eabi/lib/thumb/v8-m.main+fp/fpu/libc.a(lib_a-findfp.o)
                                                  /home/zjian_zhang/Dplus_Z/project/realtek_amebaDplus_va0_example/GCC-RELEASE/project_km4/asdk/../toolchain/linux/asdk-10.3.1/linux/newlib/arm-none-eabi/lib/thumb/v8-m.main+fp/fpu/libc.a(lib_a-vfprintf.o)
__retarget_lock_release                           /home/zjian_zhang/Dplus_Z/project/realtek_amebaDplus_va0_example/GCC-RELEASE/project_km4/asdk/../toolchain/linux/asdk-10.3.1/linux/newlib/arm-none-eabi/lib/thumb/v8-m.main+fp/fpu/libc.a(lib_a-lock.o)
__retarget_lock_release_recursive                 /home/zjian_zhang/Dplus_Z/project/realtek_amebaDplus_va0_example/GCC-RELEASE/project_km4/asdk/../toolchain/linux/asdk-10.3.1/linux/newlib/arm-none-eabi/lib/thumb/v8-m.main+fp/fpu/libc.a(lib_a-lock.o)
                                                  /home/zjian_zhang/Dplus_Z/project/realtek_amebaDplus_va0_example/GCC-RELEASE/project_km4/asdk/../toolchain/linux/asdk-10.3.1/linux/newlib/arm-none-eabi/lib/thumb/v8-m.main+fp/fpu/libc.a(lib_a-fputwc.o)
                                                  /home/zjian_zhang/Dplus_Z/project/realtek_amebaDplus_va0_example/GCC-RELEASE/project_km4/asdk/../toolchain/linux/asdk-10.3.1/linux/newlib/arm-none-eabi/lib/thumb/v8-m.main+fp/fpu/libc.a(lib_a-fclose.o)
                                                  /home/zjian_zhang/Dplus_Z/project/realtek_amebaDplus_va0_example/GCC-RELEASE/project_km4/asdk/../toolchain/linux/asdk-10.3.1/linux/newlib/arm-none-eabi/lib/thumb/v8-m.main+fp/fpu/libc.a(lib_a-vfiprintf.o)
                                                  /home/zjian_zhang/Dplus_Z/project/realtek_amebaDplus_va0_example/GCC-RELEASE/project_km4/asdk/../toolchain/linux/asdk-10.3.1/linux/newlib/arm-none-eabi/lib/thumb/v8-m.main+fp/fpu/libc.a(lib_a-ungetc.o)
                                                  /home/zjian_zhang/Dplus_Z/project/realtek_amebaDplus_va0_example/GCC-RELEASE/project_km4/asdk/../toolchain/linux/asdk-10.3.1/linux/newlib/arm-none-eabi/lib/thumb/v8-m.main+fp/fpu/libc.a(lib_a-mlock.o)
                                                  /home/zjian_zhang/Dplus_Z/project/realtek_amebaDplus_va0_example/GCC-RELEASE/project_km4/asdk/../toolchain/linux/asdk-10.3.1/linux/newlib/arm-none-eabi/lib/thumb/v8-m.main+fp/fpu/libc.a(lib_a-findfp.o)
                                                  /home/zjian_zhang/Dplus_Z/project/realtek_amebaDplus_va0_example/GCC-RELEASE/project_km4/asdk/../toolchain/linux/asdk-10.3.1/linux/newlib/arm-none-eabi/lib/thumb/v8-m.main+fp/fpu/libc.a(lib_a-fflush.o)
                                                  /home/zjian_zhang/Dplus_Z/project/realtek_amebaDplus_va0_example/GCC-RELEASE/project_km4/asdk/../toolchain/linux/asdk-10.3.1/linux/newlib/arm-none-eabi/lib/thumb/v8-m.main+fp/fpu/libc.a(lib_a-vfprintf.o)
                                                  /home/zjian_zhang/Dplus_Z/project/realtek_amebaDplus_va0_example/GCC-RELEASE/project_km4/asdk/../toolchain/linux/asdk-10.3.1/linux/newlib/arm-none-eabi/lib/thumb/v8-m.main+fp/fpu/libc.a(lib_a-puts.o)
                                                  /home/zjian_zhang/Dplus_Z/project/realtek_amebaDplus_va0_example/GCC-RELEASE/project_km4/asdk/../toolchain/linux/asdk-10.3.1/linux/newlib/arm-none-eabi/lib/thumb/v8-m.main+fp/fpu/libc.a(lib_a-putc.o)
__retarget_lock_try_acquire                       /home/zjian_zhang/Dplus_Z/project/realtek_amebaDplus_va0_example/GCC-RELEASE/project_km4/asdk/../toolchain/linux/asdk-10.3.1/linux/newlib/arm-none-eabi/lib/thumb/v8-m.main+fp/fpu/libc.a(lib_a-lock.o)
__retarget_lock_try_acquire_recursive             /home/zjian_zhang/Dplus_Z/project/realtek_amebaDplus_va0_example/GCC-RELEASE/project_km4/asdk/../toolchain/linux/asdk-10.3.1/linux/newlib/arm-none-eabi/lib/thumb/v8-m.main+fp/fpu/libc.a(lib_a-lock.o)
__rom_entry_ns_start__                            ./build/stdlib/stdlib_link.o
__rom_stdlib_bss_end__                            ./build/stdlib/stdlib_link.o
__rom_stdlib_bss_start__                          ./build/stdlib/stdlib_link.o
__rom_stdlib_data_end__                           ./build/stdlib/stdlib_link.o
__rom_stdlib_data_start__                         ./build/stdlib/stdlib_link.o
__rom_stdlib_text_end__                           ./build/stdlib/stdlib_link.o
__s2b                                             /home/zjian_zhang/Dplus_Z/project/realtek_amebaDplus_va0_example/GCC-RELEASE/project_km4/asdk/../toolchain/linux/asdk-10.3.1/linux/newlib/arm-none-eabi/lib/thumb/v8-m.main+fp/fpu/libc.a(lib_a-mprec.o)
                                                  /home/zjian_zhang/Dplus_Z/project/realtek_amebaDplus_va0_example/GCC-RELEASE/project_km4/asdk/../toolchain/linux/asdk-10.3.1/linux/newlib/arm-none-eabi/lib/thumb/v8-m.main+fp/fpu/libc.a(lib_a-strtod.o)
__sccl                                            /home/zjian_zhang/Dplus_Z/project/realtek_amebaDplus_va0_example/GCC-RELEASE/project_km4/asdk/../toolchain/linux/asdk-10.3.1/linux/newlib/arm-none-eabi/lib/thumb/v8-m.main+fp/fpu/libc.a(lib_a-sccl.o)
                                                  /home/zjian_zhang/Dplus_Z/project/realtek_amebaDplus_va0_example/GCC-RELEASE/project_km4/asdk/../toolchain/linux/asdk-10.3.1/linux/newlib/arm-none-eabi/lib/thumb/v8-m.main+fp/fpu/libc.a(lib_a-svfiscanf.o)
                                                  /home/zjian_zhang/Dplus_Z/project/realtek_amebaDplus_va0_example/GCC-RELEASE/project_km4/asdk/../toolchain/linux/asdk-10.3.1/linux/newlib/arm-none-eabi/lib/thumb/v8-m.main+fp/fpu/libc.a(lib_a-svfscanf.o)
__sclose                                          /home/zjian_zhang/Dplus_Z/project/realtek_amebaDplus_va0_example/GCC-RELEASE/project_km4/asdk/../toolchain/linux/asdk-10.3.1/linux/newlib/arm-none-eabi/lib/thumb/v8-m.main+fp/fpu/libc.a(lib_a-stdio.o)
                                                  /home/zjian_zhang/Dplus_Z/project/realtek_amebaDplus_va0_example/GCC-RELEASE/project_km4/asdk/../toolchain/linux/asdk-10.3.1/linux/newlib/arm-none-eabi/lib/thumb/v8-m.main+fp/fpu/libc.a(lib_a-findfp.o)
__seofread                                        /home/zjian_zhang/Dplus_Z/project/realtek_amebaDplus_va0_example/GCC-RELEASE/project_km4/asdk/../toolchain/linux/asdk-10.3.1/linux/newlib/arm-none-eabi/lib/thumb/v8-m.main+fp/fpu/libc.a(lib_a-stdio.o)
                                                  /home/zjian_zhang/Dplus_Z/project/realtek_amebaDplus_va0_example/GCC-RELEASE/project_km4/asdk/../toolchain/linux/asdk-10.3.1/linux/newlib/arm-none-eabi/lib/thumb/v8-m.main+fp/fpu/libc.a(lib_a-sscanf.o)
__sflush_r                                        /home/zjian_zhang/Dplus_Z/project/realtek_amebaDplus_va0_example/GCC-RELEASE/project_km4/asdk/../toolchain/linux/asdk-10.3.1/linux/newlib/arm-none-eabi/lib/thumb/v8-m.main+fp/fpu/libc.a(lib_a-fflush.o)
                                                  /home/zjian_zhang/Dplus_Z/project/realtek_amebaDplus_va0_example/GCC-RELEASE/project_km4/asdk/../toolchain/linux/asdk-10.3.1/linux/newlib/arm-none-eabi/lib/thumb/v8-m.main+fp/fpu/libc.a(lib_a-fclose.o)
__sfmoreglue                                      /home/zjian_zhang/Dplus_Z/project/realtek_amebaDplus_va0_example/GCC-RELEASE/project_km4/asdk/../toolchain/linux/asdk-10.3.1/linux/newlib/arm-none-eabi/lib/thumb/v8-m.main+fp/fpu/libc.a(lib_a-findfp.o)
__sfp                                             /home/zjian_zhang/Dplus_Z/project/realtek_amebaDplus_va0_example/GCC-RELEASE/project_km4/asdk/../toolchain/linux/asdk-10.3.1/linux/newlib/arm-none-eabi/lib/thumb/v8-m.main+fp/fpu/libc.a(lib_a-findfp.o)
__sfp_lock_acquire                                /home/zjian_zhang/Dplus_Z/project/realtek_amebaDplus_va0_example/GCC-RELEASE/project_km4/asdk/../toolchain/linux/asdk-10.3.1/linux/newlib/arm-none-eabi/lib/thumb/v8-m.main+fp/fpu/libc.a(lib_a-findfp.o)
                                                  /home/zjian_zhang/Dplus_Z/project/realtek_amebaDplus_va0_example/GCC-RELEASE/project_km4/asdk/../toolchain/linux/asdk-10.3.1/linux/newlib/arm-none-eabi/lib/thumb/v8-m.main+fp/fpu/libc.a(lib_a-fclose.o)
__sfp_lock_release                                /home/zjian_zhang/Dplus_Z/project/realtek_amebaDplus_va0_example/GCC-RELEASE/project_km4/asdk/../toolchain/linux/asdk-10.3.1/linux/newlib/arm-none-eabi/lib/thumb/v8-m.main+fp/fpu/libc.a(lib_a-findfp.o)
                                                  /home/zjian_zhang/Dplus_Z/project/realtek_amebaDplus_va0_example/GCC-RELEASE/project_km4/asdk/../toolchain/linux/asdk-10.3.1/linux/newlib/arm-none-eabi/lib/thumb/v8-m.main+fp/fpu/libc.a(lib_a-fclose.o)
__sfvwrite_r                                      /home/zjian_zhang/Dplus_Z/project/realtek_amebaDplus_va0_example/GCC-RELEASE/project_km4/asdk/../toolchain/linux/asdk-10.3.1/linux/newlib/arm-none-eabi/lib/thumb/v8-m.main+fp/fpu/libc.a(lib_a-fvwrite.o)
                                                  /home/zjian_zhang/Dplus_Z/project/realtek_amebaDplus_va0_example/GCC-RELEASE/project_km4/asdk/../toolchain/linux/asdk-10.3.1/linux/newlib/arm-none-eabi/lib/thumb/v8-m.main+fp/fpu/libc.a(lib_a-vfiprintf.o)
                                                  /home/zjian_zhang/Dplus_Z/project/realtek_amebaDplus_va0_example/GCC-RELEASE/project_km4/asdk/../toolchain/linux/asdk-10.3.1/linux/newlib/arm-none-eabi/lib/thumb/v8-m.main+fp/fpu/libc.a(lib_a-puts.o)
__sigtramp                                        /home/zjian_zhang/Dplus_Z/project/realtek_amebaDplus_va0_example/GCC-RELEASE/project_km4/asdk/../toolchain/linux/asdk-10.3.1/linux/newlib/arm-none-eabi/lib/thumb/v8-m.main+fp/fpu/libc.a(lib_a-signal.o)
__sigtramp_r                                      /home/zjian_zhang/Dplus_Z/project/realtek_amebaDplus_va0_example/GCC-RELEASE/project_km4/asdk/../toolchain/linux/asdk-10.3.1/linux/newlib/arm-none-eabi/lib/thumb/v8-m.main+fp/fpu/libc.a(lib_a-signal.o)
__sinit                                           /home/zjian_zhang/Dplus_Z/project/realtek_amebaDplus_va0_example/GCC-RELEASE/project_km4/asdk/../toolchain/linux/asdk-10.3.1/linux/newlib/arm-none-eabi/lib/thumb/v8-m.main+fp/fpu/libc.a(lib_a-findfp.o)
                                                  /home/zjian_zhang/Dplus_Z/project/realtek_amebaDplus_va0_example/GCC-RELEASE/project_km4/asdk/../toolchain/linux/asdk-10.3.1/linux/newlib/arm-none-eabi/lib/thumb/v8-m.main+fp/fpu/libc.a(lib_a-fputwc.o)
                                                  /home/zjian_zhang/Dplus_Z/project/realtek_amebaDplus_va0_example/GCC-RELEASE/project_km4/asdk/../toolchain/linux/asdk-10.3.1/linux/newlib/arm-none-eabi/lib/thumb/v8-m.main+fp/fpu/libc.a(lib_a-fclose.o)
                                                  /home/zjian_zhang/Dplus_Z/project/realtek_amebaDplus_va0_example/GCC-RELEASE/project_km4/asdk/../toolchain/linux/asdk-10.3.1/linux/newlib/arm-none-eabi/lib/thumb/v8-m.main+fp/fpu/libc.a(lib_a-vfiprintf.o)
                                                  /home/zjian_zhang/Dplus_Z/project/realtek_amebaDplus_va0_example/GCC-RELEASE/project_km4/asdk/../toolchain/linux/asdk-10.3.1/linux/newlib/arm-none-eabi/lib/thumb/v8-m.main+fp/fpu/libc.a(lib_a-ungetc.o)
                                                  /home/zjian_zhang/Dplus_Z/project/realtek_amebaDplus_va0_example/GCC-RELEASE/project_km4/asdk/../toolchain/linux/asdk-10.3.1/linux/newlib/arm-none-eabi/lib/thumb/v8-m.main+fp/fpu/libc.a(lib_a-fflush.o)
                                                  /home/zjian_zhang/Dplus_Z/project/realtek_amebaDplus_va0_example/GCC-RELEASE/project_km4/asdk/../toolchain/linux/asdk-10.3.1/linux/newlib/arm-none-eabi/lib/thumb/v8-m.main+fp/fpu/libc.a(lib_a-wsetup.o)
                                                  /home/zjian_zhang/Dplus_Z/project/realtek_amebaDplus_va0_example/GCC-RELEASE/project_km4/asdk/../toolchain/linux/asdk-10.3.1/linux/newlib/arm-none-eabi/lib/thumb/v8-m.main+fp/fpu/libc.a(lib_a-wbuf.o)
                                                  /home/zjian_zhang/Dplus_Z/project/realtek_amebaDplus_va0_example/GCC-RELEASE/project_km4/asdk/../toolchain/linux/asdk-10.3.1/linux/newlib/arm-none-eabi/lib/thumb/v8-m.main+fp/fpu/libc.a(lib_a-vfprintf.o)
                                                  /home/zjian_zhang/Dplus_Z/project/realtek_amebaDplus_va0_example/GCC-RELEASE/project_km4/asdk/../toolchain/linux/asdk-10.3.1/linux/newlib/arm-none-eabi/lib/thumb/v8-m.main+fp/fpu/libc.a(lib_a-puts.o)
                                                  /home/zjian_zhang/Dplus_Z/project/realtek_amebaDplus_va0_example/GCC-RELEASE/project_km4/asdk/../toolchain/linux/asdk-10.3.1/linux/newlib/arm-none-eabi/lib/thumb/v8-m.main+fp/fpu/libc.a(lib_a-putc.o)
__sinit_lock_acquire                              /home/zjian_zhang/Dplus_Z/project/realtek_amebaDplus_va0_example/GCC-RELEASE/project_km4/asdk/../toolchain/linux/asdk-10.3.1/linux/newlib/arm-none-eabi/lib/thumb/v8-m.main+fp/fpu/libc.a(lib_a-findfp.o)
__sinit_lock_release                              /home/zjian_zhang/Dplus_Z/project/realtek_amebaDplus_va0_example/GCC-RELEASE/project_km4/asdk/../toolchain/linux/asdk-10.3.1/linux/newlib/arm-none-eabi/lib/thumb/v8-m.main+fp/fpu/libc.a(lib_a-findfp.o)
__smakebuf_r                                      /home/zjian_zhang/Dplus_Z/project/realtek_amebaDplus_va0_example/GCC-RELEASE/project_km4/asdk/../toolchain/linux/asdk-10.3.1/linux/newlib/arm-none-eabi/lib/thumb/v8-m.main+fp/fpu/libc.a(lib_a-makebuf.o)
                                                  /home/zjian_zhang/Dplus_Z/project/realtek_amebaDplus_va0_example/GCC-RELEASE/project_km4/asdk/../toolchain/linux/asdk-10.3.1/linux/newlib/arm-none-eabi/lib/thumb/v8-m.main+fp/fpu/libc.a(lib_a-wsetup.o)
__sprint_r                                        /home/zjian_zhang/Dplus_Z/project/realtek_amebaDplus_va0_example/GCC-RELEASE/project_km4/asdk/../toolchain/linux/asdk-10.3.1/linux/newlib/arm-none-eabi/lib/thumb/v8-m.main+fp/fpu/libc.a(lib_a-vfiprintf.o)
                                                  /home/zjian_zhang/Dplus_Z/project/realtek_amebaDplus_va0_example/GCC-RELEASE/project_km4/asdk/../toolchain/linux/asdk-10.3.1/linux/newlib/arm-none-eabi/lib/thumb/v8-m.main+fp/fpu/libc.a(lib_a-vfprintf.o)
__sread                                           /home/zjian_zhang/Dplus_Z/project/realtek_amebaDplus_va0_example/GCC-RELEASE/project_km4/asdk/../toolchain/linux/asdk-10.3.1/linux/newlib/arm-none-eabi/lib/thumb/v8-m.main+fp/fpu/libc.a(lib_a-stdio.o)
                                                  /home/zjian_zhang/Dplus_Z/project/realtek_amebaDplus_va0_example/GCC-RELEASE/project_km4/asdk/../toolchain/linux/asdk-10.3.1/linux/newlib/arm-none-eabi/lib/thumb/v8-m.main+fp/fpu/libc.a(lib_a-findfp.o)
__sseek                                           /home/zjian_zhang/Dplus_Z/project/realtek_amebaDplus_va0_example/GCC-RELEASE/project_km4/asdk/../toolchain/linux/asdk-10.3.1/linux/newlib/arm-none-eabi/lib/thumb/v8-m.main+fp/fpu/libc.a(lib_a-stdio.o)
                                                  /home/zjian_zhang/Dplus_Z/project/realtek_amebaDplus_va0_example/GCC-RELEASE/project_km4/asdk/../toolchain/linux/asdk-10.3.1/linux/newlib/arm-none-eabi/lib/thumb/v8-m.main+fp/fpu/libc.a(lib_a-findfp.o)
__ssprint_r                                       /home/zjian_zhang/Dplus_Z/project/realtek_amebaDplus_va0_example/GCC-RELEASE/project_km4/asdk/../toolchain/linux/asdk-10.3.1/linux/newlib/arm-none-eabi/lib/thumb/v8-m.main+fp/fpu/libc.a(lib_a-svfiprintf.o)
                                                  /home/zjian_zhang/Dplus_Z/project/realtek_amebaDplus_va0_example/GCC-RELEASE/project_km4/asdk/../toolchain/linux/asdk-10.3.1/linux/newlib/arm-none-eabi/lib/thumb/v8-m.main+fp/fpu/libc.a(lib_a-svfprintf.o)
__ssrefill_r                                      /home/zjian_zhang/Dplus_Z/project/realtek_amebaDplus_va0_example/GCC-RELEASE/project_km4/asdk/../toolchain/linux/asdk-10.3.1/linux/newlib/arm-none-eabi/lib/thumb/v8-m.main+fp/fpu/libc.a(lib_a-svfiscanf.o)
                                                  /home/zjian_zhang/Dplus_Z/project/realtek_amebaDplus_va0_example/GCC-RELEASE/project_km4/asdk/../toolchain/linux/asdk-10.3.1/linux/newlib/arm-none-eabi/lib/thumb/v8-m.main+fp/fpu/libc.a(lib_a-svfscanf.o)
__ssvfiscanf_r                                    /home/zjian_zhang/Dplus_Z/project/realtek_amebaDplus_va0_example/GCC-RELEASE/project_km4/asdk/../toolchain/linux/asdk-10.3.1/linux/newlib/arm-none-eabi/lib/thumb/v8-m.main+fp/fpu/libc.a(lib_a-svfiscanf.o)
__ssvfscanf_r                                     /home/zjian_zhang/Dplus_Z/project/realtek_amebaDplus_va0_example/GCC-RELEASE/project_km4/asdk/../toolchain/linux/asdk-10.3.1/linux/newlib/arm-none-eabi/lib/thumb/v8-m.main+fp/fpu/libc.a(lib_a-svfscanf.o)
                                                  /home/zjian_zhang/Dplus_Z/project/realtek_amebaDplus_va0_example/GCC-RELEASE/project_km4/asdk/../toolchain/linux/asdk-10.3.1/linux/newlib/arm-none-eabi/lib/thumb/v8-m.main+fp/fpu/libc.a(lib_a-sscanf.o)
__strtok_r                                        /home/zjian_zhang/Dplus_Z/project/realtek_amebaDplus_va0_example/GCC-RELEASE/project_km4/asdk/../toolchain/linux/asdk-10.3.1/linux/newlib/arm-none-eabi/lib/thumb/v8-m.main+fp/fpu/libc.a(lib_a-strtok_r.o)
                                                  /home/zjian_zhang/Dplus_Z/project/realtek_amebaDplus_va0_example/GCC-RELEASE/project_km4/asdk/../toolchain/linux/asdk-10.3.1/linux/newlib/arm-none-eabi/lib/thumb/v8-m.main+fp/fpu/libc.a(lib_a-strtok.o)
                                                  /home/zjian_zhang/Dplus_Z/project/realtek_amebaDplus_va0_example/GCC-RELEASE/project_km4/asdk/../toolchain/linux/asdk-10.3.1/linux/newlib/arm-none-eabi/lib/thumb/v8-m.main+fp/fpu/libc.a(lib_a-strsep.o)
__subdf3                                          /home/zjian_zhang/Dplus_Z/project/realtek_amebaDplus_va0_example/GCC-RELEASE/project_km4/asdk/../toolchain/linux/asdk-10.3.1/linux/newlib/lib/gcc/arm-none-eabi/10.3.1/thumb/v8-m.main+fp/fpu/libgcc.a(_arm_addsubdf3.o)
__submore                                         /home/zjian_zhang/Dplus_Z/project/realtek_amebaDplus_va0_example/GCC-RELEASE/project_km4/asdk/../toolchain/linux/asdk-10.3.1/linux/newlib/arm-none-eabi/lib/thumb/v8-m.main+fp/fpu/libc.a(lib_a-ungetc.o)
                                                  /home/zjian_zhang/Dplus_Z/project/realtek_amebaDplus_va0_example/GCC-RELEASE/project_km4/asdk/../toolchain/linux/asdk-10.3.1/linux/newlib/arm-none-eabi/lib/thumb/v8-m.main+fp/fpu/libc.a(lib_a-svfiscanf.o)
__swbuf                                           /home/zjian_zhang/Dplus_Z/project/realtek_amebaDplus_va0_example/GCC-RELEASE/project_km4/asdk/../toolchain/linux/asdk-10.3.1/linux/newlib/arm-none-eabi/lib/thumb/v8-m.main+fp/fpu/libc.a(lib_a-wbuf.o)
__swbuf_r                                         /home/zjian_zhang/Dplus_Z/project/realtek_amebaDplus_va0_example/GCC-RELEASE/project_km4/asdk/../toolchain/linux/asdk-10.3.1/linux/newlib/arm-none-eabi/lib/thumb/v8-m.main+fp/fpu/libc.a(lib_a-wbuf.o)
                                                  /home/zjian_zhang/Dplus_Z/project/realtek_amebaDplus_va0_example/GCC-RELEASE/project_km4/asdk/../toolchain/linux/asdk-10.3.1/linux/newlib/arm-none-eabi/lib/thumb/v8-m.main+fp/fpu/libc.a(lib_a-fputwc.o)
                                                  /home/zjian_zhang/Dplus_Z/project/realtek_amebaDplus_va0_example/GCC-RELEASE/project_km4/asdk/../toolchain/linux/asdk-10.3.1/linux/newlib/arm-none-eabi/lib/thumb/v8-m.main+fp/fpu/libc.a(lib_a-putc.o)
__swhatbuf_r                                      /home/zjian_zhang/Dplus_Z/project/realtek_amebaDplus_va0_example/GCC-RELEASE/project_km4/asdk/../toolchain/linux/asdk-10.3.1/linux/newlib/arm-none-eabi/lib/thumb/v8-m.main+fp/fpu/libc.a(lib_a-makebuf.o)
__swrite                                          /home/zjian_zhang/Dplus_Z/project/realtek_amebaDplus_va0_example/GCC-RELEASE/project_km4/asdk/../toolchain/linux/asdk-10.3.1/linux/newlib/arm-none-eabi/lib/thumb/v8-m.main+fp/fpu/libc.a(lib_a-stdio.o)
                                                  /home/zjian_zhang/Dplus_Z/project/realtek_amebaDplus_va0_example/GCC-RELEASE/project_km4/asdk/../toolchain/linux/asdk-10.3.1/linux/newlib/arm-none-eabi/lib/thumb/v8-m.main+fp/fpu/libc.a(lib_a-findfp.o)
__swsetup_r                                       /home/zjian_zhang/Dplus_Z/project/realtek_amebaDplus_va0_example/GCC-RELEASE/project_km4/asdk/../toolchain/linux/asdk-10.3.1/linux/newlib/arm-none-eabi/lib/thumb/v8-m.main+fp/fpu/libc.a(lib_a-wsetup.o)
                                                  /home/zjian_zhang/Dplus_Z/project/realtek_amebaDplus_va0_example/GCC-RELEASE/project_km4/asdk/../toolchain/linux/asdk-10.3.1/linux/newlib/arm-none-eabi/lib/thumb/v8-m.main+fp/fpu/libc.a(lib_a-vfiprintf.o)
                                                  /home/zjian_zhang/Dplus_Z/project/realtek_amebaDplus_va0_example/GCC-RELEASE/project_km4/asdk/../toolchain/linux/asdk-10.3.1/linux/newlib/arm-none-eabi/lib/thumb/v8-m.main+fp/fpu/libc.a(lib_a-fvwrite.o)
                                                  /home/zjian_zhang/Dplus_Z/project/realtek_amebaDplus_va0_example/GCC-RELEASE/project_km4/asdk/../toolchain/linux/asdk-10.3.1/linux/newlib/arm-none-eabi/lib/thumb/v8-m.main+fp/fpu/libc.a(lib_a-wbuf.o)
                                                  /home/zjian_zhang/Dplus_Z/project/realtek_amebaDplus_va0_example/GCC-RELEASE/project_km4/asdk/../toolchain/linux/asdk-10.3.1/linux/newlib/arm-none-eabi/lib/thumb/v8-m.main+fp/fpu/libc.a(lib_a-vfprintf.o)
__truncdfsf2                                      /home/zjian_zhang/Dplus_Z/project/realtek_amebaDplus_va0_example/GCC-RELEASE/project_km4/asdk/../toolchain/linux/asdk-10.3.1/linux/newlib/lib/gcc/arm-none-eabi/10.3.1/thumb/v8-m.main+fp/fpu/libgcc.a(_arm_truncdfsf2.o)
__udivmoddi4                                      /home/zjian_zhang/Dplus_Z/project/realtek_amebaDplus_va0_example/GCC-RELEASE/project_km4/asdk/../toolchain/linux/asdk-10.3.1/linux/newlib/lib/gcc/arm-none-eabi/10.3.1/thumb/v8-m.main+fp/fpu/libgcc.a(_udivmoddi4.o)
                                                  /home/zjian_zhang/Dplus_Z/project/realtek_amebaDplus_va0_example/GCC-RELEASE/project_km4/asdk/../toolchain/linux/asdk-10.3.1/linux/newlib/lib/gcc/arm-none-eabi/10.3.1/thumb/v8-m.main+fp/fpu/libgcc.a(_aeabi_uldivmod.o)
__ulp                                             /home/zjian_zhang/Dplus_Z/project/realtek_amebaDplus_va0_example/GCC-RELEASE/project_km4/asdk/../toolchain/linux/asdk-10.3.1/linux/newlib/arm-none-eabi/lib/thumb/v8-m.main+fp/fpu/libc.a(lib_a-mprec.o)
                                                  /home/zjian_zhang/Dplus_Z/project/realtek_amebaDplus_va0_example/GCC-RELEASE/project_km4/asdk/../toolchain/linux/asdk-10.3.1/linux/newlib/arm-none-eabi/lib/thumb/v8-m.main+fp/fpu/libc.a(lib_a-strtod.o)
__unorddf2                                        /home/zjian_zhang/Dplus_Z/project/realtek_amebaDplus_va0_example/GCC-RELEASE/project_km4/asdk/../toolchain/linux/asdk-10.3.1/linux/newlib/lib/gcc/arm-none-eabi/10.3.1/thumb/v8-m.main+fp/fpu/libgcc.a(_arm_unorddf2.o)
_atoi_r                                           /home/zjian_zhang/Dplus_Z/project/realtek_amebaDplus_va0_example/GCC-RELEASE/project_km4/asdk/../toolchain/linux/asdk-10.3.1/linux/newlib/arm-none-eabi/lib/thumb/v8-m.main+fp/fpu/libc.a(lib_a-atoi.o)
_calloc_r                                         /home/zjian_zhang/Dplus_Z/project/realtek_amebaDplus_va0_example/GCC-RELEASE/project_km4/asdk/../toolchain/linux/asdk-10.3.1/linux/newlib/arm-none-eabi/lib/thumb/v8-m.main+fp/fpu/libc.a(lib_a-callocr.o)
                                                  /home/zjian_zhang/Dplus_Z/project/realtek_amebaDplus_va0_example/GCC-RELEASE/project_km4/asdk/../toolchain/linux/asdk-10.3.1/linux/newlib/arm-none-eabi/lib/thumb/v8-m.main+fp/fpu/libc.a(lib_a-mprec.o)
_cleanup                                          /home/zjian_zhang/Dplus_Z/project/realtek_amebaDplus_va0_example/GCC-RELEASE/project_km4/asdk/../toolchain/linux/asdk-10.3.1/linux/newlib/arm-none-eabi/lib/thumb/v8-m.main+fp/fpu/libc.a(lib_a-findfp.o)
_cleanup_r                                        /home/zjian_zhang/Dplus_Z/project/realtek_amebaDplus_va0_example/GCC-RELEASE/project_km4/asdk/../toolchain/linux/asdk-10.3.1/linux/newlib/arm-none-eabi/lib/thumb/v8-m.main+fp/fpu/libc.a(lib_a-findfp.o)
                                                  /home/zjian_zhang/Dplus_Z/project/realtek_amebaDplus_va0_example/GCC-RELEASE/project_km4/asdk/../toolchain/linux/asdk-10.3.1/linux/newlib/arm-none-eabi/lib/thumb/v8-m.main+fp/fpu/libc.a(lib_a-makebuf.o)
_close                                            /home/zjian_zhang/Dplus_Z/project/realtek_amebaDplus_va0_example/GCC-RELEASE/project_km4/asdk/../toolchain/linux/asdk-10.3.1/linux/newlib/arm-none-eabi/lib/thumb/v8-m.main+fp/fpu/libnosys.a(close.o)
                                                  /home/zjian_zhang/Dplus_Z/project/realtek_amebaDplus_va0_example/GCC-RELEASE/project_km4/asdk/../toolchain/linux/asdk-10.3.1/linux/newlib/arm-none-eabi/lib/thumb/v8-m.main+fp/fpu/libc.a(lib_a-closer.o)
_close_r                                          /home/zjian_zhang/Dplus_Z/project/realtek_amebaDplus_va0_example/GCC-RELEASE/project_km4/asdk/../toolchain/linux/asdk-10.3.1/linux/newlib/arm-none-eabi/lib/thumb/v8-m.main+fp/fpu/libc.a(lib_a-closer.o)
                                                  /home/zjian_zhang/Dplus_Z/project/realtek_amebaDplus_va0_example/GCC-RELEASE/project_km4/asdk/../toolchain/linux/asdk-10.3.1/linux/newlib/arm-none-eabi/lib/thumb/v8-m.main+fp/fpu/libc.a(lib_a-stdio.o)
_ctype_                                           /home/zjian_zhang/Dplus_Z/project/realtek_amebaDplus_va0_example/GCC-RELEASE/project_km4/asdk/../toolchain/linux/asdk-10.3.1/linux/newlib/arm-none-eabi/lib/thumb/v8-m.main+fp/fpu/libc.a(lib_a-ctype_.o)
                                                  /home/zjian_zhang/Dplus_Z/project/realtek_amebaDplus_va0_example/GCC-RELEASE/project_km4/asdk/../toolchain/linux/asdk-10.3.1/linux/newlib/arm-none-eabi/lib/thumb/v8-m.main+fp/fpu/libc.a(lib_a-iswspace_l.o)
                                                  /home/zjian_zhang/Dplus_Z/project/realtek_amebaDplus_va0_example/GCC-RELEASE/project_km4/asdk/../toolchain/linux/asdk-10.3.1/linux/newlib/arm-none-eabi/lib/thumb/v8-m.main+fp/fpu/libc.a(lib_a-svfiscanf.o)
                                                  /home/zjian_zhang/Dplus_Z/project/realtek_amebaDplus_va0_example/GCC-RELEASE/project_km4/asdk/../toolchain/linux/asdk-10.3.1/linux/newlib/arm-none-eabi/lib/thumb/v8-m.main+fp/fpu/libc.a(lib_a-strtoul.o)
                                                  /home/zjian_zhang/Dplus_Z/project/realtek_amebaDplus_va0_example/GCC-RELEASE/project_km4/asdk/../toolchain/linux/asdk-10.3.1/linux/newlib/arm-none-eabi/lib/thumb/v8-m.main+fp/fpu/libc.a(lib_a-strtoull.o)
                                                  /home/zjian_zhang/Dplus_Z/project/realtek_amebaDplus_va0_example/GCC-RELEASE/project_km4/asdk/../toolchain/linux/asdk-10.3.1/linux/newlib/arm-none-eabi/lib/thumb/v8-m.main+fp/fpu/libc.a(lib_a-strtoll.o)
                                                  /home/zjian_zhang/Dplus_Z/project/realtek_amebaDplus_va0_example/GCC-RELEASE/project_km4/asdk/../toolchain/linux/asdk-10.3.1/linux/newlib/arm-none-eabi/lib/thumb/v8-m.main+fp/fpu/libc.a(lib_a-locale.o)
                                                  /home/zjian_zhang/Dplus_Z/project/realtek_amebaDplus_va0_example/GCC-RELEASE/project_km4/asdk/../toolchain/linux/asdk-10.3.1/linux/newlib/arm-none-eabi/lib/thumb/v8-m.main+fp/fpu/libc.a(lib_a-svfscanf.o)
                                                  /home/zjian_zhang/Dplus_Z/project/realtek_amebaDplus_va0_example/GCC-RELEASE/project_km4/asdk/../toolchain/linux/asdk-10.3.1/linux/newlib/arm-none-eabi/lib/thumb/v8-m.main+fp/fpu/libc.a(lib_a-strtol.o)
_dtoa_r                                           /home/zjian_zhang/Dplus_Z/project/realtek_amebaDplus_va0_example/GCC-RELEASE/project_km4/asdk/../toolchain/linux/asdk-10.3.1/linux/newlib/arm-none-eabi/lib/thumb/v8-m.main+fp/fpu/libc.a(lib_a-dtoa.o)
                                                  /home/zjian_zhang/Dplus_Z/project/realtek_amebaDplus_va0_example/GCC-RELEASE/project_km4/asdk/../toolchain/linux/asdk-10.3.1/linux/newlib/arm-none-eabi/lib/thumb/v8-m.main+fp/fpu/libc.a(lib_a-vfprintf.o)
                                                  /home/zjian_zhang/Dplus_Z/project/realtek_amebaDplus_va0_example/GCC-RELEASE/project_km4/asdk/../toolchain/linux/asdk-10.3.1/linux/newlib/arm-none-eabi/lib/thumb/v8-m.main+fp/fpu/libc.a(lib_a-svfprintf.o)
_exit                                             /home/zjian_zhang/Dplus_Z/project/realtek_amebaDplus_va0_example/GCC-RELEASE/project_km4/asdk/../toolchain/linux/asdk-10.3.1/linux/newlib/arm-none-eabi/lib/thumb/v8-m.main+fp/fpu/libnosys.a(_exit.o)
                                                  /home/zjian_zhang/Dplus_Z/project/realtek_amebaDplus_va0_example/GCC-RELEASE/project_km4/asdk/../toolchain/linux/asdk-10.3.1/linux/newlib/arm-none-eabi/lib/thumb/v8-m.main+fp/fpu/libc.a(lib_a-abort.o)
_fclose_r                                         /home/zjian_zhang/Dplus_Z/project/realtek_amebaDplus_va0_example/GCC-RELEASE/project_km4/asdk/../toolchain/linux/asdk-10.3.1/linux/newlib/arm-none-eabi/lib/thumb/v8-m.main+fp/fpu/libc.a(lib_a-fclose.o)
                                                  /home/zjian_zhang/Dplus_Z/project/realtek_amebaDplus_va0_example/GCC-RELEASE/project_km4/asdk/../toolchain/linux/asdk-10.3.1/linux/newlib/arm-none-eabi/lib/thumb/v8-m.main+fp/fpu/libc.a(lib_a-findfp.o)
_fflush_r                                         /home/zjian_zhang/Dplus_Z/project/realtek_amebaDplus_va0_example/GCC-RELEASE/project_km4/asdk/../toolchain/linux/asdk-10.3.1/linux/newlib/arm-none-eabi/lib/thumb/v8-m.main+fp/fpu/libc.a(lib_a-fflush.o)
                                                  /home/zjian_zhang/Dplus_Z/project/realtek_amebaDplus_va0_example/GCC-RELEASE/project_km4/asdk/../toolchain/linux/asdk-10.3.1/linux/newlib/arm-none-eabi/lib/thumb/v8-m.main+fp/fpu/libc.a(lib_a-vfiprintf.o)
                                                  /home/zjian_zhang/Dplus_Z/project/realtek_amebaDplus_va0_example/GCC-RELEASE/project_km4/asdk/../toolchain/linux/asdk-10.3.1/linux/newlib/arm-none-eabi/lib/thumb/v8-m.main+fp/fpu/libc.a(lib_a-ungetc.o)
                                                  /home/zjian_zhang/Dplus_Z/project/realtek_amebaDplus_va0_example/GCC-RELEASE/project_km4/asdk/../toolchain/linux/asdk-10.3.1/linux/newlib/arm-none-eabi/lib/thumb/v8-m.main+fp/fpu/libc.a(lib_a-fvwrite.o)
                                                  /home/zjian_zhang/Dplus_Z/project/realtek_amebaDplus_va0_example/GCC-RELEASE/project_km4/asdk/../toolchain/linux/asdk-10.3.1/linux/newlib/arm-none-eabi/lib/thumb/v8-m.main+fp/fpu/libc.a(lib_a-wbuf.o)
                                                  /home/zjian_zhang/Dplus_Z/project/realtek_amebaDplus_va0_example/GCC-RELEASE/project_km4/asdk/../toolchain/linux/asdk-10.3.1/linux/newlib/arm-none-eabi/lib/thumb/v8-m.main+fp/fpu/libc.a(lib_a-vfprintf.o)
_fiprintf_r                                       /home/zjian_zhang/Dplus_Z/project/realtek_amebaDplus_va0_example/GCC-RELEASE/project_km4/asdk/../toolchain/linux/asdk-10.3.1/linux/newlib/arm-none-eabi/lib/thumb/v8-m.main+fp/fpu/libc.a(lib_a-fiprintf.o)
_fputwc_r                                         /home/zjian_zhang/Dplus_Z/project/realtek_amebaDplus_va0_example/GCC-RELEASE/project_km4/asdk/../toolchain/linux/asdk-10.3.1/linux/newlib/arm-none-eabi/lib/thumb/v8-m.main+fp/fpu/libc.a(lib_a-fputwc.o)
                                                  /home/zjian_zhang/Dplus_Z/project/realtek_amebaDplus_va0_example/GCC-RELEASE/project_km4/asdk/../toolchain/linux/asdk-10.3.1/linux/newlib/arm-none-eabi/lib/thumb/v8-m.main+fp/fpu/libc.a(lib_a-vfiprintf.o)
_free_r                                           /home/zjian_zhang/Dplus_Z/project/realtek_amebaDplus_va0_example/GCC-RELEASE/project_km4/asdk/../toolchain/linux/asdk-10.3.1/linux/newlib/arm-none-eabi/lib/thumb/v8-m.main+fp/fpu/libc.a(lib_a-freer.o)
                                                  /home/zjian_zhang/Dplus_Z/project/realtek_amebaDplus_va0_example/GCC-RELEASE/project_km4/asdk/../toolchain/linux/asdk-10.3.1/linux/newlib/arm-none-eabi/lib/thumb/v8-m.main+fp/fpu/libc.a(lib_a-fclose.o)
                                                  /home/zjian_zhang/Dplus_Z/project/realtek_amebaDplus_va0_example/GCC-RELEASE/project_km4/asdk/../toolchain/linux/asdk-10.3.1/linux/newlib/arm-none-eabi/lib/thumb/v8-m.main+fp/fpu/libc.a(lib_a-svfiscanf.o)
                                                  /home/zjian_zhang/Dplus_Z/project/realtek_amebaDplus_va0_example/GCC-RELEASE/project_km4/asdk/../toolchain/linux/asdk-10.3.1/linux/newlib/arm-none-eabi/lib/thumb/v8-m.main+fp/fpu/libc.a(lib_a-svfiprintf.o)
                                                  /home/zjian_zhang/Dplus_Z/project/realtek_amebaDplus_va0_example/GCC-RELEASE/project_km4/asdk/../toolchain/linux/asdk-10.3.1/linux/newlib/arm-none-eabi/lib/thumb/v8-m.main+fp/fpu/libc.a(lib_a-reent.o)
                                                  /home/zjian_zhang/Dplus_Z/project/realtek_amebaDplus_va0_example/GCC-RELEASE/project_km4/asdk/../toolchain/linux/asdk-10.3.1/linux/newlib/arm-none-eabi/lib/thumb/v8-m.main+fp/fpu/libc.a(lib_a-reallocr.o)
                                                  /home/zjian_zhang/Dplus_Z/project/realtek_amebaDplus_va0_example/GCC-RELEASE/project_km4/asdk/../toolchain/linux/asdk-10.3.1/linux/newlib/arm-none-eabi/lib/thumb/v8-m.main+fp/fpu/libc.a(lib_a-mallocr.o)
                                                  /home/zjian_zhang/Dplus_Z/project/realtek_amebaDplus_va0_example/GCC-RELEASE/project_km4/asdk/../toolchain/linux/asdk-10.3.1/linux/newlib/arm-none-eabi/lib/thumb/v8-m.main+fp/fpu/libc.a(lib_a-fvwrite.o)
                                                  /home/zjian_zhang/Dplus_Z/project/realtek_amebaDplus_va0_example/GCC-RELEASE/project_km4/asdk/../toolchain/linux/asdk-10.3.1/linux/newlib/arm-none-eabi/lib/thumb/v8-m.main+fp/fpu/libc.a(lib_a-free.o)
                                                  /home/zjian_zhang/Dplus_Z/project/realtek_amebaDplus_va0_example/GCC-RELEASE/project_km4/asdk/../toolchain/linux/asdk-10.3.1/linux/newlib/arm-none-eabi/lib/thumb/v8-m.main+fp/fpu/libc.a(lib_a-fflush.o)
                                                  /home/zjian_zhang/Dplus_Z/project/realtek_amebaDplus_va0_example/GCC-RELEASE/project_km4/asdk/../toolchain/linux/asdk-10.3.1/linux/newlib/arm-none-eabi/lib/thumb/v8-m.main+fp/fpu/libc.a(lib_a-wsetup.o)
                                                  /home/zjian_zhang/Dplus_Z/project/realtek_amebaDplus_va0_example/GCC-RELEASE/project_km4/asdk/../toolchain/linux/asdk-10.3.1/linux/newlib/arm-none-eabi/lib/thumb/v8-m.main+fp/fpu/libc.a(lib_a-vfprintf.o)
                                                  /home/zjian_zhang/Dplus_Z/project/realtek_amebaDplus_va0_example/GCC-RELEASE/project_km4/asdk/../toolchain/linux/asdk-10.3.1/linux/newlib/arm-none-eabi/lib/thumb/v8-m.main+fp/fpu/libc.a(lib_a-svfprintf.o)
_fstat                                            /home/zjian_zhang/Dplus_Z/project/realtek_amebaDplus_va0_example/GCC-RELEASE/project_km4/asdk/../toolchain/linux/asdk-10.3.1/linux/newlib/arm-none-eabi/lib/thumb/v8-m.main+fp/fpu/libnosys.a(fstat.o)
                                                  /home/zjian_zhang/Dplus_Z/project/realtek_amebaDplus_va0_example/GCC-RELEASE/project_km4/asdk/../toolchain/linux/asdk-10.3.1/linux/newlib/arm-none-eabi/lib/thumb/v8-m.main+fp/fpu/libc.a(lib_a-fstatr.o)
_fstat_r                                          /home/zjian_zhang/Dplus_Z/project/realtek_amebaDplus_va0_example/GCC-RELEASE/project_km4/asdk/../toolchain/linux/asdk-10.3.1/linux/newlib/arm-none-eabi/lib/thumb/v8-m.main+fp/fpu/libc.a(lib_a-fstatr.o)
                                                  /home/zjian_zhang/Dplus_Z/project/realtek_amebaDplus_va0_example/GCC-RELEASE/project_km4/asdk/../toolchain/linux/asdk-10.3.1/linux/newlib/arm-none-eabi/lib/thumb/v8-m.main+fp/fpu/libc.a(lib_a-makebuf.o)
_fwalk                                            /home/zjian_zhang/Dplus_Z/project/realtek_amebaDplus_va0_example/GCC-RELEASE/project_km4/asdk/../toolchain/linux/asdk-10.3.1/linux/newlib/arm-none-eabi/lib/thumb/v8-m.main+fp/fpu/libc.a(lib_a-fwalk.o)
                                                  /home/zjian_zhang/Dplus_Z/project/realtek_amebaDplus_va0_example/GCC-RELEASE/project_km4/asdk/../toolchain/linux/asdk-10.3.1/linux/newlib/arm-none-eabi/lib/thumb/v8-m.main+fp/fpu/libc.a(lib_a-findfp.o)
_fwalk_reent                                      /home/zjian_zhang/Dplus_Z/project/realtek_amebaDplus_va0_example/GCC-RELEASE/project_km4/asdk/../toolchain/linux/asdk-10.3.1/linux/newlib/arm-none-eabi/lib/thumb/v8-m.main+fp/fpu/libc.a(lib_a-fwalk.o)
                                                  /home/zjian_zhang/Dplus_Z/project/realtek_amebaDplus_va0_example/GCC-RELEASE/project_km4/asdk/../toolchain/linux/asdk-10.3.1/linux/newlib/arm-none-eabi/lib/thumb/v8-m.main+fp/fpu/libc.a(lib_a-findfp.o)
                                                  /home/zjian_zhang/Dplus_Z/project/realtek_amebaDplus_va0_example/GCC-RELEASE/project_km4/asdk/../toolchain/linux/asdk-10.3.1/linux/newlib/arm-none-eabi/lib/thumb/v8-m.main+fp/fpu/libc.a(lib_a-fflush.o)
_getpid                                           /home/zjian_zhang/Dplus_Z/project/realtek_amebaDplus_va0_example/GCC-RELEASE/project_km4/asdk/../toolchain/linux/asdk-10.3.1/linux/newlib/arm-none-eabi/lib/thumb/v8-m.main+fp/fpu/libnosys.a(getpid.o)
                                                  /home/zjian_zhang/Dplus_Z/project/realtek_amebaDplus_va0_example/GCC-RELEASE/project_km4/asdk/../toolchain/linux/asdk-10.3.1/linux/newlib/arm-none-eabi/lib/thumb/v8-m.main+fp/fpu/libc.a(lib_a-signalr.o)
_getpid_r                                         /home/zjian_zhang/Dplus_Z/project/realtek_amebaDplus_va0_example/GCC-RELEASE/project_km4/asdk/../toolchain/linux/asdk-10.3.1/linux/newlib/arm-none-eabi/lib/thumb/v8-m.main+fp/fpu/libc.a(lib_a-signalr.o)
                                                  /home/zjian_zhang/Dplus_Z/project/realtek_amebaDplus_va0_example/GCC-RELEASE/project_km4/asdk/../toolchain/linux/asdk-10.3.1/linux/newlib/arm-none-eabi/lib/thumb/v8-m.main+fp/fpu/libc.a(lib_a-signal.o)
_global_impure_ptr                                /home/zjian_zhang/Dplus_Z/project/realtek_amebaDplus_va0_example/GCC-RELEASE/project_km4/asdk/../toolchain/linux/asdk-10.3.1/linux/newlib/arm-none-eabi/lib/thumb/v8-m.main+fp/fpu/libc.a(lib_a-impure.o)
                                                  /home/zjian_zhang/Dplus_Z/project/realtek_amebaDplus_va0_example/GCC-RELEASE/project_km4/asdk/../toolchain/linux/asdk-10.3.1/linux/newlib/arm-none-eabi/lib/thumb/v8-m.main+fp/fpu/libc.a(lib_a-findfp.o)
                                                  /home/zjian_zhang/Dplus_Z/project/realtek_amebaDplus_va0_example/GCC-RELEASE/project_km4/asdk/../toolchain/linux/asdk-10.3.1/linux/newlib/arm-none-eabi/lib/thumb/v8-m.main+fp/fpu/libc.a(lib_a-fflush.o)
_impure_ptr                                       /home/zjian_zhang/Dplus_Z/project/realtek_amebaDplus_va0_example/GCC-RELEASE/project_km4/asdk/../toolchain/linux/asdk-10.3.1/linux/newlib/arm-none-eabi/lib/thumb/v8-m.main+fp/fpu/libc.a(lib_a-impure.o)
                                                  /home/zjian_zhang/Dplus_Z/project/realtek_amebaDplus_va0_example/GCC-RELEASE/project_km4/asdk/../toolchain/linux/asdk-10.3.1/linux/newlib/arm-none-eabi/lib/thumb/v8-m.main+fp/fpu/libc.a(lib_a-signal.o)
                                                  /home/zjian_zhang/Dplus_Z/project/realtek_amebaDplus_va0_example/GCC-RELEASE/project_km4/asdk/../toolchain/linux/asdk-10.3.1/linux/newlib/arm-none-eabi/lib/thumb/v8-m.main+fp/fpu/libc.a(lib_a-wcrtomb.o)
                                                  /home/zjian_zhang/Dplus_Z/project/realtek_amebaDplus_va0_example/GCC-RELEASE/project_km4/asdk/../toolchain/linux/asdk-10.3.1/linux/newlib/arm-none-eabi/lib/thumb/v8-m.main+fp/fpu/libc.a(lib_a-fputwc.o)
                                                  /home/zjian_zhang/Dplus_Z/project/realtek_amebaDplus_va0_example/GCC-RELEASE/project_km4/asdk/../toolchain/linux/asdk-10.3.1/linux/newlib/arm-none-eabi/lib/thumb/v8-m.main+fp/fpu/libc.a(lib_a-fiprintf.o)
                                                  /home/zjian_zhang/Dplus_Z/project/realtek_amebaDplus_va0_example/GCC-RELEASE/project_km4/asdk/../toolchain/linux/asdk-10.3.1/linux/newlib/arm-none-eabi/lib/thumb/v8-m.main+fp/fpu/libc.a(lib_a-fclose.o)
                                                  /home/zjian_zhang/Dplus_Z/project/realtek_amebaDplus_va0_example/GCC-RELEASE/project_km4/asdk/../toolchain/linux/asdk-10.3.1/linux/newlib/arm-none-eabi/lib/thumb/v8-m.main+fp/fpu/libc.a(lib_a-assert.o)
                                                  /home/zjian_zhang/Dplus_Z/project/realtek_amebaDplus_va0_example/GCC-RELEASE/project_km4/asdk/../toolchain/linux/asdk-10.3.1/linux/newlib/arm-none-eabi/lib/thumb/v8-m.main+fp/fpu/libc.a(lib_a-vfiprintf.o)
                                                  /home/zjian_zhang/Dplus_Z/project/realtek_amebaDplus_va0_example/GCC-RELEASE/project_km4/asdk/../toolchain/linux/asdk-10.3.1/linux/newlib/arm-none-eabi/lib/thumb/v8-m.main+fp/fpu/libc.a(lib_a-ungetc.o)
                                                  /home/zjian_zhang/Dplus_Z/project/realtek_amebaDplus_va0_example/GCC-RELEASE/project_km4/asdk/../toolchain/linux/asdk-10.3.1/linux/newlib/arm-none-eabi/lib/thumb/v8-m.main+fp/fpu/libc.a(lib_a-strtoul.o)
                                                  /home/zjian_zhang/Dplus_Z/project/realtek_amebaDplus_va0_example/GCC-RELEASE/project_km4/asdk/../toolchain/linux/asdk-10.3.1/linux/newlib/arm-none-eabi/lib/thumb/v8-m.main+fp/fpu/libc.a(lib_a-strtoull.o)
                                                  /home/zjian_zhang/Dplus_Z/project/realtek_amebaDplus_va0_example/GCC-RELEASE/project_km4/asdk/../toolchain/linux/asdk-10.3.1/linux/newlib/arm-none-eabi/lib/thumb/v8-m.main+fp/fpu/libc.a(lib_a-strtoll.o)
                                                  /home/zjian_zhang/Dplus_Z/project/realtek_amebaDplus_va0_example/GCC-RELEASE/project_km4/asdk/../toolchain/linux/asdk-10.3.1/linux/newlib/arm-none-eabi/lib/thumb/v8-m.main+fp/fpu/libc.a(lib_a-strtod.o)
                                                  /home/zjian_zhang/Dplus_Z/project/realtek_amebaDplus_va0_example/GCC-RELEASE/project_km4/asdk/../toolchain/linux/asdk-10.3.1/linux/newlib/arm-none-eabi/lib/thumb/v8-m.main+fp/fpu/libc.a(lib_a-reent.o)
                                                  /home/zjian_zhang/Dplus_Z/project/realtek_amebaDplus_va0_example/GCC-RELEASE/project_km4/asdk/../toolchain/linux/asdk-10.3.1/linux/newlib/arm-none-eabi/lib/thumb/v8-m.main+fp/fpu/libc.a(lib_a-realloc.o)
                                                  /home/zjian_zhang/Dplus_Z/project/realtek_amebaDplus_va0_example/GCC-RELEASE/project_km4/asdk/../toolchain/linux/asdk-10.3.1/linux/newlib/arm-none-eabi/lib/thumb/v8-m.main+fp/fpu/libc.a(lib_a-mbrtowc.o)
                                                  /home/zjian_zhang/Dplus_Z/project/realtek_amebaDplus_va0_example/GCC-RELEASE/project_km4/asdk/../toolchain/linux/asdk-10.3.1/linux/newlib/arm-none-eabi/lib/thumb/v8-m.main+fp/fpu/libc.a(lib_a-malloc.o)
                                                  /home/zjian_zhang/Dplus_Z/project/realtek_amebaDplus_va0_example/GCC-RELEASE/project_km4/asdk/../toolchain/linux/asdk-10.3.1/linux/newlib/arm-none-eabi/lib/thumb/v8-m.main+fp/fpu/libc.a(lib_a-locale.o)
                                                  /home/zjian_zhang/Dplus_Z/project/realtek_amebaDplus_va0_example/GCC-RELEASE/project_km4/asdk/../toolchain/linux/asdk-10.3.1/linux/newlib/arm-none-eabi/lib/thumb/v8-m.main+fp/fpu/libc.a(lib_a-free.o)
                                                  /home/zjian_zhang/Dplus_Z/project/realtek_amebaDplus_va0_example/GCC-RELEASE/project_km4/asdk/../toolchain/linux/asdk-10.3.1/linux/newlib/arm-none-eabi/lib/thumb/v8-m.main+fp/fpu/libc.a(lib_a-findfp.o)
                                                  /home/zjian_zhang/Dplus_Z/project/realtek_amebaDplus_va0_example/GCC-RELEASE/project_km4/asdk/../toolchain/linux/asdk-10.3.1/linux/newlib/arm-none-eabi/lib/thumb/v8-m.main+fp/fpu/libc.a(lib_a-fflush.o)
                                                  /home/zjian_zhang/Dplus_Z/project/realtek_amebaDplus_va0_example/GCC-RELEASE/project_km4/asdk/../toolchain/linux/asdk-10.3.1/linux/newlib/arm-none-eabi/lib/thumb/v8-m.main+fp/fpu/libc.a(lib_a-errno.o)
                                                  /home/zjian_zhang/Dplus_Z/project/realtek_amebaDplus_va0_example/GCC-RELEASE/project_km4/asdk/../toolchain/linux/asdk-10.3.1/linux/newlib/arm-none-eabi/lib/thumb/v8-m.main+fp/fpu/libc.a(lib_a-wsetup.o)
                                                  /home/zjian_zhang/Dplus_Z/project/realtek_amebaDplus_va0_example/GCC-RELEASE/project_km4/asdk/../toolchain/linux/asdk-10.3.1/linux/newlib/arm-none-eabi/lib/thumb/v8-m.main+fp/fpu/libc.a(lib_a-wbuf.o)
                                                  /home/zjian_zhang/Dplus_Z/project/realtek_amebaDplus_va0_example/GCC-RELEASE/project_km4/asdk/../toolchain/linux/asdk-10.3.1/linux/newlib/arm-none-eabi/lib/thumb/v8-m.main+fp/fpu/libc.a(lib_a-vsnprintf.o)
                                                  /home/zjian_zhang/Dplus_Z/project/realtek_amebaDplus_va0_example/GCC-RELEASE/project_km4/asdk/../toolchain/linux/asdk-10.3.1/linux/newlib/arm-none-eabi/lib/thumb/v8-m.main+fp/fpu/libc.a(lib_a-vfprintf.o)
                                                  /home/zjian_zhang/Dplus_Z/project/realtek_amebaDplus_va0_example/GCC-RELEASE/project_km4/asdk/../toolchain/linux/asdk-10.3.1/linux/newlib/arm-none-eabi/lib/thumb/v8-m.main+fp/fpu/libc.a(lib_a-strtol.o)
                                                  /home/zjian_zhang/Dplus_Z/project/realtek_amebaDplus_va0_example/GCC-RELEASE/project_km4/asdk/../toolchain/linux/asdk-10.3.1/linux/newlib/arm-none-eabi/lib/thumb/v8-m.main+fp/fpu/libc.a(lib_a-strtok.o)
                                                  /home/zjian_zhang/Dplus_Z/project/realtek_amebaDplus_va0_example/GCC-RELEASE/project_km4/asdk/../toolchain/linux/asdk-10.3.1/linux/newlib/arm-none-eabi/lib/thumb/v8-m.main+fp/fpu/libc.a(lib_a-sscanf.o)
                                                  /home/zjian_zhang/Dplus_Z/project/realtek_amebaDplus_va0_example/GCC-RELEASE/project_km4/asdk/../toolchain/linux/asdk-10.3.1/linux/newlib/arm-none-eabi/lib/thumb/v8-m.main+fp/fpu/libc.a(lib_a-sprintf.o)
                                                  /home/zjian_zhang/Dplus_Z/project/realtek_amebaDplus_va0_example/GCC-RELEASE/project_km4/asdk/../toolchain/linux/asdk-10.3.1/linux/newlib/arm-none-eabi/lib/thumb/v8-m.main+fp/fpu/libc.a(lib_a-snprintf.o)
                                                  /home/zjian_zhang/Dplus_Z/project/realtek_amebaDplus_va0_example/GCC-RELEASE/project_km4/asdk/../toolchain/linux/asdk-10.3.1/linux/newlib/arm-none-eabi/lib/thumb/v8-m.main+fp/fpu/libc.a(lib_a-puts.o)
                                                  /home/zjian_zhang/Dplus_Z/project/realtek_amebaDplus_va0_example/GCC-RELEASE/project_km4/asdk/../toolchain/linux/asdk-10.3.1/linux/newlib/arm-none-eabi/lib/thumb/v8-m.main+fp/fpu/libc.a(lib_a-putc.o)
                                                  /home/zjian_zhang/Dplus_Z/project/realtek_amebaDplus_va0_example/GCC-RELEASE/project_km4/asdk/../toolchain/linux/asdk-10.3.1/linux/newlib/arm-none-eabi/lib/thumb/v8-m.main+fp/fpu/libc.a(lib_a-putchar.o)
                                                  /home/zjian_zhang/Dplus_Z/project/realtek_amebaDplus_va0_example/GCC-RELEASE/project_km4/asdk/../toolchain/linux/asdk-10.3.1/linux/newlib/arm-none-eabi/lib/thumb/v8-m.main+fp/fpu/libc.a(lib_a-printf.o)
_init_signal                                      /home/zjian_zhang/Dplus_Z/project/realtek_amebaDplus_va0_example/GCC-RELEASE/project_km4/asdk/../toolchain/linux/asdk-10.3.1/linux/newlib/arm-none-eabi/lib/thumb/v8-m.main+fp/fpu/libc.a(lib_a-signal.o)
_init_signal_r                                    /home/zjian_zhang/Dplus_Z/project/realtek_amebaDplus_va0_example/GCC-RELEASE/project_km4/asdk/../toolchain/linux/asdk-10.3.1/linux/newlib/arm-none-eabi/lib/thumb/v8-m.main+fp/fpu/libc.a(lib_a-signal.o)
_isatty                                           /home/zjian_zhang/Dplus_Z/project/realtek_amebaDplus_va0_example/GCC-RELEASE/project_km4/asdk/../toolchain/linux/asdk-10.3.1/linux/newlib/arm-none-eabi/lib/thumb/v8-m.main+fp/fpu/libnosys.a(isatty.o)
                                                  /home/zjian_zhang/Dplus_Z/project/realtek_amebaDplus_va0_example/GCC-RELEASE/project_km4/asdk/../toolchain/linux/asdk-10.3.1/linux/newlib/arm-none-eabi/lib/thumb/v8-m.main+fp/fpu/libc.a(lib_a-isattyr.o)
_isatty_r                                         /home/zjian_zhang/Dplus_Z/project/realtek_amebaDplus_va0_example/GCC-RELEASE/project_km4/asdk/../toolchain/linux/asdk-10.3.1/linux/newlib/arm-none-eabi/lib/thumb/v8-m.main+fp/fpu/libc.a(lib_a-isattyr.o)
                                                  /home/zjian_zhang/Dplus_Z/project/realtek_amebaDplus_va0_example/GCC-RELEASE/project_km4/asdk/../toolchain/linux/asdk-10.3.1/linux/newlib/arm-none-eabi/lib/thumb/v8-m.main+fp/fpu/libc.a(lib_a-makebuf.o)
_kill                                             /home/zjian_zhang/Dplus_Z/project/realtek_amebaDplus_va0_example/GCC-RELEASE/project_km4/asdk/../toolchain/linux/asdk-10.3.1/linux/newlib/arm-none-eabi/lib/thumb/v8-m.main+fp/fpu/libnosys.a(kill.o)
                                                  /home/zjian_zhang/Dplus_Z/project/realtek_amebaDplus_va0_example/GCC-RELEASE/project_km4/asdk/../toolchain/linux/asdk-10.3.1/linux/newlib/arm-none-eabi/lib/thumb/v8-m.main+fp/fpu/libc.a(lib_a-signalr.o)
_kill_r                                           /home/zjian_zhang/Dplus_Z/project/realtek_amebaDplus_va0_example/GCC-RELEASE/project_km4/asdk/../toolchain/linux/asdk-10.3.1/linux/newlib/arm-none-eabi/lib/thumb/v8-m.main+fp/fpu/libc.a(lib_a-signalr.o)
                                                  /home/zjian_zhang/Dplus_Z/project/realtek_amebaDplus_va0_example/GCC-RELEASE/project_km4/asdk/../toolchain/linux/asdk-10.3.1/linux/newlib/arm-none-eabi/lib/thumb/v8-m.main+fp/fpu/libc.a(lib_a-signal.o)
_localeconv_r                                     /home/zjian_zhang/Dplus_Z/project/realtek_amebaDplus_va0_example/GCC-RELEASE/project_km4/asdk/../toolchain/linux/asdk-10.3.1/linux/newlib/arm-none-eabi/lib/thumb/v8-m.main+fp/fpu/libc.a(lib_a-localeconv.o)
                                                  /home/zjian_zhang/Dplus_Z/project/realtek_amebaDplus_va0_example/GCC-RELEASE/project_km4/asdk/../toolchain/linux/asdk-10.3.1/linux/newlib/arm-none-eabi/lib/thumb/v8-m.main+fp/fpu/libc.a(lib_a-vfiprintf.o)
                                                  /home/zjian_zhang/Dplus_Z/project/realtek_amebaDplus_va0_example/GCC-RELEASE/project_km4/asdk/../toolchain/linux/asdk-10.3.1/linux/newlib/arm-none-eabi/lib/thumb/v8-m.main+fp/fpu/libc.a(lib_a-svfiprintf.o)
                                                  /home/zjian_zhang/Dplus_Z/project/realtek_amebaDplus_va0_example/GCC-RELEASE/project_km4/asdk/../toolchain/linux/asdk-10.3.1/linux/newlib/arm-none-eabi/lib/thumb/v8-m.main+fp/fpu/libc.a(lib_a-vfprintf.o)
                                                  /home/zjian_zhang/Dplus_Z/project/realtek_amebaDplus_va0_example/GCC-RELEASE/project_km4/asdk/../toolchain/linux/asdk-10.3.1/linux/newlib/arm-none-eabi/lib/thumb/v8-m.main+fp/fpu/libc.a(lib_a-svfscanf.o)
                                                  /home/zjian_zhang/Dplus_Z/project/realtek_amebaDplus_va0_example/GCC-RELEASE/project_km4/asdk/../toolchain/linux/asdk-10.3.1/linux/newlib/arm-none-eabi/lib/thumb/v8-m.main+fp/fpu/libc.a(lib_a-svfprintf.o)
_lseek                                            /home/zjian_zhang/Dplus_Z/project/realtek_amebaDplus_va0_example/GCC-RELEASE/project_km4/asdk/../toolchain/linux/asdk-10.3.1/linux/newlib/arm-none-eabi/lib/thumb/v8-m.main+fp/fpu/libnosys.a(lseek.o)
                                                  /home/zjian_zhang/Dplus_Z/project/realtek_amebaDplus_va0_example/GCC-RELEASE/project_km4/asdk/../toolchain/linux/asdk-10.3.1/linux/newlib/arm-none-eabi/lib/thumb/v8-m.main+fp/fpu/libc.a(lib_a-lseekr.o)
_lseek_r                                          /home/zjian_zhang/Dplus_Z/project/realtek_amebaDplus_va0_example/GCC-RELEASE/project_km4/asdk/../toolchain/linux/asdk-10.3.1/linux/newlib/arm-none-eabi/lib/thumb/v8-m.main+fp/fpu/libc.a(lib_a-lseekr.o)
                                                  /home/zjian_zhang/Dplus_Z/project/realtek_amebaDplus_va0_example/GCC-RELEASE/project_km4/asdk/../toolchain/linux/asdk-10.3.1/linux/newlib/arm-none-eabi/lib/thumb/v8-m.main+fp/fpu/libc.a(lib_a-stdio.o)
_malloc_r                                         /home/zjian_zhang/Dplus_Z/project/realtek_amebaDplus_va0_example/GCC-RELEASE/project_km4/asdk/../toolchain/linux/asdk-10.3.1/linux/newlib/arm-none-eabi/lib/thumb/v8-m.main+fp/fpu/libc.a(lib_a-mallocr.o)
                                                  /home/zjian_zhang/Dplus_Z/project/realtek_amebaDplus_va0_example/GCC-RELEASE/project_km4/asdk/../toolchain/linux/asdk-10.3.1/linux/newlib/arm-none-eabi/lib/thumb/v8-m.main+fp/fpu/libc.a(lib_a-signal.o)
                                                  /home/zjian_zhang/Dplus_Z/project/realtek_amebaDplus_va0_example/GCC-RELEASE/project_km4/asdk/../toolchain/linux/asdk-10.3.1/linux/newlib/arm-none-eabi/lib/thumb/v8-m.main+fp/fpu/libc.a(lib_a-callocr.o)
                                                  /home/zjian_zhang/Dplus_Z/project/realtek_amebaDplus_va0_example/GCC-RELEASE/project_km4/asdk/../toolchain/linux/asdk-10.3.1/linux/newlib/arm-none-eabi/lib/thumb/v8-m.main+fp/fpu/libc.a(lib_a-ungetc.o)
                                                  /home/zjian_zhang/Dplus_Z/project/realtek_amebaDplus_va0_example/GCC-RELEASE/project_km4/asdk/../toolchain/linux/asdk-10.3.1/linux/newlib/arm-none-eabi/lib/thumb/v8-m.main+fp/fpu/libc.a(lib_a-svfiprintf.o)
                                                  /home/zjian_zhang/Dplus_Z/project/realtek_amebaDplus_va0_example/GCC-RELEASE/project_km4/asdk/../toolchain/linux/asdk-10.3.1/linux/newlib/arm-none-eabi/lib/thumb/v8-m.main+fp/fpu/libc.a(lib_a-reallocr.o)
                                                  /home/zjian_zhang/Dplus_Z/project/realtek_amebaDplus_va0_example/GCC-RELEASE/project_km4/asdk/../toolchain/linux/asdk-10.3.1/linux/newlib/arm-none-eabi/lib/thumb/v8-m.main+fp/fpu/libc.a(lib_a-malloc.o)
                                                  /home/zjian_zhang/Dplus_Z/project/realtek_amebaDplus_va0_example/GCC-RELEASE/project_km4/asdk/../toolchain/linux/asdk-10.3.1/linux/newlib/arm-none-eabi/lib/thumb/v8-m.main+fp/fpu/libc.a(lib_a-makebuf.o)
                                                  /home/zjian_zhang/Dplus_Z/project/realtek_amebaDplus_va0_example/GCC-RELEASE/project_km4/asdk/../toolchain/linux/asdk-10.3.1/linux/newlib/arm-none-eabi/lib/thumb/v8-m.main+fp/fpu/libc.a(lib_a-fvwrite.o)
                                                  /home/zjian_zhang/Dplus_Z/project/realtek_amebaDplus_va0_example/GCC-RELEASE/project_km4/asdk/../toolchain/linux/asdk-10.3.1/linux/newlib/arm-none-eabi/lib/thumb/v8-m.main+fp/fpu/libc.a(lib_a-findfp.o)
                                                  /home/zjian_zhang/Dplus_Z/project/realtek_amebaDplus_va0_example/GCC-RELEASE/project_km4/asdk/../toolchain/linux/asdk-10.3.1/linux/newlib/arm-none-eabi/lib/thumb/v8-m.main+fp/fpu/libc.a(lib_a-vfprintf.o)
                                                  /home/zjian_zhang/Dplus_Z/project/realtek_amebaDplus_va0_example/GCC-RELEASE/project_km4/asdk/../toolchain/linux/asdk-10.3.1/linux/newlib/arm-none-eabi/lib/thumb/v8-m.main+fp/fpu/libc.a(lib_a-svfprintf.o)
_malloc_trim_r                                    /home/zjian_zhang/Dplus_Z/project/realtek_amebaDplus_va0_example/GCC-RELEASE/project_km4/asdk/../toolchain/linux/asdk-10.3.1/linux/newlib/arm-none-eabi/lib/thumb/v8-m.main+fp/fpu/libc.a(lib_a-freer.o)
_mbrtowc_r                                        /home/zjian_zhang/Dplus_Z/project/realtek_amebaDplus_va0_example/GCC-RELEASE/project_km4/asdk/../toolchain/linux/asdk-10.3.1/linux/newlib/arm-none-eabi/lib/thumb/v8-m.main+fp/fpu/libc.a(lib_a-mbrtowc.o)
                                                  /home/zjian_zhang/Dplus_Z/project/realtek_amebaDplus_va0_example/GCC-RELEASE/project_km4/asdk/../toolchain/linux/asdk-10.3.1/linux/newlib/arm-none-eabi/lib/thumb/v8-m.main+fp/fpu/libc.a(lib_a-svfiscanf.o)
                                                  /home/zjian_zhang/Dplus_Z/project/realtek_amebaDplus_va0_example/GCC-RELEASE/project_km4/asdk/../toolchain/linux/asdk-10.3.1/linux/newlib/arm-none-eabi/lib/thumb/v8-m.main+fp/fpu/libc.a(lib_a-svfscanf.o)
_mbtowc_r                                         /home/zjian_zhang/Dplus_Z/project/realtek_amebaDplus_va0_example/GCC-RELEASE/project_km4/asdk/../toolchain/linux/asdk-10.3.1/linux/newlib/arm-none-eabi/lib/thumb/v8-m.main+fp/fpu/libc.a(lib_a-mbtowc_r.o)
_mprec_log10                                      /home/zjian_zhang/Dplus_Z/project/realtek_amebaDplus_va0_example/GCC-RELEASE/project_km4/asdk/../toolchain/linux/asdk-10.3.1/linux/newlib/arm-none-eabi/lib/thumb/v8-m.main+fp/fpu/libc.a(lib_a-mprec.o)
_printf_r                                         /home/zjian_zhang/Dplus_Z/project/realtek_amebaDplus_va0_example/GCC-RELEASE/project_km4/asdk/../toolchain/linux/asdk-10.3.1/linux/newlib/arm-none-eabi/lib/thumb/v8-m.main+fp/fpu/libc.a(lib_a-printf.o)
_putc_r                                           /home/zjian_zhang/Dplus_Z/project/realtek_amebaDplus_va0_example/GCC-RELEASE/project_km4/asdk/../toolchain/linux/asdk-10.3.1/linux/newlib/arm-none-eabi/lib/thumb/v8-m.main+fp/fpu/libc.a(lib_a-putc.o)
                                                  /home/zjian_zhang/Dplus_Z/project/realtek_amebaDplus_va0_example/GCC-RELEASE/project_km4/asdk/../toolchain/linux/asdk-10.3.1/linux/newlib/arm-none-eabi/lib/thumb/v8-m.main+fp/fpu/libc.a(lib_a-putchar.o)
_putchar_r                                        /home/zjian_zhang/Dplus_Z/project/realtek_amebaDplus_va0_example/GCC-RELEASE/project_km4/asdk/../toolchain/linux/asdk-10.3.1/linux/newlib/arm-none-eabi/lib/thumb/v8-m.main+fp/fpu/libc.a(lib_a-putchar.o)
_puts_r                                           /home/zjian_zhang/Dplus_Z/project/realtek_amebaDplus_va0_example/GCC-RELEASE/project_km4/asdk/../toolchain/linux/asdk-10.3.1/linux/newlib/arm-none-eabi/lib/thumb/v8-m.main+fp/fpu/libc.a(lib_a-puts.o)
_raise_r                                          /home/zjian_zhang/Dplus_Z/project/realtek_amebaDplus_va0_example/GCC-RELEASE/project_km4/asdk/../toolchain/linux/asdk-10.3.1/linux/newlib/arm-none-eabi/lib/thumb/v8-m.main+fp/fpu/libc.a(lib_a-signal.o)
_read                                             ./build/stdlib/stdlib_link.o
                                                  /home/zjian_zhang/Dplus_Z/project/realtek_amebaDplus_va0_example/GCC-RELEASE/project_km4/asdk/../toolchain/linux/asdk-10.3.1/linux/newlib/arm-none-eabi/lib/thumb/v8-m.main+fp/fpu/libc.a(lib_a-readr.o)
_read_r                                           /home/zjian_zhang/Dplus_Z/project/realtek_amebaDplus_va0_example/GCC-RELEASE/project_km4/asdk/../toolchain/linux/asdk-10.3.1/linux/newlib/arm-none-eabi/lib/thumb/v8-m.main+fp/fpu/libc.a(lib_a-readr.o)
                                                  /home/zjian_zhang/Dplus_Z/project/realtek_amebaDplus_va0_example/GCC-RELEASE/project_km4/asdk/../toolchain/linux/asdk-10.3.1/linux/newlib/arm-none-eabi/lib/thumb/v8-m.main+fp/fpu/libc.a(lib_a-stdio.o)
_realloc_r                                        /home/zjian_zhang/Dplus_Z/project/realtek_amebaDplus_va0_example/GCC-RELEASE/project_km4/asdk/../toolchain/linux/asdk-10.3.1/linux/newlib/arm-none-eabi/lib/thumb/v8-m.main+fp/fpu/libc.a(lib_a-reallocr.o)
                                                  /home/zjian_zhang/Dplus_Z/project/realtek_amebaDplus_va0_example/GCC-RELEASE/project_km4/asdk/../toolchain/linux/asdk-10.3.1/linux/newlib/arm-none-eabi/lib/thumb/v8-m.main+fp/fpu/libc.a(lib_a-ungetc.o)
                                                  /home/zjian_zhang/Dplus_Z/project/realtek_amebaDplus_va0_example/GCC-RELEASE/project_km4/asdk/../toolchain/linux/asdk-10.3.1/linux/newlib/arm-none-eabi/lib/thumb/v8-m.main+fp/fpu/libc.a(lib_a-svfiprintf.o)
                                                  /home/zjian_zhang/Dplus_Z/project/realtek_amebaDplus_va0_example/GCC-RELEASE/project_km4/asdk/../toolchain/linux/asdk-10.3.1/linux/newlib/arm-none-eabi/lib/thumb/v8-m.main+fp/fpu/libc.a(lib_a-realloc.o)
                                                  /home/zjian_zhang/Dplus_Z/project/realtek_amebaDplus_va0_example/GCC-RELEASE/project_km4/asdk/../toolchain/linux/asdk-10.3.1/linux/newlib/arm-none-eabi/lib/thumb/v8-m.main+fp/fpu/libc.a(lib_a-fvwrite.o)
_reclaim_reent                                    /home/zjian_zhang/Dplus_Z/project/realtek_amebaDplus_va0_example/GCC-RELEASE/project_km4/asdk/../toolchain/linux/asdk-10.3.1/linux/newlib/arm-none-eabi/lib/thumb/v8-m.main+fp/fpu/libc.a(lib_a-reent.o)
_sbrk                                             /home/zjian_zhang/Dplus_Z/project/realtek_amebaDplus_va0_example/GCC-RELEASE/project_km4/asdk/../toolchain/linux/asdk-10.3.1/linux/newlib/arm-none-eabi/lib/thumb/v8-m.main+fp/fpu/libnosys.a(sbrk.o)
                                                  /home/zjian_zhang/Dplus_Z/project/realtek_amebaDplus_va0_example/GCC-RELEASE/project_km4/asdk/../toolchain/linux/asdk-10.3.1/linux/newlib/arm-none-eabi/lib/thumb/v8-m.main+fp/fpu/libc.a(lib_a-sbrkr.o)
_sbrk_r                                           /home/zjian_zhang/Dplus_Z/project/realtek_amebaDplus_va0_example/GCC-RELEASE/project_km4/asdk/../toolchain/linux/asdk-10.3.1/linux/newlib/arm-none-eabi/lib/thumb/v8-m.main+fp/fpu/libc.a(lib_a-sbrkr.o)
                                                  /home/zjian_zhang/Dplus_Z/project/realtek_amebaDplus_va0_example/GCC-RELEASE/project_km4/asdk/../toolchain/linux/asdk-10.3.1/linux/newlib/arm-none-eabi/lib/thumb/v8-m.main+fp/fpu/libc.a(lib_a-mallocr.o)
                                                  /home/zjian_zhang/Dplus_Z/project/realtek_amebaDplus_va0_example/GCC-RELEASE/project_km4/asdk/../toolchain/linux/asdk-10.3.1/linux/newlib/arm-none-eabi/lib/thumb/v8-m.main+fp/fpu/libc.a(lib_a-freer.o)
_setlocale_r                                      /home/zjian_zhang/Dplus_Z/project/realtek_amebaDplus_va0_example/GCC-RELEASE/project_km4/asdk/../toolchain/linux/asdk-10.3.1/linux/newlib/arm-none-eabi/lib/thumb/v8-m.main+fp/fpu/libc.a(lib_a-locale.o)
_sfread_r                                         /home/zjian_zhang/Dplus_Z/project/realtek_amebaDplus_va0_example/GCC-RELEASE/project_km4/asdk/../toolchain/linux/asdk-10.3.1/linux/newlib/arm-none-eabi/lib/thumb/v8-m.main+fp/fpu/libc.a(lib_a-svfiscanf.o)
                                                  /home/zjian_zhang/Dplus_Z/project/realtek_amebaDplus_va0_example/GCC-RELEASE/project_km4/asdk/../toolchain/linux/asdk-10.3.1/linux/newlib/arm-none-eabi/lib/thumb/v8-m.main+fp/fpu/libc.a(lib_a-svfscanf.o)
_signal_r                                         /home/zjian_zhang/Dplus_Z/project/realtek_amebaDplus_va0_example/GCC-RELEASE/project_km4/asdk/../toolchain/linux/asdk-10.3.1/linux/newlib/arm-none-eabi/lib/thumb/v8-m.main+fp/fpu/libc.a(lib_a-signal.o)
_snprintf_r                                       /home/zjian_zhang/Dplus_Z/project/realtek_amebaDplus_va0_example/GCC-RELEASE/project_km4/asdk/../toolchain/linux/asdk-10.3.1/linux/newlib/arm-none-eabi/lib/thumb/v8-m.main+fp/fpu/libc.a(lib_a-snprintf.o)
_sprintf_r                                        /home/zjian_zhang/Dplus_Z/project/realtek_amebaDplus_va0_example/GCC-RELEASE/project_km4/asdk/../toolchain/linux/asdk-10.3.1/linux/newlib/arm-none-eabi/lib/thumb/v8-m.main+fp/fpu/libc.a(lib_a-sprintf.o)
_sscanf_r                                         /home/zjian_zhang/Dplus_Z/project/realtek_amebaDplus_va0_example/GCC-RELEASE/project_km4/asdk/../toolchain/linux/asdk-10.3.1/linux/newlib/arm-none-eabi/lib/thumb/v8-m.main+fp/fpu/libc.a(lib_a-sscanf.o)
_strtod_l                                         /home/zjian_zhang/Dplus_Z/project/realtek_amebaDplus_va0_example/GCC-RELEASE/project_km4/asdk/../toolchain/linux/asdk-10.3.1/linux/newlib/arm-none-eabi/lib/thumb/v8-m.main+fp/fpu/libc.a(lib_a-strtod.o)
_strtod_r                                         /home/zjian_zhang/Dplus_Z/project/realtek_amebaDplus_va0_example/GCC-RELEASE/project_km4/asdk/../toolchain/linux/asdk-10.3.1/linux/newlib/arm-none-eabi/lib/thumb/v8-m.main+fp/fpu/libc.a(lib_a-strtod.o)
                                                  /home/zjian_zhang/Dplus_Z/project/realtek_amebaDplus_va0_example/GCC-RELEASE/project_km4/asdk/../toolchain/linux/asdk-10.3.1/linux/newlib/arm-none-eabi/lib/thumb/v8-m.main+fp/fpu/libc.a(lib_a-svfscanf.o)
_strtol_r                                         /home/zjian_zhang/Dplus_Z/project/realtek_amebaDplus_va0_example/GCC-RELEASE/project_km4/asdk/../toolchain/linux/asdk-10.3.1/linux/newlib/arm-none-eabi/lib/thumb/v8-m.main+fp/fpu/libc.a(lib_a-strtol.o)
                                                  /home/zjian_zhang/Dplus_Z/project/realtek_amebaDplus_va0_example/GCC-RELEASE/project_km4/asdk/../toolchain/linux/asdk-10.3.1/linux/newlib/arm-none-eabi/lib/thumb/v8-m.main+fp/fpu/libc.a(lib_a-svfiscanf.o)
                                                  /home/zjian_zhang/Dplus_Z/project/realtek_amebaDplus_va0_example/GCC-RELEASE/project_km4/asdk/../toolchain/linux/asdk-10.3.1/linux/newlib/arm-none-eabi/lib/thumb/v8-m.main+fp/fpu/libc.a(lib_a-svfscanf.o)
                                                  /home/zjian_zhang/Dplus_Z/project/realtek_amebaDplus_va0_example/GCC-RELEASE/project_km4/asdk/../toolchain/linux/asdk-10.3.1/linux/newlib/arm-none-eabi/lib/thumb/v8-m.main+fp/fpu/libc.a(lib_a-atoi.o)
_strtoll_r                                        /home/zjian_zhang/Dplus_Z/project/realtek_amebaDplus_va0_example/GCC-RELEASE/project_km4/asdk/../toolchain/linux/asdk-10.3.1/linux/newlib/arm-none-eabi/lib/thumb/v8-m.main+fp/fpu/libc.a(lib_a-strtoll.o)
                                                  /home/zjian_zhang/Dplus_Z/project/realtek_amebaDplus_va0_example/GCC-RELEASE/project_km4/asdk/../toolchain/linux/asdk-10.3.1/linux/newlib/arm-none-eabi/lib/thumb/v8-m.main+fp/fpu/libc.a(lib_a-svfiscanf.o)
                                                  /home/zjian_zhang/Dplus_Z/project/realtek_amebaDplus_va0_example/GCC-RELEASE/project_km4/asdk/../toolchain/linux/asdk-10.3.1/linux/newlib/arm-none-eabi/lib/thumb/v8-m.main+fp/fpu/libc.a(lib_a-svfscanf.o)
_strtoul_r                                        /home/zjian_zhang/Dplus_Z/project/realtek_amebaDplus_va0_example/GCC-RELEASE/project_km4/asdk/../toolchain/linux/asdk-10.3.1/linux/newlib/arm-none-eabi/lib/thumb/v8-m.main+fp/fpu/libc.a(lib_a-strtoul.o)
                                                  /home/zjian_zhang/Dplus_Z/project/realtek_amebaDplus_va0_example/GCC-RELEASE/project_km4/asdk/../toolchain/linux/asdk-10.3.1/linux/newlib/arm-none-eabi/lib/thumb/v8-m.main+fp/fpu/libc.a(lib_a-svfiscanf.o)
                                                  /home/zjian_zhang/Dplus_Z/project/realtek_amebaDplus_va0_example/GCC-RELEASE/project_km4/asdk/../toolchain/linux/asdk-10.3.1/linux/newlib/arm-none-eabi/lib/thumb/v8-m.main+fp/fpu/libc.a(lib_a-svfscanf.o)
_strtoull_r                                       /home/zjian_zhang/Dplus_Z/project/realtek_amebaDplus_va0_example/GCC-RELEASE/project_km4/asdk/../toolchain/linux/asdk-10.3.1/linux/newlib/arm-none-eabi/lib/thumb/v8-m.main+fp/fpu/libc.a(lib_a-strtoull.o)
                                                  /home/zjian_zhang/Dplus_Z/project/realtek_amebaDplus_va0_example/GCC-RELEASE/project_km4/asdk/../toolchain/linux/asdk-10.3.1/linux/newlib/arm-none-eabi/lib/thumb/v8-m.main+fp/fpu/libc.a(lib_a-svfiscanf.o)
                                                  /home/zjian_zhang/Dplus_Z/project/realtek_amebaDplus_va0_example/GCC-RELEASE/project_km4/asdk/../toolchain/linux/asdk-10.3.1/linux/newlib/arm-none-eabi/lib/thumb/v8-m.main+fp/fpu/libc.a(lib_a-svfscanf.o)
_sungetc_r                                        /home/zjian_zhang/Dplus_Z/project/realtek_amebaDplus_va0_example/GCC-RELEASE/project_km4/asdk/../toolchain/linux/asdk-10.3.1/linux/newlib/arm-none-eabi/lib/thumb/v8-m.main+fp/fpu/libc.a(lib_a-svfiscanf.o)
                                                  /home/zjian_zhang/Dplus_Z/project/realtek_amebaDplus_va0_example/GCC-RELEASE/project_km4/asdk/../toolchain/linux/asdk-10.3.1/linux/newlib/arm-none-eabi/lib/thumb/v8-m.main+fp/fpu/libc.a(lib_a-svfscanf.o)
_svfiprintf_r                                     /home/zjian_zhang/Dplus_Z/project/realtek_amebaDplus_va0_example/GCC-RELEASE/project_km4/asdk/../toolchain/linux/asdk-10.3.1/linux/newlib/arm-none-eabi/lib/thumb/v8-m.main+fp/fpu/libc.a(lib_a-svfiprintf.o)
_svfprintf_r                                      /home/zjian_zhang/Dplus_Z/project/realtek_amebaDplus_va0_example/GCC-RELEASE/project_km4/asdk/../toolchain/linux/asdk-10.3.1/linux/newlib/arm-none-eabi/lib/thumb/v8-m.main+fp/fpu/libc.a(lib_a-svfprintf.o)
                                                  /home/zjian_zhang/Dplus_Z/project/realtek_amebaDplus_va0_example/GCC-RELEASE/project_km4/asdk/../toolchain/linux/asdk-10.3.1/linux/newlib/arm-none-eabi/lib/thumb/v8-m.main+fp/fpu/libc.a(lib_a-vsnprintf.o)
                                                  /home/zjian_zhang/Dplus_Z/project/realtek_amebaDplus_va0_example/GCC-RELEASE/project_km4/asdk/../toolchain/linux/asdk-10.3.1/linux/newlib/arm-none-eabi/lib/thumb/v8-m.main+fp/fpu/libc.a(lib_a-sprintf.o)
                                                  /home/zjian_zhang/Dplus_Z/project/realtek_amebaDplus_va0_example/GCC-RELEASE/project_km4/asdk/../toolchain/linux/asdk-10.3.1/linux/newlib/arm-none-eabi/lib/thumb/v8-m.main+fp/fpu/libc.a(lib_a-snprintf.o)
_ungetc_r                                         /home/zjian_zhang/Dplus_Z/project/realtek_amebaDplus_va0_example/GCC-RELEASE/project_km4/asdk/../toolchain/linux/asdk-10.3.1/linux/newlib/arm-none-eabi/lib/thumb/v8-m.main+fp/fpu/libc.a(lib_a-ungetc.o)
_vfiprintf_r                                      /home/zjian_zhang/Dplus_Z/project/realtek_amebaDplus_va0_example/GCC-RELEASE/project_km4/asdk/../toolchain/linux/asdk-10.3.1/linux/newlib/arm-none-eabi/lib/thumb/v8-m.main+fp/fpu/libc.a(lib_a-vfiprintf.o)
                                                  /home/zjian_zhang/Dplus_Z/project/realtek_amebaDplus_va0_example/GCC-RELEASE/project_km4/asdk/../toolchain/linux/asdk-10.3.1/linux/newlib/arm-none-eabi/lib/thumb/v8-m.main+fp/fpu/libc.a(lib_a-fiprintf.o)
_vfprintf_r                                       /home/zjian_zhang/Dplus_Z/project/realtek_amebaDplus_va0_example/GCC-RELEASE/project_km4/asdk/../toolchain/linux/asdk-10.3.1/linux/newlib/arm-none-eabi/lib/thumb/v8-m.main+fp/fpu/libc.a(lib_a-vfprintf.o)
                                                  /home/zjian_zhang/Dplus_Z/project/realtek_amebaDplus_va0_example/GCC-RELEASE/project_km4/asdk/../toolchain/linux/asdk-10.3.1/linux/newlib/arm-none-eabi/lib/thumb/v8-m.main+fp/fpu/libc.a(lib_a-printf.o)
_vsnprintf_r                                      /home/zjian_zhang/Dplus_Z/project/realtek_amebaDplus_va0_example/GCC-RELEASE/project_km4/asdk/../toolchain/linux/asdk-10.3.1/linux/newlib/arm-none-eabi/lib/thumb/v8-m.main+fp/fpu/libc.a(lib_a-vsnprintf.o)
_wcrtomb_r                                        /home/zjian_zhang/Dplus_Z/project/realtek_amebaDplus_va0_example/GCC-RELEASE/project_km4/asdk/../toolchain/linux/asdk-10.3.1/linux/newlib/arm-none-eabi/lib/thumb/v8-m.main+fp/fpu/libc.a(lib_a-wcrtomb.o)
                                                  /home/zjian_zhang/Dplus_Z/project/realtek_amebaDplus_va0_example/GCC-RELEASE/project_km4/asdk/../toolchain/linux/asdk-10.3.1/linux/newlib/arm-none-eabi/lib/thumb/v8-m.main+fp/fpu/libc.a(lib_a-fputwc.o)
_wctomb_r                                         /home/zjian_zhang/Dplus_Z/project/realtek_amebaDplus_va0_example/GCC-RELEASE/project_km4/asdk/../toolchain/linux/asdk-10.3.1/linux/newlib/arm-none-eabi/lib/thumb/v8-m.main+fp/fpu/libc.a(lib_a-wctomb_r.o)
_write                                            ./build/stdlib/stdlib_link.o
                                                  /home/zjian_zhang/Dplus_Z/project/realtek_amebaDplus_va0_example/GCC-RELEASE/project_km4/asdk/../toolchain/linux/asdk-10.3.1/linux/newlib/arm-none-eabi/lib/thumb/v8-m.main+fp/fpu/libc.a(lib_a-writer.o)
_write_r                                          /home/zjian_zhang/Dplus_Z/project/realtek_amebaDplus_va0_example/GCC-RELEASE/project_km4/asdk/../toolchain/linux/asdk-10.3.1/linux/newlib/arm-none-eabi/lib/thumb/v8-m.main+fp/fpu/libc.a(lib_a-writer.o)
                                                  /home/zjian_zhang/Dplus_Z/project/realtek_amebaDplus_va0_example/GCC-RELEASE/project_km4/asdk/../toolchain/linux/asdk-10.3.1/linux/newlib/arm-none-eabi/lib/thumb/v8-m.main+fp/fpu/libc.a(lib_a-stdio.o)
abort                                             /home/zjian_zhang/Dplus_Z/project/realtek_amebaDplus_va0_example/GCC-RELEASE/project_km4/asdk/../toolchain/linux/asdk-10.3.1/linux/newlib/arm-none-eabi/lib/thumb/v8-m.main+fp/fpu/libc.a(lib_a-abort.o)
                                                  /home/zjian_zhang/Dplus_Z/project/realtek_amebaDplus_va0_example/GCC-RELEASE/project_km4/asdk/../toolchain/linux/asdk-10.3.1/linux/newlib/arm-none-eabi/lib/thumb/v8-m.main+fp/fpu/libc.a(lib_a-assert.o)
atoi                                              /home/zjian_zhang/Dplus_Z/project/realtek_amebaDplus_va0_example/GCC-RELEASE/project_km4/asdk/../toolchain/linux/asdk-10.3.1/linux/newlib/arm-none-eabi/lib/thumb/v8-m.main+fp/fpu/libc.a(lib_a-atoi.o)
                                                  ./build/stdlib/stdlib_link.o
cleanup_glue                                      /home/zjian_zhang/Dplus_Z/project/realtek_amebaDplus_va0_example/GCC-RELEASE/project_km4/asdk/../toolchain/linux/asdk-10.3.1/linux/newlib/arm-none-eabi/lib/thumb/v8-m.main+fp/fpu/libc.a(lib_a-reent.o)
end                                               /home/zjian_zhang/Dplus_Z/project/realtek_amebaDplus_va0_example/GCC-RELEASE/project_km4/asdk/../toolchain/linux/asdk-10.3.1/linux/newlib/arm-none-eabi/lib/thumb/v8-m.main+fp/fpu/libnosys.a(sbrk.o)
errno                                             /home/zjian_zhang/Dplus_Z/project/realtek_amebaDplus_va0_example/GCC-RELEASE/project_km4/asdk/../toolchain/linux/asdk-10.3.1/linux/newlib/arm-none-eabi/lib/thumb/v8-m.main+fp/fpu/libc.a(lib_a-reent.o)
                                                  /home/zjian_zhang/Dplus_Z/project/realtek_amebaDplus_va0_example/GCC-RELEASE/project_km4/asdk/../toolchain/linux/asdk-10.3.1/linux/newlib/arm-none-eabi/lib/thumb/v8-m.main+fp/fpu/libnosys.a(lseek.o)
                                                  /home/zjian_zhang/Dplus_Z/project/realtek_amebaDplus_va0_example/GCC-RELEASE/project_km4/asdk/../toolchain/linux/asdk-10.3.1/linux/newlib/arm-none-eabi/lib/thumb/v8-m.main+fp/fpu/libnosys.a(kill.o)
                                                  /home/zjian_zhang/Dplus_Z/project/realtek_amebaDplus_va0_example/GCC-RELEASE/project_km4/asdk/../toolchain/linux/asdk-10.3.1/linux/newlib/arm-none-eabi/lib/thumb/v8-m.main+fp/fpu/libnosys.a(isatty.o)
                                                  /home/zjian_zhang/Dplus_Z/project/realtek_amebaDplus_va0_example/GCC-RELEASE/project_km4/asdk/../toolchain/linux/asdk-10.3.1/linux/newlib/arm-none-eabi/lib/thumb/v8-m.main+fp/fpu/libnosys.a(getpid.o)
                                                  /home/zjian_zhang/Dplus_Z/project/realtek_amebaDplus_va0_example/GCC-RELEASE/project_km4/asdk/../toolchain/linux/asdk-10.3.1/linux/newlib/arm-none-eabi/lib/thumb/v8-m.main+fp/fpu/libnosys.a(fstat.o)
                                                  /home/zjian_zhang/Dplus_Z/project/realtek_amebaDplus_va0_example/GCC-RELEASE/project_km4/asdk/../toolchain/linux/asdk-10.3.1/linux/newlib/arm-none-eabi/lib/thumb/v8-m.main+fp/fpu/libnosys.a(close.o)
                                                  /home/zjian_zhang/Dplus_Z/project/realtek_amebaDplus_va0_example/GCC-RELEASE/project_km4/asdk/../toolchain/linux/asdk-10.3.1/linux/newlib/arm-none-eabi/lib/thumb/v8-m.main+fp/fpu/libc.a(lib_a-signalr.o)
                                                  /home/zjian_zhang/Dplus_Z/project/realtek_amebaDplus_va0_example/GCC-RELEASE/project_km4/asdk/../toolchain/linux/asdk-10.3.1/linux/newlib/arm-none-eabi/lib/thumb/v8-m.main+fp/fpu/libc.a(lib_a-isattyr.o)
                                                  /home/zjian_zhang/Dplus_Z/project/realtek_amebaDplus_va0_example/GCC-RELEASE/project_km4/asdk/../toolchain/linux/asdk-10.3.1/linux/newlib/arm-none-eabi/lib/thumb/v8-m.main+fp/fpu/libc.a(lib_a-fstatr.o)
                                                  /home/zjian_zhang/Dplus_Z/project/realtek_amebaDplus_va0_example/GCC-RELEASE/project_km4/asdk/../toolchain/linux/asdk-10.3.1/linux/newlib/arm-none-eabi/lib/thumb/v8-m.main+fp/fpu/libc.a(lib_a-sbrkr.o)
                                                  /home/zjian_zhang/Dplus_Z/project/realtek_amebaDplus_va0_example/GCC-RELEASE/project_km4/asdk/../toolchain/linux/asdk-10.3.1/linux/newlib/arm-none-eabi/lib/thumb/v8-m.main+fp/fpu/libc.a(lib_a-readr.o)
                                                  /home/zjian_zhang/Dplus_Z/project/realtek_amebaDplus_va0_example/GCC-RELEASE/project_km4/asdk/../toolchain/linux/asdk-10.3.1/linux/newlib/arm-none-eabi/lib/thumb/v8-m.main+fp/fpu/libc.a(lib_a-lseekr.o)
                                                  /home/zjian_zhang/Dplus_Z/project/realtek_amebaDplus_va0_example/GCC-RELEASE/project_km4/asdk/../toolchain/linux/asdk-10.3.1/linux/newlib/arm-none-eabi/lib/thumb/v8-m.main+fp/fpu/libc.a(lib_a-closer.o)
                                                  /home/zjian_zhang/Dplus_Z/project/realtek_amebaDplus_va0_example/GCC-RELEASE/project_km4/asdk/../toolchain/linux/asdk-10.3.1/linux/newlib/arm-none-eabi/lib/thumb/v8-m.main+fp/fpu/libc.a(lib_a-writer.o)
fclose                                            /home/zjian_zhang/Dplus_Z/project/realtek_amebaDplus_va0_example/GCC-RELEASE/project_km4/asdk/../toolchain/linux/asdk-10.3.1/linux/newlib/arm-none-eabi/lib/thumb/v8-m.main+fp/fpu/libc.a(lib_a-fclose.o)
fflush                                            /home/zjian_zhang/Dplus_Z/project/realtek_amebaDplus_va0_example/GCC-RELEASE/project_km4/asdk/../toolchain/linux/asdk-10.3.1/linux/newlib/arm-none-eabi/lib/thumb/v8-m.main+fp/fpu/libc.a(lib_a-fflush.o)
fiprintf                                          /home/zjian_zhang/Dplus_Z/project/realtek_amebaDplus_va0_example/GCC-RELEASE/project_km4/asdk/../toolchain/linux/asdk-10.3.1/linux/newlib/arm-none-eabi/lib/thumb/v8-m.main+fp/fpu/libc.a(lib_a-fiprintf.o)
                                                  /home/zjian_zhang/Dplus_Z/project/realtek_amebaDplus_va0_example/GCC-RELEASE/project_km4/asdk/../toolchain/linux/asdk-10.3.1/linux/newlib/arm-none-eabi/lib/thumb/v8-m.main+fp/fpu/libc.a(lib_a-assert.o)
fputwc                                            /home/zjian_zhang/Dplus_Z/project/realtek_amebaDplus_va0_example/GCC-RELEASE/project_km4/asdk/../toolchain/linux/asdk-10.3.1/linux/newlib/arm-none-eabi/lib/thumb/v8-m.main+fp/fpu/libc.a(lib_a-fputwc.o)
free                                              /home/zjian_zhang/Dplus_Z/project/realtek_amebaDplus_va0_example/GCC-RELEASE/project_km4/asdk/../toolchain/linux/asdk-10.3.1/linux/newlib/arm-none-eabi/lib/thumb/v8-m.main+fp/fpu/libc.a(lib_a-free.o)
                                                  /home/zjian_zhang/Dplus_Z/project/realtek_amebaDplus_va0_example/GCC-RELEASE/project_km4/asdk/../toolchain/linux/asdk-10.3.1/linux/newlib/arm-none-eabi/lib/thumb/v8-m.main+fp/fpu/libc.a(lib_a-svfiscanf.o)
                                                  /home/zjian_zhang/Dplus_Z/project/realtek_amebaDplus_va0_example/GCC-RELEASE/project_km4/asdk/../toolchain/linux/asdk-10.3.1/linux/newlib/arm-none-eabi/lib/thumb/v8-m.main+fp/fpu/libc.a(lib_a-svfscanf.o)
frexp                                             /home/zjian_zhang/Dplus_Z/project/realtek_amebaDplus_va0_example/GCC-RELEASE/project_km4/asdk/../toolchain/linux/asdk-10.3.1/linux/newlib/arm-none-eabi/lib/thumb/v8-m.main+fp/fpu/libc.a(lib_a-s_frexp.o)
                                                  /home/zjian_zhang/Dplus_Z/project/realtek_amebaDplus_va0_example/GCC-RELEASE/project_km4/asdk/../toolchain/linux/asdk-10.3.1/linux/newlib/arm-none-eabi/lib/thumb/v8-m.main+fp/fpu/libc.a(lib_a-vfprintf.o)
                                                  /home/zjian_zhang/Dplus_Z/project/realtek_amebaDplus_va0_example/GCC-RELEASE/project_km4/asdk/../toolchain/linux/asdk-10.3.1/linux/newlib/arm-none-eabi/lib/thumb/v8-m.main+fp/fpu/libc.a(lib_a-svfprintf.o)
iswspace                                          /home/zjian_zhang/Dplus_Z/project/realtek_amebaDplus_va0_example/GCC-RELEASE/project_km4/asdk/../toolchain/linux/asdk-10.3.1/linux/newlib/arm-none-eabi/lib/thumb/v8-m.main+fp/fpu/libc.a(lib_a-iswspace.o)
                                                  /home/zjian_zhang/Dplus_Z/project/realtek_amebaDplus_va0_example/GCC-RELEASE/project_km4/asdk/../toolchain/linux/asdk-10.3.1/linux/newlib/arm-none-eabi/lib/thumb/v8-m.main+fp/fpu/libc.a(lib_a-svfiscanf.o)
                                                  /home/zjian_zhang/Dplus_Z/project/realtek_amebaDplus_va0_example/GCC-RELEASE/project_km4/asdk/../toolchain/linux/asdk-10.3.1/linux/newlib/arm-none-eabi/lib/thumb/v8-m.main+fp/fpu/libc.a(lib_a-svfscanf.o)
iswspace_l                                        /home/zjian_zhang/Dplus_Z/project/realtek_amebaDplus_va0_example/GCC-RELEASE/project_km4/asdk/../toolchain/linux/asdk-10.3.1/linux/newlib/arm-none-eabi/lib/thumb/v8-m.main+fp/fpu/libc.a(lib_a-iswspace_l.o)
                                                  /home/zjian_zhang/Dplus_Z/project/realtek_amebaDplus_va0_example/GCC-RELEASE/project_km4/asdk/../toolchain/linux/asdk-10.3.1/linux/newlib/arm-none-eabi/lib/thumb/v8-m.main+fp/fpu/libc.a(lib_a-iswspace.o)
localeconv                                        /home/zjian_zhang/Dplus_Z/project/realtek_amebaDplus_va0_example/GCC-RELEASE/project_km4/asdk/../toolchain/linux/asdk-10.3.1/linux/newlib/arm-none-eabi/lib/thumb/v8-m.main+fp/fpu/libc.a(lib_a-localeconv.o)
malloc                                            /home/zjian_zhang/Dplus_Z/project/realtek_amebaDplus_va0_example/GCC-RELEASE/project_km4/asdk/../toolchain/linux/asdk-10.3.1/linux/newlib/arm-none-eabi/lib/thumb/v8-m.main+fp/fpu/libc.a(lib_a-malloc.o)
                                                  /home/zjian_zhang/Dplus_Z/project/realtek_amebaDplus_va0_example/GCC-RELEASE/project_km4/asdk/../toolchain/linux/asdk-10.3.1/linux/newlib/arm-none-eabi/lib/thumb/v8-m.main+fp/fpu/libc.a(lib_a-svfiscanf.o)
                                                  /home/zjian_zhang/Dplus_Z/project/realtek_amebaDplus_va0_example/GCC-RELEASE/project_km4/asdk/../toolchain/linux/asdk-10.3.1/linux/newlib/arm-none-eabi/lib/thumb/v8-m.main+fp/fpu/libc.a(lib_a-svfscanf.o)
mbrtowc                                           /home/zjian_zhang/Dplus_Z/project/realtek_amebaDplus_va0_example/GCC-RELEASE/project_km4/asdk/../toolchain/linux/asdk-10.3.1/linux/newlib/arm-none-eabi/lib/thumb/v8-m.main+fp/fpu/libc.a(lib_a-mbrtowc.o)
memchr                                            /home/zjian_zhang/Dplus_Z/project/realtek_amebaDplus_va0_example/GCC-RELEASE/project_km4/asdk/../toolchain/linux/asdk-10.3.1/linux/newlib/arm-none-eabi/lib/thumb/v8-m.main+fp/fpu/libc.a(lib_a-memchr-stub.o)
                                                  /home/zjian_zhang/Dplus_Z/project/realtek_amebaDplus_va0_example/GCC-RELEASE/project_km4/asdk/../toolchain/linux/asdk-10.3.1/linux/newlib/arm-none-eabi/lib/thumb/v8-m.main+fp/fpu/libc.a(lib_a-vfiprintf.o)
                                                  /home/zjian_zhang/Dplus_Z/project/realtek_amebaDplus_va0_example/GCC-RELEASE/project_km4/asdk/../toolchain/linux/asdk-10.3.1/linux/newlib/arm-none-eabi/lib/thumb/v8-m.main+fp/fpu/libc.a(lib_a-svfiprintf.o)
                                                  /home/zjian_zhang/Dplus_Z/project/realtek_amebaDplus_va0_example/GCC-RELEASE/project_km4/asdk/../toolchain/linux/asdk-10.3.1/linux/newlib/arm-none-eabi/lib/thumb/v8-m.main+fp/fpu/libc.a(lib_a-fvwrite.o)
                                                  /home/zjian_zhang/Dplus_Z/project/realtek_amebaDplus_va0_example/GCC-RELEASE/project_km4/asdk/../toolchain/linux/asdk-10.3.1/linux/newlib/arm-none-eabi/lib/thumb/v8-m.main+fp/fpu/libc.a(lib_a-vfprintf.o)
                                                  /home/zjian_zhang/Dplus_Z/project/realtek_amebaDplus_va0_example/GCC-RELEASE/project_km4/asdk/../toolchain/linux/asdk-10.3.1/linux/newlib/arm-none-eabi/lib/thumb/v8-m.main+fp/fpu/libc.a(lib_a-svfprintf.o)
memcmp                                            /home/zjian_zhang/Dplus_Z/project/realtek_amebaDplus_va0_example/GCC-RELEASE/project_km4/asdk/../toolchain/linux/asdk-10.3.1/linux/newlib/arm-none-eabi/lib/thumb/v8-m.main+fp/fpu/libc.a(lib_a-memcmp.o)
                                                  /home/zjian_zhang/Dplus_Z/project/realtek_amebaDplus_va0_example/GCC-RELEASE/project_km4/asdk/../toolchain/linux/asdk-10.3.1/linux/newlib/arm-none-eabi/lib/thumb/v8-m.main+fp/fpu/libc.a(lib_a-strstr.o)
memcpy                                            /home/zjian_zhang/Dplus_Z/project/realtek_amebaDplus_va0_example/GCC-RELEASE/project_km4/asdk/../toolchain/linux/asdk-10.3.1/linux/newlib/arm-none-eabi/lib/thumb/v8-m.main+fp/fpu/libc.a(lib_a-memcpy.o)
                                                  /home/zjian_zhang/Dplus_Z/project/realtek_amebaDplus_va0_example/GCC-RELEASE/project_km4/asdk/../toolchain/linux/asdk-10.3.1/linux/newlib/arm-none-eabi/lib/thumb/v8-m.main+fp/fpu/libc.a(lib_a-gdtoa-gethex.o)
                                                  /home/zjian_zhang/Dplus_Z/project/realtek_amebaDplus_va0_example/GCC-RELEASE/project_km4/asdk/../toolchain/linux/asdk-10.3.1/linux/newlib/arm-none-eabi/lib/thumb/v8-m.main+fp/fpu/libc.a(lib_a-ungetc.o)
                                                  /home/zjian_zhang/Dplus_Z/project/realtek_amebaDplus_va0_example/GCC-RELEASE/project_km4/asdk/../toolchain/linux/asdk-10.3.1/linux/newlib/arm-none-eabi/lib/thumb/v8-m.main+fp/fpu/libc.a(lib_a-svfiscanf.o)
                                                  /home/zjian_zhang/Dplus_Z/project/realtek_amebaDplus_va0_example/GCC-RELEASE/project_km4/asdk/../toolchain/linux/asdk-10.3.1/linux/newlib/arm-none-eabi/lib/thumb/v8-m.main+fp/fpu/libc.a(lib_a-svfiprintf.o)
                                                  /home/zjian_zhang/Dplus_Z/project/realtek_amebaDplus_va0_example/GCC-RELEASE/project_km4/asdk/../toolchain/linux/asdk-10.3.1/linux/newlib/arm-none-eabi/lib/thumb/v8-m.main+fp/fpu/libc.a(lib_a-strtod.o)
                                                  /home/zjian_zhang/Dplus_Z/project/realtek_amebaDplus_va0_example/GCC-RELEASE/project_km4/asdk/../toolchain/linux/asdk-10.3.1/linux/newlib/arm-none-eabi/lib/thumb/v8-m.main+fp/fpu/libc.a(lib_a-mprec.o)
                                                  /home/zjian_zhang/Dplus_Z/project/realtek_amebaDplus_va0_example/GCC-RELEASE/project_km4/asdk/../toolchain/linux/asdk-10.3.1/linux/newlib/arm-none-eabi/lib/thumb/v8-m.main+fp/fpu/libc.a(lib_a-fvwrite.o)
                                                  /home/zjian_zhang/Dplus_Z/project/realtek_amebaDplus_va0_example/GCC-RELEASE/project_km4/asdk/../toolchain/linux/asdk-10.3.1/linux/newlib/arm-none-eabi/lib/thumb/v8-m.main+fp/fpu/libc.a(lib_a-dtoa.o)
memmove                                           /home/zjian_zhang/Dplus_Z/project/realtek_amebaDplus_va0_example/GCC-RELEASE/project_km4/asdk/../toolchain/linux/asdk-10.3.1/linux/newlib/arm-none-eabi/lib/thumb/v8-m.main+fp/fpu/libc.a(lib_a-memmove.o)
                                                  /home/zjian_zhang/Dplus_Z/project/realtek_amebaDplus_va0_example/GCC-RELEASE/project_km4/asdk/../toolchain/linux/asdk-10.3.1/linux/newlib/arm-none-eabi/lib/thumb/v8-m.main+fp/fpu/libc.a(lib_a-svfiprintf.o)
                                                  /home/zjian_zhang/Dplus_Z/project/realtek_amebaDplus_va0_example/GCC-RELEASE/project_km4/asdk/../toolchain/linux/asdk-10.3.1/linux/newlib/arm-none-eabi/lib/thumb/v8-m.main+fp/fpu/libc.a(lib_a-reallocr.o)
                                                  /home/zjian_zhang/Dplus_Z/project/realtek_amebaDplus_va0_example/GCC-RELEASE/project_km4/asdk/../toolchain/linux/asdk-10.3.1/linux/newlib/arm-none-eabi/lib/thumb/v8-m.main+fp/fpu/libc.a(lib_a-fvwrite.o)
memset                                            /home/zjian_zhang/Dplus_Z/project/realtek_amebaDplus_va0_example/GCC-RELEASE/project_km4/asdk/../toolchain/linux/asdk-10.3.1/linux/newlib/arm-none-eabi/lib/thumb/v8-m.main+fp/fpu/libc.a(lib_a-memset-stub.o)
                                                  /home/zjian_zhang/Dplus_Z/project/realtek_amebaDplus_va0_example/GCC-RELEASE/project_km4/asdk/../toolchain/linux/asdk-10.3.1/linux/newlib/arm-none-eabi/lib/thumb/v8-m.main+fp/fpu/libc.a(lib_a-callocr.o)
                                                  /home/zjian_zhang/Dplus_Z/project/realtek_amebaDplus_va0_example/GCC-RELEASE/project_km4/asdk/../toolchain/linux/asdk-10.3.1/linux/newlib/arm-none-eabi/lib/thumb/v8-m.main+fp/fpu/libc.a(lib_a-svfiscanf.o)
                                                  /home/zjian_zhang/Dplus_Z/project/realtek_amebaDplus_va0_example/GCC-RELEASE/project_km4/asdk/../toolchain/linux/asdk-10.3.1/linux/newlib/arm-none-eabi/lib/thumb/v8-m.main+fp/fpu/libc.a(lib_a-findfp.o)
                                                  /home/zjian_zhang/Dplus_Z/project/realtek_amebaDplus_va0_example/GCC-RELEASE/project_km4/asdk/../toolchain/linux/asdk-10.3.1/linux/newlib/arm-none-eabi/lib/thumb/v8-m.main+fp/fpu/libc.a(lib_a-svfscanf.o)
                                                  /home/zjian_zhang/Dplus_Z/project/realtek_amebaDplus_va0_example/GCC-RELEASE/project_km4/asdk/../toolchain/linux/asdk-10.3.1/linux/newlib/arm-none-eabi/lib/thumb/v8-m.main+fp/fpu/libc.a(lib_a-strstr.o)
nan                                               /home/zjian_zhang/Dplus_Z/project/realtek_amebaDplus_va0_example/GCC-RELEASE/project_km4/asdk/../toolchain/linux/asdk-10.3.1/linux/newlib/arm-none-eabi/lib/thumb/v8-m.main+fp/fpu/libc.a(lib_a-s_nan.o)
                                                  /home/zjian_zhang/Dplus_Z/project/realtek_amebaDplus_va0_example/GCC-RELEASE/project_km4/asdk/../toolchain/linux/asdk-10.3.1/linux/newlib/arm-none-eabi/lib/thumb/v8-m.main+fp/fpu/libc.a(lib_a-strtod.o)
nanf                                              /home/zjian_zhang/Dplus_Z/project/realtek_amebaDplus_va0_example/GCC-RELEASE/project_km4/asdk/../toolchain/linux/asdk-10.3.1/linux/newlib/arm-none-eabi/lib/thumb/v8-m.main+fp/fpu/libc.a(lib_a-sf_nan.o)
                                                  /home/zjian_zhang/Dplus_Z/project/realtek_amebaDplus_va0_example/GCC-RELEASE/project_km4/asdk/../toolchain/linux/asdk-10.3.1/linux/newlib/arm-none-eabi/lib/thumb/v8-m.main+fp/fpu/libc.a(lib_a-strtod.o)
                                                  /home/zjian_zhang/Dplus_Z/project/realtek_amebaDplus_va0_example/GCC-RELEASE/project_km4/asdk/../toolchain/linux/asdk-10.3.1/linux/newlib/arm-none-eabi/lib/thumb/v8-m.main+fp/fpu/libc.a(lib_a-svfscanf.o)
printf                                            /home/zjian_zhang/Dplus_Z/project/realtek_amebaDplus_va0_example/GCC-RELEASE/project_km4/asdk/../toolchain/linux/asdk-10.3.1/linux/newlib/arm-none-eabi/lib/thumb/v8-m.main+fp/fpu/libc.a(lib_a-printf.o)
                                                  ./build/stdlib/stdlib_link.o
putc                                              /home/zjian_zhang/Dplus_Z/project/realtek_amebaDplus_va0_example/GCC-RELEASE/project_km4/asdk/../toolchain/linux/asdk-10.3.1/linux/newlib/arm-none-eabi/lib/thumb/v8-m.main+fp/fpu/libc.a(lib_a-putc.o)
putchar                                           /home/zjian_zhang/Dplus_Z/project/realtek_amebaDplus_va0_example/GCC-RELEASE/project_km4/asdk/../toolchain/linux/asdk-10.3.1/linux/newlib/arm-none-eabi/lib/thumb/v8-m.main+fp/fpu/libc.a(lib_a-putchar.o)
                                                  ./build/stdlib/stdlib_link.o
puts                                              /home/zjian_zhang/Dplus_Z/project/realtek_amebaDplus_va0_example/GCC-RELEASE/project_km4/asdk/../toolchain/linux/asdk-10.3.1/linux/newlib/arm-none-eabi/lib/thumb/v8-m.main+fp/fpu/libc.a(lib_a-puts.o)
                                                  ./build/stdlib/stdlib_link.o
raise                                             /home/zjian_zhang/Dplus_Z/project/realtek_amebaDplus_va0_example/GCC-RELEASE/project_km4/asdk/../toolchain/linux/asdk-10.3.1/linux/newlib/arm-none-eabi/lib/thumb/v8-m.main+fp/fpu/libc.a(lib_a-signal.o)
                                                  /home/zjian_zhang/Dplus_Z/project/realtek_amebaDplus_va0_example/GCC-RELEASE/project_km4/asdk/../toolchain/linux/asdk-10.3.1/linux/newlib/arm-none-eabi/lib/thumb/v8-m.main+fp/fpu/libc.a(lib_a-abort.o)
realloc                                           /home/zjian_zhang/Dplus_Z/project/realtek_amebaDplus_va0_example/GCC-RELEASE/project_km4/asdk/../toolchain/linux/asdk-10.3.1/linux/newlib/arm-none-eabi/lib/thumb/v8-m.main+fp/fpu/libc.a(lib_a-realloc.o)
                                                  /home/zjian_zhang/Dplus_Z/project/realtek_amebaDplus_va0_example/GCC-RELEASE/project_km4/asdk/../toolchain/linux/asdk-10.3.1/linux/newlib/arm-none-eabi/lib/thumb/v8-m.main+fp/fpu/libc.a(lib_a-svfiscanf.o)
                                                  /home/zjian_zhang/Dplus_Z/project/realtek_amebaDplus_va0_example/GCC-RELEASE/project_km4/asdk/../toolchain/linux/asdk-10.3.1/linux/newlib/arm-none-eabi/lib/thumb/v8-m.main+fp/fpu/libc.a(lib_a-svfscanf.o)
rom_customer_log                                  ./build/stdlib/stdlib_link.o
rtl_string_test                                   ./build/stdlib/stdlib_link.o
setlocale                                         /home/zjian_zhang/Dplus_Z/project/realtek_amebaDplus_va0_example/GCC-RELEASE/project_km4/asdk/../toolchain/linux/asdk-10.3.1/linux/newlib/arm-none-eabi/lib/thumb/v8-m.main+fp/fpu/libc.a(lib_a-locale.o)
signal                                            /home/zjian_zhang/Dplus_Z/project/realtek_amebaDplus_va0_example/GCC-RELEASE/project_km4/asdk/../toolchain/linux/asdk-10.3.1/linux/newlib/arm-none-eabi/lib/thumb/v8-m.main+fp/fpu/libc.a(lib_a-signal.o)
snprintf                                          /home/zjian_zhang/Dplus_Z/project/realtek_amebaDplus_va0_example/GCC-RELEASE/project_km4/asdk/../toolchain/linux/asdk-10.3.1/linux/newlib/arm-none-eabi/lib/thumb/v8-m.main+fp/fpu/libc.a(lib_a-snprintf.o)
                                                  ./build/stdlib/stdlib_link.o
sprintf                                           /home/zjian_zhang/Dplus_Z/project/realtek_amebaDplus_va0_example/GCC-RELEASE/project_km4/asdk/../toolchain/linux/asdk-10.3.1/linux/newlib/arm-none-eabi/lib/thumb/v8-m.main+fp/fpu/libc.a(lib_a-sprintf.o)
                                                  /home/zjian_zhang/Dplus_Z/project/realtek_amebaDplus_va0_example/GCC-RELEASE/project_km4/asdk/../toolchain/linux/asdk-10.3.1/linux/newlib/arm-none-eabi/lib/thumb/v8-m.main+fp/fpu/libc.a(lib_a-svfscanf.o)
                                                  ./build/stdlib/stdlib_link.o
sscanf                                            /home/zjian_zhang/Dplus_Z/project/realtek_amebaDplus_va0_example/GCC-RELEASE/project_km4/asdk/../toolchain/linux/asdk-10.3.1/linux/newlib/arm-none-eabi/lib/thumb/v8-m.main+fp/fpu/libc.a(lib_a-sscanf.o)
                                                  ./build/stdlib/stdlib_link.o
stdlib_entry_table                                ./build/stdlib/stdlib_link.o
stdlib_init                                       ./build/stdlib/stdlib_link.o
stdlib_loguart_relocation                         ./build/stdlib/stdlib_link.o
stdlib_memcpy                                     ./build/stdlib/stdlib_link.o
stdlib_memset                                     ./build/stdlib/stdlib_link.o
stdlib_printf_call                                ./build/stdlib/stdlib_link.o
stdlib_scanf_call                                 ./build/stdlib/stdlib_link.o
stdlib_test                                       ./build/stdlib/stdlib_link.o
stdlib_vsnprintf_call                             ./build/stdlib/stdlib_link.o
strcat                                            /home/zjian_zhang/Dplus_Z/project/realtek_amebaDplus_va0_example/GCC-RELEASE/project_km4/asdk/../toolchain/linux/asdk-10.3.1/linux/newlib/arm-none-eabi/lib/thumb/v8-m.main+fp/fpu/libc.a(lib_a-strcat.o)
                                                  ./build/stdlib/stdlib_link.o
strchr                                            /home/zjian_zhang/Dplus_Z/project/realtek_amebaDplus_va0_example/GCC-RELEASE/project_km4/asdk/../toolchain/linux/asdk-10.3.1/linux/newlib/arm-none-eabi/lib/thumb/v8-m.main+fp/fpu/libc.a(lib_a-strchr.o)
                                                  /home/zjian_zhang/Dplus_Z/project/realtek_amebaDplus_va0_example/GCC-RELEASE/project_km4/asdk/../toolchain/linux/asdk-10.3.1/linux/newlib/arm-none-eabi/lib/thumb/v8-m.main+fp/fpu/libc.a(lib_a-strstr.o)
                                                  ./build/stdlib/stdlib_link.o
strcmp                                            /home/zjian_zhang/Dplus_Z/project/realtek_amebaDplus_va0_example/GCC-RELEASE/project_km4/asdk/../toolchain/linux/asdk-10.3.1/linux/newlib/arm-none-eabi/lib/thumb/v8-m.main+fp/fpu/libc.a(lib_a-strcmp.o)
                                                  /home/zjian_zhang/Dplus_Z/project/realtek_amebaDplus_va0_example/GCC-RELEASE/project_km4/asdk/../toolchain/linux/asdk-10.3.1/linux/newlib/arm-none-eabi/lib/thumb/v8-m.main+fp/fpu/libc.a(lib_a-locale.o)
strcpy                                            /home/zjian_zhang/Dplus_Z/project/realtek_amebaDplus_va0_example/GCC-RELEASE/project_km4/asdk/../toolchain/linux/asdk-10.3.1/linux/newlib/arm-none-eabi/lib/thumb/v8-m.main+fp/fpu/libc.a(lib_a-strcpy.o)
                                                  /home/zjian_zhang/Dplus_Z/project/realtek_amebaDplus_va0_example/GCC-RELEASE/project_km4/asdk/../toolchain/linux/asdk-10.3.1/linux/newlib/arm-none-eabi/lib/thumb/v8-m.main+fp/fpu/libc.a(lib_a-strcat.o)
                                                  ./build/stdlib/stdlib_link.o
strlen                                            /home/zjian_zhang/Dplus_Z/project/realtek_amebaDplus_va0_example/GCC-RELEASE/project_km4/asdk/../toolchain/linux/asdk-10.3.1/linux/newlib/arm-none-eabi/lib/thumb/v8-m.main+fp/fpu/libc.a(lib_a-strlen-stub.o)
                                                  /home/zjian_zhang/Dplus_Z/project/realtek_amebaDplus_va0_example/GCC-RELEASE/project_km4/asdk/../toolchain/linux/asdk-10.3.1/linux/newlib/arm-none-eabi/lib/thumb/v8-m.main+fp/fpu/libc.a(lib_a-gdtoa-gethex.o)
                                                  /home/zjian_zhang/Dplus_Z/project/realtek_amebaDplus_va0_example/GCC-RELEASE/project_km4/asdk/../toolchain/linux/asdk-10.3.1/linux/newlib/arm-none-eabi/lib/thumb/v8-m.main+fp/fpu/libc.a(lib_a-vfiprintf.o)
                                                  /home/zjian_zhang/Dplus_Z/project/realtek_amebaDplus_va0_example/GCC-RELEASE/project_km4/asdk/../toolchain/linux/asdk-10.3.1/linux/newlib/arm-none-eabi/lib/thumb/v8-m.main+fp/fpu/libc.a(lib_a-svfiprintf.o)
                                                  /home/zjian_zhang/Dplus_Z/project/realtek_amebaDplus_va0_example/GCC-RELEASE/project_km4/asdk/../toolchain/linux/asdk-10.3.1/linux/newlib/arm-none-eabi/lib/thumb/v8-m.main+fp/fpu/libc.a(lib_a-strtod.o)
                                                  /home/zjian_zhang/Dplus_Z/project/realtek_amebaDplus_va0_example/GCC-RELEASE/project_km4/asdk/../toolchain/linux/asdk-10.3.1/linux/newlib/arm-none-eabi/lib/thumb/v8-m.main+fp/fpu/libc.a(lib_a-vfprintf.o)
                                                  /home/zjian_zhang/Dplus_Z/project/realtek_amebaDplus_va0_example/GCC-RELEASE/project_km4/asdk/../toolchain/linux/asdk-10.3.1/linux/newlib/arm-none-eabi/lib/thumb/v8-m.main+fp/fpu/libc.a(lib_a-svfprintf.o)
                                                  /home/zjian_zhang/Dplus_Z/project/realtek_amebaDplus_va0_example/GCC-RELEASE/project_km4/asdk/../toolchain/linux/asdk-10.3.1/linux/newlib/arm-none-eabi/lib/thumb/v8-m.main+fp/fpu/libc.a(lib_a-strstr.o)
                                                  /home/zjian_zhang/Dplus_Z/project/realtek_amebaDplus_va0_example/GCC-RELEASE/project_km4/asdk/../toolchain/linux/asdk-10.3.1/linux/newlib/arm-none-eabi/lib/thumb/v8-m.main+fp/fpu/libc.a(lib_a-sscanf.o)
                                                  /home/zjian_zhang/Dplus_Z/project/realtek_amebaDplus_va0_example/GCC-RELEASE/project_km4/asdk/../toolchain/linux/asdk-10.3.1/linux/newlib/arm-none-eabi/lib/thumb/v8-m.main+fp/fpu/libc.a(lib_a-puts.o)
strncat                                           /home/zjian_zhang/Dplus_Z/project/realtek_amebaDplus_va0_example/GCC-RELEASE/project_km4/asdk/../toolchain/linux/asdk-10.3.1/linux/newlib/arm-none-eabi/lib/thumb/v8-m.main+fp/fpu/libc.a(lib_a-strncat.o)
                                                  ./build/stdlib/stdlib_link.o
strncmp                                           /home/zjian_zhang/Dplus_Z/project/realtek_amebaDplus_va0_example/GCC-RELEASE/project_km4/asdk/../toolchain/linux/asdk-10.3.1/linux/newlib/arm-none-eabi/lib/thumb/v8-m.main+fp/fpu/libc.a(lib_a-strncmp.o)
                                                  /home/zjian_zhang/Dplus_Z/project/realtek_amebaDplus_va0_example/GCC-RELEASE/project_km4/asdk/../toolchain/linux/asdk-10.3.1/linux/newlib/arm-none-eabi/lib/thumb/v8-m.main+fp/fpu/libc.a(lib_a-gdtoa-gethex.o)
                                                  /home/zjian_zhang/Dplus_Z/project/realtek_amebaDplus_va0_example/GCC-RELEASE/project_km4/asdk/../toolchain/linux/asdk-10.3.1/linux/newlib/arm-none-eabi/lib/thumb/v8-m.main+fp/fpu/libc.a(lib_a-strtod.o)
                                                  ./build/stdlib/stdlib_link.o
strncpy                                           /home/zjian_zhang/Dplus_Z/project/realtek_amebaDplus_va0_example/GCC-RELEASE/project_km4/asdk/../toolchain/linux/asdk-10.3.1/linux/newlib/arm-none-eabi/lib/thumb/v8-m.main+fp/fpu/libc.a(lib_a-strncpy.o)
                                                  /home/zjian_zhang/Dplus_Z/project/realtek_amebaDplus_va0_example/GCC-RELEASE/project_km4/asdk/../toolchain/linux/asdk-10.3.1/linux/newlib/arm-none-eabi/lib/thumb/v8-m.main+fp/fpu/libc.a(lib_a-vfiprintf.o)
                                                  /home/zjian_zhang/Dplus_Z/project/realtek_amebaDplus_va0_example/GCC-RELEASE/project_km4/asdk/../toolchain/linux/asdk-10.3.1/linux/newlib/arm-none-eabi/lib/thumb/v8-m.main+fp/fpu/libc.a(lib_a-svfiprintf.o)
                                                  /home/zjian_zhang/Dplus_Z/project/realtek_amebaDplus_va0_example/GCC-RELEASE/project_km4/asdk/../toolchain/linux/asdk-10.3.1/linux/newlib/arm-none-eabi/lib/thumb/v8-m.main+fp/fpu/libc.a(lib_a-vfprintf.o)
                                                  /home/zjian_zhang/Dplus_Z/project/realtek_amebaDplus_va0_example/GCC-RELEASE/project_km4/asdk/../toolchain/linux/asdk-10.3.1/linux/newlib/arm-none-eabi/lib/thumb/v8-m.main+fp/fpu/libc.a(lib_a-svfprintf.o)
                                                  ./build/stdlib/stdlib_link.o
strnlen                                           /home/zjian_zhang/Dplus_Z/project/realtek_amebaDplus_va0_example/GCC-RELEASE/project_km4/asdk/../toolchain/linux/asdk-10.3.1/linux/newlib/arm-none-eabi/lib/thumb/v8-m.main+fp/fpu/libc.a(lib_a-strnlen.o)
                                                  /home/zjian_zhang/Dplus_Z/project/realtek_amebaDplus_va0_example/GCC-RELEASE/project_km4/asdk/../toolchain/linux/asdk-10.3.1/linux/newlib/arm-none-eabi/lib/thumb/v8-m.main+fp/fpu/libc.a(lib_a-strstr.o)
strpbrk                                           /home/zjian_zhang/Dplus_Z/project/realtek_amebaDplus_va0_example/GCC-RELEASE/project_km4/asdk/../toolchain/linux/asdk-10.3.1/linux/newlib/arm-none-eabi/lib/thumb/v8-m.main+fp/fpu/libc.a(lib_a-strpbrk.o)
                                                  ./build/stdlib/stdlib_link.o
strsep                                            /home/zjian_zhang/Dplus_Z/project/realtek_amebaDplus_va0_example/GCC-RELEASE/project_km4/asdk/../toolchain/linux/asdk-10.3.1/linux/newlib/arm-none-eabi/lib/thumb/v8-m.main+fp/fpu/libc.a(lib_a-strsep.o)
                                                  ./build/stdlib/stdlib_link.o
strstr                                            /home/zjian_zhang/Dplus_Z/project/realtek_amebaDplus_va0_example/GCC-RELEASE/project_km4/asdk/../toolchain/linux/asdk-10.3.1/linux/newlib/arm-none-eabi/lib/thumb/v8-m.main+fp/fpu/libc.a(lib_a-strstr.o)
                                                  ./build/stdlib/stdlib_link.o
strtod                                            /home/zjian_zhang/Dplus_Z/project/realtek_amebaDplus_va0_example/GCC-RELEASE/project_km4/asdk/../toolchain/linux/asdk-10.3.1/linux/newlib/arm-none-eabi/lib/thumb/v8-m.main+fp/fpu/libc.a(lib_a-strtod.o)
strtod_l                                          /home/zjian_zhang/Dplus_Z/project/realtek_amebaDplus_va0_example/GCC-RELEASE/project_km4/asdk/../toolchain/linux/asdk-10.3.1/linux/newlib/arm-none-eabi/lib/thumb/v8-m.main+fp/fpu/libc.a(lib_a-strtod.o)
strtof                                            /home/zjian_zhang/Dplus_Z/project/realtek_amebaDplus_va0_example/GCC-RELEASE/project_km4/asdk/../toolchain/linux/asdk-10.3.1/linux/newlib/arm-none-eabi/lib/thumb/v8-m.main+fp/fpu/libc.a(lib_a-strtod.o)
strtof_l                                          /home/zjian_zhang/Dplus_Z/project/realtek_amebaDplus_va0_example/GCC-RELEASE/project_km4/asdk/../toolchain/linux/asdk-10.3.1/linux/newlib/arm-none-eabi/lib/thumb/v8-m.main+fp/fpu/libc.a(lib_a-strtod.o)
strtok                                            /home/zjian_zhang/Dplus_Z/project/realtek_amebaDplus_va0_example/GCC-RELEASE/project_km4/asdk/../toolchain/linux/asdk-10.3.1/linux/newlib/arm-none-eabi/lib/thumb/v8-m.main+fp/fpu/libc.a(lib_a-strtok.o)
                                                  ./build/stdlib/stdlib_link.o
strtok_r                                          /home/zjian_zhang/Dplus_Z/project/realtek_amebaDplus_va0_example/GCC-RELEASE/project_km4/asdk/../toolchain/linux/asdk-10.3.1/linux/newlib/arm-none-eabi/lib/thumb/v8-m.main+fp/fpu/libc.a(lib_a-strtok_r.o)
strtol                                            /home/zjian_zhang/Dplus_Z/project/realtek_amebaDplus_va0_example/GCC-RELEASE/project_km4/asdk/../toolchain/linux/asdk-10.3.1/linux/newlib/arm-none-eabi/lib/thumb/v8-m.main+fp/fpu/libc.a(lib_a-strtol.o)
                                                  /home/zjian_zhang/Dplus_Z/project/realtek_amebaDplus_va0_example/GCC-RELEASE/project_km4/asdk/../toolchain/linux/asdk-10.3.1/linux/newlib/arm-none-eabi/lib/thumb/v8-m.main+fp/fpu/libc.a(lib_a-atoi.o)
                                                  ./build/stdlib/stdlib_link.o
strtol_l                                          /home/zjian_zhang/Dplus_Z/project/realtek_amebaDplus_va0_example/GCC-RELEASE/project_km4/asdk/../toolchain/linux/asdk-10.3.1/linux/newlib/arm-none-eabi/lib/thumb/v8-m.main+fp/fpu/libc.a(lib_a-strtol.o)
strtoll                                           /home/zjian_zhang/Dplus_Z/project/realtek_amebaDplus_va0_example/GCC-RELEASE/project_km4/asdk/../toolchain/linux/asdk-10.3.1/linux/newlib/arm-none-eabi/lib/thumb/v8-m.main+fp/fpu/libc.a(lib_a-strtoll.o)
strtoll_l                                         /home/zjian_zhang/Dplus_Z/project/realtek_amebaDplus_va0_example/GCC-RELEASE/project_km4/asdk/../toolchain/linux/asdk-10.3.1/linux/newlib/arm-none-eabi/lib/thumb/v8-m.main+fp/fpu/libc.a(lib_a-strtoll.o)
strtoul                                           /home/zjian_zhang/Dplus_Z/project/realtek_amebaDplus_va0_example/GCC-RELEASE/project_km4/asdk/../toolchain/linux/asdk-10.3.1/linux/newlib/arm-none-eabi/lib/thumb/v8-m.main+fp/fpu/libc.a(lib_a-strtoul.o)
strtoul_l                                         /home/zjian_zhang/Dplus_Z/project/realtek_amebaDplus_va0_example/GCC-RELEASE/project_km4/asdk/../toolchain/linux/asdk-10.3.1/linux/newlib/arm-none-eabi/lib/thumb/v8-m.main+fp/fpu/libc.a(lib_a-strtoul.o)
strtoull                                          /home/zjian_zhang/Dplus_Z/project/realtek_amebaDplus_va0_example/GCC-RELEASE/project_km4/asdk/../toolchain/linux/asdk-10.3.1/linux/newlib/arm-none-eabi/lib/thumb/v8-m.main+fp/fpu/libc.a(lib_a-strtoull.o)
strtoull_l                                        /home/zjian_zhang/Dplus_Z/project/realtek_amebaDplus_va0_example/GCC-RELEASE/project_km4/asdk/../toolchain/linux/asdk-10.3.1/linux/newlib/arm-none-eabi/lib/thumb/v8-m.main+fp/fpu/libc.a(lib_a-strtoull.o)
test_stratoi                                      ./build/stdlib/stdlib_link.o
test_strcat                                       ./build/stdlib/stdlib_link.o
test_strchr                                       ./build/stdlib/stdlib_link.o
test_strcpy                                       ./build/stdlib/stdlib_link.o
test_strncat                                      ./build/stdlib/stdlib_link.o
test_strncmp                                      ./build/stdlib/stdlib_link.o
test_strncpy                                      ./build/stdlib/stdlib_link.o
test_strpbrk                                      ./build/stdlib/stdlib_link.o
test_strsep                                       ./build/stdlib/stdlib_link.o
test_strstr                                       ./build/stdlib/stdlib_link.o
test_strtok                                       ./build/stdlib/stdlib_link.o
test_strtol                                       ./build/stdlib/stdlib_link.o
ungetc                                            /home/zjian_zhang/Dplus_Z/project/realtek_amebaDplus_va0_example/GCC-RELEASE/project_km4/asdk/../toolchain/linux/asdk-10.3.1/linux/newlib/arm-none-eabi/lib/thumb/v8-m.main+fp/fpu/libc.a(lib_a-ungetc.o)
vfiprintf                                         /home/zjian_zhang/Dplus_Z/project/realtek_amebaDplus_va0_example/GCC-RELEASE/project_km4/asdk/../toolchain/linux/asdk-10.3.1/linux/newlib/arm-none-eabi/lib/thumb/v8-m.main+fp/fpu/libc.a(lib_a-vfiprintf.o)
vfprintf                                          /home/zjian_zhang/Dplus_Z/project/realtek_amebaDplus_va0_example/GCC-RELEASE/project_km4/asdk/../toolchain/linux/asdk-10.3.1/linux/newlib/arm-none-eabi/lib/thumb/v8-m.main+fp/fpu/libc.a(lib_a-vfprintf.o)
vsnprintf                                         /home/zjian_zhang/Dplus_Z/project/realtek_amebaDplus_va0_example/GCC-RELEASE/project_km4/asdk/../toolchain/linux/asdk-10.3.1/linux/newlib/arm-none-eabi/lib/thumb/v8-m.main+fp/fpu/libc.a(lib_a-vsnprintf.o)
                                                  ./build/stdlib/stdlib_link.o
wcrtomb                                           /home/zjian_zhang/Dplus_Z/project/realtek_amebaDplus_va0_example/GCC-RELEASE/project_km4/asdk/../toolchain/linux/asdk-10.3.1/linux/newlib/arm-none-eabi/lib/thumb/v8-m.main+fp/fpu/libc.a(lib_a-wcrtomb.o)
