
D:/0code/v03slave/Lite/project/realtek_amebaLite_va0_example/GCC-RELEASE/project_kr4/vsdk/image/target_rom.axf:     file format elf32-littleriscv


Disassembly of section .rom.text:

00000000 <Reset_Handler>:
       0:	20002137          	lui	sp,0x20002
       4:	1141                	c.addi	sp,-16
       6:	13b0006f          	jal	zero,940 <BOOT_ROM_ResetVsr>

0000000a <rtl_crypto_aes_cbc_init>:
       a:	862a                	c.mv	a2,a0
       c:	20000537          	lui	a0,0x20000
      10:	3a054703          	lbu	a4,928(a0) # 200003a0 <crypto_engine>
      14:	1101                	c.addi	sp,-32
      16:	cc22                	c.swsp	s0,24(sp)
      18:	ce06                	c.swsp	ra,28(sp)
      1a:	4785                	c.li	a5,1
      1c:	86ae                	c.mv	a3,a1
      1e:	842a                	c.mv	s0,a0
      20:	00f70e63          	beq	a4,a5,3c <rtl_crypto_aes_cbc_init+0x32>
      24:	0002d537          	lui	a0,0x2d
      28:	c62e                	c.swsp	a1,12(sp)
      2a:	47850513          	addi	a0,a0,1144 # 2d478 <__FUNCTION__.5>
      2e:	02600593          	addi	a1,zero,38
      32:	c432                	c.swsp	a2,8(sp)
      34:	7e2000ef          	jal	ra,816 <io_assert_failed>
      38:	46b2                	c.lwsp	a3,12(sp)
      3a:	4622                	c.lwsp	a2,8(sp)
      3c:	c20d                	c.beqz	a2,5e <rtl_crypto_aes_cbc_init+0x54>
      3e:	00367793          	andi	a5,a2,3
      42:	e39d                	c.bnez	a5,68 <rtl_crypto_aes_cbc_init+0x5e>
      44:	02000793          	addi	a5,zero,32
      48:	02d7e263          	bltu	a5,a3,6c <rtl_crypto_aes_cbc_init+0x62>
      4c:	3a040513          	addi	a0,s0,928
      50:	4462                	c.lwsp	s0,24(sp)
      52:	40f2                	c.lwsp	ra,28(sp)
      54:	02100593          	addi	a1,zero,33
      58:	6105                	c.addi16sp	sp,32
      5a:	1f80206f          	jal	zero,2252 <CRYPTO_CipherInit>
      5e:	5571                	c.li	a0,-4
      60:	40f2                	c.lwsp	ra,28(sp)
      62:	4462                	c.lwsp	s0,24(sp)
      64:	6105                	c.addi16sp	sp,32
      66:	8082                	c.jr	ra
      68:	5569                	c.li	a0,-6
      6a:	bfdd                	c.j	60 <rtl_crypto_aes_cbc_init+0x56>
      6c:	5565                	c.li	a0,-7
      6e:	bfcd                	c.j	60 <rtl_crypto_aes_cbc_init+0x56>

00000070 <rtl_crypto_aes_cbc_encrypt>:
      70:	c229                	c.beqz	a2,b2 <rtl_crypto_aes_cbc_encrypt+0x42>
      72:	00367793          	andi	a5,a2,3
      76:	832a                	c.mv	t1,a0
      78:	5569                	c.li	a0,-6
      7a:	ef95                	c.bnez	a5,b6 <rtl_crypto_aes_cbc_encrypt+0x46>
      7c:	47c1                	c.li	a5,16
      7e:	555d                	c.li	a0,-9
      80:	02f69b63          	bne	a3,a5,b6 <rtl_crypto_aes_cbc_encrypt+0x46>
      84:	5571                	c.li	a0,-4
      86:	02030863          	beq	t1,zero,b6 <rtl_crypto_aes_cbc_encrypt+0x46>
      8a:	88ba                	c.mv	a7,a4
      8c:	c70d                	c.beqz	a4,b6 <rtl_crypto_aes_cbc_encrypt+0x46>
      8e:	1101                	c.addi	sp,-32
      90:	20000537          	lui	a0,0x20000
      94:	c002                	c.swsp	zero,0(sp)
      96:	86b2                	c.mv	a3,a2
      98:	4801                	c.li	a6,0
      9a:	862e                	c.mv	a2,a1
      9c:	4781                	c.li	a5,0
      9e:	4741                	c.li	a4,16
      a0:	859a                	c.mv	a1,t1
      a2:	3a050513          	addi	a0,a0,928 # 200003a0 <crypto_engine>
      a6:	ce06                	c.swsp	ra,28(sp)
      a8:	1b8020ef          	jal	ra,2260 <CRYPTO_CipherEncryptAD>
      ac:	40f2                	c.lwsp	ra,28(sp)
      ae:	6105                	c.addi16sp	sp,32
      b0:	8082                	c.jr	ra
      b2:	5571                	c.li	a0,-4
      b4:	8082                	c.jr	ra
      b6:	8082                	c.jr	ra

000000b8 <rtl_crypto_aes_cbc_decrypt>:
      b8:	c229                	c.beqz	a2,fa <rtl_crypto_aes_cbc_decrypt+0x42>
      ba:	00367793          	andi	a5,a2,3
      be:	832a                	c.mv	t1,a0
      c0:	5569                	c.li	a0,-6
      c2:	ef95                	c.bnez	a5,fe <rtl_crypto_aes_cbc_decrypt+0x46>
      c4:	47c1                	c.li	a5,16
      c6:	555d                	c.li	a0,-9
      c8:	02f69b63          	bne	a3,a5,fe <rtl_crypto_aes_cbc_decrypt+0x46>
      cc:	5571                	c.li	a0,-4
      ce:	02030863          	beq	t1,zero,fe <rtl_crypto_aes_cbc_decrypt+0x46>
      d2:	88ba                	c.mv	a7,a4
      d4:	c70d                	c.beqz	a4,fe <rtl_crypto_aes_cbc_decrypt+0x46>
      d6:	1101                	c.addi	sp,-32
      d8:	20000537          	lui	a0,0x20000
      dc:	c002                	c.swsp	zero,0(sp)
      de:	86b2                	c.mv	a3,a2
      e0:	4801                	c.li	a6,0
      e2:	862e                	c.mv	a2,a1
      e4:	4781                	c.li	a5,0
      e6:	4741                	c.li	a4,16
      e8:	859a                	c.mv	a1,t1
      ea:	3a050513          	addi	a0,a0,928 # 200003a0 <crypto_engine>
      ee:	ce06                	c.swsp	ra,28(sp)
      f0:	194020ef          	jal	ra,2284 <CRYPTO_CipherDecryptAD>
      f4:	40f2                	c.lwsp	ra,28(sp)
      f6:	6105                	c.addi16sp	sp,32
      f8:	8082                	c.jr	ra
      fa:	5571                	c.li	a0,-4
      fc:	8082                	c.jr	ra
      fe:	8082                	c.jr	ra

00000100 <rtl_crypto_aes_ecb_init>:
     100:	862a                	c.mv	a2,a0
     102:	20000537          	lui	a0,0x20000
     106:	3a054703          	lbu	a4,928(a0) # 200003a0 <crypto_engine>
     10a:	1101                	c.addi	sp,-32
     10c:	cc22                	c.swsp	s0,24(sp)
     10e:	ce06                	c.swsp	ra,28(sp)
     110:	4785                	c.li	a5,1
     112:	86ae                	c.mv	a3,a1
     114:	842a                	c.mv	s0,a0
     116:	00f70d63          	beq	a4,a5,130 <rtl_crypto_aes_ecb_init+0x30>
     11a:	0002d537          	lui	a0,0x2d
     11e:	c62e                	c.swsp	a1,12(sp)
     120:	49050513          	addi	a0,a0,1168 # 2d490 <__FUNCTION__.4>
     124:	08b00593          	addi	a1,zero,139
     128:	c432                	c.swsp	a2,8(sp)
     12a:	25f5                	c.jal	816 <io_assert_failed>
     12c:	46b2                	c.lwsp	a3,12(sp)
     12e:	4622                	c.lwsp	a2,8(sp)
     130:	c20d                	c.beqz	a2,152 <rtl_crypto_aes_ecb_init+0x52>
     132:	00367793          	andi	a5,a2,3
     136:	e39d                	c.bnez	a5,15c <rtl_crypto_aes_ecb_init+0x5c>
     138:	02000793          	addi	a5,zero,32
     13c:	02d7e263          	bltu	a5,a3,160 <rtl_crypto_aes_ecb_init+0x60>
     140:	3a040513          	addi	a0,s0,928
     144:	4462                	c.lwsp	s0,24(sp)
     146:	40f2                	c.lwsp	ra,28(sp)
     148:	02000593          	addi	a1,zero,32
     14c:	6105                	c.addi16sp	sp,32
     14e:	1040206f          	jal	zero,2252 <CRYPTO_CipherInit>
     152:	5571                	c.li	a0,-4
     154:	40f2                	c.lwsp	ra,28(sp)
     156:	4462                	c.lwsp	s0,24(sp)
     158:	6105                	c.addi16sp	sp,32
     15a:	8082                	c.jr	ra
     15c:	5569                	c.li	a0,-6
     15e:	bfdd                	c.j	154 <rtl_crypto_aes_ecb_init+0x54>
     160:	5565                	c.li	a0,-7
     162:	bfcd                	c.j	154 <rtl_crypto_aes_ecb_init+0x54>

00000164 <rtl_crypto_aes_ecb_encrypt>:
     164:	c51d                	c.beqz	a0,192 <rtl_crypto_aes_ecb_encrypt+0x2e>
     166:	832a                	c.mv	t1,a0
     168:	88ba                	c.mv	a7,a4
     16a:	5571                	c.li	a0,-4
     16c:	c70d                	c.beqz	a4,196 <rtl_crypto_aes_ecb_encrypt+0x32>
     16e:	1101                	c.addi	sp,-32
     170:	20000537          	lui	a0,0x20000
     174:	c002                	c.swsp	zero,0(sp)
     176:	8736                	c.mv	a4,a3
     178:	4801                	c.li	a6,0
     17a:	86b2                	c.mv	a3,a2
     17c:	4781                	c.li	a5,0
     17e:	862e                	c.mv	a2,a1
     180:	3a050513          	addi	a0,a0,928 # 200003a0 <crypto_engine>
     184:	859a                	c.mv	a1,t1
     186:	ce06                	c.swsp	ra,28(sp)
     188:	0d8020ef          	jal	ra,2260 <CRYPTO_CipherEncryptAD>
     18c:	40f2                	c.lwsp	ra,28(sp)
     18e:	6105                	c.addi16sp	sp,32
     190:	8082                	c.jr	ra
     192:	5571                	c.li	a0,-4
     194:	8082                	c.jr	ra
     196:	8082                	c.jr	ra

00000198 <rtl_crypto_aes_ecb_decrypt>:
     198:	c51d                	c.beqz	a0,1c6 <rtl_crypto_aes_ecb_decrypt+0x2e>
     19a:	832a                	c.mv	t1,a0
     19c:	88ba                	c.mv	a7,a4
     19e:	5571                	c.li	a0,-4
     1a0:	c70d                	c.beqz	a4,1ca <rtl_crypto_aes_ecb_decrypt+0x32>
     1a2:	1101                	c.addi	sp,-32
     1a4:	20000537          	lui	a0,0x20000
     1a8:	c002                	c.swsp	zero,0(sp)
     1aa:	8736                	c.mv	a4,a3
     1ac:	4801                	c.li	a6,0
     1ae:	86b2                	c.mv	a3,a2
     1b0:	4781                	c.li	a5,0
     1b2:	862e                	c.mv	a2,a1
     1b4:	3a050513          	addi	a0,a0,928 # 200003a0 <crypto_engine>
     1b8:	859a                	c.mv	a1,t1
     1ba:	ce06                	c.swsp	ra,28(sp)
     1bc:	0c8020ef          	jal	ra,2284 <CRYPTO_CipherDecryptAD>
     1c0:	40f2                	c.lwsp	ra,28(sp)
     1c2:	6105                	c.addi16sp	sp,32
     1c4:	8082                	c.jr	ra
     1c6:	5571                	c.li	a0,-4
     1c8:	8082                	c.jr	ra
     1ca:	8082                	c.jr	ra

000001cc <rtl_crypto_aes_ctr_init>:
     1cc:	862a                	c.mv	a2,a0
     1ce:	20000537          	lui	a0,0x20000
     1d2:	3a054703          	lbu	a4,928(a0) # 200003a0 <crypto_engine>
     1d6:	1101                	c.addi	sp,-32
     1d8:	cc22                	c.swsp	s0,24(sp)
     1da:	ce06                	c.swsp	ra,28(sp)
     1dc:	4785                	c.li	a5,1
     1de:	86ae                	c.mv	a3,a1
     1e0:	842a                	c.mv	s0,a0
     1e2:	00f70d63          	beq	a4,a5,1fc <rtl_crypto_aes_ctr_init+0x30>
     1e6:	0002d537          	lui	a0,0x2d
     1ea:	c62e                	c.swsp	a1,12(sp)
     1ec:	4a850513          	addi	a0,a0,1192 # 2d4a8 <__FUNCTION__.3>
     1f0:	0de00593          	addi	a1,zero,222
     1f4:	c432                	c.swsp	a2,8(sp)
     1f6:	2505                	c.jal	816 <io_assert_failed>
     1f8:	46b2                	c.lwsp	a3,12(sp)
     1fa:	4622                	c.lwsp	a2,8(sp)
     1fc:	c20d                	c.beqz	a2,21e <rtl_crypto_aes_ctr_init+0x52>
     1fe:	00367793          	andi	a5,a2,3
     202:	e39d                	c.bnez	a5,228 <rtl_crypto_aes_ctr_init+0x5c>
     204:	02000793          	addi	a5,zero,32
     208:	02d7e263          	bltu	a5,a3,22c <rtl_crypto_aes_ctr_init+0x60>
     20c:	3a040513          	addi	a0,s0,928
     210:	4462                	c.lwsp	s0,24(sp)
     212:	40f2                	c.lwsp	ra,28(sp)
     214:	02400593          	addi	a1,zero,36
     218:	6105                	c.addi16sp	sp,32
     21a:	0380206f          	jal	zero,2252 <CRYPTO_CipherInit>
     21e:	5571                	c.li	a0,-4
     220:	40f2                	c.lwsp	ra,28(sp)
     222:	4462                	c.lwsp	s0,24(sp)
     224:	6105                	c.addi16sp	sp,32
     226:	8082                	c.jr	ra
     228:	5569                	c.li	a0,-6
     22a:	bfdd                	c.j	220 <rtl_crypto_aes_ctr_init+0x54>
     22c:	5565                	c.li	a0,-7
     22e:	bfcd                	c.j	220 <rtl_crypto_aes_ctr_init+0x54>

00000230 <rtl_crypto_aes_ctr_encrypt>:
     230:	ce05                	c.beqz	a2,268 <rtl_crypto_aes_ctr_encrypt+0x38>
     232:	00367793          	andi	a5,a2,3
     236:	832a                	c.mv	t1,a0
     238:	5569                	c.li	a0,-6
     23a:	eb8d                	c.bnez	a5,26c <rtl_crypto_aes_ctr_encrypt+0x3c>
     23c:	5571                	c.li	a0,-4
     23e:	02030763          	beq	t1,zero,26c <rtl_crypto_aes_ctr_encrypt+0x3c>
     242:	88ba                	c.mv	a7,a4
     244:	c705                	c.beqz	a4,26c <rtl_crypto_aes_ctr_encrypt+0x3c>
     246:	1101                	c.addi	sp,-32
     248:	20000537          	lui	a0,0x20000
     24c:	c002                	c.swsp	zero,0(sp)
     24e:	8736                	c.mv	a4,a3
     250:	4801                	c.li	a6,0
     252:	86b2                	c.mv	a3,a2
     254:	3a050513          	addi	a0,a0,928 # 200003a0 <crypto_engine>
     258:	862e                	c.mv	a2,a1
     25a:	859a                	c.mv	a1,t1
     25c:	ce06                	c.swsp	ra,28(sp)
     25e:	002020ef          	jal	ra,2260 <CRYPTO_CipherEncryptAD>
     262:	40f2                	c.lwsp	ra,28(sp)
     264:	6105                	c.addi16sp	sp,32
     266:	8082                	c.jr	ra
     268:	5571                	c.li	a0,-4
     26a:	8082                	c.jr	ra
     26c:	8082                	c.jr	ra

0000026e <rtl_crypto_aes_ctr_decrypt>:
     26e:	ce05                	c.beqz	a2,2a6 <rtl_crypto_aes_ctr_decrypt+0x38>
     270:	00367793          	andi	a5,a2,3
     274:	832a                	c.mv	t1,a0
     276:	5569                	c.li	a0,-6
     278:	eb8d                	c.bnez	a5,2aa <rtl_crypto_aes_ctr_decrypt+0x3c>
     27a:	5571                	c.li	a0,-4
     27c:	02030763          	beq	t1,zero,2aa <rtl_crypto_aes_ctr_decrypt+0x3c>
     280:	88ba                	c.mv	a7,a4
     282:	c705                	c.beqz	a4,2aa <rtl_crypto_aes_ctr_decrypt+0x3c>
     284:	1101                	c.addi	sp,-32
     286:	20000537          	lui	a0,0x20000
     28a:	c002                	c.swsp	zero,0(sp)
     28c:	8736                	c.mv	a4,a3
     28e:	4801                	c.li	a6,0
     290:	86b2                	c.mv	a3,a2
     292:	3a050513          	addi	a0,a0,928 # 200003a0 <crypto_engine>
     296:	862e                	c.mv	a2,a1
     298:	859a                	c.mv	a1,t1
     29a:	ce06                	c.swsp	ra,28(sp)
     29c:	7e9010ef          	jal	ra,2284 <CRYPTO_CipherDecryptAD>
     2a0:	40f2                	c.lwsp	ra,28(sp)
     2a2:	6105                	c.addi16sp	sp,32
     2a4:	8082                	c.jr	ra
     2a6:	5571                	c.li	a0,-4
     2a8:	8082                	c.jr	ra
     2aa:	8082                	c.jr	ra

000002ac <rtl_crypto_aes_cfb_init>:
     2ac:	862a                	c.mv	a2,a0
     2ae:	20000537          	lui	a0,0x20000
     2b2:	3a054703          	lbu	a4,928(a0) # 200003a0 <crypto_engine>
     2b6:	1101                	c.addi	sp,-32
     2b8:	cc22                	c.swsp	s0,24(sp)
     2ba:	ce06                	c.swsp	ra,28(sp)
     2bc:	4785                	c.li	a5,1
     2be:	86ae                	c.mv	a3,a1
     2c0:	842a                	c.mv	s0,a0
     2c2:	00f70d63          	beq	a4,a5,2dc <rtl_crypto_aes_cfb_init+0x30>
     2c6:	0002d537          	lui	a0,0x2d
     2ca:	c62e                	c.swsp	a1,12(sp)
     2cc:	4c050513          	addi	a0,a0,1216 # 2d4c0 <__FUNCTION__.2>
     2d0:	13c00593          	addi	a1,zero,316
     2d4:	c432                	c.swsp	a2,8(sp)
     2d6:	2381                	c.jal	816 <io_assert_failed>
     2d8:	46b2                	c.lwsp	a3,12(sp)
     2da:	4622                	c.lwsp	a2,8(sp)
     2dc:	c20d                	c.beqz	a2,2fe <rtl_crypto_aes_cfb_init+0x52>
     2de:	00367793          	andi	a5,a2,3
     2e2:	e39d                	c.bnez	a5,308 <rtl_crypto_aes_cfb_init+0x5c>
     2e4:	02000793          	addi	a5,zero,32
     2e8:	02d7e263          	bltu	a5,a3,30c <rtl_crypto_aes_cfb_init+0x60>
     2ec:	3a040513          	addi	a0,s0,928
     2f0:	4462                	c.lwsp	s0,24(sp)
     2f2:	40f2                	c.lwsp	ra,28(sp)
     2f4:	02200593          	addi	a1,zero,34
     2f8:	6105                	c.addi16sp	sp,32
     2fa:	7590106f          	jal	zero,2252 <CRYPTO_CipherInit>
     2fe:	5571                	c.li	a0,-4
     300:	40f2                	c.lwsp	ra,28(sp)
     302:	4462                	c.lwsp	s0,24(sp)
     304:	6105                	c.addi16sp	sp,32
     306:	8082                	c.jr	ra
     308:	5569                	c.li	a0,-6
     30a:	bfdd                	c.j	300 <rtl_crypto_aes_cfb_init+0x54>
     30c:	5565                	c.li	a0,-7
     30e:	bfcd                	c.j	300 <rtl_crypto_aes_cfb_init+0x54>

00000310 <rtl_crypto_aes_cfb_encrypt>:
     310:	ce05                	c.beqz	a2,348 <rtl_crypto_aes_cfb_encrypt+0x38>
     312:	00367793          	andi	a5,a2,3
     316:	832a                	c.mv	t1,a0
     318:	5569                	c.li	a0,-6
     31a:	eb8d                	c.bnez	a5,34c <rtl_crypto_aes_cfb_encrypt+0x3c>
     31c:	5571                	c.li	a0,-4
     31e:	02030763          	beq	t1,zero,34c <rtl_crypto_aes_cfb_encrypt+0x3c>
     322:	88ba                	c.mv	a7,a4
     324:	c705                	c.beqz	a4,34c <rtl_crypto_aes_cfb_encrypt+0x3c>
     326:	1101                	c.addi	sp,-32
     328:	20000537          	lui	a0,0x20000
     32c:	c002                	c.swsp	zero,0(sp)
     32e:	8736                	c.mv	a4,a3
     330:	4801                	c.li	a6,0
     332:	86b2                	c.mv	a3,a2
     334:	3a050513          	addi	a0,a0,928 # 200003a0 <crypto_engine>
     338:	862e                	c.mv	a2,a1
     33a:	859a                	c.mv	a1,t1
     33c:	ce06                	c.swsp	ra,28(sp)
     33e:	723010ef          	jal	ra,2260 <CRYPTO_CipherEncryptAD>
     342:	40f2                	c.lwsp	ra,28(sp)
     344:	6105                	c.addi16sp	sp,32
     346:	8082                	c.jr	ra
     348:	5571                	c.li	a0,-4
     34a:	8082                	c.jr	ra
     34c:	8082                	c.jr	ra

0000034e <rtl_crypto_aes_cfb_decrypt>:
     34e:	ce05                	c.beqz	a2,386 <rtl_crypto_aes_cfb_decrypt+0x38>
     350:	00367793          	andi	a5,a2,3
     354:	832a                	c.mv	t1,a0
     356:	5569                	c.li	a0,-6
     358:	eb8d                	c.bnez	a5,38a <rtl_crypto_aes_cfb_decrypt+0x3c>
     35a:	5571                	c.li	a0,-4
     35c:	02030763          	beq	t1,zero,38a <rtl_crypto_aes_cfb_decrypt+0x3c>
     360:	88ba                	c.mv	a7,a4
     362:	c705                	c.beqz	a4,38a <rtl_crypto_aes_cfb_decrypt+0x3c>
     364:	1101                	c.addi	sp,-32
     366:	20000537          	lui	a0,0x20000
     36a:	c002                	c.swsp	zero,0(sp)
     36c:	8736                	c.mv	a4,a3
     36e:	4801                	c.li	a6,0
     370:	86b2                	c.mv	a3,a2
     372:	3a050513          	addi	a0,a0,928 # 200003a0 <crypto_engine>
     376:	862e                	c.mv	a2,a1
     378:	859a                	c.mv	a1,t1
     37a:	ce06                	c.swsp	ra,28(sp)
     37c:	709010ef          	jal	ra,2284 <CRYPTO_CipherDecryptAD>
     380:	40f2                	c.lwsp	ra,28(sp)
     382:	6105                	c.addi16sp	sp,32
     384:	8082                	c.jr	ra
     386:	5571                	c.li	a0,-4
     388:	8082                	c.jr	ra
     38a:	8082                	c.jr	ra

0000038c <rtl_crypto_aes_ofb_init>:
     38c:	862a                	c.mv	a2,a0
     38e:	20000537          	lui	a0,0x20000
     392:	3a054703          	lbu	a4,928(a0) # 200003a0 <crypto_engine>
     396:	1101                	c.addi	sp,-32
     398:	cc22                	c.swsp	s0,24(sp)
     39a:	ce06                	c.swsp	ra,28(sp)
     39c:	4785                	c.li	a5,1
     39e:	86ae                	c.mv	a3,a1
     3a0:	842a                	c.mv	s0,a0
     3a2:	00f70d63          	beq	a4,a5,3bc <rtl_crypto_aes_ofb_init+0x30>
     3a6:	0002d537          	lui	a0,0x2d
     3aa:	c62e                	c.swsp	a1,12(sp)
     3ac:	4d850513          	addi	a0,a0,1240 # 2d4d8 <__FUNCTION__.1>
     3b0:	19a00593          	addi	a1,zero,410
     3b4:	c432                	c.swsp	a2,8(sp)
     3b6:	2185                	c.jal	816 <io_assert_failed>
     3b8:	46b2                	c.lwsp	a3,12(sp)
     3ba:	4622                	c.lwsp	a2,8(sp)
     3bc:	c20d                	c.beqz	a2,3de <rtl_crypto_aes_ofb_init+0x52>
     3be:	00367793          	andi	a5,a2,3
     3c2:	e39d                	c.bnez	a5,3e8 <rtl_crypto_aes_ofb_init+0x5c>
     3c4:	02000793          	addi	a5,zero,32
     3c8:	02d7e263          	bltu	a5,a3,3ec <rtl_crypto_aes_ofb_init+0x60>
     3cc:	3a040513          	addi	a0,s0,928
     3d0:	4462                	c.lwsp	s0,24(sp)
     3d2:	40f2                	c.lwsp	ra,28(sp)
     3d4:	02300593          	addi	a1,zero,35
     3d8:	6105                	c.addi16sp	sp,32
     3da:	6790106f          	jal	zero,2252 <CRYPTO_CipherInit>
     3de:	5571                	c.li	a0,-4
     3e0:	40f2                	c.lwsp	ra,28(sp)
     3e2:	4462                	c.lwsp	s0,24(sp)
     3e4:	6105                	c.addi16sp	sp,32
     3e6:	8082                	c.jr	ra
     3e8:	5569                	c.li	a0,-6
     3ea:	bfdd                	c.j	3e0 <rtl_crypto_aes_ofb_init+0x54>
     3ec:	5565                	c.li	a0,-7
     3ee:	bfcd                	c.j	3e0 <rtl_crypto_aes_ofb_init+0x54>

000003f0 <rtl_crypto_aes_ofb_encrypt>:
     3f0:	ce05                	c.beqz	a2,428 <rtl_crypto_aes_ofb_encrypt+0x38>
     3f2:	00367793          	andi	a5,a2,3
     3f6:	832a                	c.mv	t1,a0
     3f8:	5569                	c.li	a0,-6
     3fa:	eb8d                	c.bnez	a5,42c <rtl_crypto_aes_ofb_encrypt+0x3c>
     3fc:	5571                	c.li	a0,-4
     3fe:	02030763          	beq	t1,zero,42c <rtl_crypto_aes_ofb_encrypt+0x3c>
     402:	88ba                	c.mv	a7,a4
     404:	c705                	c.beqz	a4,42c <rtl_crypto_aes_ofb_encrypt+0x3c>
     406:	1101                	c.addi	sp,-32
     408:	20000537          	lui	a0,0x20000
     40c:	c002                	c.swsp	zero,0(sp)
     40e:	8736                	c.mv	a4,a3
     410:	4801                	c.li	a6,0
     412:	86b2                	c.mv	a3,a2
     414:	3a050513          	addi	a0,a0,928 # 200003a0 <crypto_engine>
     418:	862e                	c.mv	a2,a1
     41a:	859a                	c.mv	a1,t1
     41c:	ce06                	c.swsp	ra,28(sp)
     41e:	643010ef          	jal	ra,2260 <CRYPTO_CipherEncryptAD>
     422:	40f2                	c.lwsp	ra,28(sp)
     424:	6105                	c.addi16sp	sp,32
     426:	8082                	c.jr	ra
     428:	5571                	c.li	a0,-4
     42a:	8082                	c.jr	ra
     42c:	8082                	c.jr	ra

0000042e <rtl_crypto_aes_ofb_decrypt>:
     42e:	ce05                	c.beqz	a2,466 <rtl_crypto_aes_ofb_decrypt+0x38>
     430:	00367793          	andi	a5,a2,3
     434:	832a                	c.mv	t1,a0
     436:	5569                	c.li	a0,-6
     438:	eb8d                	c.bnez	a5,46a <rtl_crypto_aes_ofb_decrypt+0x3c>
     43a:	5571                	c.li	a0,-4
     43c:	02030763          	beq	t1,zero,46a <rtl_crypto_aes_ofb_decrypt+0x3c>
     440:	88ba                	c.mv	a7,a4
     442:	c705                	c.beqz	a4,46a <rtl_crypto_aes_ofb_decrypt+0x3c>
     444:	1101                	c.addi	sp,-32
     446:	20000537          	lui	a0,0x20000
     44a:	c002                	c.swsp	zero,0(sp)
     44c:	8736                	c.mv	a4,a3
     44e:	4801                	c.li	a6,0
     450:	86b2                	c.mv	a3,a2
     452:	3a050513          	addi	a0,a0,928 # 200003a0 <crypto_engine>
     456:	862e                	c.mv	a2,a1
     458:	859a                	c.mv	a1,t1
     45a:	ce06                	c.swsp	ra,28(sp)
     45c:	629010ef          	jal	ra,2284 <CRYPTO_CipherDecryptAD>
     460:	40f2                	c.lwsp	ra,28(sp)
     462:	6105                	c.addi16sp	sp,32
     464:	8082                	c.jr	ra
     466:	5571                	c.li	a0,-4
     468:	8082                	c.jr	ra
     46a:	8082                	c.jr	ra

0000046c <rtl_crypto_aes_gcm_init>:
     46c:	862a                	c.mv	a2,a0
     46e:	20000537          	lui	a0,0x20000
     472:	3a054703          	lbu	a4,928(a0) # 200003a0 <crypto_engine>
     476:	1101                	c.addi	sp,-32
     478:	cc22                	c.swsp	s0,24(sp)
     47a:	ce06                	c.swsp	ra,28(sp)
     47c:	4785                	c.li	a5,1
     47e:	86ae                	c.mv	a3,a1
     480:	842a                	c.mv	s0,a0
     482:	00f70d63          	beq	a4,a5,49c <rtl_crypto_aes_gcm_init+0x30>
     486:	0002d537          	lui	a0,0x2d
     48a:	c62e                	c.swsp	a1,12(sp)
     48c:	4f050513          	addi	a0,a0,1264 # 2d4f0 <__FUNCTION__.0>
     490:	1f800593          	addi	a1,zero,504
     494:	c432                	c.swsp	a2,8(sp)
     496:	2641                	c.jal	816 <io_assert_failed>
     498:	46b2                	c.lwsp	a3,12(sp)
     49a:	4622                	c.lwsp	a2,8(sp)
     49c:	c20d                	c.beqz	a2,4be <rtl_crypto_aes_gcm_init+0x52>
     49e:	00367793          	andi	a5,a2,3
     4a2:	e39d                	c.bnez	a5,4c8 <rtl_crypto_aes_gcm_init+0x5c>
     4a4:	02000793          	addi	a5,zero,32
     4a8:	02d7e263          	bltu	a5,a3,4cc <rtl_crypto_aes_gcm_init+0x60>
     4ac:	3a040513          	addi	a0,s0,928
     4b0:	4462                	c.lwsp	s0,24(sp)
     4b2:	40f2                	c.lwsp	ra,28(sp)
     4b4:	02800593          	addi	a1,zero,40
     4b8:	6105                	c.addi16sp	sp,32
     4ba:	5990106f          	jal	zero,2252 <CRYPTO_CipherInit>
     4be:	5571                	c.li	a0,-4
     4c0:	40f2                	c.lwsp	ra,28(sp)
     4c2:	4462                	c.lwsp	s0,24(sp)
     4c4:	6105                	c.addi16sp	sp,32
     4c6:	8082                	c.jr	ra
     4c8:	5569                	c.li	a0,-6
     4ca:	bfdd                	c.j	4c0 <rtl_crypto_aes_gcm_init+0x54>
     4cc:	5565                	c.li	a0,-7
     4ce:	bfcd                	c.j	4c0 <rtl_crypto_aes_gcm_init+0x54>

000004d0 <rtl_crypto_aes_gcm_encrypt>:
     4d0:	ca51                	c.beqz	a2,564 <rtl_crypto_aes_gcm_encrypt+0x94>
     4d2:	7139                	c.addi16sp	sp,-64
     4d4:	dc22                	c.swsp	s0,56(sp)
     4d6:	d64e                	c.swsp	s3,44(sp)
     4d8:	88be                	c.mv	a7,a5
     4da:	de06                	c.swsp	ra,60(sp)
     4dc:	da26                	c.swsp	s1,52(sp)
     4de:	d84a                	c.swsp	s2,48(sp)
     4e0:	d452                	c.swsp	s4,40(sp)
     4e2:	d256                	c.swsp	s5,36(sp)
     4e4:	00367793          	andi	a5,a2,3
     4e8:	842a                	c.mv	s0,a0
     4ea:	89ae                	c.mv	s3,a1
     4ec:	5569                	c.li	a0,-6
     4ee:	85b2                	c.mv	a1,a2
     4f0:	e3ad                	c.bnez	a5,552 <rtl_crypto_aes_gcm_encrypt+0x82>
     4f2:	5571                	c.li	a0,-4
     4f4:	cc39                	c.beqz	s0,552 <rtl_crypto_aes_gcm_encrypt+0x82>
     4f6:	0036f793          	andi	a5,a3,3
     4fa:	84b6                	c.mv	s1,a3
     4fc:	5569                	c.li	a0,-6
     4fe:	ebb1                	c.bnez	a5,552 <rtl_crypto_aes_gcm_encrypt+0x82>
     500:	ce46                	c.swsp	a7,28(sp)
     502:	5571                	c.li	a0,-4
     504:	04088763          	beq	a7,zero,552 <rtl_crypto_aes_gcm_encrypt+0x82>
     508:	8942                	c.mv	s2,a6
     50a:	04080463          	beq	a6,zero,552 <rtl_crypto_aes_gcm_encrypt+0x82>
     50e:	20000ab7          	lui	s5,0x20000
     512:	4631                	c.li	a2,12
     514:	508a8513          	addi	a0,s5,1288 # 20000508 <crypto_engine+0x168>
     518:	8a3a                	c.mv	s4,a4
     51a:	0f8090ef          	jal	ra,9612 <_memcpy>
     51e:	0002d5b7          	lui	a1,0x2d
     522:	20000537          	lui	a0,0x20000
     526:	4611                	c.li	a2,4
     528:	02058593          	addi	a1,a1,32 # 2d020 <gcm_iv_tail>
     52c:	51450513          	addi	a0,a0,1300 # 20000514 <crypto_engine+0x174>
     530:	0e2090ef          	jal	ra,9612 <_memcpy>
     534:	48f2                	c.lwsp	a7,28(sp)
     536:	20000537          	lui	a0,0x20000
     53a:	c04a                	c.swsp	s2,0(sp)
     53c:	8852                	c.mv	a6,s4
     53e:	87a6                	c.mv	a5,s1
     540:	4741                	c.li	a4,16
     542:	508a8693          	addi	a3,s5,1288
     546:	864e                	c.mv	a2,s3
     548:	85a2                	c.mv	a1,s0
     54a:	3a050513          	addi	a0,a0,928 # 200003a0 <crypto_engine>
     54e:	513010ef          	jal	ra,2260 <CRYPTO_CipherEncryptAD>
     552:	50f2                	c.lwsp	ra,60(sp)
     554:	5462                	c.lwsp	s0,56(sp)
     556:	54d2                	c.lwsp	s1,52(sp)
     558:	5942                	c.lwsp	s2,48(sp)
     55a:	59b2                	c.lwsp	s3,44(sp)
     55c:	5a22                	c.lwsp	s4,40(sp)
     55e:	5a92                	c.lwsp	s5,36(sp)
     560:	6121                	c.addi16sp	sp,64
     562:	8082                	c.jr	ra
     564:	5571                	c.li	a0,-4
     566:	8082                	c.jr	ra

00000568 <rtl_crypto_aes_gcm_decrypt>:
     568:	ca51                	c.beqz	a2,5fc <rtl_crypto_aes_gcm_decrypt+0x94>
     56a:	7139                	c.addi16sp	sp,-64
     56c:	dc22                	c.swsp	s0,56(sp)
     56e:	d64e                	c.swsp	s3,44(sp)
     570:	88be                	c.mv	a7,a5
     572:	de06                	c.swsp	ra,60(sp)
     574:	da26                	c.swsp	s1,52(sp)
     576:	d84a                	c.swsp	s2,48(sp)
     578:	d452                	c.swsp	s4,40(sp)
     57a:	d256                	c.swsp	s5,36(sp)
     57c:	00367793          	andi	a5,a2,3
     580:	842a                	c.mv	s0,a0
     582:	89ae                	c.mv	s3,a1
     584:	5569                	c.li	a0,-6
     586:	85b2                	c.mv	a1,a2
     588:	e3ad                	c.bnez	a5,5ea <rtl_crypto_aes_gcm_decrypt+0x82>
     58a:	5571                	c.li	a0,-4
     58c:	cc39                	c.beqz	s0,5ea <rtl_crypto_aes_gcm_decrypt+0x82>
     58e:	0036f793          	andi	a5,a3,3
     592:	84b6                	c.mv	s1,a3
     594:	5569                	c.li	a0,-6
     596:	ebb1                	c.bnez	a5,5ea <rtl_crypto_aes_gcm_decrypt+0x82>
     598:	ce46                	c.swsp	a7,28(sp)
     59a:	5571                	c.li	a0,-4
     59c:	04088763          	beq	a7,zero,5ea <rtl_crypto_aes_gcm_decrypt+0x82>
     5a0:	8942                	c.mv	s2,a6
     5a2:	04080463          	beq	a6,zero,5ea <rtl_crypto_aes_gcm_decrypt+0x82>
     5a6:	20000ab7          	lui	s5,0x20000
     5aa:	4631                	c.li	a2,12
     5ac:	508a8513          	addi	a0,s5,1288 # 20000508 <crypto_engine+0x168>
     5b0:	8a3a                	c.mv	s4,a4
     5b2:	060090ef          	jal	ra,9612 <_memcpy>
     5b6:	0002d5b7          	lui	a1,0x2d
     5ba:	20000537          	lui	a0,0x20000
     5be:	4611                	c.li	a2,4
     5c0:	02058593          	addi	a1,a1,32 # 2d020 <gcm_iv_tail>
     5c4:	51450513          	addi	a0,a0,1300 # 20000514 <crypto_engine+0x174>
     5c8:	04a090ef          	jal	ra,9612 <_memcpy>
     5cc:	48f2                	c.lwsp	a7,28(sp)
     5ce:	20000537          	lui	a0,0x20000
     5d2:	c04a                	c.swsp	s2,0(sp)
     5d4:	8852                	c.mv	a6,s4
     5d6:	87a6                	c.mv	a5,s1
     5d8:	4741                	c.li	a4,16
     5da:	508a8693          	addi	a3,s5,1288
     5de:	864e                	c.mv	a2,s3
     5e0:	85a2                	c.mv	a1,s0
     5e2:	3a050513          	addi	a0,a0,928 # 200003a0 <crypto_engine>
     5e6:	49f010ef          	jal	ra,2284 <CRYPTO_CipherDecryptAD>
     5ea:	50f2                	c.lwsp	ra,60(sp)
     5ec:	5462                	c.lwsp	s0,56(sp)
     5ee:	54d2                	c.lwsp	s1,52(sp)
     5f0:	5942                	c.lwsp	s2,48(sp)
     5f2:	59b2                	c.lwsp	s3,44(sp)
     5f4:	5a22                	c.lwsp	s4,40(sp)
     5f6:	5a92                	c.lwsp	s5,36(sp)
     5f8:	6121                	c.addi16sp	sp,64
     5fa:	8082                	c.jr	ra
     5fc:	5571                	c.li	a0,-4
     5fe:	8082                	c.jr	ra

00000600 <__NVIC_EnableIRQ>:
     600:	06f00793          	addi	a5,zero,111
     604:	00a7ed63          	bltu	a5,a0,61e <__NVIC_EnableIRQ+0x1e>
     608:	47fd                	c.li	a5,31
     60a:	00a7f563          	bgeu	a5,a0,614 <__NVIC_EnableIRQ+0x14>
     60e:	1501                	c.addi	a0,-32
     610:	14e0506f          	jal	zero,575e <plic_enable_irq>
     614:	4785                	c.li	a5,1
     616:	00a79533          	sll	a0,a5,a0
     61a:	30452573          	csrrs	a0,mie,a0
     61e:	8082                	c.jr	ra

00000620 <__NVIC_GetEnableIRQ>:
     620:	06f00793          	addi	a5,zero,111
     624:	02a7e163          	bltu	a5,a0,646 <__NVIC_GetEnableIRQ+0x26>
     628:	47fd                	c.li	a5,31
     62a:	00a7f563          	bgeu	a5,a0,634 <__NVIC_GetEnableIRQ+0x14>
     62e:	1501                	c.addi	a0,-32
     630:	0b80506f          	jal	zero,56e8 <plic_get_irq_enable>
     634:	30402773          	csrrs	a4,mie,zero
     638:	4785                	c.li	a5,1
     63a:	00a79533          	sll	a0,a5,a0
     63e:	8d79                	c.and	a0,a4
     640:	00a03533          	sltu	a0,zero,a0
     644:	8082                	c.jr	ra
     646:	4501                	c.li	a0,0
     648:	8082                	c.jr	ra

0000064a <__NVIC_DisableIRQ>:
     64a:	06f00793          	addi	a5,zero,111
     64e:	00a7ed63          	bltu	a5,a0,668 <__NVIC_DisableIRQ+0x1e>
     652:	47fd                	c.li	a5,31
     654:	00a7f563          	bgeu	a5,a0,65e <__NVIC_DisableIRQ+0x14>
     658:	1501                	c.addi	a0,-32
     65a:	0580506f          	jal	zero,56b2 <plic_disable_irq>
     65e:	4785                	c.li	a5,1
     660:	00a79533          	sll	a0,a5,a0
     664:	30453573          	csrrc	a0,mie,a0
     668:	8082                	c.jr	ra

0000066a <__NVIC_GetPendingIRQ>:
     66a:	06f00793          	addi	a5,zero,111
     66e:	02a7e163          	bltu	a5,a0,690 <__NVIC_GetPendingIRQ+0x26>
     672:	47fd                	c.li	a5,31
     674:	00a7f563          	bgeu	a5,a0,67e <__NVIC_GetPendingIRQ+0x14>
     678:	1501                	c.addi	a0,-32
     67a:	13c0506f          	jal	zero,57b6 <plic_get_irq_pending>
     67e:	34402773          	csrrs	a4,mip,zero
     682:	4785                	c.li	a5,1
     684:	00a79533          	sll	a0,a5,a0
     688:	8d79                	c.and	a0,a4
     68a:	00a03533          	sltu	a0,zero,a0
     68e:	8082                	c.jr	ra
     690:	4501                	c.li	a0,0
     692:	8082                	c.jr	ra

00000694 <__NVIC_SetPendingIRQ>:
     694:	06f00793          	addi	a5,zero,111
     698:	02a7e063          	bltu	a5,a0,6b8 <__NVIC_SetPendingIRQ+0x24>
     69c:	478d                	c.li	a5,3
     69e:	00f51563          	bne	a0,a5,6a8 <__NVIC_SetPendingIRQ+0x14>
     6a2:	557d                	c.li	a0,-1
     6a4:	2020506f          	jal	zero,58a6 <plic_set_sip>
     6a8:	47fd                	c.li	a5,31
     6aa:	00a7e763          	bltu	a5,a0,6b8 <__NVIC_SetPendingIRQ+0x24>
     6ae:	4785                	c.li	a5,1
     6b0:	00a79533          	sll	a0,a5,a0
     6b4:	34452573          	csrrs	a0,mip,a0
     6b8:	8082                	c.jr	ra

000006ba <__NVIC_ClearPendingIRQ>:
     6ba:	06f00793          	addi	a5,zero,111
     6be:	02a7e063          	bltu	a5,a0,6de <__NVIC_ClearPendingIRQ+0x24>
     6c2:	478d                	c.li	a5,3
     6c4:	00f51563          	bne	a0,a5,6ce <__NVIC_ClearPendingIRQ+0x14>
     6c8:	557d                	c.li	a0,-1
     6ca:	1f60506f          	jal	zero,58c0 <plic_clear_sip>
     6ce:	47fd                	c.li	a5,31
     6d0:	00a7e763          	bltu	a5,a0,6de <__NVIC_ClearPendingIRQ+0x24>
     6d4:	4785                	c.li	a5,1
     6d6:	00a79533          	sll	a0,a5,a0
     6da:	34453573          	csrrc	a0,mip,a0
     6de:	8082                	c.jr	ra

000006e0 <__NVIC_GetActive>:
     6e0:	06f00793          	addi	a5,zero,111
     6e4:	00a7d963          	bge	a5,a0,6f6 <__NVIC_GetActive+0x16>
     6e8:	4501                	c.li	a0,0
     6ea:	8082                	c.jr	ra
     6ec:	4501                	c.li	a0,0
     6ee:	40b2                	c.lwsp	ra,12(sp)
     6f0:	4422                	c.lwsp	s0,8(sp)
     6f2:	0141                	c.addi	sp,16
     6f4:	8082                	c.jr	ra
     6f6:	1141                	c.addi	sp,-16
     6f8:	c422                	c.swsp	s0,8(sp)
     6fa:	c606                	c.swsp	ra,12(sp)
     6fc:	842a                	c.mv	s0,a0
     6fe:	34202773          	csrrs	a4,mcause,zero
     702:	00171513          	slli	a0,a4,0x1
     706:	00155793          	srli	a5,a0,0x1
     70a:	00045a63          	bge	s0,zero,71e <__NVIC_GetActive+0x3e>
     70e:	fc074fe3          	blt	a4,zero,6ec <__NVIC_GetActive+0xc>
     712:	01040513          	addi	a0,s0,16
     716:	8d1d                	c.sub	a0,a5
     718:	00153513          	sltiu	a0,a0,1
     71c:	bfc9                	c.j	6ee <__NVIC_GetActive+0xe>
     71e:	344026f3          	csrrs	a3,mip,zero
     722:	d6e9                	c.beqz	a3,6ec <__NVIC_GetActive+0xc>
     724:	fc0754e3          	bge	a4,zero,6ec <__NVIC_GetActive+0xc>
     728:	477d                	c.li	a4,31
     72a:	40f40533          	sub	a0,s0,a5
     72e:	fe8755e3          	bge	a4,s0,718 <__NVIC_GetActive+0x38>
     732:	1c8050ef          	jal	ra,58fa <plic_get_active_irq_id>
     736:	02050513          	addi	a0,a0,32
     73a:	8d01                	c.sub	a0,s0
     73c:	bff1                	c.j	718 <__NVIC_GetActive+0x38>

0000073e <__NVIC_SetPriority>:
     73e:	1501                	c.addi	a0,-32
     740:	04f00793          	addi	a5,zero,79
     744:	00a7e863          	bltu	a5,a0,754 <__NVIC_SetPriority+0x16>
     748:	479d                	c.li	a5,7
     74a:	00b7f363          	bgeu	a5,a1,750 <__NVIC_SetPriority+0x12>
     74e:	459d                	c.li	a1,7
     750:	7ed0406f          	jal	zero,573c <plic_set_irq_priority>
     754:	8082                	c.jr	ra

00000756 <__NVIC_GetPriority>:
     756:	47fd                	c.li	a5,31
     758:	00a7d563          	bge	a5,a0,762 <__NVIC_GetPriority+0xc>
     75c:	1501                	c.addi	a0,-32
     75e:	0480506f          	jal	zero,57a6 <plic_get_irq_priority>
     762:	4501                	c.li	a0,0
     764:	8082                	c.jr	ra

00000766 <__NVIC_SetVector>:
     766:	06f00793          	addi	a5,zero,111
     76a:	00a7e963          	bltu	a5,a0,77c <__NVIC_SetVector+0x16>
     76e:	200007b7          	lui	a5,0x20000
     772:	050a                	c.slli	a0,0x2
     774:	00078793          	addi	a5,a5,0 # 20000000 <UserIrqFunTable>
     778:	953e                	c.add	a0,a5
     77a:	c10c                	c.sw	a1,0(a0)
     77c:	8082                	c.jr	ra

0000077e <__NVIC_GetVector>:
     77e:	06f00793          	addi	a5,zero,111
     782:	00a7ea63          	bltu	a5,a0,796 <__NVIC_GetVector+0x18>
     786:	200007b7          	lui	a5,0x20000
     78a:	00078793          	addi	a5,a5,0 # 20000000 <UserIrqFunTable>
     78e:	050a                	c.slli	a0,0x2
     790:	953e                	c.add	a0,a5
     792:	4108                	c.lw	a0,0(a0)
     794:	8082                	c.jr	ra
     796:	4501                	c.li	a0,0
     798:	8082                	c.jr	ra

0000079a <__NVIC_SetVectorArg>:
     79a:	06f00793          	addi	a5,zero,111
     79e:	00a7e963          	bltu	a5,a0,7b0 <__NVIC_SetVectorArg+0x16>
     7a2:	200007b7          	lui	a5,0x20000
     7a6:	050a                	c.slli	a0,0x2
     7a8:	1c078793          	addi	a5,a5,448 # 200001c0 <UserIrqDataTable>
     7ac:	953e                	c.add	a0,a5
     7ae:	c10c                	c.sw	a1,0(a0)
     7b0:	8082                	c.jr	ra

000007b2 <__NVIC_GetVectorArg>:
     7b2:	06f00793          	addi	a5,zero,111
     7b6:	00a7ea63          	bltu	a5,a0,7ca <__NVIC_GetVectorArg+0x18>
     7ba:	200007b7          	lui	a5,0x20000
     7be:	1c078793          	addi	a5,a5,448 # 200001c0 <UserIrqDataTable>
     7c2:	050a                	c.slli	a0,0x2
     7c4:	953e                	c.add	a0,a5
     7c6:	4108                	c.lw	a0,0(a0)
     7c8:	8082                	c.jr	ra
     7ca:	4501                	c.li	a0,0
     7cc:	8082                	c.jr	ra

000007ce <sys_irq_dispatch>:
     7ce:	1101                	c.addi	sp,-32
     7d0:	ce06                	c.swsp	ra,28(sp)
     7d2:	cc22                	c.swsp	s0,24(sp)
     7d4:	c62a                	c.swsp	a0,12(sp)
     7d6:	3765                	c.jal	77e <__NVIC_GetVector>
     7d8:	45b2                	c.lwsp	a1,12(sp)
     7da:	c909                	c.beqz	a0,7ec <sys_irq_dispatch+0x1e>
     7dc:	842a                	c.mv	s0,a0
     7de:	852e                	c.mv	a0,a1
     7e0:	3fc9                	c.jal	7b2 <__NVIC_GetVectorArg>
     7e2:	87a2                	c.mv	a5,s0
     7e4:	4462                	c.lwsp	s0,24(sp)
     7e6:	40f2                	c.lwsp	ra,28(sp)
     7e8:	6105                	c.addi16sp	sp,32
     7ea:	8782                	c.jr	a5
     7ec:	200017b7          	lui	a5,0x20001
     7f0:	ad87a703          	lw	a4,-1320(a5) # 20000ad8 <ConfigDebug>
     7f4:	000207b7          	lui	a5,0x20
     7f8:	8ff9                	c.and	a5,a4
     7fa:	cb91                	c.beqz	a5,80e <sys_irq_dispatch+0x40>
     7fc:	4462                	c.lwsp	s0,24(sp)
     7fe:	40f2                	c.lwsp	ra,28(sp)
     800:	0002d537          	lui	a0,0x2d
     804:	50850513          	addi	a0,a0,1288 # 2d508 <__FUNCTION__.0+0x18>
     808:	6105                	c.addi16sp	sp,32
     80a:	04e0806f          	jal	zero,8858 <DiagPrintf>
     80e:	40f2                	c.lwsp	ra,28(sp)
     810:	4462                	c.lwsp	s0,24(sp)
     812:	6105                	c.addi16sp	sp,32
     814:	8082                	c.jr	ra

00000816 <io_assert_failed>:
     816:	200017b7          	lui	a5,0x20001
     81a:	ad87a703          	lw	a4,-1320(a5) # 20000ad8 <ConfigDebug>
     81e:	000207b7          	lui	a5,0x20
     822:	8ff9                	c.and	a5,a4
     824:	cf81                	c.beqz	a5,83c <io_assert_failed+0x26>
     826:	862e                	c.mv	a2,a1
     828:	85aa                	c.mv	a1,a0
     82a:	0002d537          	lui	a0,0x2d
     82e:	1141                	c.addi	sp,-16
     830:	53050513          	addi	a0,a0,1328 # 2d530 <__FUNCTION__.0+0x40>
     834:	c606                	c.swsp	ra,12(sp)
     836:	022080ef          	jal	ra,8858 <DiagPrintf>
     83a:	a001                	c.j	83a <io_assert_failed+0x24>
     83c:	a001                	c.j	83c <io_assert_failed+0x26>

0000083e <BKUP_Write>:
     83e:	1141                	c.addi	sp,-16
     840:	c422                	c.swsp	s0,8(sp)
     842:	c226                	c.swsp	s1,4(sp)
     844:	c606                	c.swsp	ra,12(sp)
     846:	478d                	c.li	a5,3
     848:	842a                	c.mv	s0,a0
     84a:	84ae                	c.mv	s1,a1
     84c:	00a7f863          	bgeu	a5,a0,85c <BKUP_Write+0x1e>
     850:	0002d537          	lui	a0,0x2d
     854:	45fd                	c.li	a1,31
     856:	56850513          	addi	a0,a0,1384 # 2d568 <__FUNCTION__.3>
     85a:	3f75                	c.jal	816 <io_assert_failed>
     85c:	4100c537          	lui	a0,0x4100c
     860:	040a                	c.slli	s0,0x2
     862:	0e050513          	addi	a0,a0,224 # 4100c0e0 <__retention_entry_func__+0x1ffec0e0>
     866:	942a                	c.add	s0,a0
     868:	c004                	c.sw	s1,0(s0)
     86a:	40b2                	c.lwsp	ra,12(sp)
     86c:	4422                	c.lwsp	s0,8(sp)
     86e:	4492                	c.lwsp	s1,4(sp)
     870:	0141                	c.addi	sp,16
     872:	8082                	c.jr	ra

00000874 <BKUP_Read>:
     874:	1141                	c.addi	sp,-16
     876:	c422                	c.swsp	s0,8(sp)
     878:	c606                	c.swsp	ra,12(sp)
     87a:	478d                	c.li	a5,3
     87c:	842a                	c.mv	s0,a0
     87e:	00a7f963          	bgeu	a5,a0,890 <BKUP_Read+0x1c>
     882:	0002d537          	lui	a0,0x2d
     886:	02e00593          	addi	a1,zero,46
     88a:	57450513          	addi	a0,a0,1396 # 2d574 <__FUNCTION__.2>
     88e:	3761                	c.jal	816 <io_assert_failed>
     890:	4100c537          	lui	a0,0x4100c
     894:	0e050513          	addi	a0,a0,224 # 4100c0e0 <__retention_entry_func__+0x1ffec0e0>
     898:	040a                	c.slli	s0,0x2
     89a:	942a                	c.add	s0,a0
     89c:	4008                	c.lw	a0,0(s0)
     89e:	40b2                	c.lwsp	ra,12(sp)
     8a0:	4422                	c.lwsp	s0,8(sp)
     8a2:	0141                	c.addi	sp,16
     8a4:	8082                	c.jr	ra

000008a6 <BKUP_Set>:
     8a6:	1141                	c.addi	sp,-16
     8a8:	c422                	c.swsp	s0,8(sp)
     8aa:	c226                	c.swsp	s1,4(sp)
     8ac:	c606                	c.swsp	ra,12(sp)
     8ae:	478d                	c.li	a5,3
     8b0:	842a                	c.mv	s0,a0
     8b2:	84ae                	c.mv	s1,a1
     8b4:	00a7f963          	bgeu	a5,a0,8c6 <BKUP_Set+0x20>
     8b8:	0002d537          	lui	a0,0x2d
     8bc:	03e00593          	addi	a1,zero,62
     8c0:	58050513          	addi	a0,a0,1408 # 2d580 <__FUNCTION__.1>
     8c4:	3f89                	c.jal	816 <io_assert_failed>
     8c6:	4100c537          	lui	a0,0x4100c
     8ca:	040a                	c.slli	s0,0x2
     8cc:	0e050513          	addi	a0,a0,224 # 4100c0e0 <__retention_entry_func__+0x1ffec0e0>
     8d0:	942a                	c.add	s0,a0
     8d2:	401c                	c.lw	a5,0(s0)
     8d4:	40b2                	c.lwsp	ra,12(sp)
     8d6:	0097e5b3          	or	a1,a5,s1
     8da:	c00c                	c.sw	a1,0(s0)
     8dc:	4422                	c.lwsp	s0,8(sp)
     8de:	4492                	c.lwsp	s1,4(sp)
     8e0:	0141                	c.addi	sp,16
     8e2:	8082                	c.jr	ra

000008e4 <BKUP_Clear>:
     8e4:	1141                	c.addi	sp,-16
     8e6:	c422                	c.swsp	s0,8(sp)
     8e8:	c226                	c.swsp	s1,4(sp)
     8ea:	c606                	c.swsp	ra,12(sp)
     8ec:	478d                	c.li	a5,3
     8ee:	842a                	c.mv	s0,a0
     8f0:	84ae                	c.mv	s1,a1
     8f2:	00a7f963          	bgeu	a5,a0,904 <BKUP_Clear+0x20>
     8f6:	0002d537          	lui	a0,0x2d
     8fa:	04e00593          	addi	a1,zero,78
     8fe:	58c50513          	addi	a0,a0,1420 # 2d58c <__FUNCTION__.0>
     902:	3f11                	c.jal	816 <io_assert_failed>
     904:	4100c537          	lui	a0,0x4100c
     908:	040a                	c.slli	s0,0x2
     90a:	0e050513          	addi	a0,a0,224 # 4100c0e0 <__retention_entry_func__+0x1ffec0e0>
     90e:	942a                	c.add	s0,a0
     910:	400c                	c.lw	a1,0(s0)
     912:	fff4c493          	xori	s1,s1,-1
     916:	40b2                	c.lwsp	ra,12(sp)
     918:	8ced                	c.and	s1,a1
     91a:	c004                	c.sw	s1,0(s0)
     91c:	4422                	c.lwsp	s0,8(sp)
     91e:	4492                	c.lwsp	s1,4(sp)
     920:	0141                	c.addi	sp,16
     922:	8082                	c.jr	ra

00000924 <BOOT_ROM_InitDebugFlg>:
     924:	410007b7          	lui	a5,0x41000
     928:	1007a783          	lw	a5,256(a5) # 41000100 <__retention_entry_func__+0x1ffe0100>
     92c:	01000737          	lui	a4,0x1000
     930:	8ff9                	c.and	a5,a4
     932:	e791                	c.bnez	a5,93e <BOOT_ROM_InitDebugFlg+0x1a>
     934:	200017b7          	lui	a5,0x20001
     938:	577d                	c.li	a4,-1
     93a:	ace7ac23          	sw	a4,-1320(a5) # 20000ad8 <ConfigDebug>
     93e:	8082                	c.jr	ra

00000940 <BOOT_ROM_ResetVsr>:
     940:	1141                	c.addi	sp,-16
     942:	c606                	c.swsp	ra,12(sp)
     944:	0ff0000f          	fence	iorw,iorw
     948:	0001                	c.addi	zero,0
     94a:	0001                	c.addi	zero,0
     94c:	0001                	c.addi	zero,0
     94e:	0001                	c.addi	zero,0
     950:	0001                	c.addi	zero,0
     952:	0001                	c.addi	zero,0
     954:	0001                	c.addi	zero,0
     956:	0001                	c.addi	zero,0
     958:	0001                	c.addi	zero,0
     95a:	0001                	c.addi	zero,0
     95c:	0001                	c.addi	zero,0
     95e:	7c00e7f3          	csrrsi	a5,0x7c0,1
     962:	0ff0000f          	fence	iorw,iorw
     966:	0001                	c.addi	zero,0
     968:	0001                	c.addi	zero,0
     96a:	0001                	c.addi	zero,0
     96c:	0001                	c.addi	zero,0
     96e:	0001                	c.addi	zero,0
     970:	0001                	c.addi	zero,0
     972:	0001                	c.addi	zero,0
     974:	0001                	c.addi	zero,0
     976:	0001                	c.addi	zero,0
     978:	0001                	c.addi	zero,0
     97a:	0001                	c.addi	zero,0
     97c:	7c0167f3          	csrrsi	a5,0x7c0,2
     980:	0ff0000f          	fence	iorw,iorw
     984:	0001                	c.addi	zero,0
     986:	0001                	c.addi	zero,0
     988:	0001                	c.addi	zero,0
     98a:	0001                	c.addi	zero,0
     98c:	0001                	c.addi	zero,0
     98e:	0001                	c.addi	zero,0
     990:	0001                	c.addi	zero,0
     992:	0001                	c.addi	zero,0
     994:	0001                	c.addi	zero,0
     996:	0001                	c.addi	zero,0
     998:	0001                	c.addi	zero,0
     99a:	10000793          	addi	a5,zero,256
     99e:	7c17b7f3          	csrrc	a5,0x7c1,a5
     9a2:	0ff0000f          	fence	iorw,iorw
     9a6:	0001                	c.addi	zero,0
     9a8:	0001                	c.addi	zero,0
     9aa:	0001                	c.addi	zero,0
     9ac:	0001                	c.addi	zero,0
     9ae:	0001                	c.addi	zero,0
     9b0:	0001                	c.addi	zero,0
     9b2:	0001                	c.addi	zero,0
     9b4:	0001                	c.addi	zero,0
     9b6:	0001                	c.addi	zero,0
     9b8:	0001                	c.addi	zero,0
     9ba:	0001                	c.addi	zero,0
     9bc:	7c0467f3          	csrrsi	a5,0x7c0,8
     9c0:	0ff0000f          	fence	iorw,iorw
     9c4:	0001                	c.addi	zero,0
     9c6:	0001                	c.addi	zero,0
     9c8:	0001                	c.addi	zero,0
     9ca:	0001                	c.addi	zero,0
     9cc:	0001                	c.addi	zero,0
     9ce:	0001                	c.addi	zero,0
     9d0:	0001                	c.addi	zero,0
     9d2:	0001                	c.addi	zero,0
     9d4:	0001                	c.addi	zero,0
     9d6:	0001                	c.addi	zero,0
     9d8:	0001                	c.addi	zero,0
     9da:	4100c7b7          	lui	a5,0x4100c
     9de:	26c7a783          	lw	a5,620(a5) # 4100c26c <__retention_entry_func__+0x1ffec26c>
     9e2:	01000737          	lui	a4,0x1000
     9e6:	8ff9                	c.and	a5,a4
     9e8:	c785                	c.beqz	a5,a10 <BOOT_ROM_ResetVsr+0xd0>
     9ea:	200407b7          	lui	a5,0x20040
     9ee:	02078793          	addi	a5,a5,32 # 20040020 <__kr4_image2_entry_func__>
     9f2:	0057c703          	lbu	a4,5(a5)
     9f6:	0047c683          	lbu	a3,4(a5)
     9fa:	0722                	c.slli	a4,0x8
     9fc:	8ed9                	c.or	a3,a4
     9fe:	0067c703          	lbu	a4,6(a5)
     a02:	0077c783          	lbu	a5,7(a5)
     a06:	0742                	c.slli	a4,0x10
     a08:	8f55                	c.or	a4,a3
     a0a:	07e2                	c.slli	a5,0x18
     a0c:	8fd9                	c.or	a5,a4
     a0e:	9782                	c.jalr	a5
     a10:	4100c737          	lui	a4,0x4100c
     a14:	020005b7          	lui	a1,0x2000
     a18:	26c72783          	lw	a5,620(a4) # 4100c26c <__retention_entry_func__+0x1ffec26c>
     a1c:	26c70693          	addi	a3,a4,620
     a20:	00b7f633          	and	a2,a5,a1
     a24:	da75                	c.beqz	a2,a18 <BOOT_ROM_ResetVsr+0xd8>
     a26:	fe000737          	lui	a4,0xfe000
     a2a:	177d                	c.addi	a4,-1
     a2c:	8ff9                	c.and	a5,a4
     a2e:	c29c                	c.sw	a5,0(a3)
     a30:	200407b7          	lui	a5,0x20040
     a34:	02078793          	addi	a5,a5,32 # 20040020 <__kr4_image2_entry_func__>
     a38:	0157c703          	lbu	a4,21(a5)
     a3c:	0147c683          	lbu	a3,20(a5)
     a40:	40b2                	c.lwsp	ra,12(sp)
     a42:	0722                	c.slli	a4,0x8
     a44:	8ed9                	c.or	a3,a4
     a46:	0167c703          	lbu	a4,22(a5)
     a4a:	0177c783          	lbu	a5,23(a5)
     a4e:	0742                	c.slli	a4,0x10
     a50:	8f55                	c.or	a4,a3
     a52:	07e2                	c.slli	a5,0x18
     a54:	8fd9                	c.or	a5,a4
     a56:	0141                	c.addi	sp,16
     a58:	8782                	c.jr	a5

00000a5a <XTAL_ClkGet>:
     a5a:	4100c7b7          	lui	a5,0x4100c
     a5e:	21c7a783          	lw	a5,540(a5) # 4100c21c <__retention_entry_func__+0x1ffec21c>
     a62:	8bbd                	c.andi	a5,15
     a64:	00279713          	slli	a4,a5,0x2
     a68:	0002d7b7          	lui	a5,0x2d
     a6c:	02478793          	addi	a5,a5,36 # 2d024 <XTAL_CLK>
     a70:	97ba                	c.add	a5,a4
     a72:	4388                	c.lw	a0,0(a5)
     a74:	8082                	c.jr	ra

00000a76 <CPU_ClkSrc_Set>:
     a76:	4100c737          	lui	a4,0x4100c
     a7a:	21872783          	lw	a5,536(a4) # 4100c218 <__retention_entry_func__+0x1ffec218>
     a7e:	0506                	c.slli	a0,0x1
     a80:	8919                	c.andi	a0,6
     a82:	9be5                	c.andi	a5,-7
     a84:	8d5d                	c.or	a0,a5
     a86:	20a72c23          	sw	a0,536(a4)
     a8a:	8082                	c.jr	ra

00000a8c <CPU_ClkSrc_Get>:
     a8c:	4100c7b7          	lui	a5,0x4100c
     a90:	2187a503          	lw	a0,536(a5) # 4100c218 <__retention_entry_func__+0x1ffec218>
     a94:	8105                	c.srli	a0,0x1
     a96:	890d                	c.andi	a0,3
     a98:	8082                	c.jr	ra

00000a9a <PLL_ClkGet>:
     a9a:	1141                	c.addi	sp,-16
     a9c:	c606                	c.swsp	ra,12(sp)
     a9e:	c422                	c.swsp	s0,8(sp)
     aa0:	c226                	c.swsp	s1,4(sp)
     aa2:	c04a                	c.swsp	s2,0(sp)
     aa4:	4709                	c.li	a4,2
     aa6:	04e51563          	bne	a0,a4,af0 <PLL_ClkGet+0x56>
     aaa:	4100c7b7          	lui	a5,0x4100c
     aae:	44078793          	addi	a5,a5,1088 # 4100c440 <__retention_entry_func__+0x1ffec440>
     ab2:	43c0                	c.lw	s0,4(a5)
     ab4:	00c7a903          	lw	s2,12(a5)
     ab8:	47c4                	c.lw	s1,12(a5)
     aba:	8015                	c.srli	s0,0x5
     abc:	03f47413          	andi	s0,s0,63
     ac0:	01395913          	srli	s2,s2,0x13
     ac4:	3f59                	c.jal	a5a <XTAL_ClkGet>
     ac6:	80c1                	c.srli	s1,0x10
     ac8:	00355793          	srli	a5,a0,0x3
     acc:	889d                	c.andi	s1,7
     ace:	029784b3          	mul	s1,a5,s1
     ad2:	01055793          	srli	a5,a0,0x10
     ad6:	0409                	c.addi	s0,2
     ad8:	03278933          	mul	s2,a5,s2
     adc:	02a40533          	mul	a0,s0,a0
     ae0:	94ca                	c.add	s1,s2
     ae2:	9526                	c.add	a0,s1
     ae4:	40b2                	c.lwsp	ra,12(sp)
     ae6:	4422                	c.lwsp	s0,8(sp)
     ae8:	4492                	c.lwsp	s1,4(sp)
     aea:	4902                	c.lwsp	s2,0(sp)
     aec:	0141                	c.addi	sp,16
     aee:	8082                	c.jr	ra
     af0:	87aa                	c.mv	a5,a0
     af2:	470d                	c.li	a4,3
     af4:	4501                	c.li	a0,0
     af6:	fee797e3          	bne	a5,a4,ae4 <PLL_ClkGet+0x4a>
     afa:	4100c7b7          	lui	a5,0x4100c
     afe:	44078793          	addi	a5,a5,1088 # 4100c440 <__retention_entry_func__+0x1ffec440>
     b02:	4bc0                	c.lw	s0,20(a5)
     b04:	01c7a903          	lw	s2,28(a5)
     b08:	4fc4                	c.lw	s1,28(a5)
     b0a:	8015                	c.srli	s0,0x5
     b0c:	03f47413          	andi	s0,s0,63
     b10:	01395913          	srli	s2,s2,0x13
     b14:	bf45                	c.j	ac4 <PLL_ClkGet+0x2a>

00000b16 <CPU_ClkGet>:
     b16:	1141                	c.addi	sp,-16
     b18:	c04a                	c.swsp	s2,0(sp)
     b1a:	4100c937          	lui	s2,0x4100c
     b1e:	c422                	c.swsp	s0,8(sp)
     b20:	c226                	c.swsp	s1,4(sp)
     b22:	21892483          	lw	s1,536(s2) # 4100c218 <__retention_entry_func__+0x1ffec218>
     b26:	22892403          	lw	s0,552(s2)
     b2a:	c606                	c.swsp	ra,12(sp)
     b2c:	7f3050ef          	jal	ra,6b1e <SYSCFG_CHIPType_Get>
     b30:	8019                	c.srli	s0,0x6
     b32:	4785                	c.li	a5,1
     b34:	880d                	c.andi	s0,3
     b36:	02f51963          	bne	a0,a5,b68 <CPU_ClkGet+0x52>
     b3a:	2b492703          	lw	a4,692(s2)
     b3e:	01875793          	srli	a5,a4,0x18
     b42:	00a41663          	bne	s0,a0,b4e <CPU_ClkGet+0x38>
     b46:	01075513          	srli	a0,a4,0x10
     b4a:	0ff57793          	andi	a5,a0,255
     b4e:	cfa9                	c.beqz	a5,ba8 <CPU_ClkGet+0x92>
     b50:	000f4537          	lui	a0,0xf4
     b54:	24050513          	addi	a0,a0,576 # f4240 <secp192k1_a+0xc5034>
     b58:	02a78533          	mul	a0,a5,a0
     b5c:	40b2                	c.lwsp	ra,12(sp)
     b5e:	4422                	c.lwsp	s0,8(sp)
     b60:	4492                	c.lwsp	s1,4(sp)
     b62:	4902                	c.lwsp	s2,0(sp)
     b64:	0141                	c.addi	sp,16
     b66:	8082                	c.jr	ra
     b68:	22092503          	lw	a0,544(s2)
     b6c:	02f41463          	bne	s0,a5,b94 <CPU_ClkGet+0x7e>
     b70:	0014d793          	srli	a5,s1,0x1
     b74:	893d                	c.andi	a0,15
     b76:	8b8d                	c.andi	a5,3
     b78:	4709                	c.li	a4,2
     b7a:	00150413          	addi	s0,a0,1
     b7e:	4509                	c.li	a0,2
     b80:	00e78663          	beq	a5,a4,b8c <CPU_ClkGet+0x76>
     b84:	470d                	c.li	a4,3
     b86:	00e79963          	bne	a5,a4,b98 <CPU_ClkGet+0x82>
     b8a:	450d                	c.li	a0,3
     b8c:	3739                	c.jal	a9a <PLL_ClkGet>
     b8e:	02855533          	divu	a0,a0,s0
     b92:	b7e9                	c.j	b5c <CPU_ClkGet+0x46>
     b94:	8111                	c.srli	a0,0x4
     b96:	bfe9                	c.j	b70 <CPU_ClkGet+0x5a>
     b98:	8885                	c.andi	s1,1
     b9a:	cc81                	c.beqz	s1,bb2 <CPU_ClkGet+0x9c>
     b9c:	4422                	c.lwsp	s0,8(sp)
     b9e:	40b2                	c.lwsp	ra,12(sp)
     ba0:	4492                	c.lwsp	s1,4(sp)
     ba2:	4902                	c.lwsp	s2,0(sp)
     ba4:	0141                	c.addi	sp,16
     ba6:	bd55                	c.j	a5a <XTAL_ClkGet>
     ba8:	02626537          	lui	a0,0x2626
     bac:	a0050513          	addi	a0,a0,-1536 # 2625a00 <secp192k1_a+0x25f67f4>
     bb0:	b775                	c.j	b5c <CPU_ClkGet+0x46>
     bb2:	003d1537          	lui	a0,0x3d1
     bb6:	90050513          	addi	a0,a0,-1792 # 3d0900 <secp192k1_a+0x3a16f4>
     bba:	b74d                	c.j	b5c <CPU_ClkGet+0x46>

00000bbc <CRYPTO_MemDump>:
     bbc:	16050763          	beq	a0,zero,d2a <CRYPTO_MemDump+0x16e>
     bc0:	715d                	c.addi16sp	sp,-80
     bc2:	c4a2                	c.swsp	s0,72(sp)
     bc4:	c686                	c.swsp	ra,76(sp)
     bc6:	c2a6                	c.swsp	s1,68(sp)
     bc8:	c0ca                	c.swsp	s2,64(sp)
     bca:	de4e                	c.swsp	s3,60(sp)
     bcc:	dc52                	c.swsp	s4,56(sp)
     bce:	da56                	c.swsp	s5,52(sp)
     bd0:	d85a                	c.swsp	s6,48(sp)
     bd2:	d65e                	c.swsp	s7,44(sp)
     bd4:	d462                	c.swsp	s8,40(sp)
     bd6:	d266                	c.swsp	s9,36(sp)
     bd8:	d06a                	c.swsp	s10,32(sp)
     bda:	ce6e                	c.swsp	s11,28(sp)
     bdc:	842e                	c.mv	s0,a1
     bde:	12058763          	beq	a1,zero,d0c <CRYPTO_MemDump+0x150>
     be2:	20001737          	lui	a4,0x20001
     be6:	892a                	c.mv	s2,a0
     be8:	85b2                	c.mv	a1,a2
     bea:	ad870c93          	addi	s9,a4,-1320 # 20000ad8 <ConfigDebug>
     bee:	ce09                	c.beqz	a2,c08 <CRYPTO_MemDump+0x4c>
     bf0:	000ca683          	lw	a3,0(s9)
     bf4:	000207b7          	lui	a5,0x20
     bf8:	8ff5                	c.and	a5,a3
     bfa:	c799                	c.beqz	a5,c08 <CRYPTO_MemDump+0x4c>
     bfc:	0002d537          	lui	a0,0x2d
     c00:	59850513          	addi	a0,a0,1432 # 2d598 <__FUNCTION__.0+0xc>
     c04:	455070ef          	jal	ra,8858 <DiagPrintf>
     c08:	00f47a13          	andi	s4,s0,15
     c0c:	8011                	c.srli	s0,0x4
     c0e:	00140793          	addi	a5,s0,1
     c12:	c63e                	c.swsp	a5,12(sp)
     c14:	4481                	c.li	s1,0
     c16:	4ac1                	c.li	s5,16
     c18:	0002db37          	lui	s6,0x2d
     c1c:	00449993          	slli	s3,s1,0x4
     c20:	99ca                	c.add	s3,s2
     c22:	4bc1                	c.li	s7,16
     c24:	02941f63          	bne	s0,s1,c62 <CRYPTO_MemDump+0xa6>
     c28:	020a1c63          	bne	s4,zero,c60 <CRYPTO_MemDump+0xa4>
     c2c:	000ca703          	lw	a4,0(s9)
     c30:	000207b7          	lui	a5,0x20
     c34:	8ff9                	c.and	a5,a4
     c36:	cbf9                	c.beqz	a5,d0c <CRYPTO_MemDump+0x150>
     c38:	4426                	c.lwsp	s0,72(sp)
     c3a:	40b6                	c.lwsp	ra,76(sp)
     c3c:	4496                	c.lwsp	s1,68(sp)
     c3e:	4906                	c.lwsp	s2,64(sp)
     c40:	59f2                	c.lwsp	s3,60(sp)
     c42:	5a62                	c.lwsp	s4,56(sp)
     c44:	5ad2                	c.lwsp	s5,52(sp)
     c46:	5b42                	c.lwsp	s6,48(sp)
     c48:	5bb2                	c.lwsp	s7,44(sp)
     c4a:	5c22                	c.lwsp	s8,40(sp)
     c4c:	5c92                	c.lwsp	s9,36(sp)
     c4e:	5d02                	c.lwsp	s10,32(sp)
     c50:	4df2                	c.lwsp	s11,28(sp)
     c52:	0002d537          	lui	a0,0x2d
     c56:	5bc50513          	addi	a0,a0,1468 # 2d5bc <__FUNCTION__.0+0x30>
     c5a:	6161                	c.addi16sp	sp,80
     c5c:	3fd0706f          	jal	zero,8858 <DiagPrintf>
     c60:	8bd2                	c.mv	s7,s4
     c62:	000ca683          	lw	a3,0(s9)
     c66:	000207b7          	lui	a5,0x20
     c6a:	8ff5                	c.and	a5,a3
     c6c:	cb81                	c.beqz	a5,c7c <CRYPTO_MemDump+0xc0>
     c6e:	0002d7b7          	lui	a5,0x2d
     c72:	85ce                	c.mv	a1,s3
     c74:	59c78513          	addi	a0,a5,1436 # 2d59c <__FUNCTION__.0+0x10>
     c78:	3e1070ef          	jal	ra,8858 <DiagPrintf>
     c7c:	4d01                	c.li	s10,0
     c7e:	4da1                	c.li	s11,8
     c80:	00020c37          	lui	s8,0x20
     c84:	01bd1b63          	bne	s10,s11,c9a <CRYPTO_MemDump+0xde>
     c88:	000ca683          	lw	a3,0(s9)
     c8c:	00dc76b3          	and	a3,s8,a3
     c90:	c685                	c.beqz	a3,cb8 <CRYPTO_MemDump+0xfc>
     c92:	5a8b0513          	addi	a0,s6,1448 # 2d5a8 <__FUNCTION__.0+0x1c>
     c96:	3c3070ef          	jal	ra,8858 <DiagPrintf>
     c9a:	000ca683          	lw	a3,0(s9)
     c9e:	00dc76b3          	and	a3,s8,a3
     ca2:	ca99                	c.beqz	a3,cb8 <CRYPTO_MemDump+0xfc>
     ca4:	01a986b3          	add	a3,s3,s10
     ca8:	0006c583          	lbu	a1,0(a3)
     cac:	0002d7b7          	lui	a5,0x2d
     cb0:	5ac78513          	addi	a0,a5,1452 # 2d5ac <__FUNCTION__.0+0x20>
     cb4:	3a5070ef          	jal	ra,8858 <DiagPrintf>
     cb8:	0d05                	c.addi	s10,1
     cba:	fdab95e3          	bne	s7,s10,c84 <CRYPTO_MemDump+0xc8>
     cbe:	015d1763          	bne	s10,s5,ccc <CRYPTO_MemDump+0x110>
     cc2:	47b2                	c.lwsp	a5,12(sp)
     cc4:	0485                	c.addi	s1,1
     cc6:	f4f4cbe3          	blt	s1,a5,c1c <CRYPTO_MemDump+0x60>
     cca:	b78d                	c.j	c2c <CRYPTO_MemDump+0x70>
     ccc:	469d                	c.li	a3,7
     cce:	01a6cc63          	blt	a3,s10,ce6 <CRYPTO_MemDump+0x12a>
     cd2:	000ca603          	lw	a2,0(s9)
     cd6:	000206b7          	lui	a3,0x20
     cda:	8ef1                	c.and	a3,a2
     cdc:	c689                	c.beqz	a3,ce6 <CRYPTO_MemDump+0x12a>
     cde:	5a8b0513          	addi	a0,s6,1448
     ce2:	377070ef          	jal	ra,8858 <DiagPrintf>
     ce6:	41aa89b3          	sub	s3,s5,s10
     cea:	00020bb7          	lui	s7,0x20
     cee:	000ca783          	lw	a5,0(s9)
     cf2:	00fbf7b3          	and	a5,s7,a5
     cf6:	c799                	c.beqz	a5,d04 <CRYPTO_MemDump+0x148>
     cf8:	0002d7b7          	lui	a5,0x2d
     cfc:	5b478513          	addi	a0,a5,1460 # 2d5b4 <__FUNCTION__.0+0x28>
     d00:	359070ef          	jal	ra,8858 <DiagPrintf>
     d04:	19fd                	c.addi	s3,-1
     d06:	fe0994e3          	bne	s3,zero,cee <CRYPTO_MemDump+0x132>
     d0a:	bf65                	c.j	cc2 <CRYPTO_MemDump+0x106>
     d0c:	40b6                	c.lwsp	ra,76(sp)
     d0e:	4426                	c.lwsp	s0,72(sp)
     d10:	4496                	c.lwsp	s1,68(sp)
     d12:	4906                	c.lwsp	s2,64(sp)
     d14:	59f2                	c.lwsp	s3,60(sp)
     d16:	5a62                	c.lwsp	s4,56(sp)
     d18:	5ad2                	c.lwsp	s5,52(sp)
     d1a:	5b42                	c.lwsp	s6,48(sp)
     d1c:	5bb2                	c.lwsp	s7,44(sp)
     d1e:	5c22                	c.lwsp	s8,40(sp)
     d20:	5c92                	c.lwsp	s9,36(sp)
     d22:	5d02                	c.lwsp	s10,32(sp)
     d24:	4df2                	c.lwsp	s11,28(sp)
     d26:	6161                	c.addi16sp	sp,80
     d28:	8082                	c.jr	ra
     d2a:	8082                	c.jr	ra

00000d2c <CRYPTO_SetSrcDesc>:
     d2c:	1141                	c.addi	sp,-16
     d2e:	c422                	c.swsp	s0,8(sp)
     d30:	c226                	c.swsp	s1,4(sp)
     d32:	c04a                	c.swsp	s2,0(sp)
     d34:	c606                	c.swsp	ra,12(sp)
     d36:	84aa                	c.mv	s1,a0
     d38:	892e                	c.mv	s2,a1
     d3a:	40108437          	lui	s0,0x40108
     d3e:	e219                	c.bnez	a2,d44 <CRYPTO_SetSrcDesc+0x18>
     d40:	40100437          	lui	s0,0x40100
     d44:	001007b7          	lui	a5,0x100
     d48:	4018                	c.lw	a4,0(s0)
     d4a:	0ff77713          	andi	a4,a4,255
     d4e:	cb0d                	c.beqz	a4,d80 <CRYPTO_SetSrcDesc+0x54>
     d50:	200017b7          	lui	a5,0x20001
     d54:	ae07a703          	lw	a4,-1312(a5) # 20000ae0 <ConfigDebug+0x8>
     d58:	6789                	c.lui	a5,0x2
     d5a:	8ff9                	c.and	a5,a4
     d5c:	cb89                	c.beqz	a5,d6e <CRYPTO_SetSrcDesc+0x42>
     d5e:	0002d537          	lui	a0,0x2d
     d62:	864a                	c.mv	a2,s2
     d64:	85a6                	c.mv	a1,s1
     d66:	5c050513          	addi	a0,a0,1472 # 2d5c0 <__FUNCTION__.0+0x34>
     d6a:	2ef070ef          	jal	ra,8858 <DiagPrintf>
     d6e:	c044                	c.sw	s1,4(s0)
     d70:	01242423          	sw	s2,8(s0) # 40100008 <__retention_entry_func__+0x1f0e0008>
     d74:	40b2                	c.lwsp	ra,12(sp)
     d76:	4422                	c.lwsp	s0,8(sp)
     d78:	4492                	c.lwsp	s1,4(sp)
     d7a:	4902                	c.lwsp	s2,0(sp)
     d7c:	0141                	c.addi	sp,16
     d7e:	8082                	c.jr	ra
     d80:	17fd                	c.addi	a5,-1
     d82:	f3f9                	c.bnez	a5,d48 <CRYPTO_SetSrcDesc+0x1c>
     d84:	200017b7          	lui	a5,0x20001
     d88:	ad87a703          	lw	a4,-1320(a5) # 20000ad8 <ConfigDebug>
     d8c:	6789                	c.lui	a5,0x2
     d8e:	8ff9                	c.and	a5,a4
     d90:	d3f5                	c.beqz	a5,d74 <CRYPTO_SetSrcDesc+0x48>
     d92:	4422                	c.lwsp	s0,8(sp)
     d94:	40b2                	c.lwsp	ra,12(sp)
     d96:	4492                	c.lwsp	s1,4(sp)
     d98:	4902                	c.lwsp	s2,0(sp)
     d9a:	0002d537          	lui	a0,0x2d
     d9e:	5f450513          	addi	a0,a0,1524 # 2d5f4 <__FUNCTION__.0+0x68>
     da2:	0141                	c.addi	sp,16
     da4:	2b50706f          	jal	zero,8858 <DiagPrintf>

00000da8 <CRYPTO_SetDstDesc>:
     da8:	1141                	c.addi	sp,-16
     daa:	c422                	c.swsp	s0,8(sp)
     dac:	c226                	c.swsp	s1,4(sp)
     dae:	c04a                	c.swsp	s2,0(sp)
     db0:	c606                	c.swsp	ra,12(sp)
     db2:	892a                	c.mv	s2,a0
     db4:	84ae                	c.mv	s1,a1
     db6:	40108437          	lui	s0,0x40108
     dba:	e219                	c.bnez	a2,dc0 <CRYPTO_SetDstDesc+0x18>
     dbc:	40100437          	lui	s0,0x40100
     dc0:	6785                	c.lui	a5,0x1
     dc2:	97a2                	c.add	a5,s0
     dc4:	4394                	c.lw	a3,0(a5)
     dc6:	20001737          	lui	a4,0x20001
     dca:	ad870713          	addi	a4,a4,-1320 # 20000ad8 <ConfigDebug>
     dce:	0ff6f693          	andi	a3,a3,255
     dd2:	ca85                	c.beqz	a3,e02 <CRYPTO_SetDstDesc+0x5a>
     dd4:	4718                	c.lw	a4,8(a4)
     dd6:	6789                	c.lui	a5,0x2
     dd8:	8ff9                	c.and	a5,a4
     dda:	cb89                	c.beqz	a5,dec <CRYPTO_SetDstDesc+0x44>
     ddc:	0002d537          	lui	a0,0x2d
     de0:	8626                	c.mv	a2,s1
     de2:	85ca                	c.mv	a1,s2
     de4:	62c50513          	addi	a0,a0,1580 # 2d62c <__FUNCTION__.0+0xa0>
     de8:	271070ef          	jal	ra,8858 <DiagPrintf>
     dec:	6785                	c.lui	a5,0x1
     dee:	943e                	c.add	s0,a5
     df0:	01242223          	sw	s2,4(s0) # 40100004 <__retention_entry_func__+0x1f0e0004>
     df4:	c404                	c.sw	s1,8(s0)
     df6:	40b2                	c.lwsp	ra,12(sp)
     df8:	4422                	c.lwsp	s0,8(sp)
     dfa:	4492                	c.lwsp	s1,4(sp)
     dfc:	4902                	c.lwsp	s2,0(sp)
     dfe:	0141                	c.addi	sp,16
     e00:	8082                	c.jr	ra
     e02:	4314                	c.lw	a3,0(a4)
     e04:	6709                	c.lui	a4,0x2
     e06:	8f75                	c.and	a4,a3
     e08:	d77d                	c.beqz	a4,df6 <CRYPTO_SetDstDesc+0x4e>
     e0a:	438c                	c.lw	a1,0(a5)
     e0c:	4422                	c.lwsp	s0,8(sp)
     e0e:	40b2                	c.lwsp	ra,12(sp)
     e10:	4492                	c.lwsp	s1,4(sp)
     e12:	4902                	c.lwsp	s2,0(sp)
     e14:	0002d537          	lui	a0,0x2d
     e18:	0ff5f593          	andi	a1,a1,255
     e1c:	66050513          	addi	a0,a0,1632 # 2d660 <__FUNCTION__.0+0xd4>
     e20:	0141                	c.addi	sp,16
     e22:	2370706f          	jal	zero,8858 <DiagPrintf>

00000e26 <CRYPTO_CleanCmdOk>:
     e26:	40100737          	lui	a4,0x40100
     e2a:	c119                	c.beqz	a0,e30 <CRYPTO_CleanCmdOk+0xa>
     e2c:	40108737          	lui	a4,0x40108
     e30:	4b1c                	c.lw	a5,16(a4)
     e32:	4b14                	c.lw	a3,16(a4)
     e34:	00ff0637          	lui	a2,0xff0
     e38:	07a2                	c.slli	a5,0x8
     e3a:	8ff1                	c.and	a5,a2
     e3c:	8fd5                	c.or	a5,a3
     e3e:	cb1c                	c.sw	a5,16(a4)
     e40:	4b1c                	c.lw	a5,16(a4)
     e42:	0107e793          	ori	a5,a5,16
     e46:	cb1c                	c.sw	a5,16(a4)
     e48:	8082                	c.jr	ra

00000e4a <CRYPTO_ClearAllINT>:
     e4a:	40100737          	lui	a4,0x40100
     e4e:	c119                	c.beqz	a0,e54 <CRYPTO_ClearAllINT+0xa>
     e50:	40108737          	lui	a4,0x40108
     e54:	67c1                	c.lui	a5,0x10
     e56:	17fd                	c.addi	a5,-1
     e58:	cf5c                	c.sw	a5,28(a4)
     e5a:	b7f1                	c.j	e26 <CRYPTO_CleanCmdOk>

00000e5c <CRYPTO_SetCmdBuf>:
     e5c:	1141                	c.addi	sp,-16
     e5e:	c422                	c.swsp	s0,8(sp)
     e60:	c226                	c.swsp	s1,4(sp)
     e62:	c04a                	c.swsp	s2,0(sp)
     e64:	4964                	c.lw	s1,84(a0)
     e66:	04c52903          	lw	s2,76(a0)
     e6a:	842a                	c.mv	s0,a0
     e6c:	02000613          	addi	a2,zero,32
     e70:	4581                	c.li	a1,0
     e72:	18850513          	addi	a0,a0,392
     e76:	c606                	c.swsp	ra,12(sp)
     e78:	113080ef          	jal	ra,978a <_memset>
     e7c:	4458                	c.lw	a4,12(s0)
     e7e:	57fd                	c.li	a5,-1
     e80:	18f70b63          	beq	a4,a5,1016 <CRYPTO_SetCmdBuf+0x1ba>
     e84:	18a44783          	lbu	a5,394(s0)
     e88:	02c44703          	lbu	a4,44(s0)
     e8c:	f837f793          	andi	a5,a5,-125
     e90:	0447e793          	ori	a5,a5,68
     e94:	18f40523          	sb	a5,394(s0)
     e98:	4785                	c.li	a5,1
     e9a:	00f71b63          	bne	a4,a5,eb0 <CRYPTO_SetCmdBuf+0x54>
     e9e:	18842783          	lw	a5,392(s0)
     ea2:	00200737          	lui	a4,0x200
     ea6:	02040623          	sb	zero,44(s0)
     eaa:	8fd9                	c.or	a5,a4
     eac:	18f42423          	sw	a5,392(s0)
     eb0:	01144783          	lbu	a5,17(s0)
     eb4:	cbc9                	c.beqz	a5,f46 <CRYPTO_SetCmdBuf+0xea>
     eb6:	18f44783          	lbu	a5,399(s0)
     eba:	faa7e793          	ori	a5,a5,-86
     ebe:	18f407a3          	sb	a5,399(s0)
     ec2:	04000793          	addi	a5,zero,64
     ec6:	01044603          	lbu	a2,16(s0)
     eca:	c619                	c.beqz	a2,ed8 <CRYPTO_SetCmdBuf+0x7c>
     ecc:	18842703          	lw	a4,392(s0)
     ed0:	6689                	c.lui	a3,0x2
     ed2:	8f55                	c.or	a4,a3
     ed4:	18e42423          	sw	a4,392(s0)
     ed8:	04000713          	addi	a4,zero,64
     edc:	02d44683          	lbu	a3,45(s0)
     ee0:	0ee79d63          	bne	a5,a4,fda <CRYPTO_SetCmdBuf+0x17e>
     ee4:	4785                	c.li	a5,1
     ee6:	0ef69663          	bne	a3,a5,fd2 <CRYPTO_SetCmdBuf+0x176>
     eea:	4c1c                	c.lw	a5,24(s0)
     eec:	04bd                	c.addi	s1,15
     eee:	8091                	c.srli	s1,0x4
     ef0:	18941923          	sh	s1,402(s0)
     ef4:	8bbd                	c.andi	a5,15
     ef6:	18040593          	addi	a1,s0,384
     efa:	00479713          	slli	a4,a5,0x4
     efe:	45dc                	c.lw	a5,12(a1)
     f00:	f0f7f793          	andi	a5,a5,-241
     f04:	8fd9                	c.or	a5,a4
     f06:	c5dc                	c.sw	a5,12(a1)
     f08:	581c                	c.lw	a5,48(s0)
     f0a:	078e                	c.slli	a5,0x3
     f0c:	e261                	c.bnez	a2,fcc <CRYPTO_SetCmdBuf+0x170>
     f0e:	18f42a23          	sw	a5,404(s0)
     f12:	18a44783          	lbu	a5,394(s0)
     f16:	07d7f793          	andi	a5,a5,125
     f1a:	18f40523          	sb	a5,394(s0)
     f1e:	4785                	c.li	a5,1
     f20:	00f69963          	bne	a3,a5,f32 <CRYPTO_SetCmdBuf+0xd6>
     f24:	18842783          	lw	a5,392(s0)
     f28:	00020737          	lui	a4,0x20
     f2c:	8fd9                	c.or	a5,a4
     f2e:	18f42423          	sw	a5,392(s0)
     f32:	04000793          	addi	a5,zero,64
     f36:	40b2                	c.lwsp	ra,12(sp)
     f38:	18f405a3          	sb	a5,395(s0)
     f3c:	4422                	c.lwsp	s0,8(sp)
     f3e:	4492                	c.lwsp	s1,4(sp)
     f40:	4902                	c.lwsp	s2,0(sp)
     f42:	0141                	c.addi	sp,16
     f44:	8082                	c.jr	ra
     f46:	01244783          	lbu	a5,18(s0)
     f4a:	cb99                	c.beqz	a5,f60 <CRYPTO_SetCmdBuf+0x104>
     f4c:	18842783          	lw	a5,392(s0)
     f50:	7711                	c.lui	a4,0xfffe4
     f52:	177d                	c.addi	a4,-1
     f54:	8ff9                	c.and	a5,a4
     f56:	6711                	c.lui	a4,0x4
     f58:	8fd9                	c.or	a5,a4
     f5a:	18f42423          	sw	a5,392(s0)
     f5e:	b795                	c.j	ec2 <CRYPTO_SetCmdBuf+0x66>
     f60:	01444703          	lbu	a4,20(s0)
     f64:	04000793          	addi	a5,zero,64
     f68:	df39                	c.beqz	a4,ec6 <CRYPTO_SetCmdBuf+0x6a>
     f6a:	46f1                	c.li	a3,28
     f6c:	00d71c63          	bne	a4,a3,f84 <CRYPTO_SetCmdBuf+0x128>
     f70:	18842703          	lw	a4,392(s0)
     f74:	7691                	c.lui	a3,0xfffe4
     f76:	16fd                	c.addi	a3,-1
     f78:	8f75                	c.and	a4,a3
     f7a:	66a1                	c.lui	a3,0x8
     f7c:	8f55                	c.or	a4,a3
     f7e:	18e42423          	sw	a4,392(s0)
     f82:	b791                	c.j	ec6 <CRYPTO_SetCmdBuf+0x6a>
     f84:	02000693          	addi	a3,zero,32
     f88:	00d71963          	bne	a4,a3,f9a <CRYPTO_SetCmdBuf+0x13e>
     f8c:	18842703          	lw	a4,392(s0)
     f90:	7691                	c.lui	a3,0xfffe4
     f92:	16fd                	c.addi	a3,-1
     f94:	8f75                	c.and	a4,a3
     f96:	66b1                	c.lui	a3,0xc
     f98:	b7d5                	c.j	f7c <CRYPTO_SetCmdBuf+0x120>
     f9a:	03000693          	addi	a3,zero,48
     f9e:	00d71e63          	bne	a4,a3,fba <CRYPTO_SetCmdBuf+0x15e>
     fa2:	18842783          	lw	a5,392(s0)
     fa6:	7711                	c.lui	a4,0xfffe4
     fa8:	177d                	c.addi	a4,-1
     faa:	8ff9                	c.and	a5,a4
     fac:	6741                	c.lui	a4,0x10
     fae:	8fd9                	c.or	a5,a4
     fb0:	18f42423          	sw	a5,392(s0)
     fb4:	08000793          	addi	a5,zero,128
     fb8:	b739                	c.j	ec6 <CRYPTO_SetCmdBuf+0x6a>
     fba:	f0f716e3          	bne	a4,a5,ec6 <CRYPTO_SetCmdBuf+0x6a>
     fbe:	18842783          	lw	a5,392(s0)
     fc2:	7711                	c.lui	a4,0xfffe4
     fc4:	177d                	c.addi	a4,-1
     fc6:	8ff9                	c.and	a5,a4
     fc8:	6751                	c.lui	a4,0x14
     fca:	b7d5                	c.j	fae <CRYPTO_SetCmdBuf+0x152>
     fcc:	20078793          	addi	a5,a5,512 # 10200 <ecp_mod_koblitz.constprop.0+0xea>
     fd0:	bf3d                	c.j	f0e <CRYPTO_SetCmdBuf+0xb2>
     fd2:	8099                	c.srli	s1,0x6
     fd4:	18941923          	sh	s1,402(s0)
     fd8:	bf2d                	c.j	f12 <CRYPTO_SetCmdBuf+0xb6>
     fda:	08000713          	addi	a4,zero,128
     fde:	f2e79ae3          	bne	a5,a4,f12 <CRYPTO_SetCmdBuf+0xb6>
     fe2:	4785                	c.li	a5,1
     fe4:	02f69763          	bne	a3,a5,1012 <CRYPTO_SetCmdBuf+0x1b6>
     fe8:	4c1c                	c.lw	a5,24(s0)
     fea:	04bd                	c.addi	s1,15
     fec:	8091                	c.srli	s1,0x4
     fee:	18941923          	sh	s1,402(s0)
     ff2:	8bbd                	c.andi	a5,15
     ff4:	18040593          	addi	a1,s0,384
     ff8:	00479713          	slli	a4,a5,0x4
     ffc:	45dc                	c.lw	a5,12(a1)
     ffe:	f0f7f793          	andi	a5,a5,-241
    1002:	8fd9                	c.or	a5,a4
    1004:	c5dc                	c.sw	a5,12(a1)
    1006:	581c                	c.lw	a5,48(s0)
    1008:	078e                	c.slli	a5,0x3
    100a:	d211                	c.beqz	a2,f0e <CRYPTO_SetCmdBuf+0xb2>
    100c:	40078793          	addi	a5,a5,1024
    1010:	bdfd                	c.j	f0e <CRYPTO_SetCmdBuf+0xb2>
    1012:	809d                	c.srli	s1,0x7
    1014:	b7c1                	c.j	fd4 <CRYPTO_SetCmdBuf+0x178>
    1016:	18842783          	lw	a5,392(s0)
    101a:	4054                	c.lw	a3,4(s0)
    101c:	00844703          	lbu	a4,8(s0)
    1020:	9bc1                	c.andi	a5,-16
    1022:	8abd                	c.andi	a3,15
    1024:	8fd5                	c.or	a5,a3
    1026:	18f42423          	sw	a5,392(s0)
    102a:	cb35                	c.beqz	a4,109e <CRYPTO_SetCmdBuf+0x242>
    102c:	fcf7f713          	andi	a4,a5,-49
    1030:	18e42423          	sw	a4,392(s0)
    1034:	4078                	c.lw	a4,68(s0)
    1036:	4661                	c.li	a2,24
    1038:	06c70c63          	beq	a4,a2,10b0 <CRYPTO_SetCmdBuf+0x254>
    103c:	02000613          	addi	a2,zero,32
    1040:	06c70f63          	beq	a4,a2,10be <CRYPTO_SetCmdBuf+0x262>
    1044:	4641                	c.li	a2,16
    1046:	ccf7f793          	andi	a5,a5,-817
    104a:	06c70763          	beq	a4,a2,10b8 <CRYPTO_SetCmdBuf+0x25c>
    104e:	4c1c                	c.lw	a5,24(s0)
    1050:	04bd                	c.addi	s1,15
    1052:	8091                	c.srli	s1,0x4
    1054:	8bbd                	c.andi	a5,15
    1056:	00479713          	slli	a4,a5,0x4
    105a:	18c42783          	lw	a5,396(s0)
    105e:	18941923          	sh	s1,402(s0)
    1062:	f0f7f793          	andi	a5,a5,-241
    1066:	8fd9                	c.or	a5,a4
    1068:	18f42623          	sw	a5,396(s0)
    106c:	4721                	c.li	a4,8
    106e:	02e69863          	bne	a3,a4,109e <CRYPTO_SetCmdBuf+0x242>
    1072:	18040693          	addi	a3,s0,384
    1076:	4a98                	c.lw	a4,16(a3)
    1078:	093d                	c.addi	s2,15
    107a:	00495913          	srli	s2,s2,0x4
    107e:	7671                	c.lui	a2,0xffffc
    1080:	03f97913          	andi	s2,s2,63
    1084:	0ff60613          	addi	a2,a2,255 # ffffc0ff <__kr4_psram_text_start__+0x9fe7c0df>
    1088:	8f71                	c.and	a4,a2
    108a:	0922                	c.slli	s2,0x8
    108c:	01276933          	or	s2,a4,s2
    1090:	0126a823          	sw	s2,16(a3) # c010 <mbedtls_mpi_div_mpi+0x1e6>
    1094:	4c58                	c.lw	a4,28(s0)
    1096:	9bc1                	c.andi	a5,-16
    1098:	8b3d                	c.andi	a4,15
    109a:	8fd9                	c.or	a5,a4
    109c:	c6dc                	c.sw	a5,12(a3)
    109e:	00944783          	lbu	a5,9(s0)
    10a2:	e80798e3          	bne	a5,zero,f32 <CRYPTO_SetCmdBuf+0xd6>
    10a6:	18842783          	lw	a5,392(s0)
    10aa:	0807e793          	ori	a5,a5,128
    10ae:	b541                	c.j	f2e <CRYPTO_SetCmdBuf+0xd2>
    10b0:	ccf7f793          	andi	a5,a5,-817
    10b4:	1007e793          	ori	a5,a5,256
    10b8:	18f42423          	sw	a5,392(s0)
    10bc:	bf49                	c.j	104e <CRYPTO_SetCmdBuf+0x1f2>
    10be:	ccf7f793          	andi	a5,a5,-817
    10c2:	2007e793          	ori	a5,a5,512
    10c6:	bfcd                	c.j	10b8 <CRYPTO_SetCmdBuf+0x25c>

000010c8 <CRYPTO_SrcDescKeyIv>:
    10c8:	7179                	c.addi16sp	sp,-48
    10ca:	d422                	c.swsp	s0,40(sp)
    10cc:	d226                	c.swsp	s1,36(sp)
    10ce:	d04a                	c.swsp	s2,32(sp)
    10d0:	ce4e                	c.swsp	s3,28(sp)
    10d2:	cc52                	c.swsp	s4,24(sp)
    10d4:	c65e                	c.swsp	s7,12(sp)
    10d6:	d606                	c.swsp	ra,44(sp)
    10d8:	ca56                	c.swsp	s5,20(sp)
    10da:	c85a                	c.swsp	s6,16(sp)
    10dc:	c462                	c.swsp	s8,8(sp)
    10de:	02d54b03          	lbu	s6,45(a0)
    10e2:	6799                	c.lui	a5,0x6
    10e4:	8a3a                	c.mv	s4,a4
    10e6:	01603b33          	sltu	s6,zero,s6
    10ea:	30078713          	addi	a4,a5,768 # 6300 <rtl_crypto_sha2_final+0x76>
    10ee:	0b1a                	c.slli	s6,0x6
    10f0:	00eb6b33          	or	s6,s6,a4
    10f4:	3c078793          	addi	a5,a5,960
    10f8:	84aa                	c.mv	s1,a0
    10fa:	00fb7b33          	and	s6,s6,a5
    10fe:	892e                	c.mv	s2,a1
    1100:	89b2                	c.mv	s3,a2
    1102:	8436                	c.mv	s0,a3
    1104:	0b42                	c.slli	s6,0x10
    1106:	3b99                	c.jal	e5c <CRYPTO_SetCmdBuf>
    1108:	18848b93          	addi	s7,s1,392
    110c:	7c1027f3          	csrrs	a5,0x7c1,zero
    1110:	1007f793          	andi	a5,a5,256
    1114:	cbb1                	c.beqz	a5,1168 <CRYPTO_SrcDescKeyIv+0xa0>
    1116:	01fbf793          	andi	a5,s7,31
    111a:	2c078863          	beq	a5,zero,13ea <CRYPTO_SrcDescKeyIv+0x322>
    111e:	1a748713          	addi	a4,s1,423
    1122:	9b01                	c.andi	a4,-32
    1124:	fe0bf793          	andi	a5,s7,-32
    1128:	02070713          	addi	a4,a4,32 # 14020 <mbedtls_internal_sha1_process+0x1228>
    112c:	8f1d                	c.sub	a4,a5
    112e:	02e05d63          	bge	zero,a4,1168 <CRYPTO_SrcDescKeyIv+0xa0>
    1132:	01f7f693          	andi	a3,a5,31
    1136:	9736                	c.add	a4,a3
    1138:	0ff0000f          	fence	iorw,iorw
    113c:	973e                	c.add	a4,a5
    113e:	02f7f00b          	cache	dwbinv,(a5)
    1142:	02078793          	addi	a5,a5,32
    1146:	40f706b3          	sub	a3,a4,a5
    114a:	fed04ae3          	blt	zero,a3,113e <CRYPTO_SrcDescKeyIv+0x76>
    114e:	0ff0000f          	fence	iorw,iorw
    1152:	0001                	c.addi	zero,0
    1154:	0001                	c.addi	zero,0
    1156:	0001                	c.addi	zero,0
    1158:	0001                	c.addi	zero,0
    115a:	0001                	c.addi	zero,0
    115c:	0001                	c.addi	zero,0
    115e:	0001                	c.addi	zero,0
    1160:	0001                	c.addi	zero,0
    1162:	0001                	c.addi	zero,0
    1164:	0001                	c.addi	zero,0
    1166:	0001                	c.addi	zero,0
    1168:	20001ab7          	lui	s5,0x20001
    116c:	ad8a8793          	addi	a5,s5,-1320 # 20000ad8 <ConfigDebug>
    1170:	4798                	c.lw	a4,8(a5)
    1172:	6789                	c.lui	a5,0x2
    1174:	ad8a8a93          	addi	s5,s5,-1320
    1178:	8ff9                	c.and	a5,a4
    117a:	c795                	c.beqz	a5,11a6 <CRYPTO_SrcDescKeyIv+0xde>
    117c:	0002d5b7          	lui	a1,0x2d
    1180:	0002d537          	lui	a0,0x2d
    1184:	865e                	c.mv	a2,s7
    1186:	6a058593          	addi	a1,a1,1696 # 2d6a0 <__FUNCTION__.0+0x114>
    118a:	02000693          	addi	a3,zero,32
    118e:	6b850513          	addi	a0,a0,1720 # 2d6b8 <__FUNCTION__.0+0x12c>
    1192:	6c6070ef          	jal	ra,8858 <DiagPrintf>
    1196:	0002d637          	lui	a2,0x2d
    119a:	6e460613          	addi	a2,a2,1764 # 2d6e4 <__FUNCTION__.0+0x158>
    119e:	02000593          	addi	a1,zero,32
    11a2:	855e                	c.mv	a0,s7
    11a4:	3c21                	c.jal	bbc <CRYPTO_MemDump>
    11a6:	8652                	c.mv	a2,s4
    11a8:	85de                	c.mv	a1,s7
    11aa:	855a                	c.mv	a0,s6
    11ac:	3641                	c.jal	d2c <CRYPTO_SetSrcDesc>
    11ae:	40dc                	c.lw	a5,4(s1)
    11b0:	577d                	c.li	a4,-1
    11b2:	08e78263          	beq	a5,a4,1236 <CRYPTO_SrcDescKeyIv+0x16e>
    11b6:	0444ab83          	lw	s7,68(s1)
    11ba:	600007b7          	lui	a5,0x60000
    11be:	0484ab03          	lw	s6,72(s1)
    11c2:	002bdc13          	srli	s8,s7,0x2
    11c6:	00fc7c13          	andi	s8,s8,15
    11ca:	00fc6c33          	or	s8,s8,a5
    11ce:	7c1027f3          	csrrs	a5,0x7c1,zero
    11d2:	1007f793          	andi	a5,a5,256
    11d6:	c785                	c.beqz	a5,11fe <CRYPTO_SrcDescKeyIv+0x136>
    11d8:	20eb1d63          	bne	s6,a4,13f2 <CRYPTO_SrcDescKeyIv+0x32a>
    11dc:	216b9e63          	bne	s7,s6,13f8 <CRYPTO_SrcDescKeyIv+0x330>
    11e0:	7c0467f3          	csrrsi	a5,0x7c0,8
    11e4:	0ff0000f          	fence	iorw,iorw
    11e8:	0001                	c.addi	zero,0
    11ea:	0001                	c.addi	zero,0
    11ec:	0001                	c.addi	zero,0
    11ee:	0001                	c.addi	zero,0
    11f0:	0001                	c.addi	zero,0
    11f2:	0001                	c.addi	zero,0
    11f4:	0001                	c.addi	zero,0
    11f6:	0001                	c.addi	zero,0
    11f8:	0001                	c.addi	zero,0
    11fa:	0001                	c.addi	zero,0
    11fc:	0001                	c.addi	zero,0
    11fe:	008aa703          	lw	a4,8(s5)
    1202:	6789                	c.lui	a5,0x2
    1204:	8ff9                	c.and	a5,a4
    1206:	c785                	c.beqz	a5,122e <CRYPTO_SrcDescKeyIv+0x166>
    1208:	0002d5b7          	lui	a1,0x2d
    120c:	0002d537          	lui	a0,0x2d
    1210:	865a                	c.mv	a2,s6
    1212:	6a058593          	addi	a1,a1,1696 # 2d6a0 <__FUNCTION__.0+0x114>
    1216:	86de                	c.mv	a3,s7
    1218:	6b850513          	addi	a0,a0,1720 # 2d6b8 <__FUNCTION__.0+0x12c>
    121c:	63c070ef          	jal	ra,8858 <DiagPrintf>
    1220:	0002d637          	lui	a2,0x2d
    1224:	6f860613          	addi	a2,a2,1784 # 2d6f8 <__FUNCTION__.0+0x16c>
    1228:	85de                	c.mv	a1,s7
    122a:	855a                	c.mv	a0,s6
    122c:	3a41                	c.jal	bbc <CRYPTO_MemDump>
    122e:	8652                	c.mv	a2,s4
    1230:	85da                	c.mv	a1,s6
    1232:	8562                	c.mv	a0,s8
    1234:	3ce5                	c.jal	d2c <CRYPTO_SetSrcDesc>
    1236:	08090163          	beq	s2,zero,12b8 <CRYPTO_SrcDescKeyIv+0x1f0>
    123a:	06098f63          	beq	s3,zero,12b8 <CRYPTO_SrcDescKeyIv+0x1f0>
    123e:	00299b13          	slli	s6,s3,0x2
    1242:	600007b7          	lui	a5,0x60000
    1246:	0f0b7b13          	andi	s6,s6,240
    124a:	00fb6b33          	or	s6,s6,a5
    124e:	7c1027f3          	csrrs	a5,0x7c1,zero
    1252:	1007f793          	andi	a5,a5,256
    1256:	c78d                	c.beqz	a5,1280 <CRYPTO_SrcDescKeyIv+0x1b8>
    1258:	57fd                	c.li	a5,-1
    125a:	1cf91c63          	bne	s2,a5,1432 <CRYPTO_SrcDescKeyIv+0x36a>
    125e:	1d299d63          	bne	s3,s2,1438 <CRYPTO_SrcDescKeyIv+0x370>
    1262:	7c0467f3          	csrrsi	a5,0x7c0,8
    1266:	0ff0000f          	fence	iorw,iorw
    126a:	0001                	c.addi	zero,0
    126c:	0001                	c.addi	zero,0
    126e:	0001                	c.addi	zero,0
    1270:	0001                	c.addi	zero,0
    1272:	0001                	c.addi	zero,0
    1274:	0001                	c.addi	zero,0
    1276:	0001                	c.addi	zero,0
    1278:	0001                	c.addi	zero,0
    127a:	0001                	c.addi	zero,0
    127c:	0001                	c.addi	zero,0
    127e:	0001                	c.addi	zero,0
    1280:	008aa703          	lw	a4,8(s5)
    1284:	6789                	c.lui	a5,0x2
    1286:	8ff9                	c.and	a5,a4
    1288:	c785                	c.beqz	a5,12b0 <CRYPTO_SrcDescKeyIv+0x1e8>
    128a:	0002d5b7          	lui	a1,0x2d
    128e:	0002d537          	lui	a0,0x2d
    1292:	864a                	c.mv	a2,s2
    1294:	6a058593          	addi	a1,a1,1696 # 2d6a0 <__FUNCTION__.0+0x114>
    1298:	86ce                	c.mv	a3,s3
    129a:	6b850513          	addi	a0,a0,1720 # 2d6b8 <__FUNCTION__.0+0x12c>
    129e:	5ba070ef          	jal	ra,8858 <DiagPrintf>
    12a2:	0002d637          	lui	a2,0x2d
    12a6:	70060613          	addi	a2,a2,1792 # 2d700 <__FUNCTION__.0+0x174>
    12aa:	85ce                	c.mv	a1,s3
    12ac:	854a                	c.mv	a0,s2
    12ae:	3239                	c.jal	bbc <CRYPTO_MemDump>
    12b0:	8652                	c.mv	a2,s4
    12b2:	85ca                	c.mv	a1,s2
    12b4:	855a                	c.mv	a0,s6
    12b6:	3c9d                	c.jal	d2c <CRYPTO_SetSrcDesc>
    12b8:	0104c783          	lbu	a5,16(s1)
    12bc:	c3c5                	c.beqz	a5,135c <CRYPTO_SrcDescKeyIv+0x294>
    12be:	06448913          	addi	s2,s1,100
    12c2:	7c1027f3          	csrrs	a5,0x7c1,zero
    12c6:	1007f793          	andi	a5,a5,256
    12ca:	cbb1                	c.beqz	a5,131e <CRYPTO_SrcDescKeyIv+0x256>
    12cc:	01f97793          	andi	a5,s2,31
    12d0:	1a078163          	beq	a5,zero,1472 <CRYPTO_SrcDescKeyIv+0x3aa>
    12d4:	16748713          	addi	a4,s1,359
    12d8:	9b01                	c.andi	a4,-32
    12da:	fe097793          	andi	a5,s2,-32
    12de:	02070713          	addi	a4,a4,32
    12e2:	8f1d                	c.sub	a4,a5
    12e4:	02e05d63          	bge	zero,a4,131e <CRYPTO_SrcDescKeyIv+0x256>
    12e8:	01f7f693          	andi	a3,a5,31
    12ec:	9736                	c.add	a4,a3
    12ee:	0ff0000f          	fence	iorw,iorw
    12f2:	973e                	c.add	a4,a5
    12f4:	02f7f00b          	cache	dwbinv,(a5)
    12f8:	02078793          	addi	a5,a5,32 # 2020 <CRYPTO_ProcessAD+0x5a0>
    12fc:	40f706b3          	sub	a3,a4,a5
    1300:	fed04ae3          	blt	zero,a3,12f4 <CRYPTO_SrcDescKeyIv+0x22c>
    1304:	0ff0000f          	fence	iorw,iorw
    1308:	0001                	c.addi	zero,0
    130a:	0001                	c.addi	zero,0
    130c:	0001                	c.addi	zero,0
    130e:	0001                	c.addi	zero,0
    1310:	0001                	c.addi	zero,0
    1312:	0001                	c.addi	zero,0
    1314:	0001                	c.addi	zero,0
    1316:	0001                	c.addi	zero,0
    1318:	0001                	c.addi	zero,0
    131a:	0001                	c.addi	zero,0
    131c:	0001                	c.addi	zero,0
    131e:	008aa703          	lw	a4,8(s5)
    1322:	6789                	c.lui	a5,0x2
    1324:	8ff9                	c.and	a5,a4
    1326:	c795                	c.beqz	a5,1352 <CRYPTO_SrcDescKeyIv+0x28a>
    1328:	0002d5b7          	lui	a1,0x2d
    132c:	0002d537          	lui	a0,0x2d
    1330:	864a                	c.mv	a2,s2
    1332:	6a058593          	addi	a1,a1,1696 # 2d6a0 <__FUNCTION__.0+0x114>
    1336:	08000693          	addi	a3,zero,128
    133a:	6b850513          	addi	a0,a0,1720 # 2d6b8 <__FUNCTION__.0+0x12c>
    133e:	51a070ef          	jal	ra,8858 <DiagPrintf>
    1342:	0002d637          	lui	a2,0x2d
    1346:	70860613          	addi	a2,a2,1800 # 2d708 <__FUNCTION__.0+0x17c>
    134a:	08000593          	addi	a1,zero,128
    134e:	854a                	c.mv	a0,s2
    1350:	30b5                	c.jal	bbc <CRYPTO_MemDump>
    1352:	8652                	c.mv	a2,s4
    1354:	85ca                	c.mv	a1,s2
    1356:	60004537          	lui	a0,0x60004
    135a:	3ac9                	c.jal	d2c <CRYPTO_SetSrcDesc>
    135c:	1a040363          	beq	s0,zero,1502 <CRYPTO_SrcDescKeyIv+0x43a>
    1360:	04a44703          	lbu	a4,74(s0)
    1364:	4785                	c.li	a5,1
    1366:	18f71e63          	bne	a4,a5,1502 <CRYPTO_SrcDescKeyIv+0x43a>
    136a:	5498                	c.lw	a4,40(s1)
    136c:	47f1                	c.li	a5,28
    136e:	10f70663          	beq	a4,a5,147a <CRYPTO_SrcDescKeyIv+0x3b2>
    1372:	03000793          	addi	a5,zero,48
    1376:	00f71463          	bne	a4,a5,137e <CRYPTO_SrcDescKeyIv+0x2b6>
    137a:	04000713          	addi	a4,zero,64
    137e:	04b44683          	lbu	a3,75(s0)
    1382:	4785                	c.li	a5,1
    1384:	00275513          	srli	a0,a4,0x2
    1388:	0ef69c63          	bne	a3,a5,1480 <CRYPTO_SrcDescKeyIv+0x3b8>
    138c:	040405a3          	sb	zero,75(s0)
    1390:	00840593          	addi	a1,s0,8
    1394:	7c1027f3          	csrrs	a5,0x7c1,zero
    1398:	1007f793          	andi	a5,a5,256
    139c:	c78d                	c.beqz	a5,13c6 <CRYPTO_SrcDescKeyIv+0x2fe>
    139e:	57fd                	c.li	a5,-1
    13a0:	12f59363          	bne	a1,a5,14c6 <CRYPTO_SrcDescKeyIv+0x3fe>
    13a4:	12b71563          	bne	a4,a1,14ce <CRYPTO_SrcDescKeyIv+0x406>
    13a8:	7c0467f3          	csrrsi	a5,0x7c0,8
    13ac:	0ff0000f          	fence	iorw,iorw
    13b0:	0001                	c.addi	zero,0
    13b2:	0001                	c.addi	zero,0
    13b4:	0001                	c.addi	zero,0
    13b6:	0001                	c.addi	zero,0
    13b8:	0001                	c.addi	zero,0
    13ba:	0001                	c.addi	zero,0
    13bc:	0001                	c.addi	zero,0
    13be:	0001                	c.addi	zero,0
    13c0:	0001                	c.addi	zero,0
    13c2:	0001                	c.addi	zero,0
    13c4:	0001                	c.addi	zero,0
    13c6:	5422                	c.lwsp	s0,40(sp)
    13c8:	50b2                	c.lwsp	ra,44(sp)
    13ca:	5492                	c.lwsp	s1,36(sp)
    13cc:	5902                	c.lwsp	s2,32(sp)
    13ce:	49f2                	c.lwsp	s3,28(sp)
    13d0:	4ad2                	c.lwsp	s5,20(sp)
    13d2:	4b42                	c.lwsp	s6,16(sp)
    13d4:	4bb2                	c.lwsp	s7,12(sp)
    13d6:	4c22                	c.lwsp	s8,8(sp)
    13d8:	03f57513          	andi	a0,a0,63
    13dc:	6799                	c.lui	a5,0x6
    13de:	8652                	c.mv	a2,s4
    13e0:	4a62                	c.lwsp	s4,24(sp)
    13e2:	8d5d                	c.or	a0,a5
    13e4:	0542                	c.slli	a0,0x10
    13e6:	6145                	c.addi16sp	sp,48
    13e8:	b291                	c.j	d2c <CRYPTO_SetSrcDesc>
    13ea:	87de                	c.mv	a5,s7
    13ec:	02000713          	addi	a4,zero,32
    13f0:	b389                	c.j	1132 <CRYPTO_SrcDescKeyIv+0x6a>
    13f2:	01fb7793          	andi	a5,s6,31
    13f6:	cb9d                	c.beqz	a5,142c <CRYPTO_SrcDescKeyIv+0x364>
    13f8:	fffb8793          	addi	a5,s7,-1 # 1ffff <__wrap_strtol+0x2f03>
    13fc:	97da                	c.add	a5,s6
    13fe:	9b81                	c.andi	a5,-32
    1400:	fe0b7713          	andi	a4,s6,-32
    1404:	02078793          	addi	a5,a5,32 # 6020 <rtl_crypto_sha2_init+0x134>
    1408:	8f99                	c.sub	a5,a4
    140a:	def05ae3          	bge	zero,a5,11fe <CRYPTO_SrcDescKeyIv+0x136>
    140e:	01f77693          	andi	a3,a4,31
    1412:	97b6                	c.add	a5,a3
    1414:	0ff0000f          	fence	iorw,iorw
    1418:	97ba                	c.add	a5,a4
    141a:	02e7700b          	cache	dwbinv,(a4)
    141e:	02070713          	addi	a4,a4,32
    1422:	40e786b3          	sub	a3,a5,a4
    1426:	fed04ae3          	blt	zero,a3,141a <CRYPTO_SrcDescKeyIv+0x352>
    142a:	bb6d                	c.j	11e4 <CRYPTO_SrcDescKeyIv+0x11c>
    142c:	87de                	c.mv	a5,s7
    142e:	875a                	c.mv	a4,s6
    1430:	bfe9                	c.j	140a <CRYPTO_SrcDescKeyIv+0x342>
    1432:	01f97793          	andi	a5,s2,31
    1436:	cb9d                	c.beqz	a5,146c <CRYPTO_SrcDescKeyIv+0x3a4>
    1438:	fff98793          	addi	a5,s3,-1
    143c:	97ca                	c.add	a5,s2
    143e:	9b81                	c.andi	a5,-32
    1440:	fe097713          	andi	a4,s2,-32
    1444:	02078793          	addi	a5,a5,32
    1448:	8f99                	c.sub	a5,a4
    144a:	e2f05be3          	bge	zero,a5,1280 <CRYPTO_SrcDescKeyIv+0x1b8>
    144e:	01f77693          	andi	a3,a4,31
    1452:	97b6                	c.add	a5,a3
    1454:	0ff0000f          	fence	iorw,iorw
    1458:	97ba                	c.add	a5,a4
    145a:	02e7700b          	cache	dwbinv,(a4)
    145e:	02070713          	addi	a4,a4,32
    1462:	40e786b3          	sub	a3,a5,a4
    1466:	fed04ae3          	blt	zero,a3,145a <CRYPTO_SrcDescKeyIv+0x392>
    146a:	bbf5                	c.j	1266 <CRYPTO_SrcDescKeyIv+0x19e>
    146c:	87ce                	c.mv	a5,s3
    146e:	874a                	c.mv	a4,s2
    1470:	bfe9                	c.j	144a <CRYPTO_SrcDescKeyIv+0x382>
    1472:	87ca                	c.mv	a5,s2
    1474:	10400713          	addi	a4,zero,260
    1478:	bd85                	c.j	12e8 <CRYPTO_SrcDescKeyIv+0x220>
    147a:	02000713          	addi	a4,zero,32
    147e:	b701                	c.j	137e <CRYPTO_SrcDescKeyIv+0x2b6>
    1480:	00244683          	lbu	a3,2(s0)
    1484:	f0f686e3          	beq	a3,a5,1390 <CRYPTO_SrcDescKeyIv+0x2c8>
    1488:	00251593          	slli	a1,a0,0x2
    148c:	6841                	c.lui	a6,0x10
    148e:	8622                	c.mv	a2,s0
    1490:	95a2                	c.add	a1,s0
    1492:	00ff0337          	lui	t1,0xff0
    1496:	f0080813          	addi	a6,a6,-256 # ff00 <mbedtls_ecp_check_pub_priv+0x22>
    149a:	eec58be3          	beq	a1,a2,1390 <CRYPTO_SrcDescKeyIv+0x2c8>
    149e:	461c                	c.lw	a5,8(a2)
    14a0:	0611                	c.addi	a2,4
    14a2:	0187d893          	srli	a7,a5,0x18
    14a6:	01879693          	slli	a3,a5,0x18
    14aa:	0116e6b3          	or	a3,a3,a7
    14ae:	00879893          	slli	a7,a5,0x8
    14b2:	0068f8b3          	and	a7,a7,t1
    14b6:	83a1                	c.srli	a5,0x8
    14b8:	0116e6b3          	or	a3,a3,a7
    14bc:	0107f7b3          	and	a5,a5,a6
    14c0:	8fd5                	c.or	a5,a3
    14c2:	c25c                	c.sw	a5,4(a2)
    14c4:	bfd9                	c.j	149a <CRYPTO_SrcDescKeyIv+0x3d2>
    14c6:	01f5f693          	andi	a3,a1,31
    14ca:	87ae                	c.mv	a5,a1
    14cc:	ca91                	c.beqz	a3,14e0 <CRYPTO_SrcDescKeyIv+0x418>
    14ce:	fff58693          	addi	a3,a1,-1
    14d2:	9736                	c.add	a4,a3
    14d4:	9b01                	c.andi	a4,-32
    14d6:	fe05f793          	andi	a5,a1,-32
    14da:	02070713          	addi	a4,a4,32
    14de:	8f1d                	c.sub	a4,a5
    14e0:	eee053e3          	bge	zero,a4,13c6 <CRYPTO_SrcDescKeyIv+0x2fe>
    14e4:	01f7f693          	andi	a3,a5,31
    14e8:	9736                	c.add	a4,a3
    14ea:	0ff0000f          	fence	iorw,iorw
    14ee:	973e                	c.add	a4,a5
    14f0:	02f7f00b          	cache	dwbinv,(a5)
    14f4:	02078793          	addi	a5,a5,32
    14f8:	40f706b3          	sub	a3,a4,a5
    14fc:	fed04ae3          	blt	zero,a3,14f0 <CRYPTO_SrcDescKeyIv+0x428>
    1500:	b575                	c.j	13ac <CRYPTO_SrcDescKeyIv+0x2e4>
    1502:	50b2                	c.lwsp	ra,44(sp)
    1504:	5422                	c.lwsp	s0,40(sp)
    1506:	5492                	c.lwsp	s1,36(sp)
    1508:	5902                	c.lwsp	s2,32(sp)
    150a:	49f2                	c.lwsp	s3,28(sp)
    150c:	4a62                	c.lwsp	s4,24(sp)
    150e:	4ad2                	c.lwsp	s5,20(sp)
    1510:	4b42                	c.lwsp	s6,16(sp)
    1512:	4bb2                	c.lwsp	s7,12(sp)
    1514:	4c22                	c.lwsp	s8,8(sp)
    1516:	6145                	c.addi16sp	sp,48
    1518:	8082                	c.jr	ra

0000151a <CRYPTO_Reset>:
    151a:	401007b7          	lui	a5,0x40100
    151e:	4705                	c.li	a4,1
    1520:	cb98                	c.sw	a4,16(a5)
    1522:	00100737          	lui	a4,0x100
    1526:	db98                	c.sw	a4,48(a5)
    1528:	5b98                	c.lw	a4,48(a5)
    152a:	00676713          	ori	a4,a4,6
    152e:	db98                	c.sw	a4,48(a5)
    1530:	5b98                	c.lw	a4,48(a5)
    1532:	61076713          	ori	a4,a4,1552
    1536:	db98                	c.sw	a4,48(a5)
    1538:	01010737          	lui	a4,0x1010
    153c:	cf98                	c.sw	a4,24(a5)
    153e:	8082                	c.jr	ra

00001540 <CRYPTO_SHA_Reset>:
    1540:	401087b7          	lui	a5,0x40108
    1544:	4705                	c.li	a4,1
    1546:	cb98                	c.sw	a4,16(a5)
    1548:	00100737          	lui	a4,0x100
    154c:	db98                	c.sw	a4,48(a5)
    154e:	5b98                	c.lw	a4,48(a5)
    1550:	00676713          	ori	a4,a4,6
    1554:	db98                	c.sw	a4,48(a5)
    1556:	5b98                	c.lw	a4,48(a5)
    1558:	61076713          	ori	a4,a4,1552
    155c:	db98                	c.sw	a4,48(a5)
    155e:	01010737          	lui	a4,0x1010
    1562:	cf98                	c.sw	a4,24(a5)
    1564:	8082                	c.jr	ra

00001566 <CRYPTO_SetSecurityModeAD>:
    1566:	1101                	c.addi	sp,-32
    1568:	cc22                	c.swsp	s0,24(sp)
    156a:	ca26                	c.swsp	s1,20(sp)
    156c:	c84a                	c.swsp	s2,16(sp)
    156e:	c64e                	c.swsp	s3,12(sp)
    1570:	c452                	c.swsp	s4,8(sp)
    1572:	c256                	c.swsp	s5,4(sp)
    1574:	c05a                	c.swsp	s6,0(sp)
    1576:	ce06                	c.swsp	ra,28(sp)
    1578:	842a                	c.mv	s0,a0
    157a:	84ae                	c.mv	s1,a1
    157c:	8932                	c.mv	s2,a2
    157e:	8ab6                	c.mv	s5,a3
    1580:	8b3a                	c.mv	s6,a4
    1582:	8a3e                	c.mv	s4,a5
    1584:	89c2                	c.mv	s3,a6
    1586:	e909                	c.bnez	a0,1598 <CRYPTO_SetSecurityModeAD+0x32>
    1588:	0002d537          	lui	a0,0x2d
    158c:	26f00593          	addi	a1,zero,623
    1590:	7f450513          	addi	a0,a0,2036 # 2d7f4 <__FUNCTION__.1>
    1594:	a82ff0ef          	jal	ra,816 <io_assert_failed>
    1598:	00044703          	lbu	a4,0(s0)
    159c:	4785                	c.li	a5,1
    159e:	00f70a63          	beq	a4,a5,15b2 <CRYPTO_SetSecurityModeAD+0x4c>
    15a2:	0002d537          	lui	a0,0x2d
    15a6:	27000593          	addi	a1,zero,624
    15aa:	7f450513          	addi	a0,a0,2036 # 2d7f4 <__FUNCTION__.1>
    15ae:	a68ff0ef          	jal	ra,816 <io_assert_failed>
    15b2:	04000793          	addi	a5,zero,64
    15b6:	0137fa63          	bgeu	a5,s3,15ca <CRYPTO_SetSecurityModeAD+0x64>
    15ba:	0002d537          	lui	a0,0x2d
    15be:	27400593          	addi	a1,zero,628
    15c2:	7f450513          	addi	a0,a0,2036 # 2d7f4 <__FUNCTION__.1>
    15c6:	a50ff0ef          	jal	ra,816 <io_assert_failed>
    15ca:	00041423          	sh	zero,8(s0)
    15ce:	c044                	c.sw	s1,4(s0)
    15d0:	57fd                	c.li	a5,-1
    15d2:	02f48163          	beq	s1,a5,15f4 <CRYPTO_SetSecurityModeAD+0x8e>
    15d6:	0304f793          	andi	a5,s1,48
    15da:	02000713          	addi	a4,zero,32
    15de:	00e79563          	bne	a5,a4,15e8 <CRYPTO_SetSecurityModeAD+0x82>
    15e2:	4785                	c.li	a5,1
    15e4:	00f40423          	sb	a5,8(s0)
    15e8:	809d                	c.srli	s1,0x7
    15ea:	0014c493          	xori	s1,s1,1
    15ee:	8885                	c.andi	s1,1
    15f0:	009404a3          	sb	s1,9(s0)
    15f4:	01242623          	sw	s2,12(s0)
    15f8:	57fd                	c.li	a5,-1
    15fa:	0af90763          	beq	s2,a5,16a8 <CRYPTO_SetSecurityModeAD+0x142>
    15fe:	00295793          	srli	a5,s2,0x2
    1602:	00397613          	andi	a2,s2,3
    1606:	8b85                	c.andi	a5,1
    1608:	00f40823          	sb	a5,16(s0)
    160c:	ffe60793          	addi	a5,a2,-2
    1610:	0017b793          	sltiu	a5,a5,1
    1614:	00f408a3          	sb	a5,17(s0)
    1618:	00163793          	sltiu	a5,a2,1
    161c:	00f40923          	sb	a5,18(s0)
    1620:	fff60793          	addi	a5,a2,-1
    1624:	0017b793          	sltiu	a5,a5,1
    1628:	00f409a3          	sb	a5,19(s0)
    162c:	4785                	c.li	a5,1
    162e:	06f61363          	bne	a2,a5,1694 <CRYPTO_SetSecurityModeAD+0x12e>
    1632:	0f097613          	andi	a2,s2,240
    1636:	04000793          	addi	a5,zero,64
    163a:	04f60a63          	beq	a2,a5,168e <CRYPTO_SetSecurityModeAD+0x128>
    163e:	02c7ea63          	bltu	a5,a2,1672 <CRYPTO_SetSecurityModeAD+0x10c>
    1642:	47c1                	c.li	a5,16
    1644:	02f60e63          	beq	a2,a5,1680 <CRYPTO_SetSecurityModeAD+0x11a>
    1648:	02000793          	addi	a5,zero,32
    164c:	02f60c63          	beq	a2,a5,1684 <CRYPTO_SetSecurityModeAD+0x11e>
    1650:	200017b7          	lui	a5,0x20001
    1654:	ad87a703          	lw	a4,-1320(a5) # 20000ad8 <ConfigDebug>
    1658:	6789                	c.lui	a5,0x2
    165a:	8ff9                	c.and	a5,a4
    165c:	cb81                	c.beqz	a5,166c <CRYPTO_SetSecurityModeAD+0x106>
    165e:	0002d537          	lui	a0,0x2d
    1662:	85ca                	c.mv	a1,s2
    1664:	71050513          	addi	a0,a0,1808 # 2d710 <__FUNCTION__.0+0x184>
    1668:	1f0070ef          	jal	ra,8858 <DiagPrintf>
    166c:	00040a23          	sb	zero,20(s0)
    1670:	a821                	c.j	1688 <CRYPTO_SetSecurityModeAD+0x122>
    1672:	08000713          	addi	a4,zero,128
    1676:	fce61de3          	bne	a2,a4,1650 <CRYPTO_SetSecurityModeAD+0xea>
    167a:	00f40a23          	sb	a5,20(s0)
    167e:	a029                	c.j	1688 <CRYPTO_SetSecurityModeAD+0x122>
    1680:	47f1                	c.li	a5,28
    1682:	bfe5                	c.j	167a <CRYPTO_SetSecurityModeAD+0x114>
    1684:	00c40a23          	sb	a2,20(s0)
    1688:	01444783          	lbu	a5,20(s0)
    168c:	a025                	c.j	16b4 <CRYPTO_SetSecurityModeAD+0x14e>
    168e:	03000793          	addi	a5,zero,48
    1692:	b7e5                	c.j	167a <CRYPTO_SetSecurityModeAD+0x114>
    1694:	00040a23          	sb	zero,20(s0)
    1698:	47d1                	c.li	a5,20
    169a:	ce09                	c.beqz	a2,16b4 <CRYPTO_SetSecurityModeAD+0x14e>
    169c:	4789                	c.li	a5,2
    169e:	00f60a63          	beq	a2,a5,16b2 <CRYPTO_SetSecurityModeAD+0x14c>
    16a2:	02042423          	sw	zero,40(s0)
    16a6:	a801                	c.j	16b6 <CRYPTO_SetSecurityModeAD+0x150>
    16a8:	00042823          	sw	zero,16(s0)
    16ac:	00040a23          	sb	zero,20(s0)
    16b0:	bfcd                	c.j	16a2 <CRYPTO_SetSecurityModeAD+0x13c>
    16b2:	47c1                	c.li	a5,16
    16b4:	d41c                	c.sw	a5,40(s0)
    16b6:	05642223          	sw	s6,68(s0)
    16ba:	05542423          	sw	s5,72(s0)
    16be:	03342023          	sw	s3,32(s0)
    16c2:	0c098563          	beq	s3,zero,178c <CRYPTO_SetSecurityModeAD+0x226>
    16c6:	01444703          	lbu	a4,20(s0)
    16ca:	06440513          	addi	a0,s0,100
    16ce:	cc68                	c.sw	a0,92(s0)
    16d0:	fd070713          	addi	a4,a4,-48 # 100ffd0 <secp192k1_a+0xfe0dc4>
    16d4:	0ef77713          	andi	a4,a4,239
    16d8:	ef51                	c.bnez	a4,1774 <CRYPTO_SetSecurityModeAD+0x20e>
    16da:	0e440793          	addi	a5,s0,228
    16de:	08000613          	addi	a2,zero,128
    16e2:	d03c                	c.sw	a5,96(s0)
    16e4:	03600593          	addi	a1,zero,54
    16e8:	0a2080ef          	jal	ra,978a <_memset>
    16ec:	08000613          	addi	a2,zero,128
    16f0:	5028                	c.lw	a0,96(s0)
    16f2:	05c00593          	addi	a1,zero,92
    16f6:	094080ef          	jal	ra,978a <_memset>
    16fa:	200007b7          	lui	a5,0x20000
    16fe:	3807a483          	lw	s1,896(a5) # 20000380 <SHA_OTPKEY>
    1702:	e4b1                	c.bnez	s1,174e <CRYPTO_SetSecurityModeAD+0x1e8>
    1704:	000a1a63          	bne	s4,zero,1718 <CRYPTO_SetSecurityModeAD+0x1b2>
    1708:	0002d537          	lui	a0,0x2d
    170c:	2cf00593          	addi	a1,zero,719
    1710:	7f450513          	addi	a0,a0,2036 # 2d7f4 <__FUNCTION__.1>
    1714:	902ff0ef          	jal	ra,816 <io_assert_failed>
    1718:	03442223          	sw	s4,36(s0)
    171c:	4c7c                	c.lw	a5,92(s0)
    171e:	5058                	c.lw	a4,36(s0)
    1720:	97a6                	c.add	a5,s1
    1722:	9726                	c.add	a4,s1
    1724:	0007c683          	lbu	a3,0(a5)
    1728:	00074703          	lbu	a4,0(a4)
    172c:	8f35                	c.xor	a4,a3
    172e:	00e78023          	sb	a4,0(a5)
    1732:	503c                	c.lw	a5,96(s0)
    1734:	5058                	c.lw	a4,36(s0)
    1736:	97a6                	c.add	a5,s1
    1738:	9726                	c.add	a4,s1
    173a:	00074703          	lbu	a4,0(a4)
    173e:	0007c683          	lbu	a3,0(a5)
    1742:	0485                	c.addi	s1,1
    1744:	8f35                	c.xor	a4,a3
    1746:	00e78023          	sb	a4,0(a5)
    174a:	fc9999e3          	bne	s3,s1,171c <CRYPTO_SetSecurityModeAD+0x1b6>
    174e:	57fd                	c.li	a5,-1
    1750:	00f90763          	beq	s2,a5,175e <CRYPTO_SetSecurityModeAD+0x1f8>
    1754:	4785                	c.li	a5,1
    1756:	02f41623          	sh	a5,44(s0)
    175a:	02042823          	sw	zero,48(s0)
    175e:	40f2                	c.lwsp	ra,28(sp)
    1760:	4462                	c.lwsp	s0,24(sp)
    1762:	44d2                	c.lwsp	s1,20(sp)
    1764:	4942                	c.lwsp	s2,16(sp)
    1766:	49b2                	c.lwsp	s3,12(sp)
    1768:	4a22                	c.lwsp	s4,8(sp)
    176a:	4a92                	c.lwsp	s5,4(sp)
    176c:	4b02                	c.lwsp	s6,0(sp)
    176e:	4501                	c.li	a0,0
    1770:	6105                	c.addi16sp	sp,32
    1772:	8082                	c.jr	ra
    1774:	0a440793          	addi	a5,s0,164
    1778:	04000613          	addi	a2,zero,64
    177c:	d03c                	c.sw	a5,96(s0)
    177e:	03600593          	addi	a1,zero,54
    1782:	008080ef          	jal	ra,978a <_memset>
    1786:	04000613          	addi	a2,zero,64
    178a:	b79d                	c.j	16f0 <CRYPTO_SetSecurityModeAD+0x18a>
    178c:	04042e23          	sw	zero,92(s0)
    1790:	06042023          	sw	zero,96(s0)
    1794:	bf6d                	c.j	174e <CRYPTO_SetSecurityModeAD+0x1e8>

00001796 <CRYPTO_Init>:
    1796:	1141                	c.addi	sp,-16
    1798:	c422                	c.swsp	s0,8(sp)
    179a:	c606                	c.swsp	ra,12(sp)
    179c:	842a                	c.mv	s0,a0
    179e:	e509                	c.bnez	a0,17a8 <CRYPTO_Init+0x12>
    17a0:	20000437          	lui	s0,0x20000
    17a4:	3a040413          	addi	s0,s0,928 # 200003a0 <crypto_engine>
    17a8:	8522                	c.mv	a0,s0
    17aa:	3b85                	c.jal	151a <CRYPTO_Reset>
    17ac:	4785                	c.li	a5,1
    17ae:	00f41023          	sh	a5,0(s0)
    17b2:	40b2                	c.lwsp	ra,12(sp)
    17b4:	4422                	c.lwsp	s0,8(sp)
    17b6:	4501                	c.li	a0,0
    17b8:	0141                	c.addi	sp,16
    17ba:	8082                	c.jr	ra

000017bc <CRYPTO_SHA_Init>:
    17bc:	1141                	c.addi	sp,-16
    17be:	c422                	c.swsp	s0,8(sp)
    17c0:	c606                	c.swsp	ra,12(sp)
    17c2:	842a                	c.mv	s0,a0
    17c4:	e509                	c.bnez	a0,17ce <CRYPTO_SHA_Init+0x12>
    17c6:	20000437          	lui	s0,0x20000
    17ca:	5e040413          	addi	s0,s0,1504 # 200005e0 <crypto_sha_engine>
    17ce:	8522                	c.mv	a0,s0
    17d0:	3b85                	c.jal	1540 <CRYPTO_SHA_Reset>
    17d2:	4785                	c.li	a5,1
    17d4:	00f41023          	sh	a5,0(s0)
    17d8:	40b2                	c.lwsp	ra,12(sp)
    17da:	4422                	c.lwsp	s0,8(sp)
    17dc:	4501                	c.li	a0,0
    17de:	0141                	c.addi	sp,16
    17e0:	8082                	c.jr	ra

000017e2 <CRYPTO_OTPKey_Init>:
    17e2:	1141                	c.addi	sp,-16
    17e4:	c606                	c.swsp	ra,12(sp)
    17e6:	c422                	c.swsp	s0,8(sp)
    17e8:	4785                	c.li	a5,1
    17ea:	00f58863          	beq	a1,a5,17fa <CRYPTO_OTPKey_Init+0x18>
    17ee:	401007b7          	lui	a5,0x40100
    17f2:	0207aa23          	sw	zero,52(a5) # 40100034 <__retention_entry_func__+0x1f0e0034>
    17f6:	4401                	c.li	s0,0
    17f8:	a01d                	c.j	181e <CRYPTO_OTPKey_Init+0x3c>
    17fa:	478d                	c.li	a5,3
    17fc:	02a7f663          	bgeu	a5,a0,1828 <CRYPTO_OTPKey_Init+0x46>
    1800:	200017b7          	lui	a5,0x20001
    1804:	ad87a703          	lw	a4,-1320(a5) # 20000ad8 <ConfigDebug>
    1808:	000207b7          	lui	a5,0x20
    180c:	547d                	c.li	s0,-1
    180e:	8ff9                	c.and	a5,a4
    1810:	c799                	c.beqz	a5,181e <CRYPTO_OTPKey_Init+0x3c>
    1812:	0002d537          	lui	a0,0x2d
    1816:	74c50513          	addi	a0,a0,1868 # 2d74c <__FUNCTION__.0+0x1c0>
    181a:	03e070ef          	jal	ra,8858 <DiagPrintf>
    181e:	40b2                	c.lwsp	ra,12(sp)
    1820:	8522                	c.mv	a0,s0
    1822:	4422                	c.lwsp	s0,8(sp)
    1824:	0141                	c.addi	sp,16
    1826:	8082                	c.jr	ra
    1828:	800007b7          	lui	a5,0x80000
    182c:	0576                	c.slli	a0,0x1d
    182e:	8d5d                	c.or	a0,a5
    1830:	401007b7          	lui	a5,0x40100
    1834:	dbc8                	c.sw	a0,52(a5)
    1836:	b7c1                	c.j	17f6 <CRYPTO_OTPKey_Init+0x14>

00001838 <CRYPTO_OTPKey_SHA_Init>:
    1838:	1141                	c.addi	sp,-16
    183a:	200007b7          	lui	a5,0x20000
    183e:	c606                	c.swsp	ra,12(sp)
    1840:	c422                	c.swsp	s0,8(sp)
    1842:	4705                	c.li	a4,1
    1844:	38078793          	addi	a5,a5,896 # 20000380 <SHA_OTPKEY>
    1848:	00e58e63          	beq	a1,a4,1864 <CRYPTO_OTPKey_SHA_Init+0x2c>
    184c:	0007a023          	sw	zero,0(a5)
    1850:	401087b7          	lui	a5,0x40108
    1854:	0207aa23          	sw	zero,52(a5) # 40108034 <__retention_entry_func__+0x1f0e8034>
    1858:	4401                	c.li	s0,0
    185a:	40b2                	c.lwsp	ra,12(sp)
    185c:	8522                	c.mv	a0,s0
    185e:	4422                	c.lwsp	s0,8(sp)
    1860:	0141                	c.addi	sp,16
    1862:	8082                	c.jr	ra
    1864:	c38c                	c.sw	a1,0(a5)
    1866:	c11d                	c.beqz	a0,188c <CRYPTO_OTPKey_SHA_Init+0x54>
    1868:	02b50863          	beq	a0,a1,1898 <CRYPTO_OTPKey_SHA_Init+0x60>
    186c:	200017b7          	lui	a5,0x20001
    1870:	ad87a703          	lw	a4,-1320(a5) # 20000ad8 <ConfigDebug>
    1874:	000207b7          	lui	a5,0x20
    1878:	547d                	c.li	s0,-1
    187a:	8ff9                	c.and	a5,a4
    187c:	dff9                	c.beqz	a5,185a <CRYPTO_OTPKey_SHA_Init+0x22>
    187e:	0002d537          	lui	a0,0x2d
    1882:	74c50513          	addi	a0,a0,1868 # 2d74c <__FUNCTION__.0+0x1c0>
    1886:	7d3060ef          	jal	ra,8858 <DiagPrintf>
    188a:	bfc1                	c.j	185a <CRYPTO_OTPKey_SHA_Init+0x22>
    188c:	401087b7          	lui	a5,0x40108
    1890:	80000737          	lui	a4,0x80000
    1894:	dbd8                	c.sw	a4,52(a5)
    1896:	b7c9                	c.j	1858 <CRYPTO_OTPKey_SHA_Init+0x20>
    1898:	401087b7          	lui	a5,0x40108
    189c:	e0000737          	lui	a4,0xe0000
    18a0:	bfd5                	c.j	1894 <CRYPTO_OTPKey_SHA_Init+0x5c>

000018a2 <CRYPTO_Cache_Sync>:
    18a2:	715d                	c.addi16sp	sp,-80
    18a4:	c4a2                	c.swsp	s0,72(sp)
    18a6:	c2a6                	c.swsp	s1,68(sp)
    18a8:	842a                	c.mv	s0,a0
    18aa:	00b504b3          	add	s1,a0,a1
    18ae:	c0ca                	c.swsp	s2,64(sp)
    18b0:	de4e                	c.swsp	s3,60(sp)
    18b2:	da56                	c.swsp	s5,52(sp)
    18b4:	d65e                	c.swsp	s7,44(sp)
    18b6:	89ae                	c.mv	s3,a1
    18b8:	892a                	c.mv	s2,a0
    18ba:	4671                	c.li	a2,28
    18bc:	4581                	c.li	a1,0
    18be:	0048                	c.addi4spn	a0,sp,4
    18c0:	01f4fb93          	andi	s7,s1,31
    18c4:	01f47a93          	andi	s5,s0,31
    18c8:	d85a                	c.swsp	s6,48(sp)
    18ca:	c686                	c.swsp	ra,76(sp)
    18cc:	dc52                	c.swsp	s4,56(sp)
    18ce:	c002                	c.swsp	zero,0(sp)
    18d0:	8b5e                	c.mv	s6,s7
    18d2:	1fc080ef          	jal	ra,9ace <__wrap_memset>
    18d6:	080a8a63          	beq	s5,zero,196a <CRYPTO_Cache_Sync+0xc8>
    18da:	fe047a13          	andi	s4,s0,-32
    18de:	02000613          	addi	a2,zero,32
    18e2:	85d2                	c.mv	a1,s4
    18e4:	850a                	c.mv	a0,sp
    18e6:	52d070ef          	jal	ra,9612 <_memcpy>
    18ea:	7c1027f3          	csrrs	a5,0x7c1,zero
    18ee:	1007f793          	andi	a5,a5,256
    18f2:	c395                	c.beqz	a5,1916 <CRYPTO_Cache_Sync+0x74>
    18f4:	0ff0000f          	fence	iorw,iorw
    18f8:	014a700b          	cache	dinv,(s4)
    18fc:	0ff0000f          	fence	iorw,iorw
    1900:	0001                	c.addi	zero,0
    1902:	0001                	c.addi	zero,0
    1904:	0001                	c.addi	zero,0
    1906:	0001                	c.addi	zero,0
    1908:	0001                	c.addi	zero,0
    190a:	0001                	c.addi	zero,0
    190c:	0001                	c.addi	zero,0
    190e:	0001                	c.addi	zero,0
    1910:	0001                	c.addi	zero,0
    1912:	0001                	c.addi	zero,0
    1914:	0001                	c.addi	zero,0
    1916:	009447b3          	xor	a5,s0,s1
    191a:	9b81                	c.andi	a5,-32
    191c:	0ffaf613          	andi	a2,s5,255
    1920:	01510533          	add	a0,sp,s5
    1924:	10079c63          	bne	a5,zero,1a3c <CRYPTO_Cache_Sync+0x19a>
    1928:	40cb0633          	sub	a2,s6,a2
    192c:	85a2                	c.mv	a1,s0
    192e:	4e5070ef          	jal	ra,9612 <_memcpy>
    1932:	02000613          	addi	a2,zero,32
    1936:	858a                	c.mv	a1,sp
    1938:	8552                	c.mv	a0,s4
    193a:	4d9070ef          	jal	ra,9612 <_memcpy>
    193e:	7c1027f3          	csrrs	a5,0x7c1,zero
    1942:	1007f793          	andi	a5,a5,256
    1946:	c395                	c.beqz	a5,196a <CRYPTO_Cache_Sync+0xc8>
    1948:	0ff0000f          	fence	iorw,iorw
    194c:	054a700b          	cache	dwb,(s4)
    1950:	0ff0000f          	fence	iorw,iorw
    1954:	0001                	c.addi	zero,0
    1956:	0001                	c.addi	zero,0
    1958:	0001                	c.addi	zero,0
    195a:	0001                	c.addi	zero,0
    195c:	0001                	c.addi	zero,0
    195e:	0001                	c.addi	zero,0
    1960:	0001                	c.addi	zero,0
    1962:	0001                	c.addi	zero,0
    1964:	0001                	c.addi	zero,0
    1966:	0001                	c.addi	zero,0
    1968:	0001                	c.addi	zero,0
    196a:	080b8563          	beq	s7,zero,19f4 <CRYPTO_Cache_Sync+0x152>
    196e:	009447b3          	xor	a5,s0,s1
    1972:	9b81                	c.andi	a5,-32
    1974:	c3c1                	c.beqz	a5,19f4 <CRYPTO_Cache_Sync+0x152>
    1976:	fe04fa13          	andi	s4,s1,-32
    197a:	02000613          	addi	a2,zero,32
    197e:	85d2                	c.mv	a1,s4
    1980:	850a                	c.mv	a0,sp
    1982:	491070ef          	jal	ra,9612 <_memcpy>
    1986:	7c1027f3          	csrrs	a5,0x7c1,zero
    198a:	1007f793          	andi	a5,a5,256
    198e:	c395                	c.beqz	a5,19b2 <CRYPTO_Cache_Sync+0x110>
    1990:	0ff0000f          	fence	iorw,iorw
    1994:	014a700b          	cache	dinv,(s4)
    1998:	0ff0000f          	fence	iorw,iorw
    199c:	0001                	c.addi	zero,0
    199e:	0001                	c.addi	zero,0
    19a0:	0001                	c.addi	zero,0
    19a2:	0001                	c.addi	zero,0
    19a4:	0001                	c.addi	zero,0
    19a6:	0001                	c.addi	zero,0
    19a8:	0001                	c.addi	zero,0
    19aa:	0001                	c.addi	zero,0
    19ac:	0001                	c.addi	zero,0
    19ae:	0001                	c.addi	zero,0
    19b0:	0001                	c.addi	zero,0
    19b2:	865a                	c.mv	a2,s6
    19b4:	85d2                	c.mv	a1,s4
    19b6:	850a                	c.mv	a0,sp
    19b8:	45b070ef          	jal	ra,9612 <_memcpy>
    19bc:	02000613          	addi	a2,zero,32
    19c0:	858a                	c.mv	a1,sp
    19c2:	8552                	c.mv	a0,s4
    19c4:	44f070ef          	jal	ra,9612 <_memcpy>
    19c8:	7c1027f3          	csrrs	a5,0x7c1,zero
    19cc:	1007f793          	andi	a5,a5,256
    19d0:	c395                	c.beqz	a5,19f4 <CRYPTO_Cache_Sync+0x152>
    19d2:	0ff0000f          	fence	iorw,iorw
    19d6:	054a700b          	cache	dwb,(s4)
    19da:	0ff0000f          	fence	iorw,iorw
    19de:	0001                	c.addi	zero,0
    19e0:	0001                	c.addi	zero,0
    19e2:	0001                	c.addi	zero,0
    19e4:	0001                	c.addi	zero,0
    19e6:	0001                	c.addi	zero,0
    19e8:	0001                	c.addi	zero,0
    19ea:	0001                	c.addi	zero,0
    19ec:	0001                	c.addi	zero,0
    19ee:	0001                	c.addi	zero,0
    19f0:	0001                	c.addi	zero,0
    19f2:	0001                	c.addi	zero,0
    19f4:	7c1027f3          	csrrs	a5,0x7c1,zero
    19f8:	1007f793          	andi	a5,a5,256
    19fc:	c78d                	c.beqz	a5,1a26 <CRYPTO_Cache_Sync+0x184>
    19fe:	57fd                	c.li	a5,-1
    1a00:	04f41363          	bne	s0,a5,1a46 <CRYPTO_Cache_Sync+0x1a4>
    1a04:	04899163          	bne	s3,s0,1a46 <CRYPTO_Cache_Sync+0x1a4>
    1a08:	7c0167f3          	csrrsi	a5,0x7c0,2
    1a0c:	0ff0000f          	fence	iorw,iorw
    1a10:	0001                	c.addi	zero,0
    1a12:	0001                	c.addi	zero,0
    1a14:	0001                	c.addi	zero,0
    1a16:	0001                	c.addi	zero,0
    1a18:	0001                	c.addi	zero,0
    1a1a:	0001                	c.addi	zero,0
    1a1c:	0001                	c.addi	zero,0
    1a1e:	0001                	c.addi	zero,0
    1a20:	0001                	c.addi	zero,0
    1a22:	0001                	c.addi	zero,0
    1a24:	0001                	c.addi	zero,0
    1a26:	40b6                	c.lwsp	ra,76(sp)
    1a28:	4426                	c.lwsp	s0,72(sp)
    1a2a:	4496                	c.lwsp	s1,68(sp)
    1a2c:	4906                	c.lwsp	s2,64(sp)
    1a2e:	59f2                	c.lwsp	s3,60(sp)
    1a30:	5a62                	c.lwsp	s4,56(sp)
    1a32:	5ad2                	c.lwsp	s5,52(sp)
    1a34:	5b42                	c.lwsp	s6,48(sp)
    1a36:	5bb2                	c.lwsp	s7,44(sp)
    1a38:	6161                	c.addi16sp	sp,80
    1a3a:	8082                	c.jr	ra
    1a3c:	02000793          	addi	a5,zero,32
    1a40:	40c78633          	sub	a2,a5,a2
    1a44:	b5e5                	c.j	192c <CRYPTO_Cache_Sync+0x8a>
    1a46:	000a8b63          	beq	s5,zero,1a5c <CRYPTO_Cache_Sync+0x1ba>
    1a4a:	fff48593          	addi	a1,s1,-1
    1a4e:	9981                	c.andi	a1,-32
    1a50:	fe047913          	andi	s2,s0,-32
    1a54:	02058593          	addi	a1,a1,32
    1a58:	412589b3          	sub	s3,a1,s2
    1a5c:	fd3055e3          	bge	zero,s3,1a26 <CRYPTO_Cache_Sync+0x184>
    1a60:	01f97593          	andi	a1,s2,31
    1a64:	95ce                	c.add	a1,s3
    1a66:	0ff0000f          	fence	iorw,iorw
    1a6a:	87ca                	c.mv	a5,s2
    1a6c:	95ca                	c.add	a1,s2
    1a6e:	00f7f00b          	cache	dinv,(a5)
    1a72:	02078793          	addi	a5,a5,32 # 40108020 <__retention_entry_func__+0x1f0e8020>
    1a76:	40f58733          	sub	a4,a1,a5
    1a7a:	fee04ae3          	blt	zero,a4,1a6e <CRYPTO_Cache_Sync+0x1cc>
    1a7e:	b779                	c.j	1a0c <CRYPTO_Cache_Sync+0x16a>

00001a80 <CRYPTO_ProcessAD>:
    1a80:	711d                	c.addi16sp	sp,-96
    1a82:	cca2                	c.swsp	s0,88(sp)
    1a84:	caa6                	c.swsp	s1,84(sp)
    1a86:	c8ca                	c.swsp	s2,80(sp)
    1a88:	c6ce                	c.swsp	s3,76(sp)
    1a8a:	c4d2                	c.swsp	s4,72(sp)
    1a8c:	c2d6                	c.swsp	s5,68(sp)
    1a8e:	dc62                	c.swsp	s8,56(sp)
    1a90:	da66                	c.swsp	s9,52(sp)
    1a92:	d86a                	c.swsp	s10,48(sp)
    1a94:	d66e                	c.swsp	s11,44(sp)
    1a96:	ce86                	c.swsp	ra,92(sp)
    1a98:	c0da                	c.swsp	s6,64(sp)
    1a9a:	de5e                	c.swsp	s7,60(sp)
    1a9c:	89be                	c.mv	s3,a5
    1a9e:	00854783          	lbu	a5,8(a0)
    1aa2:	5c06                	c.lwsp	s8,96(sp)
    1aa4:	5c96                	c.lwsp	s9,100(sp)
    1aa6:	842a                	c.mv	s0,a0
    1aa8:	8a2e                	c.mv	s4,a1
    1aaa:	8932                	c.mv	s2,a2
    1aac:	8d36                	c.mv	s10,a3
    1aae:	8dba                	c.mv	s11,a4
    1ab0:	8ac2                	c.mv	s5,a6
    1ab2:	84c6                	c.mv	s1,a7
    1ab4:	40079263          	bne	a5,zero,1eb8 <CRYPTO_ProcessAD+0x438>
    1ab8:	401087b7          	lui	a5,0x40108
    1abc:	c43e                	c.swsp	a5,8(sp)
    1abe:	4b05                	c.li	s6,1
    1ac0:	000a1a63          	bne	s4,zero,1ad4 <CRYPTO_ProcessAD+0x54>
    1ac4:	0002e537          	lui	a0,0x2e
    1ac8:	3ad00593          	addi	a1,zero,941
    1acc:	81050513          	addi	a0,a0,-2032 # 2d810 <__FUNCTION__.0>
    1ad0:	d47fe0ef          	jal	ra,816 <io_assert_failed>
    1ad4:	00044703          	lbu	a4,0(s0)
    1ad8:	4785                	c.li	a5,1
    1ada:	00f70a63          	beq	a4,a5,1aee <CRYPTO_ProcessAD+0x6e>
    1ade:	0002e537          	lui	a0,0x2e
    1ae2:	3b000593          	addi	a1,zero,944
    1ae6:	81050513          	addi	a0,a0,-2032 # 2d810 <__FUNCTION__.0>
    1aea:	d2dfe0ef          	jal	ra,816 <io_assert_failed>
    1aee:	855a                	c.mv	a0,s6
    1af0:	b5aff0ef          	jal	ra,e4a <CRYPTO_ClearAllINT>
    1af4:	00f97793          	andi	a5,s2,15
    1af8:	cc1c                	c.sw	a5,24(s0)
    1afa:	40f007b3          	sub	a5,zero,a5
    1afe:	8bbd                	c.andi	a5,15
    1b00:	cc3c                	c.sw	a5,88(s0)
    1b02:	00faf793          	andi	a5,s5,15
    1b06:	cc5c                	c.sw	a5,28(s0)
    1b08:	4450                	c.lw	a2,12(s0)
    1b0a:	40f007b3          	sub	a5,zero,a5
    1b0e:	8bbd                	c.andi	a5,15
    1b10:	c83c                	c.sw	a5,80(s0)
    1b12:	05542623          	sw	s5,76(s0)
    1b16:	05242a23          	sw	s2,84(s0)
    1b1a:	57fd                	c.li	a5,-1
    1b1c:	02842b83          	lw	s7,40(s0)
    1b20:	54f60963          	beq	a2,a5,2072 <CRYPTO_ProcessAD+0x5f2>
    1b24:	581c                	c.lw	a5,48(s0)
    1b26:	97ca                	c.add	a5,s2
    1b28:	d81c                	c.sw	a5,48(s0)
    1b2a:	000c8663          	beq	s9,zero,1b36 <CRYPTO_ProcessAD+0xb6>
    1b2e:	05cca783          	lw	a5,92(s9)
    1b32:	60078a63          	beq	a5,zero,2146 <CRYPTO_ProcessAD+0x6c6>
    1b36:	4785                	c.li	a5,1
    1b38:	02f406a3          	sb	a5,45(s0)
    1b3c:	c4bd                	c.beqz	s1,1baa <CRYPTO_ProcessAD+0x12a>
    1b3e:	020c8463          	beq	s9,zero,1b66 <CRYPTO_ProcessAD+0xe6>
    1b42:	04acc783          	lbu	a5,74(s9)
    1b46:	4705                	c.li	a4,1
    1b48:	00e79f63          	bne	a5,a4,1b66 <CRYPTO_ProcessAD+0xe6>
    1b4c:	05cca703          	lw	a4,92(s9)
    1b50:	00f70b63          	beq	a4,a5,1b66 <CRYPTO_ProcessAD+0xe6>
    1b54:	47f1                	c.li	a5,28
    1b56:	36fb8663          	beq	s7,a5,1ec2 <CRYPTO_ProcessAD+0x442>
    1b5a:	03000793          	addi	a5,zero,48
    1b5e:	00fb9463          	bne	s7,a5,1b66 <CRYPTO_ProcessAD+0xe6>
    1b62:	04000b93          	addi	s7,zero,64
    1b66:	0ffbf513          	andi	a0,s7,255
    1b6a:	700007b7          	lui	a5,0x70000
    1b6e:	8d5d                	c.or	a0,a5
    1b70:	7c1027f3          	csrrs	a5,0x7c1,zero
    1b74:	1007f793          	andi	a5,a5,256
    1b78:	c78d                	c.beqz	a5,1ba2 <CRYPTO_ProcessAD+0x122>
    1b7a:	57fd                	c.li	a5,-1
    1b7c:	34f49663          	bne	s1,a5,1ec8 <CRYPTO_ProcessAD+0x448>
    1b80:	349b9763          	bne	s7,s1,1ece <CRYPTO_ProcessAD+0x44e>
    1b84:	7c0467f3          	csrrsi	a5,0x7c0,8
    1b88:	0ff0000f          	fence	iorw,iorw
    1b8c:	0001                	c.addi	zero,0
    1b8e:	0001                	c.addi	zero,0
    1b90:	0001                	c.addi	zero,0
    1b92:	0001                	c.addi	zero,0
    1b94:	0001                	c.addi	zero,0
    1b96:	0001                	c.addi	zero,0
    1b98:	0001                	c.addi	zero,0
    1b9a:	0001                	c.addi	zero,0
    1b9c:	0001                	c.addi	zero,0
    1b9e:	0001                	c.addi	zero,0
    1ba0:	0001                	c.addi	zero,0
    1ba2:	865a                	c.mv	a2,s6
    1ba4:	85a6                	c.mv	a1,s1
    1ba6:	a02ff0ef          	jal	ra,da8 <CRYPTO_SetDstDesc>
    1baa:	85ea                	c.mv	a1,s10
    1bac:	875a                	c.mv	a4,s6
    1bae:	86e6                	c.mv	a3,s9
    1bb0:	866e                	c.mv	a2,s11
    1bb2:	8522                	c.mv	a0,s0
    1bb4:	d14ff0ef          	jal	ra,10c8 <CRYPTO_SrcDescKeyIv>
    1bb8:	40000d37          	lui	s10,0x40000
    1bbc:	14098863          	beq	s3,zero,1d0c <CRYPTO_ProcessAD+0x28c>
    1bc0:	7c102773          	csrrs	a4,0x7c1,zero
    1bc4:	10077713          	andi	a4,a4,256
    1bc8:	c715                	c.beqz	a4,1bf4 <CRYPTO_ProcessAD+0x174>
    1bca:	56fd                	c.li	a3,-1
    1bcc:	874e                	c.mv	a4,s3
    1bce:	38d99063          	bne	s3,a3,1f4e <CRYPTO_ProcessAD+0x4ce>
    1bd2:	393a9263          	bne	s5,s3,1f56 <CRYPTO_ProcessAD+0x4d6>
    1bd6:	7c046773          	csrrsi	a4,0x7c0,8
    1bda:	0ff0000f          	fence	iorw,iorw
    1bde:	0001                	c.addi	zero,0
    1be0:	0001                	c.addi	zero,0
    1be2:	0001                	c.addi	zero,0
    1be4:	0001                	c.addi	zero,0
    1be6:	0001                	c.addi	zero,0
    1be8:	0001                	c.addi	zero,0
    1bea:	0001                	c.addi	zero,0
    1bec:	0001                	c.addi	zero,0
    1bee:	0001                	c.addi	zero,0
    1bf0:	0001                	c.addi	zero,0
    1bf2:	0001                	c.addi	zero,0
    1bf4:	7779                	c.lui	a4,0xffffe
    1bf6:	0ff70793          	addi	a5,a4,255 # ffffe0ff <__kr4_psram_text_start__+0x9fe7e0df>
    1bfa:	20001cb7          	lui	s9,0x20001
    1bfe:	c63e                	c.swsp	a5,12(sp)
    1c00:	ad8c8c93          	addi	s9,s9,-1320 # 20000ad8 <ConfigDebug>
    1c04:	0002ddb7          	lui	s11,0x2d
    1c08:	47c1                	c.li	a5,16
    1c0a:	3957e063          	bltu	a5,s5,1f8a <CRYPTO_ProcessAD+0x50a>
    1c0e:	040a8e63          	beq	s5,zero,1c6a <CRYPTO_ProcessAD+0x1ea>
    1c12:	7579                	c.lui	a0,0xffffe
    1c14:	01faf713          	andi	a4,s5,31
    1c18:	0ff50513          	addi	a0,a0,255 # ffffe0ff <__kr4_psram_text_start__+0x9fe7e0df>
    1c1c:	0722                	c.slli	a4,0x8
    1c1e:	00ad77b3          	and	a5,s10,a0
    1c22:	00e7ed33          	or	s10,a5,a4
    1c26:	20001737          	lui	a4,0x20001
    1c2a:	ae072683          	lw	a3,-1312(a4) # 20000ae0 <ConfigDebug+0x8>
    1c2e:	6709                	c.lui	a4,0x2
    1c30:	8f75                	c.and	a4,a3
    1c32:	c70d                	c.beqz	a4,1c5c <CRYPTO_ProcessAD+0x1dc>
    1c34:	0002d5b7          	lui	a1,0x2d
    1c38:	0002d537          	lui	a0,0x2d
    1c3c:	864e                	c.mv	a2,s3
    1c3e:	6a058593          	addi	a1,a1,1696 # 2d6a0 <__FUNCTION__.0+0x114>
    1c42:	86d6                	c.mv	a3,s5
    1c44:	6b850513          	addi	a0,a0,1720 # 2d6b8 <__FUNCTION__.0+0x12c>
    1c48:	411060ef          	jal	ra,8858 <DiagPrintf>
    1c4c:	0002d637          	lui	a2,0x2d
    1c50:	76060613          	addi	a2,a2,1888 # 2d760 <__FUNCTION__.0+0x1d4>
    1c54:	85d6                	c.mv	a1,s5
    1c56:	854e                	c.mv	a0,s3
    1c58:	f65fe0ef          	jal	ra,bbc <CRYPTO_MemDump>
    1c5c:	856a                	c.mv	a0,s10
    1c5e:	865a                	c.mv	a2,s6
    1c60:	85ce                	c.mv	a1,s3
    1c62:	8caff0ef          	jal	ra,d2c <CRYPTO_SetSrcDesc>
    1c66:	40000d37          	lui	s10,0x40000
    1c6a:	4838                	c.lw	a4,80(s0)
    1c6c:	c345                	c.beqz	a4,1d0c <CRYPTO_ProcessAD+0x28c>
    1c6e:	7579                	c.lui	a0,0xffffe
    1c70:	0ff50513          	addi	a0,a0,255 # ffffe0ff <__kr4_psram_text_start__+0x9fe7e0df>
    1c74:	8b7d                	c.andi	a4,31
    1c76:	0722                	c.slli	a4,0x8
    1c78:	00ad77b3          	and	a5,s10,a0
    1c7c:	00e7ed33          	or	s10,a5,a4
    1c80:	20000737          	lui	a4,0x20000
    1c84:	38070713          	addi	a4,a4,896 # 20000380 <SHA_OTPKEY>
    1c88:	4a070a93          	addi	s5,a4,1184
    1c8c:	7c1026f3          	csrrs	a3,0x7c1,zero
    1c90:	200019b7          	lui	s3,0x20001
    1c94:	1006f693          	andi	a3,a3,256
    1c98:	82098993          	addi	s3,s3,-2016 # 20000820 <ipsec_padding>
    1c9c:	c695                	c.beqz	a3,1cc8 <CRYPTO_ProcessAD+0x248>
    1c9e:	0ff0000f          	fence	iorw,iorw
    1ca2:	035af00b          	cache	dwbinv,(s5)
    1ca6:	4c070713          	addi	a4,a4,1216
    1caa:	02e7700b          	cache	dwbinv,(a4)
    1cae:	0ff0000f          	fence	iorw,iorw
    1cb2:	0001                	c.addi	zero,0
    1cb4:	0001                	c.addi	zero,0
    1cb6:	0001                	c.addi	zero,0
    1cb8:	0001                	c.addi	zero,0
    1cba:	0001                	c.addi	zero,0
    1cbc:	0001                	c.addi	zero,0
    1cbe:	0001                	c.addi	zero,0
    1cc0:	0001                	c.addi	zero,0
    1cc2:	0001                	c.addi	zero,0
    1cc4:	0001                	c.addi	zero,0
    1cc6:	0001                	c.addi	zero,0
    1cc8:	20001737          	lui	a4,0x20001
    1ccc:	ae072683          	lw	a3,-1312(a4) # 20000ae0 <ConfigDebug+0x8>
    1cd0:	6709                	c.lui	a4,0x2
    1cd2:	8f75                	c.and	a4,a3
    1cd4:	c70d                	c.beqz	a4,1cfe <CRYPTO_ProcessAD+0x27e>
    1cd6:	4834                	c.lw	a3,80(s0)
    1cd8:	0002d5b7          	lui	a1,0x2d
    1cdc:	0002d537          	lui	a0,0x2d
    1ce0:	864e                	c.mv	a2,s3
    1ce2:	6a058593          	addi	a1,a1,1696 # 2d6a0 <__FUNCTION__.0+0x114>
    1ce6:	6b850513          	addi	a0,a0,1720 # 2d6b8 <__FUNCTION__.0+0x12c>
    1cea:	36f060ef          	jal	ra,8858 <DiagPrintf>
    1cee:	482c                	c.lw	a1,80(s0)
    1cf0:	0002d637          	lui	a2,0x2d
    1cf4:	76860613          	addi	a2,a2,1896 # 2d768 <__FUNCTION__.0+0x1dc>
    1cf8:	854e                	c.mv	a0,s3
    1cfa:	ec3fe0ef          	jal	ra,bbc <CRYPTO_MemDump>
    1cfe:	856a                	c.mv	a0,s10
    1d00:	865a                	c.mv	a2,s6
    1d02:	85d6                	c.mv	a1,s5
    1d04:	828ff0ef          	jal	ra,d2c <CRYPTO_SetSrcDesc>
    1d08:	40000d37          	lui	s10,0x40000
    1d0c:	020a0c63          	beq	s4,zero,1d44 <CRYPTO_ProcessAD+0x2c4>
    1d10:	7c102773          	csrrs	a4,0x7c1,zero
    1d14:	10077713          	andi	a4,a4,256
    1d18:	c715                	c.beqz	a4,1d44 <CRYPTO_ProcessAD+0x2c4>
    1d1a:	56fd                	c.li	a3,-1
    1d1c:	8752                	c.mv	a4,s4
    1d1e:	2ada1d63          	bne	s4,a3,1fd8 <CRYPTO_ProcessAD+0x558>
    1d22:	2b491f63          	bne	s2,s4,1fe0 <CRYPTO_ProcessAD+0x560>
    1d26:	7c046773          	csrrsi	a4,0x7c0,8
    1d2a:	0ff0000f          	fence	iorw,iorw
    1d2e:	0001                	c.addi	zero,0
    1d30:	0001                	c.addi	zero,0
    1d32:	0001                	c.addi	zero,0
    1d34:	0001                	c.addi	zero,0
    1d36:	0001                	c.addi	zero,0
    1d38:	0001                	c.addi	zero,0
    1d3a:	0001                	c.addi	zero,0
    1d3c:	0001                	c.addi	zero,0
    1d3e:	0001                	c.addi	zero,0
    1d40:	0001                	c.addi	zero,0
    1d42:	0001                	c.addi	zero,0
    1d44:	6991                	c.lui	s3,0x4
    1d46:	f0004ab7          	lui	s5,0xf0004
    1d4a:	19c1                	c.addi	s3,-16
    1d4c:	1afd                	c.addi	s5,-1
    1d4e:	0ffc0cb7          	lui	s9,0xffc0
    1d52:	2d29e163          	bltu	s3,s2,2014 <CRYPTO_ProcessAD+0x594>
    1d56:	4c38                	c.lw	a4,88(s0)
    1d58:	0fffc6b7          	lui	a3,0xfffc
    1d5c:	00e91513          	slli	a0,s2,0xe
    1d60:	00173713          	sltiu	a4,a4,1
    1d64:	8d75                	c.and	a0,a3
    1d66:	0772                	c.slli	a4,0x1c
    1d68:	8d59                	c.or	a0,a4
    1d6a:	e0004737          	lui	a4,0xe0004
    1d6e:	177d                	c.addi	a4,-1
    1d70:	00ed77b3          	and	a5,s10,a4
    1d74:	8d5d                	c.or	a0,a5
    1d76:	865a                	c.mv	a2,s6
    1d78:	85d2                	c.mv	a1,s4
    1d7a:	fb3fe0ef          	jal	ra,d2c <CRYPTO_SetSrcDesc>
    1d7e:	200019b7          	lui	s3,0x20001
    1d82:	ad898793          	addi	a5,s3,-1320 # 20000ad8 <ConfigDebug>
    1d86:	4798                	c.lw	a4,8(a5)
    1d88:	6789                	c.lui	a5,0x2
    1d8a:	ad898993          	addi	s3,s3,-1320
    1d8e:	8ff9                	c.and	a5,a4
    1d90:	c78d                	c.beqz	a5,1dba <CRYPTO_ProcessAD+0x33a>
    1d92:	0002d5b7          	lui	a1,0x2d
    1d96:	0002d537          	lui	a0,0x2d
    1d9a:	8652                	c.mv	a2,s4
    1d9c:	6a058593          	addi	a1,a1,1696 # 2d6a0 <__FUNCTION__.0+0x114>
    1da0:	86ca                	c.mv	a3,s2
    1da2:	6b850513          	addi	a0,a0,1720 # 2d6b8 <__FUNCTION__.0+0x12c>
    1da6:	2b3060ef          	jal	ra,8858 <DiagPrintf>
    1daa:	0002d637          	lui	a2,0x2d
    1dae:	77860613          	addi	a2,a2,1912 # 2d778 <__FUNCTION__.0+0x1ec>
    1db2:	85ca                	c.mv	a1,s2
    1db4:	8552                	c.mv	a0,s4
    1db6:	e07fe0ef          	jal	ra,bbc <CRYPTO_MemDump>
    1dba:	05842903          	lw	s2,88(s0)
    1dbe:	0a090163          	beq	s2,zero,1e60 <CRYPTO_ProcessAD+0x3e0>
    1dc2:	0fffc7b7          	lui	a5,0xfffc
    1dc6:	093a                	c.slli	s2,0xe
    1dc8:	00f97933          	and	s2,s2,a5
    1dcc:	500007b7          	lui	a5,0x50000
    1dd0:	00f96933          	or	s2,s2,a5
    1dd4:	200007b7          	lui	a5,0x20000
    1dd8:	38078793          	addi	a5,a5,896 # 20000380 <SHA_OTPKEY>
    1ddc:	4a078c93          	addi	s9,a5,1184
    1de0:	7c102773          	csrrs	a4,0x7c1,zero
    1de4:	20001a37          	lui	s4,0x20001
    1de8:	10077713          	andi	a4,a4,256
    1dec:	820a0a13          	addi	s4,s4,-2016 # 20000820 <ipsec_padding>
    1df0:	c715                	c.beqz	a4,1e1c <CRYPTO_ProcessAD+0x39c>
    1df2:	0ff0000f          	fence	iorw,iorw
    1df6:	039cf00b          	cache	dwbinv,(s9)
    1dfa:	4c078793          	addi	a5,a5,1216
    1dfe:	02f7f00b          	cache	dwbinv,(a5)
    1e02:	0ff0000f          	fence	iorw,iorw
    1e06:	0001                	c.addi	zero,0
    1e08:	0001                	c.addi	zero,0
    1e0a:	0001                	c.addi	zero,0
    1e0c:	0001                	c.addi	zero,0
    1e0e:	0001                	c.addi	zero,0
    1e10:	0001                	c.addi	zero,0
    1e12:	0001                	c.addi	zero,0
    1e14:	0001                	c.addi	zero,0
    1e16:	0001                	c.addi	zero,0
    1e18:	0001                	c.addi	zero,0
    1e1a:	0001                	c.addi	zero,0
    1e1c:	0089a703          	lw	a4,8(s3)
    1e20:	6789                	c.lui	a5,0x2
    1e22:	8ff9                	c.and	a5,a4
    1e24:	cb8d                	c.beqz	a5,1e56 <CRYPTO_ProcessAD+0x3d6>
    1e26:	00491a93          	slli	s5,s2,0x4
    1e2a:	012ada93          	srli	s5,s5,0x12
    1e2e:	0002d5b7          	lui	a1,0x2d
    1e32:	0002d537          	lui	a0,0x2d
    1e36:	8652                	c.mv	a2,s4
    1e38:	6a058593          	addi	a1,a1,1696 # 2d6a0 <__FUNCTION__.0+0x114>
    1e3c:	86d6                	c.mv	a3,s5
    1e3e:	6b850513          	addi	a0,a0,1720 # 2d6b8 <__FUNCTION__.0+0x12c>
    1e42:	217060ef          	jal	ra,8858 <DiagPrintf>
    1e46:	0002d637          	lui	a2,0x2d
    1e4a:	78460613          	addi	a2,a2,1924 # 2d784 <__FUNCTION__.0+0x1f8>
    1e4e:	85d6                	c.mv	a1,s5
    1e50:	8552                	c.mv	a0,s4
    1e52:	d6bfe0ef          	jal	ra,bbc <CRYPTO_MemDump>
    1e56:	865a                	c.mv	a2,s6
    1e58:	85e6                	c.mv	a1,s9
    1e5a:	854a                	c.mv	a0,s2
    1e5c:	ed1fe0ef          	jal	ra,d2c <CRYPTO_SetSrcDesc>
    1e60:	000f47b7          	lui	a5,0xf4
    1e64:	24078793          	addi	a5,a5,576 # f4240 <secp192k1_a+0xc5034>
    1e68:	4722                	c.lwsp	a4,8(sp)
    1e6a:	4b18                	c.lw	a4,16(a4)
    1e6c:	8b41                	c.andi	a4,16
    1e6e:	1e071263          	bne	a4,zero,2052 <CRYPTO_ProcessAD+0x5d2>
    1e72:	4722                	c.lwsp	a4,8(sp)
    1e74:	4f58                	c.lw	a4,28(a4)
    1e76:	ce3a                	c.swsp	a4,28(sp)
    1e78:	4772                	c.lwsp	a4,28(sp)
    1e7a:	1a070b63          	beq	a4,zero,2030 <CRYPTO_ProcessAD+0x5b0>
    1e7e:	0009a703          	lw	a4,0(s3)
    1e82:	6789                	c.lui	a5,0x2
    1e84:	547d                	c.li	s0,-1
    1e86:	8ff9                	c.and	a5,a4
    1e88:	cb81                	c.beqz	a5,1e98 <CRYPTO_ProcessAD+0x418>
    1e8a:	45f2                	c.lwsp	a1,28(sp)
    1e8c:	0002d537          	lui	a0,0x2d
    1e90:	79450513          	addi	a0,a0,1940 # 2d794 <__FUNCTION__.0+0x208>
    1e94:	1c5060ef          	jal	ra,8858 <DiagPrintf>
    1e98:	40f6                	c.lwsp	ra,92(sp)
    1e9a:	8522                	c.mv	a0,s0
    1e9c:	4466                	c.lwsp	s0,88(sp)
    1e9e:	44d6                	c.lwsp	s1,84(sp)
    1ea0:	4946                	c.lwsp	s2,80(sp)
    1ea2:	49b6                	c.lwsp	s3,76(sp)
    1ea4:	4a26                	c.lwsp	s4,72(sp)
    1ea6:	4a96                	c.lwsp	s5,68(sp)
    1ea8:	4b06                	c.lwsp	s6,64(sp)
    1eaa:	5bf2                	c.lwsp	s7,60(sp)
    1eac:	5c62                	c.lwsp	s8,56(sp)
    1eae:	5cd2                	c.lwsp	s9,52(sp)
    1eb0:	5d42                	c.lwsp	s10,48(sp)
    1eb2:	5db2                	c.lwsp	s11,44(sp)
    1eb4:	6125                	c.addi16sp	sp,96
    1eb6:	8082                	c.jr	ra
    1eb8:	401007b7          	lui	a5,0x40100
    1ebc:	c43e                	c.swsp	a5,8(sp)
    1ebe:	4b01                	c.li	s6,0
    1ec0:	b101                	c.j	1ac0 <CRYPTO_ProcessAD+0x40>
    1ec2:	02000b93          	addi	s7,zero,32
    1ec6:	b145                	c.j	1b66 <CRYPTO_ProcessAD+0xe6>
    1ec8:	01f4f793          	andi	a5,s1,31
    1ecc:	cb9d                	c.beqz	a5,1f02 <CRYPTO_ProcessAD+0x482>
    1ece:	fff48793          	addi	a5,s1,-1
    1ed2:	97de                	c.add	a5,s7
    1ed4:	9b81                	c.andi	a5,-32
    1ed6:	fe04f713          	andi	a4,s1,-32
    1eda:	02078793          	addi	a5,a5,32 # 40100020 <__retention_entry_func__+0x1f0e0020>
    1ede:	8f99                	c.sub	a5,a4
    1ee0:	ccf051e3          	bge	zero,a5,1ba2 <CRYPTO_ProcessAD+0x122>
    1ee4:	01f77693          	andi	a3,a4,31
    1ee8:	97b6                	c.add	a5,a3
    1eea:	0ff0000f          	fence	iorw,iorw
    1eee:	97ba                	c.add	a5,a4
    1ef0:	02e7700b          	cache	dwbinv,(a4)
    1ef4:	02070713          	addi	a4,a4,32 # e0004020 <__kr4_psram_text_start__+0x7fe84000>
    1ef8:	40e786b3          	sub	a3,a5,a4
    1efc:	fed04ae3          	blt	zero,a3,1ef0 <CRYPTO_ProcessAD+0x470>
    1f00:	b161                	c.j	1b88 <CRYPTO_ProcessAD+0x108>
    1f02:	87de                	c.mv	a5,s7
    1f04:	8726                	c.mv	a4,s1
    1f06:	bfe9                	c.j	1ee0 <CRYPTO_ProcessAD+0x460>
    1f08:	01f4f793          	andi	a5,s1,31
    1f0c:	cb9d                	c.beqz	a5,1f42 <CRYPTO_ProcessAD+0x4c2>
    1f0e:	fff48793          	addi	a5,s1,-1
    1f12:	97ca                	c.add	a5,s2
    1f14:	9b81                	c.andi	a5,-32
    1f16:	fe04f713          	andi	a4,s1,-32
    1f1a:	02078793          	addi	a5,a5,32
    1f1e:	8f99                	c.sub	a5,a4
    1f20:	1af05563          	bge	zero,a5,20ca <CRYPTO_ProcessAD+0x64a>
    1f24:	01f77693          	andi	a3,a4,31
    1f28:	97b6                	c.add	a5,a3
    1f2a:	0ff0000f          	fence	iorw,iorw
    1f2e:	97ba                	c.add	a5,a4
    1f30:	02e7700b          	cache	dwbinv,(a4)
    1f34:	02070713          	addi	a4,a4,32
    1f38:	40e786b3          	sub	a3,a5,a4
    1f3c:	fed04ae3          	blt	zero,a3,1f30 <CRYPTO_ProcessAD+0x4b0>
    1f40:	aa85                	c.j	20b0 <CRYPTO_ProcessAD+0x630>
    1f42:	87ca                	c.mv	a5,s2
    1f44:	8726                	c.mv	a4,s1
    1f46:	bfe9                	c.j	1f20 <CRYPTO_ProcessAD+0x4a0>
    1f48:	87e2                	c.mv	a5,s8
    1f4a:	4741                	c.li	a4,16
    1f4c:	aa7d                	c.j	210a <CRYPTO_ProcessAD+0x68a>
    1f4e:	01f9f613          	andi	a2,s3,31
    1f52:	86d6                	c.mv	a3,s5
    1f54:	ca11                	c.beqz	a2,1f68 <CRYPTO_ProcessAD+0x4e8>
    1f56:	fff98693          	addi	a3,s3,-1
    1f5a:	96d6                	c.add	a3,s5
    1f5c:	9a81                	c.andi	a3,-32
    1f5e:	fe09f713          	andi	a4,s3,-32
    1f62:	02068693          	addi	a3,a3,32 # fffc020 <__km4_boot_text_start__+0x7fc000>
    1f66:	8e99                	c.sub	a3,a4
    1f68:	c8d056e3          	bge	zero,a3,1bf4 <CRYPTO_ProcessAD+0x174>
    1f6c:	01f77613          	andi	a2,a4,31
    1f70:	96b2                	c.add	a3,a2
    1f72:	0ff0000f          	fence	iorw,iorw
    1f76:	96ba                	c.add	a3,a4
    1f78:	02e7700b          	cache	dwbinv,(a4)
    1f7c:	02070713          	addi	a4,a4,32
    1f80:	40e68633          	sub	a2,a3,a4
    1f84:	fec04ae3          	blt	zero,a2,1f78 <CRYPTO_ProcessAD+0x4f8>
    1f88:	b989                	c.j	1bda <CRYPTO_ProcessAD+0x15a>
    1f8a:	47b2                	c.lwsp	a5,12(sp)
    1f8c:	008ca683          	lw	a3,8(s9) # ffc0008 <__km4_boot_text_start__+0x7bffe8>
    1f90:	6705                	c.lui	a4,0x1
    1f92:	00fd77b3          	and	a5,s10,a5
    1f96:	00e7ed33          	or	s10,a5,a4
    1f9a:	6709                	c.lui	a4,0x2
    1f9c:	8f75                	c.and	a4,a3
    1f9e:	c31d                	c.beqz	a4,1fc4 <CRYPTO_ProcessAD+0x544>
    1fa0:	0002d7b7          	lui	a5,0x2d
    1fa4:	6a078593          	addi	a1,a5,1696 # 2d6a0 <__FUNCTION__.0+0x114>
    1fa8:	864e                	c.mv	a2,s3
    1faa:	46c1                	c.li	a3,16
    1fac:	6b8d8513          	addi	a0,s11,1720 # 2d6b8 <__FUNCTION__.0+0x12c>
    1fb0:	0a9060ef          	jal	ra,8858 <DiagPrintf>
    1fb4:	0002d7b7          	lui	a5,0x2d
    1fb8:	76078613          	addi	a2,a5,1888 # 2d760 <__FUNCTION__.0+0x1d4>
    1fbc:	45c1                	c.li	a1,16
    1fbe:	854e                	c.mv	a0,s3
    1fc0:	bfdfe0ef          	jal	ra,bbc <CRYPTO_MemDump>
    1fc4:	85ce                	c.mv	a1,s3
    1fc6:	856a                	c.mv	a0,s10
    1fc8:	865a                	c.mv	a2,s6
    1fca:	d63fe0ef          	jal	ra,d2c <CRYPTO_SetSrcDesc>
    1fce:	09c1                	c.addi	s3,16
    1fd0:	1ac1                	c.addi	s5,-16
    1fd2:	40000d37          	lui	s10,0x40000
    1fd6:	b90d                	c.j	1c08 <CRYPTO_ProcessAD+0x188>
    1fd8:	01fa7613          	andi	a2,s4,31
    1fdc:	86ca                	c.mv	a3,s2
    1fde:	ca11                	c.beqz	a2,1ff2 <CRYPTO_ProcessAD+0x572>
    1fe0:	fff90693          	addi	a3,s2,-1
    1fe4:	96d2                	c.add	a3,s4
    1fe6:	9a81                	c.andi	a3,-32
    1fe8:	fe0a7713          	andi	a4,s4,-32
    1fec:	02068693          	addi	a3,a3,32
    1ff0:	8e99                	c.sub	a3,a4
    1ff2:	d4d059e3          	bge	zero,a3,1d44 <CRYPTO_ProcessAD+0x2c4>
    1ff6:	01f77613          	andi	a2,a4,31
    1ffa:	96b2                	c.add	a3,a2
    1ffc:	0ff0000f          	fence	iorw,iorw
    2000:	96ba                	c.add	a3,a4
    2002:	02e7700b          	cache	dwbinv,(a4)
    2006:	02070713          	addi	a4,a4,32 # 2020 <CRYPTO_ProcessAD+0x5a0>
    200a:	40e68633          	sub	a2,a3,a4
    200e:	fec04ae3          	blt	zero,a2,2002 <CRYPTO_ProcessAD+0x582>
    2012:	bb21                	c.j	1d2a <CRYPTO_ProcessAD+0x2aa>
    2014:	015d7533          	and	a0,s10,s5
    2018:	85d2                	c.mv	a1,s4
    201a:	865a                	c.mv	a2,s6
    201c:	01956533          	or	a0,a0,s9
    2020:	d0dfe0ef          	jal	ra,d2c <CRYPTO_SetSrcDesc>
    2024:	9a4e                	c.add	s4,s3
    2026:	41390933          	sub	s2,s2,s3
    202a:	40000d37          	lui	s10,0x40000
    202e:	b315                	c.j	1d52 <CRYPTO_ProcessAD+0x2d2>
    2030:	17fd                	c.addi	a5,-1
    2032:	e2079be3          	bne	a5,zero,1e68 <CRYPTO_ProcessAD+0x3e8>
    2036:	0009a703          	lw	a4,0(s3)
    203a:	6789                	c.lui	a5,0x2
    203c:	547d                	c.li	s0,-1
    203e:	8ff9                	c.and	a5,a4
    2040:	e4078ce3          	beq	a5,zero,1e98 <CRYPTO_ProcessAD+0x418>
    2044:	0002d537          	lui	a0,0x2d
    2048:	7c850513          	addi	a0,a0,1992 # 2d7c8 <__FUNCTION__.0+0x23c>
    204c:	00d060ef          	jal	ra,8858 <DiagPrintf>
    2050:	b5a1                	c.j	1e98 <CRYPTO_ProcessAD+0x418>
    2052:	c889                	c.beqz	s1,2064 <CRYPTO_ProcessAD+0x5e4>
    2054:	4458                	c.lw	a4,12(s0)
    2056:	57fd                	c.li	a5,-1
    2058:	85de                	c.mv	a1,s7
    205a:	00f71363          	bne	a4,a5,2060 <CRYPTO_ProcessAD+0x5e0>
    205e:	486c                	c.lw	a1,84(s0)
    2060:	8526                	c.mv	a0,s1
    2062:	3081                	c.jal	18a2 <CRYPTO_Cache_Sync>
    2064:	4401                	c.li	s0,0
    2066:	e20c09e3          	beq	s8,zero,1e98 <CRYPTO_ProcessAD+0x418>
    206a:	45c1                	c.li	a1,16
    206c:	8562                	c.mv	a0,s8
    206e:	3815                	c.jal	18a2 <CRYPTO_Cache_Sync>
    2070:	b525                	c.j	1e98 <CRYPTO_ProcessAD+0x418>
    2072:	c0a5                	c.beqz	s1,20d2 <CRYPTO_ProcessAD+0x652>
    2074:	010007b7          	lui	a5,0x1000
    2078:	fff78713          	addi	a4,a5,-1 # ffffff <secp192k1_a+0xfd0df3>
    207c:	00e977b3          	and	a5,s2,a4
    2080:	001c3513          	sltiu	a0,s8,1
    2084:	0187d693          	srli	a3,a5,0x18
    2088:	0512                	c.slli	a0,0x4
    208a:	f876f693          	andi	a3,a3,-121
    208e:	06856513          	ori	a0,a0,104
    2092:	8d55                	c.or	a0,a3
    2094:	8ff9                	c.and	a5,a4
    2096:	0562                	c.slli	a0,0x18
    2098:	8d5d                	c.or	a0,a5
    209a:	7c1027f3          	csrrs	a5,0x7c1,zero
    209e:	1007f793          	andi	a5,a5,256
    20a2:	c785                	c.beqz	a5,20ca <CRYPTO_ProcessAD+0x64a>
    20a4:	e6c492e3          	bne	s1,a2,1f08 <CRYPTO_ProcessAD+0x488>
    20a8:	e69913e3          	bne	s2,s1,1f0e <CRYPTO_ProcessAD+0x48e>
    20ac:	7c0467f3          	csrrsi	a5,0x7c0,8
    20b0:	0ff0000f          	fence	iorw,iorw
    20b4:	0001                	c.addi	zero,0
    20b6:	0001                	c.addi	zero,0
    20b8:	0001                	c.addi	zero,0
    20ba:	0001                	c.addi	zero,0
    20bc:	0001                	c.addi	zero,0
    20be:	0001                	c.addi	zero,0
    20c0:	0001                	c.addi	zero,0
    20c2:	0001                	c.addi	zero,0
    20c4:	0001                	c.addi	zero,0
    20c6:	0001                	c.addi	zero,0
    20c8:	0001                	c.addi	zero,0
    20ca:	865a                	c.mv	a2,s6
    20cc:	85a6                	c.mv	a1,s1
    20ce:	cdbfe0ef          	jal	ra,da8 <CRYPTO_SetDstDesc>
    20d2:	ac0c0ce3          	beq	s8,zero,1baa <CRYPTO_ProcessAD+0x12a>
    20d6:	0014b793          	sltiu	a5,s1,1
    20da:	50000537          	lui	a0,0x50000
    20de:	07f6                	c.slli	a5,0x1d
    20e0:	0541                	c.addi	a0,16
    20e2:	8d5d                	c.or	a0,a5
    20e4:	7c1027f3          	csrrs	a5,0x7c1,zero
    20e8:	1007f793          	andi	a5,a5,256
    20ec:	cbb1                	c.beqz	a5,2140 <CRYPTO_ProcessAD+0x6c0>
    20ee:	01fc7793          	andi	a5,s8,31
    20f2:	e4078be3          	beq	a5,zero,1f48 <CRYPTO_ProcessAD+0x4c8>
    20f6:	00fc0713          	addi	a4,s8,15 # 2000f <__wrap_strtol+0x2f13>
    20fa:	9b01                	c.andi	a4,-32
    20fc:	fe0c7793          	andi	a5,s8,-32
    2100:	02070713          	addi	a4,a4,32
    2104:	8f1d                	c.sub	a4,a5
    2106:	02e05d63          	bge	zero,a4,2140 <CRYPTO_ProcessAD+0x6c0>
    210a:	01f7f693          	andi	a3,a5,31
    210e:	9736                	c.add	a4,a3
    2110:	0ff0000f          	fence	iorw,iorw
    2114:	973e                	c.add	a4,a5
    2116:	02f7f00b          	cache	dwbinv,(a5)
    211a:	02078793          	addi	a5,a5,32
    211e:	40f706b3          	sub	a3,a4,a5
    2122:	fed04ae3          	blt	zero,a3,2116 <CRYPTO_ProcessAD+0x696>
    2126:	0ff0000f          	fence	iorw,iorw
    212a:	0001                	c.addi	zero,0
    212c:	0001                	c.addi	zero,0
    212e:	0001                	c.addi	zero,0
    2130:	0001                	c.addi	zero,0
    2132:	0001                	c.addi	zero,0
    2134:	0001                	c.addi	zero,0
    2136:	0001                	c.addi	zero,0
    2138:	0001                	c.addi	zero,0
    213a:	0001                	c.addi	zero,0
    213c:	0001                	c.addi	zero,0
    213e:	0001                	c.addi	zero,0
    2140:	865a                	c.mv	a2,s6
    2142:	85e2                	c.mv	a1,s8
    2144:	b48d                	c.j	1ba6 <CRYPTO_ProcessAD+0x126>
    2146:	9e049ee3          	bne	s1,zero,1b42 <CRYPTO_ProcessAD+0xc2>
    214a:	b485                	c.j	1baa <CRYPTO_ProcessAD+0x12a>

0000214c <CRYPTO_SendSeqBuf>:
    214c:	7139                	c.addi16sp	sp,-64
    214e:	dc22                	c.swsp	s0,56(sp)
    2150:	da26                	c.swsp	s1,52(sp)
    2152:	d84a                	c.swsp	s2,48(sp)
    2154:	d452                	c.swsp	s4,40(sp)
    2156:	d256                	c.swsp	s5,36(sp)
    2158:	de06                	c.swsp	ra,60(sp)
    215a:	d64e                	c.swsp	s3,44(sp)
    215c:	d05a                	c.swsp	s6,32(sp)
    215e:	ce5e                	c.swsp	s7,28(sp)
    2160:	0495c703          	lbu	a4,73(a1)
    2164:	20000437          	lui	s0,0x20000
    2168:	38040793          	addi	a5,s0,896 # 20000380 <SHA_OTPKEY>
    216c:	fd070713          	addi	a4,a4,-48
    2170:	0ef77713          	andi	a4,a4,239
    2174:	29c7a483          	lw	s1,668(a5)
    2178:	8a2a                	c.mv	s4,a0
    217a:	2a07c783          	lbu	a5,672(a5)
    217e:	8aae                	c.mv	s5,a1
    2180:	38040413          	addi	s0,s0,896
    2184:	04000913          	addi	s2,zero,64
    2188:	e319                	c.bnez	a4,218e <CRYPTO_SendSeqBuf+0x42>
    218a:	08000913          	addi	s2,zero,128
    218e:	40f90b33          	sub	s6,s2,a5
    2192:	26040b93          	addi	s7,s0,608
    2196:	1a878793          	addi	a5,a5,424
    219a:	29842583          	lw	a1,664(s0)
    219e:	00fb8533          	add	a0,s7,a5
    21a2:	0364d763          	bge	s1,s6,21d0 <CRYPTO_SendSeqBuf+0x84>
    21a6:	8626                	c.mv	a2,s1
    21a8:	46a070ef          	jal	ra,9612 <_memcpy>
    21ac:	2a044603          	lbu	a2,672(s0)
    21b0:	4981                	c.li	s3,0
    21b2:	94b2                	c.add	s1,a2
    21b4:	2a940023          	sb	s1,672(s0)
    21b8:	50f2                	c.lwsp	ra,60(sp)
    21ba:	5462                	c.lwsp	s0,56(sp)
    21bc:	54d2                	c.lwsp	s1,52(sp)
    21be:	5942                	c.lwsp	s2,48(sp)
    21c0:	5a22                	c.lwsp	s4,40(sp)
    21c2:	5a92                	c.lwsp	s5,36(sp)
    21c4:	5b02                	c.lwsp	s6,32(sp)
    21c6:	4bf2                	c.lwsp	s7,28(sp)
    21c8:	854e                	c.mv	a0,s3
    21ca:	59b2                	c.lwsp	s3,44(sp)
    21cc:	6121                	c.addi16sp	sp,64
    21ce:	8082                	c.jr	ra
    21d0:	865a                	c.mv	a2,s6
    21d2:	440070ef          	jal	ra,9612 <_memcpy>
    21d6:	88d2                	c.mv	a7,s4
    21d8:	c256                	c.swsp	s5,4(sp)
    21da:	c002                	c.swsp	zero,0(sp)
    21dc:	4801                	c.li	a6,0
    21de:	4781                	c.li	a5,0
    21e0:	4701                	c.li	a4,0
    21e2:	4681                	c.li	a3,0
    21e4:	864a                	c.mv	a2,s2
    21e6:	40840593          	addi	a1,s0,1032
    21ea:	855e                	c.mv	a0,s7
    21ec:	3851                	c.jal	1a80 <CRYPTO_ProcessAD>
    21ee:	89aa                	c.mv	s3,a0
    21f0:	f561                	c.bnez	a0,21b8 <CRYPTO_SendSeqBuf+0x6c>
    21f2:	29842583          	lw	a1,664(s0)
    21f6:	416484b3          	sub	s1,s1,s6
    21fa:	197d                	c.addi	s2,-1
    21fc:	95da                	c.add	a1,s6
    21fe:	00997933          	and	s2,s2,s1
    2202:	28942e23          	sw	s1,668(s0)
    2206:	2a040023          	sb	zero,672(s0)
    220a:	28b42c23          	sw	a1,664(s0)
    220e:	412484b3          	sub	s1,s1,s2
    2212:	02905263          	bge	zero,s1,2236 <CRYPTO_SendSeqBuf+0xea>
    2216:	c256                	c.swsp	s5,4(sp)
    2218:	c002                	c.swsp	zero,0(sp)
    221a:	88d2                	c.mv	a7,s4
    221c:	4801                	c.li	a6,0
    221e:	4781                	c.li	a5,0
    2220:	4701                	c.li	a4,0
    2222:	4681                	c.li	a3,0
    2224:	8626                	c.mv	a2,s1
    2226:	855e                	c.mv	a0,s7
    2228:	38a1                	c.jal	1a80 <CRYPTO_ProcessAD>
    222a:	e115                	c.bnez	a0,224e <CRYPTO_SendSeqBuf+0x102>
    222c:	29842783          	lw	a5,664(s0)
    2230:	94be                	c.add	s1,a5
    2232:	28942c23          	sw	s1,664(s0)
    2236:	00090963          	beq	s2,zero,2248 <CRYPTO_SendSeqBuf+0xfc>
    223a:	29842583          	lw	a1,664(s0)
    223e:	864a                	c.mv	a2,s2
    2240:	40840513          	addi	a0,s0,1032
    2244:	3ce070ef          	jal	ra,9612 <_memcpy>
    2248:	2b240023          	sb	s2,672(s0)
    224c:	b7b5                	c.j	21b8 <CRYPTO_SendSeqBuf+0x6c>
    224e:	89aa                	c.mv	s3,a0
    2250:	b7a5                	c.j	21b8 <CRYPTO_SendSeqBuf+0x6c>

00002252 <CRYPTO_CipherInit>:
    2252:	8736                	c.mv	a4,a3
    2254:	4801                	c.li	a6,0
    2256:	86b2                	c.mv	a3,a2
    2258:	4781                	c.li	a5,0
    225a:	567d                	c.li	a2,-1
    225c:	b0aff06f          	jal	zero,1566 <CRYPTO_SetSecurityModeAD>

00002260 <CRYPTO_CipherEncryptAD>:
    2260:	00452e03          	lw	t3,4(a0) # 50000004 <__retention_entry_func__+0x2efe0004>
    2264:	1101                	c.addi	sp,-32
    2266:	5302                	c.lwsp	t1,32(sp)
    2268:	ce06                	c.swsp	ra,28(sp)
    226a:	080e6e13          	ori	t3,t3,128
    226e:	01c52223          	sw	t3,4(a0)
    2272:	000504a3          	sb	zero,9(a0)
    2276:	c202                	c.swsp	zero,4(sp)
    2278:	c01a                	c.swsp	t1,0(sp)
    227a:	807ff0ef          	jal	ra,1a80 <CRYPTO_ProcessAD>
    227e:	40f2                	c.lwsp	ra,28(sp)
    2280:	6105                	c.addi16sp	sp,32
    2282:	8082                	c.jr	ra

00002284 <CRYPTO_CipherDecryptAD>:
    2284:	00452e03          	lw	t3,4(a0)
    2288:	1101                	c.addi	sp,-32
    228a:	ce06                	c.swsp	ra,28(sp)
    228c:	5302                	c.lwsp	t1,32(sp)
    228e:	080e4e13          	xori	t3,t3,128
    2292:	01c52223          	sw	t3,4(a0)
    2296:	4e05                	c.li	t3,1
    2298:	01c504a3          	sb	t3,9(a0)
    229c:	c202                	c.swsp	zero,4(sp)
    229e:	c01a                	c.swsp	t1,0(sp)
    22a0:	fe0ff0ef          	jal	ra,1a80 <CRYPTO_ProcessAD>
    22a4:	40f2                	c.lwsp	ra,28(sp)
    22a6:	6105                	c.addi16sp	sp,32
    22a8:	8082                	c.jr	ra
    22aa:	0000                	c.unimp
	...

000022ae <DelayNop>:
    22ae:	0001                	c.addi	zero,0
    22b0:	4285                	c.li	t0,1
    22b2:	40550533          	sub	a0,a0,t0
    22b6:	fd6d                	c.bnez	a0,22b0 <DelayNop+0x2>
    22b8:	8082                	c.jr	ra

000022ba <DelayUs>:
    22ba:	4100c7b7          	lui	a5,0x4100c
    22be:	2287a603          	lw	a2,552(a5) # 4100c228 <__retention_entry_func__+0x1ffec228>
    22c2:	1141                	c.addi	sp,-16
    22c4:	4791                	c.li	a5,4
    22c6:	c03e                	c.swsp	a5,0(sp)
    22c8:	479d                	c.li	a5,7
    22ca:	c23e                	c.swsp	a5,4(sp)
    22cc:	200017b7          	lui	a5,0x20001
    22d0:	8607a783          	lw	a5,-1952(a5) # 20000860 <RBSS_UDELAY_CLK>
    22d4:	00465693          	srli	a3,a2,0x4
    22d8:	8ab1                	c.andi	a3,12
    22da:	eb9d                	c.bnez	a5,2310 <DelayUs+0x56>
    22dc:	12c00793          	addi	a5,zero,300
    22e0:	8221                	c.srli	a2,0x8
    22e2:	c43e                	c.swsp	a5,8(sp)
    22e4:	c63e                	c.swsp	a5,12(sp)
    22e6:	8a0d                	c.andi	a2,3
    22e8:	4785                	c.li	a5,1
    22ea:	02800713          	addi	a4,zero,40
    22ee:	00f60663          	beq	a2,a5,22fa <DelayUs+0x40>
    22f2:	081c                	c.addi4spn	a5,sp,16
    22f4:	97b6                	c.add	a5,a3
    22f6:	ff87a703          	lw	a4,-8(a5)
    22fa:	02a70533          	mul	a0,a4,a0
    22fe:	081c                	c.addi4spn	a5,sp,16
    2300:	96be                	c.add	a3,a5
    2302:	ff06a783          	lw	a5,-16(a3)
    2306:	02f55533          	divu	a0,a0,a5
    230a:	c511                	c.beqz	a0,2316 <DelayUs+0x5c>
    230c:	0141                	c.addi	sp,16
    230e:	b745                	c.j	22ae <DelayNop>
    2310:	02a78533          	mul	a0,a5,a0
    2314:	b7ed                	c.j	22fe <DelayUs+0x44>
    2316:	0141                	c.addi	sp,16
    2318:	8082                	c.jr	ra

0000231a <DelayMs>:
    231a:	3e800793          	addi	a5,zero,1000
    231e:	02f50533          	mul	a0,a0,a5
    2322:	bf61                	c.j	22ba <DelayUs>
	...

00002326 <ECDSA_BufSub>:
    2326:	e111                	c.bnez	a0,232a <ECDSA_BufSub+0x4>
    2328:	8082                	c.jr	ra
    232a:	00251313          	slli	t1,a0,0x2
    232e:	006587b3          	add	a5,a1,t1
    2332:	ffc7a783          	lw	a5,-4(a5)
    2336:	e399                	c.bnez	a5,233c <ECDSA_BufSub+0x16>
    2338:	157d                	c.addi	a0,-1
    233a:	b7f5                	c.j	2326 <ECDSA_BufSub>
    233c:	8732                	c.mv	a4,a2
    233e:	4781                	c.li	a5,0
    2340:	4801                	c.li	a6,0
    2342:	00072e03          	lw	t3,0(a4)
    2346:	00281893          	slli	a7,a6,0x2
    234a:	98ae                	c.add	a7,a1
    234c:	40fe06b3          	sub	a3,t3,a5
    2350:	c314                	c.sw	a3,0(a4)
    2352:	0008a883          	lw	a7,0(a7)
    2356:	00fe37b3          	sltu	a5,t3,a5
    235a:	0805                	c.addi	a6,1
    235c:	0116beb3          	sltu	t4,a3,a7
    2360:	411686b3          	sub	a3,a3,a7
    2364:	c314                	c.sw	a3,0(a4)
    2366:	97f6                	c.add	a5,t4
    2368:	0711                	c.addi	a4,4
    236a:	fca86ce3          	bltu	a6,a0,2342 <ECDSA_BufSub+0x1c>
    236e:	4711                	c.li	a4,4
    2370:	c111                	c.beqz	a0,2374 <ECDSA_BufSub+0x4e>
    2372:	871a                	c.mv	a4,t1
    2374:	963a                	c.add	a2,a4
    2376:	e391                	c.bnez	a5,237a <ECDSA_BufSub+0x54>
    2378:	8082                	c.jr	ra
    237a:	4218                	c.lw	a4,0(a2)
    237c:	86be                	c.mv	a3,a5
    237e:	00f737b3          	sltu	a5,a4,a5
    2382:	8f15                	c.sub	a4,a3
    2384:	c218                	c.sw	a4,0(a2)
    2386:	0611                	c.addi	a2,4
    2388:	b7fd                	c.j	2376 <ECDSA_BufSub+0x50>

0000238a <ECDSA_BufCmp>:
    238a:	872a                	c.mv	a4,a0
    238c:	00b05863          	bge	zero,a1,239c <ECDSA_BufCmp+0x12>
    2390:	00259793          	slli	a5,a1,0x2
    2394:	97ba                	c.add	a5,a4
    2396:	ffc7a783          	lw	a5,-4(a5)
    239a:	cb8d                	c.beqz	a5,23cc <ECDSA_BufCmp+0x42>
    239c:	01c60693          	addi	a3,a2,28
    23a0:	47a1                	c.li	a5,8
    23a2:	4288                	c.lw	a0,0(a3)
    23a4:	e501                	c.bnez	a0,23ac <ECDSA_BufCmp+0x22>
    23a6:	17fd                	c.addi	a5,-1
    23a8:	16f1                	c.addi	a3,-4
    23aa:	ffe5                	c.bnez	a5,23a2 <ECDSA_BufCmp+0x18>
    23ac:	00f5e533          	or	a0,a1,a5
    23b0:	cd05                	c.beqz	a0,23e8 <ECDSA_BufCmp+0x5e>
    23b2:	4505                	c.li	a0,1
    23b4:	02b7ca63          	blt	a5,a1,23e8 <ECDSA_BufCmp+0x5e>
    23b8:	557d                	c.li	a0,-1
    23ba:	02f5c763          	blt	a1,a5,23e8 <ECDSA_BufCmp+0x5e>
    23be:	058a                	c.slli	a1,0x2
    23c0:	15f1                	c.addi	a1,-4
    23c2:	5571                	c.li	a0,-4
    23c4:	00a59663          	bne	a1,a0,23d0 <ECDSA_BufCmp+0x46>
    23c8:	4501                	c.li	a0,0
    23ca:	8082                	c.jr	ra
    23cc:	15fd                	c.addi	a1,-1
    23ce:	bf7d                	c.j	238c <ECDSA_BufCmp+0x2>
    23d0:	00b707b3          	add	a5,a4,a1
    23d4:	4394                	c.lw	a3,0(a5)
    23d6:	00b607b3          	add	a5,a2,a1
    23da:	439c                	c.lw	a5,0(a5)
    23dc:	00d7e763          	bltu	a5,a3,23ea <ECDSA_BufCmp+0x60>
    23e0:	15f1                	c.addi	a1,-4
    23e2:	fef6f1e3          	bgeu	a3,a5,23c4 <ECDSA_BufCmp+0x3a>
    23e6:	557d                	c.li	a0,-1
    23e8:	8082                	c.jr	ra
    23ea:	4505                	c.li	a0,1
    23ec:	8082                	c.jr	ra

000023ee <ECDSA_HashBuf_Setting>:
    23ee:	7179                	c.addi16sp	sp,-48
    23f0:	d422                	c.swsp	s0,40(sp)
    23f2:	d04a                	c.swsp	s2,32(sp)
    23f4:	cc52                	c.swsp	s4,24(sp)
    23f6:	ca56                	c.swsp	s5,20(sp)
    23f8:	c65e                	c.swsp	s7,12(sp)
    23fa:	d606                	c.swsp	ra,44(sp)
    23fc:	d226                	c.swsp	s1,36(sp)
    23fe:	ce4e                	c.swsp	s3,28(sp)
    2400:	c85a                	c.swsp	s6,16(sp)
    2402:	1800                	c.addi4spn	s0,sp,48
    2404:	00452903          	lw	s2,4(a0)
    2408:	8baa                	c.mv	s7,a0
    240a:	8a2e                	c.mv	s4,a1
    240c:	091d                	c.addi	s2,7
    240e:	00395913          	srli	s2,s2,0x3
    2412:	8ab2                	c.mv	s5,a2
    2414:	0126f363          	bgeu	a3,s2,241a <ECDSA_HashBuf_Setting+0x2c>
    2418:	8936                	c.mv	s2,a3
    241a:	4481                	c.li	s1,0
    241c:	09249863          	bne	s1,s2,24ac <ECDSA_HashBuf_Setting+0xbe>
    2420:	409904b3          	sub	s1,s2,s1
    2424:	0034f793          	andi	a5,s1,3
    2428:	00f037b3          	sltu	a5,zero,a5
    242c:	8089                	c.srli	s1,0x2
    242e:	94be                	c.add	s1,a5
    2430:	00249b13          	slli	s6,s1,0x2
    2434:	00fb0793          	addi	a5,s6,15
    2438:	9bc1                	c.andi	a5,-16
    243a:	40f10133          	sub	sp,sp,a5
    243e:	02000613          	addi	a2,zero,32
    2442:	4581                	c.li	a1,0
    2444:	8552                	c.mv	a0,s4
    2446:	344070ef          	jal	ra,978a <_memset>
    244a:	898a                	c.mv	s3,sp
    244c:	865a                	c.mv	a2,s6
    244e:	4581                	c.li	a1,0
    2450:	854e                	c.mv	a0,s3
    2452:	338070ef          	jal	ra,978a <_memset>
    2456:	012a8633          	add	a2,s5,s2
    245a:	4701                	c.li	a4,0
    245c:	167d                	c.addi	a2,-1
    245e:	00371793          	slli	a5,a4,0x3
    2462:	05271c63          	bne	a4,s2,24ba <ECDSA_HashBuf_Setting+0xcc>
    2466:	004ba703          	lw	a4,4(s7)
    246a:	06f76563          	bltu	a4,a5,24d4 <ECDSA_HashBuf_Setting+0xe6>
    246e:	00cba603          	lw	a2,12(s7)
    2472:	85a6                	c.mv	a1,s1
    2474:	854e                	c.mv	a0,s3
    2476:	3f11                	c.jal	238a <ECDSA_BufCmp>
    2478:	00054763          	blt	a0,zero,2486 <ECDSA_HashBuf_Setting+0x98>
    247c:	00cba583          	lw	a1,12(s7)
    2480:	864e                	c.mv	a2,s3
    2482:	8526                	c.mv	a0,s1
    2484:	354d                	c.jal	2326 <ECDSA_BufSub>
    2486:	865a                	c.mv	a2,s6
    2488:	85ce                	c.mv	a1,s3
    248a:	8552                	c.mv	a0,s4
    248c:	186070ef          	jal	ra,9612 <_memcpy>
    2490:	fd040113          	addi	sp,s0,-48
    2494:	50b2                	c.lwsp	ra,44(sp)
    2496:	5422                	c.lwsp	s0,40(sp)
    2498:	5492                	c.lwsp	s1,36(sp)
    249a:	5902                	c.lwsp	s2,32(sp)
    249c:	49f2                	c.lwsp	s3,28(sp)
    249e:	4a62                	c.lwsp	s4,24(sp)
    24a0:	4ad2                	c.lwsp	s5,20(sp)
    24a2:	4b42                	c.lwsp	s6,16(sp)
    24a4:	4bb2                	c.lwsp	s7,12(sp)
    24a6:	4501                	c.li	a0,0
    24a8:	6145                	c.addi16sp	sp,48
    24aa:	8082                	c.jr	ra
    24ac:	009a87b3          	add	a5,s5,s1
    24b0:	0007c783          	lbu	a5,0(a5)
    24b4:	f7b5                	c.bnez	a5,2420 <ECDSA_HashBuf_Setting+0x32>
    24b6:	0485                	c.addi	s1,1
    24b8:	b795                	c.j	241c <ECDSA_HashBuf_Setting+0x2e>
    24ba:	00064583          	lbu	a1,0(a2)
    24be:	ffc77693          	andi	a3,a4,-4
    24c2:	96ce                	c.add	a3,s3
    24c4:	8be1                	c.andi	a5,24
    24c6:	00f595b3          	sll	a1,a1,a5
    24ca:	429c                	c.lw	a5,0(a3)
    24cc:	0705                	c.addi	a4,1
    24ce:	8fcd                	c.or	a5,a1
    24d0:	c29c                	c.sw	a5,0(a3)
    24d2:	b769                	c.j	245c <ECDSA_HashBuf_Setting+0x6e>
    24d4:	8f99                	c.sub	a5,a4
    24d6:	477d                	c.li	a4,31
    24d8:	01f7f613          	andi	a2,a5,31
    24dc:	02f76663          	bltu	a4,a5,2508 <ECDSA_HashBuf_Setting+0x11a>
    24e0:	d659                	c.beqz	a2,246e <ECDSA_HashBuf_Setting+0x80>
    24e2:	02000693          	addi	a3,zero,32
    24e6:	016987b3          	add	a5,s3,s6
    24ea:	8726                	c.mv	a4,s1
    24ec:	4501                	c.li	a0,0
    24ee:	8e91                	c.sub	a3,a2
    24f0:	17f1                	c.addi	a5,-4
    24f2:	df35                	c.beqz	a4,246e <ECDSA_HashBuf_Setting+0x80>
    24f4:	0007a803          	lw	a6,0(a5)
    24f8:	177d                	c.addi	a4,-1
    24fa:	00c855b3          	srl	a1,a6,a2
    24fe:	8dc9                	c.or	a1,a0
    2500:	c38c                	c.sw	a1,0(a5)
    2502:	00d81533          	sll	a0,a6,a3
    2506:	b7ed                	c.j	24f0 <ECDSA_HashBuf_Setting+0x102>
    2508:	8395                	c.srli	a5,0x5
    250a:	86ce                	c.mv	a3,s3
    250c:	00279513          	slli	a0,a5,0x2
    2510:	4581                	c.li	a1,0
    2512:	40f48733          	sub	a4,s1,a5
    2516:	00e5eb63          	bltu	a1,a4,252c <ECDSA_HashBuf_Setting+0x13e>
    251a:	fc9773e3          	bgeu	a4,s1,24e0 <ECDSA_HashBuf_Setting+0xf2>
    251e:	00271793          	slli	a5,a4,0x2
    2522:	97ce                	c.add	a5,s3
    2524:	0007a023          	sw	zero,0(a5)
    2528:	0705                	c.addi	a4,1
    252a:	bfc5                	c.j	251a <ECDSA_HashBuf_Setting+0x12c>
    252c:	00a68733          	add	a4,a3,a0
    2530:	4318                	c.lw	a4,0(a4)
    2532:	0585                	c.addi	a1,1
    2534:	c298                	c.sw	a4,0(a3)
    2536:	0691                	c.addi	a3,4
    2538:	bfe9                	c.j	2512 <ECDSA_HashBuf_Setting+0x124>

0000253a <ECDSA_CurveSel>:
    253a:	455c                	c.lw	a5,12(a0)
    253c:	472d                	c.li	a4,11
    253e:	9bf1                	c.andi	a5,-4
    2540:	c55c                	c.sw	a5,12(a0)
    2542:	419c                	c.lw	a5,0(a1)
    2544:	17fd                	c.addi	a5,-1
    2546:	24f76e63          	bltu	a4,a5,27a2 <ECDSA_CurveSel+0x268>
    254a:	0002e737          	lui	a4,0x2e
    254e:	078a                	c.slli	a5,0x2
    2550:	82470713          	addi	a4,a4,-2012 # 2d824 <__FUNCTION__.0+0x14>
    2554:	97ba                	c.add	a5,a4
    2556:	439c                	c.lw	a5,0(a5)
    2558:	1141                	c.addi	sp,-16
    255a:	c422                	c.swsp	s0,8(sp)
    255c:	c606                	c.swsp	ra,12(sp)
    255e:	c226                	c.swsp	s1,4(sp)
    2560:	c04a                	c.swsp	s2,0(sp)
    2562:	842a                	c.mv	s0,a0
    2564:	8782                	c.jr	a5
    2566:	10000793          	addi	a5,zero,256
    256a:	c1dc                	c.sw	a5,4(a1)
    256c:	c59c                	c.sw	a5,8(a1)
    256e:	0002d7b7          	lui	a5,0x2d
    2572:	06478793          	addi	a5,a5,100 # 2d064 <SECP256K1_N>
    2576:	c5dc                	c.sw	a5,12(a1)
    2578:	4701                	c.li	a4,0
    257a:	46a1                	c.li	a3,8
    257c:	00271793          	slli	a5,a4,0x2
    2580:	97a2                	c.add	a5,s0
    2582:	0007a823          	sw	zero,16(a5)
    2586:	0207a823          	sw	zero,48(a5)
    258a:	1007a823          	sw	zero,272(a5)
    258e:	1207a823          	sw	zero,304(a5)
    2592:	1407a823          	sw	zero,336(a5)
    2596:	0705                	c.addi	a4,1
    2598:	fed712e3          	bne	a4,a3,257c <ECDSA_CurveSel+0x42>
    259c:	4501                	c.li	a0,0
    259e:	40b2                	c.lwsp	ra,12(sp)
    25a0:	4422                	c.lwsp	s0,8(sp)
    25a2:	4492                	c.lwsp	s1,4(sp)
    25a4:	4902                	c.lwsp	s2,0(sp)
    25a6:	0141                	c.addi	sp,16
    25a8:	8082                	c.jr	ra
    25aa:	10000793          	addi	a5,zero,256
    25ae:	c1dc                	c.sw	a5,4(a1)
    25b0:	c59c                	c.sw	a5,8(a1)
    25b2:	0002d7b7          	lui	a5,0x2d
    25b6:	08478793          	addi	a5,a5,132 # 2d084 <SECP256R1_N>
    25ba:	c5dc                	c.sw	a5,12(a1)
    25bc:	455c                	c.lw	a5,12(a0)
    25be:	0017e793          	ori	a5,a5,1
    25c2:	c45c                	c.sw	a5,12(s0)
    25c4:	bf55                	c.j	2578 <ECDSA_CurveSel+0x3e>
    25c6:	10000793          	addi	a5,zero,256
    25ca:	c1dc                	c.sw	a5,4(a1)
    25cc:	c59c                	c.sw	a5,8(a1)
    25ce:	0002d7b7          	lui	a5,0x2d
    25d2:	0a478793          	addi	a5,a5,164 # 2d0a4 <curve25519_N>
    25d6:	c5dc                	c.sw	a5,12(a1)
    25d8:	455c                	c.lw	a5,12(a0)
    25da:	0027e793          	ori	a5,a5,2
    25de:	b7d5                	c.j	25c2 <ECDSA_CurveSel+0x88>
    25e0:	0002d4b7          	lui	s1,0x2d
    25e4:	06448493          	addi	s1,s1,100 # 2d064 <SECP256K1_N>
    25e8:	0c000793          	addi	a5,zero,192
    25ec:	06048913          	addi	s2,s1,96
    25f0:	c1dc                	c.sw	a5,4(a1)
    25f2:	c59c                	c.sw	a5,8(a1)
    25f4:	0125a623          	sw	s2,12(a1)
    25f8:	02000613          	addi	a2,zero,32
    25fc:	08048593          	addi	a1,s1,128
    2600:	05050513          	addi	a0,a0,80
    2604:	00e070ef          	jal	ra,9612 <_memcpy>
    2608:	02000613          	addi	a2,zero,32
    260c:	0a048593          	addi	a1,s1,160
    2610:	07040513          	addi	a0,s0,112
    2614:	7ff060ef          	jal	ra,9612 <_memcpy>
    2618:	02000613          	addi	a2,zero,32
    261c:	0c048593          	addi	a1,s1,192
    2620:	17040513          	addi	a0,s0,368
    2624:	7ef060ef          	jal	ra,9612 <_memcpy>
    2628:	02000613          	addi	a2,zero,32
    262c:	0e048593          	addi	a1,s1,224
    2630:	19040513          	addi	a0,s0,400
    2634:	7df060ef          	jal	ra,9612 <_memcpy>
    2638:	02000613          	addi	a2,zero,32
    263c:	85ca                	c.mv	a1,s2
    263e:	1b040513          	addi	a0,s0,432
    2642:	7d1060ef          	jal	ra,9612 <_memcpy>
    2646:	445c                	c.lw	a5,12(s0)
    2648:	0037e793          	ori	a5,a5,3
    264c:	bf9d                	c.j	25c2 <ECDSA_CurveSel+0x88>
    264e:	0002d4b7          	lui	s1,0x2d
    2652:	06448493          	addi	s1,s1,100 # 2d064 <SECP256K1_N>
    2656:	0e100793          	addi	a5,zero,225
    265a:	c1dc                	c.sw	a5,4(a1)
    265c:	10048913          	addi	s2,s1,256
    2660:	0e000793          	addi	a5,zero,224
    2664:	c59c                	c.sw	a5,8(a1)
    2666:	0125a623          	sw	s2,12(a1)
    266a:	02000613          	addi	a2,zero,32
    266e:	12048593          	addi	a1,s1,288
    2672:	05050513          	addi	a0,a0,80
    2676:	79d060ef          	jal	ra,9612 <_memcpy>
    267a:	02000613          	addi	a2,zero,32
    267e:	14048593          	addi	a1,s1,320
    2682:	07040513          	addi	a0,s0,112
    2686:	78d060ef          	jal	ra,9612 <_memcpy>
    268a:	02000613          	addi	a2,zero,32
    268e:	16048593          	addi	a1,s1,352
    2692:	17040513          	addi	a0,s0,368
    2696:	77d060ef          	jal	ra,9612 <_memcpy>
    269a:	02000613          	addi	a2,zero,32
    269e:	18048593          	addi	a1,s1,384
    26a2:	b779                	c.j	2630 <ECDSA_CurveSel+0xf6>
    26a4:	0002d4b7          	lui	s1,0x2d
    26a8:	06448493          	addi	s1,s1,100 # 2d064 <SECP256K1_N>
    26ac:	0c000793          	addi	a5,zero,192
    26b0:	1a048913          	addi	s2,s1,416
    26b4:	c1dc                	c.sw	a5,4(a1)
    26b6:	c59c                	c.sw	a5,8(a1)
    26b8:	0125a623          	sw	s2,12(a1)
    26bc:	02000613          	addi	a2,zero,32
    26c0:	1c048593          	addi	a1,s1,448
    26c4:	05050513          	addi	a0,a0,80
    26c8:	74b060ef          	jal	ra,9612 <_memcpy>
    26cc:	02000613          	addi	a2,zero,32
    26d0:	1e048593          	addi	a1,s1,480
    26d4:	07040513          	addi	a0,s0,112
    26d8:	73b060ef          	jal	ra,9612 <_memcpy>
    26dc:	02000613          	addi	a2,zero,32
    26e0:	20048593          	addi	a1,s1,512
    26e4:	17040513          	addi	a0,s0,368
    26e8:	72b060ef          	jal	ra,9612 <_memcpy>
    26ec:	02000613          	addi	a2,zero,32
    26f0:	22048593          	addi	a1,s1,544
    26f4:	bf35                	c.j	2630 <ECDSA_CurveSel+0xf6>
    26f6:	0002d4b7          	lui	s1,0x2d
    26fa:	06448493          	addi	s1,s1,100 # 2d064 <SECP256K1_N>
    26fe:	0e000793          	addi	a5,zero,224
    2702:	24048913          	addi	s2,s1,576
    2706:	c1dc                	c.sw	a5,4(a1)
    2708:	c59c                	c.sw	a5,8(a1)
    270a:	0125a623          	sw	s2,12(a1)
    270e:	02000613          	addi	a2,zero,32
    2712:	26048593          	addi	a1,s1,608
    2716:	05050513          	addi	a0,a0,80
    271a:	6f9060ef          	jal	ra,9612 <_memcpy>
    271e:	02000613          	addi	a2,zero,32
    2722:	28048593          	addi	a1,s1,640
    2726:	07040513          	addi	a0,s0,112
    272a:	6e9060ef          	jal	ra,9612 <_memcpy>
    272e:	02000613          	addi	a2,zero,32
    2732:	2a048593          	addi	a1,s1,672
    2736:	17040513          	addi	a0,s0,368
    273a:	6d9060ef          	jal	ra,9612 <_memcpy>
    273e:	02000613          	addi	a2,zero,32
    2742:	2c048593          	addi	a1,s1,704
    2746:	b5ed                	c.j	2630 <ECDSA_CurveSel+0xf6>
    2748:	0002d4b7          	lui	s1,0x2d
    274c:	06448493          	addi	s1,s1,100 # 2d064 <SECP256K1_N>
    2750:	10000793          	addi	a5,zero,256
    2754:	2e048913          	addi	s2,s1,736
    2758:	c1dc                	c.sw	a5,4(a1)
    275a:	c59c                	c.sw	a5,8(a1)
    275c:	0125a623          	sw	s2,12(a1)
    2760:	02000613          	addi	a2,zero,32
    2764:	30048593          	addi	a1,s1,768
    2768:	05050513          	addi	a0,a0,80
    276c:	6a7060ef          	jal	ra,9612 <_memcpy>
    2770:	02000613          	addi	a2,zero,32
    2774:	32048593          	addi	a1,s1,800
    2778:	07040513          	addi	a0,s0,112
    277c:	697060ef          	jal	ra,9612 <_memcpy>
    2780:	02000613          	addi	a2,zero,32
    2784:	34048593          	addi	a1,s1,832
    2788:	17040513          	addi	a0,s0,368
    278c:	687060ef          	jal	ra,9612 <_memcpy>
    2790:	02000613          	addi	a2,zero,32
    2794:	36048593          	addi	a1,s1,864
    2798:	bd61                	c.j	2630 <ECDSA_CurveSel+0xf6>
    279a:	7579                	c.lui	a0,0xffffe
    279c:	08050513          	addi	a0,a0,128 # ffffe080 <__kr4_psram_text_start__+0x9fe7e060>
    27a0:	bbfd                	c.j	259e <ECDSA_CurveSel+0x64>
    27a2:	7579                	c.lui	a0,0xffffe
    27a4:	08050513          	addi	a0,a0,128 # ffffe080 <__kr4_psram_text_start__+0x9fe7e060>
    27a8:	8082                	c.jr	ra

000027aa <ECDSA_EngRst>:
    27aa:	411c                	c.lw	a5,0(a0)
    27ac:	1017e793          	ori	a5,a5,257
    27b0:	c11c                	c.sw	a5,0(a0)
    27b2:	411c                	c.lw	a5,0(a0)
    27b4:	9bf9                	c.andi	a5,-2
    27b6:	c11c                	c.sw	a5,0(a0)
    27b8:	8082                	c.jr	ra

000027ba <ECDSA_Cmd>:
    27ba:	411c                	c.lw	a5,0(a0)
    27bc:	c989                	c.beqz	a1,27ce <ECDSA_Cmd+0x14>
    27be:	1007e793          	ori	a5,a5,256
    27c2:	c11c                	c.sw	a5,0(a0)
    27c4:	451c                	c.lw	a5,8(a0)
    27c6:	0017e793          	ori	a5,a5,1
    27ca:	c51c                	c.sw	a5,8(a0)
    27cc:	8082                	c.jr	ra
    27ce:	eff7f793          	andi	a5,a5,-257
    27d2:	c11c                	c.sw	a5,0(a0)
    27d4:	451c                	c.lw	a5,8(a0)
    27d6:	9bf1                	c.andi	a5,-4
    27d8:	bfcd                	c.j	27ca <ECDSA_Cmd+0x10>

000027da <ECDSA_KeyGen>:
    27da:	7179                	c.addi16sp	sp,-48
    27dc:	c02e                	c.swsp	a1,0(sp)
    27de:	858a                	c.mv	a1,sp
    27e0:	d422                	c.swsp	s0,40(sp)
    27e2:	d226                	c.swsp	s1,36(sp)
    27e4:	d04a                	c.swsp	s2,32(sp)
    27e6:	cc52                	c.swsp	s4,24(sp)
    27e8:	ca56                	c.swsp	s5,20(sp)
    27ea:	c85a                	c.swsp	s6,16(sp)
    27ec:	d606                	c.swsp	ra,44(sp)
    27ee:	ce4e                	c.swsp	s3,28(sp)
    27f0:	842a                	c.mv	s0,a0
    27f2:	8b32                	c.mv	s6,a2
    27f4:	8ab6                	c.mv	s5,a3
    27f6:	8a3a                	c.mv	s4,a4
    27f8:	893e                	c.mv	s2,a5
    27fa:	3381                	c.jal	253a <ECDSA_CurveSel>
    27fc:	84aa                	c.mv	s1,a0
    27fe:	ed35                	c.bnez	a0,287a <ECDSA_KeyGen+0xa0>
    2800:	445c                	c.lw	a5,12(s0)
    2802:	7775                	c.lui	a4,0xffffd
    2804:	4992                	c.lwsp	s3,4(sp)
    2806:	9bcd                	c.andi	a5,-13
    2808:	c45c                	c.sw	a5,12(s0)
    280a:	445c                	c.lw	a5,12(s0)
    280c:	177d                	c.addi	a4,-1
    280e:	0039d993          	srli	s3,s3,0x3
    2812:	0087e793          	ori	a5,a5,8
    2816:	c45c                	c.sw	a5,12(s0)
    2818:	445c                	c.lw	a5,12(s0)
    281a:	8ff9                	c.and	a5,a4
    281c:	c45c                	c.sw	a5,12(s0)
    281e:	4789                	c.li	a5,2
    2820:	0927e563          	bltu	a5,s2,28aa <ECDSA_KeyGen+0xd0>
    2824:	06090663          	beq	s2,zero,2890 <ECDSA_KeyGen+0xb6>
    2828:	445c                	c.lw	a5,12(s0)
    282a:	0932                	c.slli	s2,0xc
    282c:	00f96933          	or	s2,s2,a5
    2830:	01242623          	sw	s2,12(s0)
    2834:	4701                	c.li	a4,0
    2836:	46a1                	c.li	a3,8
    2838:	00271793          	slli	a5,a4,0x2
    283c:	97a2                	c.add	a5,s0
    283e:	4bb0                	c.lw	a2,80(a5)
    2840:	0705                	c.addi	a4,1
    2842:	cb90                	c.sw	a2,16(a5)
    2844:	5bb0                	c.lw	a2,112(a5)
    2846:	db90                	c.sw	a2,48(a5)
    2848:	fed718e3          	bne	a4,a3,2838 <ECDSA_KeyGen+0x5e>
    284c:	4585                	c.li	a1,1
    284e:	8522                	c.mv	a0,s0
    2850:	37ad                	c.jal	27ba <ECDSA_Cmd>
    2852:	013137b7          	lui	a5,0x1313
    2856:	d0078793          	addi	a5,a5,-768 # 1312d00 <secp192k1_a+0x12e3af4>
    285a:	4418                	c.lw	a4,8(s0)
    285c:	10077713          	andi	a4,a4,256
    2860:	cf1d                	c.beqz	a4,289e <ECDSA_KeyGen+0xc4>
    2862:	864e                	c.mv	a2,s3
    2864:	09040593          	addi	a1,s0,144
    2868:	8556                	c.mv	a0,s5
    286a:	5a9060ef          	jal	ra,9612 <_memcpy>
    286e:	864e                	c.mv	a2,s3
    2870:	0b040593          	addi	a1,s0,176
    2874:	8552                	c.mv	a0,s4
    2876:	59d060ef          	jal	ra,9612 <_memcpy>
    287a:	50b2                	c.lwsp	ra,44(sp)
    287c:	5422                	c.lwsp	s0,40(sp)
    287e:	5902                	c.lwsp	s2,32(sp)
    2880:	49f2                	c.lwsp	s3,28(sp)
    2882:	4a62                	c.lwsp	s4,24(sp)
    2884:	4ad2                	c.lwsp	s5,20(sp)
    2886:	4b42                	c.lwsp	s6,16(sp)
    2888:	8526                	c.mv	a0,s1
    288a:	5492                	c.lwsp	s1,36(sp)
    288c:	6145                	c.addi16sp	sp,48
    288e:	8082                	c.jr	ra
    2890:	864e                	c.mv	a2,s3
    2892:	85da                	c.mv	a1,s6
    2894:	15040513          	addi	a0,s0,336
    2898:	57b060ef          	jal	ra,9612 <_memcpy>
    289c:	bf61                	c.j	2834 <ECDSA_KeyGen+0x5a>
    289e:	17fd                	c.addi	a5,-1
    28a0:	ffcd                	c.bnez	a5,285a <ECDSA_KeyGen+0x80>
    28a2:	74f9                	c.lui	s1,0xffffe
    28a4:	10048493          	addi	s1,s1,256 # ffffe100 <__kr4_psram_text_start__+0x9fe7e0e0>
    28a8:	bfc9                	c.j	287a <ECDSA_KeyGen+0xa0>
    28aa:	74f9                	c.lui	s1,0xffffe
    28ac:	40048493          	addi	s1,s1,1024 # ffffe400 <__kr4_psram_text_start__+0x9fe7e3e0>
    28b0:	b7e9                	c.j	287a <ECDSA_KeyGen+0xa0>

000028b2 <ECDSA_Sign>:
    28b2:	7159                	c.addi16sp	sp,-112
    28b4:	c82e                	c.swsp	a1,16(sp)
    28b6:	080c                	c.addi4spn	a1,sp,16
    28b8:	d4a2                	c.swsp	s0,104(sp)
    28ba:	d2a6                	c.swsp	s1,100(sp)
    28bc:	cece                	c.swsp	s3,92(sp)
    28be:	ccd2                	c.swsp	s4,88(sp)
    28c0:	cad6                	c.swsp	s5,84(sp)
    28c2:	c8da                	c.swsp	s6,80(sp)
    28c4:	c6de                	c.swsp	s7,76(sp)
    28c6:	59e6                	c.lwsp	s3,120(sp)
    28c8:	d686                	c.swsp	ra,108(sp)
    28ca:	d0ca                	c.swsp	s2,96(sp)
    28cc:	c4e2                	c.swsp	s8,72(sp)
    28ce:	842a                	c.mv	s0,a0
    28d0:	8b32                	c.mv	s6,a2
    28d2:	8bb6                	c.mv	s7,a3
    28d4:	c63a                	c.swsp	a4,12(sp)
    28d6:	c43e                	c.swsp	a5,8(sp)
    28d8:	8ac2                	c.mv	s5,a6
    28da:	8a46                	c.mv	s4,a7
    28dc:	39b9                	c.jal	253a <ECDSA_CurveSel>
    28de:	84aa                	c.mv	s1,a0
    28e0:	e169                	c.bnez	a0,29a2 <ECDSA_Sign+0xf0>
    28e2:	46a2                	c.lwsp	a3,8(sp)
    28e4:	4632                	c.lwsp	a2,12(sp)
    28e6:	100c                	c.addi4spn	a1,sp,32
    28e8:	0808                	c.addi4spn	a0,sp,16
    28ea:	4952                	c.lwsp	s2,20(sp)
    28ec:	3609                	c.jal	23ee <ECDSA_HashBuf_Setting>
    28ee:	445c                	c.lw	a5,12(s0)
    28f0:	7775                	c.lui	a4,0xffffd
    28f2:	177d                	c.addi	a4,-1
    28f4:	9bcd                	c.andi	a5,-13
    28f6:	c45c                	c.sw	a5,12(s0)
    28f8:	445c                	c.lw	a5,12(s0)
    28fa:	00395913          	srli	s2,s2,0x3
    28fe:	0047e793          	ori	a5,a5,4
    2902:	c45c                	c.sw	a5,12(s0)
    2904:	445c                	c.lw	a5,12(s0)
    2906:	8ff9                	c.and	a5,a4
    2908:	c45c                	c.sw	a5,12(s0)
    290a:	4789                	c.li	a5,2
    290c:	0d37e763          	bltu	a5,s3,29da <ECDSA_Sign+0x128>
    2910:	01040c13          	addi	s8,s0,16
    2914:	0a098463          	beq	s3,zero,29bc <ECDSA_Sign+0x10a>
    2918:	445c                	c.lw	a5,12(s0)
    291a:	09b2                	c.slli	s3,0xc
    291c:	00f9e9b3          	or	s3,s3,a5
    2920:	01342623          	sw	s3,12(s0)
    2924:	864a                	c.mv	a2,s2
    2926:	85da                	c.mv	a1,s6
    2928:	8562                	c.mv	a0,s8
    292a:	4e9060ef          	jal	ra,9612 <_memcpy>
    292e:	864a                	c.mv	a2,s2
    2930:	85de                	c.mv	a1,s7
    2932:	03040513          	addi	a0,s0,48
    2936:	4dd060ef          	jal	ra,9612 <_memcpy>
    293a:	02000613          	addi	a2,zero,32
    293e:	100c                	c.addi4spn	a1,sp,32
    2940:	15040513          	addi	a0,s0,336
    2944:	4cf060ef          	jal	ra,9612 <_memcpy>
    2948:	4585                	c.li	a1,1
    294a:	8522                	c.mv	a0,s0
    294c:	35bd                	c.jal	27ba <ECDSA_Cmd>
    294e:	441c                	c.lw	a5,8(s0)
    2950:	0003f6b7          	lui	a3,0x3f
    2954:	0047e793          	ori	a5,a5,4
    2958:	c41c                	c.sw	a5,8(s0)
    295a:	013137b7          	lui	a5,0x1313
    295e:	d0078793          	addi	a5,a5,-768 # 1312d00 <secp192k1_a+0x12e3af4>
    2962:	4418                	c.lw	a4,8(s0)
    2964:	10077713          	andi	a4,a4,256
    2968:	c325                	c.beqz	a4,29c8 <ECDSA_Sign+0x116>
    296a:	000a8863          	beq	s5,zero,297a <ECDSA_Sign+0xc8>
    296e:	864a                	c.mv	a2,s2
    2970:	09040593          	addi	a1,s0,144
    2974:	8556                	c.mv	a0,s5
    2976:	49d060ef          	jal	ra,9612 <_memcpy>
    297a:	000a0863          	beq	s4,zero,298a <ECDSA_Sign+0xd8>
    297e:	864a                	c.mv	a2,s2
    2980:	0b040593          	addi	a1,s0,176
    2984:	8552                	c.mv	a0,s4
    2986:	48d060ef          	jal	ra,9612 <_memcpy>
    298a:	5546                	c.lwsp	a0,112(sp)
    298c:	864a                	c.mv	a2,s2
    298e:	0d040593          	addi	a1,s0,208
    2992:	481060ef          	jal	ra,9612 <_memcpy>
    2996:	5556                	c.lwsp	a0,116(sp)
    2998:	864a                	c.mv	a2,s2
    299a:	0f040593          	addi	a1,s0,240
    299e:	475060ef          	jal	ra,9612 <_memcpy>
    29a2:	50b6                	c.lwsp	ra,108(sp)
    29a4:	5426                	c.lwsp	s0,104(sp)
    29a6:	5906                	c.lwsp	s2,96(sp)
    29a8:	49f6                	c.lwsp	s3,92(sp)
    29aa:	4a66                	c.lwsp	s4,88(sp)
    29ac:	4ad6                	c.lwsp	s5,84(sp)
    29ae:	4b46                	c.lwsp	s6,80(sp)
    29b0:	4bb6                	c.lwsp	s7,76(sp)
    29b2:	4c26                	c.lwsp	s8,72(sp)
    29b4:	8526                	c.mv	a0,s1
    29b6:	5496                	c.lwsp	s1,100(sp)
    29b8:	6165                	c.addi16sp	sp,112
    29ba:	8082                	c.jr	ra
    29bc:	864a                	c.mv	a2,s2
    29be:	85da                	c.mv	a1,s6
    29c0:	8562                	c.mv	a0,s8
    29c2:	451060ef          	jal	ra,9612 <_memcpy>
    29c6:	bfb9                	c.j	2924 <ECDSA_Sign+0x72>
    29c8:	17fd                	c.addi	a5,-1
    29ca:	cf81                	c.beqz	a5,29e2 <ECDSA_Sign+0x130>
    29cc:	4418                	c.lw	a4,8(s0)
    29ce:	8f75                	c.and	a4,a3
    29d0:	db49                	c.beqz	a4,2962 <ECDSA_Sign+0xb0>
    29d2:	74f9                	c.lui	s1,0xffffe
    29d4:	20048493          	addi	s1,s1,512 # ffffe200 <__kr4_psram_text_start__+0x9fe7e1e0>
    29d8:	b7e9                	c.j	29a2 <ECDSA_Sign+0xf0>
    29da:	74f9                	c.lui	s1,0xffffe
    29dc:	40048493          	addi	s1,s1,1024 # ffffe400 <__kr4_psram_text_start__+0x9fe7e3e0>
    29e0:	b7c9                	c.j	29a2 <ECDSA_Sign+0xf0>
    29e2:	74f9                	c.lui	s1,0xffffe
    29e4:	18048493          	addi	s1,s1,384 # ffffe180 <__kr4_psram_text_start__+0x9fe7e160>
    29e8:	bf6d                	c.j	29a2 <ECDSA_Sign+0xf0>

000029ea <ECDSA_Verify>:
    29ea:	711d                	c.addi16sp	sp,-96
    29ec:	c82e                	c.swsp	a1,16(sp)
    29ee:	080c                	c.addi4spn	a1,sp,16
    29f0:	cca2                	c.swsp	s0,88(sp)
    29f2:	caa6                	c.swsp	s1,84(sp)
    29f4:	c6ce                	c.swsp	s3,76(sp)
    29f6:	c4d2                	c.swsp	s4,72(sp)
    29f8:	c2d6                	c.swsp	s5,68(sp)
    29fa:	c0da                	c.swsp	s6,64(sp)
    29fc:	ce86                	c.swsp	ra,92(sp)
    29fe:	c8ca                	c.swsp	s2,80(sp)
    2a00:	842a                	c.mv	s0,a0
    2a02:	c632                	c.swsp	a2,12(sp)
    2a04:	c436                	c.swsp	a3,8(sp)
    2a06:	8b3a                	c.mv	s6,a4
    2a08:	8abe                	c.mv	s5,a5
    2a0a:	8a42                	c.mv	s4,a6
    2a0c:	89c6                	c.mv	s3,a7
    2a0e:	3635                	c.jal	253a <ECDSA_CurveSel>
    2a10:	84aa                	c.mv	s1,a0
    2a12:	e545                	c.bnez	a0,2aba <ECDSA_Verify+0xd0>
    2a14:	445c                	c.lw	a5,12(s0)
    2a16:	46a2                	c.lwsp	a3,8(sp)
    2a18:	4952                	c.lwsp	s2,20(sp)
    2a1a:	9bcd                	c.andi	a5,-13
    2a1c:	c45c                	c.sw	a5,12(s0)
    2a1e:	445c                	c.lw	a5,12(s0)
    2a20:	4632                	c.lwsp	a2,12(sp)
    2a22:	100c                	c.addi4spn	a1,sp,32
    2a24:	c45c                	c.sw	a5,12(s0)
    2a26:	0808                	c.addi4spn	a0,sp,16
    2a28:	32d9                	c.jal	23ee <ECDSA_HashBuf_Setting>
    2a2a:	00395913          	srli	s2,s2,0x3
    2a2e:	864a                	c.mv	a2,s2
    2a30:	85da                	c.mv	a1,s6
    2a32:	01040513          	addi	a0,s0,16
    2a36:	3dd060ef          	jal	ra,9612 <_memcpy>
    2a3a:	864a                	c.mv	a2,s2
    2a3c:	85d6                	c.mv	a1,s5
    2a3e:	03040513          	addi	a0,s0,48
    2a42:	3d1060ef          	jal	ra,9612 <_memcpy>
    2a46:	864a                	c.mv	a2,s2
    2a48:	85d2                	c.mv	a1,s4
    2a4a:	11040513          	addi	a0,s0,272
    2a4e:	3c5060ef          	jal	ra,9612 <_memcpy>
    2a52:	864a                	c.mv	a2,s2
    2a54:	85ce                	c.mv	a1,s3
    2a56:	13040513          	addi	a0,s0,304
    2a5a:	3b9060ef          	jal	ra,9612 <_memcpy>
    2a5e:	02000613          	addi	a2,zero,32
    2a62:	100c                	c.addi4spn	a1,sp,32
    2a64:	15040513          	addi	a0,s0,336
    2a68:	3ab060ef          	jal	ra,9612 <_memcpy>
    2a6c:	4585                	c.li	a1,1
    2a6e:	8522                	c.mv	a0,s0
    2a70:	33a9                	c.jal	27ba <ECDSA_Cmd>
    2a72:	441c                	c.lw	a5,8(s0)
    2a74:	000316b7          	lui	a3,0x31
    2a78:	c0068693          	addi	a3,a3,-1024 # 30c00 <secp192k1_a+0x19f4>
    2a7c:	0047e793          	ori	a5,a5,4
    2a80:	c41c                	c.sw	a5,8(s0)
    2a82:	013137b7          	lui	a5,0x1313
    2a86:	d0078793          	addi	a5,a5,-768 # 1312d00 <secp192k1_a+0x12e3af4>
    2a8a:	4418                	c.lw	a4,8(s0)
    2a8c:	10077713          	andi	a4,a4,256
    2a90:	cb09                	c.beqz	a4,2aa2 <ECDSA_Verify+0xb8>
    2a92:	441c                	c.lw	a5,8(s0)
    2a94:	2007f793          	andi	a5,a5,512
    2a98:	e38d                	c.bnez	a5,2aba <ECDSA_Verify+0xd0>
    2a9a:	74f9                	c.lui	s1,0xffffe
    2a9c:	38048493          	addi	s1,s1,896 # ffffe380 <__kr4_psram_text_start__+0x9fe7e360>
    2aa0:	a829                	c.j	2aba <ECDSA_Verify+0xd0>
    2aa2:	17fd                	c.addi	a5,-1
    2aa4:	cb81                	c.beqz	a5,2ab4 <ECDSA_Verify+0xca>
    2aa6:	4418                	c.lw	a4,8(s0)
    2aa8:	8f75                	c.and	a4,a3
    2aaa:	d365                	c.beqz	a4,2a8a <ECDSA_Verify+0xa0>
    2aac:	74f9                	c.lui	s1,0xffffe
    2aae:	30048493          	addi	s1,s1,768 # ffffe300 <__kr4_psram_text_start__+0x9fe7e2e0>
    2ab2:	a021                	c.j	2aba <ECDSA_Verify+0xd0>
    2ab4:	74f9                	c.lui	s1,0xffffe
    2ab6:	28048493          	addi	s1,s1,640 # ffffe280 <__kr4_psram_text_start__+0x9fe7e260>
    2aba:	40f6                	c.lwsp	ra,92(sp)
    2abc:	4466                	c.lwsp	s0,88(sp)
    2abe:	4946                	c.lwsp	s2,80(sp)
    2ac0:	49b6                	c.lwsp	s3,76(sp)
    2ac2:	4a26                	c.lwsp	s4,72(sp)
    2ac4:	4a96                	c.lwsp	s5,68(sp)
    2ac6:	4b06                	c.lwsp	s6,64(sp)
    2ac8:	8526                	c.mv	a0,s1
    2aca:	44d6                	c.lwsp	s1,84(sp)
    2acc:	6125                	c.addi16sp	sp,96
    2ace:	8082                	c.jr	ra

00002ad0 <ECDSA_ECDH_Compute_Shared>:
    2ad0:	7139                	c.addi16sp	sp,-64
    2ad2:	c02e                	c.swsp	a1,0(sp)
    2ad4:	858a                	c.mv	a1,sp
    2ad6:	dc22                	c.swsp	s0,56(sp)
    2ad8:	da26                	c.swsp	s1,52(sp)
    2ada:	d84a                	c.swsp	s2,48(sp)
    2adc:	d452                	c.swsp	s4,40(sp)
    2ade:	d256                	c.swsp	s5,36(sp)
    2ae0:	d05a                	c.swsp	s6,32(sp)
    2ae2:	ce5e                	c.swsp	s7,28(sp)
    2ae4:	cc62                	c.swsp	s8,24(sp)
    2ae6:	de06                	c.swsp	ra,60(sp)
    2ae8:	d64e                	c.swsp	s3,44(sp)
    2aea:	842a                	c.mv	s0,a0
    2aec:	8ab2                	c.mv	s5,a2
    2aee:	8a36                	c.mv	s4,a3
    2af0:	8c3a                	c.mv	s8,a4
    2af2:	8bbe                	c.mv	s7,a5
    2af4:	8b42                	c.mv	s6,a6
    2af6:	8946                	c.mv	s2,a7
    2af8:	3489                	c.jal	253a <ECDSA_CurveSel>
    2afa:	84aa                	c.mv	s1,a0
    2afc:	e549                	c.bnez	a0,2b86 <ECDSA_ECDH_Compute_Shared+0xb6>
    2afe:	445c                	c.lw	a5,12(s0)
    2b00:	4992                	c.lwsp	s3,4(sp)
    2b02:	7775                	c.lui	a4,0xffffd
    2b04:	9bcd                	c.andi	a5,-13
    2b06:	c45c                	c.sw	a5,12(s0)
    2b08:	445c                	c.lw	a5,12(s0)
    2b0a:	177d                	c.addi	a4,-1
    2b0c:	0039d993          	srli	s3,s3,0x3
    2b10:	0087e793          	ori	a5,a5,8
    2b14:	c45c                	c.sw	a5,12(s0)
    2b16:	445c                	c.lw	a5,12(s0)
    2b18:	864e                	c.mv	a2,s3
    2b1a:	85e2                	c.mv	a1,s8
    2b1c:	8ff9                	c.and	a5,a4
    2b1e:	c45c                	c.sw	a5,12(s0)
    2b20:	01040513          	addi	a0,s0,16
    2b24:	2ef060ef          	jal	ra,9612 <_memcpy>
    2b28:	864e                	c.mv	a2,s3
    2b2a:	85de                	c.mv	a1,s7
    2b2c:	03040513          	addi	a0,s0,48
    2b30:	2e3060ef          	jal	ra,9612 <_memcpy>
    2b34:	4789                	c.li	a5,2
    2b36:	0927e563          	bltu	a5,s2,2bc0 <ECDSA_ECDH_Compute_Shared+0xf0>
    2b3a:	06090363          	beq	s2,zero,2ba0 <ECDSA_ECDH_Compute_Shared+0xd0>
    2b3e:	00c42883          	lw	a7,12(s0)
    2b42:	0932                	c.slli	s2,0xc
    2b44:	01196933          	or	s2,s2,a7
    2b48:	01242623          	sw	s2,12(s0)
    2b4c:	4585                	c.li	a1,1
    2b4e:	8522                	c.mv	a0,s0
    2b50:	31ad                	c.jal	27ba <ECDSA_Cmd>
    2b52:	013137b7          	lui	a5,0x1313
    2b56:	000316b7          	lui	a3,0x31
    2b5a:	d0078793          	addi	a5,a5,-768 # 1312d00 <secp192k1_a+0x12e3af4>
    2b5e:	c0068693          	addi	a3,a3,-1024 # 30c00 <secp192k1_a+0x19f4>
    2b62:	4418                	c.lw	a4,8(s0)
    2b64:	10077713          	andi	a4,a4,256
    2b68:	c339                	c.beqz	a4,2bae <ECDSA_ECDH_Compute_Shared+0xde>
    2b6a:	864e                	c.mv	a2,s3
    2b6c:	09040593          	addi	a1,s0,144
    2b70:	8556                	c.mv	a0,s5
    2b72:	2a1060ef          	jal	ra,9612 <_memcpy>
    2b76:	000a0863          	beq	s4,zero,2b86 <ECDSA_ECDH_Compute_Shared+0xb6>
    2b7a:	864e                	c.mv	a2,s3
    2b7c:	0b040593          	addi	a1,s0,176
    2b80:	8552                	c.mv	a0,s4
    2b82:	291060ef          	jal	ra,9612 <_memcpy>
    2b86:	50f2                	c.lwsp	ra,60(sp)
    2b88:	5462                	c.lwsp	s0,56(sp)
    2b8a:	5942                	c.lwsp	s2,48(sp)
    2b8c:	59b2                	c.lwsp	s3,44(sp)
    2b8e:	5a22                	c.lwsp	s4,40(sp)
    2b90:	5a92                	c.lwsp	s5,36(sp)
    2b92:	5b02                	c.lwsp	s6,32(sp)
    2b94:	4bf2                	c.lwsp	s7,28(sp)
    2b96:	4c62                	c.lwsp	s8,24(sp)
    2b98:	8526                	c.mv	a0,s1
    2b9a:	54d2                	c.lwsp	s1,52(sp)
    2b9c:	6121                	c.addi16sp	sp,64
    2b9e:	8082                	c.jr	ra
    2ba0:	864e                	c.mv	a2,s3
    2ba2:	85da                	c.mv	a1,s6
    2ba4:	15040513          	addi	a0,s0,336
    2ba8:	26b060ef          	jal	ra,9612 <_memcpy>
    2bac:	b745                	c.j	2b4c <ECDSA_ECDH_Compute_Shared+0x7c>
    2bae:	17fd                	c.addi	a5,-1
    2bb0:	cf81                	c.beqz	a5,2bc8 <ECDSA_ECDH_Compute_Shared+0xf8>
    2bb2:	4418                	c.lw	a4,8(s0)
    2bb4:	8f75                	c.and	a4,a3
    2bb6:	d755                	c.beqz	a4,2b62 <ECDSA_ECDH_Compute_Shared+0x92>
    2bb8:	74f9                	c.lui	s1,0xffffe
    2bba:	30048493          	addi	s1,s1,768 # ffffe300 <__kr4_psram_text_start__+0x9fe7e2e0>
    2bbe:	b7e1                	c.j	2b86 <ECDSA_ECDH_Compute_Shared+0xb6>
    2bc0:	74f9                	c.lui	s1,0xffffe
    2bc2:	40048493          	addi	s1,s1,1024 # ffffe400 <__kr4_psram_text_start__+0x9fe7e3e0>
    2bc6:	b7c1                	c.j	2b86 <ECDSA_ECDH_Compute_Shared+0xb6>
    2bc8:	74f9                	c.lui	s1,0xffffe
    2bca:	28048493          	addi	s1,s1,640 # ffffe280 <__kr4_psram_text_start__+0x9fe7e260>
    2bce:	bf65                	c.j	2b86 <ECDSA_ECDH_Compute_Shared+0xb6>

00002bd0 <ECDSA_Basic_Func>:
    2bd0:	7179                	c.addi16sp	sp,-48
    2bd2:	ce4e                	c.swsp	s3,28(sp)
    2bd4:	cc52                	c.swsp	s4,24(sp)
    2bd6:	89b2                	c.mv	s3,a2
    2bd8:	8a2e                	c.mv	s4,a1
    2bda:	0002d637          	lui	a2,0x2d
    2bde:	d422                	c.swsp	s0,40(sp)
    2be0:	3e460613          	addi	a2,a2,996 # 2d3e4 <SECP256K1_P>
    2be4:	842a                	c.mv	s0,a0
    2be6:	45a1                	c.li	a1,8
    2be8:	8552                	c.mv	a0,s4
    2bea:	d04a                	c.swsp	s2,32(sp)
    2bec:	ca56                	c.swsp	s5,20(sp)
    2bee:	d606                	c.swsp	ra,44(sp)
    2bf0:	d226                	c.swsp	s1,36(sp)
    2bf2:	8ab6                	c.mv	s5,a3
    2bf4:	893a                	c.mv	s2,a4
    2bf6:	f94ff0ef          	jal	ra,238a <ECDSA_BufCmp>
    2bfa:	00054f63          	blt	a0,zero,2c18 <ECDSA_Basic_Func+0x48>
    2bfe:	74f9                	c.lui	s1,0xffffe
    2c00:	58048493          	addi	s1,s1,1408 # ffffe580 <__kr4_psram_text_start__+0x9fe7e560>
    2c04:	50b2                	c.lwsp	ra,44(sp)
    2c06:	5422                	c.lwsp	s0,40(sp)
    2c08:	5902                	c.lwsp	s2,32(sp)
    2c0a:	49f2                	c.lwsp	s3,28(sp)
    2c0c:	4a62                	c.lwsp	s4,24(sp)
    2c0e:	4ad2                	c.lwsp	s5,20(sp)
    2c10:	8526                	c.mv	a0,s1
    2c12:	5492                	c.lwsp	s1,36(sp)
    2c14:	6145                	c.addi16sp	sp,48
    2c16:	8082                	c.jr	ra
    2c18:	0002d7b7          	lui	a5,0x2d
    2c1c:	3e478613          	addi	a2,a5,996 # 2d3e4 <SECP256K1_P>
    2c20:	45a1                	c.li	a1,8
    2c22:	854e                	c.mv	a0,s3
    2c24:	f66ff0ef          	jal	ra,238a <ECDSA_BufCmp>
    2c28:	fc055be3          	bge	a0,zero,2bfe <ECDSA_Basic_Func+0x2e>
    2c2c:	47b1                	c.li	a5,12
    2c2e:	858a                	c.mv	a1,sp
    2c30:	8522                	c.mv	a0,s0
    2c32:	c03e                	c.swsp	a5,0(sp)
    2c34:	3219                	c.jal	253a <ECDSA_CurveSel>
    2c36:	84aa                	c.mv	s1,a0
    2c38:	f571                	c.bnez	a0,2c04 <ECDSA_Basic_Func+0x34>
    2c3a:	445c                	c.lw	a5,12(s0)
    2c3c:	0912                	c.slli	s2,0x4
    2c3e:	07097913          	andi	s2,s2,112
    2c42:	9bcd                	c.andi	a5,-13
    2c44:	c45c                	c.sw	a5,12(s0)
    2c46:	445c                	c.lw	a5,12(s0)
    2c48:	02000613          	addi	a2,zero,32
    2c4c:	85d2                	c.mv	a1,s4
    2c4e:	00c7e793          	ori	a5,a5,12
    2c52:	c45c                	c.sw	a5,12(s0)
    2c54:	445c                	c.lw	a5,12(s0)
    2c56:	01040513          	addi	a0,s0,16
    2c5a:	f8f7f793          	andi	a5,a5,-113
    2c5e:	c45c                	c.sw	a5,12(s0)
    2c60:	445c                	c.lw	a5,12(s0)
    2c62:	00f96933          	or	s2,s2,a5
    2c66:	01242623          	sw	s2,12(s0)
    2c6a:	1a9060ef          	jal	ra,9612 <_memcpy>
    2c6e:	02000613          	addi	a2,zero,32
    2c72:	85ce                	c.mv	a1,s3
    2c74:	03040513          	addi	a0,s0,48
    2c78:	19b060ef          	jal	ra,9612 <_memcpy>
    2c7c:	4585                	c.li	a1,1
    2c7e:	8522                	c.mv	a0,s0
    2c80:	3e2d                	c.jal	27ba <ECDSA_Cmd>
    2c82:	013137b7          	lui	a5,0x1313
    2c86:	000316b7          	lui	a3,0x31
    2c8a:	d0078793          	addi	a5,a5,-768 # 1312d00 <secp192k1_a+0x12e3af4>
    2c8e:	c0068693          	addi	a3,a3,-1024 # 30c00 <secp192k1_a+0x19f4>
    2c92:	4418                	c.lw	a4,8(s0)
    2c94:	10077713          	andi	a4,a4,256
    2c98:	cb09                	c.beqz	a4,2caa <ECDSA_Basic_Func+0xda>
    2c9a:	02000613          	addi	a2,zero,32
    2c9e:	09040593          	addi	a1,s0,144
    2ca2:	8556                	c.mv	a0,s5
    2ca4:	16f060ef          	jal	ra,9612 <_memcpy>
    2ca8:	bfb1                	c.j	2c04 <ECDSA_Basic_Func+0x34>
    2caa:	17fd                	c.addi	a5,-1
    2cac:	cb81                	c.beqz	a5,2cbc <ECDSA_Basic_Func+0xec>
    2cae:	4418                	c.lw	a4,8(s0)
    2cb0:	8f75                	c.and	a4,a3
    2cb2:	d365                	c.beqz	a4,2c92 <ECDSA_Basic_Func+0xc2>
    2cb4:	74f9                	c.lui	s1,0xffffe
    2cb6:	50048493          	addi	s1,s1,1280 # ffffe500 <__kr4_psram_text_start__+0x9fe7e4e0>
    2cba:	b7a9                	c.j	2c04 <ECDSA_Basic_Func+0x34>
    2cbc:	74f9                	c.lui	s1,0xffffe
    2cbe:	48048493          	addi	s1,s1,1152 # ffffe480 <__kr4_psram_text_start__+0x9fe7e460>
    2cc2:	b789                	c.j	2c04 <ECDSA_Basic_Func+0x34>

00002cc4 <FLASH_SetSpiMode>:
    2cc4:	00b507b3          	add	a5,a0,a1
    2cc8:	00554683          	lbu	a3,5(a0)
    2ccc:	05e7c783          	lbu	a5,94(a5)
    2cd0:	4100a837          	lui	a6,0x4100a
    2cd4:	00082423          	sw	zero,8(a6) # 4100a008 <__retention_entry_func__+0x1ffea008>
    2cd8:	02f687b3          	mul	a5,a3,a5
    2cdc:	05d54703          	lbu	a4,93(a0)
    2ce0:	11c82603          	lw	a2,284(a6)
    2ce4:	68bd                	c.lui	a7,0xf
    2ce6:	0732                	c.slli	a4,0xc
    2ce8:	01177733          	and	a4,a4,a7
    2cec:	78c1                	c.lui	a7,0xffff0
    2cee:	01167633          	and	a2,a2,a7
    2cf2:	8f51                	c.or	a4,a2
    2cf4:	6605                	c.lui	a2,0x1
    2cf6:	0786                	c.slli	a5,0x1
    2cf8:	07c2                	c.slli	a5,0x10
    2cfa:	83c1                	c.srli	a5,0x10
    2cfc:	167d                	c.addi	a2,-1
    2cfe:	8e7d                	c.and	a2,a5
    2d00:	8f51                	c.or	a4,a2
    2d02:	10e82e23          	sw	a4,284(a6)
    2d06:	06554603          	lbu	a2,101(a0)
    2d0a:	ca01                	c.beqz	a2,2d1a <FLASH_SetSpiMode+0x56>
    2d0c:	4711                	c.li	a4,4
    2d0e:	04e59863          	bne	a1,a4,2d5e <FLASH_SetSpiMode+0x9a>
    2d12:	068a                	c.slli	a3,0x2
    2d14:	8f95                	c.sub	a5,a3
    2d16:	07c2                	c.slli	a5,0x10
    2d18:	83c1                	c.srli	a5,0x10
    2d1a:	4100a6b7          	lui	a3,0x4100a
    2d1e:	1186a703          	lw	a4,280(a3) # 4100a118 <__retention_entry_func__+0x1ffea118>
    2d22:	07d2                	c.slli	a5,0x14
    2d24:	787d                	c.lui	a6,0xfffff
    2d26:	01077733          	and	a4,a4,a6
    2d2a:	83d1                	c.srli	a5,0x14
    2d2c:	8fd9                	c.or	a5,a4
    2d2e:	10f6ac23          	sw	a5,280(a3)
    2d32:	4298                	c.lw	a4,0(a3)
    2d34:	ffc107b7          	lui	a5,0xffc10
    2d38:	17fd                	c.addi	a5,-1
    2d3a:	8f7d                	c.and	a4,a5
    2d3c:	1206a783          	lw	a5,288(a3)
    2d40:	76c1                	c.lui	a3,0xffff0
    2d42:	8ff5                	c.and	a5,a3
    2d44:	468d                	c.li	a3,3
    2d46:	06d58563          	beq	a1,a3,2db0 <FLASH_SetSpiMode+0xec>
    2d4a:	00b6ef63          	bltu	a3,a1,2d68 <FLASH_SetSpiMode+0xa4>
    2d4e:	4685                	c.li	a3,1
    2d50:	02d58763          	beq	a1,a3,2d7e <FLASH_SetSpiMode+0xba>
    2d54:	4689                	c.li	a3,2
    2d56:	04d58563          	beq	a1,a3,2da0 <FLASH_SetSpiMode+0xdc>
    2d5a:	468d                	c.li	a3,3
    2d5c:	a805                	c.j	2d8c <FLASH_SetSpiMode+0xc8>
    2d5e:	4709                	c.li	a4,2
    2d60:	fae59de3          	bne	a1,a4,2d1a <FLASH_SetSpiMode+0x56>
    2d64:	068e                	c.slli	a3,0x3
    2d66:	b77d                	c.j	2d14 <FLASH_SetSpiMode+0x50>
    2d68:	4691                	c.li	a3,4
    2d6a:	fed598e3          	bne	a1,a3,2d5a <FLASH_SetSpiMode+0x96>
    2d6e:	4534                	c.lw	a3,72(a0)
    2d70:	8fd5                	c.or	a5,a3
    2d72:	000a06b7          	lui	a3,0xa0
    2d76:	8f55                	c.or	a4,a3
    2d78:	0eb00693          	addi	a3,zero,235
    2d7c:	a801                	c.j	2d8c <FLASH_SetSpiMode+0xc8>
    2d7e:	5d54                	c.lw	a3,60(a0)
    2d80:	8fd5                	c.or	a5,a3
    2d82:	000406b7          	lui	a3,0x40
    2d86:	8f55                	c.or	a4,a3
    2d88:	03b00693          	addi	a3,zero,59
    2d8c:	c514                	c.sw	a3,8(a0)
    2d8e:	c219                	c.beqz	a2,2d94 <FLASH_SetSpiMode+0xd0>
    2d90:	6689                	c.lui	a3,0x2
    2d92:	8fd5                	c.or	a5,a3
    2d94:	4100a6b7          	lui	a3,0x4100a
    2d98:	12f6a023          	sw	a5,288(a3) # 4100a120 <__retention_entry_func__+0x1ffea120>
    2d9c:	c298                	c.sw	a4,0(a3)
    2d9e:	8082                	c.jr	ra
    2da0:	4134                	c.lw	a3,64(a0)
    2da2:	8fd5                	c.or	a5,a3
    2da4:	000506b7          	lui	a3,0x50
    2da8:	8f55                	c.or	a4,a3
    2daa:	0bb00693          	addi	a3,zero,187
    2dae:	bff9                	c.j	2d8c <FLASH_SetSpiMode+0xc8>
    2db0:	4174                	c.lw	a3,68(a0)
    2db2:	8fd5                	c.or	a5,a3
    2db4:	000806b7          	lui	a3,0x80
    2db8:	8f55                	c.or	a4,a3
    2dba:	06b00693          	addi	a3,zero,107
    2dbe:	b7f9                	c.j	2d8c <FLASH_SetSpiMode+0xc8>

00002dc0 <FLASH_RxCmd>:
    2dc0:	1101                	c.addi	sp,-32
    2dc2:	c64e                	c.swsp	s3,12(sp)
    2dc4:	89aa                	c.mv	s3,a0
    2dc6:	4505                	c.li	a0,1
    2dc8:	ce06                	c.swsp	ra,28(sp)
    2dca:	cc22                	c.swsp	s0,24(sp)
    2dcc:	ca26                	c.swsp	s1,20(sp)
    2dce:	c84a                	c.swsp	s2,16(sp)
    2dd0:	84ae                	c.mv	s1,a1
    2dd2:	8932                	c.mv	s2,a2
    2dd4:	20001437          	lui	s0,0x20001
    2dd8:	2a11                	c.jal	2eec <FLASH_UserModeEn>
    2dda:	4581                	c.li	a1,0
    2ddc:	86440513          	addi	a0,s0,-1948 # 20000864 <flash_init_para>
    2de0:	35d5                	c.jal	2cc4 <FLASH_SetSpiMode>
    2de2:	4100a7b7          	lui	a5,0x4100a
    2de6:	10078613          	addi	a2,a5,256 # 4100a100 <__retention_entry_func__+0x1ffea100>
    2dea:	4e18                	c.lw	a4,24(a2)
    2dec:	fff106b7          	lui	a3,0xfff10
    2df0:	fff68593          	addi	a1,a3,-1 # fff0ffff <__kr4_psram_text_start__+0x9fd8ffdf>
    2df4:	8f6d                	c.and	a4,a1
    2df6:	ce18                	c.sw	a4,24(a2)
    2df8:	00849713          	slli	a4,s1,0x8
    2dfc:	8321                	c.srli	a4,0x8
    2dfe:	c3d8                	c.sw	a4,4(a5)
    2e00:	1207a823          	sw	zero,304(a5)
    2e04:	4398                	c.lw	a4,0(a5)
    2e06:	cff68693          	addi	a3,a3,-769
    2e0a:	8f75                	c.and	a4,a3
    2e0c:	30076713          	ori	a4,a4,768
    2e10:	c398                	c.sw	a4,0(a5)
    2e12:	07378023          	sb	s3,96(a5)
    2e16:	4705                	c.li	a4,1
    2e18:	c798                	c.sw	a4,8(a5)
    2e1a:	4100a6b7          	lui	a3,0x4100a
    2e1e:	4781                	c.li	a5,0
    2e20:	02979363          	bne	a5,s1,2e46 <FLASH_RxCmd+0x86>
    2e24:	4511                	c.li	a0,4
    2e26:	281d                	c.jal	2e5c <FLASH_WaitBusy>
    2e28:	86440793          	addi	a5,s0,-1948
    2e2c:	0047c583          	lbu	a1,4(a5)
    2e30:	86440513          	addi	a0,s0,-1948
    2e34:	3d41                	c.jal	2cc4 <FLASH_SetSpiMode>
    2e36:	4462                	c.lwsp	s0,24(sp)
    2e38:	40f2                	c.lwsp	ra,28(sp)
    2e3a:	44d2                	c.lwsp	s1,20(sp)
    2e3c:	4942                	c.lwsp	s2,16(sp)
    2e3e:	49b2                	c.lwsp	s3,12(sp)
    2e40:	4501                	c.li	a0,0
    2e42:	6105                	c.addi16sp	sp,32
    2e44:	a065                	c.j	2eec <FLASH_UserModeEn>
    2e46:	5698                	c.lw	a4,40(a3)
    2e48:	8b21                	c.andi	a4,8
    2e4a:	db79                	c.beqz	a4,2e20 <FLASH_RxCmd+0x60>
    2e4c:	0606c603          	lbu	a2,96(a3) # 4100a060 <__retention_entry_func__+0x1ffea060>
    2e50:	00f90733          	add	a4,s2,a5
    2e54:	0785                	c.addi	a5,1
    2e56:	00c70023          	sb	a2,0(a4) # ffffd000 <__kr4_psram_text_start__+0x9fe7cfe0>
    2e5a:	b7d9                	c.j	2e20 <FLASH_RxCmd+0x60>

00002e5c <FLASH_WaitBusy>:
    2e5c:	7179                	c.addi16sp	sp,-48
    2e5e:	d422                	c.swsp	s0,40(sp)
    2e60:	20001437          	lui	s0,0x20001
    2e64:	d226                	c.swsp	s1,36(sp)
    2e66:	d04a                	c.swsp	s2,32(sp)
    2e68:	ce4e                	c.swsp	s3,28(sp)
    2e6a:	cc52                	c.swsp	s4,24(sp)
    2e6c:	ca56                	c.swsp	s5,20(sp)
    2e6e:	d606                	c.swsp	ra,44(sp)
    2e70:	84aa                	c.mv	s1,a0
    2e72:	000107a3          	sb	zero,15(sp) # 2000200f <__rom_stdlib_data_start__+0xf>
    2e76:	4781                	c.li	a5,0
    2e78:	4911                	c.li	s2,4
    2e7a:	4985                	c.li	s3,1
    2e7c:	4a0d                	c.li	s4,3
    2e7e:	86440413          	addi	s0,s0,-1948 # 20000864 <flash_init_para>
    2e82:	4100aab7          	lui	s5,0x4100a
    2e86:	ec91                	c.bnez	s1,2ea2 <FLASH_WaitBusy+0x46>
    2e88:	028aa783          	lw	a5,40(s5) # 4100a028 <__retention_entry_func__+0x1ffea028>
    2e8c:	8b85                	c.andi	a5,1
    2e8e:	ffe5                	c.bnez	a5,2e86 <FLASH_WaitBusy+0x2a>
    2e90:	50b2                	c.lwsp	ra,44(sp)
    2e92:	5422                	c.lwsp	s0,40(sp)
    2e94:	5492                	c.lwsp	s1,36(sp)
    2e96:	5902                	c.lwsp	s2,32(sp)
    2e98:	49f2                	c.lwsp	s3,28(sp)
    2e9a:	4a62                	c.lwsp	s4,24(sp)
    2e9c:	4ad2                	c.lwsp	s5,20(sp)
    2e9e:	6145                	c.addi16sp	sp,48
    2ea0:	8082                	c.jr	ra
    2ea2:	01249563          	bne	s1,s2,2eac <FLASH_WaitBusy+0x50>
    2ea6:	008aa783          	lw	a5,8(s5)
    2eaa:	b7cd                	c.j	2e8c <FLASH_WaitBusy+0x30>
    2eac:	01349d63          	bne	s1,s3,2ec6 <FLASH_WaitBusy+0x6a>
    2eb0:	05244503          	lbu	a0,82(s0)
    2eb4:	00f10613          	addi	a2,sp,15
    2eb8:	4585                	c.li	a1,1
    2eba:	3719                	c.jal	2dc0 <FLASH_RxCmd>
    2ebc:	00f14783          	lbu	a5,15(sp)
    2ec0:	4818                	c.lw	a4,16(s0)
    2ec2:	8ff9                	c.and	a5,a4
    2ec4:	b7e9                	c.j	2e8e <FLASH_WaitBusy+0x32>
    2ec6:	fd4494e3          	bne	s1,s4,2e8e <FLASH_WaitBusy+0x32>
    2eca:	05244503          	lbu	a0,82(s0)
    2ece:	00f10613          	addi	a2,sp,15
    2ed2:	4585                	c.li	a1,1
    2ed4:	35f5                	c.jal	2dc0 <FLASH_RxCmd>
    2ed6:	00f14703          	lbu	a4,15(sp)
    2eda:	4854                	c.lw	a3,20(s0)
    2edc:	4785                	c.li	a5,1
    2ede:	8ef9                	c.and	a3,a4
    2ee0:	d6dd                	c.beqz	a3,2e8e <FLASH_WaitBusy+0x32>
    2ee2:	481c                	c.lw	a5,16(s0)
    2ee4:	8ff9                	c.and	a5,a4
    2ee6:	00f037b3          	sltu	a5,zero,a5
    2eea:	b755                	c.j	2e8e <FLASH_WaitBusy+0x32>

00002eec <FLASH_UserModeEn>:
    2eec:	1141                	c.addi	sp,-16
    2eee:	c422                	c.swsp	s0,8(sp)
    2ef0:	842a                	c.mv	s0,a0
    2ef2:	4501                	c.li	a0,0
    2ef4:	c606                	c.swsp	ra,12(sp)
    2ef6:	379d                	c.jal	2e5c <FLASH_WaitBusy>
    2ef8:	4100a737          	lui	a4,0x4100a
    2efc:	431c                	c.lw	a5,0(a4)
    2efe:	c809                	c.beqz	s0,2f10 <FLASH_UserModeEn+0x24>
    2f00:	800006b7          	lui	a3,0x80000
    2f04:	8fd5                	c.or	a5,a3
    2f06:	40b2                	c.lwsp	ra,12(sp)
    2f08:	4422                	c.lwsp	s0,8(sp)
    2f0a:	c31c                	c.sw	a5,0(a4)
    2f0c:	0141                	c.addi	sp,16
    2f0e:	8082                	c.jr	ra
    2f10:	0786                	c.slli	a5,0x1
    2f12:	8385                	c.srli	a5,0x1
    2f14:	bfcd                	c.j	2f06 <FLASH_UserModeEn+0x1a>

00002f16 <FLASH_RxData>:
    2f16:	1101                	c.addi	sp,-32
    2f18:	cc22                	c.swsp	s0,24(sp)
    2f1a:	ca26                	c.swsp	s1,20(sp)
    2f1c:	c84a                	c.swsp	s2,16(sp)
    2f1e:	c64e                	c.swsp	s3,12(sp)
    2f20:	c452                	c.swsp	s4,8(sp)
    2f22:	200014b7          	lui	s1,0x20001
    2f26:	ce06                	c.swsp	ra,28(sp)
    2f28:	842e                	c.mv	s0,a1
    2f2a:	89b2                	c.mv	s3,a2
    2f2c:	8a36                	c.mv	s4,a3
    2f2e:	86448493          	addi	s1,s1,-1948 # 20000864 <flash_init_para>
    2f32:	892a                	c.mv	s2,a0
    2f34:	e119                	c.bnez	a0,2f3a <FLASH_RxData+0x24>
    2f36:	0084c903          	lbu	s2,8(s1)
    2f3a:	4505                	c.li	a0,1
    2f3c:	3f45                	c.jal	2eec <FLASH_UserModeEn>
    2f3e:	4100a7b7          	lui	a5,0x4100a
    2f42:	4398                	c.lw	a4,0(a5)
    2f44:	30076713          	ori	a4,a4,768
    2f48:	c398                	c.sw	a4,0(a5)
    2f4a:	00899713          	slli	a4,s3,0x8
    2f4e:	8321                	c.srli	a4,0x8
    2f50:	c3d8                	c.sw	a4,4(a5)
    2f52:	1207a823          	sw	zero,304(a5) # 4100a130 <__retention_entry_func__+0x1ffea130>
    2f56:	1187a783          	lw	a5,280(a5)
    2f5a:	0654c683          	lbu	a3,101(s1)
    2f5e:	fff10737          	lui	a4,0xfff10
    2f62:	177d                	c.addi	a4,-1
    2f64:	8f7d                	c.and	a4,a5
    2f66:	0644c783          	lbu	a5,100(s1)
    2f6a:	c291                	c.beqz	a3,2f6e <FLASH_RxData+0x58>
    2f6c:	0785                	c.addi	a5,1
    2f6e:	000f0637          	lui	a2,0xf0
    2f72:	07c2                	c.slli	a5,0x10
    2f74:	8ff1                	c.and	a5,a2
    2f76:	8fd9                	c.or	a5,a4
    2f78:	4100a737          	lui	a4,0x4100a
    2f7c:	10f72c23          	sw	a5,280(a4) # 4100a118 <__retention_entry_func__+0x1ffea118>
    2f80:	4785                	c.li	a5,1
    2f82:	cb1c                	c.sw	a5,16(a4)
    2f84:	07270023          	sb	s2,96(a4)
    2f88:	0644c603          	lbu	a2,100(s1)
    2f8c:	4791                	c.li	a5,4
    2f8e:	00f61663          	bne	a2,a5,2f9a <FLASH_RxData+0x84>
    2f92:	01845793          	srli	a5,s0,0x18
    2f96:	06f70023          	sb	a5,96(a4)
    2f9a:	01045713          	srli	a4,s0,0x10
    2f9e:	4100a7b7          	lui	a5,0x4100a
    2fa2:	0ff77713          	andi	a4,a4,255
    2fa6:	06e78023          	sb	a4,96(a5) # 4100a060 <__retention_entry_func__+0x1ffea060>
    2faa:	00845713          	srli	a4,s0,0x8
    2fae:	0ff77713          	andi	a4,a4,255
    2fb2:	06e78023          	sb	a4,96(a5)
    2fb6:	0ff47413          	andi	s0,s0,255
    2fba:	06878023          	sb	s0,96(a5)
    2fbe:	c299                	c.beqz	a3,2fc4 <FLASH_RxData+0xae>
    2fc0:	06078023          	sb	zero,96(a5)
    2fc4:	4100a7b7          	lui	a5,0x4100a
    2fc8:	4705                	c.li	a4,1
    2fca:	c798                	c.sw	a4,8(a5)
    2fcc:	4100a6b7          	lui	a3,0x4100a
    2fd0:	4781                	c.li	a5,0
    2fd2:	01379d63          	bne	a5,s3,2fec <FLASH_RxData+0xd6>
    2fd6:	4511                	c.li	a0,4
    2fd8:	3551                	c.jal	2e5c <FLASH_WaitBusy>
    2fda:	4462                	c.lwsp	s0,24(sp)
    2fdc:	40f2                	c.lwsp	ra,28(sp)
    2fde:	44d2                	c.lwsp	s1,20(sp)
    2fe0:	4942                	c.lwsp	s2,16(sp)
    2fe2:	49b2                	c.lwsp	s3,12(sp)
    2fe4:	4a22                	c.lwsp	s4,8(sp)
    2fe6:	4501                	c.li	a0,0
    2fe8:	6105                	c.addi16sp	sp,32
    2fea:	b709                	c.j	2eec <FLASH_UserModeEn>
    2fec:	5698                	c.lw	a4,40(a3)
    2fee:	8b21                	c.andi	a4,8
    2ff0:	d36d                	c.beqz	a4,2fd2 <FLASH_RxData+0xbc>
    2ff2:	0606c603          	lbu	a2,96(a3) # 4100a060 <__retention_entry_func__+0x1ffea060>
    2ff6:	00fa0733          	add	a4,s4,a5
    2ffa:	0785                	c.addi	a5,1
    2ffc:	00c70023          	sb	a2,0(a4)
    3000:	bfc9                	c.j	2fd2 <FLASH_RxData+0xbc>

00003002 <FLASH_TxCmd>:
    3002:	1101                	c.addi	sp,-32
    3004:	c84a                	c.swsp	s2,16(sp)
    3006:	892a                	c.mv	s2,a0
    3008:	4505                	c.li	a0,1
    300a:	cc22                	c.swsp	s0,24(sp)
    300c:	ca26                	c.swsp	s1,20(sp)
    300e:	c64e                	c.swsp	s3,12(sp)
    3010:	c452                	c.swsp	s4,8(sp)
    3012:	842e                	c.mv	s0,a1
    3014:	84b2                	c.mv	s1,a2
    3016:	ce06                	c.swsp	ra,28(sp)
    3018:	3dd1                	c.jal	2eec <FLASH_UserModeEn>
    301a:	4100a7b7          	lui	a5,0x4100a
    301e:	10078713          	addi	a4,a5,256 # 4100a100 <__retention_entry_func__+0x1ffea100>
    3022:	01872a03          	lw	s4,24(a4)
    3026:	0007a983          	lw	s3,0(a5)
    302a:	4394                	c.lw	a3,0(a5)
    302c:	ffc10637          	lui	a2,0xffc10
    3030:	cff60613          	addi	a2,a2,-769 # ffc0fcff <__kr4_psram_text_start__+0x9fa8fcdf>
    3034:	8ef1                	c.and	a3,a2
    3036:	c394                	c.sw	a3,0(a5)
    3038:	4f14                	c.lw	a3,24(a4)
    303a:	fff10637          	lui	a2,0xfff10
    303e:	167d                	c.addi	a2,-1
    3040:	8ef1                	c.and	a3,a2
    3042:	cf14                	c.sw	a3,24(a4)
    3044:	0007a223          	sw	zero,4(a5)
    3048:	db00                	c.sw	s0,48(a4)
    304a:	07278023          	sb	s2,96(a5)
    304e:	4100a737          	lui	a4,0x4100a
    3052:	4781                	c.li	a5,0
    3054:	0287e463          	bltu	a5,s0,307c <FLASH_TxCmd+0x7a>
    3058:	4100a437          	lui	s0,0x4100a
    305c:	4785                	c.li	a5,1
    305e:	c41c                	c.sw	a5,8(s0)
    3060:	4511                	c.li	a0,4
    3062:	3bed                	c.jal	2e5c <FLASH_WaitBusy>
    3064:	11442c23          	sw	s4,280(s0) # 4100a118 <__retention_entry_func__+0x1ffea118>
    3068:	01342023          	sw	s3,0(s0)
    306c:	40f2                	c.lwsp	ra,28(sp)
    306e:	4462                	c.lwsp	s0,24(sp)
    3070:	44d2                	c.lwsp	s1,20(sp)
    3072:	4942                	c.lwsp	s2,16(sp)
    3074:	49b2                	c.lwsp	s3,12(sp)
    3076:	4a22                	c.lwsp	s4,8(sp)
    3078:	6105                	c.addi16sp	sp,32
    307a:	8082                	c.jr	ra
    307c:	00f486b3          	add	a3,s1,a5
    3080:	0006c683          	lbu	a3,0(a3)
    3084:	0785                	c.addi	a5,1
    3086:	06d70023          	sb	a3,96(a4) # 4100a060 <__retention_entry_func__+0x1ffea060>
    308a:	b7e9                	c.j	3054 <FLASH_TxCmd+0x52>

0000308c <FLASH_WriteEn>:
    308c:	1141                	c.addi	sp,-16
    308e:	4505                	c.li	a0,1
    3090:	c606                	c.swsp	ra,12(sp)
    3092:	33e9                	c.jal	2e5c <FLASH_WaitBusy>
    3094:	200017b7          	lui	a5,0x20001
    3098:	8b47c503          	lbu	a0,-1868(a5) # 200008b4 <flash_init_para+0x50>
    309c:	4601                	c.li	a2,0
    309e:	4581                	c.li	a1,0
    30a0:	378d                	c.jal	3002 <FLASH_TxCmd>
    30a2:	40b2                	c.lwsp	ra,12(sp)
    30a4:	450d                	c.li	a0,3
    30a6:	0141                	c.addi	sp,16
    30a8:	bb55                	c.j	2e5c <FLASH_WaitBusy>

000030aa <FLASH_TxData>:
    30aa:	1101                	c.addi	sp,-32
    30ac:	0ff57793          	andi	a5,a0,255
    30b0:	cc22                	c.swsp	s0,24(sp)
    30b2:	ca26                	c.swsp	s1,20(sp)
    30b4:	c84a                	c.swsp	s2,16(sp)
    30b6:	ce06                	c.swsp	ra,28(sp)
    30b8:	c64e                	c.swsp	s3,12(sp)
    30ba:	97ae                	c.add	a5,a1
    30bc:	10000713          	addi	a4,zero,256
    30c0:	842a                	c.mv	s0,a0
    30c2:	84ae                	c.mv	s1,a1
    30c4:	8932                	c.mv	s2,a2
    30c6:	00f77a63          	bgeu	a4,a5,30da <FLASH_TxData+0x30>
    30ca:	0002e537          	lui	a0,0x2e
    30ce:	19500593          	addi	a1,zero,405
    30d2:	85450513          	addi	a0,a0,-1964 # 2d854 <__FUNCTION__.1>
    30d6:	f40fd0ef          	jal	ra,816 <io_assert_failed>
    30da:	3f4d                	c.jal	308c <FLASH_WriteEn>
    30dc:	4505                	c.li	a0,1
    30de:	3539                	c.jal	2eec <FLASH_UserModeEn>
    30e0:	4100a7b7          	lui	a5,0x4100a
    30e4:	0007a983          	lw	s3,0(a5) # 4100a000 <__retention_entry_func__+0x1ffea000>
    30e8:	4398                	c.lw	a4,0(a5)
    30ea:	ffc106b7          	lui	a3,0xffc10
    30ee:	cff68693          	addi	a3,a3,-769 # ffc0fcff <__kr4_psram_text_start__+0x9fa8fcdf>
    30f2:	8f75                	c.and	a4,a3
    30f4:	c398                	c.sw	a4,0(a5)
    30f6:	20001737          	lui	a4,0x20001
    30fa:	8c874583          	lbu	a1,-1848(a4) # 200008c8 <flash_init_para+0x64>
    30fe:	1187a683          	lw	a3,280(a5)
    3102:	000f0637          	lui	a2,0xf0
    3106:	01059713          	slli	a4,a1,0x10
    310a:	8f71                	c.and	a4,a2
    310c:	fff10637          	lui	a2,0xfff10
    3110:	167d                	c.addi	a2,-1
    3112:	8ef1                	c.and	a3,a2
    3114:	8f55                	c.or	a4,a3
    3116:	10e7ac23          	sw	a4,280(a5)
    311a:	00849713          	slli	a4,s1,0x8
    311e:	0007a223          	sw	zero,4(a5)
    3122:	8321                	c.srli	a4,0x8
    3124:	12e7a823          	sw	a4,304(a5)
    3128:	4709                	c.li	a4,2
    312a:	06e78023          	sb	a4,96(a5)
    312e:	4711                	c.li	a4,4
    3130:	00e59663          	bne	a1,a4,313c <FLASH_TxData+0x92>
    3134:	01845713          	srli	a4,s0,0x18
    3138:	06e78023          	sb	a4,96(a5)
    313c:	01045713          	srli	a4,s0,0x10
    3140:	4100a7b7          	lui	a5,0x4100a
    3144:	0ff77713          	andi	a4,a4,255
    3148:	06e78023          	sb	a4,96(a5) # 4100a060 <__retention_entry_func__+0x1ffea060>
    314c:	00845713          	srli	a4,s0,0x8
    3150:	0ff77713          	andi	a4,a4,255
    3154:	06e78023          	sb	a4,96(a5)
    3158:	0ff47413          	andi	s0,s0,255
    315c:	06878023          	sb	s0,96(a5)
    3160:	4100a6b7          	lui	a3,0x4100a
    3164:	4781                	c.li	a5,0
    3166:	00978563          	beq	a5,s1,3170 <FLASH_TxData+0xc6>
    316a:	5698                	c.lw	a4,40(a3)
    316c:	8b09                	c.andi	a4,2
    316e:	e71d                	c.bnez	a4,319c <FLASH_TxData+0xf2>
    3170:	4685                	c.li	a3,1
    3172:	4100a737          	lui	a4,0x4100a
    3176:	c714                	c.sw	a3,8(a4)
    3178:	4100a6b7          	lui	a3,0x4100a
    317c:	0297e863          	bltu	a5,s1,31ac <FLASH_TxData+0x102>
    3180:	4511                	c.li	a0,4
    3182:	39e9                	c.jal	2e5c <FLASH_WaitBusy>
    3184:	4100a7b7          	lui	a5,0x4100a
    3188:	4462                	c.lwsp	s0,24(sp)
    318a:	40f2                	c.lwsp	ra,28(sp)
    318c:	44d2                	c.lwsp	s1,20(sp)
    318e:	4942                	c.lwsp	s2,16(sp)
    3190:	0137a023          	sw	s3,0(a5) # 4100a000 <__retention_entry_func__+0x1ffea000>
    3194:	49b2                	c.lwsp	s3,12(sp)
    3196:	4505                	c.li	a0,1
    3198:	6105                	c.addi16sp	sp,32
    319a:	b1c9                	c.j	2e5c <FLASH_WaitBusy>
    319c:	00f90733          	add	a4,s2,a5
    31a0:	00074703          	lbu	a4,0(a4) # 4100a000 <__retention_entry_func__+0x1ffea000>
    31a4:	0785                	c.addi	a5,1
    31a6:	06e68023          	sb	a4,96(a3) # 4100a060 <__retention_entry_func__+0x1ffea060>
    31aa:	bf75                	c.j	3166 <FLASH_TxData+0xbc>
    31ac:	5698                	c.lw	a4,40(a3)
    31ae:	8b09                	c.andi	a4,2
    31b0:	d771                	c.beqz	a4,317c <FLASH_TxData+0xd2>
    31b2:	00f90733          	add	a4,s2,a5
    31b6:	00074703          	lbu	a4,0(a4)
    31ba:	0785                	c.addi	a5,1
    31bc:	06e68023          	sb	a4,96(a3)
    31c0:	bf75                	c.j	317c <FLASH_TxData+0xd2>

000031c2 <FLASH_SetStatus>:
    31c2:	1101                	c.addi	sp,-32
    31c4:	ce06                	c.swsp	ra,28(sp)
    31c6:	cc22                	c.swsp	s0,24(sp)
    31c8:	c62a                	c.swsp	a0,12(sp)
    31ca:	842e                	c.mv	s0,a1
    31cc:	c432                	c.swsp	a2,8(sp)
    31ce:	3d7d                	c.jal	308c <FLASH_WriteEn>
    31d0:	4532                	c.lwsp	a0,12(sp)
    31d2:	4622                	c.lwsp	a2,8(sp)
    31d4:	0ff47593          	andi	a1,s0,255
    31d8:	352d                	c.jal	3002 <FLASH_TxCmd>
    31da:	4462                	c.lwsp	s0,24(sp)
    31dc:	40f2                	c.lwsp	ra,28(sp)
    31de:	4505                	c.li	a0,1
    31e0:	6105                	c.addi16sp	sp,32
    31e2:	b9ad                	c.j	2e5c <FLASH_WaitBusy>

000031e4 <FLASH_Erase>:
    31e4:	7179                	c.addi16sp	sp,-48
    31e6:	d422                	c.swsp	s0,40(sp)
    31e8:	d04a                	c.swsp	s2,32(sp)
    31ea:	d606                	c.swsp	ra,44(sp)
    31ec:	d226                	c.swsp	s1,36(sp)
    31ee:	4789                	c.li	a5,2
    31f0:	892a                	c.mv	s2,a0
    31f2:	842e                	c.mv	s0,a1
    31f4:	00a7fa63          	bgeu	a5,a0,3208 <FLASH_Erase+0x24>
    31f8:	0002e537          	lui	a0,0x2e
    31fc:	22700593          	addi	a1,zero,551
    3200:	86450513          	addi	a0,a0,-1948 # 2d864 <__FUNCTION__.0>
    3204:	e12fd0ef          	jal	ra,816 <io_assert_failed>
    3208:	200014b7          	lui	s1,0x20001
    320c:	86448793          	addi	a5,s1,-1948 # 20000864 <flash_init_para>
    3210:	0647c583          	lbu	a1,100(a5)
    3214:	00845713          	srli	a4,s0,0x8
    3218:	01045793          	srli	a5,s0,0x10
    321c:	4611                	c.li	a2,4
    321e:	0ff7f793          	andi	a5,a5,255
    3222:	0ff77713          	andi	a4,a4,255
    3226:	0ff47693          	andi	a3,s0,255
    322a:	86448493          	addi	s1,s1,-1948
    322e:	04c59263          	bne	a1,a2,3272 <FLASH_Erase+0x8e>
    3232:	01845713          	srli	a4,s0,0x18
    3236:	00f10ea3          	sb	a5,29(sp)
    323a:	00841793          	slli	a5,s0,0x8
    323e:	0442                	c.slli	s0,0x10
    3240:	8041                	c.srli	s0,0x10
    3242:	8021                	c.srli	s0,0x8
    3244:	8c5d                	c.or	s0,a5
    3246:	00e10e23          	sb	a4,28(sp)
    324a:	00811f23          	sh	s0,30(sp)
    324e:	c62e                	c.swsp	a1,12(sp)
    3250:	3d35                	c.jal	308c <FLASH_WriteEn>
    3252:	45b2                	c.lwsp	a1,12(sp)
    3254:	02091763          	bne	s2,zero,3282 <FLASH_Erase+0x9e>
    3258:	0564c503          	lbu	a0,86(s1)
    325c:	4601                	c.li	a2,0
    325e:	4581                	c.li	a1,0
    3260:	334d                	c.jal	3002 <FLASH_TxCmd>
    3262:	4505                	c.li	a0,1
    3264:	3ee5                	c.jal	2e5c <FLASH_WaitBusy>
    3266:	50b2                	c.lwsp	ra,44(sp)
    3268:	5422                	c.lwsp	s0,40(sp)
    326a:	5492                	c.lwsp	s1,36(sp)
    326c:	5902                	c.lwsp	s2,32(sp)
    326e:	6145                	c.addi16sp	sp,48
    3270:	8082                	c.jr	ra
    3272:	00f10e23          	sb	a5,28(sp)
    3276:	00e10ea3          	sb	a4,29(sp)
    327a:	00d10f23          	sb	a3,30(sp)
    327e:	458d                	c.li	a1,3
    3280:	b7f9                	c.j	324e <FLASH_Erase+0x6a>
    3282:	4785                	c.li	a5,1
    3284:	00f91663          	bne	s2,a5,3290 <FLASH_Erase+0xac>
    3288:	0574c503          	lbu	a0,87(s1)
    328c:	0870                	c.addi4spn	a2,sp,28
    328e:	bfc9                	c.j	3260 <FLASH_Erase+0x7c>
    3290:	4789                	c.li	a5,2
    3292:	fcf918e3          	bne	s2,a5,3262 <FLASH_Erase+0x7e>
    3296:	0584c503          	lbu	a0,88(s1)
    329a:	0870                	c.addi4spn	a2,sp,28
    329c:	b7d1                	c.j	3260 <FLASH_Erase+0x7c>

0000329e <FLASH_DeepPowerDown>:
    329e:	1141                	c.addi	sp,-16
    32a0:	c606                	c.swsp	ra,12(sp)
    32a2:	4785                	c.li	a5,1
    32a4:	02f51163          	bne	a0,a5,32c6 <FLASH_DeepPowerDown+0x28>
    32a8:	131030ef          	jal	ra,6bd8 <SYSCFG_OTP_FlashDSleepEn>
    32ac:	cd05                	c.beqz	a0,32e4 <FLASH_DeepPowerDown+0x46>
    32ae:	3bf9                	c.jal	308c <FLASH_WriteEn>
    32b0:	200017b7          	lui	a5,0x20001
    32b4:	8be7c503          	lbu	a0,-1858(a5) # 200008be <flash_init_para+0x5a>
    32b8:	4601                	c.li	a2,0
    32ba:	4581                	c.li	a1,0
    32bc:	3399                	c.jal	3002 <FLASH_TxCmd>
    32be:	40b2                	c.lwsp	ra,12(sp)
    32c0:	4501                	c.li	a0,0
    32c2:	0141                	c.addi	sp,16
    32c4:	b125                	c.j	2eec <FLASH_UserModeEn>
    32c6:	200017b7          	lui	a5,0x20001
    32ca:	8bd7c503          	lbu	a0,-1859(a5) # 200008bd <flash_init_para+0x59>
    32ce:	4601                	c.li	a2,0
    32d0:	4581                	c.li	a1,0
    32d2:	3b05                	c.jal	3002 <FLASH_TxCmd>
    32d4:	06400513          	addi	a0,zero,100
    32d8:	fe3fe0ef          	jal	ra,22ba <DelayUs>
    32dc:	40b2                	c.lwsp	ra,12(sp)
    32de:	4505                	c.li	a0,1
    32e0:	0141                	c.addi	sp,16
    32e2:	bead                	c.j	2e5c <FLASH_WaitBusy>
    32e4:	40b2                	c.lwsp	ra,12(sp)
    32e6:	0141                	c.addi	sp,16
    32e8:	8082                	c.jr	ra

000032ea <FLASH_WaitBusy_Timeout>:
    32ea:	7179                	c.addi16sp	sp,-48
    32ec:	d422                	c.swsp	s0,40(sp)
    32ee:	ce4e                	c.swsp	s3,28(sp)
    32f0:	20001437          	lui	s0,0x20001
    32f4:	001319b7          	lui	s3,0x131
    32f8:	d226                	c.swsp	s1,36(sp)
    32fa:	d04a                	c.swsp	s2,32(sp)
    32fc:	cc52                	c.swsp	s4,24(sp)
    32fe:	ca56                	c.swsp	s5,20(sp)
    3300:	d606                	c.swsp	ra,44(sp)
    3302:	892a                	c.mv	s2,a0
    3304:	000107a3          	sb	zero,15(sp)
    3308:	4481                	c.li	s1,0
    330a:	4781                	c.li	a5,0
    330c:	4a05                	c.li	s4,1
    330e:	2d198993          	addi	s3,s3,721 # 1312d1 <secp192k1_a+0x1020c5>
    3312:	4a8d                	c.li	s5,3
    3314:	86440413          	addi	s0,s0,-1948 # 20000864 <flash_init_para>
    3318:	03491963          	bne	s2,s4,334a <FLASH_WaitBusy_Timeout+0x60>
    331c:	05244503          	lbu	a0,82(s0)
    3320:	00f10613          	addi	a2,sp,15
    3324:	4585                	c.li	a1,1
    3326:	3c69                	c.jal	2dc0 <FLASH_RxCmd>
    3328:	00f14783          	lbu	a5,15(sp)
    332c:	4818                	c.lw	a4,16(s0)
    332e:	0485                	c.addi	s1,1
    3330:	8ff9                	c.and	a5,a4
    3332:	c399                	c.beqz	a5,3338 <FLASH_WaitBusy_Timeout+0x4e>
    3334:	ff3492e3          	bne	s1,s3,3318 <FLASH_WaitBusy_Timeout+0x2e>
    3338:	50b2                	c.lwsp	ra,44(sp)
    333a:	5422                	c.lwsp	s0,40(sp)
    333c:	5492                	c.lwsp	s1,36(sp)
    333e:	5902                	c.lwsp	s2,32(sp)
    3340:	49f2                	c.lwsp	s3,28(sp)
    3342:	4a62                	c.lwsp	s4,24(sp)
    3344:	4ad2                	c.lwsp	s5,20(sp)
    3346:	6145                	c.addi16sp	sp,48
    3348:	8082                	c.jr	ra
    334a:	03591463          	bne	s2,s5,3372 <FLASH_WaitBusy_Timeout+0x88>
    334e:	05244503          	lbu	a0,82(s0)
    3352:	00f10613          	addi	a2,sp,15
    3356:	4585                	c.li	a1,1
    3358:	34a5                	c.jal	2dc0 <FLASH_RxCmd>
    335a:	00f14703          	lbu	a4,15(sp)
    335e:	4854                	c.lw	a3,20(s0)
    3360:	0485                	c.addi	s1,1
    3362:	4785                	c.li	a5,1
    3364:	8ef9                	c.and	a3,a4
    3366:	d6f1                	c.beqz	a3,3332 <FLASH_WaitBusy_Timeout+0x48>
    3368:	481c                	c.lw	a5,16(s0)
    336a:	8ff9                	c.and	a5,a4
    336c:	00f037b3          	sltu	a5,zero,a5
    3370:	b7c9                	c.j	3332 <FLASH_WaitBusy_Timeout+0x48>
    3372:	f3dd                	c.bnez	a5,3318 <FLASH_WaitBusy_Timeout+0x2e>
    3374:	b7d1                	c.j	3338 <FLASH_WaitBusy_Timeout+0x4e>

00003376 <FLASH_WriteEn_Timeout>:
    3376:	1141                	c.addi	sp,-16
    3378:	4505                	c.li	a0,1
    337a:	c606                	c.swsp	ra,12(sp)
    337c:	37bd                	c.jal	32ea <FLASH_WaitBusy_Timeout>
    337e:	200017b7          	lui	a5,0x20001
    3382:	8b47c503          	lbu	a0,-1868(a5) # 200008b4 <flash_init_para+0x50>
    3386:	4601                	c.li	a2,0
    3388:	4581                	c.li	a1,0
    338a:	39a5                	c.jal	3002 <FLASH_TxCmd>
    338c:	40b2                	c.lwsp	ra,12(sp)
    338e:	450d                	c.li	a0,3
    3390:	0141                	c.addi	sp,16
    3392:	bfa1                	c.j	32ea <FLASH_WaitBusy_Timeout>

00003394 <FLASH_SetStatusBits>:
    3394:	7179                	c.addi16sp	sp,-48
    3396:	d226                	c.swsp	s1,36(sp)
    3398:	200014b7          	lui	s1,0x20001
    339c:	86448793          	addi	a5,s1,-1948 # 20000864 <flash_init_para>
    33a0:	d422                	c.swsp	s0,40(sp)
    33a2:	ce4e                	c.swsp	s3,28(sp)
    33a4:	d606                	c.swsp	ra,44(sp)
    33a6:	d04a                	c.swsp	s2,32(sp)
    33a8:	842a                	c.mv	s0,a0
    33aa:	0527c503          	lbu	a0,82(a5)
    33ae:	89ae                	c.mv	s3,a1
    33b0:	0070                	c.addi4spn	a2,sp,12
    33b2:	4585                	c.li	a1,1
    33b4:	3431                	c.jal	2dc0 <FLASH_RxCmd>
    33b6:	4785                	c.li	a5,1
    33b8:	00c14703          	lbu	a4,12(sp)
    33bc:	86448493          	addi	s1,s1,-1948
    33c0:	04f99c63          	bne	s3,a5,3418 <FLASH_SetStatusBits+0x84>
    33c4:	00e467b3          	or	a5,s0,a4
    33c8:	0ff7f793          	andi	a5,a5,255
    33cc:	00f10623          	sb	a5,12(sp)
    33d0:	4c9c                	c.lw	a5,24(s1)
    33d2:	4905                	c.li	s2,1
    33d4:	c385                	c.beqz	a5,33f4 <FLASH_SetStatusBits+0x60>
    33d6:	0534c503          	lbu	a0,83(s1)
    33da:	00d10613          	addi	a2,sp,13
    33de:	4585                	c.li	a1,1
    33e0:	32c5                	c.jal	2dc0 <FLASH_RxCmd>
    33e2:	00d14503          	lbu	a0,13(sp)
    33e6:	8021                	c.srli	s0,0x8
    33e8:	03299c63          	bne	s3,s2,3420 <FLASH_SetStatusBits+0x8c>
    33ec:	8c49                	c.or	s0,a0
    33ee:	008106a3          	sb	s0,13(sp)
    33f2:	4909                	c.li	s2,2
    33f4:	0554c783          	lbu	a5,85(s1)
    33f8:	eb85                	c.bnez	a5,3428 <FLASH_SetStatusBits+0x94>
    33fa:	3949                	c.jal	308c <FLASH_WriteEn>
    33fc:	0544c503          	lbu	a0,84(s1)
    3400:	0070                	c.addi4spn	a2,sp,12
    3402:	85ca                	c.mv	a1,s2
    3404:	3efd                	c.jal	3002 <FLASH_TxCmd>
    3406:	4505                	c.li	a0,1
    3408:	3c91                	c.jal	2e5c <FLASH_WaitBusy>
    340a:	50b2                	c.lwsp	ra,44(sp)
    340c:	5422                	c.lwsp	s0,40(sp)
    340e:	5492                	c.lwsp	s1,36(sp)
    3410:	5902                	c.lwsp	s2,32(sp)
    3412:	49f2                	c.lwsp	s3,28(sp)
    3414:	6145                	c.addi16sp	sp,48
    3416:	8082                	c.jr	ra
    3418:	fff44793          	xori	a5,s0,-1
    341c:	8ff9                	c.and	a5,a4
    341e:	b76d                	c.j	33c8 <FLASH_SetStatusBits+0x34>
    3420:	fff44413          	xori	s0,s0,-1
    3424:	8c69                	c.and	s0,a0
    3426:	b7e1                	c.j	33ee <FLASH_SetStatusBits+0x5a>
    3428:	3195                	c.jal	308c <FLASH_WriteEn>
    342a:	0544c503          	lbu	a0,84(s1)
    342e:	0070                	c.addi4spn	a2,sp,12
    3430:	4585                	c.li	a1,1
    3432:	3ec1                	c.jal	3002 <FLASH_TxCmd>
    3434:	4505                	c.li	a0,1
    3436:	341d                	c.jal	2e5c <FLASH_WaitBusy>
    3438:	3991                	c.jal	308c <FLASH_WriteEn>
    343a:	0554c503          	lbu	a0,85(s1)
    343e:	00d10613          	addi	a2,sp,13
    3442:	4585                	c.li	a1,1
    3444:	b7c1                	c.j	3404 <FLASH_SetStatusBits+0x70>

00003446 <FLASH_StructInit_Micron>:
    3446:	50000793          	addi	a5,zero,1280
    344a:	04f51f23          	sh	a5,94(a0)
    344e:	000917b7          	lui	a5,0x91
    3452:	90578793          	addi	a5,a5,-1787 # 90905 <secp192k1_a+0x616f9>
    3456:	d13c                	c.sw	a5,96(a0)
    3458:	03b00793          	addi	a5,zero,59
    345c:	468d                	c.li	a3,3
    345e:	cd5c                	c.sw	a5,28(a0)
    3460:	0bb00793          	addi	a5,zero,187
    3464:	c114                	c.sw	a3,0(a0)
    3466:	06d51223          	sh	a3,100(a0)
    346a:	d11c                	c.sw	a5,32(a0)
    346c:	06b00693          	addi	a3,zero,107
    3470:	c57c                	c.sw	a5,76(a0)
    3472:	0005a7b7          	lui	a5,0x5a
    3476:	4705                	c.li	a4,1
    3478:	f0678793          	addi	a5,a5,-250 # 59f06 <secp192k1_a+0x2acfa>
    347c:	d154                	c.sw	a3,36(a0)
    347e:	0eb00693          	addi	a3,zero,235
    3482:	00e502a3          	sb	a4,5(a0)
    3486:	c918                	c.sw	a4,16(a0)
    3488:	d514                	c.sw	a3,40(a0)
    348a:	4709                	c.li	a4,2
    348c:	0a200693          	addi	a3,zero,162
    3490:	c93c                	c.sw	a5,80(a0)
    3492:	d8c707b7          	lui	a5,0xd8c70
    3496:	0785                	c.addi	a5,1
    3498:	c958                	c.sw	a4,20(a0)
    349a:	d554                	c.sw	a3,44(a0)
    349c:	dd58                	c.sw	a4,60(a0)
    349e:	0d200693          	addi	a3,zero,210
    34a2:	4711                	c.li	a4,4
    34a4:	d914                	c.sw	a3,48(a0)
    34a6:	c138                	c.sw	a4,64(a0)
    34a8:	03200693          	addi	a3,zero,50
    34ac:	4721                	c.li	a4,8
    34ae:	c97c                	c.sw	a5,84(a0)
    34b0:	00b9b7b7          	lui	a5,0xb9b
    34b4:	d954                	c.sw	a3,52(a0)
    34b6:	c178                	c.sw	a4,68(a0)
    34b8:	46c9                	c.li	a3,18
    34ba:	4741                	c.li	a4,16
    34bc:	b2078793          	addi	a5,a5,-1248 # b9ab20 <secp192k1_a+0xb6b914>
    34c0:	04050ea3          	sb	zero,93(a0)
    34c4:	00052623          	sw	zero,12(a0)
    34c8:	00052c23          	sw	zero,24(a0)
    34cc:	dd14                	c.sw	a3,56(a0)
    34ce:	c538                	c.sw	a4,72(a0)
    34d0:	cd3c                	c.sw	a5,88(a0)
    34d2:	8082                	c.jr	ra

000034d4 <FLASH_StructInit_MXIC>:
    34d4:	6705                	c.lui	a4,0x1
    34d6:	4785                	c.li	a5,1
    34d8:	80070713          	addi	a4,a4,-2048 # 800 <sys_irq_dispatch+0x32>
    34dc:	c11c                	c.sw	a5,0(a0)
    34de:	00f502a3          	sb	a5,5(a0)
    34e2:	04e51f23          	sh	a4,94(a0)
    34e6:	c91c                	c.sw	a5,16(a0)
    34e8:	00061737          	lui	a4,0x61
    34ec:	03b00793          	addi	a5,zero,59
    34f0:	80470713          	addi	a4,a4,-2044 # 60804 <secp192k1_a+0x315f8>
    34f4:	cd5c                	c.sw	a5,28(a0)
    34f6:	0bb00793          	addi	a5,zero,187
    34fa:	d138                	c.sw	a4,96(a0)
    34fc:	d11c                	c.sw	a5,32(a0)
    34fe:	470d                	c.li	a4,3
    3500:	c57c                	c.sw	a5,76(a0)
    3502:	0005a7b7          	lui	a5,0x5a
    3506:	f0678793          	addi	a5,a5,-250 # 59f06 <secp192k1_a+0x2acfa>
    350a:	06e51223          	sh	a4,100(a0)
    350e:	04000713          	addi	a4,zero,64
    3512:	c558                	c.sw	a4,12(a0)
    3514:	c93c                	c.sw	a5,80(a0)
    3516:	4709                	c.li	a4,2
    3518:	d86007b7          	lui	a5,0xd8600
    351c:	06b00693          	addi	a3,zero,107
    3520:	0785                	c.addi	a5,1
    3522:	c958                	c.sw	a4,20(a0)
    3524:	dd58                	c.sw	a4,60(a0)
    3526:	4711                	c.li	a4,4
    3528:	d154                	c.sw	a3,36(a0)
    352a:	c138                	c.sw	a4,64(a0)
    352c:	0eb00693          	addi	a3,zero,235
    3530:	4721                	c.li	a4,8
    3532:	c97c                	c.sw	a5,84(a0)
    3534:	00b9b7b7          	lui	a5,0xb9b
    3538:	d514                	c.sw	a3,40(a0)
    353a:	c178                	c.sw	a4,68(a0)
    353c:	03800693          	addi	a3,zero,56
    3540:	4741                	c.li	a4,16
    3542:	b2078793          	addi	a5,a5,-1248 # b9ab20 <secp192k1_a+0xb6b914>
    3546:	04050ea3          	sb	zero,93(a0)
    354a:	00052c23          	sw	zero,24(a0)
    354e:	02052623          	sw	zero,44(a0)
    3552:	02052823          	sw	zero,48(a0)
    3556:	02052a23          	sw	zero,52(a0)
    355a:	dd14                	c.sw	a3,56(a0)
    355c:	c538                	c.sw	a4,72(a0)
    355e:	cd3c                	c.sw	a5,88(a0)
    3560:	8082                	c.jr	ra

00003562 <FLASH_StructInit_GD>:
    3562:	4795                	c.li	a5,5
    3564:	6705                	c.lui	a4,0x1
    3566:	80070713          	addi	a4,a4,-2048 # 800 <sys_irq_dispatch+0x32>
    356a:	c11c                	c.sw	a5,0(a0)
    356c:	4785                	c.li	a5,1
    356e:	00f502a3          	sb	a5,5(a0)
    3572:	04e51f23          	sh	a4,94(a0)
    3576:	c91c                	c.sw	a5,16(a0)
    3578:	00061737          	lui	a4,0x61
    357c:	cd1c                	c.sw	a5,24(a0)
    357e:	03b00793          	addi	a5,zero,59
    3582:	80470713          	addi	a4,a4,-2044 # 60804 <secp192k1_a+0x315f8>
    3586:	cd5c                	c.sw	a5,28(a0)
    3588:	0bb00793          	addi	a5,zero,187
    358c:	d138                	c.sw	a4,96(a0)
    358e:	d11c                	c.sw	a5,32(a0)
    3590:	470d                	c.li	a4,3
    3592:	c57c                	c.sw	a5,76(a0)
    3594:	3505a7b7          	lui	a5,0x3505a
    3598:	f0678793          	addi	a5,a5,-250 # 35059f06 <__retention_entry_func__+0x14039f06>
    359c:	06e51223          	sh	a4,100(a0)
    35a0:	20000713          	addi	a4,zero,512
    35a4:	c558                	c.sw	a4,12(a0)
    35a6:	c93c                	c.sw	a5,80(a0)
    35a8:	4709                	c.li	a4,2
    35aa:	d86007b7          	lui	a5,0xd8600
    35ae:	06b00693          	addi	a3,zero,107
    35b2:	0785                	c.addi	a5,1
    35b4:	c958                	c.sw	a4,20(a0)
    35b6:	dd58                	c.sw	a4,60(a0)
    35b8:	4711                	c.li	a4,4
    35ba:	d154                	c.sw	a3,36(a0)
    35bc:	c138                	c.sw	a4,64(a0)
    35be:	0eb00693          	addi	a3,zero,235
    35c2:	4721                	c.li	a4,8
    35c4:	c97c                	c.sw	a5,84(a0)
    35c6:	00b9b7b7          	lui	a5,0xb9b
    35ca:	d514                	c.sw	a3,40(a0)
    35cc:	c178                	c.sw	a4,68(a0)
    35ce:	03200693          	addi	a3,zero,50
