
/home/zjian_zhang/Dplus_Z/project/realtek_amebaDplus_va0_example/GCC-RELEASE/project_km0/asdk/image/target_rom.axf:     file format elf32-littlearm


Disassembly of section .rom.text:

00000000 <__vectors_table>:
       0:	20001ffc 	.word	0x20001ffc
       4:	00000101 	.word	0x00000101
       8:	00000105 	.word	0x00000105
       c:	00000109 	.word	0x00000109
      10:	0000010d 	.word	0x0000010d
      14:	00000111 	.word	0x00000111
	...

00000100 <Reset_Handler>:
     100:	f000 b876 	b.w	1f0 <BOOT_ROM_ResetVsr>

00000104 <NMI_Handler>:
     104:	f003 be38 	b.w	3d78 <INT_NMI>

00000108 <HardFault_Handler>:
     108:	f003 be44 	b.w	3d94 <INT_HardFault>

0000010c <MemManage_Handler>:
     10c:	f003 be51 	b.w	3db2 <INT_MemManage>

00000110 <BusFault_Handler>:
     110:	f003 be5c 	b.w	3dcc <INT_BusFault>

00000114 <io_assert_failed>:
     114:	4b05      	ldr	r3, [pc, #20]	; (12c <io_assert_failed+0x18>)
     116:	000a      	movs	r2, r1
     118:	681b      	ldr	r3, [r3, #0]
     11a:	b510      	push	{r4, lr}
     11c:	039b      	lsls	r3, r3, #14
     11e:	d503      	bpl.n	128 <io_assert_failed+0x14>
     120:	0001      	movs	r1, r0
     122:	4803      	ldr	r0, [pc, #12]	; (130 <io_assert_failed+0x1c>)
     124:	f004 fb7e 	bl	4824 <DiagPrintf>
     128:	e7fe      	b.n	128 <io_assert_failed+0x14>
     12a:	bf00      	nop
     12c:	20000660 	.word	0x20000660
     130:	0000a0c0 	.word	0x0000a0c0

00000134 <BKUP_Write>:
     134:	b570      	push	{r4, r5, r6, lr}
     136:	0004      	movs	r4, r0
     138:	000d      	movs	r5, r1
     13a:	2803      	cmp	r0, #3
     13c:	d903      	bls.n	146 <BKUP_Write+0x12>
     13e:	211f      	movs	r1, #31
     140:	4803      	ldr	r0, [pc, #12]	; (150 <BKUP_Write+0x1c>)
     142:	f7ff ffe7 	bl	114 <io_assert_failed>
     146:	4b03      	ldr	r3, [pc, #12]	; (154 <BKUP_Write+0x20>)
     148:	00a4      	lsls	r4, r4, #2
     14a:	50e5      	str	r5, [r4, r3]
     14c:	bd70      	pop	{r4, r5, r6, pc}
     14e:	bf00      	nop
     150:	0000a0f6 	.word	0x0000a0f6
     154:	410080e0 	.word	0x410080e0

00000158 <BKUP_Read>:
     158:	b510      	push	{r4, lr}
     15a:	0004      	movs	r4, r0
     15c:	2803      	cmp	r0, #3
     15e:	d904      	bls.n	16a <BKUP_Read+0x12>
     160:	4804      	ldr	r0, [pc, #16]	; (174 <BKUP_Read+0x1c>)
     162:	212e      	movs	r1, #46	; 0x2e
     164:	300b      	adds	r0, #11
     166:	f7ff ffd5 	bl	114 <io_assert_failed>
     16a:	4b03      	ldr	r3, [pc, #12]	; (178 <BKUP_Read+0x20>)
     16c:	00a4      	lsls	r4, r4, #2
     16e:	58e0      	ldr	r0, [r4, r3]
     170:	bd10      	pop	{r4, pc}
     172:	bf00      	nop
     174:	0000a0f6 	.word	0x0000a0f6
     178:	410080e0 	.word	0x410080e0

0000017c <BKUP_Set>:
     17c:	b570      	push	{r4, r5, r6, lr}
     17e:	0004      	movs	r4, r0
     180:	000d      	movs	r5, r1
     182:	2803      	cmp	r0, #3
     184:	d904      	bls.n	190 <BKUP_Set+0x14>
     186:	4806      	ldr	r0, [pc, #24]	; (1a0 <BKUP_Set+0x24>)
     188:	213e      	movs	r1, #62	; 0x3e
     18a:	3015      	adds	r0, #21
     18c:	f7ff ffc2 	bl	114 <io_assert_failed>
     190:	4b04      	ldr	r3, [pc, #16]	; (1a4 <BKUP_Set+0x28>)
     192:	00a4      	lsls	r4, r4, #2
     194:	18e4      	adds	r4, r4, r3
     196:	6821      	ldr	r1, [r4, #0]
     198:	4329      	orrs	r1, r5
     19a:	6021      	str	r1, [r4, #0]
     19c:	bd70      	pop	{r4, r5, r6, pc}
     19e:	bf00      	nop
     1a0:	0000a0f6 	.word	0x0000a0f6
     1a4:	410080e0 	.word	0x410080e0

000001a8 <BKUP_Clear>:
     1a8:	b570      	push	{r4, r5, r6, lr}
     1aa:	0004      	movs	r4, r0
     1ac:	000d      	movs	r5, r1
     1ae:	2803      	cmp	r0, #3
     1b0:	d904      	bls.n	1bc <BKUP_Clear+0x14>
     1b2:	4806      	ldr	r0, [pc, #24]	; (1cc <BKUP_Clear+0x24>)
     1b4:	214e      	movs	r1, #78	; 0x4e
     1b6:	301e      	adds	r0, #30
     1b8:	f7ff ffac 	bl	114 <io_assert_failed>
     1bc:	4b04      	ldr	r3, [pc, #16]	; (1d0 <BKUP_Clear+0x28>)
     1be:	00a4      	lsls	r4, r4, #2
     1c0:	18e4      	adds	r4, r4, r3
     1c2:	6823      	ldr	r3, [r4, #0]
     1c4:	43ab      	bics	r3, r5
     1c6:	6023      	str	r3, [r4, #0]
     1c8:	bd70      	pop	{r4, r5, r6, pc}
     1ca:	bf00      	nop
     1cc:	0000a0f6 	.word	0x0000a0f6
     1d0:	410080e0 	.word	0x410080e0

000001d4 <BOOT_ROM_InitDebugFlg>:
     1d4:	b510      	push	{r4, lr}
     1d6:	4b04      	ldr	r3, [pc, #16]	; (1e8 <BOOT_ROM_InitDebugFlg+0x14>)
     1d8:	4798      	blx	r3
     1da:	b918      	cbnz	r0, 1e4 <BOOT_ROM_InitDebugFlg+0x10>
     1dc:	2201      	movs	r2, #1
     1de:	4b03      	ldr	r3, [pc, #12]	; (1ec <BOOT_ROM_InitDebugFlg+0x18>)
     1e0:	4252      	negs	r2, r2
     1e2:	601a      	str	r2, [r3, #0]
     1e4:	bd10      	pop	{r4, pc}
     1e6:	bf00      	nop
     1e8:	00002fc1 	.word	0x00002fc1
     1ec:	20000660 	.word	0x20000660

000001f0 <BOOT_ROM_ResetVsr>:
     1f0:	b510      	push	{r4, lr}
     1f2:	4c11      	ldr	r4, [pc, #68]	; (238 <BOOT_ROM_ResetVsr+0x48>)
     1f4:	6823      	ldr	r3, [r4, #0]
     1f6:	005b      	lsls	r3, r3, #1
     1f8:	d50b      	bpl.n	212 <BOOT_ROM_ResetVsr+0x22>
     1fa:	4810      	ldr	r0, [pc, #64]	; (23c <BOOT_ROM_ResetVsr+0x4c>)
     1fc:	7941      	ldrb	r1, [r0, #5]
     1fe:	7903      	ldrb	r3, [r0, #4]
     200:	7982      	ldrb	r2, [r0, #6]
     202:	0209      	lsls	r1, r1, #8
     204:	4319      	orrs	r1, r3
     206:	79c3      	ldrb	r3, [r0, #7]
     208:	0412      	lsls	r2, r2, #16
     20a:	4311      	orrs	r1, r2
     20c:	061b      	lsls	r3, r3, #24
     20e:	430b      	orrs	r3, r1
     210:	4798      	blx	r3
     212:	6823      	ldr	r3, [r4, #0]
     214:	2b00      	cmp	r3, #0
     216:	dafc      	bge.n	212 <BOOT_ROM_ResetVsr+0x22>
     218:	005b      	lsls	r3, r3, #1
     21a:	4808      	ldr	r0, [pc, #32]	; (23c <BOOT_ROM_ResetVsr+0x4c>)
     21c:	085b      	lsrs	r3, r3, #1
     21e:	6023      	str	r3, [r4, #0]
     220:	7d41      	ldrb	r1, [r0, #21]
     222:	7d03      	ldrb	r3, [r0, #20]
     224:	7d82      	ldrb	r2, [r0, #22]
     226:	0209      	lsls	r1, r1, #8
     228:	4319      	orrs	r1, r3
     22a:	7dc3      	ldrb	r3, [r0, #23]
     22c:	0412      	lsls	r2, r2, #16
     22e:	4311      	orrs	r1, r2
     230:	061b      	lsls	r3, r3, #24
     232:	430b      	orrs	r3, r1
     234:	4798      	blx	r3
     236:	bd10      	pop	{r4, pc}
     238:	4100826c 	.word	0x4100826c
     23c:	20004d20 	.word	0x20004d20

00000240 <EFUSE_GetPackageInfo>:
     240:	b513      	push	{r0, r1, r4, lr}
     242:	466b      	mov	r3, sp
     244:	1ddc      	adds	r4, r3, #7
     246:	0021      	movs	r1, r4
     248:	4b03      	ldr	r3, [pc, #12]	; (258 <EFUSE_GetPackageInfo+0x18>)
     24a:	f240 70ff 	movw	r0, #2047	; 0x7ff
     24e:	4798      	blx	r3
     250:	231f      	movs	r3, #31
     252:	7820      	ldrb	r0, [r4, #0]
     254:	4018      	ands	r0, r3
     256:	bd16      	pop	{r1, r2, r4, pc}
     258:	0000220d 	.word	0x0000220d

0000025c <EFUSE_GetBDNum>:
     25c:	b513      	push	{r0, r1, r4, lr}
     25e:	466b      	mov	r3, sp
     260:	1ddc      	adds	r4, r3, #7
     262:	0021      	movs	r1, r4
     264:	4b03      	ldr	r3, [pc, #12]	; (274 <EFUSE_GetBDNum+0x18>)
     266:	f240 70ff 	movw	r0, #2047	; 0x7ff
     26a:	4798      	blx	r3
     26c:	7820      	ldrb	r0, [r4, #0]
     26e:	0940      	lsrs	r0, r0, #5
     270:	bd16      	pop	{r1, r2, r4, pc}
     272:	bf00      	nop
     274:	0000220d 	.word	0x0000220d

00000278 <EFUSE_GetChipVersion>:
     278:	b513      	push	{r0, r1, r4, lr}
     27a:	466b      	mov	r3, sp
     27c:	1ddc      	adds	r4, r3, #7
     27e:	0021      	movs	r1, r4
     280:	4b03      	ldr	r3, [pc, #12]	; (290 <EFUSE_GetChipVersion+0x18>)
     282:	f240 70f0 	movw	r0, #2032	; 0x7f0
     286:	4798      	blx	r3
     288:	231f      	movs	r3, #31
     28a:	7820      	ldrb	r0, [r4, #0]
     28c:	4018      	ands	r0, r3
     28e:	bd16      	pop	{r1, r2, r4, pc}
     290:	0000220d 	.word	0x0000220d

00000294 <EFUSE_GetESFlag>:
     294:	b513      	push	{r0, r1, r4, lr}
     296:	466b      	mov	r3, sp
     298:	1ddc      	adds	r4, r3, #7
     29a:	0021      	movs	r1, r4
     29c:	4b03      	ldr	r3, [pc, #12]	; (2ac <EFUSE_GetESFlag+0x18>)
     29e:	f240 70f0 	movw	r0, #2032	; 0x7f0
     2a2:	4798      	blx	r3
     2a4:	7820      	ldrb	r0, [r4, #0]
     2a6:	0680      	lsls	r0, r0, #26
     2a8:	0fc0      	lsrs	r0, r0, #31
     2aa:	bd16      	pop	{r1, r2, r4, pc}
     2ac:	0000220d 	.word	0x0000220d

000002b0 <EFUSE_GetUUID>:
     2b0:	b573      	push	{r0, r1, r4, r5, r6, lr}
     2b2:	0005      	movs	r5, r0
     2b4:	2400      	movs	r4, #0
     2b6:	0021      	movs	r1, r4
     2b8:	f240 73f4 	movw	r3, #2036	; 0x7f4
     2bc:	4e0a      	ldr	r6, [pc, #40]	; (2e8 <EFUSE_GetUUID+0x38>)
     2be:	18e0      	adds	r0, r4, r3
     2c0:	4469      	add	r1, sp
     2c2:	3401      	adds	r4, #1
     2c4:	47b0      	blx	r6
     2c6:	2c04      	cmp	r4, #4
     2c8:	d1f5      	bne.n	2b6 <EFUSE_GetUUID+0x6>
     2ca:	2400      	movs	r4, #0
     2cc:	ab01      	add	r3, sp, #4
     2ce:	1919      	adds	r1, r3, r4
     2d0:	f240 73f8 	movw	r3, #2040	; 0x7f8
     2d4:	18e0      	adds	r0, r4, r3
     2d6:	3401      	adds	r4, #1
     2d8:	47b0      	blx	r6
     2da:	2c04      	cmp	r4, #4
     2dc:	d1f6      	bne.n	2cc <EFUSE_GetUUID+0x1c>
     2de:	9b00      	ldr	r3, [sp, #0]
     2e0:	602b      	str	r3, [r5, #0]
     2e2:	9b01      	ldr	r3, [sp, #4]
     2e4:	606b      	str	r3, [r5, #4]
     2e6:	bd73      	pop	{r0, r1, r4, r5, r6, pc}
     2e8:	0000220d 	.word	0x0000220d

000002ec <EFUSE_Get_Info>:
     2ec:	b573      	push	{r0, r1, r4, r5, r6, lr}
     2ee:	ad01      	add	r5, sp, #4
     2f0:	0004      	movs	r4, r0
     2f2:	0029      	movs	r1, r5
     2f4:	f240 70fc 	movw	r0, #2044	; 0x7fc
     2f8:	4e17      	ldr	r6, [pc, #92]	; (358 <EFUSE_Get_Info+0x6c>)
     2fa:	47b0      	blx	r6
     2fc:	466b      	mov	r3, sp
     2fe:	f240 70fd 	movw	r0, #2045	; 0x7fd
     302:	1d59      	adds	r1, r3, #5
     304:	47b0      	blx	r6
     306:	2c04      	cmp	r4, #4
     308:	d01f      	beq.n	34a <EFUSE_Get_Info+0x5e>
     30a:	d808      	bhi.n	31e <EFUSE_Get_Info+0x32>
     30c:	2c02      	cmp	r4, #2
     30e:	d016      	beq.n	33e <EFUSE_Get_Info+0x52>
     310:	2c03      	cmp	r4, #3
     312:	d017      	beq.n	344 <EFUSE_Get_Info+0x58>
     314:	b15c      	cbz	r4, 32e <EFUSE_Get_Info+0x42>
     316:	2c01      	cmp	r4, #1
     318:	d00d      	beq.n	336 <EFUSE_Get_Info+0x4a>
     31a:	2000      	movs	r0, #0
     31c:	bd76      	pop	{r1, r2, r4, r5, r6, pc}
     31e:	2c06      	cmp	r4, #6
     320:	d015      	beq.n	34e <EFUSE_Get_Info+0x62>
     322:	2c07      	cmp	r4, #7
     324:	d015      	beq.n	352 <EFUSE_Get_Info+0x66>
     326:	2c05      	cmp	r4, #5
     328:	d1f7      	bne.n	31a <EFUSE_Get_Info+0x2e>
     32a:	7868      	ldrb	r0, [r5, #1]
     32c:	e004      	b.n	338 <EFUSE_Get_Info+0x4c>
     32e:	7828      	ldrb	r0, [r5, #0]
     330:	2303      	movs	r3, #3
     332:	4018      	ands	r0, r3
     334:	e7f2      	b.n	31c <EFUSE_Get_Info+0x30>
     336:	7828      	ldrb	r0, [r5, #0]
     338:	0700      	lsls	r0, r0, #28
     33a:	0f80      	lsrs	r0, r0, #30
     33c:	e7ee      	b.n	31c <EFUSE_Get_Info+0x30>
     33e:	7828      	ldrb	r0, [r5, #0]
     340:	0680      	lsls	r0, r0, #26
     342:	e7fa      	b.n	33a <EFUSE_Get_Info+0x4e>
     344:	7828      	ldrb	r0, [r5, #0]
     346:	0980      	lsrs	r0, r0, #6
     348:	e7e8      	b.n	31c <EFUSE_Get_Info+0x30>
     34a:	7868      	ldrb	r0, [r5, #1]
     34c:	e7f0      	b.n	330 <EFUSE_Get_Info+0x44>
     34e:	7868      	ldrb	r0, [r5, #1]
     350:	e7f6      	b.n	340 <EFUSE_Get_Info+0x54>
     352:	7868      	ldrb	r0, [r5, #1]
     354:	e7f7      	b.n	346 <EFUSE_Get_Info+0x5a>
     356:	bf00      	nop
     358:	0000220d 	.word	0x0000220d

0000035c <XTAL_ClkGet>:
     35c:	220f      	movs	r2, #15
     35e:	4b03      	ldr	r3, [pc, #12]	; (36c <XTAL_ClkGet+0x10>)
     360:	681b      	ldr	r3, [r3, #0]
     362:	4013      	ands	r3, r2
     364:	4a02      	ldr	r2, [pc, #8]	; (370 <XTAL_ClkGet+0x14>)
     366:	009b      	lsls	r3, r3, #2
     368:	5898      	ldr	r0, [r3, r2]
     36a:	4770      	bx	lr
     36c:	4100821c 	.word	0x4100821c
     370:	0000a010 	.word	0x0000a010

00000374 <PLL_ClkGet>:
     374:	4b0c      	ldr	r3, [pc, #48]	; (3a8 <PLL_ClkGet+0x34>)
     376:	b570      	push	{r4, r5, r6, lr}
     378:	685e      	ldr	r6, [r3, #4]
     37a:	68dc      	ldr	r4, [r3, #12]
     37c:	68dd      	ldr	r5, [r3, #12]
     37e:	4b0b      	ldr	r3, [pc, #44]	; (3ac <PLL_ClkGet+0x38>)
     380:	4798      	blx	r3
     382:	0003      	movs	r3, r0
     384:	0576      	lsls	r6, r6, #21
     386:	036d      	lsls	r5, r5, #13
     388:	0eb6      	lsrs	r6, r6, #26
     38a:	08da      	lsrs	r2, r3, #3
     38c:	0ce4      	lsrs	r4, r4, #19
     38e:	0f6d      	lsrs	r5, r5, #29
     390:	3602      	adds	r6, #2
     392:	0c00      	lsrs	r0, r0, #16
     394:	435e      	muls	r6, r3
     396:	4355      	muls	r5, r2
     398:	4360      	muls	r0, r4
     39a:	b29b      	uxth	r3, r3
     39c:	435c      	muls	r4, r3
     39e:	1940      	adds	r0, r0, r5
     3a0:	1980      	adds	r0, r0, r6
     3a2:	0c24      	lsrs	r4, r4, #16
     3a4:	1900      	adds	r0, r0, r4
     3a6:	bd70      	pop	{r4, r5, r6, pc}
     3a8:	41008440 	.word	0x41008440
     3ac:	0000035d 	.word	0x0000035d

000003b0 <_CPU_ClkSet>:
     3b0:	b570      	push	{r4, r5, r6, lr}
     3b2:	4b2a      	ldr	r3, [pc, #168]	; (45c <_CPU_ClkSet+0xac>)
     3b4:	0004      	movs	r4, r0
     3b6:	4798      	blx	r3
     3b8:	4b29      	ldr	r3, [pc, #164]	; (460 <_CPU_ClkSet+0xb0>)
     3ba:	0005      	movs	r5, r0
     3bc:	4798      	blx	r3
     3be:	2203      	movs	r2, #3
     3c0:	4b28      	ldr	r3, [pc, #160]	; (464 <_CPU_ClkSet+0xb4>)
     3c2:	4929      	ldr	r1, [pc, #164]	; (468 <_CPU_ClkSet+0xb8>)
     3c4:	681e      	ldr	r6, [r3, #0]
     3c6:	680b      	ldr	r3, [r1, #0]
     3c8:	09b6      	lsrs	r6, r6, #6
     3ca:	4016      	ands	r6, r2
     3cc:	2e01      	cmp	r6, #1
     3ce:	d125      	bne.n	41c <_CPU_ClkSet+0x6c>
     3d0:	3201      	adds	r2, #1
     3d2:	42a0      	cmp	r0, r4
     3d4:	d025      	beq.n	422 <_CPU_ClkSet+0x72>
     3d6:	fbb5 f2f4 	udiv	r2, r5, r4
     3da:	0023      	movs	r3, r4
     3dc:	4353      	muls	r3, r2
     3de:	429d      	cmp	r5, r3
     3e0:	d105      	bne.n	3ee <_CPU_ClkSet+0x3e>
     3e2:	3a01      	subs	r2, #1
     3e4:	2607      	movs	r6, #7
     3e6:	0010      	movs	r0, r2
     3e8:	4030      	ands	r0, r6
     3ea:	4290      	cmp	r0, r2
     3ec:	d009      	beq.n	402 <_CPU_ClkSet+0x52>
     3ee:	4b1f      	ldr	r3, [pc, #124]	; (46c <_CPU_ClkSet+0xbc>)
     3f0:	681b      	ldr	r3, [r3, #0]
     3f2:	039b      	lsls	r3, r3, #14
     3f4:	d504      	bpl.n	400 <_CPU_ClkSet+0x50>
     3f6:	002a      	movs	r2, r5
     3f8:	0021      	movs	r1, r4
     3fa:	481d      	ldr	r0, [pc, #116]	; (470 <_CPU_ClkSet+0xc0>)
     3fc:	f004 fa12 	bl	4824 <DiagPrintf>
     400:	bd70      	pop	{r4, r5, r6, pc}
     402:	4a1c      	ldr	r2, [pc, #112]	; (474 <_CPU_ClkSet+0xc4>)
     404:	6813      	ldr	r3, [r2, #0]
     406:	43b3      	bics	r3, r6
     408:	4303      	orrs	r3, r0
     40a:	6013      	str	r3, [r2, #0]
     40c:	2304      	movs	r3, #4
     40e:	680a      	ldr	r2, [r1, #0]
     410:	4313      	orrs	r3, r2
     412:	600b      	str	r3, [r1, #0]
     414:	0020      	movs	r0, r4
     416:	4b18      	ldr	r3, [pc, #96]	; (478 <_CPU_ClkSet+0xc8>)
     418:	4798      	blx	r3
     41a:	e7f1      	b.n	400 <_CPU_ClkSet+0x50>
     41c:	4e17      	ldr	r6, [pc, #92]	; (47c <_CPU_ClkSet+0xcc>)
     41e:	42b4      	cmp	r4, r6
     420:	d101      	bne.n	426 <_CPU_ClkSet+0x76>
     422:	4393      	bics	r3, r2
     424:	e7f5      	b.n	412 <_CPU_ClkSet+0x62>
     426:	42a0      	cmp	r0, r4
     428:	d102      	bne.n	430 <_CPU_ClkSet+0x80>
     42a:	4393      	bics	r3, r2
     42c:	2201      	movs	r2, #1
     42e:	e7ef      	b.n	410 <_CPU_ClkSet+0x60>
     430:	fbb5 f0f4 	udiv	r0, r5, r4
     434:	0023      	movs	r3, r4
     436:	4343      	muls	r3, r0
     438:	429d      	cmp	r5, r3
     43a:	d1d8      	bne.n	3ee <_CPU_ClkSet+0x3e>
     43c:	260f      	movs	r6, #15
     43e:	3801      	subs	r0, #1
     440:	4006      	ands	r6, r0
     442:	4286      	cmp	r6, r0
     444:	d1d3      	bne.n	3ee <_CPU_ClkSet+0x3e>
     446:	25f0      	movs	r5, #240	; 0xf0
     448:	480a      	ldr	r0, [pc, #40]	; (474 <_CPU_ClkSet+0xc4>)
     44a:	0136      	lsls	r6, r6, #4
     44c:	6803      	ldr	r3, [r0, #0]
     44e:	43ab      	bics	r3, r5
     450:	4333      	orrs	r3, r6
     452:	6003      	str	r3, [r0, #0]
     454:	680b      	ldr	r3, [r1, #0]
     456:	431a      	orrs	r2, r3
     458:	600a      	str	r2, [r1, #0]
     45a:	e7db      	b.n	414 <_CPU_ClkSet+0x64>
     45c:	00000375 	.word	0x00000375
     460:	0000035d 	.word	0x0000035d
     464:	41008228 	.word	0x41008228
     468:	41008218 	.word	0x41008218
     46c:	20000660 	.word	0x20000660
     470:	0000a11f 	.word	0x0000a11f
     474:	41008220 	.word	0x41008220
     478:	000005cd 	.word	0x000005cd
     47c:	003d0900 	.word	0x003d0900

00000480 <CPU_ClkGet>:
     480:	b5f8      	push	{r3, r4, r5, r6, r7, lr}
     482:	2703      	movs	r7, #3
     484:	4b1b      	ldr	r3, [pc, #108]	; (4f4 <CPU_ClkGet+0x74>)
     486:	681d      	ldr	r5, [r3, #0]
     488:	4b1b      	ldr	r3, [pc, #108]	; (4f8 <CPU_ClkGet+0x78>)
     48a:	681c      	ldr	r4, [r3, #0]
     48c:	4b1b      	ldr	r3, [pc, #108]	; (4fc <CPU_ClkGet+0x7c>)
     48e:	09a4      	lsrs	r4, r4, #6
     490:	403c      	ands	r4, r7
     492:	4798      	blx	r3
     494:	2801      	cmp	r0, #1
     496:	d10c      	bne.n	4b2 <CPU_ClkGet+0x32>
     498:	4b19      	ldr	r3, [pc, #100]	; (500 <CPU_ClkGet+0x80>)
     49a:	481a      	ldr	r0, [pc, #104]	; (504 <CPU_ClkGet+0x84>)
     49c:	681b      	ldr	r3, [r3, #0]
     49e:	2c01      	cmp	r4, #1
     4a0:	d105      	bne.n	4ae <CPU_ClkGet+0x2e>
     4a2:	0c1b      	lsrs	r3, r3, #16
     4a4:	b2db      	uxtb	r3, r3
     4a6:	4358      	muls	r0, r3
     4a8:	b900      	cbnz	r0, 4ac <CPU_ClkGet+0x2c>
     4aa:	4817      	ldr	r0, [pc, #92]	; (508 <CPU_ClkGet+0x88>)
     4ac:	bdf8      	pop	{r3, r4, r5, r6, r7, pc}
     4ae:	0e1b      	lsrs	r3, r3, #24
     4b0:	e7f9      	b.n	4a6 <CPU_ClkGet+0x26>
     4b2:	4b16      	ldr	r3, [pc, #88]	; (50c <CPU_ClkGet+0x8c>)
     4b4:	4798      	blx	r3
     4b6:	4b16      	ldr	r3, [pc, #88]	; (510 <CPU_ClkGet+0x90>)
     4b8:	0006      	movs	r6, r0
     4ba:	4798      	blx	r3
     4bc:	4b15      	ldr	r3, [pc, #84]	; (514 <CPU_ClkGet+0x94>)
     4be:	681b      	ldr	r3, [r3, #0]
     4c0:	2c01      	cmp	r4, #1
     4c2:	d108      	bne.n	4d6 <CPU_ClkGet+0x56>
     4c4:	08ad      	lsrs	r5, r5, #2
     4c6:	4225      	tst	r5, r4
     4c8:	d0f0      	beq.n	4ac <CPU_ClkGet+0x2c>
     4ca:	2007      	movs	r0, #7
     4cc:	4003      	ands	r3, r0
     4ce:	3301      	adds	r3, #1
     4d0:	fbb6 f0f3 	udiv	r0, r6, r3
     4d4:	e7ea      	b.n	4ac <CPU_ClkGet+0x2c>
     4d6:	002a      	movs	r2, r5
     4d8:	403a      	ands	r2, r7
     4da:	423d      	tst	r5, r7
     4dc:	d007      	beq.n	4ee <CPU_ClkGet+0x6e>
     4de:	2a01      	cmp	r2, #1
     4e0:	d0e4      	beq.n	4ac <CPU_ClkGet+0x2c>
     4e2:	0618      	lsls	r0, r3, #24
     4e4:	0f00      	lsrs	r0, r0, #28
     4e6:	3001      	adds	r0, #1
     4e8:	fbb6 f0f0 	udiv	r0, r6, r0
     4ec:	e7de      	b.n	4ac <CPU_ClkGet+0x2c>
     4ee:	480a      	ldr	r0, [pc, #40]	; (518 <CPU_ClkGet+0x98>)
     4f0:	e7dc      	b.n	4ac <CPU_ClkGet+0x2c>
     4f2:	bf00      	nop
     4f4:	41008218 	.word	0x41008218
     4f8:	41008228 	.word	0x41008228
     4fc:	00002f41 	.word	0x00002f41
     500:	410082b4 	.word	0x410082b4
     504:	000f4240 	.word	0x000f4240
     508:	02625a00 	.word	0x02625a00
     50c:	00000375 	.word	0x00000375
     510:	0000035d 	.word	0x0000035d
     514:	41008220 	.word	0x41008220
     518:	003d0900 	.word	0x003d0900

0000051c <_CPU_ClkSrcSet>:
     51c:	4b0c      	ldr	r3, [pc, #48]	; (550 <_CPU_ClkSrcSet+0x34>)
     51e:	490d      	ldr	r1, [pc, #52]	; (554 <_CPU_ClkSrcSet+0x38>)
     520:	b570      	push	{r4, r5, r6, lr}
     522:	680a      	ldr	r2, [r1, #0]
     524:	681c      	ldr	r4, [r3, #0]
     526:	2303      	movs	r3, #3
     528:	09a4      	lsrs	r4, r4, #6
     52a:	0025      	movs	r5, r4
     52c:	401d      	ands	r5, r3
     52e:	421c      	tst	r4, r3
     530:	d108      	bne.n	544 <_CPU_ClkSrcSet+0x28>
     532:	439a      	bics	r2, r3
     534:	4018      	ands	r0, r3
     536:	4310      	orrs	r0, r2
     538:	6008      	str	r0, [r1, #0]
     53a:	4b07      	ldr	r3, [pc, #28]	; (558 <_CPU_ClkSrcSet+0x3c>)
     53c:	4798      	blx	r3
     53e:	4b07      	ldr	r3, [pc, #28]	; (55c <_CPU_ClkSrcSet+0x40>)
     540:	4798      	blx	r3
     542:	bd70      	pop	{r4, r5, r6, pc}
     544:	2d01      	cmp	r5, #1
     546:	d1f8      	bne.n	53a <_CPU_ClkSrcSet+0x1e>
     548:	2304      	movs	r3, #4
     54a:	0080      	lsls	r0, r0, #2
     54c:	439a      	bics	r2, r3
     54e:	e7f1      	b.n	534 <_CPU_ClkSrcSet+0x18>
     550:	41008228 	.word	0x41008228
     554:	41008218 	.word	0x41008218
     558:	00000481 	.word	0x00000481
     55c:	000005cd 	.word	0x000005cd

00000560 <DelayNop>:
     560:	3801      	subs	r0, #1
     562:	2800      	cmp	r0, #0
     564:	46c0      	nop			; (mov r8, r8)
     566:	d1fb      	bne.n	560 <DelayNop>
     568:	4770      	bx	lr

0000056a <DelayUs>:
     56a:	b57f      	push	{r0, r1, r2, r3, r4, r5, r6, lr}
     56c:	2206      	movs	r2, #6
     56e:	2403      	movs	r4, #3
     570:	4b0e      	ldr	r3, [pc, #56]	; (5ac <DelayUs+0x42>)
     572:	6819      	ldr	r1, [r3, #0]
     574:	9200      	str	r2, [sp, #0]
     576:	9201      	str	r2, [sp, #4]
     578:	4a0d      	ldr	r2, [pc, #52]	; (5b0 <DelayUs+0x46>)
     57a:	098b      	lsrs	r3, r1, #6
     57c:	6812      	ldr	r2, [r2, #0]
     57e:	4023      	ands	r3, r4
     580:	009b      	lsls	r3, r3, #2
     582:	b94a      	cbnz	r2, 598 <DelayUs+0x2e>
     584:	26c8      	movs	r6, #200	; 0xc8
     586:	3228      	adds	r2, #40	; 0x28
     588:	0a09      	lsrs	r1, r1, #8
     58a:	ad02      	add	r5, sp, #8
     58c:	9202      	str	r2, [sp, #8]
     58e:	9603      	str	r6, [sp, #12]
     590:	4021      	ands	r1, r4
     592:	2901      	cmp	r1, #1
     594:	d000      	beq.n	598 <DelayUs+0x2e>
     596:	58ea      	ldr	r2, [r5, r3]
     598:	4350      	muls	r0, r2
     59a:	466a      	mov	r2, sp
     59c:	58d3      	ldr	r3, [r2, r3]
     59e:	fbb0 f0f3 	udiv	r0, r0, r3
     5a2:	b108      	cbz	r0, 5a8 <DelayUs+0x3e>
     5a4:	4b03      	ldr	r3, [pc, #12]	; (5b4 <DelayUs+0x4a>)
     5a6:	4798      	blx	r3
     5a8:	bd7f      	pop	{r0, r1, r2, r3, r4, r5, r6, pc}
     5aa:	bf00      	nop
     5ac:	41008228 	.word	0x41008228
     5b0:	20000400 	.word	0x20000400
     5b4:	00000561 	.word	0x00000561

000005b8 <DelayMs>:
     5b8:	f240 33e8 	movw	r3, #1000	; 0x3e8
     5bc:	b510      	push	{r4, lr}
     5be:	4358      	muls	r0, r3
     5c0:	4b01      	ldr	r3, [pc, #4]	; (5c8 <DelayMs+0x10>)
     5c2:	4798      	blx	r3
     5c4:	bd10      	pop	{r4, pc}
     5c6:	bf00      	nop
     5c8:	0000056b 	.word	0x0000056b

000005cc <DelayClkUpdate>:
     5cc:	4b02      	ldr	r3, [pc, #8]	; (5d8 <DelayClkUpdate+0xc>)
     5ce:	fbb0 f0f3 	udiv	r0, r0, r3
     5d2:	4b02      	ldr	r3, [pc, #8]	; (5dc <DelayClkUpdate+0x10>)
     5d4:	6018      	str	r0, [r3, #0]
     5d6:	4770      	bx	lr
     5d8:	000f4240 	.word	0x000f4240
     5dc:	20000400 	.word	0x20000400

000005e0 <FLASH_Calibration_PLL_Open>:
     5e0:	b510      	push	{r4, lr}
     5e2:	4c08      	ldr	r4, [pc, #32]	; (604 <FLASH_Calibration_PLL_Open+0x24>)
     5e4:	4a08      	ldr	r2, [pc, #32]	; (608 <FLASH_Calibration_PLL_Open+0x28>)
     5e6:	6963      	ldr	r3, [r4, #20]
     5e8:	200a      	movs	r0, #10
     5ea:	4013      	ands	r3, r2
     5ec:	f244 0200 	movw	r2, #16384	; 0x4000
     5f0:	6163      	str	r3, [r4, #20]
     5f2:	4313      	orrs	r3, r2
     5f4:	6163      	str	r3, [r4, #20]
     5f6:	4b05      	ldr	r3, [pc, #20]	; (60c <FLASH_Calibration_PLL_Open+0x2c>)
     5f8:	4798      	blx	r3
     5fa:	2318      	movs	r3, #24
     5fc:	6962      	ldr	r2, [r4, #20]
     5fe:	4313      	orrs	r3, r2
     600:	6163      	str	r3, [r4, #20]
     602:	bd10      	pop	{r4, pc}
     604:	41008440 	.word	0x41008440
     608:	ffffbfff 	.word	0xffffbfff
     60c:	0000056b 	.word	0x0000056b

00000610 <FLASH_Calibration_PLL_Close>:
     610:	2108      	movs	r1, #8
     612:	4b04      	ldr	r3, [pc, #16]	; (624 <FLASH_Calibration_PLL_Close+0x14>)
     614:	695a      	ldr	r2, [r3, #20]
     616:	438a      	bics	r2, r1
     618:	615a      	str	r2, [r3, #20]
     61a:	695a      	ldr	r2, [r3, #20]
     61c:	4902      	ldr	r1, [pc, #8]	; (628 <FLASH_Calibration_PLL_Close+0x18>)
     61e:	400a      	ands	r2, r1
     620:	615a      	str	r2, [r3, #20]
     622:	4770      	bx	lr
     624:	41008440 	.word	0x41008440
     628:	ffffbfff 	.word	0xffffbfff

0000062c <FLASH_CalibrationPLLPSCmd>:
     62c:	4b05      	ldr	r3, [pc, #20]	; (644 <FLASH_CalibrationPLLPSCmd+0x18>)
     62e:	2210      	movs	r2, #16
     630:	6959      	ldr	r1, [r3, #20]
     632:	2801      	cmp	r0, #1
     634:	d102      	bne.n	63c <FLASH_CalibrationPLLPSCmd+0x10>
     636:	430a      	orrs	r2, r1
     638:	615a      	str	r2, [r3, #20]
     63a:	4770      	bx	lr
     63c:	4391      	bics	r1, r2
     63e:	6159      	str	r1, [r3, #20]
     640:	e7fb      	b.n	63a <FLASH_CalibrationPLLPSCmd+0xe>
     642:	bf00      	nop
     644:	41008440 	.word	0x41008440

00000648 <FLASH_CalibrationPLLPS_Shift>:
     648:	2107      	movs	r1, #7
     64a:	4a03      	ldr	r2, [pc, #12]	; (658 <FLASH_CalibrationPLLPS_Shift+0x10>)
     64c:	4008      	ands	r0, r1
     64e:	6953      	ldr	r3, [r2, #20]
     650:	438b      	bics	r3, r1
     652:	4318      	orrs	r0, r3
     654:	6150      	str	r0, [r2, #20]
     656:	4770      	bx	lr
     658:	41008440 	.word	0x41008440

0000065c <FLASH_PLLInit_ClockDiv>:
     65c:	2200      	movs	r2, #0
     65e:	b570      	push	{r4, r5, r6, lr}
     660:	4d16      	ldr	r5, [pc, #88]	; (6bc <FLASH_PLLInit_ClockDiv+0x60>)
     662:	f240 4100 	movw	r1, #1024	; 0x400
     666:	0004      	movs	r4, r0
     668:	4e15      	ldr	r6, [pc, #84]	; (6c0 <FLASH_PLLInit_ClockDiv+0x64>)
     66a:	0010      	movs	r0, r2
     66c:	47b0      	blx	r6
     66e:	4a15      	ldr	r2, [pc, #84]	; (6c4 <FLASH_PLLInit_ClockDiv+0x68>)
     670:	682b      	ldr	r3, [r5, #0]
     672:	0224      	lsls	r4, r4, #8
     674:	4013      	ands	r3, r2
     676:	602b      	str	r3, [r5, #0]
     678:	f7ff ffb2 	bl	5e0 <FLASH_Calibration_PLL_Open>
     67c:	2001      	movs	r0, #1
     67e:	4b12      	ldr	r3, [pc, #72]	; (6c8 <FLASH_PLLInit_ClockDiv+0x6c>)
     680:	4798      	blx	r3
     682:	682b      	ldr	r3, [r5, #0]
     684:	4811      	ldr	r0, [pc, #68]	; (6cc <FLASH_PLLInit_ClockDiv+0x70>)
     686:	4003      	ands	r3, r0
     688:	f640 7000 	movw	r0, #3840	; 0xf00
     68c:	4004      	ands	r4, r0
     68e:	431c      	orrs	r4, r3
     690:	f242 0300 	movw	r3, #8192	; 0x2000
     694:	602c      	str	r4, [r5, #0]
     696:	682a      	ldr	r2, [r5, #0]
     698:	4313      	orrs	r3, r2
     69a:	602b      	str	r3, [r5, #0]
     69c:	2201      	movs	r2, #1
     69e:	230a      	movs	r3, #10
     6a0:	6829      	ldr	r1, [r5, #0]
     6a2:	4211      	tst	r1, r2
     6a4:	d102      	bne.n	6ac <FLASH_PLLInit_ClockDiv+0x50>
     6a6:	3b01      	subs	r3, #1
     6a8:	2b00      	cmp	r3, #0
     6aa:	d1f9      	bne.n	6a0 <FLASH_PLLInit_ClockDiv+0x44>
     6ac:	2201      	movs	r2, #1
     6ae:	f240 4100 	movw	r1, #1024	; 0x400
     6b2:	2000      	movs	r0, #0
     6b4:	47b0      	blx	r6
     6b6:	2001      	movs	r0, #1
     6b8:	bd70      	pop	{r4, r5, r6, pc}
     6ba:	bf00      	nop
     6bc:	4100825c 	.word	0x4100825c
     6c0:	00002c1d 	.word	0x00002c1d
     6c4:	ffffdfff 	.word	0xffffdfff
     6c8:	00002d35 	.word	0x00002d35
     6cc:	fffff0ff 	.word	0xfffff0ff

000006d0 <FLASH_CalibrationPhase>:
     6d0:	2200      	movs	r2, #0
     6d2:	b5f8      	push	{r3, r4, r5, r6, r7, lr}
     6d4:	4d1c      	ldr	r5, [pc, #112]	; (748 <FLASH_CalibrationPhase+0x78>)
     6d6:	0004      	movs	r4, r0
     6d8:	000f      	movs	r7, r1
     6da:	0010      	movs	r0, r2
     6dc:	f240 4100 	movw	r1, #1024	; 0x400
     6e0:	4e1a      	ldr	r6, [pc, #104]	; (74c <FLASH_CalibrationPhase+0x7c>)
     6e2:	47b0      	blx	r6
     6e4:	682b      	ldr	r3, [r5, #0]
     6e6:	4a1a      	ldr	r2, [pc, #104]	; (750 <FLASH_CalibrationPhase+0x80>)
     6e8:	4013      	ands	r3, r2
     6ea:	602b      	str	r3, [r5, #0]
     6ec:	2203      	movs	r2, #3
     6ee:	230a      	movs	r3, #10
     6f0:	6829      	ldr	r1, [r5, #0]
     6f2:	4211      	tst	r1, r2
     6f4:	d002      	beq.n	6fc <FLASH_CalibrationPhase+0x2c>
     6f6:	3b01      	subs	r3, #1
     6f8:	2b00      	cmp	r3, #0
     6fa:	d1f9      	bne.n	6f0 <FLASH_CalibrationPhase+0x20>
     6fc:	2000      	movs	r0, #0
     6fe:	f7ff ff95 	bl	62c <FLASH_CalibrationPLLPSCmd>
     702:	0038      	movs	r0, r7
     704:	f7ff ffa0 	bl	648 <FLASH_CalibrationPLLPS_Shift>
     708:	237c      	movs	r3, #124	; 0x7c
     70a:	6828      	ldr	r0, [r5, #0]
     70c:	00a4      	lsls	r4, r4, #2
     70e:	4398      	bics	r0, r3
     710:	401c      	ands	r4, r3
     712:	4304      	orrs	r4, r0
     714:	602c      	str	r4, [r5, #0]
     716:	2001      	movs	r0, #1
     718:	f7ff ff88 	bl	62c <FLASH_CalibrationPLLPSCmd>
     71c:	f243 0300 	movw	r3, #12288	; 0x3000
     720:	682a      	ldr	r2, [r5, #0]
     722:	2103      	movs	r1, #3
     724:	4313      	orrs	r3, r2
     726:	602b      	str	r3, [r5, #0]
     728:	230a      	movs	r3, #10
     72a:	682a      	ldr	r2, [r5, #0]
     72c:	400a      	ands	r2, r1
     72e:	2a03      	cmp	r2, #3
     730:	d002      	beq.n	738 <FLASH_CalibrationPhase+0x68>
     732:	3b01      	subs	r3, #1
     734:	2b00      	cmp	r3, #0
     736:	d1f8      	bne.n	72a <FLASH_CalibrationPhase+0x5a>
     738:	2201      	movs	r2, #1
     73a:	f240 4100 	movw	r1, #1024	; 0x400
     73e:	2000      	movs	r0, #0
     740:	47b0      	blx	r6
     742:	2001      	movs	r0, #1
     744:	bdf8      	pop	{r3, r4, r5, r6, r7, pc}
     746:	bf00      	nop
     748:	4100825c 	.word	0x4100825c
     74c:	00002c1d 	.word	0x00002c1d
     750:	ffffcfff 	.word	0xffffcfff

00000754 <FLASH_CalibrationPhaseIdx>:
     754:	2107      	movs	r1, #7
     756:	b510      	push	{r4, lr}
     758:	4001      	ands	r1, r0
     75a:	08c0      	lsrs	r0, r0, #3
     75c:	f7ff ffb8 	bl	6d0 <FLASH_CalibrationPhase>
     760:	bd10      	pop	{r4, pc}

00000762 <FLASH_CalibrationNewCmd>:
     762:	b510      	push	{r4, lr}
     764:	0004      	movs	r4, r0
     766:	f7ff ff61 	bl	62c <FLASH_CalibrationPLLPSCmd>
     76a:	4a06      	ldr	r2, [pc, #24]	; (784 <FLASH_CalibrationNewCmd+0x22>)
     76c:	6813      	ldr	r3, [r2, #0]
     76e:	2c01      	cmp	r4, #1
     770:	d105      	bne.n	77e <FLASH_CalibrationNewCmd+0x1c>
     772:	f248 0100 	movw	r1, #32768	; 0x8000
     776:	430b      	orrs	r3, r1
     778:	2001      	movs	r0, #1
     77a:	6013      	str	r3, [r2, #0]
     77c:	bd10      	pop	{r4, pc}
     77e:	4902      	ldr	r1, [pc, #8]	; (788 <FLASH_CalibrationNewCmd+0x26>)
     780:	400b      	ands	r3, r1
     782:	e7f9      	b.n	778 <FLASH_CalibrationNewCmd+0x16>
     784:	4100825c 	.word	0x4100825c
     788:	ffff7fff 	.word	0xffff7fff

0000078c <FLASH_Read_HandShake_Cmd>:
     78c:	4b0e      	ldr	r3, [pc, #56]	; (7c8 <FLASH_Read_HandShake_Cmd+0x3c>)
     78e:	b510      	push	{r4, lr}
     790:	681a      	ldr	r2, [r3, #0]
     792:	4c0e      	ldr	r4, [pc, #56]	; (7cc <FLASH_Read_HandShake_Cmd+0x40>)
     794:	0440      	lsls	r0, r0, #17
     796:	4022      	ands	r2, r4
     798:	24f0      	movs	r4, #240	; 0xf0
     79a:	0364      	lsls	r4, r4, #13
     79c:	4020      	ands	r0, r4
     79e:	4310      	orrs	r0, r2
     7a0:	6018      	str	r0, [r3, #0]
     7a2:	4a0b      	ldr	r2, [pc, #44]	; (7d0 <FLASH_Read_HandShake_Cmd+0x44>)
     7a4:	b141      	cbz	r1, 7b8 <FLASH_Read_HandShake_Cmd+0x2c>
     7a6:	2180      	movs	r1, #128	; 0x80
     7a8:	6818      	ldr	r0, [r3, #0]
     7aa:	0249      	lsls	r1, r1, #9
     7ac:	4308      	orrs	r0, r1
     7ae:	6018      	str	r0, [r3, #0]
     7b0:	6953      	ldr	r3, [r2, #20]
     7b2:	4319      	orrs	r1, r3
     7b4:	6151      	str	r1, [r2, #20]
     7b6:	bd10      	pop	{r4, pc}
     7b8:	6819      	ldr	r1, [r3, #0]
     7ba:	4806      	ldr	r0, [pc, #24]	; (7d4 <FLASH_Read_HandShake_Cmd+0x48>)
     7bc:	4001      	ands	r1, r0
     7be:	6019      	str	r1, [r3, #0]
     7c0:	6953      	ldr	r3, [r2, #20]
     7c2:	4003      	ands	r3, r0
     7c4:	6153      	str	r3, [r2, #20]
     7c6:	e7f6      	b.n	7b6 <FLASH_Read_HandShake_Cmd+0x2a>
     7c8:	4100825c 	.word	0x4100825c
     7cc:	ffe1ffff 	.word	0xffe1ffff
     7d0:	401280fc 	.word	0x401280fc
     7d4:	fffeffff 	.word	0xfffeffff

000007d8 <FLASH_Read_DataIsRight>:
     7d8:	b573      	push	{r0, r1, r4, r5, r6, lr}
     7da:	4d1c      	ldr	r5, [pc, #112]	; (84c <FLASH_Read_DataIsRight+0x74>)
     7dc:	481c      	ldr	r0, [pc, #112]	; (850 <FLASH_Read_DataIsRight+0x78>)
     7de:	002c      	movs	r4, r5
     7e0:	6943      	ldr	r3, [r0, #20]
     7e2:	3c20      	subs	r4, #32
     7e4:	03db      	lsls	r3, r3, #15
     7e6:	d517      	bpl.n	818 <FLASH_Read_DataIsRight+0x40>
     7e8:	211f      	movs	r1, #31
     7ea:	0026      	movs	r6, r4
     7ec:	0023      	movs	r3, r4
     7ee:	2208      	movs	r2, #8
     7f0:	400e      	ands	r6, r1
     7f2:	420c      	tst	r4, r1
     7f4:	d002      	beq.n	7fc <FLASH_Read_DataIsRight+0x24>
     7f6:	0032      	movs	r2, r6
     7f8:	438b      	bics	r3, r1
     7fa:	3208      	adds	r2, #8
     7fc:	f3bf 8f4f 	dsb	sy
     800:	f240 265c 	movw	r6, #604	; 0x25c
     804:	18d2      	adds	r2, r2, r3
     806:	5183      	str	r3, [r0, r6]
     808:	3320      	adds	r3, #32
     80a:	1ad1      	subs	r1, r2, r3
     80c:	2900      	cmp	r1, #0
     80e:	dcfa      	bgt.n	806 <FLASH_Read_DataIsRight+0x2e>
     810:	f3bf 8f4f 	dsb	sy
     814:	f3bf 8f6f 	isb	sy
     818:	4b0e      	ldr	r3, [pc, #56]	; (854 <FLASH_Read_DataIsRight+0x7c>)
     81a:	3d1c      	subs	r5, #28
     81c:	4798      	blx	r3
     81e:	6821      	ldr	r1, [r4, #0]
     820:	682a      	ldr	r2, [r5, #0]
     822:	4b0d      	ldr	r3, [pc, #52]	; (858 <FLASH_Read_DataIsRight+0x80>)
     824:	9100      	str	r1, [sp, #0]
     826:	9201      	str	r2, [sp, #4]
     828:	79db      	ldrb	r3, [r3, #7]
     82a:	b133      	cbz	r3, 83a <FLASH_Read_DataIsRight+0x62>
     82c:	4b0b      	ldr	r3, [pc, #44]	; (85c <FLASH_Read_DataIsRight+0x84>)
     82e:	681b      	ldr	r3, [r3, #0]
     830:	039b      	lsls	r3, r3, #14
     832:	d502      	bpl.n	83a <FLASH_Read_DataIsRight+0x62>
     834:	480a      	ldr	r0, [pc, #40]	; (860 <FLASH_Read_DataIsRight+0x88>)
     836:	f003 fff5 	bl	4824 <DiagPrintf>
     83a:	4b0a      	ldr	r3, [pc, #40]	; (864 <FLASH_Read_DataIsRight+0x8c>)
     83c:	2208      	movs	r2, #8
     83e:	4668      	mov	r0, sp
     840:	4909      	ldr	r1, [pc, #36]	; (868 <FLASH_Read_DataIsRight+0x90>)
     842:	4798      	blx	r3
     844:	4243      	negs	r3, r0
     846:	4158      	adcs	r0, r3
     848:	bd76      	pop	{r1, r2, r4, r5, r6, pc}
     84a:	bf00      	nop
     84c:	0f800020 	.word	0x0f800020
     850:	e000ed00 	.word	0xe000ed00
     854:	00002169 	.word	0x00002169
     858:	20000404 	.word	0x20000404
     85c:	20000660 	.word	0x20000660
     860:	0000a149 	.word	0x0000a149
     864:	000053a9 	.word	0x000053a9
     868:	0000a050 	.word	0x0000a050

0000086c <FLASH_CalibrationNew>:
     86c:	b5f0      	push	{r4, r5, r6, r7, lr}
     86e:	0004      	movs	r4, r0
     870:	b089      	sub	sp, #36	; 0x24
     872:	9302      	str	r3, [sp, #8]
     874:	ab0e      	add	r3, sp, #56	; 0x38
     876:	781b      	ldrb	r3, [r3, #0]
     878:	4f43      	ldr	r7, [pc, #268]	; (988 <FLASH_CalibrationNew+0x11c>)
     87a:	9206      	str	r2, [sp, #24]
     87c:	9305      	str	r3, [sp, #20]
     87e:	000a      	movs	r2, r1
     880:	ab0f      	add	r3, sp, #60	; 0x3c
     882:	0001      	movs	r1, r0
     884:	4841      	ldr	r0, [pc, #260]	; (98c <FLASH_CalibrationNew+0x120>)
     886:	781e      	ldrb	r6, [r3, #0]
     888:	47b8      	blx	r7
     88a:	7963      	ldrb	r3, [r4, #5]
     88c:	4a3f      	ldr	r2, [pc, #252]	; (98c <FLASH_CalibrationNew+0x120>)
     88e:	4940      	ldr	r1, [pc, #256]	; (990 <FLASH_CalibrationNew+0x124>)
     890:	6153      	str	r3, [r2, #20]
     892:	9b05      	ldr	r3, [sp, #20]
     894:	6a08      	ldr	r0, [r1, #32]
     896:	4a3f      	ldr	r2, [pc, #252]	; (994 <FLASH_CalibrationNew+0x128>)
     898:	071b      	lsls	r3, r3, #28
     89a:	4002      	ands	r2, r0
     89c:	0c1b      	lsrs	r3, r3, #16
     89e:	4313      	orrs	r3, r2
     8a0:	620b      	str	r3, [r1, #32]
     8a2:	2000      	movs	r0, #0
     8a4:	f7ff ff5d 	bl	762 <FLASH_CalibrationNewCmd>
     8a8:	2001      	movs	r0, #1
     8aa:	f7ff ff5a 	bl	762 <FLASH_CalibrationNewCmd>
     8ae:	2301      	movs	r3, #1
     8b0:	9707      	str	r7, [sp, #28]
     8b2:	2500      	movs	r5, #0
     8b4:	2707      	movs	r7, #7
     8b6:	425b      	negs	r3, r3
     8b8:	9301      	str	r3, [sp, #4]
     8ba:	9300      	str	r3, [sp, #0]
     8bc:	08f3      	lsrs	r3, r6, #3
     8be:	9303      	str	r3, [sp, #12]
     8c0:	0033      	movs	r3, r6
     8c2:	403b      	ands	r3, r7
     8c4:	9304      	str	r3, [sp, #16]
     8c6:	9b06      	ldr	r3, [sp, #24]
     8c8:	429e      	cmp	r6, r3
     8ca:	d822      	bhi.n	912 <FLASH_CalibrationNew+0xa6>
     8cc:	0030      	movs	r0, r6
     8ce:	f7ff ff41 	bl	754 <FLASH_CalibrationPhaseIdx>
     8d2:	79e3      	ldrb	r3, [r4, #7]
     8d4:	b143      	cbz	r3, 8e8 <FLASH_CalibrationNew+0x7c>
     8d6:	4b30      	ldr	r3, [pc, #192]	; (998 <FLASH_CalibrationNew+0x12c>)
     8d8:	681b      	ldr	r3, [r3, #0]
     8da:	039b      	lsls	r3, r3, #14
     8dc:	d504      	bpl.n	8e8 <FLASH_CalibrationNew+0x7c>
     8de:	9a04      	ldr	r2, [sp, #16]
     8e0:	9903      	ldr	r1, [sp, #12]
     8e2:	482e      	ldr	r0, [pc, #184]	; (99c <FLASH_CalibrationNew+0x130>)
     8e4:	f003 ff9e 	bl	4824 <DiagPrintf>
     8e8:	f7ff ff76 	bl	7d8 <FLASH_Read_DataIsRight>
     8ec:	b160      	cbz	r0, 908 <FLASH_CalibrationNew+0x9c>
     8ee:	9b00      	ldr	r3, [sp, #0]
     8f0:	9601      	str	r6, [sp, #4]
     8f2:	3301      	adds	r3, #1
     8f4:	d005      	beq.n	902 <FLASH_CalibrationNew+0x96>
     8f6:	9b02      	ldr	r3, [sp, #8]
     8f8:	18ed      	adds	r5, r5, r3
     8fa:	9b02      	ldr	r3, [sp, #8]
     8fc:	18f6      	adds	r6, r6, r3
     8fe:	b2f6      	uxtb	r6, r6
     900:	e7dc      	b.n	8bc <FLASH_CalibrationNew+0x50>
     902:	2501      	movs	r5, #1
     904:	9600      	str	r6, [sp, #0]
     906:	e7f8      	b.n	8fa <FLASH_CalibrationNew+0x8e>
     908:	2d00      	cmp	r5, #0
     90a:	d0f6      	beq.n	8fa <FLASH_CalibrationNew+0x8e>
     90c:	9b02      	ldr	r3, [sp, #8]
     90e:	1af3      	subs	r3, r6, r3
     910:	9301      	str	r3, [sp, #4]
     912:	79e3      	ldrb	r3, [r4, #7]
     914:	b19b      	cbz	r3, 93e <FLASH_CalibrationNew+0xd2>
     916:	2680      	movs	r6, #128	; 0x80
     918:	4f1f      	ldr	r7, [pc, #124]	; (998 <FLASH_CalibrationNew+0x12c>)
     91a:	02b6      	lsls	r6, r6, #10
     91c:	683b      	ldr	r3, [r7, #0]
     91e:	4233      	tst	r3, r6
     920:	d00d      	beq.n	93e <FLASH_CalibrationNew+0xd2>
     922:	9b04      	ldr	r3, [sp, #16]
     924:	9a03      	ldr	r2, [sp, #12]
     926:	9905      	ldr	r1, [sp, #20]
     928:	481d      	ldr	r0, [pc, #116]	; (9a0 <FLASH_CalibrationNew+0x134>)
     92a:	f003 ff7b 	bl	4824 <DiagPrintf>
     92e:	683b      	ldr	r3, [r7, #0]
     930:	4233      	tst	r3, r6
     932:	d004      	beq.n	93e <FLASH_CalibrationNew+0xd2>
     934:	002a      	movs	r2, r5
     936:	9900      	ldr	r1, [sp, #0]
     938:	481a      	ldr	r0, [pc, #104]	; (9a4 <FLASH_CalibrationNew+0x138>)
     93a:	f003 ff73 	bl	4824 <DiagPrintf>
     93e:	b17d      	cbz	r5, 960 <FLASH_CalibrationNew+0xf4>
     940:	9b00      	ldr	r3, [sp, #0]
     942:	1069      	asrs	r1, r5, #1
     944:	18c9      	adds	r1, r1, r3
     946:	0023      	movs	r3, r4
     948:	b2c9      	uxtb	r1, r1
     94a:	3353      	adds	r3, #83	; 0x53
     94c:	7019      	strb	r1, [r3, #0]
     94e:	79e3      	ldrb	r3, [r4, #7]
     950:	b133      	cbz	r3, 960 <FLASH_CalibrationNew+0xf4>
     952:	4b11      	ldr	r3, [pc, #68]	; (998 <FLASH_CalibrationNew+0x12c>)
     954:	681b      	ldr	r3, [r3, #0]
     956:	039b      	lsls	r3, r3, #14
     958:	d502      	bpl.n	960 <FLASH_CalibrationNew+0xf4>
     95a:	4813      	ldr	r0, [pc, #76]	; (9a8 <FLASH_CalibrationNew+0x13c>)
     95c:	f003 ff62 	bl	4824 <DiagPrintf>
     960:	2000      	movs	r0, #0
     962:	f7ff fefe 	bl	762 <FLASH_CalibrationNewCmd>
     966:	79a3      	ldrb	r3, [r4, #6]
     968:	4a08      	ldr	r2, [pc, #32]	; (98c <FLASH_CalibrationNew+0x120>)
     96a:	0021      	movs	r1, r4
     96c:	6153      	str	r3, [r2, #20]
     96e:	7922      	ldrb	r2, [r4, #4]
     970:	9b07      	ldr	r3, [sp, #28]
     972:	4806      	ldr	r0, [pc, #24]	; (98c <FLASH_CalibrationNew+0x120>)
     974:	4798      	blx	r3
     976:	9b00      	ldr	r3, [sp, #0]
     978:	0418      	lsls	r0, r3, #16
     97a:	9b01      	ldr	r3, [sp, #4]
     97c:	061b      	lsls	r3, r3, #24
     97e:	4318      	orrs	r0, r3
     980:	4328      	orrs	r0, r5
     982:	b009      	add	sp, #36	; 0x24
     984:	bdf0      	pop	{r4, r5, r6, r7, pc}
     986:	bf00      	nop
     988:	00000ac1 	.word	0x00000ac1
     98c:	40128000 	.word	0x40128000
     990:	401280fc 	.word	0x401280fc
     994:	ffff0fff 	.word	0xffff0fff
     998:	20000660 	.word	0x20000660
     99c:	0000a160 	.word	0x0000a160
     9a0:	0000a192 	.word	0x0000a192
     9a4:	0000a1d1 	.word	0x0000a1d1
     9a8:	0000a20a 	.word	0x0000a20a

000009ac <FLASH_Read_HandShake>:
     9ac:	b5f7      	push	{r0, r1, r2, r4, r5, r6, r7, lr}
     9ae:	0014      	movs	r4, r2
     9b0:	4e14      	ldr	r6, [pc, #80]	; (a04 <FLASH_Read_HandShake+0x58>)
     9b2:	4f15      	ldr	r7, [pc, #84]	; (a08 <FLASH_Read_HandShake+0x5c>)
     9b4:	000a      	movs	r2, r1
     9b6:	9001      	str	r0, [sp, #4]
     9b8:	0031      	movs	r1, r6
     9ba:	0038      	movs	r0, r7
     9bc:	4d13      	ldr	r5, [pc, #76]	; (a0c <FLASH_Read_HandShake+0x60>)
     9be:	47a8      	blx	r5
     9c0:	7973      	ldrb	r3, [r6, #5]
     9c2:	2101      	movs	r1, #1
     9c4:	617b      	str	r3, [r7, #20]
     9c6:	0020      	movs	r0, r4
     9c8:	f7ff fee0 	bl	78c <FLASH_Read_HandShake_Cmd>
     9cc:	9b01      	ldr	r3, [sp, #4]
     9ce:	79db      	ldrb	r3, [r3, #7]
     9d0:	b13b      	cbz	r3, 9e2 <FLASH_Read_HandShake+0x36>
     9d2:	4b0f      	ldr	r3, [pc, #60]	; (a10 <FLASH_Read_HandShake+0x64>)
     9d4:	681b      	ldr	r3, [r3, #0]
     9d6:	039b      	lsls	r3, r3, #14
     9d8:	d503      	bpl.n	9e2 <FLASH_Read_HandShake+0x36>
     9da:	0021      	movs	r1, r4
     9dc:	480d      	ldr	r0, [pc, #52]	; (a14 <FLASH_Read_HandShake+0x68>)
     9de:	f003 ff21 	bl	4824 <DiagPrintf>
     9e2:	f7ff fef9 	bl	7d8 <FLASH_Read_DataIsRight>
     9e6:	2100      	movs	r1, #0
     9e8:	9001      	str	r0, [sp, #4]
     9ea:	0020      	movs	r0, r4
     9ec:	f7ff fece 	bl	78c <FLASH_Read_HandShake_Cmd>
     9f0:	79b3      	ldrb	r3, [r6, #6]
     9f2:	4904      	ldr	r1, [pc, #16]	; (a04 <FLASH_Read_HandShake+0x58>)
     9f4:	617b      	str	r3, [r7, #20]
     9f6:	7932      	ldrb	r2, [r6, #4]
     9f8:	4803      	ldr	r0, [pc, #12]	; (a08 <FLASH_Read_HandShake+0x5c>)
     9fa:	47a8      	blx	r5
     9fc:	9801      	ldr	r0, [sp, #4]
     9fe:	1e43      	subs	r3, r0, #1
     a00:	4198      	sbcs	r0, r3
     a02:	bdfe      	pop	{r1, r2, r3, r4, r5, r6, r7, pc}
     a04:	20000404 	.word	0x20000404
     a08:	40128000 	.word	0x40128000
     a0c:	00000ac1 	.word	0x00000ac1
     a10:	20000660 	.word	0x20000660
     a14:	0000a235 	.word	0x0000a235

00000a18 <FLASH_UserMode_Enter>:
     a18:	2280      	movs	r2, #128	; 0x80
     a1a:	4b04      	ldr	r3, [pc, #16]	; (a2c <FLASH_UserMode_Enter+0x14>)
     a1c:	0612      	lsls	r2, r2, #24
     a1e:	6819      	ldr	r1, [r3, #0]
     a20:	430a      	orrs	r2, r1
     a22:	601a      	str	r2, [r3, #0]
     a24:	681a      	ldr	r2, [r3, #0]
     a26:	2a00      	cmp	r2, #0
     a28:	dafc      	bge.n	a24 <FLASH_UserMode_Enter+0xc>
     a2a:	4770      	bx	lr
     a2c:	40128000 	.word	0x40128000

00000a30 <FLASH_UserMode_Exit>:
     a30:	4a02      	ldr	r2, [pc, #8]	; (a3c <FLASH_UserMode_Exit+0xc>)
     a32:	6813      	ldr	r3, [r2, #0]
     a34:	005b      	lsls	r3, r3, #1
     a36:	085b      	lsrs	r3, r3, #1
     a38:	6013      	str	r3, [r2, #0]
     a3a:	4770      	bx	lr
     a3c:	40128000 	.word	0x40128000

00000a40 <FLASH_Config>:
     a40:	2200      	movs	r2, #0
     a42:	b530      	push	{r4, r5, lr}
     a44:	6082      	str	r2, [r0, #8]
     a46:	794b      	ldrb	r3, [r1, #5]
     a48:	2401      	movs	r4, #1
     a4a:	6143      	str	r3, [r0, #20]
     a4c:	0003      	movs	r3, r0
     a4e:	6bcd      	ldr	r5, [r1, #60]	; 0x3c
     a50:	33e0      	adds	r3, #224	; 0xe0
     a52:	6104      	str	r4, [r0, #16]
     a54:	601d      	str	r5, [r3, #0]
     a56:	6a0d      	ldr	r5, [r1, #32]
     a58:	3304      	adds	r3, #4
     a5a:	605d      	str	r5, [r3, #4]
     a5c:	69cd      	ldr	r5, [r1, #28]
     a5e:	30f8      	adds	r0, #248	; 0xf8
     a60:	601d      	str	r5, [r3, #0]
     a62:	6a8d      	ldr	r5, [r1, #40]	; 0x28
     a64:	60dd      	str	r5, [r3, #12]
     a66:	6a4d      	ldr	r5, [r1, #36]	; 0x24
     a68:	3308      	adds	r3, #8
     a6a:	601d      	str	r5, [r3, #0]
     a6c:	609a      	str	r2, [r3, #8]
     a6e:	61da      	str	r2, [r3, #28]
     a70:	6002      	str	r2, [r0, #0]
     a72:	2006      	movs	r0, #6
     a74:	611a      	str	r2, [r3, #16]
     a76:	615a      	str	r2, [r3, #20]
     a78:	619a      	str	r2, [r3, #24]
     a7a:	6a5a      	ldr	r2, [r3, #36]	; 0x24
     a7c:	4314      	orrs	r4, r2
     a7e:	625c      	str	r4, [r3, #36]	; 0x24
     a80:	6a5a      	ldr	r2, [r3, #36]	; 0x24
     a82:	24f0      	movs	r4, #240	; 0xf0
     a84:	4382      	bics	r2, r0
     a86:	625a      	str	r2, [r3, #36]	; 0x24
     a88:	000a      	movs	r2, r1
     a8a:	3254      	adds	r2, #84	; 0x54
     a8c:	7812      	ldrb	r2, [r2, #0]
     a8e:	0324      	lsls	r4, r4, #12
     a90:	0412      	lsls	r2, r2, #16
     a92:	6b18      	ldr	r0, [r3, #48]	; 0x30
     a94:	4022      	ands	r2, r4
     a96:	4c08      	ldr	r4, [pc, #32]	; (ab8 <FLASH_Config+0x78>)
     a98:	314b      	adds	r1, #75	; 0x4b
     a9a:	4020      	ands	r0, r4
     a9c:	4310      	orrs	r0, r2
     a9e:	6318      	str	r0, [r3, #48]	; 0x30
     aa0:	6ad8      	ldr	r0, [r3, #44]	; 0x2c
     aa2:	4c06      	ldr	r4, [pc, #24]	; (abc <FLASH_Config+0x7c>)
     aa4:	4020      	ands	r0, r4
     aa6:	4302      	orrs	r2, r0
     aa8:	f241 0000 	movw	r0, #4096	; 0x1000
     aac:	4302      	orrs	r2, r0
     aae:	62da      	str	r2, [r3, #44]	; 0x2c
     ab0:	780a      	ldrb	r2, [r1, #0]
     ab2:	641a      	str	r2, [r3, #64]	; 0x40
     ab4:	bd30      	pop	{r4, r5, pc}
     ab6:	bf00      	nop
     ab8:	fff0ffff 	.word	0xfff0ffff
     abc:	fff0cfff 	.word	0xfff0cfff

00000ac0 <FLASH_SetSpiMode>:
     ac0:	b5f7      	push	{r0, r1, r2, r4, r5, r6, r7, lr}
     ac2:	f240 0c4d 	movw	ip, #77	; 0x4d
     ac6:	2400      	movs	r4, #0
     ac8:	188b      	adds	r3, r1, r2
     aca:	334e      	adds	r3, #78	; 0x4e
     acc:	781d      	ldrb	r5, [r3, #0]
     ace:	794e      	ldrb	r6, [r1, #5]
     ad0:	448c      	add	ip, r1
     ad2:	4375      	muls	r5, r6
     ad4:	6084      	str	r4, [r0, #8]
     ad6:	0004      	movs	r4, r0
     ad8:	006b      	lsls	r3, r5, #1
     ada:	4665      	mov	r5, ip
     adc:	9301      	str	r3, [sp, #4]
     ade:	34fc      	adds	r4, #252	; 0xfc
     ae0:	6a27      	ldr	r7, [r4, #32]
     ae2:	782d      	ldrb	r5, [r5, #0]
     ae4:	0c3f      	lsrs	r7, r7, #16
     ae6:	072d      	lsls	r5, r5, #28
     ae8:	0c2d      	lsrs	r5, r5, #16
     aea:	043f      	lsls	r7, r7, #16
     aec:	432f      	orrs	r7, r5
     aee:	9d01      	ldr	r5, [sp, #4]
     af0:	466b      	mov	r3, sp
     af2:	052d      	lsls	r5, r5, #20
     af4:	0d2d      	lsrs	r5, r5, #20
     af6:	433d      	orrs	r5, r7
     af8:	6225      	str	r5, [r4, #32]
     afa:	000d      	movs	r5, r1
     afc:	3555      	adds	r5, #85	; 0x55
     afe:	782d      	ldrb	r5, [r5, #0]
     b00:	889b      	ldrh	r3, [r3, #4]
     b02:	b125      	cbz	r5, b0e <FLASH_SetSpiMode+0x4e>
     b04:	2a04      	cmp	r2, #4
     b06:	d118      	bne.n	b3a <FLASH_SetSpiMode+0x7a>
     b08:	00b6      	lsls	r6, r6, #2
     b0a:	1b9b      	subs	r3, r3, r6
     b0c:	b29b      	uxth	r3, r3
     b0e:	69e6      	ldr	r6, [r4, #28]
     b10:	051b      	lsls	r3, r3, #20
     b12:	0b36      	lsrs	r6, r6, #12
     b14:	0336      	lsls	r6, r6, #12
     b16:	0d1b      	lsrs	r3, r3, #20
     b18:	4333      	orrs	r3, r6
     b1a:	61e3      	str	r3, [r4, #28]
     b1c:	6806      	ldr	r6, [r0, #0]
     b1e:	4b1b      	ldr	r3, [pc, #108]	; (b8c <FLASH_SetSpiMode+0xcc>)
     b20:	401e      	ands	r6, r3
     b22:	6a63      	ldr	r3, [r4, #36]	; 0x24
     b24:	0c1b      	lsrs	r3, r3, #16
     b26:	041b      	lsls	r3, r3, #16
     b28:	2a03      	cmp	r2, #3
     b2a:	d028      	beq.n	b7e <FLASH_SetSpiMode+0xbe>
     b2c:	d809      	bhi.n	b42 <FLASH_SetSpiMode+0x82>
     b2e:	2a01      	cmp	r2, #1
     b30:	d010      	beq.n	b54 <FLASH_SetSpiMode+0x94>
     b32:	2a02      	cmp	r2, #2
     b34:	d01c      	beq.n	b70 <FLASH_SetSpiMode+0xb0>
     b36:	2203      	movs	r2, #3
     b38:	e012      	b.n	b60 <FLASH_SetSpiMode+0xa0>
     b3a:	2a02      	cmp	r2, #2
     b3c:	d1e7      	bne.n	b0e <FLASH_SetSpiMode+0x4e>
     b3e:	00f6      	lsls	r6, r6, #3
     b40:	e7e3      	b.n	b0a <FLASH_SetSpiMode+0x4a>
     b42:	2a04      	cmp	r2, #4
     b44:	d1f7      	bne.n	b36 <FLASH_SetSpiMode+0x76>
     b46:	6b8a      	ldr	r2, [r1, #56]	; 0x38
     b48:	4313      	orrs	r3, r2
     b4a:	22a0      	movs	r2, #160	; 0xa0
     b4c:	0312      	lsls	r2, r2, #12
     b4e:	4316      	orrs	r6, r2
     b50:	22eb      	movs	r2, #235	; 0xeb
     b52:	e005      	b.n	b60 <FLASH_SetSpiMode+0xa0>
     b54:	6aca      	ldr	r2, [r1, #44]	; 0x2c
     b56:	4313      	orrs	r3, r2
     b58:	2280      	movs	r2, #128	; 0x80
     b5a:	02d2      	lsls	r2, r2, #11
     b5c:	4316      	orrs	r6, r2
     b5e:	223b      	movs	r2, #59	; 0x3b
     b60:	608a      	str	r2, [r1, #8]
     b62:	b115      	cbz	r5, b6a <FLASH_SetSpiMode+0xaa>
     b64:	f242 0200 	movw	r2, #8192	; 0x2000
     b68:	4313      	orrs	r3, r2
     b6a:	6263      	str	r3, [r4, #36]	; 0x24
     b6c:	6006      	str	r6, [r0, #0]
     b6e:	bdf7      	pop	{r0, r1, r2, r4, r5, r6, r7, pc}
     b70:	6b0a      	ldr	r2, [r1, #48]	; 0x30
     b72:	4313      	orrs	r3, r2
     b74:	22a0      	movs	r2, #160	; 0xa0
     b76:	02d2      	lsls	r2, r2, #11
     b78:	4316      	orrs	r6, r2
     b7a:	22bb      	movs	r2, #187	; 0xbb
     b7c:	e7f0      	b.n	b60 <FLASH_SetSpiMode+0xa0>
     b7e:	6b4a      	ldr	r2, [r1, #52]	; 0x34
     b80:	4313      	orrs	r3, r2
     b82:	2280      	movs	r2, #128	; 0x80
     b84:	0312      	lsls	r2, r2, #12
     b86:	4316      	orrs	r6, r2
     b88:	226b      	movs	r2, #107	; 0x6b
     b8a:	e7e9      	b.n	b60 <FLASH_SetSpiMode+0xa0>
     b8c:	ffc0ffff 	.word	0xffc0ffff

00000b90 <FLASH_RxCmd_InUserMode>:
     b90:	b5f8      	push	{r3, r4, r5, r6, r7, lr}
     b92:	000d      	movs	r5, r1
     b94:	4e18      	ldr	r6, [pc, #96]	; (bf8 <FLASH_RxCmd_InUserMode+0x68>)
     b96:	0007      	movs	r7, r0
     b98:	0014      	movs	r4, r2
     b9a:	4918      	ldr	r1, [pc, #96]	; (bfc <FLASH_RxCmd_InUserMode+0x6c>)
     b9c:	2200      	movs	r2, #0
     b9e:	0030      	movs	r0, r6
     ba0:	f7ff ff8e 	bl	ac0 <FLASH_SetSpiMode>
     ba4:	4b16      	ldr	r3, [pc, #88]	; (c00 <FLASH_RxCmd_InUserMode+0x70>)
     ba6:	4917      	ldr	r1, [pc, #92]	; (c04 <FLASH_RxCmd_InUserMode+0x74>)
     ba8:	69da      	ldr	r2, [r3, #28]
     baa:	400a      	ands	r2, r1
     bac:	61da      	str	r2, [r3, #28]
     bae:	022a      	lsls	r2, r5, #8
     bb0:	0a12      	lsrs	r2, r2, #8
     bb2:	6072      	str	r2, [r6, #4]
     bb4:	2200      	movs	r2, #0
     bb6:	635a      	str	r2, [r3, #52]	; 0x34
     bb8:	6833      	ldr	r3, [r6, #0]
     bba:	4a13      	ldr	r2, [pc, #76]	; (c08 <FLASH_RxCmd_InUserMode+0x78>)
     bbc:	2108      	movs	r1, #8
     bbe:	401a      	ands	r2, r3
     bc0:	f240 3300 	movw	r3, #768	; 0x300
     bc4:	4313      	orrs	r3, r2
     bc6:	2201      	movs	r2, #1
     bc8:	6033      	str	r3, [r6, #0]
     bca:	4b10      	ldr	r3, [pc, #64]	; (c0c <FLASH_RxCmd_InUserMode+0x7c>)
     bcc:	1965      	adds	r5, r4, r5
     bce:	701f      	strb	r7, [r3, #0]
     bd0:	60b2      	str	r2, [r6, #8]
     bd2:	42ac      	cmp	r4, r5
     bd4:	d108      	bne.n	be8 <FLASH_RxCmd_InUserMode+0x58>
     bd6:	2004      	movs	r0, #4
     bd8:	f000 f828 	bl	c2c <FLASH_WaitBusy_InUserMode>
     bdc:	4907      	ldr	r1, [pc, #28]	; (bfc <FLASH_RxCmd_InUserMode+0x6c>)
     bde:	4806      	ldr	r0, [pc, #24]	; (bf8 <FLASH_RxCmd_InUserMode+0x68>)
     be0:	790a      	ldrb	r2, [r1, #4]
     be2:	f7ff ff6d 	bl	ac0 <FLASH_SetSpiMode>
     be6:	bdf8      	pop	{r3, r4, r5, r6, r7, pc}
     be8:	6ab0      	ldr	r0, [r6, #40]	; 0x28
     bea:	4208      	tst	r0, r1
     bec:	d0f1      	beq.n	bd2 <FLASH_RxCmd_InUserMode+0x42>
     bee:	7818      	ldrb	r0, [r3, #0]
     bf0:	7020      	strb	r0, [r4, #0]
     bf2:	3401      	adds	r4, #1
     bf4:	e7ed      	b.n	bd2 <FLASH_RxCmd_InUserMode+0x42>
     bf6:	bf00      	nop
     bf8:	40128000 	.word	0x40128000
     bfc:	20000404 	.word	0x20000404
     c00:	401280fc 	.word	0x401280fc
     c04:	fff0ffff 	.word	0xfff0ffff
     c08:	fff0fcff 	.word	0xfff0fcff
     c0c:	40128060 	.word	0x40128060

00000c10 <FLASH_RxCmd>:
     c10:	b570      	push	{r4, r5, r6, lr}
     c12:	000d      	movs	r5, r1
     c14:	0016      	movs	r6, r2
     c16:	0004      	movs	r4, r0
     c18:	f7ff fefe 	bl	a18 <FLASH_UserMode_Enter>
     c1c:	0032      	movs	r2, r6
     c1e:	0029      	movs	r1, r5
     c20:	0020      	movs	r0, r4
     c22:	f7ff ffb5 	bl	b90 <FLASH_RxCmd_InUserMode>
     c26:	f7ff ff03 	bl	a30 <FLASH_UserMode_Exit>
     c2a:	bd70      	pop	{r4, r5, r6, pc}

00000c2c <FLASH_WaitBusy_InUserMode>:
     c2c:	b573      	push	{r0, r1, r4, r5, r6, lr}
     c2e:	466b      	mov	r3, sp
     c30:	1ddd      	adds	r5, r3, #7
     c32:	2300      	movs	r3, #0
     c34:	0004      	movs	r4, r0
     c36:	702b      	strb	r3, [r5, #0]
     c38:	b934      	cbnz	r4, c48 <FLASH_WaitBusy_InUserMode+0x1c>
     c3a:	4b16      	ldr	r3, [pc, #88]	; (c94 <FLASH_WaitBusy_InUserMode+0x68>)
     c3c:	6a9b      	ldr	r3, [r3, #40]	; 0x28
     c3e:	2201      	movs	r2, #1
     c40:	4013      	ands	r3, r2
     c42:	2b00      	cmp	r3, #0
     c44:	d1f8      	bne.n	c38 <FLASH_WaitBusy_InUserMode+0xc>
     c46:	bd73      	pop	{r0, r1, r4, r5, r6, pc}
     c48:	2c04      	cmp	r4, #4
     c4a:	d102      	bne.n	c52 <FLASH_WaitBusy_InUserMode+0x26>
     c4c:	4b11      	ldr	r3, [pc, #68]	; (c94 <FLASH_WaitBusy_InUserMode+0x68>)
     c4e:	689b      	ldr	r3, [r3, #8]
     c50:	e7f5      	b.n	c3e <FLASH_WaitBusy_InUserMode+0x12>
     c52:	2c01      	cmp	r4, #1
     c54:	d10a      	bne.n	c6c <FLASH_WaitBusy_InUserMode+0x40>
     c56:	4e10      	ldr	r6, [pc, #64]	; (c98 <FLASH_WaitBusy_InUserMode+0x6c>)
     c58:	002a      	movs	r2, r5
     c5a:	0033      	movs	r3, r6
     c5c:	3342      	adds	r3, #66	; 0x42
     c5e:	7818      	ldrb	r0, [r3, #0]
     c60:	0021      	movs	r1, r4
     c62:	f7ff ff95 	bl	b90 <FLASH_RxCmd_InUserMode>
     c66:	782a      	ldrb	r2, [r5, #0]
     c68:	6933      	ldr	r3, [r6, #16]
     c6a:	e7e9      	b.n	c40 <FLASH_WaitBusy_InUserMode+0x14>
     c6c:	2c03      	cmp	r4, #3
     c6e:	d1e8      	bne.n	c42 <FLASH_WaitBusy_InUserMode+0x16>
     c70:	4e09      	ldr	r6, [pc, #36]	; (c98 <FLASH_WaitBusy_InUserMode+0x6c>)
     c72:	002a      	movs	r2, r5
     c74:	0033      	movs	r3, r6
     c76:	3342      	adds	r3, #66	; 0x42
     c78:	2101      	movs	r1, #1
     c7a:	7818      	ldrb	r0, [r3, #0]
     c7c:	f7ff ff88 	bl	b90 <FLASH_RxCmd_InUserMode>
     c80:	782a      	ldrb	r2, [r5, #0]
     c82:	6971      	ldr	r1, [r6, #20]
     c84:	2301      	movs	r3, #1
     c86:	4211      	tst	r1, r2
     c88:	d0db      	beq.n	c42 <FLASH_WaitBusy_InUserMode+0x16>
     c8a:	6933      	ldr	r3, [r6, #16]
     c8c:	4013      	ands	r3, r2
     c8e:	1e5a      	subs	r2, r3, #1
     c90:	4193      	sbcs	r3, r2
     c92:	e7d6      	b.n	c42 <FLASH_WaitBusy_InUserMode+0x16>
     c94:	40128000 	.word	0x40128000
     c98:	20000404 	.word	0x20000404

00000c9c <FLASH_RxData>:
     c9c:	b5f0      	push	{r4, r5, r6, r7, lr}
     c9e:	b085      	sub	sp, #20
     ca0:	0007      	movs	r7, r0
     ca2:	000e      	movs	r6, r1
     ca4:	4d41      	ldr	r5, [pc, #260]	; (dac <FLASH_RxData+0x110>)
     ca6:	9201      	str	r2, [sp, #4]
     ca8:	9302      	str	r3, [sp, #8]
     caa:	b908      	cbnz	r0, cb0 <FLASH_RxData+0x14>
     cac:	68ab      	ldr	r3, [r5, #8]
     cae:	b2df      	uxtb	r7, r3
     cb0:	f7ff feb2 	bl	a18 <FLASH_UserMode_Enter>
     cb4:	f240 3300 	movw	r3, #768	; 0x300
     cb8:	493d      	ldr	r1, [pc, #244]	; (db0 <FLASH_RxData+0x114>)
     cba:	483e      	ldr	r0, [pc, #248]	; (db4 <FLASH_RxData+0x118>)
     cbc:	680a      	ldr	r2, [r1, #0]
     cbe:	24f0      	movs	r4, #240	; 0xf0
     cc0:	4313      	orrs	r3, r2
     cc2:	600b      	str	r3, [r1, #0]
     cc4:	9b01      	ldr	r3, [sp, #4]
     cc6:	0324      	lsls	r4, r4, #12
     cc8:	021b      	lsls	r3, r3, #8
     cca:	0a1b      	lsrs	r3, r3, #8
     ccc:	604b      	str	r3, [r1, #4]
     cce:	2300      	movs	r3, #0
     cd0:	6343      	str	r3, [r0, #52]	; 0x34
     cd2:	69c2      	ldr	r2, [r0, #28]
     cd4:	4b38      	ldr	r3, [pc, #224]	; (db8 <FLASH_RxData+0x11c>)
     cd6:	46a4      	mov	ip, r4
     cd8:	4013      	ands	r3, r2
     cda:	002a      	movs	r2, r5
     cdc:	3255      	adds	r2, #85	; 0x55
     cde:	7812      	ldrb	r2, [r2, #0]
     ce0:	9203      	str	r2, [sp, #12]
     ce2:	002a      	movs	r2, r5
     ce4:	9c03      	ldr	r4, [sp, #12]
     ce6:	3254      	adds	r2, #84	; 0x54
     ce8:	7812      	ldrb	r2, [r2, #0]
     cea:	b104      	cbz	r4, cee <FLASH_RxData+0x52>
     cec:	3201      	adds	r2, #1
     cee:	4664      	mov	r4, ip
     cf0:	0412      	lsls	r2, r2, #16
     cf2:	4022      	ands	r2, r4
     cf4:	4313      	orrs	r3, r2
     cf6:	61c3      	str	r3, [r0, #28]
     cf8:	2301      	movs	r3, #1
     cfa:	4830      	ldr	r0, [pc, #192]	; (dbc <FLASH_RxData+0x120>)
     cfc:	610b      	str	r3, [r1, #16]
     cfe:	3554      	adds	r5, #84	; 0x54
     d00:	7007      	strb	r7, [r0, #0]
     d02:	782b      	ldrb	r3, [r5, #0]
     d04:	2b04      	cmp	r3, #4
     d06:	d101      	bne.n	d0c <FLASH_RxData+0x70>
     d08:	0e33      	lsrs	r3, r6, #24
     d0a:	7003      	strb	r3, [r0, #0]
     d0c:	0c33      	lsrs	r3, r6, #16
     d0e:	b2db      	uxtb	r3, r3
     d10:	7003      	strb	r3, [r0, #0]
     d12:	0a33      	lsrs	r3, r6, #8
     d14:	b2db      	uxtb	r3, r3
     d16:	7003      	strb	r3, [r0, #0]
     d18:	9b03      	ldr	r3, [sp, #12]
     d1a:	b2f6      	uxtb	r6, r6
     d1c:	7006      	strb	r6, [r0, #0]
     d1e:	b10b      	cbz	r3, d24 <FLASH_RxData+0x88>
     d20:	2300      	movs	r3, #0
     d22:	7003      	strb	r3, [r0, #0]
     d24:	2301      	movs	r3, #1
     d26:	9d02      	ldr	r5, [sp, #8]
     d28:	9a02      	ldr	r2, [sp, #8]
     d2a:	608b      	str	r3, [r1, #8]
     d2c:	3302      	adds	r3, #2
     d2e:	401d      	ands	r5, r3
     d30:	421a      	tst	r2, r3
     d32:	d12a      	bne.n	d8a <FLASH_RxData+0xee>
     d34:	002a      	movs	r2, r5
     d36:	260f      	movs	r6, #15
     d38:	9b02      	ldr	r3, [sp, #8]
     d3a:	189b      	adds	r3, r3, r2
     d3c:	9c01      	ldr	r4, [sp, #4]
     d3e:	42a2      	cmp	r2, r4
     d40:	d20b      	bcs.n	d5a <FLASH_RxData+0xbe>
     d42:	6a4d      	ldr	r5, [r1, #36]	; 0x24
     d44:	08ad      	lsrs	r5, r5, #2
     d46:	4035      	ands	r5, r6
     d48:	00ad      	lsls	r5, r5, #2
     d4a:	195f      	adds	r7, r3, r5
     d4c:	42bb      	cmp	r3, r7
     d4e:	d121      	bne.n	d94 <FLASH_RxData+0xf8>
     d50:	9c01      	ldr	r4, [sp, #4]
     d52:	1952      	adds	r2, r2, r5
     d54:	1aa5      	subs	r5, r4, r2
     d56:	2d03      	cmp	r5, #3
     d58:	d8f0      	bhi.n	d3c <FLASH_RxData+0xa0>
     d5a:	2308      	movs	r3, #8
     d5c:	9c01      	ldr	r4, [sp, #4]
     d5e:	42a2      	cmp	r2, r4
     d60:	d31b      	bcc.n	d9a <FLASH_RxData+0xfe>
     d62:	2004      	movs	r0, #4
     d64:	f7ff ff62 	bl	c2c <FLASH_WaitBusy_InUserMode>
     d68:	f7ff fe62 	bl	a30 <FLASH_UserMode_Exit>
     d6c:	b005      	add	sp, #20
     d6e:	bdf0      	pop	{r4, r5, r6, r7, pc}
     d70:	6a8d      	ldr	r5, [r1, #40]	; 0x28
     d72:	4235      	tst	r5, r6
     d74:	d003      	beq.n	d7e <FLASH_RxData+0xe2>
     d76:	7805      	ldrb	r5, [r0, #0]
     d78:	9c02      	ldr	r4, [sp, #8]
     d7a:	54a5      	strb	r5, [r4, r2]
     d7c:	3201      	adds	r2, #1
     d7e:	4293      	cmp	r3, r2
     d80:	d0d9      	beq.n	d36 <FLASH_RxData+0x9a>
     d82:	9c01      	ldr	r4, [sp, #4]
     d84:	42a2      	cmp	r2, r4
     d86:	d3f3      	bcc.n	d70 <FLASH_RxData+0xd4>
     d88:	e7d5      	b.n	d36 <FLASH_RxData+0x9a>
     d8a:	2304      	movs	r3, #4
     d8c:	2200      	movs	r2, #0
     d8e:	2608      	movs	r6, #8
     d90:	1b5b      	subs	r3, r3, r5
     d92:	e7f6      	b.n	d82 <FLASH_RxData+0xe6>
     d94:	6e0c      	ldr	r4, [r1, #96]	; 0x60
     d96:	c310      	stmia	r3!, {r4}
     d98:	e7d8      	b.n	d4c <FLASH_RxData+0xb0>
     d9a:	6a8d      	ldr	r5, [r1, #40]	; 0x28
     d9c:	421d      	tst	r5, r3
     d9e:	d0dd      	beq.n	d5c <FLASH_RxData+0xc0>
     da0:	7805      	ldrb	r5, [r0, #0]
     da2:	9c02      	ldr	r4, [sp, #8]
     da4:	54a5      	strb	r5, [r4, r2]
     da6:	3201      	adds	r2, #1
     da8:	e7d8      	b.n	d5c <FLASH_RxData+0xc0>
     daa:	bf00      	nop
     dac:	20000404 	.word	0x20000404
     db0:	40128000 	.word	0x40128000
     db4:	401280fc 	.word	0x401280fc
     db8:	fff0ffff 	.word	0xfff0ffff
     dbc:	40128060 	.word	0x40128060

00000dc0 <FLASH_TxCmd_InUserMode>:
     dc0:	b5f7      	push	{r0, r1, r2, r4, r5, r6, r7, lr}
     dc2:	4c11      	ldr	r4, [pc, #68]	; (e08 <FLASH_TxCmd_InUserMode+0x48>)
     dc4:	4d11      	ldr	r5, [pc, #68]	; (e0c <FLASH_TxCmd_InUserMode+0x4c>)
     dc6:	9201      	str	r2, [sp, #4]
     dc8:	69ef      	ldr	r7, [r5, #28]
     dca:	4a11      	ldr	r2, [pc, #68]	; (e10 <FLASH_TxCmd_InUserMode+0x50>)
     dcc:	6826      	ldr	r6, [r4, #0]
     dce:	6823      	ldr	r3, [r4, #0]
     dd0:	4013      	ands	r3, r2
     dd2:	6023      	str	r3, [r4, #0]
     dd4:	69eb      	ldr	r3, [r5, #28]
     dd6:	4a0f      	ldr	r2, [pc, #60]	; (e14 <FLASH_TxCmd_InUserMode+0x54>)
     dd8:	4013      	ands	r3, r2
     dda:	61eb      	str	r3, [r5, #28]
     ddc:	2300      	movs	r3, #0
     dde:	9a01      	ldr	r2, [sp, #4]
     de0:	6063      	str	r3, [r4, #4]
     de2:	4b0d      	ldr	r3, [pc, #52]	; (e18 <FLASH_TxCmd_InUserMode+0x58>)
     de4:	6369      	str	r1, [r5, #52]	; 0x34
     de6:	7018      	strb	r0, [r3, #0]
     de8:	1851      	adds	r1, r2, r1
     dea:	428a      	cmp	r2, r1
     dec:	d107      	bne.n	dfe <FLASH_TxCmd_InUserMode+0x3e>
     dee:	2301      	movs	r3, #1
     df0:	2004      	movs	r0, #4
     df2:	60a3      	str	r3, [r4, #8]
     df4:	f7ff ff1a 	bl	c2c <FLASH_WaitBusy_InUserMode>
     df8:	61ef      	str	r7, [r5, #28]
     dfa:	6026      	str	r6, [r4, #0]
     dfc:	bdf7      	pop	{r0, r1, r2, r4, r5, r6, r7, pc}
     dfe:	7810      	ldrb	r0, [r2, #0]
     e00:	3201      	adds	r2, #1
     e02:	7018      	strb	r0, [r3, #0]
     e04:	e7f1      	b.n	dea <FLASH_TxCmd_InUserMode+0x2a>
     e06:	bf00      	nop
     e08:	40128000 	.word	0x40128000
     e0c:	401280fc 	.word	0x401280fc
     e10:	ffc0fcff 	.word	0xffc0fcff
     e14:	fff0ffff 	.word	0xfff0ffff
     e18:	40128060 	.word	0x40128060

00000e1c <FLASH_WriteEn_InUserMode>:
     e1c:	b510      	push	{r4, lr}
     e1e:	2001      	movs	r0, #1
     e20:	f7ff ff04 	bl	c2c <FLASH_WaitBusy_InUserMode>
     e24:	2200      	movs	r2, #0
     e26:	4b05      	ldr	r3, [pc, #20]	; (e3c <FLASH_WriteEn_InUserMode+0x20>)
     e28:	0011      	movs	r1, r2
     e2a:	3340      	adds	r3, #64	; 0x40
     e2c:	7818      	ldrb	r0, [r3, #0]
     e2e:	f7ff ffc7 	bl	dc0 <FLASH_TxCmd_InUserMode>
     e32:	2003      	movs	r0, #3
     e34:	f7ff fefa 	bl	c2c <FLASH_WaitBusy_InUserMode>
     e38:	bd10      	pop	{r4, pc}
     e3a:	bf00      	nop
     e3c:	20000404 	.word	0x20000404

00000e40 <FLASH_TxData>:
     e40:	b5f7      	push	{r0, r1, r2, r4, r5, r6, r7, lr}
     e42:	9200      	str	r2, [sp, #0]
     e44:	f240 1200 	movw	r2, #256	; 0x100
     e48:	b2c3      	uxtb	r3, r0
     e4a:	185b      	adds	r3, r3, r1
     e4c:	0007      	movs	r7, r0
     e4e:	000d      	movs	r5, r1
     e50:	4293      	cmp	r3, r2
     e52:	d904      	bls.n	e5e <FLASH_TxData+0x1e>
     e54:	f240 1186 	movw	r1, #390	; 0x186
     e58:	483c      	ldr	r0, [pc, #240]	; (f4c <FLASH_TxData+0x10c>)
     e5a:	f7ff f95b 	bl	114 <io_assert_failed>
     e5e:	4c3c      	ldr	r4, [pc, #240]	; (f50 <FLASH_TxData+0x110>)
     e60:	f7ff fdda 	bl	a18 <FLASH_UserMode_Enter>
     e64:	f7ff ffda 	bl	e1c <FLASH_WriteEn_InUserMode>
     e68:	6823      	ldr	r3, [r4, #0]
     e6a:	4a3a      	ldr	r2, [pc, #232]	; (f54 <FLASH_TxData+0x114>)
     e6c:	9301      	str	r3, [sp, #4]
     e6e:	6823      	ldr	r3, [r4, #0]
     e70:	4939      	ldr	r1, [pc, #228]	; (f58 <FLASH_TxData+0x118>)
     e72:	4013      	ands	r3, r2
     e74:	6023      	str	r3, [r4, #0]
     e76:	4b39      	ldr	r3, [pc, #228]	; (f5c <FLASH_TxData+0x11c>)
     e78:	69c8      	ldr	r0, [r1, #28]
     e7a:	3354      	adds	r3, #84	; 0x54
     e7c:	781a      	ldrb	r2, [r3, #0]
     e7e:	0413      	lsls	r3, r2, #16
     e80:	469c      	mov	ip, r3
     e82:	23f0      	movs	r3, #240	; 0xf0
     e84:	4666      	mov	r6, ip
     e86:	031b      	lsls	r3, r3, #12
     e88:	4033      	ands	r3, r6
     e8a:	4e35      	ldr	r6, [pc, #212]	; (f60 <FLASH_TxData+0x120>)
     e8c:	4030      	ands	r0, r6
     e8e:	4303      	orrs	r3, r0
     e90:	61cb      	str	r3, [r1, #28]
     e92:	2300      	movs	r3, #0
     e94:	6063      	str	r3, [r4, #4]
     e96:	022b      	lsls	r3, r5, #8
     e98:	0a1b      	lsrs	r3, r3, #8
     e9a:	634b      	str	r3, [r1, #52]	; 0x34
     e9c:	2302      	movs	r3, #2
     e9e:	4931      	ldr	r1, [pc, #196]	; (f64 <FLASH_TxData+0x124>)
     ea0:	700b      	strb	r3, [r1, #0]
     ea2:	2a04      	cmp	r2, #4
     ea4:	d101      	bne.n	eaa <FLASH_TxData+0x6a>
     ea6:	0e3b      	lsrs	r3, r7, #24
     ea8:	700b      	strb	r3, [r1, #0]
     eaa:	0c3b      	lsrs	r3, r7, #16
     eac:	b2db      	uxtb	r3, r3
     eae:	700b      	strb	r3, [r1, #0]
     eb0:	0a3b      	lsrs	r3, r7, #8
     eb2:	b2db      	uxtb	r3, r3
     eb4:	700b      	strb	r3, [r1, #0]
     eb6:	2303      	movs	r3, #3
     eb8:	9800      	ldr	r0, [sp, #0]
     eba:	9a00      	ldr	r2, [sp, #0]
     ebc:	b2ff      	uxtb	r7, r7
     ebe:	700f      	strb	r7, [r1, #0]
     ec0:	4018      	ands	r0, r3
     ec2:	421a      	tst	r2, r3
     ec4:	d132      	bne.n	f2c <FLASH_TxData+0xec>
     ec6:	0003      	movs	r3, r0
     ec8:	2201      	movs	r2, #1
     eca:	f240 0c3f 	movw	ip, #63	; 0x3f
     ece:	60a2      	str	r2, [r4, #8]
     ed0:	9a00      	ldr	r2, [sp, #0]
     ed2:	18d0      	adds	r0, r2, r3
     ed4:	42ab      	cmp	r3, r5
     ed6:	d212      	bcs.n	efe <FLASH_TxData+0xbe>
     ed8:	4666      	mov	r6, ip
     eda:	6a22      	ldr	r2, [r4, #32]
     edc:	1aef      	subs	r7, r5, r3
     ede:	4032      	ands	r2, r6
     ee0:	2620      	movs	r6, #32
     ee2:	1ab2      	subs	r2, r6, r2
     ee4:	42ba      	cmp	r2, r7
     ee6:	d900      	bls.n	eea <FLASH_TxData+0xaa>
     ee8:	003a      	movs	r2, r7
     eea:	0892      	lsrs	r2, r2, #2
     eec:	0092      	lsls	r2, r2, #2
     eee:	0007      	movs	r7, r0
     ef0:	1880      	adds	r0, r0, r2
     ef2:	42b8      	cmp	r0, r7
     ef4:	d11e      	bne.n	f34 <FLASH_TxData+0xf4>
     ef6:	189b      	adds	r3, r3, r2
     ef8:	1aea      	subs	r2, r5, r3
     efa:	2a03      	cmp	r2, #3
     efc:	d8ea      	bhi.n	ed4 <FLASH_TxData+0x94>
     efe:	2202      	movs	r2, #2
     f00:	42ab      	cmp	r3, r5
     f02:	d31a      	bcc.n	f3a <FLASH_TxData+0xfa>
     f04:	2004      	movs	r0, #4
     f06:	f7ff fe91 	bl	c2c <FLASH_WaitBusy_InUserMode>
     f0a:	9b01      	ldr	r3, [sp, #4]
     f0c:	2001      	movs	r0, #1
     f0e:	6023      	str	r3, [r4, #0]
     f10:	f7ff fe8c 	bl	c2c <FLASH_WaitBusy_InUserMode>
     f14:	f7ff fd8c 	bl	a30 <FLASH_UserMode_Exit>
     f18:	bdf7      	pop	{r0, r1, r2, r4, r5, r6, r7, pc}
     f1a:	9800      	ldr	r0, [sp, #0]
     f1c:	5cc0      	ldrb	r0, [r0, r3]
     f1e:	3301      	adds	r3, #1
     f20:	7008      	strb	r0, [r1, #0]
     f22:	429a      	cmp	r2, r3
     f24:	d0d0      	beq.n	ec8 <FLASH_TxData+0x88>
     f26:	42ab      	cmp	r3, r5
     f28:	d1f7      	bne.n	f1a <FLASH_TxData+0xda>
     f2a:	e7cd      	b.n	ec8 <FLASH_TxData+0x88>
     f2c:	2204      	movs	r2, #4
     f2e:	2300      	movs	r3, #0
     f30:	1a12      	subs	r2, r2, r0
     f32:	e7f8      	b.n	f26 <FLASH_TxData+0xe6>
     f34:	cf40      	ldmia	r7!, {r6}
     f36:	6626      	str	r6, [r4, #96]	; 0x60
     f38:	e7db      	b.n	ef2 <FLASH_TxData+0xb2>
     f3a:	6aa0      	ldr	r0, [r4, #40]	; 0x28
     f3c:	4210      	tst	r0, r2
     f3e:	d0df      	beq.n	f00 <FLASH_TxData+0xc0>
     f40:	9800      	ldr	r0, [sp, #0]
     f42:	5cc0      	ldrb	r0, [r0, r3]
     f44:	3301      	adds	r3, #1
     f46:	7008      	strb	r0, [r1, #0]
     f48:	e7da      	b.n	f00 <FLASH_TxData+0xc0>
     f4a:	bf00      	nop
     f4c:	0000a257 	.word	0x0000a257
     f50:	40128000 	.word	0x40128000
     f54:	ffc0fcff 	.word	0xffc0fcff
     f58:	401280fc 	.word	0x401280fc
     f5c:	20000404 	.word	0x20000404
     f60:	fff0ffff 	.word	0xfff0ffff
     f64:	40128060 	.word	0x40128060

00000f68 <FLASH_SetStatus>:
     f68:	b570      	push	{r4, r5, r6, lr}
     f6a:	0005      	movs	r5, r0
     f6c:	0016      	movs	r6, r2
     f6e:	000c      	movs	r4, r1
     f70:	f7ff fd52 	bl	a18 <FLASH_UserMode_Enter>
     f74:	f7ff ff52 	bl	e1c <FLASH_WriteEn_InUserMode>
     f78:	0032      	movs	r2, r6
     f7a:	0028      	movs	r0, r5
     f7c:	b2e1      	uxtb	r1, r4
     f7e:	f7ff ff1f 	bl	dc0 <FLASH_TxCmd_InUserMode>
     f82:	2001      	movs	r0, #1
     f84:	f7ff fe52 	bl	c2c <FLASH_WaitBusy_InUserMode>
     f88:	f7ff fd52 	bl	a30 <FLASH_UserMode_Exit>
     f8c:	bd70      	pop	{r4, r5, r6, pc}

00000f8e <FLASH_Erase>:
     f8e:	b5f7      	push	{r0, r1, r2, r4, r5, r6, r7, lr}
     f90:	0007      	movs	r7, r0
     f92:	000d      	movs	r5, r1
     f94:	2802      	cmp	r0, #2
     f96:	d905      	bls.n	fa4 <FLASH_Erase+0x16>
     f98:	481a      	ldr	r0, [pc, #104]	; (1004 <FLASH_Erase+0x76>)
     f9a:	f240 2136 	movw	r1, #566	; 0x236
     f9e:	300d      	adds	r0, #13
     fa0:	f7ff f8b8 	bl	114 <io_assert_failed>
     fa4:	4c18      	ldr	r4, [pc, #96]	; (1008 <FLASH_Erase+0x7a>)
     fa6:	0c29      	lsrs	r1, r5, #16
     fa8:	0023      	movs	r3, r4
     faa:	3354      	adds	r3, #84	; 0x54
     fac:	781e      	ldrb	r6, [r3, #0]
     fae:	0a2a      	lsrs	r2, r5, #8
     fb0:	b2c9      	uxtb	r1, r1
     fb2:	b2d2      	uxtb	r2, r2
     fb4:	b2e8      	uxtb	r0, r5
     fb6:	2e04      	cmp	r6, #4
     fb8:	d112      	bne.n	fe0 <FLASH_Erase+0x52>
     fba:	ba2d      	rev	r5, r5
     fbc:	9501      	str	r5, [sp, #4]
     fbe:	f7ff fd2b 	bl	a18 <FLASH_UserMode_Enter>
     fc2:	f7ff ff2b 	bl	e1c <FLASH_WriteEn_InUserMode>
     fc6:	b98f      	cbnz	r7, fec <FLASH_Erase+0x5e>
     fc8:	003a      	movs	r2, r7
     fca:	0039      	movs	r1, r7
     fcc:	3446      	adds	r4, #70	; 0x46
     fce:	7820      	ldrb	r0, [r4, #0]
     fd0:	f7ff fef6 	bl	dc0 <FLASH_TxCmd_InUserMode>
     fd4:	2001      	movs	r0, #1
     fd6:	f7ff fe29 	bl	c2c <FLASH_WaitBusy_InUserMode>
     fda:	f7ff fd29 	bl	a30 <FLASH_UserMode_Exit>
     fde:	bdf7      	pop	{r0, r1, r2, r4, r5, r6, r7, pc}
     fe0:	ab01      	add	r3, sp, #4
     fe2:	2603      	movs	r6, #3
     fe4:	7019      	strb	r1, [r3, #0]
     fe6:	705a      	strb	r2, [r3, #1]
     fe8:	7098      	strb	r0, [r3, #2]
     fea:	e7e8      	b.n	fbe <FLASH_Erase+0x30>
     fec:	2f01      	cmp	r7, #1
     fee:	d104      	bne.n	ffa <FLASH_Erase+0x6c>
     ff0:	3447      	adds	r4, #71	; 0x47
     ff2:	0031      	movs	r1, r6
     ff4:	7820      	ldrb	r0, [r4, #0]
     ff6:	aa01      	add	r2, sp, #4
     ff8:	e7ea      	b.n	fd0 <FLASH_Erase+0x42>
     ffa:	2f02      	cmp	r7, #2
     ffc:	d1ea      	bne.n	fd4 <FLASH_Erase+0x46>
     ffe:	3448      	adds	r4, #72	; 0x48
    1000:	e7f7      	b.n	ff2 <FLASH_Erase+0x64>
    1002:	bf00      	nop
    1004:	0000a257 	.word	0x0000a257
    1008:	20000404 	.word	0x20000404

0000100c <FLASH_Addr4ByteEn>:
    100c:	b510      	push	{r4, lr}
    100e:	f7ff fd03 	bl	a18 <FLASH_UserMode_Enter>
    1012:	f7ff ff03 	bl	e1c <FLASH_WriteEn_InUserMode>
    1016:	2200      	movs	r2, #0
    1018:	20b7      	movs	r0, #183	; 0xb7
    101a:	0011      	movs	r1, r2
    101c:	f7ff fed0 	bl	dc0 <FLASH_TxCmd_InUserMode>
    1020:	2001      	movs	r0, #1
    1022:	f7ff fe03 	bl	c2c <FLASH_WaitBusy_InUserMode>
    1026:	f7ff fd03 	bl	a30 <FLASH_UserMode_Exit>
    102a:	bd10      	pop	{r4, pc}

0000102c <FLASH_Addr4ByteDis>:
    102c:	b510      	push	{r4, lr}
    102e:	f7ff fcf3 	bl	a18 <FLASH_UserMode_Enter>
    1032:	f7ff fef3 	bl	e1c <FLASH_WriteEn_InUserMode>
    1036:	2200      	movs	r2, #0
    1038:	20e9      	movs	r0, #233	; 0xe9
    103a:	0011      	movs	r1, r2
    103c:	f7ff fec0 	bl	dc0 <FLASH_TxCmd_InUserMode>
    1040:	2001      	movs	r0, #1
    1042:	f7ff fdf3 	bl	c2c <FLASH_WaitBusy_InUserMode>
    1046:	f7ff fcf3 	bl	a30 <FLASH_UserMode_Exit>
    104a:	bd10      	pop	{r4, pc}

0000104c <FLASH_DeepPowerDown>:
    104c:	b570      	push	{r4, r5, r6, lr}
    104e:	4b11      	ldr	r3, [pc, #68]	; (1094 <FLASH_DeepPowerDown+0x48>)
    1050:	0005      	movs	r5, r0
    1052:	4798      	blx	r3
    1054:	b170      	cbz	r0, 1074 <FLASH_DeepPowerDown+0x28>
    1056:	4c10      	ldr	r4, [pc, #64]	; (1098 <FLASH_DeepPowerDown+0x4c>)
    1058:	2d01      	cmp	r5, #1
    105a:	d10c      	bne.n	1076 <FLASH_DeepPowerDown+0x2a>
    105c:	f7ff fcdc 	bl	a18 <FLASH_UserMode_Enter>
    1060:	f7ff fedc 	bl	e1c <FLASH_WriteEn_InUserMode>
    1064:	2200      	movs	r2, #0
    1066:	344a      	adds	r4, #74	; 0x4a
    1068:	0011      	movs	r1, r2
    106a:	7820      	ldrb	r0, [r4, #0]
    106c:	f7ff fea8 	bl	dc0 <FLASH_TxCmd_InUserMode>
    1070:	f7ff fcde 	bl	a30 <FLASH_UserMode_Exit>
    1074:	bd70      	pop	{r4, r5, r6, pc}
    1076:	f7ff fccf 	bl	a18 <FLASH_UserMode_Enter>
    107a:	2200      	movs	r2, #0
    107c:	3449      	adds	r4, #73	; 0x49
    107e:	0011      	movs	r1, r2
    1080:	7820      	ldrb	r0, [r4, #0]
    1082:	f7ff fe9d 	bl	dc0 <FLASH_TxCmd_InUserMode>
    1086:	2064      	movs	r0, #100	; 0x64
    1088:	4b04      	ldr	r3, [pc, #16]	; (109c <FLASH_DeepPowerDown+0x50>)
    108a:	4798      	blx	r3
    108c:	2001      	movs	r0, #1
    108e:	f7ff fdcd 	bl	c2c <FLASH_WaitBusy_InUserMode>
    1092:	e7ed      	b.n	1070 <FLASH_DeepPowerDown+0x24>
    1094:	00003035 	.word	0x00003035
    1098:	20000404 	.word	0x20000404
    109c:	0000056b 	.word	0x0000056b

000010a0 <FLASH_SetStatusBits>:
    10a0:	b5f0      	push	{r4, r5, r6, r7, lr}
    10a2:	4d28      	ldr	r5, [pc, #160]	; (1144 <FLASH_SetStatusBits+0xa4>)
    10a4:	b085      	sub	sp, #20
    10a6:	0006      	movs	r6, r0
    10a8:	9101      	str	r1, [sp, #4]
    10aa:	f7ff fcb5 	bl	a18 <FLASH_UserMode_Enter>
    10ae:	002b      	movs	r3, r5
    10b0:	ac03      	add	r4, sp, #12
    10b2:	3342      	adds	r3, #66	; 0x42
    10b4:	0022      	movs	r2, r4
    10b6:	2101      	movs	r1, #1
    10b8:	7818      	ldrb	r0, [r3, #0]
    10ba:	f7ff fd69 	bl	b90 <FLASH_RxCmd_InUserMode>
    10be:	7823      	ldrb	r3, [r4, #0]
    10c0:	9901      	ldr	r1, [sp, #4]
    10c2:	001a      	movs	r2, r3
    10c4:	43b2      	bics	r2, r6
    10c6:	2901      	cmp	r1, #1
    10c8:	d101      	bne.n	10ce <FLASH_SetStatusBits+0x2e>
    10ca:	4333      	orrs	r3, r6
    10cc:	b2da      	uxtb	r2, r3
    10ce:	69ab      	ldr	r3, [r5, #24]
    10d0:	2701      	movs	r7, #1
    10d2:	7022      	strb	r2, [r4, #0]
    10d4:	b17b      	cbz	r3, 10f6 <FLASH_SetStatusBits+0x56>
    10d6:	002b      	movs	r3, r5
    10d8:	3343      	adds	r3, #67	; 0x43
    10da:	7818      	ldrb	r0, [r3, #0]
    10dc:	ab02      	add	r3, sp, #8
    10de:	1d5a      	adds	r2, r3, #5
    10e0:	0039      	movs	r1, r7
    10e2:	f7ff fd55 	bl	b90 <FLASH_RxCmd_InUserMode>
    10e6:	9b01      	ldr	r3, [sp, #4]
    10e8:	7860      	ldrb	r0, [r4, #1]
    10ea:	0a36      	lsrs	r6, r6, #8
    10ec:	42bb      	cmp	r3, r7
    10ee:	d115      	bne.n	111c <FLASH_SetStatusBits+0x7c>
    10f0:	4306      	orrs	r6, r0
    10f2:	7066      	strb	r6, [r4, #1]
    10f4:	2702      	movs	r7, #2
    10f6:	002e      	movs	r6, r5
    10f8:	3645      	adds	r6, #69	; 0x45
    10fa:	7833      	ldrb	r3, [r6, #0]
    10fc:	3544      	adds	r5, #68	; 0x44
    10fe:	b983      	cbnz	r3, 1122 <FLASH_SetStatusBits+0x82>
    1100:	f7ff fe8c 	bl	e1c <FLASH_WriteEn_InUserMode>
    1104:	0022      	movs	r2, r4
    1106:	0039      	movs	r1, r7
    1108:	7828      	ldrb	r0, [r5, #0]
    110a:	f7ff fe59 	bl	dc0 <FLASH_TxCmd_InUserMode>
    110e:	2001      	movs	r0, #1
    1110:	f7ff fd8c 	bl	c2c <FLASH_WaitBusy_InUserMode>
    1114:	f7ff fc8c 	bl	a30 <FLASH_UserMode_Exit>
    1118:	b005      	add	sp, #20
    111a:	bdf0      	pop	{r4, r5, r6, r7, pc}
    111c:	43b0      	bics	r0, r6
    111e:	7060      	strb	r0, [r4, #1]
    1120:	e7e8      	b.n	10f4 <FLASH_SetStatusBits+0x54>
    1122:	f7ff fe7b 	bl	e1c <FLASH_WriteEn_InUserMode>
    1126:	0022      	movs	r2, r4
    1128:	2101      	movs	r1, #1
    112a:	7828      	ldrb	r0, [r5, #0]
    112c:	f7ff fe48 	bl	dc0 <FLASH_TxCmd_InUserMode>
    1130:	2001      	movs	r0, #1
    1132:	f7ff fd7b 	bl	c2c <FLASH_WaitBusy_InUserMode>
    1136:	f7ff fe71 	bl	e1c <FLASH_WriteEn_InUserMode>
    113a:	ab02      	add	r3, sp, #8
    113c:	2101      	movs	r1, #1
    113e:	7830      	ldrb	r0, [r6, #0]
    1140:	1d5a      	adds	r2, r3, #5
    1142:	e7e2      	b.n	110a <FLASH_SetStatusBits+0x6a>
    1144:	20000404 	.word	0x20000404

00001148 <FLASH_StructInit_Micron>:
    1148:	b530      	push	{r4, r5, lr}
    114a:	0004      	movs	r4, r0
    114c:	2201      	movs	r2, #1
    114e:	2300      	movs	r3, #0
    1150:	2103      	movs	r1, #3
    1152:	f240 5500 	movw	r5, #1280	; 0x500
    1156:	344d      	adds	r4, #77	; 0x4d
    1158:	6001      	str	r1, [r0, #0]
    115a:	7142      	strb	r2, [r0, #5]
    115c:	7023      	strb	r3, [r4, #0]
    115e:	18a4      	adds	r4, r4, r2
    1160:	8025      	strh	r5, [r4, #0]
    1162:	4c10      	ldr	r4, [pc, #64]	; (11a4 <FLASH_StructInit_Micron+0x5c>)
    1164:	6504      	str	r4, [r0, #80]	; 0x50
    1166:	0004      	movs	r4, r0
    1168:	3454      	adds	r4, #84	; 0x54
    116a:	8021      	strh	r1, [r4, #0]
    116c:	60c3      	str	r3, [r0, #12]
    116e:	6183      	str	r3, [r0, #24]
    1170:	333b      	adds	r3, #59	; 0x3b
    1172:	61c3      	str	r3, [r0, #28]
    1174:	3380      	adds	r3, #128	; 0x80
    1176:	6203      	str	r3, [r0, #32]
    1178:	63c3      	str	r3, [r0, #60]	; 0x3c
    117a:	4b0b      	ldr	r3, [pc, #44]	; (11a8 <FLASH_StructInit_Micron+0x60>)
    117c:	6102      	str	r2, [r0, #16]
    117e:	6403      	str	r3, [r0, #64]	; 0x40
    1180:	1892      	adds	r2, r2, r2
    1182:	4b0a      	ldr	r3, [pc, #40]	; (11ac <FLASH_StructInit_Micron+0x64>)
    1184:	6142      	str	r2, [r0, #20]
    1186:	62c2      	str	r2, [r0, #44]	; 0x2c
    1188:	3202      	adds	r2, #2
    118a:	3168      	adds	r1, #104	; 0x68
    118c:	6302      	str	r2, [r0, #48]	; 0x30
    118e:	6443      	str	r3, [r0, #68]	; 0x44
    1190:	3204      	adds	r2, #4
    1192:	4b07      	ldr	r3, [pc, #28]	; (11b0 <FLASH_StructInit_Micron+0x68>)
    1194:	6241      	str	r1, [r0, #36]	; 0x24
    1196:	6342      	str	r2, [r0, #52]	; 0x34
    1198:	3180      	adds	r1, #128	; 0x80
    119a:	3208      	adds	r2, #8
    119c:	6281      	str	r1, [r0, #40]	; 0x28
    119e:	6382      	str	r2, [r0, #56]	; 0x38
    11a0:	6483      	str	r3, [r0, #72]	; 0x48
    11a2:	bd30      	pop	{r4, r5, pc}
    11a4:	00090905 	.word	0x00090905
    11a8:	00059f06 	.word	0x00059f06
    11ac:	d8c70001 	.word	0xd8c70001
    11b0:	00b9ab20 	.word	0x00b9ab20

000011b4 <FLASH_StructInit_MXIC>:
    11b4:	0002      	movs	r2, r0
    11b6:	2301      	movs	r3, #1
    11b8:	2100      	movs	r1, #0
    11ba:	b510      	push	{r4, lr}
    11bc:	f640 0400 	movw	r4, #2048	; 0x800
    11c0:	324d      	adds	r2, #77	; 0x4d
    11c2:	6003      	str	r3, [r0, #0]
    11c4:	7143      	strb	r3, [r0, #5]
    11c6:	7011      	strb	r1, [r2, #0]
    11c8:	18d2      	adds	r2, r2, r3
    11ca:	8014      	strh	r4, [r2, #0]
    11cc:	4a11      	ldr	r2, [pc, #68]	; (1214 <FLASH_StructInit_MXIC+0x60>)
    11ce:	2403      	movs	r4, #3
    11d0:	6502      	str	r2, [r0, #80]	; 0x50
    11d2:	0002      	movs	r2, r0
    11d4:	3254      	adds	r2, #84	; 0x54
    11d6:	8014      	strh	r4, [r2, #0]
    11d8:	2240      	movs	r2, #64	; 0x40
    11da:	6103      	str	r3, [r0, #16]
    11dc:	333a      	adds	r3, #58	; 0x3a
    11de:	61c3      	str	r3, [r0, #28]
    11e0:	3380      	adds	r3, #128	; 0x80
    11e2:	6203      	str	r3, [r0, #32]
    11e4:	63c3      	str	r3, [r0, #60]	; 0x3c
    11e6:	4b0c      	ldr	r3, [pc, #48]	; (1218 <FLASH_StructInit_MXIC+0x64>)
    11e8:	60c2      	str	r2, [r0, #12]
    11ea:	6403      	str	r3, [r0, #64]	; 0x40
    11ec:	3a3e      	subs	r2, #62	; 0x3e
    11ee:	4b0b      	ldr	r3, [pc, #44]	; (121c <FLASH_StructInit_MXIC+0x68>)
    11f0:	6142      	str	r2, [r0, #20]
    11f2:	62c2      	str	r2, [r0, #44]	; 0x2c
    11f4:	3202      	adds	r2, #2
    11f6:	6181      	str	r1, [r0, #24]
    11f8:	6302      	str	r2, [r0, #48]	; 0x30
    11fa:	316b      	adds	r1, #107	; 0x6b
    11fc:	3204      	adds	r2, #4
    11fe:	6443      	str	r3, [r0, #68]	; 0x44
    1200:	4b07      	ldr	r3, [pc, #28]	; (1220 <FLASH_StructInit_MXIC+0x6c>)
    1202:	6241      	str	r1, [r0, #36]	; 0x24
    1204:	6342      	str	r2, [r0, #52]	; 0x34
    1206:	3180      	adds	r1, #128	; 0x80
    1208:	3208      	adds	r2, #8
    120a:	6281      	str	r1, [r0, #40]	; 0x28
    120c:	6382      	str	r2, [r0, #56]	; 0x38
    120e:	6483      	str	r3, [r0, #72]	; 0x48
    1210:	bd10      	pop	{r4, pc}
    1212:	bf00      	nop
    1214:	00060804 	.word	0x00060804
    1218:	00059f06 	.word	0x00059f06
    121c:	d8600001 	.word	0xd8600001
    1220:	00b9ab20 	.word	0x00b9ab20

00001224 <FLASH_StructInit_GD>:
    1224:	2305      	movs	r3, #5
    1226:	0002      	movs	r2, r0
    1228:	2100      	movs	r1, #0
    122a:	6003      	str	r3, [r0, #0]
    122c:	324d      	adds	r2, #77	; 0x4d
    122e:	3b04      	subs	r3, #4
    1230:	7143      	strb	r3, [r0, #5]
    1232:	7011      	strb	r1, [r2, #0]
    1234:	f640 0100 	movw	r1, #2048	; 0x800
    1238:	3201      	adds	r2, #1
    123a:	8011      	strh	r1, [r2, #0]
    123c:	4a12      	ldr	r2, [pc, #72]	; (1288 <FLASH_StructInit_GD+0x64>)
    123e:	2103      	movs	r1, #3
    1240:	6502      	str	r2, [r0, #80]	; 0x50
    1242:	0002      	movs	r2, r0
    1244:	3254      	adds	r2, #84	; 0x54
    1246:	8011      	strh	r1, [r2, #0]
    1248:	f240 2200 	movw	r2, #512	; 0x200
    124c:	6103      	str	r3, [r0, #16]
    124e:	6183      	str	r3, [r0, #24]
    1250:	333a      	adds	r3, #58	; 0x3a
    1252:	61c3      	str	r3, [r0, #28]
    1254:	3380      	adds	r3, #128	; 0x80
    1256:	6203      	str	r3, [r0, #32]
    1258:	63c3      	str	r3, [r0, #60]	; 0x3c
    125a:	4b0c      	ldr	r3, [pc, #48]	; (128c <FLASH_StructInit_GD+0x68>)
    125c:	60c2      	str	r2, [r0, #12]
    125e:	3aff      	subs	r2, #255	; 0xff
    1260:	3aff      	subs	r2, #255	; 0xff
    1262:	6403      	str	r3, [r0, #64]	; 0x40
    1264:	4b0a      	ldr	r3, [pc, #40]	; (1290 <FLASH_StructInit_GD+0x6c>)
    1266:	6142      	str	r2, [r0, #20]
    1268:	62c2      	str	r2, [r0, #44]	; 0x2c
    126a:	3202      	adds	r2, #2
    126c:	3168      	adds	r1, #104	; 0x68
    126e:	6302      	str	r2, [r0, #48]	; 0x30
    1270:	6443      	str	r3, [r0, #68]	; 0x44
    1272:	3204      	adds	r2, #4
    1274:	4b07      	ldr	r3, [pc, #28]	; (1294 <FLASH_StructInit_GD+0x70>)
    1276:	6241      	str	r1, [r0, #36]	; 0x24
    1278:	6342      	str	r2, [r0, #52]	; 0x34
    127a:	3180      	adds	r1, #128	; 0x80
    127c:	3208      	adds	r2, #8
    127e:	6281      	str	r1, [r0, #40]	; 0x28
    1280:	6382      	str	r2, [r0, #56]	; 0x38
    1282:	6483      	str	r3, [r0, #72]	; 0x48
    1284:	4770      	bx	lr
    1286:	bf00      	nop
    1288:	00060804 	.word	0x00060804
    128c:	35059f06 	.word	0x35059f06
    1290:	d8600001 	.word	0xd8600001
    1294:	00b9ab20 	.word	0x00b9ab20

00001298 <FLASH_StructInit>:
    1298:	0001      	movs	r1, r0
    129a:	b510      	push	{r4, lr}
    129c:	2201      	movs	r2, #1
    129e:	2302      	movs	r3, #2
    12a0:	2400      	movs	r4, #0
    12a2:	314d      	adds	r1, #77	; 0x4d
    12a4:	6003      	str	r3, [r0, #0]
    12a6:	7142      	strb	r2, [r0, #5]
    12a8:	700c      	strb	r4, [r1, #0]
    12aa:	f640 0400 	movw	r4, #2048	; 0x800
    12ae:	1889      	adds	r1, r1, r2
    12b0:	800c      	strh	r4, [r1, #0]
    12b2:	4912      	ldr	r1, [pc, #72]	; (12fc <FLASH_StructInit+0x64>)
    12b4:	2403      	movs	r4, #3
    12b6:	6501      	str	r1, [r0, #80]	; 0x50
    12b8:	0001      	movs	r1, r0
    12ba:	3154      	adds	r1, #84	; 0x54
    12bc:	800c      	strh	r4, [r1, #0]
    12be:	f240 2100 	movw	r1, #512	; 0x200
    12c2:	6143      	str	r3, [r0, #20]
    12c4:	62c3      	str	r3, [r0, #44]	; 0x2c
    12c6:	18db      	adds	r3, r3, r3
    12c8:	6303      	str	r3, [r0, #48]	; 0x30
    12ca:	3304      	adds	r3, #4
    12cc:	6343      	str	r3, [r0, #52]	; 0x34
    12ce:	3308      	adds	r3, #8
    12d0:	6383      	str	r3, [r0, #56]	; 0x38
    12d2:	4b0b      	ldr	r3, [pc, #44]	; (1300 <FLASH_StructInit+0x68>)
    12d4:	60c1      	str	r1, [r0, #12]
    12d6:	6403      	str	r3, [r0, #64]	; 0x40
    12d8:	4b0a      	ldr	r3, [pc, #40]	; (1304 <FLASH_StructInit+0x6c>)
    12da:	3996      	subs	r1, #150	; 0x96
    12dc:	6102      	str	r2, [r0, #16]
    12de:	6182      	str	r2, [r0, #24]
    12e0:	39ff      	subs	r1, #255	; 0xff
    12e2:	323a      	adds	r2, #58	; 0x3a
    12e4:	6443      	str	r3, [r0, #68]	; 0x44
    12e6:	4b08      	ldr	r3, [pc, #32]	; (1308 <FLASH_StructInit+0x70>)
    12e8:	61c2      	str	r2, [r0, #28]
    12ea:	6241      	str	r1, [r0, #36]	; 0x24
    12ec:	3280      	adds	r2, #128	; 0x80
    12ee:	3180      	adds	r1, #128	; 0x80
    12f0:	6202      	str	r2, [r0, #32]
    12f2:	6281      	str	r1, [r0, #40]	; 0x28
    12f4:	63c2      	str	r2, [r0, #60]	; 0x3c
    12f6:	6483      	str	r3, [r0, #72]	; 0x48
    12f8:	bd10      	pop	{r4, pc}
    12fa:	bf00      	nop
    12fc:	00060804 	.word	0x00060804
    1300:	35059f06 	.word	0x35059f06
    1304:	d8600001 	.word	0xd8600001
    1308:	00b9ab20 	.word	0x00b9ab20

0000130c <FLASH_Init>:
    130c:	b570      	push	{r4, r5, r6, lr}
    130e:	0004      	movs	r4, r0
    1310:	4d06      	ldr	r5, [pc, #24]	; (132c <FLASH_Init+0x20>)
    1312:	4e07      	ldr	r6, [pc, #28]	; (1330 <FLASH_Init+0x24>)
    1314:	0029      	movs	r1, r5
    1316:	0030      	movs	r0, r6
    1318:	f7ff fb92 	bl	a40 <FLASH_Config>
    131c:	0030      	movs	r0, r6
    131e:	0029      	movs	r1, r5
    1320:	0022      	movs	r2, r4
    1322:	712c      	strb	r4, [r5, #4]
    1324:	f7ff fbcc 	bl	ac0 <FLASH_SetSpiMode>
    1328:	2001      	movs	r0, #1
    132a:	bd70      	pop	{r4, r5, r6, pc}
    132c:	20000404 	.word	0x20000404
    1330:	40128000 	.word	0x40128000

00001334 <FLASH_Wait_Boot_Finish>:
    1334:	b570      	push	{r4, r5, r6, lr}
    1336:	f240 6473 	movw	r4, #1651	; 0x673
    133a:	2580      	movs	r5, #128	; 0x80
    133c:	3c01      	subs	r4, #1
    133e:	b904      	cbnz	r4, 1342 <FLASH_Wait_Boot_Finish+0xe>
    1340:	bd70      	pop	{r4, r5, r6, pc}
    1342:	4b04      	ldr	r3, [pc, #16]	; (1354 <FLASH_Wait_Boot_Finish+0x20>)
    1344:	6a9b      	ldr	r3, [r3, #40]	; 0x28
    1346:	422b      	tst	r3, r5
    1348:	d1fa      	bne.n	1340 <FLASH_Wait_Boot_Finish+0xc>
    134a:	2001      	movs	r0, #1
    134c:	4b02      	ldr	r3, [pc, #8]	; (1358 <FLASH_Wait_Boot_Finish+0x24>)
    134e:	4798      	blx	r3
    1350:	e7f4      	b.n	133c <FLASH_Wait_Boot_Finish+0x8>
    1352:	bf00      	nop
    1354:	40128000 	.word	0x40128000
    1358:	0000056b 	.word	0x0000056b

0000135c <GPIO_INTMode>:
    135c:	b5f0      	push	{r4, r5, r6, r7, lr}
    135e:	0644      	lsls	r4, r0, #25
    1360:	4d16      	ldr	r5, [pc, #88]	; (13bc <GPIO_INTMode+0x60>)
    1362:	0fa4      	lsrs	r4, r4, #30
    1364:	261f      	movs	r6, #31
    1366:	00a4      	lsls	r4, r4, #2
    1368:	5964      	ldr	r4, [r4, r5]
    136a:	2501      	movs	r5, #1
    136c:	4006      	ands	r6, r0
    136e:	40b5      	lsls	r5, r6
    1370:	2901      	cmp	r1, #1
    1372:	d116      	bne.n	13a2 <GPIO_INTMode+0x46>
    1374:	43e8      	mvns	r0, r5
    1376:	2a02      	cmp	r2, #2
    1378:	d01c      	beq.n	13b4 <GPIO_INTMode+0x58>
    137a:	40b2      	lsls	r2, r6
    137c:	40b3      	lsls	r3, r6
    137e:	6ea7      	ldr	r7, [r4, #104]	; 0x68
    1380:	4007      	ands	r7, r0
    1382:	66a7      	str	r7, [r4, #104]	; 0x68
    1384:	6ba7      	ldr	r7, [r4, #56]	; 0x38
    1386:	4007      	ands	r7, r0
    1388:	433a      	orrs	r2, r7
    138a:	63a2      	str	r2, [r4, #56]	; 0x38
    138c:	6be2      	ldr	r2, [r4, #60]	; 0x3c
    138e:	4002      	ands	r2, r0
    1390:	4313      	orrs	r3, r2
    1392:	63e3      	str	r3, [r4, #60]	; 0x3c
    1394:	6ca3      	ldr	r3, [r4, #72]	; 0x48
    1396:	4018      	ands	r0, r3
    1398:	9b05      	ldr	r3, [sp, #20]
    139a:	2b01      	cmp	r3, #1
    139c:	d100      	bne.n	13a0 <GPIO_INTMode+0x44>
    139e:	4328      	orrs	r0, r5
    13a0:	64a0      	str	r0, [r4, #72]	; 0x48
    13a2:	6b22      	ldr	r2, [r4, #48]	; 0x30
    13a4:	0013      	movs	r3, r2
    13a6:	43ab      	bics	r3, r5
    13a8:	2901      	cmp	r1, #1
    13aa:	d101      	bne.n	13b0 <GPIO_INTMode+0x54>
    13ac:	002b      	movs	r3, r5
    13ae:	4313      	orrs	r3, r2
    13b0:	6323      	str	r3, [r4, #48]	; 0x30
    13b2:	bdf0      	pop	{r4, r5, r6, r7, pc}
    13b4:	6ea3      	ldr	r3, [r4, #104]	; 0x68
    13b6:	432b      	orrs	r3, r5
    13b8:	66a3      	str	r3, [r4, #104]	; 0x68
    13ba:	e7eb      	b.n	1394 <GPIO_INTMode+0x38>
    13bc:	0000a058 	.word	0x0000a058

000013c0 <GPIO_INTConfig>:
    13c0:	0643      	lsls	r3, r0, #25
    13c2:	4a09      	ldr	r2, [pc, #36]	; (13e8 <GPIO_INTConfig+0x28>)
    13c4:	0f9b      	lsrs	r3, r3, #30
    13c6:	009b      	lsls	r3, r3, #2
    13c8:	589a      	ldr	r2, [r3, r2]
    13ca:	231f      	movs	r3, #31
    13cc:	4018      	ands	r0, r3
    13ce:	3b1e      	subs	r3, #30
    13d0:	4083      	lsls	r3, r0
    13d2:	b510      	push	{r4, lr}
    13d4:	64d3      	str	r3, [r2, #76]	; 0x4c
    13d6:	6b54      	ldr	r4, [r2, #52]	; 0x34
    13d8:	0020      	movs	r0, r4
    13da:	4398      	bics	r0, r3
    13dc:	b909      	cbnz	r1, 13e2 <GPIO_INTConfig+0x22>
    13de:	4323      	orrs	r3, r4
    13e0:	0018      	movs	r0, r3
    13e2:	6350      	str	r0, [r2, #52]	; 0x34
    13e4:	bd10      	pop	{r4, pc}
    13e6:	bf00      	nop
    13e8:	0000a058 	.word	0x0000a058

000013ec <GPIO_INTHandler>:
    13ec:	b5f8      	push	{r3, r4, r5, r6, r7, lr}
    13ee:	6d06      	ldr	r6, [r0, #80]	; 0x50
    13f0:	4b22      	ldr	r3, [pc, #136]	; (147c <GPIO_INTHandler+0x90>)
    13f2:	6c05      	ldr	r5, [r0, #64]	; 0x40
    13f4:	64c5      	str	r5, [r0, #76]	; 0x4c
    13f6:	4298      	cmp	r0, r3
    13f8:	d002      	beq.n	1400 <GPIO_INTHandler+0x14>
    13fa:	4b21      	ldr	r3, [pc, #132]	; (1480 <GPIO_INTHandler+0x94>)
    13fc:	4298      	cmp	r0, r3
    13fe:	d11c      	bne.n	143a <GPIO_INTHandler+0x4e>
    1400:	2400      	movs	r4, #0
    1402:	2301      	movs	r3, #1
    1404:	40a3      	lsls	r3, r4
    1406:	469c      	mov	ip, r3
    1408:	421d      	tst	r5, r3
    140a:	d011      	beq.n	1430 <GPIO_INTHandler+0x44>
    140c:	4a1d      	ldr	r2, [pc, #116]	; (1484 <GPIO_INTHandler+0x98>)
    140e:	00a3      	lsls	r3, r4, #2
    1410:	189a      	adds	r2, r3, r2
    1412:	6812      	ldr	r2, [r2, #0]
    1414:	b162      	cbz	r2, 1430 <GPIO_INTHandler+0x44>
    1416:	2102      	movs	r1, #2
    1418:	4667      	mov	r7, ip
    141a:	0420      	lsls	r0, r4, #16
    141c:	4301      	orrs	r1, r0
    141e:	423e      	tst	r6, r7
    1420:	d002      	beq.n	1428 <GPIO_INTHandler+0x3c>
    1422:	0001      	movs	r1, r0
    1424:	2001      	movs	r0, #1
    1426:	4301      	orrs	r1, r0
    1428:	4817      	ldr	r0, [pc, #92]	; (1488 <GPIO_INTHandler+0x9c>)
    142a:	181b      	adds	r3, r3, r0
    142c:	6818      	ldr	r0, [r3, #0]
    142e:	4790      	blx	r2
    1430:	3401      	adds	r4, #1
    1432:	2c20      	cmp	r4, #32
    1434:	d1e5      	bne.n	1402 <GPIO_INTHandler+0x16>
    1436:	2000      	movs	r0, #0
    1438:	bdf8      	pop	{r3, r4, r5, r6, r7, pc}
    143a:	4b14      	ldr	r3, [pc, #80]	; (148c <GPIO_INTHandler+0xa0>)
    143c:	4298      	cmp	r0, r3
    143e:	d002      	beq.n	1446 <GPIO_INTHandler+0x5a>
    1440:	4b13      	ldr	r3, [pc, #76]	; (1490 <GPIO_INTHandler+0xa4>)
    1442:	4298      	cmp	r0, r3
    1444:	d1f7      	bne.n	1436 <GPIO_INTHandler+0x4a>
    1446:	2400      	movs	r4, #0
    1448:	2701      	movs	r7, #1
    144a:	0038      	movs	r0, r7
    144c:	40a0      	lsls	r0, r4
    144e:	4205      	tst	r5, r0
    1450:	d00d      	beq.n	146e <GPIO_INTHandler+0x82>
    1452:	4b10      	ldr	r3, [pc, #64]	; (1494 <GPIO_INTHandler+0xa8>)
    1454:	00a2      	lsls	r2, r4, #2
    1456:	18d3      	adds	r3, r2, r3
    1458:	681b      	ldr	r3, [r3, #0]
    145a:	b143      	cbz	r3, 146e <GPIO_INTHandler+0x82>
    145c:	0421      	lsls	r1, r4, #16
    145e:	4206      	tst	r6, r0
    1460:	d009      	beq.n	1476 <GPIO_INTHandler+0x8a>
    1462:	480d      	ldr	r0, [pc, #52]	; (1498 <GPIO_INTHandler+0xac>)
    1464:	4301      	orrs	r1, r0
    1466:	480d      	ldr	r0, [pc, #52]	; (149c <GPIO_INTHandler+0xb0>)
    1468:	1812      	adds	r2, r2, r0
    146a:	6810      	ldr	r0, [r2, #0]
    146c:	4798      	blx	r3
    146e:	3401      	adds	r4, #1
    1470:	2c20      	cmp	r4, #32
    1472:	d1ea      	bne.n	144a <GPIO_INTHandler+0x5e>
    1474:	e7df      	b.n	1436 <GPIO_INTHandler+0x4a>
    1476:	480a      	ldr	r0, [pc, #40]	; (14a0 <GPIO_INTHandler+0xb4>)
    1478:	e7f4      	b.n	1464 <GPIO_INTHandler+0x78>
    147a:	bf00      	nop
    147c:	41010000 	.word	0x41010000
    1480:	51010000 	.word	0x51010000
    1484:	200005dc 	.word	0x200005dc
    1488:	200004dc 	.word	0x200004dc
    148c:	41010400 	.word	0x41010400
    1490:	51010400 	.word	0x51010400
    1494:	2000055c 	.word	0x2000055c
    1498:	00200001 	.word	0x00200001
    149c:	2000045c 	.word	0x2000045c
    14a0:	00200002 	.word	0x00200002

000014a4 <GPIO_Direction>:
    14a4:	0643      	lsls	r3, r0, #25
    14a6:	4a08      	ldr	r2, [pc, #32]	; (14c8 <GPIO_Direction+0x24>)
    14a8:	0f9b      	lsrs	r3, r3, #30
    14aa:	009b      	lsls	r3, r3, #2
    14ac:	589b      	ldr	r3, [r3, r2]
    14ae:	221f      	movs	r2, #31
    14b0:	4010      	ands	r0, r2
    14b2:	3a1e      	subs	r2, #30
    14b4:	4082      	lsls	r2, r0
    14b6:	b919      	cbnz	r1, 14c0 <GPIO_Direction+0x1c>
    14b8:	6859      	ldr	r1, [r3, #4]
    14ba:	4391      	bics	r1, r2
    14bc:	6059      	str	r1, [r3, #4]
    14be:	4770      	bx	lr
    14c0:	6859      	ldr	r1, [r3, #4]
    14c2:	430a      	orrs	r2, r1
    14c4:	605a      	str	r2, [r3, #4]
    14c6:	e7fa      	b.n	14be <GPIO_Direction+0x1a>
    14c8:	0000a058 	.word	0x0000a058

000014cc <GPIO_Init>:
    14cc:	6803      	ldr	r3, [r0, #0]
    14ce:	b537      	push	{r0, r1, r2, r4, r5, lr}
    14d0:	0004      	movs	r4, r0
    14d2:	2b02      	cmp	r3, #2
    14d4:	d904      	bls.n	14e0 <GPIO_Init+0x14>
    14d6:	f240 1103 	movw	r1, #259	; 0x103
    14da:	4818      	ldr	r0, [pc, #96]	; (153c <GPIO_Init+0x70>)
    14dc:	f7fe fe1a 	bl	114 <io_assert_failed>
    14e0:	6963      	ldr	r3, [r4, #20]
    14e2:	2100      	movs	r1, #0
    14e4:	b2d8      	uxtb	r0, r3
    14e6:	4b16      	ldr	r3, [pc, #88]	; (1540 <GPIO_Init+0x74>)
    14e8:	4798      	blx	r3
    14ea:	6823      	ldr	r3, [r4, #0]
    14ec:	2100      	movs	r1, #0
    14ee:	4d15      	ldr	r5, [pc, #84]	; (1544 <GPIO_Init+0x78>)
    14f0:	2b02      	cmp	r3, #2
    14f2:	d10a      	bne.n	150a <GPIO_Init+0x3e>
    14f4:	6960      	ldr	r0, [r4, #20]
    14f6:	4b14      	ldr	r3, [pc, #80]	; (1548 <GPIO_Init+0x7c>)
    14f8:	4798      	blx	r3
    14fa:	6923      	ldr	r3, [r4, #16]
    14fc:	2101      	movs	r1, #1
    14fe:	9300      	str	r3, [sp, #0]
    1500:	68a2      	ldr	r2, [r4, #8]
    1502:	68e3      	ldr	r3, [r4, #12]
    1504:	6960      	ldr	r0, [r4, #20]
    1506:	47a8      	blx	r5
    1508:	bd37      	pop	{r0, r1, r2, r4, r5, pc}
    150a:	000b      	movs	r3, r1
    150c:	000a      	movs	r2, r1
    150e:	9100      	str	r1, [sp, #0]
    1510:	6960      	ldr	r0, [r4, #20]
    1512:	47a8      	blx	r5
    1514:	6821      	ldr	r1, [r4, #0]
    1516:	2901      	cmp	r1, #1
    1518:	d103      	bne.n	1522 <GPIO_Init+0x56>
    151a:	6960      	ldr	r0, [r4, #20]
    151c:	4b0a      	ldr	r3, [pc, #40]	; (1548 <GPIO_Init+0x7c>)
    151e:	4798      	blx	r3
    1520:	e7f2      	b.n	1508 <GPIO_Init+0x3c>
    1522:	2900      	cmp	r1, #0
    1524:	d1f0      	bne.n	1508 <GPIO_Init+0x3c>
    1526:	6960      	ldr	r0, [r4, #20]
    1528:	4b07      	ldr	r3, [pc, #28]	; (1548 <GPIO_Init+0x7c>)
    152a:	4798      	blx	r3
    152c:	6863      	ldr	r3, [r4, #4]
    152e:	6960      	ldr	r0, [r4, #20]
    1530:	b2d9      	uxtb	r1, r3
    1532:	b2c0      	uxtb	r0, r0
    1534:	4b05      	ldr	r3, [pc, #20]	; (154c <GPIO_Init+0x80>)
    1536:	4798      	blx	r3
    1538:	e7e6      	b.n	1508 <GPIO_Init+0x3c>
    153a:	bf00      	nop
    153c:	0000a270 	.word	0x0000a270
    1540:	00002ac5 	.word	0x00002ac5
    1544:	0000135d 	.word	0x0000135d
    1548:	000014a5 	.word	0x000014a5
    154c:	000029a1 	.word	0x000029a1

00001550 <GPIO_DeInit>:
    1550:	b5f8      	push	{r3, r4, r5, r6, r7, lr}
    1552:	0645      	lsls	r5, r0, #25
    1554:	4b10      	ldr	r3, [pc, #64]	; (1598 <GPIO_DeInit+0x48>)
    1556:	0fad      	lsrs	r5, r5, #30
    1558:	00aa      	lsls	r2, r5, #2
    155a:	58d6      	ldr	r6, [r2, r3]
    155c:	0004      	movs	r4, r0
    155e:	221f      	movs	r2, #31
    1560:	2701      	movs	r7, #1
    1562:	4014      	ands	r4, r2
    1564:	40a7      	lsls	r7, r4
    1566:	6873      	ldr	r3, [r6, #4]
    1568:	2100      	movs	r1, #0
    156a:	43bb      	bics	r3, r7
    156c:	6073      	str	r3, [r6, #4]
    156e:	b2c0      	uxtb	r0, r0
    1570:	4b0a      	ldr	r3, [pc, #40]	; (159c <GPIO_DeInit+0x4c>)
    1572:	4798      	blx	r3
    1574:	43fa      	mvns	r2, r7
    1576:	6b33      	ldr	r3, [r6, #48]	; 0x30
    1578:	00a4      	lsls	r4, r4, #2
    157a:	4013      	ands	r3, r2
    157c:	6333      	str	r3, [r6, #48]	; 0x30
    157e:	64f7      	str	r7, [r6, #76]	; 0x4c
    1580:	b925      	cbnz	r5, 158c <GPIO_DeInit+0x3c>
    1582:	4b07      	ldr	r3, [pc, #28]	; (15a0 <GPIO_DeInit+0x50>)
    1584:	511d      	str	r5, [r3, r4]
    1586:	4b07      	ldr	r3, [pc, #28]	; (15a4 <GPIO_DeInit+0x54>)
    1588:	511d      	str	r5, [r3, r4]
    158a:	bdf8      	pop	{r3, r4, r5, r6, r7, pc}
    158c:	2300      	movs	r3, #0
    158e:	4a06      	ldr	r2, [pc, #24]	; (15a8 <GPIO_DeInit+0x58>)
    1590:	5113      	str	r3, [r2, r4]
    1592:	4a06      	ldr	r2, [pc, #24]	; (15ac <GPIO_DeInit+0x5c>)
    1594:	5113      	str	r3, [r2, r4]
    1596:	e7f8      	b.n	158a <GPIO_DeInit+0x3a>
    1598:	0000a058 	.word	0x0000a058
    159c:	000029a1 	.word	0x000029a1
    15a0:	200005dc 	.word	0x200005dc
    15a4:	200004dc 	.word	0x200004dc
    15a8:	2000055c 	.word	0x2000055c
    15ac:	2000045c 	.word	0x2000045c

000015b0 <GPIO_ReadDataBit>:
    15b0:	0643      	lsls	r3, r0, #25
    15b2:	4a07      	ldr	r2, [pc, #28]	; (15d0 <GPIO_ReadDataBit+0x20>)
    15b4:	0f9b      	lsrs	r3, r3, #30
    15b6:	009b      	lsls	r3, r3, #2
    15b8:	589b      	ldr	r3, [r3, r2]
    15ba:	221f      	movs	r2, #31
    15bc:	4010      	ands	r0, r2
    15be:	3a1e      	subs	r2, #30
    15c0:	4082      	lsls	r2, r0
    15c2:	0010      	movs	r0, r2
    15c4:	6d1b      	ldr	r3, [r3, #80]	; 0x50
    15c6:	4018      	ands	r0, r3
    15c8:	1e43      	subs	r3, r0, #1
    15ca:	4198      	sbcs	r0, r3
    15cc:	4770      	bx	lr
    15ce:	bf00      	nop
    15d0:	0000a058 	.word	0x0000a058

000015d4 <GPIO_WriteBit>:
    15d4:	0643      	lsls	r3, r0, #25
    15d6:	4a08      	ldr	r2, [pc, #32]	; (15f8 <GPIO_WriteBit+0x24>)
    15d8:	0f9b      	lsrs	r3, r3, #30
    15da:	009b      	lsls	r3, r3, #2
    15dc:	589a      	ldr	r2, [r3, r2]
    15de:	231f      	movs	r3, #31
    15e0:	b510      	push	{r4, lr}
    15e2:	6814      	ldr	r4, [r2, #0]
    15e4:	4018      	ands	r0, r3
    15e6:	3b1e      	subs	r3, #30
    15e8:	4083      	lsls	r3, r0
    15ea:	0020      	movs	r0, r4
    15ec:	4318      	orrs	r0, r3
    15ee:	b909      	cbnz	r1, 15f4 <GPIO_WriteBit+0x20>
    15f0:	0020      	movs	r0, r4
    15f2:	4398      	bics	r0, r3
    15f4:	6010      	str	r0, [r2, #0]
    15f6:	bd10      	pop	{r4, pc}
    15f8:	0000a058 	.word	0x0000a058

000015fc <GPIO_PortDirection>:
    15fc:	b570      	push	{r4, r5, r6, lr}
    15fe:	0004      	movs	r4, r0
    1600:	000d      	movs	r5, r1
    1602:	0016      	movs	r6, r2
    1604:	2801      	cmp	r0, #1
    1606:	d905      	bls.n	1614 <GPIO_PortDirection+0x18>
    1608:	4808      	ldr	r0, [pc, #32]	; (162c <GPIO_PortDirection+0x30>)
    160a:	f240 11a2 	movw	r1, #418	; 0x1a2
    160e:	300a      	adds	r0, #10
    1610:	f7fe fd80 	bl	114 <io_assert_failed>
    1614:	4b06      	ldr	r3, [pc, #24]	; (1630 <GPIO_PortDirection+0x34>)
    1616:	00a4      	lsls	r4, r4, #2
    1618:	58e3      	ldr	r3, [r4, r3]
    161a:	6859      	ldr	r1, [r3, #4]
    161c:	000a      	movs	r2, r1
    161e:	432a      	orrs	r2, r5
    1620:	b90e      	cbnz	r6, 1626 <GPIO_PortDirection+0x2a>
    1622:	000a      	movs	r2, r1
    1624:	43aa      	bics	r2, r5
    1626:	605a      	str	r2, [r3, #4]
    1628:	bd70      	pop	{r4, r5, r6, pc}
    162a:	bf00      	nop
    162c:	0000a270 	.word	0x0000a270
    1630:	0000a058 	.word	0x0000a058

00001634 <GPIO_PortRead>:
    1634:	b570      	push	{r4, r5, r6, lr}
    1636:	0004      	movs	r4, r0
    1638:	000d      	movs	r5, r1
    163a:	2801      	cmp	r0, #1
    163c:	d905      	bls.n	164a <GPIO_PortRead+0x16>
    163e:	4806      	ldr	r0, [pc, #24]	; (1658 <GPIO_PortRead+0x24>)
    1640:	f240 11c6 	movw	r1, #454	; 0x1c6
    1644:	301d      	adds	r0, #29
    1646:	f7fe fd65 	bl	114 <io_assert_failed>
    164a:	4b04      	ldr	r3, [pc, #16]	; (165c <GPIO_PortRead+0x28>)
    164c:	00a4      	lsls	r4, r4, #2
    164e:	58e3      	ldr	r3, [r4, r3]
    1650:	6d18      	ldr	r0, [r3, #80]	; 0x50
    1652:	4028      	ands	r0, r5
    1654:	bd70      	pop	{r4, r5, r6, pc}
    1656:	bf00      	nop
    1658:	0000a270 	.word	0x0000a270
    165c:	0000a058 	.word	0x0000a058

00001660 <GPIO_PortWrite>:
    1660:	b570      	push	{r4, r5, r6, lr}
    1662:	0005      	movs	r5, r0
    1664:	000c      	movs	r4, r1
    1666:	0016      	movs	r6, r2
    1668:	2801      	cmp	r0, #1
    166a:	d905      	bls.n	1678 <GPIO_PortWrite+0x18>
    166c:	4807      	ldr	r0, [pc, #28]	; (168c <GPIO_PortWrite+0x2c>)
    166e:	f240 11e5 	movw	r1, #485	; 0x1e5
    1672:	302b      	adds	r0, #43	; 0x2b
    1674:	f7fe fd4e 	bl	114 <io_assert_failed>
    1678:	4b05      	ldr	r3, [pc, #20]	; (1690 <GPIO_PortWrite+0x30>)
    167a:	00ad      	lsls	r5, r5, #2
    167c:	58eb      	ldr	r3, [r5, r3]
    167e:	6819      	ldr	r1, [r3, #0]
    1680:	404e      	eors	r6, r1
    1682:	4034      	ands	r4, r6
    1684:	404c      	eors	r4, r1
    1686:	601c      	str	r4, [r3, #0]
    1688:	bd70      	pop	{r4, r5, r6, pc}
    168a:	bf00      	nop
    168c:	0000a270 	.word	0x0000a270
    1690:	0000a058 	.word	0x0000a058

00001694 <GPIO_DebounceClock>:
    1694:	b570      	push	{r4, r5, r6, lr}
    1696:	0006      	movs	r6, r0
    1698:	000c      	movs	r4, r1
    169a:	2801      	cmp	r0, #1
    169c:	d905      	bls.n	16aa <GPIO_DebounceClock+0x16>
    169e:	480b      	ldr	r0, [pc, #44]	; (16cc <GPIO_DebounceClock+0x38>)
    16a0:	f240 2105 	movw	r1, #517	; 0x205
    16a4:	303a      	adds	r0, #58	; 0x3a
    16a6:	f7fe fd35 	bl	114 <io_assert_failed>
    16aa:	4d09      	ldr	r5, [pc, #36]	; (16d0 <GPIO_DebounceClock+0x3c>)
    16ac:	6829      	ldr	r1, [r5, #0]
    16ae:	b93e      	cbnz	r6, 16c0 <GPIO_DebounceClock+0x2c>
    16b0:	000a      	movs	r2, r1
    16b2:	237f      	movs	r3, #127	; 0x7f
    16b4:	0021      	movs	r1, r4
    16b6:	439a      	bics	r2, r3
    16b8:	4019      	ands	r1, r3
    16ba:	4311      	orrs	r1, r2
    16bc:	6029      	str	r1, [r5, #0]
    16be:	bd70      	pop	{r4, r5, r6, pc}
    16c0:	4a04      	ldr	r2, [pc, #16]	; (16d4 <GPIO_DebounceClock+0x40>)
    16c2:	f647 7300 	movw	r3, #32512	; 0x7f00
    16c6:	400a      	ands	r2, r1
    16c8:	0221      	lsls	r1, r4, #8
    16ca:	e7f5      	b.n	16b8 <GPIO_DebounceClock+0x24>
    16cc:	0000a270 	.word	0x0000a270
    16d0:	410082a4 	.word	0x410082a4
    16d4:	ffff80ff 	.word	0xffff80ff

000016d8 <GPIO_LevelSync>:
    16d8:	b570      	push	{r4, r5, r6, lr}
    16da:	0004      	movs	r4, r0
    16dc:	000d      	movs	r5, r1
    16de:	2801      	cmp	r0, #1
    16e0:	d905      	bls.n	16ee <GPIO_LevelSync+0x16>
    16e2:	4808      	ldr	r0, [pc, #32]	; (1704 <GPIO_LevelSync+0x2c>)
    16e4:	f240 2125 	movw	r1, #549	; 0x225
    16e8:	304d      	adds	r0, #77	; 0x4d
    16ea:	f7fe fd13 	bl	114 <io_assert_failed>
    16ee:	4b06      	ldr	r3, [pc, #24]	; (1708 <GPIO_LevelSync+0x30>)
    16f0:	00a4      	lsls	r4, r4, #2
    16f2:	58e3      	ldr	r3, [r4, r3]
    16f4:	2d01      	cmp	r5, #1
    16f6:	d101      	bne.n	16fc <GPIO_LevelSync+0x24>
    16f8:	661d      	str	r5, [r3, #96]	; 0x60
    16fa:	bd70      	pop	{r4, r5, r6, pc}
    16fc:	2200      	movs	r2, #0
    16fe:	661a      	str	r2, [r3, #96]	; 0x60
    1700:	e7fb      	b.n	16fa <GPIO_LevelSync+0x22>
    1702:	bf00      	nop
    1704:	0000a270 	.word	0x0000a270
    1708:	0000a058 	.word	0x0000a058

0000170c <GPIO_UserRegIrq>:
    170c:	231f      	movs	r3, #31
    170e:	4003      	ands	r3, r0
    1710:	0640      	lsls	r0, r0, #25
    1712:	0f80      	lsrs	r0, r0, #30
    1714:	009b      	lsls	r3, r3, #2
    1716:	b920      	cbnz	r0, 1722 <GPIO_UserRegIrq+0x16>
    1718:	4804      	ldr	r0, [pc, #16]	; (172c <GPIO_UserRegIrq+0x20>)
    171a:	50c1      	str	r1, [r0, r3]
    171c:	4904      	ldr	r1, [pc, #16]	; (1730 <GPIO_UserRegIrq+0x24>)
    171e:	50ca      	str	r2, [r1, r3]
    1720:	4770      	bx	lr
    1722:	4804      	ldr	r0, [pc, #16]	; (1734 <GPIO_UserRegIrq+0x28>)
    1724:	50c1      	str	r1, [r0, r3]
    1726:	4904      	ldr	r1, [pc, #16]	; (1738 <GPIO_UserRegIrq+0x2c>)
    1728:	e7f9      	b.n	171e <GPIO_UserRegIrq+0x12>
    172a:	bf00      	nop
    172c:	200005dc 	.word	0x200005dc
    1730:	200004dc 	.word	0x200004dc
    1734:	2000055c 	.word	0x2000055c
    1738:	2000045c 	.word	0x2000045c

0000173c <GPIO_ODInit>:
    173c:	b570      	push	{r4, r5, r6, lr}
    173e:	4b08      	ldr	r3, [pc, #32]	; (1760 <GPIO_ODInit+0x24>)
    1740:	000d      	movs	r5, r1
    1742:	2100      	movs	r1, #0
    1744:	0004      	movs	r4, r0
    1746:	4798      	blx	r3
    1748:	2102      	movs	r1, #2
    174a:	4b06      	ldr	r3, [pc, #24]	; (1764 <GPIO_ODInit+0x28>)
    174c:	2d01      	cmp	r5, #1
    174e:	d000      	beq.n	1752 <GPIO_ODInit+0x16>
    1750:	2100      	movs	r1, #0
    1752:	0020      	movs	r0, r4
    1754:	4798      	blx	r3
    1756:	2100      	movs	r1, #0
    1758:	0020      	movs	r0, r4
    175a:	4b03      	ldr	r3, [pc, #12]	; (1768 <GPIO_ODInit+0x2c>)
    175c:	4798      	blx	r3
    175e:	bd70      	pop	{r4, r5, r6, pc}
    1760:	000014a5 	.word	0x000014a5
    1764:	000029a1 	.word	0x000029a1
    1768:	000015d5 	.word	0x000015d5

0000176c <GPIO_ODWriteBit>:
    176c:	b510      	push	{r4, lr}
    176e:	4b03      	ldr	r3, [pc, #12]	; (177c <GPIO_ODWriteBit+0x10>)
    1770:	b911      	cbnz	r1, 1778 <GPIO_ODWriteBit+0xc>
    1772:	3101      	adds	r1, #1
    1774:	4798      	blx	r3
    1776:	bd10      	pop	{r4, pc}
    1778:	2100      	movs	r1, #0
    177a:	e7fb      	b.n	1774 <GPIO_ODWriteBit+0x8>
    177c:	000014a5 	.word	0x000014a5

00001780 <LOGUART_StructInit>:
    1780:	2300      	movs	r3, #0
    1782:	2201      	movs	r2, #1
    1784:	2140      	movs	r1, #64	; 0x40
    1786:	6003      	str	r3, [r0, #0]
    1788:	6083      	str	r3, [r0, #8]
    178a:	60c3      	str	r3, [r0, #12]
    178c:	6103      	str	r3, [r0, #16]
    178e:	6143      	str	r3, [r0, #20]
    1790:	6183      	str	r3, [r0, #24]
    1792:	61c3      	str	r3, [r0, #28]
    1794:	6283      	str	r3, [r0, #40]	; 0x28
    1796:	6303      	str	r3, [r0, #48]	; 0x30
    1798:	6343      	str	r3, [r0, #52]	; 0x34
    179a:	6383      	str	r3, [r0, #56]	; 0x38
    179c:	63c3      	str	r3, [r0, #60]	; 0x3c
    179e:	3307      	adds	r3, #7
    17a0:	6403      	str	r3, [r0, #64]	; 0x40
    17a2:	33f8      	adds	r3, #248	; 0xf8
    17a4:	6042      	str	r2, [r0, #4]
    17a6:	6241      	str	r1, [r0, #36]	; 0x24
    17a8:	6202      	str	r2, [r0, #32]
    17aa:	62c2      	str	r2, [r0, #44]	; 0x2c
    17ac:	6442      	str	r2, [r0, #68]	; 0x44
    17ae:	6483      	str	r3, [r0, #72]	; 0x48
    17b0:	4770      	bx	lr

000017b2 <LOGUART_SetBaud>:
    17b2:	b573      	push	{r0, r1, r4, r5, r6, lr}
    17b4:	000d      	movs	r5, r1
    17b6:	0004      	movs	r4, r0
    17b8:	4b1c      	ldr	r3, [pc, #112]	; (182c <LOGUART_SetBaud+0x7a>)
    17ba:	4798      	blx	r3
    17bc:	466a      	mov	r2, sp
    17be:	0029      	movs	r1, r5
    17c0:	ab01      	add	r3, sp, #4
    17c2:	4d1b      	ldr	r5, [pc, #108]	; (1830 <LOGUART_SetBaud+0x7e>)
    17c4:	47a8      	blx	r5
    17c6:	2080      	movs	r0, #128	; 0x80
    17c8:	68e3      	ldr	r3, [r4, #12]
    17ca:	491a      	ldr	r1, [pc, #104]	; (1834 <LOGUART_SetBaud+0x82>)
    17cc:	4303      	orrs	r3, r0
    17ce:	60e3      	str	r3, [r4, #12]
    17d0:	69e3      	ldr	r3, [r4, #28]
    17d2:	4d19      	ldr	r5, [pc, #100]	; (1838 <LOGUART_SetBaud+0x86>)
    17d4:	4303      	orrs	r3, r0
    17d6:	61e3      	str	r3, [r4, #28]
    17d8:	6a22      	ldr	r2, [r4, #32]
    17da:	9b00      	ldr	r3, [sp, #0]
    17dc:	4011      	ands	r1, r2
    17de:	011a      	lsls	r2, r3, #4
    17e0:	402a      	ands	r2, r5
    17e2:	430a      	orrs	r2, r1
    17e4:	6222      	str	r2, [r4, #32]
    17e6:	69e1      	ldr	r1, [r4, #28]
    17e8:	9a01      	ldr	r2, [sp, #4]
    17ea:	4d14      	ldr	r5, [pc, #80]	; (183c <LOGUART_SetBaud+0x8a>)
    17ec:	4e14      	ldr	r6, [pc, #80]	; (1840 <LOGUART_SetBaud+0x8e>)
    17ee:	400d      	ands	r5, r1
    17f0:	0411      	lsls	r1, r2, #16
    17f2:	4031      	ands	r1, r6
    17f4:	4329      	orrs	r1, r5
    17f6:	61e1      	str	r1, [r4, #28]
    17f8:	68e1      	ldr	r1, [r4, #12]
    17fa:	00d2      	lsls	r2, r2, #3
    17fc:	4381      	bics	r1, r0
    17fe:	60e1      	str	r1, [r4, #12]
    1800:	6ca1      	ldr	r1, [r4, #72]	; 0x48
    1802:	4810      	ldr	r0, [pc, #64]	; (1844 <LOGUART_SetBaud+0x92>)
    1804:	0d09      	lsrs	r1, r1, #20
    1806:	0509      	lsls	r1, r1, #20
    1808:	4319      	orrs	r1, r3
    180a:	64a1      	str	r1, [r4, #72]	; 0x48
    180c:	6c61      	ldr	r1, [r4, #68]	; 0x44
    180e:	025b      	lsls	r3, r3, #9
    1810:	4001      	ands	r1, r0
    1812:	480d      	ldr	r0, [pc, #52]	; (1848 <LOGUART_SetBaud+0x96>)
    1814:	4003      	ands	r3, r0
    1816:	430b      	orrs	r3, r1
    1818:	6463      	str	r3, [r4, #68]	; 0x44
    181a:	6c23      	ldr	r3, [r4, #64]	; 0x40
    181c:	490b      	ldr	r1, [pc, #44]	; (184c <LOGUART_SetBaud+0x9a>)
    181e:	400b      	ands	r3, r1
    1820:	f643 71f8 	movw	r1, #16376	; 0x3ff8
    1824:	400a      	ands	r2, r1
    1826:	431a      	orrs	r2, r3
    1828:	6422      	str	r2, [r4, #64]	; 0x40
    182a:	bd73      	pop	{r0, r1, r4, r5, r6, pc}
    182c:	0000035d 	.word	0x0000035d
    1830:	00003617 	.word	0x00003617
    1834:	ff00000f 	.word	0xff00000f
    1838:	00fffff0 	.word	0x00fffff0
    183c:	f800ffff 	.word	0xf800ffff
    1840:	07ff0000 	.word	0x07ff0000
    1844:	e00001ff 	.word	0xe00001ff
    1848:	1ffffe00 	.word	0x1ffffe00
    184c:	ffffc007 	.word	0xffffc007

00001850 <LOGUART_RxCmd>:
    1850:	2304      	movs	r3, #4
    1852:	6c02      	ldr	r2, [r0, #64]	; 0x40
    1854:	b111      	cbz	r1, 185c <LOGUART_RxCmd+0xc>
    1856:	4313      	orrs	r3, r2
    1858:	6403      	str	r3, [r0, #64]	; 0x40
    185a:	4770      	bx	lr
    185c:	439a      	bics	r2, r3
    185e:	6402      	str	r2, [r0, #64]	; 0x40
    1860:	e7fb      	b.n	185a <LOGUART_RxCmd+0xa>

00001862 <LOGUART_INTCoreConfig>:
    1862:	6f83      	ldr	r3, [r0, #120]	; 0x78
    1864:	b112      	cbz	r2, 186c <LOGUART_INTCoreConfig+0xa>
    1866:	4319      	orrs	r1, r3
    1868:	6781      	str	r1, [r0, #120]	; 0x78
    186a:	4770      	bx	lr
    186c:	438b      	bics	r3, r1
    186e:	6783      	str	r3, [r0, #120]	; 0x78
    1870:	e7fb      	b.n	186a <LOGUART_INTCoreConfig+0x8>

00001872 <LOGUART_AGGCmd>:
    1872:	b129      	cbz	r1, 1880 <LOGUART_AGGCmd+0xe>
    1874:	2380      	movs	r3, #128	; 0x80
    1876:	6d82      	ldr	r2, [r0, #88]	; 0x58
    1878:	04db      	lsls	r3, r3, #19
    187a:	4313      	orrs	r3, r2
    187c:	6583      	str	r3, [r0, #88]	; 0x58
    187e:	4770      	bx	lr
    1880:	6d83      	ldr	r3, [r0, #88]	; 0x58
    1882:	4a01      	ldr	r2, [pc, #4]	; (1888 <LOGUART_AGGCmd+0x16>)
    1884:	4013      	ands	r3, r2
    1886:	e7f9      	b.n	187c <LOGUART_AGGCmd+0xa>
    1888:	fbffffff 	.word	0xfbffffff

0000188c <LOGUART_AGGPathCmd>:
    188c:	1e4b      	subs	r3, r1, #1
    188e:	b570      	push	{r4, r5, r6, lr}
    1890:	0006      	movs	r6, r0
    1892:	000c      	movs	r4, r1
    1894:	0015      	movs	r5, r2
    1896:	2b04      	cmp	r3, #4
    1898:	d904      	bls.n	18a4 <LOGUART_AGGPathCmd+0x18>
    189a:	f240 115a 	movw	r1, #346	; 0x15a
    189e:	481a      	ldr	r0, [pc, #104]	; (1908 <LOGUART_AGGPathCmd+0x7c>)
    18a0:	f7fe fc38 	bl	114 <io_assert_failed>
    18a4:	6db3      	ldr	r3, [r6, #88]	; 0x58
    18a6:	2c03      	cmp	r4, #3
    18a8:	d01f      	beq.n	18ea <LOGUART_AGGPathCmd+0x5e>
    18aa:	d808      	bhi.n	18be <LOGUART_AGGPathCmd+0x32>
    18ac:	2c01      	cmp	r4, #1
    18ae:	d00e      	beq.n	18ce <LOGUART_AGGPathCmd+0x42>
    18b0:	2c02      	cmp	r4, #2
    18b2:	d014      	beq.n	18de <LOGUART_AGGPathCmd+0x52>
    18b4:	65b3      	str	r3, [r6, #88]	; 0x58
    18b6:	2001      	movs	r0, #1
    18b8:	4b14      	ldr	r3, [pc, #80]	; (190c <LOGUART_AGGPathCmd+0x80>)
    18ba:	4798      	blx	r3
    18bc:	bd70      	pop	{r4, r5, r6, pc}
    18be:	2c04      	cmp	r4, #4
    18c0:	d019      	beq.n	18f6 <LOGUART_AGGPathCmd+0x6a>
    18c2:	2c05      	cmp	r4, #5
    18c4:	d1f6      	bne.n	18b4 <LOGUART_AGGPathCmd+0x28>
    18c6:	b1e5      	cbz	r5, 1902 <LOGUART_AGGPathCmd+0x76>
    18c8:	2280      	movs	r2, #128	; 0x80
    18ca:	0612      	lsls	r2, r2, #24
    18cc:	e002      	b.n	18d4 <LOGUART_AGGPathCmd+0x48>
    18ce:	b11d      	cbz	r5, 18d8 <LOGUART_AGGPathCmd+0x4c>
    18d0:	2280      	movs	r2, #128	; 0x80
    18d2:	0512      	lsls	r2, r2, #20
    18d4:	4313      	orrs	r3, r2
    18d6:	e7ed      	b.n	18b4 <LOGUART_AGGPathCmd+0x28>
    18d8:	4a0d      	ldr	r2, [pc, #52]	; (1910 <LOGUART_AGGPathCmd+0x84>)
    18da:	4013      	ands	r3, r2
    18dc:	e7ea      	b.n	18b4 <LOGUART_AGGPathCmd+0x28>
    18de:	b115      	cbz	r5, 18e6 <LOGUART_AGGPathCmd+0x5a>
    18e0:	2280      	movs	r2, #128	; 0x80
    18e2:	0552      	lsls	r2, r2, #21
    18e4:	e7f6      	b.n	18d4 <LOGUART_AGGPathCmd+0x48>
    18e6:	4a0b      	ldr	r2, [pc, #44]	; (1914 <LOGUART_AGGPathCmd+0x88>)
    18e8:	e7f7      	b.n	18da <LOGUART_AGGPathCmd+0x4e>
    18ea:	b115      	cbz	r5, 18f2 <LOGUART_AGGPathCmd+0x66>
    18ec:	2280      	movs	r2, #128	; 0x80
    18ee:	0592      	lsls	r2, r2, #22
    18f0:	e7f0      	b.n	18d4 <LOGUART_AGGPathCmd+0x48>
    18f2:	4a09      	ldr	r2, [pc, #36]	; (1918 <LOGUART_AGGPathCmd+0x8c>)
    18f4:	e7f1      	b.n	18da <LOGUART_AGGPathCmd+0x4e>
    18f6:	b115      	cbz	r5, 18fe <LOGUART_AGGPathCmd+0x72>
    18f8:	2280      	movs	r2, #128	; 0x80
    18fa:	05d2      	lsls	r2, r2, #23
    18fc:	e7ea      	b.n	18d4 <LOGUART_AGGPathCmd+0x48>
    18fe:	4a07      	ldr	r2, [pc, #28]	; (191c <LOGUART_AGGPathCmd+0x90>)
    1900:	e7eb      	b.n	18da <LOGUART_AGGPathCmd+0x4e>
    1902:	005b      	lsls	r3, r3, #1
    1904:	085b      	lsrs	r3, r3, #1
    1906:	e7d5      	b.n	18b4 <LOGUART_AGGPathCmd+0x28>
    1908:	0000a2cc 	.word	0x0000a2cc
    190c:	0000056b 	.word	0x0000056b
    1910:	f7ffffff 	.word	0xf7ffffff
    1914:	efffffff 	.word	0xefffffff
    1918:	dfffffff 	.word	0xdfffffff
    191c:	bfffffff 	.word	0xbfffffff

00001920 <LOGUART_AGGSetTimeOut>:
    1920:	6d83      	ldr	r3, [r0, #88]	; 0x58
    1922:	4a04      	ldr	r2, [pc, #16]	; (1934 <LOGUART_AGGSetTimeOut+0x14>)
    1924:	0309      	lsls	r1, r1, #12
    1926:	4013      	ands	r3, r2
    1928:	4a03      	ldr	r2, [pc, #12]	; (1938 <LOGUART_AGGSetTimeOut+0x18>)
    192a:	4011      	ands	r1, r2
    192c:	4319      	orrs	r1, r3
    192e:	6581      	str	r1, [r0, #88]	; 0x58
    1930:	4770      	bx	lr
    1932:	bf00      	nop
    1934:	fc000fff 	.word	0xfc000fff
    1938:	03fff000 	.word	0x03fff000

0000193c <LOGUART_AGGSetThreshold>:
    193c:	b570      	push	{r4, r5, r6, lr}
    193e:	0005      	movs	r5, r0
    1940:	000c      	movs	r4, r1
    1942:	2907      	cmp	r1, #7
    1944:	d905      	bls.n	1952 <LOGUART_AGGSetThreshold+0x16>
    1946:	4808      	ldr	r0, [pc, #32]	; (1968 <LOGUART_AGGSetThreshold+0x2c>)
    1948:	f240 11b0 	movw	r1, #432	; 0x1b0
    194c:	3013      	adds	r0, #19
    194e:	f7fe fbe1 	bl	114 <io_assert_failed>
    1952:	6dab      	ldr	r3, [r5, #88]	; 0x58
    1954:	4905      	ldr	r1, [pc, #20]	; (196c <LOGUART_AGGSetThreshold+0x30>)
    1956:	0224      	lsls	r4, r4, #8
    1958:	400b      	ands	r3, r1
    195a:	f640 7100 	movw	r1, #3840	; 0xf00
    195e:	400c      	ands	r4, r1
    1960:	431c      	orrs	r4, r3
    1962:	65ac      	str	r4, [r5, #88]	; 0x58
    1964:	bd70      	pop	{r4, r5, r6, pc}
    1966:	bf00      	nop
    1968:	0000a2cc 	.word	0x0000a2cc
    196c:	fffff0ff 	.word	0xfffff0ff

00001970 <LOGUART_AGGSetSyncPattern>:
    1970:	22ff      	movs	r2, #255	; 0xff
    1972:	6d83      	ldr	r3, [r0, #88]	; 0x58
    1974:	4011      	ands	r1, r2
    1976:	4393      	bics	r3, r2
    1978:	4319      	orrs	r1, r3
    197a:	6581      	str	r1, [r0, #88]	; 0x58
    197c:	4770      	bx	lr

0000197e <LOGUART_AGGPathAllCmd>:
    197e:	b510      	push	{r4, lr}
    1980:	6d82      	ldr	r2, [r0, #88]	; 0x58
    1982:	b139      	cbz	r1, 1994 <LOGUART_AGGPathAllCmd+0x16>
    1984:	23f8      	movs	r3, #248	; 0xf8
    1986:	061b      	lsls	r3, r3, #24
    1988:	4313      	orrs	r3, r2
    198a:	6583      	str	r3, [r0, #88]	; 0x58
    198c:	2001      	movs	r0, #1
    198e:	4b03      	ldr	r3, [pc, #12]	; (199c <LOGUART_AGGPathAllCmd+0x1e>)
    1990:	4798      	blx	r3
    1992:	bd10      	pop	{r4, pc}
    1994:	0153      	lsls	r3, r2, #5
    1996:	095b      	lsrs	r3, r3, #5
    1998:	e7f7      	b.n	198a <LOGUART_AGGPathAllCmd+0xc>
    199a:	bf00      	nop
    199c:	0000056b 	.word	0x0000056b

000019a0 <LOGUART_WaitTx>:
    19a0:	4b09      	ldr	r3, [pc, #36]	; (19c8 <LOGUART_WaitTx+0x28>)
    19a2:	b530      	push	{r4, r5, lr}
    19a4:	681b      	ldr	r3, [r3, #0]
    19a6:	4809      	ldr	r0, [pc, #36]	; (19cc <LOGUART_WaitTx+0x2c>)
    19a8:	061b      	lsls	r3, r3, #24
    19aa:	0f9a      	lsrs	r2, r3, #30
    19ac:	2314      	movs	r3, #20
    19ae:	4353      	muls	r3, r2
    19b0:	4a07      	ldr	r2, [pc, #28]	; (19d0 <LOGUART_WaitTx+0x30>)
    19b2:	189b      	adds	r3, r3, r2
    19b4:	2200      	movs	r2, #0
    19b6:	68dc      	ldr	r4, [r3, #12]
    19b8:	3201      	adds	r2, #1
    19ba:	4294      	cmp	r4, r2
    19bc:	d903      	bls.n	19c6 <LOGUART_WaitTx+0x26>
    19be:	6941      	ldr	r1, [r0, #20]
    19c0:	685d      	ldr	r5, [r3, #4]
    19c2:	420d      	tst	r5, r1
    19c4:	d0f8      	beq.n	19b8 <LOGUART_WaitTx+0x18>
    19c6:	bd30      	pop	{r4, r5, pc}
    19c8:	41008228 	.word	0x41008228
    19cc:	4100f000 	.word	0x4100f000
    19d0:	0000a068 	.word	0x0000a068

000019d4 <LOGUART_PutChar>:
    19d4:	4b0d      	ldr	r3, [pc, #52]	; (1a0c <LOGUART_PutChar+0x38>)
    19d6:	b570      	push	{r4, r5, r6, lr}
    19d8:	681c      	ldr	r4, [r3, #0]
    19da:	4b0d      	ldr	r3, [pc, #52]	; (1a10 <LOGUART_PutChar+0x3c>)
    19dc:	0005      	movs	r5, r0
    19de:	681b      	ldr	r3, [r3, #0]
    19e0:	2b01      	cmp	r3, #1
    19e2:	d011      	beq.n	1a08 <LOGUART_PutChar+0x34>
    19e4:	f7ff ffdc 	bl	19a0 <LOGUART_WaitTx>
    19e8:	2314      	movs	r3, #20
    19ea:	0624      	lsls	r4, r4, #24
    19ec:	0fa4      	lsrs	r4, r4, #30
    19ee:	435c      	muls	r4, r3
    19f0:	4b08      	ldr	r3, [pc, #32]	; (1a14 <LOGUART_PutChar+0x40>)
    19f2:	58e4      	ldr	r4, [r4, r3]
    19f4:	4b08      	ldr	r3, [pc, #32]	; (1a18 <LOGUART_PutChar+0x44>)
    19f6:	00a4      	lsls	r4, r4, #2
    19f8:	18e4      	adds	r4, r4, r3
    19fa:	65e5      	str	r5, [r4, #92]	; 0x5c
    19fc:	2d0a      	cmp	r5, #10
    19fe:	d103      	bne.n	1a08 <LOGUART_PutChar+0x34>
    1a00:	f7ff ffce 	bl	19a0 <LOGUART_WaitTx>
    1a04:	230d      	movs	r3, #13
    1a06:	65e3      	str	r3, [r4, #92]	; 0x5c
    1a08:	bd70      	pop	{r4, r5, r6, pc}
    1a0a:	bf00      	nop
    1a0c:	41008228 	.word	0x41008228
    1a10:	2000065c 	.word	0x2000065c
    1a14:	0000a068 	.word	0x0000a068
    1a18:	4100f000 	.word	0x4100f000

00001a1c <LOGUART_GetChar>:
    1a1c:	4b04      	ldr	r3, [pc, #16]	; (1a30 <LOGUART_GetChar+0x14>)
    1a1e:	b118      	cbz	r0, 1a28 <LOGUART_GetChar+0xc>
    1a20:	2201      	movs	r2, #1
    1a22:	6959      	ldr	r1, [r3, #20]
    1a24:	4211      	tst	r1, r2
    1a26:	d0fc      	beq.n	1a22 <LOGUART_GetChar+0x6>
    1a28:	6a58      	ldr	r0, [r3, #36]	; 0x24
    1a2a:	b2c0      	uxtb	r0, r0
    1a2c:	4770      	bx	lr
    1a2e:	bf00      	nop
    1a30:	4100f000 	.word	0x4100f000

00001a34 <LOGUART_Readable>:
    1a34:	4b02      	ldr	r3, [pc, #8]	; (1a40 <LOGUART_Readable+0xc>)
    1a36:	6958      	ldr	r0, [r3, #20]
    1a38:	2301      	movs	r3, #1
    1a3a:	4018      	ands	r0, r3
    1a3c:	4770      	bx	lr
    1a3e:	bf00      	nop
    1a40:	4100f000 	.word	0x4100f000

00001a44 <LOGUART_GetRxCount>:
    1a44:	4b01      	ldr	r3, [pc, #4]	; (1a4c <LOGUART_GetRxCount+0x8>)
    1a46:	6958      	ldr	r0, [r3, #20]
    1a48:	0e00      	lsrs	r0, r0, #24
    1a4a:	4770      	bx	lr
    1a4c:	4100f000 	.word	0x4100f000

00001a50 <LOGUART_GetIMR>:
    1a50:	4b01      	ldr	r3, [pc, #4]	; (1a58 <LOGUART_GetIMR+0x8>)
    1a52:	6858      	ldr	r0, [r3, #4]
    1a54:	4770      	bx	lr
    1a56:	bf00      	nop
    1a58:	4100f000 	.word	0x4100f000

00001a5c <LOGUART_SetIMR>:
    1a5c:	4b01      	ldr	r3, [pc, #4]	; (1a64 <LOGUART_SetIMR+0x8>)
    1a5e:	6058      	str	r0, [r3, #4]
    1a60:	4770      	bx	lr
    1a62:	bf00      	nop
    1a64:	4100f000 	.word	0x4100f000

00001a68 <LOGUART_INTConfig>:
    1a68:	6843      	ldr	r3, [r0, #4]
    1a6a:	2a01      	cmp	r2, #1
    1a6c:	d102      	bne.n	1a74 <LOGUART_INTConfig+0xc>
    1a6e:	4319      	orrs	r1, r3
    1a70:	6041      	str	r1, [r0, #4]
    1a72:	4770      	bx	lr
    1a74:	438b      	bics	r3, r1
    1a76:	6043      	str	r3, [r0, #4]
    1a78:	e7fb      	b.n	1a72 <LOGUART_INTConfig+0xa>

00001a7a <LOGUART_INTClear>:
    1a7a:	6f43      	ldr	r3, [r0, #116]	; 0x74
    1a7c:	430b      	orrs	r3, r1
    1a7e:	6743      	str	r3, [r0, #116]	; 0x74
    1a80:	4770      	bx	lr

00001a82 <LOGUART_GetStatus>:
    1a82:	6940      	ldr	r0, [r0, #20]
    1a84:	4770      	bx	lr

00001a86 <LOGUART_ClearRxFifo>:
    1a86:	2202      	movs	r2, #2
    1a88:	6d41      	ldr	r1, [r0, #84]	; 0x54
    1a8a:	0003      	movs	r3, r0
    1a8c:	430a      	orrs	r2, r1
    1a8e:	6542      	str	r2, [r0, #84]	; 0x54
    1a90:	2005      	movs	r0, #5
    1a92:	2201      	movs	r2, #1
    1a94:	6959      	ldr	r1, [r3, #20]
    1a96:	4211      	tst	r1, r2
    1a98:	d003      	beq.n	1aa2 <LOGUART_ClearRxFifo+0x1c>
    1a9a:	3801      	subs	r0, #1
    1a9c:	2800      	cmp	r0, #0
    1a9e:	d1f9      	bne.n	1a94 <LOGUART_ClearRxFifo+0xe>
    1aa0:	4770      	bx	lr
    1aa2:	2001      	movs	r0, #1
    1aa4:	e7fc      	b.n	1aa0 <LOGUART_ClearRxFifo+0x1a>

00001aa6 <_LOGUART_Init>:
    1aa6:	23c0      	movs	r3, #192	; 0xc0
    1aa8:	69ca      	ldr	r2, [r1, #28]
    1aaa:	b570      	push	{r4, r5, r6, lr}
    1aac:	439a      	bics	r2, r3
    1aae:	0005      	movs	r5, r0
    1ab0:	000c      	movs	r4, r1
    1ab2:	b122      	cbz	r2, 1abe <_LOGUART_Init+0x18>
    1ab4:	4853      	ldr	r0, [pc, #332]	; (1c04 <_LOGUART_Init+0x15e>)
    1ab6:	214b      	movs	r1, #75	; 0x4b
    1ab8:	302b      	adds	r0, #43	; 0x2b
    1aba:	f7fe fb2b 	bl	114 <io_assert_failed>
    1abe:	6a23      	ldr	r3, [r4, #32]
    1ac0:	2b01      	cmp	r3, #1
    1ac2:	d904      	bls.n	1ace <_LOGUART_Init+0x28>
    1ac4:	484f      	ldr	r0, [pc, #316]	; (1c04 <_LOGUART_Init+0x15e>)
    1ac6:	214c      	movs	r1, #76	; 0x4c
    1ac8:	302b      	adds	r0, #43	; 0x2b
    1aca:	f7fe fb23 	bl	114 <io_assert_failed>
    1ace:	6c23      	ldr	r3, [r4, #64]	; 0x40
    1ad0:	2b07      	cmp	r3, #7
    1ad2:	d904      	bls.n	1ade <_LOGUART_Init+0x38>
    1ad4:	484b      	ldr	r0, [pc, #300]	; (1c04 <_LOGUART_Init+0x15e>)
    1ad6:	214d      	movs	r1, #77	; 0x4d
    1ad8:	302b      	adds	r0, #43	; 0x2b
    1ada:	f7fe fb1b 	bl	114 <io_assert_failed>
    1ade:	2204      	movs	r2, #4
    1ae0:	6c2b      	ldr	r3, [r5, #64]	; 0x40
    1ae2:	0028      	movs	r0, r5
    1ae4:	4393      	bics	r3, r2
    1ae6:	642b      	str	r3, [r5, #64]	; 0x40
    1ae8:	4b47      	ldr	r3, [pc, #284]	; (1c08 <_LOGUART_Init+0x162>)
    1aea:	4798      	blx	r3
    1aec:	2300      	movs	r3, #0
    1aee:	606b      	str	r3, [r5, #4]
    1af0:	69ea      	ldr	r2, [r5, #28]
    1af2:	3380      	adds	r3, #128	; 0x80
    1af4:	4313      	orrs	r3, r2
    1af6:	22c1      	movs	r2, #193	; 0xc1
    1af8:	61eb      	str	r3, [r5, #28]
    1afa:	6d6b      	ldr	r3, [r5, #84]	; 0x54
    1afc:	4393      	bics	r3, r2
    1afe:	69e2      	ldr	r2, [r4, #28]
    1b00:	4313      	orrs	r3, r2
    1b02:	6a22      	ldr	r2, [r4, #32]
    1b04:	4313      	orrs	r3, r2
    1b06:	69a2      	ldr	r2, [r4, #24]
    1b08:	656b      	str	r3, [r5, #84]	; 0x54
    1b0a:	2321      	movs	r3, #33	; 0x21
    1b0c:	2a01      	cmp	r2, #1
    1b0e:	d15e      	bne.n	1bce <_LOGUART_Init+0x128>
    1b10:	692a      	ldr	r2, [r5, #16]
    1b12:	4313      	orrs	r3, r2
    1b14:	612b      	str	r3, [r5, #16]
    1b16:	2204      	movs	r2, #4
    1b18:	2108      	movs	r1, #8
    1b1a:	2010      	movs	r0, #16
    1b1c:	68a3      	ldr	r3, [r4, #8]
    1b1e:	009b      	lsls	r3, r3, #2
    1b20:	4013      	ands	r3, r2
    1b22:	68e2      	ldr	r2, [r4, #12]
    1b24:	00d2      	lsls	r2, r2, #3
    1b26:	400a      	ands	r2, r1
    1b28:	4313      	orrs	r3, r2
    1b2a:	6862      	ldr	r2, [r4, #4]
    1b2c:	4313      	orrs	r3, r2
    1b2e:	6922      	ldr	r2, [r4, #16]
    1b30:	0112      	lsls	r2, r2, #4
    1b32:	4002      	ands	r2, r0
    1b34:	4313      	orrs	r3, r2
    1b36:	6962      	ldr	r2, [r4, #20]
    1b38:	1800      	adds	r0, r0, r0
    1b3a:	0152      	lsls	r2, r2, #5
    1b3c:	4002      	ands	r2, r0
    1b3e:	4313      	orrs	r3, r2
    1b40:	60eb      	str	r3, [r5, #12]
    1b42:	6823      	ldr	r3, [r4, #0]
    1b44:	2b00      	cmp	r3, #0
    1b46:	d046      	beq.n	1bd6 <_LOGUART_Init+0x130>
    1b48:	6d6b      	ldr	r3, [r5, #84]	; 0x54
    1b4a:	4319      	orrs	r1, r3
    1b4c:	6569      	str	r1, [r5, #84]	; 0x54
    1b4e:	6c2a      	ldr	r2, [r5, #64]	; 0x40
    1b50:	6a63      	ldr	r3, [r4, #36]	; 0x24
    1b52:	b292      	uxth	r2, r2
    1b54:	041b      	lsls	r3, r3, #16
    1b56:	4313      	orrs	r3, r2
    1b58:	6aa2      	ldr	r2, [r4, #40]	; 0x28
    1b5a:	642b      	str	r3, [r5, #64]	; 0x40
    1b5c:	6dab      	ldr	r3, [r5, #88]	; 0x58
    1b5e:	2a00      	cmp	r2, #0
    1b60:	d03d      	beq.n	1bde <_LOGUART_Init+0x138>
    1b62:	2280      	movs	r2, #128	; 0x80
    1b64:	04d2      	lsls	r2, r2, #19
    1b66:	4313      	orrs	r3, r2
    1b68:	6ae2      	ldr	r2, [r4, #44]	; 0x2c
    1b6a:	2a00      	cmp	r2, #0
    1b6c:	d03a      	beq.n	1be4 <_LOGUART_Init+0x13e>
    1b6e:	2280      	movs	r2, #128	; 0x80
    1b70:	0512      	lsls	r2, r2, #20
    1b72:	4313      	orrs	r3, r2
    1b74:	6b22      	ldr	r2, [r4, #48]	; 0x30
    1b76:	2a00      	cmp	r2, #0
    1b78:	d037      	beq.n	1bea <_LOGUART_Init+0x144>
    1b7a:	2280      	movs	r2, #128	; 0x80
    1b7c:	0552      	lsls	r2, r2, #21
    1b7e:	4313      	orrs	r3, r2
    1b80:	6b62      	ldr	r2, [r4, #52]	; 0x34
    1b82:	2a00      	cmp	r2, #0
    1b84:	d034      	beq.n	1bf0 <_LOGUART_Init+0x14a>
    1b86:	2280      	movs	r2, #128	; 0x80
    1b88:	0592      	lsls	r2, r2, #22
    1b8a:	4313      	orrs	r3, r2
    1b8c:	6ba2      	ldr	r2, [r4, #56]	; 0x38
    1b8e:	2a00      	cmp	r2, #0
    1b90:	d031      	beq.n	1bf6 <_LOGUART_Init+0x150>
    1b92:	2280      	movs	r2, #128	; 0x80
    1b94:	05d2      	lsls	r2, r2, #23
    1b96:	4313      	orrs	r3, r2
    1b98:	6be2      	ldr	r2, [r4, #60]	; 0x3c
    1b9a:	2a00      	cmp	r2, #0
    1b9c:	d02e      	beq.n	1bfc <_LOGUART_Init+0x156>
    1b9e:	2280      	movs	r2, #128	; 0x80
    1ba0:	0612      	lsls	r2, r2, #24
    1ba2:	4313      	orrs	r3, r2
    1ba4:	4a19      	ldr	r2, [pc, #100]	; (1c0c <_LOGUART_Init+0x166>)
    1ba6:	491a      	ldr	r1, [pc, #104]	; (1c10 <_LOGUART_Init+0x16a>)
    1ba8:	4013      	ands	r3, r2
    1baa:	6c62      	ldr	r2, [r4, #68]	; 0x44
    1bac:	0312      	lsls	r2, r2, #12
    1bae:	400a      	ands	r2, r1
    1bb0:	f640 7100 	movw	r1, #3840	; 0xf00
    1bb4:	4313      	orrs	r3, r2
    1bb6:	4a17      	ldr	r2, [pc, #92]	; (1c14 <_LOGUART_Init+0x16e>)
    1bb8:	401a      	ands	r2, r3
    1bba:	6c23      	ldr	r3, [r4, #64]	; 0x40
    1bbc:	021b      	lsls	r3, r3, #8
    1bbe:	400b      	ands	r3, r1
    1bc0:	4313      	orrs	r3, r2
    1bc2:	22ff      	movs	r2, #255	; 0xff
    1bc4:	4393      	bics	r3, r2
    1bc6:	6ca2      	ldr	r2, [r4, #72]	; 0x48
    1bc8:	4313      	orrs	r3, r2
    1bca:	65ab      	str	r3, [r5, #88]	; 0x58
    1bcc:	bd70      	pop	{r4, r5, r6, pc}
    1bce:	692a      	ldr	r2, [r5, #16]
    1bd0:	439a      	bics	r2, r3
    1bd2:	612a      	str	r2, [r5, #16]
    1bd4:	e79f      	b.n	1b16 <_LOGUART_Init+0x70>
    1bd6:	6d6b      	ldr	r3, [r5, #84]	; 0x54
    1bd8:	438b      	bics	r3, r1
    1bda:	656b      	str	r3, [r5, #84]	; 0x54
    1bdc:	e7b7      	b.n	1b4e <_LOGUART_Init+0xa8>
    1bde:	4a0e      	ldr	r2, [pc, #56]	; (1c18 <_LOGUART_Init+0x172>)
    1be0:	4013      	ands	r3, r2
    1be2:	e7c1      	b.n	1b68 <_LOGUART_Init+0xc2>
    1be4:	4a0d      	ldr	r2, [pc, #52]	; (1c1c <_LOGUART_Init+0x176>)
    1be6:	4013      	ands	r3, r2
    1be8:	e7c4      	b.n	1b74 <_LOGUART_Init+0xce>
    1bea:	4a0d      	ldr	r2, [pc, #52]	; (1c20 <_LOGUART_Init+0x17a>)
    1bec:	4013      	ands	r3, r2
    1bee:	e7c7      	b.n	1b80 <_LOGUART_Init+0xda>
    1bf0:	4a0c      	ldr	r2, [pc, #48]	; (1c24 <_LOGUART_Init+0x17e>)
    1bf2:	4013      	ands	r3, r2
    1bf4:	e7ca      	b.n	1b8c <_LOGUART_Init+0xe6>
    1bf6:	4a0c      	ldr	r2, [pc, #48]	; (1c28 <_LOGUART_Init+0x182>)
    1bf8:	4013      	ands	r3, r2
    1bfa:	e7cd      	b.n	1b98 <_LOGUART_Init+0xf2>
    1bfc:	005b      	lsls	r3, r3, #1
    1bfe:	085b      	lsrs	r3, r3, #1
    1c00:	e7d0      	b.n	1ba4 <_LOGUART_Init+0xfe>
    1c02:	bf00      	nop
    1c04:	0000a2cc 	.word	0x0000a2cc
    1c08:	00001a87 	.word	0x00001a87
    1c0c:	fc000fff 	.word	0xfc000fff
    1c10:	03fff000 	.word	0x03fff000
    1c14:	fffff0ff 	.word	0xfffff0ff
    1c18:	fbffffff 	.word	0xfbffffff
    1c1c:	f7ffffff 	.word	0xf7ffffff
    1c20:	efffffff 	.word	0xefffffff
    1c24:	dfffffff 	.word	0xdfffffff
    1c28:	bfffffff 	.word	0xbfffffff

00001c2c <LOGUART_Init>:
    1c2c:	0001      	movs	r1, r0
    1c2e:	b510      	push	{r4, lr}
    1c30:	480e      	ldr	r0, [pc, #56]	; (1c6c <LOGUART_Init+0x40>)
    1c32:	f7ff ff38 	bl	1aa6 <_LOGUART_Init>
    1c36:	4b0e      	ldr	r3, [pc, #56]	; (1c70 <LOGUART_Init+0x44>)
    1c38:	4798      	blx	r3
    1c3a:	4c0e      	ldr	r4, [pc, #56]	; (1c74 <LOGUART_Init+0x48>)
    1c3c:	2802      	cmp	r0, #2
    1c3e:	d10c      	bne.n	1c5a <LOGUART_Init+0x2e>
    1c40:	490d      	ldr	r1, [pc, #52]	; (1c78 <LOGUART_Init+0x4c>)
    1c42:	480a      	ldr	r0, [pc, #40]	; (1c6c <LOGUART_Init+0x40>)
    1c44:	47a0      	blx	r4
    1c46:	2201      	movs	r2, #1
    1c48:	4808      	ldr	r0, [pc, #32]	; (1c6c <LOGUART_Init+0x40>)
    1c4a:	0011      	movs	r1, r2
    1c4c:	4b0b      	ldr	r3, [pc, #44]	; (1c7c <LOGUART_Init+0x50>)
    1c4e:	4798      	blx	r3
    1c50:	2101      	movs	r1, #1
    1c52:	4806      	ldr	r0, [pc, #24]	; (1c6c <LOGUART_Init+0x40>)
    1c54:	4b0a      	ldr	r3, [pc, #40]	; (1c80 <LOGUART_Init+0x54>)
    1c56:	4798      	blx	r3
    1c58:	bd10      	pop	{r4, pc}
    1c5a:	4b0a      	ldr	r3, [pc, #40]	; (1c84 <LOGUART_Init+0x58>)
    1c5c:	4798      	blx	r3
    1c5e:	2801      	cmp	r0, #1
    1c60:	d102      	bne.n	1c68 <LOGUART_Init+0x3c>
    1c62:	21e1      	movs	r1, #225	; 0xe1
    1c64:	0249      	lsls	r1, r1, #9
    1c66:	e7ec      	b.n	1c42 <LOGUART_Init+0x16>
    1c68:	4907      	ldr	r1, [pc, #28]	; (1c88 <LOGUART_Init+0x5c>)
    1c6a:	e7ea      	b.n	1c42 <LOGUART_Init+0x16>
    1c6c:	4100f000 	.word	0x4100f000
    1c70:	00002f41 	.word	0x00002f41
    1c74:	000017b3 	.word	0x000017b3
    1c78:	004c4b40 	.word	0x004c4b40
    1c7c:	00001a69 	.word	0x00001a69
    1c80:	00001851 	.word	0x00001851
    1c84:	00002fb1 	.word	0x00002fb1
    1c88:	0016e360 	.word	0x0016e360

00001c8c <LOGUART_WaitBusy>:
    1c8c:	4b09      	ldr	r3, [pc, #36]	; (1cb4 <LOGUART_WaitBusy+0x28>)
    1c8e:	b510      	push	{r4, lr}
    1c90:	681c      	ldr	r4, [r3, #0]
    1c92:	0624      	lsls	r4, r4, #24
    1c94:	0fa3      	lsrs	r3, r4, #30
    1c96:	2414      	movs	r4, #20
    1c98:	435c      	muls	r4, r3
    1c9a:	4b07      	ldr	r3, [pc, #28]	; (1cb8 <LOGUART_WaitBusy+0x2c>)
    1c9c:	18e4      	adds	r4, r4, r3
    1c9e:	4b07      	ldr	r3, [pc, #28]	; (1cbc <LOGUART_WaitBusy+0x30>)
    1ca0:	68a2      	ldr	r2, [r4, #8]
    1ca2:	695b      	ldr	r3, [r3, #20]
    1ca4:	421a      	tst	r2, r3
    1ca6:	d103      	bne.n	1cb0 <LOGUART_WaitBusy+0x24>
    1ca8:	200a      	movs	r0, #10
    1caa:	4b05      	ldr	r3, [pc, #20]	; (1cc0 <LOGUART_WaitBusy+0x34>)
    1cac:	4798      	blx	r3
    1cae:	e7f6      	b.n	1c9e <LOGUART_WaitBusy+0x12>
    1cb0:	bd10      	pop	{r4, pc}
    1cb2:	bf00      	nop
    1cb4:	41008228 	.word	0x41008228
    1cb8:	0000a068 	.word	0x0000a068
    1cbc:	4100f000 	.word	0x4100f000
    1cc0:	0000056b 	.word	0x0000056b

00001cc4 <LOGUART_WaitTxComplete>:
    1cc4:	b510      	push	{r4, lr}
    1cc6:	4b06      	ldr	r3, [pc, #24]	; (1ce0 <LOGUART_WaitTxComplete+0x1c>)
    1cc8:	4a06      	ldr	r2, [pc, #24]	; (1ce4 <LOGUART_WaitTxComplete+0x20>)
    1cca:	695b      	ldr	r3, [r3, #20]
    1ccc:	4013      	ands	r3, r2
    1cce:	4a06      	ldr	r2, [pc, #24]	; (1ce8 <LOGUART_WaitTxComplete+0x24>)
    1cd0:	4293      	cmp	r3, r2
    1cd2:	d003      	beq.n	1cdc <LOGUART_WaitTxComplete+0x18>
    1cd4:	200a      	movs	r0, #10
    1cd6:	4b05      	ldr	r3, [pc, #20]	; (1cec <LOGUART_WaitTxComplete+0x28>)
    1cd8:	4798      	blx	r3
    1cda:	e7f4      	b.n	1cc6 <LOGUART_WaitTxComplete+0x2>
    1cdc:	bd10      	pop	{r4, pc}
    1cde:	bf00      	nop
    1ce0:	4100f000 	.word	0x4100f000
    1ce4:	000f0140 	.word	0x000f0140
    1ce8:	000f0040 	.word	0x000f0040
    1cec:	0000056b 	.word	0x0000056b

00001cf0 <LOGUART_BT_SendData>:
    1cf0:	b570      	push	{r4, r5, r6, lr}
    1cf2:	2580      	movs	r5, #128	; 0x80
    1cf4:	2300      	movs	r3, #0
    1cf6:	4c08      	ldr	r4, [pc, #32]	; (1d18 <LOGUART_BT_SendData+0x28>)
    1cf8:	4a08      	ldr	r2, [pc, #32]	; (1d1c <LOGUART_BT_SendData+0x2c>)
    1cfa:	1841      	adds	r1, r0, r1
    1cfc:	03ed      	lsls	r5, r5, #15
    1cfe:	4288      	cmp	r0, r1
    1d00:	d100      	bne.n	1d04 <LOGUART_BT_SendData+0x14>
    1d02:	bd70      	pop	{r4, r5, r6, pc}
    1d04:	3301      	adds	r3, #1
    1d06:	42a3      	cmp	r3, r4
    1d08:	d802      	bhi.n	1d10 <LOGUART_BT_SendData+0x20>
    1d0a:	6956      	ldr	r6, [r2, #20]
    1d0c:	422e      	tst	r6, r5
    1d0e:	d0f9      	beq.n	1d04 <LOGUART_BT_SendData+0x14>
    1d10:	7806      	ldrb	r6, [r0, #0]
    1d12:	3001      	adds	r0, #1
    1d14:	6656      	str	r6, [r2, #100]	; 0x64
    1d16:	e7f2      	b.n	1cfe <LOGUART_BT_SendData+0xe>
    1d18:	000bee32 	.word	0x000bee32
    1d1c:	4100f000 	.word	0x4100f000

00001d20 <LOGUART_Relay_StructInit>:
    1d20:	2300      	movs	r3, #0
    1d22:	2201      	movs	r2, #1
    1d24:	6043      	str	r3, [r0, #4]
    1d26:	6002      	str	r2, [r0, #0]
    1d28:	6083      	str	r3, [r0, #8]
    1d2a:	60c3      	str	r3, [r0, #12]
    1d2c:	6103      	str	r3, [r0, #16]
    1d2e:	6142      	str	r2, [r0, #20]
    1d30:	4770      	bx	lr

00001d32 <LOGUART_Relay_SetFormat>:
    1d32:	2204      	movs	r2, #4
    1d34:	b510      	push	{r4, lr}
    1d36:	2408      	movs	r4, #8
    1d38:	684b      	ldr	r3, [r1, #4]
    1d3a:	009b      	lsls	r3, r3, #2
    1d3c:	4013      	ands	r3, r2
    1d3e:	688a      	ldr	r2, [r1, #8]
    1d40:	00d2      	lsls	r2, r2, #3
    1d42:	4022      	ands	r2, r4
    1d44:	4313      	orrs	r3, r2
    1d46:	680a      	ldr	r2, [r1, #0]
    1d48:	1924      	adds	r4, r4, r4
    1d4a:	4313      	orrs	r3, r2
    1d4c:	68ca      	ldr	r2, [r1, #12]
    1d4e:	0112      	lsls	r2, r2, #4
    1d50:	4022      	ands	r2, r4
    1d52:	4313      	orrs	r3, r2
    1d54:	690a      	ldr	r2, [r1, #16]
    1d56:	3410      	adds	r4, #16
    1d58:	0152      	lsls	r2, r2, #5
    1d5a:	4022      	ands	r2, r4
    1d5c:	4313      	orrs	r3, r2
    1d5e:	f241 0200 	movw	r2, #4096	; 0x1000
    1d62:	66c3      	str	r3, [r0, #108]	; 0x6c
    1d64:	6d43      	ldr	r3, [r0, #84]	; 0x54
    1d66:	4c05      	ldr	r4, [pc, #20]	; (1d7c <LOGUART_Relay_SetFormat+0x4a>)
    1d68:	401c      	ands	r4, r3
    1d6a:	694b      	ldr	r3, [r1, #20]
    1d6c:	031b      	lsls	r3, r3, #12
    1d6e:	4013      	ands	r3, r2
    1d70:	2202      	movs	r2, #2
    1d72:	4323      	orrs	r3, r4
    1d74:	4393      	bics	r3, r2
    1d76:	6543      	str	r3, [r0, #84]	; 0x54
    1d78:	bd10      	pop	{r4, pc}
    1d7a:	bf00      	nop
    1d7c:	ffffefff 	.word	0xffffefff

00001d80 <LOGUART_Relay_SetBaud>:
    1d80:	b537      	push	{r0, r1, r2, r4, r5, lr}
    1d82:	000d      	movs	r5, r1
    1d84:	0004      	movs	r4, r0
    1d86:	4b0f      	ldr	r3, [pc, #60]	; (1dc4 <LOGUART_Relay_SetBaud+0x44>)
    1d88:	4798      	blx	r3
    1d8a:	466a      	mov	r2, sp
    1d8c:	0029      	movs	r1, r5
    1d8e:	ab01      	add	r3, sp, #4
    1d90:	4d0d      	ldr	r5, [pc, #52]	; (1dc8 <LOGUART_Relay_SetBaud+0x48>)
    1d92:	47a8      	blx	r5
    1d94:	2180      	movs	r1, #128	; 0x80
    1d96:	6ee3      	ldr	r3, [r4, #108]	; 0x6c
    1d98:	430b      	orrs	r3, r1
    1d9a:	66e3      	str	r3, [r4, #108]	; 0x6c
    1d9c:	6ee2      	ldr	r2, [r4, #108]	; 0x6c
    1d9e:	9b00      	ldr	r3, [sp, #0]
    1da0:	0512      	lsls	r2, r2, #20
    1da2:	0318      	lsls	r0, r3, #12
    1da4:	0d12      	lsrs	r2, r2, #20
    1da6:	4302      	orrs	r2, r0
    1da8:	66e2      	str	r2, [r4, #108]	; 0x6c
    1daa:	6f22      	ldr	r2, [r4, #112]	; 0x70
    1dac:	4807      	ldr	r0, [pc, #28]	; (1dcc <LOGUART_Relay_SetBaud+0x4c>)
    1dae:	00db      	lsls	r3, r3, #3
    1db0:	4002      	ands	r2, r0
    1db2:	f643 70f8 	movw	r0, #16376	; 0x3ff8
    1db6:	4003      	ands	r3, r0
    1db8:	4313      	orrs	r3, r2
    1dba:	6723      	str	r3, [r4, #112]	; 0x70
    1dbc:	6ee3      	ldr	r3, [r4, #108]	; 0x6c
    1dbe:	438b      	bics	r3, r1
    1dc0:	66e3      	str	r3, [r4, #108]	; 0x6c
    1dc2:	bd37      	pop	{r0, r1, r2, r4, r5, pc}
    1dc4:	0000035d 	.word	0x0000035d
    1dc8:	00003617 	.word	0x00003617
    1dcc:	ffffc007 	.word	0xffffc007

00001dd0 <LOGUART_Relay_ClearRxFifo>:
    1dd0:	2102      	movs	r1, #2
    1dd2:	6d42      	ldr	r2, [r0, #84]	; 0x54
    1dd4:	0003      	movs	r3, r0
    1dd6:	438a      	bics	r2, r1
    1dd8:	0011      	movs	r1, r2
    1dda:	f242 0200 	movw	r2, #8192	; 0x2000
    1dde:	430a      	orrs	r2, r1
    1de0:	6542      	str	r2, [r0, #84]	; 0x54
    1de2:	2005      	movs	r0, #5
    1de4:	f240 1200 	movw	r2, #256	; 0x100
    1de8:	6959      	ldr	r1, [r3, #20]
    1dea:	4211      	tst	r1, r2
    1dec:	d003      	beq.n	1df6 <LOGUART_Relay_ClearRxFifo+0x26>
    1dee:	3801      	subs	r0, #1
    1df0:	2800      	cmp	r0, #0
    1df2:	d1f9      	bne.n	1de8 <LOGUART_Relay_ClearRxFifo+0x18>
    1df4:	4770      	bx	lr
    1df6:	2001      	movs	r0, #1
    1df8:	e7fc      	b.n	1df4 <LOGUART_Relay_ClearRxFifo+0x24>

00001dfa <LOGUART_Relay_RxCmd>:
    1dfa:	2304      	movs	r3, #4
    1dfc:	6f02      	ldr	r2, [r0, #112]	; 0x70
    1dfe:	b111      	cbz	r1, 1e06 <LOGUART_Relay_RxCmd+0xc>
    1e00:	4313      	orrs	r3, r2
    1e02:	6703      	str	r3, [r0, #112]	; 0x70
    1e04:	4770      	bx	lr
    1e06:	439a      	bics	r2, r3
    1e08:	6702      	str	r2, [r0, #112]	; 0x70
    1e0a:	e7fb      	b.n	1e04 <LOGUART_Relay_RxCmd+0xa>

00001e0c <LOGUART_MonitorParaConfig>:
    1e0c:	1e4b      	subs	r3, r1, #1
    1e0e:	b570      	push	{r4, r5, r6, lr}
    1e10:	0005      	movs	r5, r0
    1e12:	000c      	movs	r4, r1
    1e14:	0016      	movs	r6, r2
    1e16:	2b7e      	cmp	r3, #126	; 0x7e
    1e18:	d905      	bls.n	1e26 <LOGUART_MonitorParaConfig+0x1a>
    1e1a:	480d      	ldr	r0, [pc, #52]	; (1e50 <LOGUART_MonitorParaConfig+0x44>)
    1e1c:	f240 31a0 	movw	r1, #928	; 0x3a0
    1e20:	3039      	adds	r0, #57	; 0x39
    1e22:	f7fe f977 	bl	114 <io_assert_failed>
    1e26:	2204      	movs	r2, #4
    1e28:	6c2b      	ldr	r3, [r5, #64]	; 0x40
    1e2a:	490a      	ldr	r1, [pc, #40]	; (1e54 <LOGUART_MonitorParaConfig+0x48>)
    1e2c:	4393      	bics	r3, r2
    1e2e:	642b      	str	r3, [r5, #64]	; 0x40
    1e30:	6c6b      	ldr	r3, [r5, #68]	; 0x44
    1e32:	0064      	lsls	r4, r4, #1
    1e34:	400b      	ands	r3, r1
    1e36:	f240 11fe 	movw	r1, #510	; 0x1fe
    1e3a:	400c      	ands	r4, r1
    1e3c:	431c      	orrs	r4, r3
    1e3e:	b126      	cbz	r6, 1e4a <LOGUART_MonitorParaConfig+0x3e>
    1e40:	2180      	movs	r1, #128	; 0x80
    1e42:	0589      	lsls	r1, r1, #22
    1e44:	430c      	orrs	r4, r1
    1e46:	646c      	str	r4, [r5, #68]	; 0x44
    1e48:	bd70      	pop	{r4, r5, r6, pc}
    1e4a:	4903      	ldr	r1, [pc, #12]	; (1e58 <LOGUART_MonitorParaConfig+0x4c>)
    1e4c:	400c      	ands	r4, r1
    1e4e:	e7fa      	b.n	1e46 <LOGUART_MonitorParaConfig+0x3a>
    1e50:	0000a2cc 	.word	0x0000a2cc
    1e54:	fffffe01 	.word	0xfffffe01
    1e58:	dfffffff 	.word	0xdfffffff

00001e5c <LOGUART_LPBaudSet>:
    1e5c:	4b21      	ldr	r3, [pc, #132]	; (1ee4 <LOGUART_LPBaudSet+0x88>)
    1e5e:	b570      	push	{r4, r5, r6, lr}
    1e60:	0016      	movs	r6, r2
    1e62:	1e4a      	subs	r2, r1, #1
    1e64:	0004      	movs	r4, r0
    1e66:	000d      	movs	r5, r1
    1e68:	429a      	cmp	r2, r3
    1e6a:	d905      	bls.n	1e78 <LOGUART_LPBaudSet+0x1c>
    1e6c:	481e      	ldr	r0, [pc, #120]	; (1ee8 <LOGUART_LPBaudSet+0x8c>)
    1e6e:	f240 31c8 	movw	r1, #968	; 0x3c8
    1e72:	3053      	adds	r0, #83	; 0x53
    1e74:	f7fe f94e 	bl	114 <io_assert_failed>
    1e78:	fbb6 f3f5 	udiv	r3, r6, r5
    1e7c:	002a      	movs	r2, r5
    1e7e:	2100      	movs	r1, #0
    1e80:	435a      	muls	r2, r3
    1e82:	3501      	adds	r5, #1
    1e84:	1ab6      	subs	r6, r6, r2
    1e86:	086d      	lsrs	r5, r5, #1
    1e88:	42ae      	cmp	r6, r5
    1e8a:	4149      	adcs	r1, r1
    1e8c:	185b      	adds	r3, r3, r1
    1e8e:	2180      	movs	r1, #128	; 0x80
    1e90:	68e2      	ldr	r2, [r4, #12]
    1e92:	4816      	ldr	r0, [pc, #88]	; (1eec <LOGUART_LPBaudSet+0x90>)
    1e94:	430a      	orrs	r2, r1
    1e96:	60e2      	str	r2, [r4, #12]
    1e98:	69e2      	ldr	r2, [r4, #28]
    1e9a:	4d15      	ldr	r5, [pc, #84]	; (1ef0 <LOGUART_LPBaudSet+0x94>)
    1e9c:	430a      	orrs	r2, r1
    1e9e:	61e2      	str	r2, [r4, #28]
    1ea0:	6a22      	ldr	r2, [r4, #32]
    1ea2:	4010      	ands	r0, r2
    1ea4:	011a      	lsls	r2, r3, #4
    1ea6:	402a      	ands	r2, r5
    1ea8:	4302      	orrs	r2, r0
    1eaa:	6222      	str	r2, [r4, #32]
    1eac:	69e2      	ldr	r2, [r4, #28]
    1eae:	4811      	ldr	r0, [pc, #68]	; (1ef4 <LOGUART_LPBaudSet+0x98>)
    1eb0:	4002      	ands	r2, r0
    1eb2:	61e2      	str	r2, [r4, #28]
    1eb4:	68e2      	ldr	r2, [r4, #12]
    1eb6:	438a      	bics	r2, r1
    1eb8:	60e2      	str	r2, [r4, #12]
    1eba:	6ca2      	ldr	r2, [r4, #72]	; 0x48
    1ebc:	0d12      	lsrs	r2, r2, #20
    1ebe:	0511      	lsls	r1, r2, #20
    1ec0:	031a      	lsls	r2, r3, #12
    1ec2:	0b12      	lsrs	r2, r2, #12
    1ec4:	430a      	orrs	r2, r1
    1ec6:	64a2      	str	r2, [r4, #72]	; 0x48
    1ec8:	6c62      	ldr	r2, [r4, #68]	; 0x44
    1eca:	490b      	ldr	r1, [pc, #44]	; (1ef8 <LOGUART_LPBaudSet+0x9c>)
    1ecc:	025b      	lsls	r3, r3, #9
    1ece:	400a      	ands	r2, r1
    1ed0:	490a      	ldr	r1, [pc, #40]	; (1efc <LOGUART_LPBaudSet+0xa0>)
    1ed2:	400b      	ands	r3, r1
    1ed4:	4313      	orrs	r3, r2
    1ed6:	6463      	str	r3, [r4, #68]	; 0x44
    1ed8:	6c23      	ldr	r3, [r4, #64]	; 0x40
    1eda:	4a09      	ldr	r2, [pc, #36]	; (1f00 <LOGUART_LPBaudSet+0xa4>)
    1edc:	4013      	ands	r3, r2
    1ede:	6423      	str	r3, [r4, #64]	; 0x40
    1ee0:	bd70      	pop	{r4, r5, r6, pc}
    1ee2:	bf00      	nop
    1ee4:	0007a11f 	.word	0x0007a11f
    1ee8:	0000a2cc 	.word	0x0000a2cc
    1eec:	ff00000f 	.word	0xff00000f
    1ef0:	00fffff0 	.word	0x00fffff0
    1ef4:	f800ffff 	.word	0xf800ffff
    1ef8:	e00001ff 	.word	0xe00001ff
    1efc:	1ffffe00 	.word	0x1ffffe00
    1f00:	ffffc007 	.word	0xffffc007

00001f04 <LOGUART_Relay_LPSetBaud>:
    1f04:	4b15      	ldr	r3, [pc, #84]	; (1f5c <LOGUART_Relay_LPSetBaud+0x58>)
    1f06:	b570      	push	{r4, r5, r6, lr}
    1f08:	0016      	movs	r6, r2
    1f0a:	1e4a      	subs	r2, r1, #1
    1f0c:	0004      	movs	r4, r0
    1f0e:	000d      	movs	r5, r1
    1f10:	429a      	cmp	r2, r3
    1f12:	d905      	bls.n	1f20 <LOGUART_Relay_LPSetBaud+0x1c>
    1f14:	4812      	ldr	r0, [pc, #72]	; (1f60 <LOGUART_Relay_LPSetBaud+0x5c>)
    1f16:	f240 4107 	movw	r1, #1031	; 0x407
    1f1a:	3065      	adds	r0, #101	; 0x65
    1f1c:	f7fe f8fa 	bl	114 <io_assert_failed>
    1f20:	fbb6 f1f5 	udiv	r1, r6, r5
    1f24:	002a      	movs	r2, r5
    1f26:	2300      	movs	r3, #0
    1f28:	434a      	muls	r2, r1
    1f2a:	3501      	adds	r5, #1
    1f2c:	1ab6      	subs	r6, r6, r2
    1f2e:	086d      	lsrs	r5, r5, #1
    1f30:	42ae      	cmp	r6, r5
    1f32:	415b      	adcs	r3, r3
    1f34:	2080      	movs	r0, #128	; 0x80
    1f36:	18c9      	adds	r1, r1, r3
    1f38:	6ee3      	ldr	r3, [r4, #108]	; 0x6c
    1f3a:	4303      	orrs	r3, r0
    1f3c:	66e3      	str	r3, [r4, #108]	; 0x6c
    1f3e:	6ee3      	ldr	r3, [r4, #108]	; 0x6c
    1f40:	051b      	lsls	r3, r3, #20
    1f42:	0d1a      	lsrs	r2, r3, #20
    1f44:	030b      	lsls	r3, r1, #12
    1f46:	4313      	orrs	r3, r2
    1f48:	66e3      	str	r3, [r4, #108]	; 0x6c
    1f4a:	6f23      	ldr	r3, [r4, #112]	; 0x70
    1f4c:	4a05      	ldr	r2, [pc, #20]	; (1f64 <LOGUART_Relay_LPSetBaud+0x60>)
    1f4e:	4013      	ands	r3, r2
    1f50:	6723      	str	r3, [r4, #112]	; 0x70
    1f52:	6ee3      	ldr	r3, [r4, #108]	; 0x6c
    1f54:	4383      	bics	r3, r0
    1f56:	66e3      	str	r3, [r4, #108]	; 0x6c
    1f58:	bd70      	pop	{r4, r5, r6, pc}
    1f5a:	bf00      	nop
    1f5c:	0007a11f 	.word	0x0007a11f
    1f60:	0000a2cc 	.word	0x0000a2cc
    1f64:	ffffc007 	.word	0xffffc007

00001f68 <LOGUART_RxMonitorCmd>:
    1f68:	2301      	movs	r3, #1
    1f6a:	6c42      	ldr	r2, [r0, #68]	; 0x44
    1f6c:	b111      	cbz	r1, 1f74 <LOGUART_RxMonitorCmd+0xc>
    1f6e:	4313      	orrs	r3, r2
    1f70:	6443      	str	r3, [r0, #68]	; 0x44
    1f72:	4770      	bx	lr
    1f74:	439a      	bics	r2, r3
    1f76:	6442      	str	r2, [r0, #68]	; 0x44
    1f78:	e7fb      	b.n	1f72 <LOGUART_RxMonitorCmd+0xa>

00001f7a <LOGUART_RxMonBaudCtrlRegGet>:
    1f7a:	6c40      	ldr	r0, [r0, #68]	; 0x44
    1f7c:	4770      	bx	lr

00001f7e <LOGUART_RxMonitorSatusGet>:
    1f7e:	6c80      	ldr	r0, [r0, #72]	; 0x48
    1f80:	4770      	bx	lr

00001f82 <LOGUART_DiagInit>:
    1f82:	b530      	push	{r4, r5, lr}
    1f84:	4916      	ldr	r1, [pc, #88]	; (1fe0 <LOGUART_DiagInit+0x5e>)
    1f86:	4b17      	ldr	r3, [pc, #92]	; (1fe4 <LOGUART_DiagInit+0x62>)
    1f88:	b095      	sub	sp, #84	; 0x54
    1f8a:	2201      	movs	r2, #1
    1f8c:	0005      	movs	r5, r0
    1f8e:	681c      	ldr	r4, [r3, #0]
    1f90:	0008      	movs	r0, r1
    1f92:	4b15      	ldr	r3, [pc, #84]	; (1fe8 <LOGUART_DiagInit+0x66>)
    1f94:	4798      	blx	r3
    1f96:	2101      	movs	r1, #1
    1f98:	2000      	movs	r0, #0
    1f9a:	4b14      	ldr	r3, [pc, #80]	; (1fec <LOGUART_DiagInit+0x6a>)
    1f9c:	4798      	blx	r3
    1f9e:	a801      	add	r0, sp, #4
    1fa0:	4b13      	ldr	r3, [pc, #76]	; (1ff0 <LOGUART_DiagInit+0x6e>)
    1fa2:	4798      	blx	r3
    1fa4:	a801      	add	r0, sp, #4
    1fa6:	f7ff fe41 	bl	1c2c <LOGUART_Init>
    1faa:	2d01      	cmp	r5, #1
    1fac:	d115      	bne.n	1fda <LOGUART_DiagInit+0x58>
    1fae:	0624      	lsls	r4, r4, #24
    1fb0:	0fa3      	lsrs	r3, r4, #30
    1fb2:	2414      	movs	r4, #20
    1fb4:	2200      	movs	r2, #0
    1fb6:	435c      	muls	r4, r3
    1fb8:	4b0e      	ldr	r3, [pc, #56]	; (1ff4 <LOGUART_DiagInit+0x72>)
    1fba:	480f      	ldr	r0, [pc, #60]	; (1ff8 <LOGUART_DiagInit+0x76>)
    1fbc:	18e4      	adds	r4, r4, r3
    1fbe:	6921      	ldr	r1, [r4, #16]
    1fc0:	2302      	movs	r3, #2
    1fc2:	4d0e      	ldr	r5, [pc, #56]	; (1ffc <LOGUART_DiagInit+0x7a>)
    1fc4:	9200      	str	r2, [sp, #0]
    1fc6:	47a8      	blx	r5
    1fc8:	6920      	ldr	r0, [r4, #16]
    1fca:	4b0d      	ldr	r3, [pc, #52]	; (2000 <LOGUART_DiagInit+0x7e>)
    1fcc:	4798      	blx	r3
    1fce:	4b0d      	ldr	r3, [pc, #52]	; (2004 <LOGUART_DiagInit+0x82>)
    1fd0:	4668      	mov	r0, sp
    1fd2:	4798      	blx	r3
    1fd4:	9900      	ldr	r1, [sp, #0]
    1fd6:	4b0c      	ldr	r3, [pc, #48]	; (2008 <LOGUART_DiagInit+0x86>)
    1fd8:	4798      	blx	r3
    1fda:	b015      	add	sp, #84	; 0x54
    1fdc:	bd30      	pop	{r4, r5, pc}
    1fde:	bf00      	nop
    1fe0:	40000020 	.word	0x40000020
    1fe4:	41008228 	.word	0x41008228
    1fe8:	00002c1d 	.word	0x00002c1d
    1fec:	00002aed 	.word	0x00002aed
    1ff0:	00001781 	.word	0x00001781
    1ff4:	0000a068 	.word	0x0000a068
    1ff8:	00005029 	.word	0x00005029
    1ffc:	0000421d 	.word	0x0000421d
    2000:	000040c1 	.word	0x000040c1
    2004:	00004d05 	.word	0x00004d05
    2008:	000050e1 	.word	0x000050e1

0000200c <RSIP_OTF_Load_Key>:
    200c:	2315      	movs	r3, #21
    200e:	2102      	movs	r1, #2
    2010:	4a03      	ldr	r2, [pc, #12]	; (2020 <RSIP_OTF_Load_Key+0x14>)
    2012:	3b01      	subs	r3, #1
    2014:	b113      	cbz	r3, 201c <RSIP_OTF_Load_Key+0x10>
    2016:	6810      	ldr	r0, [r2, #0]
    2018:	4208      	tst	r0, r1
    201a:	d0fa      	beq.n	2012 <RSIP_OTF_Load_Key+0x6>
    201c:	4770      	bx	lr
    201e:	bf00      	nop
    2020:	41104000 	.word	0x41104000

00002024 <RSIP_OTF_init>:
    2024:	2360      	movs	r3, #96	; 0x60
    2026:	0140      	lsls	r0, r0, #5
    2028:	4018      	ands	r0, r3
    202a:	4b01      	ldr	r3, [pc, #4]	; (2030 <RSIP_OTF_init+0xc>)
    202c:	6158      	str	r0, [r3, #20]
    202e:	4770      	bx	lr
    2030:	41104000 	.word	0x41104000

00002034 <RSIP_IV_Set>:
    2034:	b510      	push	{r4, lr}
    2036:	784c      	ldrb	r4, [r1, #1]
    2038:	780b      	ldrb	r3, [r1, #0]
    203a:	788a      	ldrb	r2, [r1, #2]
    203c:	0224      	lsls	r4, r4, #8
    203e:	431c      	orrs	r4, r3
    2040:	78cb      	ldrb	r3, [r1, #3]
    2042:	0412      	lsls	r2, r2, #16
    2044:	4314      	orrs	r4, r2
    2046:	061b      	lsls	r3, r3, #24
    2048:	4a09      	ldr	r2, [pc, #36]	; (2070 <RSIP_IV_Set+0x3c>)
    204a:	4323      	orrs	r3, r4
    204c:	00c0      	lsls	r0, r0, #3
    204e:	1880      	adds	r0, r0, r2
    2050:	ba1b      	rev	r3, r3
    2052:	6643      	str	r3, [r0, #100]	; 0x64
    2054:	794c      	ldrb	r4, [r1, #5]
    2056:	790b      	ldrb	r3, [r1, #4]
    2058:	798a      	ldrb	r2, [r1, #6]
    205a:	0224      	lsls	r4, r4, #8
    205c:	431c      	orrs	r4, r3
    205e:	79cb      	ldrb	r3, [r1, #7]
    2060:	0412      	lsls	r2, r2, #16
    2062:	4314      	orrs	r4, r2
    2064:	061b      	lsls	r3, r3, #24
    2066:	4323      	orrs	r3, r4
    2068:	ba1b      	rev	r3, r3
    206a:	6603      	str	r3, [r0, #96]	; 0x60
    206c:	bd10      	pop	{r4, pc}
    206e:	bf00      	nop
    2070:	41104000 	.word	0x41104000

00002074 <RSIP_OTF_Cmd>:
    2074:	4b06      	ldr	r3, [pc, #24]	; (2090 <RSIP_OTF_Cmd+0x1c>)
    2076:	2801      	cmp	r0, #1
    2078:	d105      	bne.n	2086 <RSIP_OTF_Cmd+0x12>
    207a:	f240 1200 	movw	r2, #256	; 0x100
    207e:	6959      	ldr	r1, [r3, #20]
    2080:	430a      	orrs	r2, r1
    2082:	615a      	str	r2, [r3, #20]
    2084:	4770      	bx	lr
    2086:	695a      	ldr	r2, [r3, #20]
    2088:	4902      	ldr	r1, [pc, #8]	; (2094 <RSIP_OTF_Cmd+0x20>)
    208a:	400a      	ands	r2, r1
    208c:	e7f9      	b.n	2082 <RSIP_OTF_Cmd+0xe>
    208e:	bf00      	nop
    2090:	41104000 	.word	0x41104000
    2094:	fffffeff 	.word	0xfffffeff

00002098 <RSIP_OTF_Enable>:
    2098:	b5f8      	push	{r3, r4, r5, r6, r7, lr}
    209a:	9d07      	ldr	r5, [sp, #28]
    209c:	0007      	movs	r7, r0
    209e:	000e      	movs	r6, r1
    20a0:	0014      	movs	r4, r2
    20a2:	b34b      	cbz	r3, 20f8 <RSIP_OTF_Enable+0x60>
    20a4:	9b06      	ldr	r3, [sp, #24]
    20a6:	2b07      	cmp	r3, #7
    20a8:	d903      	bls.n	20b2 <RSIP_OTF_Enable+0x1a>
    20aa:	2164      	movs	r1, #100	; 0x64
    20ac:	4817      	ldr	r0, [pc, #92]	; (210c <RSIP_OTF_Enable+0x74>)
    20ae:	f7fe f831 	bl	114 <io_assert_failed>
    20b2:	1e6b      	subs	r3, r5, #1
    20b4:	2b01      	cmp	r3, #1
    20b6:	d903      	bls.n	20c0 <RSIP_OTF_Enable+0x28>
    20b8:	2165      	movs	r1, #101	; 0x65
    20ba:	4814      	ldr	r0, [pc, #80]	; (210c <RSIP_OTF_Enable+0x74>)
    20bc:	f7fe f82a 	bl	114 <io_assert_failed>
    20c0:	200c      	movs	r0, #12
    20c2:	4347      	muls	r7, r0
    20c4:	4b12      	ldr	r3, [pc, #72]	; (2110 <RSIP_OTF_Enable+0x78>)
    20c6:	4913      	ldr	r1, [pc, #76]	; (2114 <RSIP_OTF_Enable+0x7c>)
    20c8:	18f8      	adds	r0, r7, r3
    20ca:	2301      	movs	r3, #1
    20cc:	6802      	ldr	r2, [r0, #0]
    20ce:	1879      	adds	r1, r7, r1
    20d0:	439a      	bics	r2, r3
    20d2:	6002      	str	r2, [r0, #0]
    20d4:	221f      	movs	r2, #31
    20d6:	4396      	bics	r6, r2
    20d8:	600e      	str	r6, [r1, #0]
    20da:	490f      	ldr	r1, [pc, #60]	; (2118 <RSIP_OTF_Enable+0x80>)
    20dc:	4394      	bics	r4, r2
    20de:	187f      	adds	r7, r7, r1
    20e0:	603c      	str	r4, [r7, #0]
    20e2:	9a06      	ldr	r2, [sp, #24]
    20e4:	409d      	lsls	r5, r3
    20e6:	00d4      	lsls	r4, r2, #3
    20e8:	2238      	movs	r2, #56	; 0x38
    20ea:	4014      	ands	r4, r2
    20ec:	3a32      	subs	r2, #50	; 0x32
    20ee:	4015      	ands	r5, r2
    20f0:	432c      	orrs	r4, r5
    20f2:	431c      	orrs	r4, r3
    20f4:	6004      	str	r4, [r0, #0]
    20f6:	bdf8      	pop	{r3, r4, r5, r6, r7, pc}
    20f8:	200c      	movs	r0, #12
    20fa:	2201      	movs	r2, #1
    20fc:	4347      	muls	r7, r0
    20fe:	4b04      	ldr	r3, [pc, #16]	; (2110 <RSIP_OTF_Enable+0x78>)
    2100:	18ff      	adds	r7, r7, r3
    2102:	683b      	ldr	r3, [r7, #0]
    2104:	4393      	bics	r3, r2
    2106:	603b      	str	r3, [r7, #0]
    2108:	e7f5      	b.n	20f6 <RSIP_OTF_Enable+0x5e>
    210a:	bf00      	nop
    210c:	0000a349 	.word	0x0000a349
    2110:	411040a8 	.word	0x411040a8
    2114:	411040a0 	.word	0x411040a0
    2118:	411040a4 	.word	0x411040a4

0000211c <RSIP_MMU_Config>:
    211c:	b530      	push	{r4, r5, lr}
    211e:	240c      	movs	r4, #12
    2120:	2501      	movs	r5, #1
    2122:	4360      	muls	r0, r4
    2124:	4c07      	ldr	r4, [pc, #28]	; (2144 <RSIP_MMU_Config+0x28>)
    2126:	0949      	lsrs	r1, r1, #5
    2128:	1900      	adds	r0, r0, r4
    212a:	68c4      	ldr	r4, [r0, #12]
    212c:	0952      	lsrs	r2, r2, #5
    212e:	095b      	lsrs	r3, r3, #5
    2130:	43ac      	bics	r4, r5
    2132:	0249      	lsls	r1, r1, #9
    2134:	0252      	lsls	r2, r2, #9
    2136:	025b      	lsls	r3, r3, #9
    2138:	60c4      	str	r4, [r0, #12]
    213a:	6041      	str	r1, [r0, #4]
    213c:	6082      	str	r2, [r0, #8]
    213e:	60c3      	str	r3, [r0, #12]
    2140:	bd30      	pop	{r4, r5, pc}
    2142:	bf00      	nop
    2144:	411040fc 	.word	0x411040fc

00002148 <RSIP_MMU_Cmd>:
    2148:	230c      	movs	r3, #12
    214a:	4343      	muls	r3, r0
    214c:	4a05      	ldr	r2, [pc, #20]	; (2164 <RSIP_MMU_Cmd+0x1c>)
    214e:	189b      	adds	r3, r3, r2
    2150:	b121      	cbz	r1, 215c <RSIP_MMU_Cmd+0x14>
    2152:	2201      	movs	r2, #1
    2154:	68d9      	ldr	r1, [r3, #12]
    2156:	430a      	orrs	r2, r1
    2158:	60da      	str	r2, [r3, #12]
    215a:	4770      	bx	lr
    215c:	2101      	movs	r1, #1
    215e:	68da      	ldr	r2, [r3, #12]
    2160:	438a      	bics	r2, r1
    2162:	e7f9      	b.n	2158 <RSIP_MMU_Cmd+0x10>
    2164:	411040fc 	.word	0x411040fc

00002168 <RSIP_MMU_Cache_Clean>:
    2168:	2204      	movs	r2, #4
    216a:	4b01      	ldr	r3, [pc, #4]	; (2170 <RSIP_MMU_Cache_Clean+0x8>)
    216c:	619a      	str	r2, [r3, #24]
    216e:	4770      	bx	lr
    2170:	41104000 	.word	0x41104000

00002174 <OTP_PowerCmd>:
    2174:	4904      	ldr	r1, [pc, #16]	; (2188 <OTP_PowerCmd+0x14>)
    2176:	2202      	movs	r2, #2
    2178:	680b      	ldr	r3, [r1, #0]
    217a:	b110      	cbz	r0, 2182 <OTP_PowerCmd+0xe>
    217c:	4313      	orrs	r3, r2
    217e:	600b      	str	r3, [r1, #0]
    2180:	4770      	bx	lr
    2182:	4393      	bics	r3, r2
    2184:	e7fb      	b.n	217e <OTP_PowerCmd+0xa>
    2186:	bf00      	nop
    2188:	41008000 	.word	0x41008000

0000218c <OTP_GetPowerState>:
    218c:	4b02      	ldr	r3, [pc, #8]	; (2198 <OTP_GetPowerState+0xc>)
    218e:	6818      	ldr	r0, [r3, #0]
    2190:	0780      	lsls	r0, r0, #30
    2192:	0fc0      	lsrs	r0, r0, #31
    2194:	4770      	bx	lr
    2196:	bf00      	nop
    2198:	41008000 	.word	0x41008000

0000219c <OTP_AccessCmd>:
    219c:	2282      	movs	r2, #130	; 0x82
    219e:	05d2      	lsls	r2, r2, #23
    21a0:	b128      	cbz	r0, 21ae <OTP_AccessCmd+0x12>
    21a2:	23d2      	movs	r3, #210	; 0xd2
    21a4:	6951      	ldr	r1, [r2, #20]
    21a6:	05db      	lsls	r3, r3, #23
    21a8:	430b      	orrs	r3, r1
    21aa:	6153      	str	r3, [r2, #20]
    21ac:	4770      	bx	lr
    21ae:	6953      	ldr	r3, [r2, #20]
    21b0:	021b      	lsls	r3, r3, #8
    21b2:	0a1b      	lsrs	r3, r3, #8
    21b4:	e7f9      	b.n	21aa <OTP_AccessCmd+0xe>

000021b6 <OTPPowerSwitch>:
    21b6:	b570      	push	{r4, r5, r6, lr}
    21b8:	0005      	movs	r5, r0
    21ba:	000c      	movs	r4, r1
    21bc:	2901      	cmp	r1, #1
    21be:	d105      	bne.n	21cc <OTPPowerSwitch+0x16>
    21c0:	f7ff ffe4 	bl	218c <OTP_GetPowerState>
    21c4:	b910      	cbnz	r0, 21cc <OTPPowerSwitch+0x16>
    21c6:	0020      	movs	r0, r4
    21c8:	f7ff ffd4 	bl	2174 <OTP_PowerCmd>
    21cc:	0028      	movs	r0, r5
    21ce:	f7ff ffe5 	bl	219c <OTP_AccessCmd>
    21d2:	bd70      	pop	{r4, r5, r6, pc}

000021d4 <OTPGetCRC>:
    21d4:	b570      	push	{r4, r5, r6, lr}
    21d6:	2380      	movs	r3, #128	; 0x80
    21d8:	2482      	movs	r4, #130	; 0x82
    21da:	f644 6521 	movw	r5, #20001	; 0x4e21
    21de:	2602      	movs	r6, #2
    21e0:	05e4      	lsls	r4, r4, #23
    21e2:	05db      	lsls	r3, r3, #23
    21e4:	6363      	str	r3, [r4, #52]	; 0x34
    21e6:	6823      	ldr	r3, [r4, #0]
    21e8:	4233      	tst	r3, r6
    21ea:	d101      	bne.n	21f0 <OTPGetCRC+0x1c>
    21ec:	3d01      	subs	r5, #1
    21ee:	b925      	cbnz	r5, 21fa <OTPGetCRC+0x26>
    21f0:	6b20      	ldr	r0, [r4, #48]	; 0x30
    21f2:	4b04      	ldr	r3, [pc, #16]	; (2204 <OTPGetCRC+0x30>)
    21f4:	0c00      	lsrs	r0, r0, #16
    21f6:	6363      	str	r3, [r4, #52]	; 0x34
    21f8:	bd70      	pop	{r4, r5, r6, pc}
    21fa:	2001      	movs	r0, #1
    21fc:	4b02      	ldr	r3, [pc, #8]	; (2208 <OTPGetCRC+0x34>)
    21fe:	4798      	blx	r3
    2200:	e7f1      	b.n	21e6 <OTPGetCRC+0x12>
    2202:	bf00      	nop
    2204:	bfffffff 	.word	0xbfffffff
    2208:	0000056b 	.word	0x0000056b

0000220c <OTP_Read8>:
    220c:	b5f8      	push	{r3, r4, r5, r6, r7, lr}
    220e:	f240 73ff 	movw	r3, #2047	; 0x7ff
    2212:	0004      	movs	r4, r0
    2214:	000d      	movs	r5, r1
    2216:	4298      	cmp	r0, r3
    2218:	d904      	bls.n	2224 <OTP_Read8+0x18>
    221a:	23ff      	movs	r3, #255	; 0xff
    221c:	2500      	movs	r5, #0
    221e:	700b      	strb	r3, [r1, #0]
    2220:	0028      	movs	r0, r5
    2222:	bdf8      	pop	{r3, r4, r5, r6, r7, pc}
    2224:	2782      	movs	r7, #130	; 0x82
    2226:	2600      	movs	r6, #0
    2228:	2101      	movs	r1, #1
    222a:	2000      	movs	r0, #0
    222c:	f7ff ffc3 	bl	21b6 <OTPPowerSwitch>
    2230:	05ff      	lsls	r7, r7, #23
    2232:	0223      	lsls	r3, r4, #8
    2234:	60bb      	str	r3, [r7, #8]
    2236:	68bb      	ldr	r3, [r7, #8]
    2238:	2b00      	cmp	r3, #0
    223a:	db18      	blt.n	226e <OTP_Read8+0x62>
    223c:	f644 6320 	movw	r3, #20000	; 0x4e20
    2240:	429e      	cmp	r6, r3
    2242:	d10f      	bne.n	2264 <OTP_Read8+0x58>
    2244:	23ff      	movs	r3, #255	; 0xff
    2246:	702b      	strb	r3, [r5, #0]
    2248:	4b0f      	ldr	r3, [pc, #60]	; (2288 <OTP_Read8+0x7c>)
    224a:	681a      	ldr	r2, [r3, #0]
    224c:	f248 0300 	movw	r3, #32768	; 0x8000
    2250:	0015      	movs	r5, r2
    2252:	401d      	ands	r5, r3
    2254:	421a      	tst	r2, r3
    2256:	d011      	beq.n	227c <OTP_Read8+0x70>
    2258:	0021      	movs	r1, r4
    225a:	480c      	ldr	r0, [pc, #48]	; (228c <OTP_Read8+0x80>)
    225c:	f002 fae2 	bl	4824 <DiagPrintf>
    2260:	2500      	movs	r5, #0
    2262:	e00b      	b.n	227c <OTP_Read8+0x70>
    2264:	2005      	movs	r0, #5
    2266:	4b0a      	ldr	r3, [pc, #40]	; (2290 <OTP_Read8+0x84>)
    2268:	4798      	blx	r3
    226a:	3601      	adds	r6, #1
    226c:	e7e3      	b.n	2236 <OTP_Read8+0x2a>
    226e:	f644 6320 	movw	r3, #20000	; 0x4e20
    2272:	429e      	cmp	r6, r3
    2274:	d0e6      	beq.n	2244 <OTP_Read8+0x38>
    2276:	68bb      	ldr	r3, [r7, #8]
    2278:	702b      	strb	r3, [r5, #0]
    227a:	2501      	movs	r5, #1
    227c:	2100      	movs	r1, #0
    227e:	0008      	movs	r0, r1
    2280:	f7ff ff99 	bl	21b6 <OTPPowerSwitch>
    2284:	e7cc      	b.n	2220 <OTP_Read8+0x14>
    2286:	bf00      	nop
    2288:	20000660 	.word	0x20000660
    228c:	0000a359 	.word	0x0000a359
    2290:	0000056b 	.word	0x0000056b

00002294 <OTP_ProgramMarginRead8>:
    2294:	b5f8      	push	{r3, r4, r5, r6, r7, lr}
    2296:	f240 73ff 	movw	r3, #2047	; 0x7ff
    229a:	0004      	movs	r4, r0
    229c:	000d      	movs	r5, r1
    229e:	4298      	cmp	r0, r3
    22a0:	d903      	bls.n	22aa <OTP_ProgramMarginRead8+0x16>
    22a2:	23ff      	movs	r3, #255	; 0xff
    22a4:	2000      	movs	r0, #0
    22a6:	700b      	strb	r3, [r1, #0]
    22a8:	bdf8      	pop	{r3, r4, r5, r6, r7, pc}
    22aa:	2101      	movs	r1, #1
    22ac:	2000      	movs	r0, #0
    22ae:	f7ff ff82 	bl	21b6 <OTPPowerSwitch>
    22b2:	2380      	movs	r3, #128	; 0x80
    22b4:	2782      	movs	r7, #130	; 0x82
    22b6:	2600      	movs	r6, #0
    22b8:	0222      	lsls	r2, r4, #8
    22ba:	035b      	lsls	r3, r3, #13
    22bc:	4313      	orrs	r3, r2
    22be:	05ff      	lsls	r7, r7, #23
    22c0:	60bb      	str	r3, [r7, #8]
    22c2:	68bb      	ldr	r3, [r7, #8]
    22c4:	2b00      	cmp	r3, #0
    22c6:	db18      	blt.n	22fa <OTP_ProgramMarginRead8+0x66>
    22c8:	f644 6320 	movw	r3, #20000	; 0x4e20
    22cc:	429e      	cmp	r6, r3
    22ce:	d10f      	bne.n	22f0 <OTP_ProgramMarginRead8+0x5c>
    22d0:	23ff      	movs	r3, #255	; 0xff
    22d2:	702b      	strb	r3, [r5, #0]
    22d4:	4b0f      	ldr	r3, [pc, #60]	; (2314 <OTP_ProgramMarginRead8+0x80>)
    22d6:	681a      	ldr	r2, [r3, #0]
    22d8:	f248 0300 	movw	r3, #32768	; 0x8000
    22dc:	0015      	movs	r5, r2
    22de:	401d      	ands	r5, r3
    22e0:	421a      	tst	r2, r3
    22e2:	d011      	beq.n	2308 <OTP_ProgramMarginRead8+0x74>
    22e4:	0021      	movs	r1, r4
    22e6:	480c      	ldr	r0, [pc, #48]	; (2318 <OTP_ProgramMarginRead8+0x84>)
    22e8:	f002 fa9c 	bl	4824 <DiagPrintf>
    22ec:	2500      	movs	r5, #0
    22ee:	e00b      	b.n	2308 <OTP_ProgramMarginRead8+0x74>
    22f0:	2005      	movs	r0, #5
    22f2:	4b0a      	ldr	r3, [pc, #40]	; (231c <OTP_ProgramMarginRead8+0x88>)
    22f4:	4798      	blx	r3
    22f6:	3601      	adds	r6, #1
    22f8:	e7e3      	b.n	22c2 <OTP_ProgramMarginRead8+0x2e>
    22fa:	f644 6320 	movw	r3, #20000	; 0x4e20
    22fe:	429e      	cmp	r6, r3
    2300:	d0e6      	beq.n	22d0 <OTP_ProgramMarginRead8+0x3c>
    2302:	68bb      	ldr	r3, [r7, #8]
    2304:	702b      	strb	r3, [r5, #0]
    2306:	2501      	movs	r5, #1
    2308:	2100      	movs	r1, #0
    230a:	0008      	movs	r0, r1
    230c:	f7ff ff53 	bl	21b6 <OTPPowerSwitch>
    2310:	b2e8      	uxtb	r0, r5
    2312:	e7c9      	b.n	22a8 <OTP_ProgramMarginRead8+0x14>
    2314:	20000660 	.word	0x20000660
    2318:	0000a359 	.word	0x0000a359
    231c:	0000056b 	.word	0x0000056b

00002320 <_OTP_Write8>:
    2320:	b5f8      	push	{r3, r4, r5, r6, r7, lr}
    2322:	f240 73ff 	movw	r3, #2047	; 0x7ff
    2326:	0005      	movs	r5, r0
    2328:	000e      	movs	r6, r1
    232a:	2400      	movs	r4, #0
    232c:	4298      	cmp	r0, r3
    232e:	d830      	bhi.n	2392 <_OTP_Write8+0x72>
    2330:	3401      	adds	r4, #1
    2332:	29ff      	cmp	r1, #255	; 0xff
    2334:	d02d      	beq.n	2392 <_OTP_Write8+0x72>
    2336:	0021      	movs	r1, r4
    2338:	0020      	movs	r0, r4
    233a:	f7ff ff3c 	bl	21b6 <OTPPowerSwitch>
    233e:	0229      	lsls	r1, r5, #8
    2340:	4331      	orrs	r1, r6
    2342:	2680      	movs	r6, #128	; 0x80
    2344:	2482      	movs	r4, #130	; 0x82
    2346:	0636      	lsls	r6, r6, #24
    2348:	430e      	orrs	r6, r1
    234a:	05e4      	lsls	r4, r4, #23
    234c:	60a6      	str	r6, [r4, #8]
    234e:	f644 6720 	movw	r7, #20000	; 0x4e20
    2352:	2600      	movs	r6, #0
    2354:	68a3      	ldr	r3, [r4, #8]
    2356:	2b00      	cmp	r3, #0
    2358:	da14      	bge.n	2384 <_OTP_Write8+0x64>
    235a:	42be      	cmp	r6, r7
    235c:	d10d      	bne.n	237a <_OTP_Write8+0x5a>
    235e:	4b0e      	ldr	r3, [pc, #56]	; (2398 <_OTP_Write8+0x78>)
    2360:	681a      	ldr	r2, [r3, #0]
    2362:	f248 0300 	movw	r3, #32768	; 0x8000
    2366:	0014      	movs	r4, r2
    2368:	401c      	ands	r4, r3
    236a:	421a      	tst	r2, r3
    236c:	d00d      	beq.n	238a <_OTP_Write8+0x6a>
    236e:	0029      	movs	r1, r5
    2370:	480a      	ldr	r0, [pc, #40]	; (239c <_OTP_Write8+0x7c>)
    2372:	f002 fa57 	bl	4824 <DiagPrintf>
    2376:	2400      	movs	r4, #0
    2378:	e007      	b.n	238a <_OTP_Write8+0x6a>
    237a:	2005      	movs	r0, #5
    237c:	4b08      	ldr	r3, [pc, #32]	; (23a0 <_OTP_Write8+0x80>)
    237e:	4798      	blx	r3
    2380:	3601      	adds	r6, #1
    2382:	e7e7      	b.n	2354 <_OTP_Write8+0x34>
    2384:	2401      	movs	r4, #1
    2386:	42be      	cmp	r6, r7
    2388:	d0e9      	beq.n	235e <_OTP_Write8+0x3e>
    238a:	2100      	movs	r1, #0
    238c:	0008      	movs	r0, r1
    238e:	f7ff ff12 	bl	21b6 <OTPPowerSwitch>
    2392:	0020      	movs	r0, r4
    2394:	bdf8      	pop	{r3, r4, r5, r6, r7, pc}
    2396:	bf00      	nop
    2398:	20000660 	.word	0x20000660
    239c:	0000a386 	.word	0x0000a386
    23a0:	0000056b 	.word	0x0000056b

000023a4 <OTP_Write8>:
    23a4:	b5f0      	push	{r4, r5, r6, r7, lr}
    23a6:	b085      	sub	sp, #20
    23a8:	ab02      	add	r3, sp, #8
    23aa:	000e      	movs	r6, r1
    23ac:	1dd9      	adds	r1, r3, #7
    23ae:	0005      	movs	r5, r0
    23b0:	f7ff ff70 	bl	2294 <OTP_ProgramMarginRead8>
    23b4:	2302      	movs	r3, #2
    23b6:	0004      	movs	r4, r0
    23b8:	0037      	movs	r7, r6
    23ba:	9301      	str	r3, [sp, #4]
    23bc:	b958      	cbnz	r0, 23d6 <OTP_Write8+0x32>
    23be:	4b1a      	ldr	r3, [pc, #104]	; (2428 <OTP_Write8+0x84>)
    23c0:	681b      	ldr	r3, [r3, #0]
    23c2:	041b      	lsls	r3, r3, #16
    23c4:	d52c      	bpl.n	2420 <OTP_Write8+0x7c>
    23c6:	4819      	ldr	r0, [pc, #100]	; (242c <OTP_Write8+0x88>)
    23c8:	f002 fa2c 	bl	4824 <DiagPrintf>
    23cc:	0020      	movs	r0, r4
    23ce:	b005      	add	sp, #20
    23d0:	bdf0      	pop	{r4, r5, r6, r7, pc}
    23d2:	2301      	movs	r3, #1
    23d4:	9301      	str	r3, [sp, #4]
    23d6:	ab02      	add	r3, sp, #8
    23d8:	79db      	ldrb	r3, [r3, #7]
    23da:	0028      	movs	r0, r5
    23dc:	43db      	mvns	r3, r3
    23de:	431f      	orrs	r7, r3
    23e0:	b2ff      	uxtb	r7, r7
    23e2:	0039      	movs	r1, r7
    23e4:	f7ff ff9c 	bl	2320 <_OTP_Write8>
    23e8:	0004      	movs	r4, r0
    23ea:	b928      	cbnz	r0, 23f8 <OTP_Write8+0x54>
    23ec:	4b0e      	ldr	r3, [pc, #56]	; (2428 <OTP_Write8+0x84>)
    23ee:	681b      	ldr	r3, [r3, #0]
    23f0:	041b      	lsls	r3, r3, #16
    23f2:	d515      	bpl.n	2420 <OTP_Write8+0x7c>
    23f4:	480e      	ldr	r0, [pc, #56]	; (2430 <OTP_Write8+0x8c>)
    23f6:	e7e7      	b.n	23c8 <OTP_Write8+0x24>
    23f8:	ab02      	add	r3, sp, #8
    23fa:	0028      	movs	r0, r5
    23fc:	1dd9      	adds	r1, r3, #7
    23fe:	f7ff ff49 	bl	2294 <OTP_ProgramMarginRead8>
    2402:	0004      	movs	r4, r0
    2404:	b928      	cbnz	r0, 2412 <OTP_Write8+0x6e>
    2406:	4b08      	ldr	r3, [pc, #32]	; (2428 <OTP_Write8+0x84>)
    2408:	681b      	ldr	r3, [r3, #0]
    240a:	041b      	lsls	r3, r3, #16
    240c:	d508      	bpl.n	2420 <OTP_Write8+0x7c>
    240e:	4809      	ldr	r0, [pc, #36]	; (2434 <OTP_Write8+0x90>)
    2410:	e7da      	b.n	23c8 <OTP_Write8+0x24>
    2412:	ab02      	add	r3, sp, #8
    2414:	79db      	ldrb	r3, [r3, #7]
    2416:	42b3      	cmp	r3, r6
    2418:	d004      	beq.n	2424 <OTP_Write8+0x80>
    241a:	9b01      	ldr	r3, [sp, #4]
    241c:	2b01      	cmp	r3, #1
    241e:	d1d8      	bne.n	23d2 <OTP_Write8+0x2e>
    2420:	2400      	movs	r4, #0
    2422:	e7d3      	b.n	23cc <OTP_Write8+0x28>
    2424:	2401      	movs	r4, #1
    2426:	e7d1      	b.n	23cc <OTP_Write8+0x28>
    2428:	20000660 	.word	0x20000660
    242c:	0000a3b4 	.word	0x0000a3b4
    2430:	0000a3de 	.word	0x0000a3de
    2434:	0000a40b 	.word	0x0000a40b

00002438 <OTP_Read32>:
    2438:	b5f7      	push	{r0, r1, r2, r4, r5, r6, r7, lr}
    243a:	2400      	movs	r4, #0
    243c:	0006      	movs	r6, r0
    243e:	000d      	movs	r5, r1
    2440:	600c      	str	r4, [r1, #0]
    2442:	466b      	mov	r3, sp
    2444:	1ddf      	adds	r7, r3, #7
    2446:	0039      	movs	r1, r7
    2448:	4b07      	ldr	r3, [pc, #28]	; (2468 <OTP_Read32+0x30>)
    244a:	19a0      	adds	r0, r4, r6
    244c:	4798      	blx	r3
    244e:	b148      	cbz	r0, 2464 <OTP_Read32+0x2c>
    2450:	783b      	ldrb	r3, [r7, #0]
    2452:	00e2      	lsls	r2, r4, #3
    2454:	4093      	lsls	r3, r2
    2456:	682a      	ldr	r2, [r5, #0]
    2458:	3401      	adds	r4, #1
    245a:	4313      	orrs	r3, r2
    245c:	602b      	str	r3, [r5, #0]
    245e:	2c04      	cmp	r4, #4
    2460:	d1ef      	bne.n	2442 <OTP_Read32+0xa>
    2462:	2001      	movs	r0, #1
    2464:	bdfe      	pop	{r1, r2, r3, r4, r5, r6, r7, pc}
    2466:	bf00      	nop
    2468:	0000220d 	.word	0x0000220d

0000246c <OTP_PG_Packet_Byte>:
    246c:	f240 4300 	movw	r3, #1024	; 0x400
    2470:	b5f7      	push	{r0, r1, r2, r4, r5, r6, r7, lr}
    2472:	0005      	movs	r5, r0
    2474:	000e      	movs	r6, r1
    2476:	4f25      	ldr	r7, [pc, #148]	; (250c <OTP_PG_Packet_Byte+0xa0>)
    2478:	4298      	cmp	r0, r3
    247a:	d906      	bls.n	248a <OTP_PG_Packet_Byte+0x1e>
    247c:	687b      	ldr	r3, [r7, #4]
    247e:	041b      	lsls	r3, r3, #16
    2480:	d503      	bpl.n	248a <OTP_PG_Packet_Byte+0x1e>
    2482:	0001      	movs	r1, r0
    2484:	4822      	ldr	r0, [pc, #136]	; (2510 <OTP_PG_Packet_Byte+0xa4>)
    2486:	f002 f9cd 	bl	4824 <DiagPrintf>
    248a:	68bb      	ldr	r3, [r7, #8]
    248c:	041b      	lsls	r3, r3, #16
    248e:	d504      	bpl.n	249a <OTP_PG_Packet_Byte+0x2e>
    2490:	0032      	movs	r2, r6
    2492:	0029      	movs	r1, r5
    2494:	481f      	ldr	r0, [pc, #124]	; (2514 <OTP_PG_Packet_Byte+0xa8>)
    2496:	f002 f9c5 	bl	4824 <DiagPrintf>
    249a:	2400      	movs	r4, #0
    249c:	0020      	movs	r0, r4
    249e:	a901      	add	r1, sp, #4
    24a0:	f7ff ffca 	bl	2438 <OTP_Read32>
    24a4:	9b01      	ldr	r3, [sp, #4]
    24a6:	1c5a      	adds	r2, r3, #1
    24a8:	d01e      	beq.n	24e8 <OTP_PG_Packet_Byte+0x7c>
    24aa:	1d22      	adds	r2, r4, #4
    24ac:	0f19      	lsrs	r1, r3, #28
    24ae:	2902      	cmp	r1, #2
    24b0:	d115      	bne.n	24de <OTP_PG_Packet_Byte+0x72>
    24b2:	0e1c      	lsrs	r4, r3, #24
    24b4:	230f      	movs	r3, #15
    24b6:	401c      	ands	r4, r3
    24b8:	3401      	adds	r4, #1
    24ba:	00a4      	lsls	r4, r4, #2
    24bc:	18a4      	adds	r4, r4, r2
    24be:	f240 13fc 	movw	r3, #508	; 0x1fc
    24c2:	429c      	cmp	r4, r3
    24c4:	d9ea      	bls.n	249c <OTP_PG_Packet_Byte+0x30>
    24c6:	683a      	ldr	r2, [r7, #0]
    24c8:	f248 0300 	movw	r3, #32768	; 0x8000
    24cc:	0010      	movs	r0, r2
    24ce:	4018      	ands	r0, r3
    24d0:	421a      	tst	r2, r3
    24d2:	d003      	beq.n	24dc <OTP_PG_Packet_Byte+0x70>
    24d4:	4810      	ldr	r0, [pc, #64]	; (2518 <OTP_PG_Packet_Byte+0xac>)
    24d6:	f002 f9a5 	bl	4824 <DiagPrintf>
    24da:	2000      	movs	r0, #0
    24dc:	bdfe      	pop	{r1, r2, r3, r4, r5, r6, r7, pc}
    24de:	3408      	adds	r4, #8
    24e0:	2903      	cmp	r1, #3
    24e2:	d0ec      	beq.n	24be <OTP_PG_Packet_Byte+0x52>
    24e4:	0014      	movs	r4, r2
    24e6:	e7ea      	b.n	24be <OTP_PG_Packet_Byte+0x52>
    24e8:	4f0c      	ldr	r7, [pc, #48]	; (251c <OTP_PG_Packet_Byte+0xb0>)
    24ea:	b2e9      	uxtb	r1, r5
    24ec:	0020      	movs	r0, r4
    24ee:	47b8      	blx	r7
    24f0:	0529      	lsls	r1, r5, #20
    24f2:	2570      	movs	r5, #112	; 0x70
    24f4:	0f09      	lsrs	r1, r1, #28
    24f6:	4329      	orrs	r1, r5
    24f8:	1c60      	adds	r0, r4, #1
    24fa:	47b8      	blx	r7
    24fc:	0031      	movs	r1, r6
    24fe:	1ca0      	adds	r0, r4, #2
    2500:	47b8      	blx	r7
    2502:	211f      	movs	r1, #31
    2504:	1ce0      	adds	r0, r4, #3
    2506:	47b8      	blx	r7
    2508:	2001      	movs	r0, #1
    250a:	e7e7      	b.n	24dc <OTP_PG_Packet_Byte+0x70>
    250c:	20000660 	.word	0x20000660
    2510:	0000a436 	.word	0x0000a436
    2514:	0000a478 	.word	0x0000a478
    2518:	0000a4ae 	.word	0x0000a4ae
    251c:	000023a5 	.word	0x000023a5

00002520 <OTP_PG_Packet_Word>:
    2520:	b5f0      	push	{r4, r5, r6, r7, lr}
    2522:	b085      	sub	sp, #20
    2524:	0005      	movs	r5, r0
    2526:	000e      	movs	r6, r1
    2528:	9201      	str	r2, [sp, #4]
    252a:	2910      	cmp	r1, #16
    252c:	d801      	bhi.n	2532 <OTP_PG_Packet_Word+0x12>
    252e:	078b      	lsls	r3, r1, #30
    2530:	d00c      	beq.n	254c <OTP_PG_Packet_Word+0x2c>
    2532:	4b39      	ldr	r3, [pc, #228]	; (2618 <OTP_PG_Packet_Word+0xf8>)
    2534:	681b      	ldr	r3, [r3, #0]
    2536:	041b      	lsls	r3, r3, #16
    2538:	d402      	bmi.n	2540 <OTP_PG_Packet_Word+0x20>
    253a:	2000      	movs	r0, #0
    253c:	b005      	add	sp, #20
    253e:	bdf0      	pop	{r4, r5, r6, r7, pc}
    2540:	0032      	movs	r2, r6
    2542:	0029      	movs	r1, r5
    2544:	4835      	ldr	r0, [pc, #212]	; (261c <OTP_PG_Packet_Word+0xfc>)
    2546:	f002 f96d 	bl	4824 <DiagPrintf>
    254a:	e7f6      	b.n	253a <OTP_PG_Packet_Word+0x1a>
    254c:	f240 4300 	movw	r3, #1024	; 0x400
    2550:	4298      	cmp	r0, r3
    2552:	d907      	bls.n	2564 <OTP_PG_Packet_Word+0x44>
    2554:	4b30      	ldr	r3, [pc, #192]	; (2618 <OTP_PG_Packet_Word+0xf8>)
    2556:	685b      	ldr	r3, [r3, #4]
    2558:	041b      	lsls	r3, r3, #16
    255a:	d503      	bpl.n	2564 <OTP_PG_Packet_Word+0x44>
    255c:	0001      	movs	r1, r0
    255e:	4830      	ldr	r0, [pc, #192]	; (2620 <OTP_PG_Packet_Word+0x100>)
    2560:	f002 f960 	bl	4824 <DiagPrintf>
    2564:	2400      	movs	r4, #0
    2566:	f248 0700 	movw	r7, #32768	; 0x8000
    256a:	42a6      	cmp	r6, r4
    256c:	d823      	bhi.n	25b6 <OTP_PG_Packet_Word+0x96>
    256e:	2400      	movs	r4, #0
    2570:	270f      	movs	r7, #15
    2572:	0020      	movs	r0, r4
    2574:	a903      	add	r1, sp, #12
    2576:	f7ff ff5f 	bl	2438 <OTP_Read32>
    257a:	9b03      	ldr	r3, [sp, #12]
    257c:	1c5a      	adds	r2, r3, #1
    257e:	d00c      	beq.n	259a <OTP_PG_Packet_Word+0x7a>
    2580:	1d22      	adds	r2, r4, #4
    2582:	0f19      	lsrs	r1, r3, #28
    2584:	2902      	cmp	r1, #2
    2586:	d122      	bne.n	25ce <OTP_PG_Packet_Word+0xae>
    2588:	0e1c      	lsrs	r4, r3, #24
    258a:	403c      	ands	r4, r7
    258c:	3401      	adds	r4, #1
    258e:	00a4      	lsls	r4, r4, #2
    2590:	18a4      	adds	r4, r4, r2
    2592:	f240 13fc 	movw	r3, #508	; 0x1fc
    2596:	429c      	cmp	r4, r3
    2598:	d9eb      	bls.n	2572 <OTP_PG_Packet_Word+0x52>
    259a:	f240 12fd 	movw	r2, #509	; 0x1fd
    259e:	1933      	adds	r3, r6, r4
    25a0:	4293      	cmp	r3, r2
    25a2:	d919      	bls.n	25d8 <OTP_PG_Packet_Word+0xb8>
    25a4:	4b1c      	ldr	r3, [pc, #112]	; (2618 <OTP_PG_Packet_Word+0xf8>)
    25a6:	681b      	ldr	r3, [r3, #0]
    25a8:	041b      	lsls	r3, r3, #16
    25aa:	d5c6      	bpl.n	253a <OTP_PG_Packet_Word+0x1a>
    25ac:	0021      	movs	r1, r4
    25ae:	481d      	ldr	r0, [pc, #116]	; (2624 <OTP_PG_Packet_Word+0x104>)
    25b0:	f002 f938 	bl	4824 <DiagPrintf>
    25b4:	e7c1      	b.n	253a <OTP_PG_Packet_Word+0x1a>
    25b6:	4b18      	ldr	r3, [pc, #96]	; (2618 <OTP_PG_Packet_Word+0xf8>)
    25b8:	689b      	ldr	r3, [r3, #8]
    25ba:	423b      	tst	r3, r7
    25bc:	d005      	beq.n	25ca <OTP_PG_Packet_Word+0xaa>
    25be:	9b01      	ldr	r3, [sp, #4]
    25c0:	0021      	movs	r1, r4
    25c2:	5d1a      	ldrb	r2, [r3, r4]
    25c4:	4818      	ldr	r0, [pc, #96]	; (2628 <OTP_PG_Packet_Word+0x108>)
    25c6:	f002 f92d 	bl	4824 <DiagPrintf>
    25ca:	3401      	adds	r4, #1
    25cc:	e7cd      	b.n	256a <OTP_PG_Packet_Word+0x4a>
    25ce:	3408      	adds	r4, #8
    25d0:	2903      	cmp	r1, #3
    25d2:	d0de      	beq.n	2592 <OTP_PG_Packet_Word+0x72>
    25d4:	0014      	movs	r4, r2
    25d6:	e7dc      	b.n	2592 <OTP_PG_Packet_Word+0x72>
    25d8:	4f14      	ldr	r7, [pc, #80]	; (262c <OTP_PG_Packet_Word+0x10c>)
    25da:	b2e9      	uxtb	r1, r5
    25dc:	0020      	movs	r0, r4
    25de:	47b8      	blx	r7
    25e0:	0529      	lsls	r1, r5, #20
    25e2:	2570      	movs	r5, #112	; 0x70
    25e4:	0f09      	lsrs	r1, r1, #28
    25e6:	4329      	orrs	r1, r5
    25e8:	1c60      	adds	r0, r4, #1
    25ea:	47b8      	blx	r7
    25ec:	2120      	movs	r1, #32
    25ee:	10b3      	asrs	r3, r6, #2
    25f0:	3b01      	subs	r3, #1
    25f2:	4319      	orrs	r1, r3
    25f4:	1ce0      	adds	r0, r4, #3
    25f6:	b2c9      	uxtb	r1, r1
    25f8:	47b8      	blx	r7
    25fa:	1d25      	adds	r5, r4, #4
    25fc:	9c01      	ldr	r4, [sp, #4]
    25fe:	19a6      	adds	r6, r4, r6
    2600:	42a6      	cmp	r6, r4
    2602:	d101      	bne.n	2608 <OTP_PG_Packet_Word+0xe8>
    2604:	2001      	movs	r0, #1
    2606:	e799      	b.n	253c <OTP_PG_Packet_Word+0x1c>
    2608:	1c6b      	adds	r3, r5, #1
    260a:	0028      	movs	r0, r5
    260c:	7821      	ldrb	r1, [r4, #0]
    260e:	9301      	str	r3, [sp, #4]
    2610:	3401      	adds	r4, #1
    2612:	47b8      	blx	r7
    2614:	9d01      	ldr	r5, [sp, #4]
    2616:	e7f3      	b.n	2600 <OTP_PG_Packet_Word+0xe0>
    2618:	20000660 	.word	0x20000660
    261c:	0000a4ea 	.word	0x0000a4ea
    2620:	0000a436 	.word	0x0000a436
    2624:	0000a4ae 	.word	0x0000a4ae
    2628:	0000a52e 	.word	0x0000a52e
    262c:	000023a5 	.word	0x000023a5

00002630 <OTP_LogicalMap_Read>:
    2630:	b5f0      	push	{r4, r5, r6, r7, lr}
    2632:	188b      	adds	r3, r1, r2
    2634:	b087      	sub	sp, #28
    2636:	9302      	str	r3, [sp, #8]
    2638:	f240 4300 	movw	r3, #1024	; 0x400
    263c:	000e      	movs	r6, r1
    263e:	1889      	adds	r1, r1, r2
    2640:	0007      	movs	r7, r0
    2642:	4299      	cmp	r1, r3
    2644:	d90e      	bls.n	2664 <OTP_LogicalMap_Read+0x34>
    2646:	4b3c      	ldr	r3, [pc, #240]	; (2738 <OTP_LogicalMap_Read+0x108>)
    2648:	6819      	ldr	r1, [r3, #0]
    264a:	f248 0300 	movw	r3, #32768	; 0x8000
    264e:	0008      	movs	r0, r1
    2650:	4018      	ands	r0, r3
    2652:	4219      	tst	r1, r3
    2654:	d004      	beq.n	2660 <OTP_LogicalMap_Read+0x30>
    2656:	0031      	movs	r1, r6
    2658:	4838      	ldr	r0, [pc, #224]	; (273c <OTP_LogicalMap_Read+0x10c>)
    265a:	f002 f8e3 	bl	4824 <DiagPrintf>
    265e:	2000      	movs	r0, #0
    2660:	b007      	add	sp, #28
    2662:	bdf0      	pop	{r4, r5, r6, r7, pc}
    2664:	21ff      	movs	r1, #255	; 0xff
    2666:	4b36      	ldr	r3, [pc, #216]	; (2740 <OTP_LogicalMap_Read+0x110>)
    2668:	4798      	blx	r3
    266a:	2500      	movs	r5, #0
    266c:	0028      	movs	r0, r5
    266e:	a905      	add	r1, sp, #20
    2670:	f7ff fee2 	bl	2438 <OTP_Read32>
    2674:	9c05      	ldr	r4, [sp, #20]
    2676:	1c63      	adds	r3, r4, #1
    2678:	d10a      	bne.n	2690 <OTP_LogicalMap_Read+0x60>
    267a:	4b2f      	ldr	r3, [pc, #188]	; (2738 <OTP_LogicalMap_Read+0x108>)
    267c:	689b      	ldr	r3, [r3, #8]
    267e:	041b      	lsls	r3, r3, #16
    2680:	d401      	bmi.n	2686 <OTP_LogicalMap_Read+0x56>
    2682:	2001      	movs	r0, #1
    2684:	e7ec      	b.n	2660 <OTP_LogicalMap_Read+0x30>
    2686:	0029      	movs	r1, r5
    2688:	482e      	ldr	r0, [pc, #184]	; (2744 <OTP_LogicalMap_Read+0x114>)
    268a:	f002 f8cb 	bl	4824 <DiagPrintf>
    268e:	e7f8      	b.n	2682 <OTP_LogicalMap_Read+0x52>
    2690:	3504      	adds	r5, #4
    2692:	0f23      	lsrs	r3, r4, #28
    2694:	2b01      	cmp	r3, #1
    2696:	d011      	beq.n	26bc <OTP_LogicalMap_Read+0x8c>
    2698:	2b02      	cmp	r3, #2
    269a:	d022      	beq.n	26e2 <OTP_LogicalMap_Read+0xb2>
    269c:	07ab      	lsls	r3, r5, #30
    269e:	d008      	beq.n	26b2 <OTP_LogicalMap_Read+0x82>
    26a0:	4b25      	ldr	r3, [pc, #148]	; (2738 <OTP_LogicalMap_Read+0x108>)
    26a2:	681b      	ldr	r3, [r3, #0]
    26a4:	041b      	lsls	r3, r3, #16
    26a6:	d504      	bpl.n	26b2 <OTP_LogicalMap_Read+0x82>
    26a8:	0029      	movs	r1, r5
    26aa:	9a05      	ldr	r2, [sp, #20]
    26ac:	4826      	ldr	r0, [pc, #152]	; (2748 <OTP_LogicalMap_Read+0x118>)
    26ae:	f002 f8b9 	bl	4824 <DiagPrintf>
    26b2:	f240 13fc 	movw	r3, #508	; 0x1fc
    26b6:	429d      	cmp	r5, r3
    26b8:	d9d8      	bls.n	266c <OTP_LogicalMap_Read+0x3c>
    26ba:	e7e2      	b.n	2682 <OTP_LogicalMap_Read+0x52>
    26bc:	220f      	movs	r2, #15
    26be:	0b23      	lsrs	r3, r4, #12
    26c0:	4013      	ands	r3, r2
    26c2:	2b07      	cmp	r3, #7
    26c4:	d1ea      	bne.n	269c <OTP_LogicalMap_Read+0x6c>
    26c6:	0523      	lsls	r3, r4, #20
    26c8:	0c24      	lsrs	r4, r4, #16
    26ca:	b2e4      	uxtb	r4, r4
    26cc:	aa04      	add	r2, sp, #16
    26ce:	0d1b      	lsrs	r3, r3, #20
    26d0:	70d4      	strb	r4, [r2, #3]
    26d2:	429e      	cmp	r6, r3
    26d4:	d8e2      	bhi.n	269c <OTP_LogicalMap_Read+0x6c>
    26d6:	9a02      	ldr	r2, [sp, #8]
    26d8:	429a      	cmp	r2, r3
    26da:	d9df      	bls.n	269c <OTP_LogicalMap_Read+0x6c>
    26dc:	1b9b      	subs	r3, r3, r6
    26de:	54fc      	strb	r4, [r7, r3]
    26e0:	e7dc      	b.n	269c <OTP_LogicalMap_Read+0x6c>
    26e2:	220f      	movs	r2, #15
    26e4:	0e23      	lsrs	r3, r4, #24
    26e6:	4013      	ands	r3, r2
    26e8:	3301      	adds	r3, #1
    26ea:	009b      	lsls	r3, r3, #2
    26ec:	9301      	str	r3, [sp, #4]
    26ee:	0b23      	lsrs	r3, r4, #12
    26f0:	4013      	ands	r3, r2
    26f2:	2b07      	cmp	r3, #7
    26f4:	d10a      	bne.n	270c <OTP_LogicalMap_Read+0xdc>
    26f6:	0028      	movs	r0, r5
    26f8:	9b01      	ldr	r3, [sp, #4]
    26fa:	0524      	lsls	r4, r4, #20
    26fc:	0d24      	lsrs	r4, r4, #20
    26fe:	9300      	str	r3, [sp, #0]
    2700:	9b00      	ldr	r3, [sp, #0]
    2702:	3b01      	subs	r3, #1
    2704:	b2db      	uxtb	r3, r3
    2706:	9300      	str	r3, [sp, #0]
    2708:	2bff      	cmp	r3, #255	; 0xff
    270a:	d102      	bne.n	2712 <OTP_LogicalMap_Read+0xe2>
    270c:	9b01      	ldr	r3, [sp, #4]
    270e:	18ed      	adds	r5, r5, r3
    2710:	e7c4      	b.n	269c <OTP_LogicalMap_Read+0x6c>
    2712:	1c43      	adds	r3, r0, #1
    2714:	9303      	str	r3, [sp, #12]
    2716:	ab04      	add	r3, sp, #16
    2718:	1cd9      	adds	r1, r3, #3
    271a:	4b0c      	ldr	r3, [pc, #48]	; (274c <OTP_LogicalMap_Read+0x11c>)
    271c:	4798      	blx	r3
    271e:	42b4      	cmp	r4, r6
    2720:	d307      	bcc.n	2732 <OTP_LogicalMap_Read+0x102>
    2722:	9b02      	ldr	r3, [sp, #8]
    2724:	42a3      	cmp	r3, r4
    2726:	d904      	bls.n	2732 <OTP_LogicalMap_Read+0x102>
    2728:	aa04      	add	r2, sp, #16
    272a:	78d2      	ldrb	r2, [r2, #3]
    272c:	1ba3      	subs	r3, r4, r6
    272e:	54fa      	strb	r2, [r7, r3]
    2730:	3401      	adds	r4, #1
    2732:	9803      	ldr	r0, [sp, #12]
    2734:	e7e4      	b.n	2700 <OTP_LogicalMap_Read+0xd0>
    2736:	bf00      	nop
    2738:	20000660 	.word	0x20000660
    273c:	0000a55e 	.word	0x0000a55e
    2740:	00005539 	.word	0x00005539
    2744:	0000a5a2 	.word	0x0000a5a2
    2748:	0000a5e7 	.word	0x0000a5e7
    274c:	0000220d 	.word	0x0000220d

00002750 <OTP_LogicalMap_Write>:
    2750:	b5f0      	push	{r4, r5, r6, r7, lr}
    2752:	b08b      	sub	sp, #44	; 0x2c
    2754:	0004      	movs	r4, r0
    2756:	000e      	movs	r6, r1
    2758:	9204      	str	r2, [sp, #16]
    275a:	078b      	lsls	r3, r1, #30
    275c:	d010      	beq.n	2780 <OTP_LogicalMap_Write+0x30>
    275e:	2901      	cmp	r1, #1
    2760:	d00e      	beq.n	2780 <OTP_LogicalMap_Write+0x30>
    2762:	2580      	movs	r5, #128	; 0x80
    2764:	4f5b      	ldr	r7, [pc, #364]	; (28d4 <OTP_LogicalMap_Write+0x184>)
    2766:	02ad      	lsls	r5, r5, #10
    2768:	683b      	ldr	r3, [r7, #0]
    276a:	422b      	tst	r3, r5
    276c:	d008      	beq.n	2780 <OTP_LogicalMap_Write+0x30>
    276e:	485a      	ldr	r0, [pc, #360]	; (28d8 <OTP_LogicalMap_Write+0x188>)
    2770:	f002 f858 	bl	4824 <DiagPrintf>
    2774:	683b      	ldr	r3, [r7, #0]
    2776:	422b      	tst	r3, r5
    2778:	d002      	beq.n	2780 <OTP_LogicalMap_Write+0x30>
    277a:	4858      	ldr	r0, [pc, #352]	; (28dc <OTP_LogicalMap_Write+0x18c>)
    277c:	f002 f852 	bl	4824 <DiagPrintf>
    2780:	f240 4200 	movw	r2, #1024	; 0x400
    2784:	1933      	adds	r3, r6, r4
    2786:	4293      	cmp	r3, r2
    2788:	d90d      	bls.n	27a6 <OTP_LogicalMap_Write+0x56>
    278a:	4b52      	ldr	r3, [pc, #328]	; (28d4 <OTP_LogicalMap_Write+0x184>)
    278c:	681b      	ldr	r3, [r3, #0]
    278e:	041b      	lsls	r3, r3, #16
    2790:	d403      	bmi.n	279a <OTP_LogicalMap_Write+0x4a>
    2792:	2400      	movs	r4, #0
    2794:	0020      	movs	r0, r4
    2796:	b00b      	add	sp, #44	; 0x2c
    2798:	bdf0      	pop	{r4, r5, r6, r7, pc}
    279a:	0032      	movs	r2, r6
    279c:	0021      	movs	r1, r4
    279e:	4850      	ldr	r0, [pc, #320]	; (28e0 <OTP_LogicalMap_Write+0x190>)
    27a0:	f002 f840 	bl	4824 <DiagPrintf>
    27a4:	e7f5      	b.n	2792 <OTP_LogicalMap_Write+0x42>
    27a6:	200f      	movs	r0, #15
    27a8:	0025      	movs	r5, r4
    27aa:	4004      	ands	r4, r0
    27ac:	9400      	str	r4, [sp, #0]
    27ae:	2401      	movs	r4, #1
    27b0:	4385      	bics	r5, r0
    27b2:	2e00      	cmp	r6, #0
    27b4:	ddee      	ble.n	2794 <OTP_LogicalMap_Write+0x44>
    27b6:	9b00      	ldr	r3, [sp, #0]
    27b8:	18f3      	adds	r3, r6, r3
    27ba:	9302      	str	r3, [sp, #8]
    27bc:	9305      	str	r3, [sp, #20]
    27be:	2b10      	cmp	r3, #16
    27c0:	d901      	bls.n	27c6 <OTP_LogicalMap_Write+0x76>
    27c2:	2310      	movs	r3, #16
    27c4:	9305      	str	r3, [sp, #20]
    27c6:	2210      	movs	r2, #16
    27c8:	0029      	movs	r1, r5
    27ca:	4b46      	ldr	r3, [pc, #280]	; (28e4 <OTP_LogicalMap_Write+0x194>)
    27cc:	a806      	add	r0, sp, #24
    27ce:	4798      	blx	r3
    27d0:	0004      	movs	r4, r0
    27d2:	2800      	cmp	r0, #0
    27d4:	d166      	bne.n	28a4 <OTP_LogicalMap_Write+0x154>
    27d6:	4b3f      	ldr	r3, [pc, #252]	; (28d4 <OTP_LogicalMap_Write+0x184>)
    27d8:	681b      	ldr	r3, [r3, #0]
    27da:	041b      	lsls	r3, r3, #16
    27dc:	d5d9      	bpl.n	2792 <OTP_LogicalMap_Write+0x42>
    27de:	0029      	movs	r1, r5
    27e0:	4841      	ldr	r0, [pc, #260]	; (28e8 <OTP_LogicalMap_Write+0x198>)
    27e2:	f002 f81f 	bl	4824 <DiagPrintf>
    27e6:	e7d5      	b.n	2794 <OTP_LogicalMap_Write+0x44>
    27e8:	9a00      	ldr	r2, [sp, #0]
    27ea:	9b04      	ldr	r3, [sp, #16]
    27ec:	1a9b      	subs	r3, r3, r2
    27ee:	5d9a      	ldrb	r2, [r3, r6]
    27f0:	ab06      	add	r3, sp, #24
    27f2:	5cf3      	ldrb	r3, [r6, r3]
    27f4:	4293      	cmp	r3, r2
    27f6:	d015      	beq.n	2824 <OTP_LogicalMap_Write+0xd4>
    27f8:	ab06      	add	r3, sp, #24
    27fa:	54f2      	strb	r2, [r6, r3]
    27fc:	2301      	movs	r3, #1
    27fe:	40b3      	lsls	r3, r6
    2800:	9903      	ldr	r1, [sp, #12]
    2802:	4319      	orrs	r1, r3
    2804:	9103      	str	r1, [sp, #12]
    2806:	2101      	movs	r1, #1
    2808:	08b3      	lsrs	r3, r6, #2
    280a:	4099      	lsls	r1, r3
    280c:	9b01      	ldr	r3, [sp, #4]
    280e:	430f      	orrs	r7, r1
    2810:	3301      	adds	r3, #1
    2812:	9301      	str	r3, [sp, #4]
    2814:	4b2f      	ldr	r3, [pc, #188]	; (28d4 <OTP_LogicalMap_Write+0x184>)
    2816:	689b      	ldr	r3, [r3, #8]
    2818:	041b      	lsls	r3, r3, #16
    281a:	d503      	bpl.n	2824 <OTP_LogicalMap_Write+0xd4>
    281c:	0031      	movs	r1, r6
    281e:	4833      	ldr	r0, [pc, #204]	; (28ec <OTP_LogicalMap_Write+0x19c>)
    2820:	f002 f800 	bl	4824 <DiagPrintf>
    2824:	3601      	adds	r6, #1
    2826:	9b05      	ldr	r3, [sp, #20]
    2828:	42b3      	cmp	r3, r6
    282a:	d8dd      	bhi.n	27e8 <OTP_LogicalMap_Write+0x98>
    282c:	9b01      	ldr	r3, [sp, #4]
    282e:	b323      	cbz	r3, 287a <OTP_LogicalMap_Write+0x12a>
    2830:	2100      	movs	r1, #0
    2832:	2010      	movs	r0, #16
    2834:	2201      	movs	r2, #1
    2836:	9b00      	ldr	r3, [sp, #0]
    2838:	089b      	lsrs	r3, r3, #2
    283a:	003e      	movs	r6, r7
    283c:	40de      	lsrs	r6, r3
    283e:	4216      	tst	r6, r2
    2840:	d007      	beq.n	2852 <OTP_LogicalMap_Write+0x102>
    2842:	4298      	cmp	r0, r3
    2844:	d900      	bls.n	2848 <OTP_LogicalMap_Write+0xf8>
    2846:	0018      	movs	r0, r3
    2848:	b2c0      	uxtb	r0, r0
    284a:	4299      	cmp	r1, r3
    284c:	d200      	bcs.n	2850 <OTP_LogicalMap_Write+0x100>
    284e:	0019      	movs	r1, r3
    2850:	b2c9      	uxtb	r1, r1
    2852:	3301      	adds	r3, #1
    2854:	2b04      	cmp	r3, #4
    2856:	d1f0      	bne.n	283a <OTP_LogicalMap_Write+0xea>
    2858:	1a09      	subs	r1, r1, r0
    285a:	9a01      	ldr	r2, [sp, #4]
    285c:	1c8b      	adds	r3, r1, #2
    285e:	4293      	cmp	r3, r2
    2860:	d225      	bcs.n	28ae <OTP_LogicalMap_Write+0x15e>
    2862:	0080      	lsls	r0, r0, #2
    2864:	b2c0      	uxtb	r0, r0
    2866:	ab06      	add	r3, sp, #24
    2868:	3101      	adds	r1, #1
    286a:	18c2      	adds	r2, r0, r3
    286c:	0089      	lsls	r1, r1, #2
    286e:	1828      	adds	r0, r5, r0
    2870:	b2c9      	uxtb	r1, r1
    2872:	b280      	uxth	r0, r0
    2874:	f7ff fe54 	bl	2520 <OTP_PG_Packet_Word>
    2878:	0004      	movs	r4, r0
    287a:	2310      	movs	r3, #16
    287c:	9a00      	ldr	r2, [sp, #0]
    287e:	9e02      	ldr	r6, [sp, #8]
    2880:	1a98      	subs	r0, r3, r2
    2882:	9b04      	ldr	r3, [sp, #16]
    2884:	3e10      	subs	r6, #16
    2886:	181b      	adds	r3, r3, r0
    2888:	9304      	str	r3, [sp, #16]
    288a:	4b12      	ldr	r3, [pc, #72]	; (28d4 <OTP_LogicalMap_Write+0x184>)
    288c:	3510      	adds	r5, #16
    288e:	689b      	ldr	r3, [r3, #8]
    2890:	041b      	lsls	r3, r3, #16
    2892:	d504      	bpl.n	289e <OTP_LogicalMap_Write+0x14e>
    2894:	0032      	movs	r2, r6
    2896:	0029      	movs	r1, r5
    2898:	4815      	ldr	r0, [pc, #84]	; (28f0 <OTP_LogicalMap_Write+0x1a0>)
    289a:	f001 ffc3 	bl	4824 <DiagPrintf>
    289e:	2300      	movs	r3, #0
    28a0:	9300      	str	r3, [sp, #0]
    28a2:	e786      	b.n	27b2 <OTP_LogicalMap_Write+0x62>
    28a4:	2700      	movs	r7, #0
    28a6:	9e00      	ldr	r6, [sp, #0]
    28a8:	9701      	str	r7, [sp, #4]
    28aa:	9703      	str	r7, [sp, #12]
    28ac:	e7bb      	b.n	2826 <OTP_LogicalMap_Write+0xd6>
    28ae:	2600      	movs	r6, #0
    28b0:	2701      	movs	r7, #1
    28b2:	003b      	movs	r3, r7
    28b4:	40b3      	lsls	r3, r6
    28b6:	9a03      	ldr	r2, [sp, #12]
    28b8:	421a      	tst	r2, r3
    28ba:	d006      	beq.n	28ca <OTP_LogicalMap_Write+0x17a>
    28bc:	ab06      	add	r3, sp, #24
    28be:	19a8      	adds	r0, r5, r6
    28c0:	5cf1      	ldrb	r1, [r6, r3]
    28c2:	b280      	uxth	r0, r0
    28c4:	f7ff fdd2 	bl	246c <OTP_PG_Packet_Byte>
    28c8:	0004      	movs	r4, r0
    28ca:	3601      	adds	r6, #1
    28cc:	2e10      	cmp	r6, #16
    28ce:	d1f0      	bne.n	28b2 <OTP_LogicalMap_Write+0x162>
    28d0:	e7d3      	b.n	287a <OTP_LogicalMap_Write+0x12a>
    28d2:	bf00      	nop
    28d4:	20000660 	.word	0x20000660
    28d8:	0000a618 	.word	0x0000a618
    28dc:	0000a649 	.word	0x0000a649
    28e0:	0000a657 	.word	0x0000a657
    28e4:	00002631 	.word	0x00002631
    28e8:	0000a69c 	.word	0x0000a69c
    28ec:	0000a6dd 	.word	0x0000a6dd
    28f0:	0000a706 	.word	0x0000a706

000028f4 <OTP_RemainLength>:
    28f4:	b573      	push	{r0, r1, r4, r5, r6, lr}
    28f6:	2600      	movs	r6, #0
    28f8:	250f      	movs	r5, #15
    28fa:	f240 14fc 	movw	r4, #508	; 0x1fc
    28fe:	0030      	movs	r0, r6
    2900:	a901      	add	r1, sp, #4
    2902:	f7ff fd99 	bl	2438 <OTP_Read32>
    2906:	9801      	ldr	r0, [sp, #4]
    2908:	1c43      	adds	r3, r0, #1
    290a:	d00a      	beq.n	2922 <OTP_RemainLength+0x2e>
    290c:	1d32      	adds	r2, r6, #4
    290e:	0f01      	lsrs	r1, r0, #28
    2910:	2902      	cmp	r1, #2
    2912:	d10a      	bne.n	292a <OTP_RemainLength+0x36>
    2914:	0e00      	lsrs	r0, r0, #24
    2916:	4028      	ands	r0, r5
    2918:	3001      	adds	r0, #1
    291a:	0086      	lsls	r6, r0, #2
    291c:	18b6      	adds	r6, r6, r2
    291e:	42a6      	cmp	r6, r4
    2920:	d9ed      	bls.n	28fe <OTP_RemainLength+0xa>
    2922:	f240 10fd 	movw	r0, #509	; 0x1fd
    2926:	1b80      	subs	r0, r0, r6
    2928:	bd76      	pop	{r1, r2, r4, r5, r6, pc}
    292a:	3608      	adds	r6, #8
    292c:	2903      	cmp	r1, #3
    292e:	d0f6      	beq.n	291e <OTP_RemainLength+0x2a>
    2930:	0016      	movs	r6, r2
    2932:	e7f4      	b.n	291e <OTP_RemainLength+0x2a>

00002934 <PAD_DrvStrength>:
    2934:	4b06      	ldr	r3, [pc, #24]	; (2950 <PAD_DrvStrength+0x1c>)
    2936:	0080      	lsls	r0, r0, #2
    2938:	18c0      	adds	r0, r0, r3
    293a:	6803      	ldr	r3, [r0, #0]
    293c:	b919      	cbnz	r1, 2946 <PAD_DrvStrength+0x12>
    293e:	4a05      	ldr	r2, [pc, #20]	; (2954 <PAD_DrvStrength+0x20>)
    2940:	4013      	ands	r3, r2
    2942:	6003      	str	r3, [r0, #0]
    2944:	4770      	bx	lr
    2946:	f640 0200 	movw	r2, #2048	; 0x800
    294a:	4313      	orrs	r3, r2
    294c:	e7f9      	b.n	2942 <PAD_DrvStrength+0xe>
    294e:	bf00      	nop
    2950:	41008800 	.word	0x41008800
    2954:	fffff7ff 	.word	0xfffff7ff

00002958 <PAD_SchmitCtrl>:
    2958:	4b06      	ldr	r3, [pc, #24]	; (2974 <PAD_SchmitCtrl+0x1c>)
    295a:	0080      	lsls	r0, r0, #2
    295c:	18c0      	adds	r0, r0, r3
    295e:	6803      	ldr	r3, [r0, #0]
    2960:	2901      	cmp	r1, #1
    2962:	d104      	bne.n	296e <PAD_SchmitCtrl+0x16>
    2964:	f241 0200 	movw	r2, #4096	; 0x1000
    2968:	4313      	orrs	r3, r2
    296a:	6003      	str	r3, [r0, #0]
    296c:	4770      	bx	lr
    296e:	4a02      	ldr	r2, [pc, #8]	; (2978 <PAD_SchmitCtrl+0x20>)
    2970:	4013      	ands	r3, r2
    2972:	e7fa      	b.n	296a <PAD_SchmitCtrl+0x12>
    2974:	41008800 	.word	0x41008800
    2978:	ffffefff 	.word	0xffffefff

0000297c <PAD_SlewRateCtrl>:
    297c:	4b06      	ldr	r3, [pc, #24]	; (2998 <PAD_SlewRateCtrl+0x1c>)
    297e:	0080      	lsls	r0, r0, #2
    2980:	18c0      	adds	r0, r0, r3
    2982:	6803      	ldr	r3, [r0, #0]
    2984:	2901      	cmp	r1, #1
    2986:	d104      	bne.n	2992 <PAD_SlewRateCtrl+0x16>
    2988:	f242 0200 	movw	r2, #8192	; 0x2000
    298c:	4313      	orrs	r3, r2
    298e:	6003      	str	r3, [r0, #0]
    2990:	4770      	bx	lr
    2992:	4a02      	ldr	r2, [pc, #8]	; (299c <PAD_SlewRateCtrl+0x20>)
    2994:	4013      	ands	r3, r2
    2996:	e7fa      	b.n	298e <PAD_SlewRateCtrl+0x12>
    2998:	41008800 	.word	0x41008800
    299c:	ffffdfff 	.word	0xffffdfff

000029a0 <PAD_PullCtrl>:
    29a0:	b530      	push	{r4, r5, lr}
    29a2:	241f      	movs	r4, #31
    29a4:	4004      	ands	r4, r0
    29a6:	0640      	lsls	r0, r0, #25
    29a8:	0f80      	lsrs	r0, r0, #30
    29aa:	b958      	cbnz	r0, 29c4 <PAD_PullCtrl+0x24>
    29ac:	4d0f      	ldr	r5, [pc, #60]	; (29ec <PAD_PullCtrl+0x4c>)
    29ae:	4810      	ldr	r0, [pc, #64]	; (29f0 <PAD_PullCtrl+0x50>)
    29b0:	682a      	ldr	r2, [r5, #0]
    29b2:	6803      	ldr	r3, [r0, #0]
    29b4:	2901      	cmp	r1, #1
    29b6:	d109      	bne.n	29cc <PAD_PullCtrl+0x2c>
    29b8:	40a1      	lsls	r1, r4
    29ba:	430b      	orrs	r3, r1
    29bc:	438a      	bics	r2, r1
    29be:	602a      	str	r2, [r5, #0]
    29c0:	6003      	str	r3, [r0, #0]
    29c2:	e00b      	b.n	29dc <PAD_PullCtrl+0x3c>
    29c4:	4d0b      	ldr	r5, [pc, #44]	; (29f4 <PAD_PullCtrl+0x54>)
    29c6:	480c      	ldr	r0, [pc, #48]	; (29f8 <PAD_PullCtrl+0x58>)
    29c8:	682a      	ldr	r2, [r5, #0]
    29ca:	e7f2      	b.n	29b2 <PAD_PullCtrl+0x12>
    29cc:	2902      	cmp	r1, #2
    29ce:	d106      	bne.n	29de <PAD_PullCtrl+0x3e>
    29d0:	3901      	subs	r1, #1
    29d2:	40a1      	lsls	r1, r4
    29d4:	430a      	orrs	r2, r1
    29d6:	438b      	bics	r3, r1
    29d8:	6003      	str	r3, [r0, #0]
    29da:	602a      	str	r2, [r5, #0]
    29dc:	bd30      	pop	{r4, r5, pc}
    29de:	2900      	cmp	r1, #0
    29e0:	d1fc      	bne.n	29dc <PAD_PullCtrl+0x3c>
    29e2:	3101      	adds	r1, #1
    29e4:	40a1      	lsls	r1, r4
    29e6:	438a      	bics	r2, r1
    29e8:	438b      	bics	r3, r1
    29ea:	e7e8      	b.n	29be <PAD_PullCtrl+0x1e>
    29ec:	41008900 	.word	0x41008900
    29f0:	41008908 	.word	0x41008908
    29f4:	41008904 	.word	0x41008904
    29f8:	4100890c 	.word	0x4100890c

000029fc <PAD_SleepPullCtrl>:
    29fc:	b530      	push	{r4, r5, lr}
    29fe:	241f      	movs	r4, #31
    2a00:	4004      	ands	r4, r0
    2a02:	0640      	lsls	r0, r0, #25
    2a04:	0f80      	lsrs	r0, r0, #30
    2a06:	b958      	cbnz	r0, 2a20 <PAD_SleepPullCtrl+0x24>
    2a08:	4d0f      	ldr	r5, [pc, #60]	; (2a48 <PAD_SleepPullCtrl+0x4c>)
    2a0a:	4810      	ldr	r0, [pc, #64]	; (2a4c <PAD_SleepPullCtrl+0x50>)
    2a0c:	682a      	ldr	r2, [r5, #0]
    2a0e:	6803      	ldr	r3, [r0, #0]
    2a10:	2901      	cmp	r1, #1
    2a12:	d109      	bne.n	2a28 <PAD_SleepPullCtrl+0x2c>
    2a14:	40a1      	lsls	r1, r4
    2a16:	430b      	orrs	r3, r1
    2a18:	438a      	bics	r2, r1
    2a1a:	602a      	str	r2, [r5, #0]
    2a1c:	6003      	str	r3, [r0, #0]
    2a1e:	e00b      	b.n	2a38 <PAD_SleepPullCtrl+0x3c>
    2a20:	4d0b      	ldr	r5, [pc, #44]	; (2a50 <PAD_SleepPullCtrl+0x54>)
    2a22:	480c      	ldr	r0, [pc, #48]	; (2a54 <PAD_SleepPullCtrl+0x58>)
    2a24:	682a      	ldr	r2, [r5, #0]
    2a26:	e7f2      	b.n	2a0e <PAD_SleepPullCtrl+0x12>
    2a28:	2902      	cmp	r1, #2
    2a2a:	d106      	bne.n	2a3a <PAD_SleepPullCtrl+0x3e>
    2a2c:	3901      	subs	r1, #1
    2a2e:	40a1      	lsls	r1, r4
    2a30:	430a      	orrs	r2, r1
    2a32:	438b      	bics	r3, r1
    2a34:	6003      	str	r3, [r0, #0]
    2a36:	602a      	str	r2, [r5, #0]
    2a38:	bd30      	pop	{r4, r5, pc}
    2a3a:	2900      	cmp	r1, #0
    2a3c:	d1fc      	bne.n	2a38 <PAD_SleepPullCtrl+0x3c>
    2a3e:	3101      	adds	r1, #1
    2a40:	40a1      	lsls	r1, r4
    2a42:	438a      	bics	r2, r1
    2a44:	438b      	bics	r3, r1
    2a46:	e7e8      	b.n	2a1a <PAD_SleepPullCtrl+0x1e>
    2a48:	41008910 	.word	0x41008910
    2a4c:	41008918 	.word	0x41008918
    2a50:	41008914 	.word	0x41008914
    2a54:	4100891c 	.word	0x4100891c

00002a58 <PAD_ResistorCtrl>:
    2a58:	4b06      	ldr	r3, [pc, #24]	; (2a74 <PAD_ResistorCtrl+0x1c>)
    2a5a:	0080      	lsls	r0, r0, #2
    2a5c:	18c0      	adds	r0, r0, r3
    2a5e:	6803      	ldr	r3, [r0, #0]
    2a60:	b121      	cbz	r1, 2a6c <PAD_ResistorCtrl+0x14>
    2a62:	f240 4200 	movw	r2, #1024	; 0x400
    2a66:	4313      	orrs	r3, r2
    2a68:	6003      	str	r3, [r0, #0]
    2a6a:	4770      	bx	lr
    2a6c:	4a02      	ldr	r2, [pc, #8]	; (2a78 <PAD_ResistorCtrl+0x20>)
    2a6e:	4013      	ands	r3, r2
    2a70:	e7fa      	b.n	2a68 <PAD_ResistorCtrl+0x10>
    2a72:	bf00      	nop
    2a74:	41008800 	.word	0x41008800
    2a78:	fffffbff 	.word	0xfffffbff

00002a7c <PAD_InputCtrl>:
    2a7c:	4b06      	ldr	r3, [pc, #24]	; (2a98 <PAD_InputCtrl+0x1c>)
    2a7e:	0080      	lsls	r0, r0, #2
    2a80:	18c0      	adds	r0, r0, r3
    2a82:	6803      	ldr	r3, [r0, #0]
    2a84:	2901      	cmp	r1, #1
    2a86:	d104      	bne.n	2a92 <PAD_InputCtrl+0x16>
    2a88:	f240 1200 	movw	r2, #256	; 0x100
    2a8c:	4313      	orrs	r3, r2
    2a8e:	6003      	str	r3, [r0, #0]
    2a90:	4770      	bx	lr
    2a92:	4a02      	ldr	r2, [pc, #8]	; (2a9c <PAD_InputCtrl+0x20>)
    2a94:	4013      	ands	r3, r2
    2a96:	e7fa      	b.n	2a8e <PAD_InputCtrl+0x12>
    2a98:	41008800 	.word	0x41008800
    2a9c:	fffffeff 	.word	0xfffffeff

00002aa0 <PAD_CMD>:
    2aa0:	4b06      	ldr	r3, [pc, #24]	; (2abc <PAD_CMD+0x1c>)
    2aa2:	0080      	lsls	r0, r0, #2
    2aa4:	18c0      	adds	r0, r0, r3
    2aa6:	6803      	ldr	r3, [r0, #0]
    2aa8:	2901      	cmp	r1, #1
    2aaa:	d103      	bne.n	2ab4 <PAD_CMD+0x14>
    2aac:	4a04      	ldr	r2, [pc, #16]	; (2ac0 <PAD_CMD+0x20>)
    2aae:	4013      	ands	r3, r2
    2ab0:	6003      	str	r3, [r0, #0]
    2ab2:	4770      	bx	lr
    2ab4:	f248 0200 	movw	r2, #32768	; 0x8000
    2ab8:	4313      	orrs	r3, r2
    2aba:	e7f9      	b.n	2ab0 <PAD_CMD+0x10>
    2abc:	41008800 	.word	0x41008800
    2ac0:	ffff7fff 	.word	0xffff7fff

00002ac4 <Pinmux_Config>:
    2ac4:	22ff      	movs	r2, #255	; 0xff
    2ac6:	4b04      	ldr	r3, [pc, #16]	; (2ad8 <Pinmux_Config+0x14>)
    2ac8:	0080      	lsls	r0, r0, #2
    2aca:	18c0      	adds	r0, r0, r3
    2acc:	6803      	ldr	r3, [r0, #0]
    2ace:	4011      	ands	r1, r2
    2ad0:	4393      	bics	r3, r2
    2ad2:	4319      	orrs	r1, r3
    2ad4:	6001      	str	r1, [r0, #0]
    2ad6:	4770      	bx	lr
    2ad8:	41008800 	.word	0x41008800

00002adc <Pinmux_ConfigGet>:
    2adc:	4b02      	ldr	r3, [pc, #8]	; (2ae8 <Pinmux_ConfigGet+0xc>)
    2ade:	0080      	lsls	r0, r0, #2
    2ae0:	58c0      	ldr	r0, [r0, r3]
    2ae2:	b2c0      	uxtb	r0, r0
    2ae4:	4770      	bx	lr
    2ae6:	bf00      	nop
    2ae8:	41008800 	.word	0x41008800

00002aec <Pinmux_UartLogCtrl>:
    2aec:	b570      	push	{r4, r5, r6, lr}
    2aee:	000c      	movs	r4, r1
    2af0:	b120      	cbz	r0, 2afc <Pinmux_UartLogCtrl+0x10>
    2af2:	f240 1193 	movw	r1, #403	; 0x193
    2af6:	480a      	ldr	r0, [pc, #40]	; (2b20 <Pinmux_UartLogCtrl+0x34>)
    2af8:	f7fd fb0c 	bl	114 <io_assert_failed>
    2afc:	1e63      	subs	r3, r4, #1
    2afe:	419c      	sbcs	r4, r3
    2b00:	4d08      	ldr	r5, [pc, #32]	; (2b24 <Pinmux_UartLogCtrl+0x38>)
    2b02:	2102      	movs	r1, #2
    2b04:	2024      	movs	r0, #36	; 0x24
    2b06:	47a8      	blx	r5
    2b08:	2102      	movs	r1, #2
    2b0a:	2025      	movs	r0, #37	; 0x25
    2b0c:	47a8      	blx	r5
    2b0e:	0021      	movs	r1, r4
    2b10:	2024      	movs	r0, #36	; 0x24
    2b12:	f7ff ffd7 	bl	2ac4 <Pinmux_Config>
    2b16:	0021      	movs	r1, r4
    2b18:	2025      	movs	r0, #37	; 0x25
    2b1a:	f7ff ffd3 	bl	2ac4 <Pinmux_Config>
    2b1e:	bd70      	pop	{r4, r5, r6, pc}
    2b20:	0000a741 	.word	0x0000a741
    2b24:	000029a1 	.word	0x000029a1

00002b28 <PAD_SpicCtrl>:
    2b28:	b570      	push	{r4, r5, r6, lr}
    2b2a:	2102      	movs	r1, #2
    2b2c:	0005      	movs	r5, r0
    2b2e:	4c13      	ldr	r4, [pc, #76]	; (2b7c <PAD_SpicCtrl+0x54>)
    2b30:	2801      	cmp	r0, #1
    2b32:	d111      	bne.n	2b58 <PAD_SpicCtrl+0x30>
    2b34:	2000      	movs	r0, #0
    2b36:	47a0      	blx	r4
    2b38:	2102      	movs	r1, #2
    2b3a:	0028      	movs	r0, r5
    2b3c:	47a0      	blx	r4
    2b3e:	2102      	movs	r1, #2
    2b40:	0008      	movs	r0, r1
    2b42:	47a0      	blx	r4
    2b44:	2102      	movs	r1, #2
    2b46:	2003      	movs	r0, #3
    2b48:	47a0      	blx	r4
    2b4a:	2102      	movs	r1, #2
    2b4c:	2004      	movs	r0, #4
    2b4e:	47a0      	blx	r4
    2b50:	2102      	movs	r1, #2
    2b52:	2005      	movs	r0, #5
    2b54:	47a0      	blx	r4
    2b56:	bd70      	pop	{r4, r5, r6, pc}
    2b58:	200d      	movs	r0, #13
    2b5a:	47a0      	blx	r4
    2b5c:	2102      	movs	r1, #2
    2b5e:	200e      	movs	r0, #14
    2b60:	47a0      	blx	r4
    2b62:	2102      	movs	r1, #2
    2b64:	200f      	movs	r0, #15
    2b66:	47a0      	blx	r4
    2b68:	2102      	movs	r1, #2
    2b6a:	2010      	movs	r0, #16
    2b6c:	47a0      	blx	r4
    2b6e:	2102      	movs	r1, #2
    2b70:	2011      	movs	r0, #17
    2b72:	47a0      	blx	r4
    2b74:	2102      	movs	r1, #2
    2b76:	2012      	movs	r0, #18
    2b78:	e7ec      	b.n	2b54 <PAD_SpicCtrl+0x2c>
    2b7a:	bf00      	nop
    2b7c:	000029a1 	.word	0x000029a1

00002b80 <_Pinmux_SpicCtrl>:
    2b80:	b570      	push	{r4, r5, r6, lr}
    2b82:	000c      	movs	r4, r1
    2b84:	0005      	movs	r5, r0
    2b86:	f7ff ffcf 	bl	2b28 <PAD_SpicCtrl>
    2b8a:	0021      	movs	r1, r4
    2b8c:	2d01      	cmp	r5, #1
    2b8e:	d117      	bne.n	2bc0 <_Pinmux_SpicCtrl+0x40>
    2b90:	2000      	movs	r0, #0
    2b92:	f7ff ff97 	bl	2ac4 <Pinmux_Config>
    2b96:	0021      	movs	r1, r4
    2b98:	0028      	movs	r0, r5
    2b9a:	f7ff ff93 	bl	2ac4 <Pinmux_Config>
    2b9e:	0021      	movs	r1, r4
    2ba0:	2002      	movs	r0, #2
    2ba2:	f7ff ff8f 	bl	2ac4 <Pinmux_Config>
    2ba6:	0021      	movs	r1, r4
    2ba8:	2003      	movs	r0, #3
    2baa:	f7ff ff8b 	bl	2ac4 <Pinmux_Config>
    2bae:	0021      	movs	r1, r4
    2bb0:	2004      	movs	r0, #4
    2bb2:	f7ff ff87 	bl	2ac4 <Pinmux_Config>
    2bb6:	0021      	movs	r1, r4
    2bb8:	2005      	movs	r0, #5
    2bba:	f7ff ff83 	bl	2ac4 <Pinmux_Config>
    2bbe:	bd70      	pop	{r4, r5, r6, pc}
    2bc0:	200d      	movs	r0, #13
    2bc2:	f7ff ff7f 	bl	2ac4 <Pinmux_Config>
    2bc6:	0021      	movs	r1, r4
    2bc8:	200e      	movs	r0, #14
    2bca:	f7ff ff7b 	bl	2ac4 <Pinmux_Config>
    2bce:	0021      	movs	r1, r4
    2bd0:	200f      	movs	r0, #15
    2bd2:	f7ff ff77 	bl	2ac4 <Pinmux_Config>
    2bd6:	0021      	movs	r1, r4
    2bd8:	2010      	movs	r0, #16
    2bda:	f7ff ff73 	bl	2ac4 <Pinmux_Config>
    2bde:	0021      	movs	r1, r4
    2be0:	2011      	movs	r0, #17
    2be2:	f7ff ff6f 	bl	2ac4 <Pinmux_Config>
    2be6:	0021      	movs	r1, r4
    2be8:	2012      	movs	r0, #18
    2bea:	e7e6      	b.n	2bba <_Pinmux_SpicCtrl+0x3a>

00002bec <Pinmux_BootSpicCtrl>:
    2bec:	1e4b      	subs	r3, r1, #1
    2bee:	4199      	sbcs	r1, r3
    2bf0:	b510      	push	{r4, lr}
    2bf2:	0049      	lsls	r1, r1, #1
    2bf4:	f7ff ffc4 	bl	2b80 <_Pinmux_SpicCtrl>
    2bf8:	bd10      	pop	{r4, pc}

00002bfa <Pinmux_ComboSpicCtrl>:
    2bfa:	2300      	movs	r3, #0
    2bfc:	b510      	push	{r4, lr}
    2bfe:	b101      	cbz	r1, 2c02 <Pinmux_ComboSpicCtrl+0x8>
    2c00:	3303      	adds	r3, #3
    2c02:	0019      	movs	r1, r3
    2c04:	f7ff ffbc 	bl	2b80 <_Pinmux_SpicCtrl>
    2c08:	bd10      	pop	{r4, pc}

00002c0a <Pinmux_Swdoff>:
    2c0a:	2101      	movs	r1, #1
    2c0c:	4a02      	ldr	r2, [pc, #8]	; (2c18 <Pinmux_Swdoff+0xe>)
    2c0e:	6813      	ldr	r3, [r2, #0]
    2c10:	438b      	bics	r3, r1
    2c12:	6013      	str	r3, [r2, #0]
    2c14:	4770      	bx	lr
    2c16:	bf00      	nop
    2c18:	410089f4 	.word	0x410089f4

00002c1c <RCC_PeriphClockCmd>:
    2c1c:	b5f8      	push	{r3, r4, r5, r6, r7, lr}
    2c1e:	4e22      	ldr	r6, [pc, #136]	; (2ca8 <RCC_PeriphClockCmd+0x8c>)
    2c20:	0f8b      	lsrs	r3, r1, #30
    2c22:	0085      	lsls	r5, r0, #2
    2c24:	005b      	lsls	r3, r3, #1
    2c26:	5b9b      	ldrh	r3, [r3, r6]
    2c28:	0f84      	lsrs	r4, r0, #30
    2c2a:	08ad      	lsrs	r5, r5, #2
    2c2c:	b311      	cbz	r1, 2c74 <RCC_PeriphClockCmd+0x58>
    2c2e:	4e1f      	ldr	r6, [pc, #124]	; (2cac <RCC_PeriphClockCmd+0x90>)
    2c30:	0089      	lsls	r1, r1, #2
    2c32:	199e      	adds	r6, r3, r6
    2c34:	6837      	ldr	r7, [r6, #0]
    2c36:	0889      	lsrs	r1, r1, #2
    2c38:	2a01      	cmp	r2, #1
    2c3a:	d10d      	bne.n	2c58 <RCC_PeriphClockCmd+0x3c>
    2c3c:	4339      	orrs	r1, r7
    2c3e:	6031      	str	r1, [r6, #0]
    2c40:	2c01      	cmp	r4, #1
    2c42:	d02a      	beq.n	2c9a <RCC_PeriphClockCmd+0x7e>
    2c44:	2c03      	cmp	r4, #3
    2c46:	d01c      	beq.n	2c82 <RCC_PeriphClockCmd+0x66>
    2c48:	b9f4      	cbnz	r4, 2c88 <RCC_PeriphClockCmd+0x6c>
    2c4a:	f240 2304 	movw	r3, #516	; 0x204
    2c4e:	b9c8      	cbnz	r0, 2c84 <RCC_PeriphClockCmd+0x68>
    2c50:	200a      	movs	r0, #10
    2c52:	4b17      	ldr	r3, [pc, #92]	; (2cb0 <RCC_PeriphClockCmd+0x94>)
    2c54:	4798      	blx	r3
    2c56:	bdf8      	pop	{r3, r4, r5, r6, r7, pc}
    2c58:	438f      	bics	r7, r1
    2c5a:	6037      	str	r7, [r6, #0]
    2c5c:	2c01      	cmp	r4, #1
    2c5e:	d01f      	beq.n	2ca0 <RCC_PeriphClockCmd+0x84>
    2c60:	2c03      	cmp	r4, #3
    2c62:	d00e      	beq.n	2c82 <RCC_PeriphClockCmd+0x66>
    2c64:	2c00      	cmp	r4, #0
    2c66:	d0f0      	beq.n	2c4a <RCC_PeriphClockCmd+0x2e>
    2c68:	4a10      	ldr	r2, [pc, #64]	; (2cac <RCC_PeriphClockCmd+0x90>)
    2c6a:	189b      	adds	r3, r3, r2
    2c6c:	681a      	ldr	r2, [r3, #0]
    2c6e:	43aa      	bics	r2, r5
    2c70:	601a      	str	r2, [r3, #0]
    2c72:	e7ed      	b.n	2c50 <RCC_PeriphClockCmd+0x34>
    2c74:	2c01      	cmp	r4, #1
    2c76:	d00d      	beq.n	2c94 <RCC_PeriphClockCmd+0x78>
    2c78:	2c03      	cmp	r4, #3
    2c7a:	d002      	beq.n	2c82 <RCC_PeriphClockCmd+0x66>
    2c7c:	2c00      	cmp	r4, #0
    2c7e:	d1e6      	bne.n	2c4e <RCC_PeriphClockCmd+0x32>
    2c80:	e7e3      	b.n	2c4a <RCC_PeriphClockCmd+0x2e>
    2c82:	2308      	movs	r3, #8
    2c84:	2a01      	cmp	r2, #1
    2c86:	d1ef      	bne.n	2c68 <RCC_PeriphClockCmd+0x4c>
    2c88:	4a08      	ldr	r2, [pc, #32]	; (2cac <RCC_PeriphClockCmd+0x90>)
    2c8a:	189b      	adds	r3, r3, r2
    2c8c:	681a      	ldr	r2, [r3, #0]
    2c8e:	4315      	orrs	r5, r2
    2c90:	601d      	str	r5, [r3, #0]
    2c92:	e7dd      	b.n	2c50 <RCC_PeriphClockCmd+0x34>
    2c94:	f240 2308 	movw	r3, #520	; 0x208
    2c98:	e7f4      	b.n	2c84 <RCC_PeriphClockCmd+0x68>
    2c9a:	f240 2308 	movw	r3, #520	; 0x208
    2c9e:	e7f3      	b.n	2c88 <RCC_PeriphClockCmd+0x6c>
    2ca0:	f240 2308 	movw	r3, #520	; 0x208
    2ca4:	e7e0      	b.n	2c68 <RCC_PeriphClockCmd+0x4c>
    2ca6:	bf00      	nop
    2ca8:	0000a754 	.word	0x0000a754
    2cac:	41008000 	.word	0x41008000
    2cb0:	0000056b 	.word	0x0000056b

00002cb4 <RCC_PeriphClockSource_UART>:
    2cb4:	2207      	movs	r2, #7
    2cb6:	b5f0      	push	{r4, r5, r6, r7, lr}
    2cb8:	4c18      	ldr	r4, [pc, #96]	; (2d1c <RCC_PeriphClockSource_UART+0x68>)
    2cba:	4f19      	ldr	r7, [pc, #100]	; (2d20 <RCC_PeriphClockSource_UART+0x6c>)
    2cbc:	6825      	ldr	r5, [r4, #0]
    2cbe:	0d2e      	lsrs	r6, r5, #20
    2cc0:	0e6b      	lsrs	r3, r5, #25
    2cc2:	4013      	ands	r3, r2
    2cc4:	4032      	ands	r2, r6
    2cc6:	2600      	movs	r6, #0
    2cc8:	42b8      	cmp	r0, r7
    2cca:	d008      	beq.n	2cde <RCC_PeriphClockSource_UART+0x2a>
    2ccc:	4f15      	ldr	r7, [pc, #84]	; (2d24 <RCC_PeriphClockSource_UART+0x70>)
    2cce:	3601      	adds	r6, #1
    2cd0:	42b8      	cmp	r0, r7
    2cd2:	d004      	beq.n	2cde <RCC_PeriphClockSource_UART+0x2a>
    2cd4:	4e14      	ldr	r6, [pc, #80]	; (2d28 <RCC_PeriphClockSource_UART+0x74>)
    2cd6:	1980      	adds	r0, r0, r6
    2cd8:	4246      	negs	r6, r0
    2cda:	4170      	adcs	r0, r6
    2cdc:	0046      	lsls	r6, r0, #1
    2cde:	2001      	movs	r0, #1
    2ce0:	40b0      	lsls	r0, r6
    2ce2:	2901      	cmp	r1, #1
    2ce4:	d108      	bne.n	2cf8 <RCC_PeriphClockSource_UART+0x44>
    2ce6:	4303      	orrs	r3, r0
    2ce8:	4910      	ldr	r1, [pc, #64]	; (2d2c <RCC_PeriphClockSource_UART+0x78>)
    2cea:	0512      	lsls	r2, r2, #20
    2cec:	065b      	lsls	r3, r3, #25
    2cee:	400d      	ands	r5, r1
    2cf0:	4313      	orrs	r3, r2
    2cf2:	432b      	orrs	r3, r5
    2cf4:	6023      	str	r3, [r4, #0]
    2cf6:	bdf0      	pop	{r4, r5, r6, r7, pc}
    2cf8:	43c6      	mvns	r6, r0
    2cfa:	4383      	bics	r3, r0
    2cfc:	b909      	cbnz	r1, 2d02 <RCC_PeriphClockSource_UART+0x4e>
    2cfe:	4032      	ands	r2, r6
    2d00:	e7f2      	b.n	2ce8 <RCC_PeriphClockSource_UART+0x34>
    2d02:	2902      	cmp	r1, #2
    2d04:	d1f0      	bne.n	2ce8 <RCC_PeriphClockSource_UART+0x34>
    2d06:	4e0a      	ldr	r6, [pc, #40]	; (2d30 <RCC_PeriphClockSource_UART+0x7c>)
    2d08:	3102      	adds	r1, #2
    2d0a:	68f7      	ldr	r7, [r6, #12]
    2d0c:	420f      	tst	r7, r1
    2d0e:	d102      	bne.n	2d16 <RCC_PeriphClockSource_UART+0x62>
    2d10:	68f7      	ldr	r7, [r6, #12]
    2d12:	4339      	orrs	r1, r7
    2d14:	60f1      	str	r1, [r6, #12]
    2d16:	4302      	orrs	r2, r0
    2d18:	e7e6      	b.n	2ce8 <RCC_PeriphClockSource_UART+0x34>
    2d1a:	bf00      	nop
    2d1c:	41008218 	.word	0x41008218
    2d20:	4100c000 	.word	0x4100c000
    2d24:	4100d000 	.word	0x4100d000
    2d28:	beff2000 	.word	0xbeff2000
    2d2c:	f18fffff 	.word	0xf18fffff
    2d30:	41008400 	.word	0x41008400

00002d34 <RCC_PeriphClockSource_SPIC>:
    2d34:	2110      	movs	r1, #16
    2d36:	4a04      	ldr	r2, [pc, #16]	; (2d48 <RCC_PeriphClockSource_SPIC+0x14>)
    2d38:	0100      	lsls	r0, r0, #4
    2d3a:	6813      	ldr	r3, [r2, #0]
    2d3c:	4008      	ands	r0, r1
    2d3e:	438b      	bics	r3, r1
    2d40:	4318      	orrs	r0, r3
    2d42:	6010      	str	r0, [r2, #0]
    2d44:	4770      	bx	lr
    2d46:	bf00      	nop
    2d48:	41008218 	.word	0x41008218

00002d4c <RCC_PeriphClockSource_PSRAM>:
    2d4c:	2140      	movs	r1, #64	; 0x40
    2d4e:	4a04      	ldr	r2, [pc, #16]	; (2d60 <RCC_PeriphClockSource_PSRAM+0x14>)
    2d50:	0180      	lsls	r0, r0, #6
    2d52:	6813      	ldr	r3, [r2, #0]
    2d54:	4008      	ands	r0, r1
    2d56:	438b      	bics	r3, r1
    2d58:	4318      	orrs	r0, r3
    2d5a:	6010      	str	r0, [r2, #0]
    2d5c:	4770      	bx	lr
    2d5e:	bf00      	nop
    2d60:	41008218 	.word	0x41008218

00002d64 <RCC_PeriphClockSource_CTC>:
    2d64:	4a05      	ldr	r2, [pc, #20]	; (2d7c <RCC_PeriphClockSource_CTC+0x18>)
    2d66:	4906      	ldr	r1, [pc, #24]	; (2d80 <RCC_PeriphClockSource_CTC+0x1c>)
    2d68:	6813      	ldr	r3, [r2, #0]
    2d6a:	0280      	lsls	r0, r0, #10
    2d6c:	400b      	ands	r3, r1
    2d6e:	f240 4100 	movw	r1, #1024	; 0x400
    2d72:	4008      	ands	r0, r1
    2d74:	4318      	orrs	r0, r3
    2d76:	6010      	str	r0, [r2, #0]
    2d78:	4770      	bx	lr
    2d7a:	bf00      	nop
    2d7c:	41008218 	.word	0x41008218
    2d80:	fffffbff 	.word	0xfffffbff

00002d84 <RCC_PeriphClockSource_ADC>:
    2d84:	4a05      	ldr	r2, [pc, #20]	; (2d9c <RCC_PeriphClockSource_ADC+0x18>)
    2d86:	4906      	ldr	r1, [pc, #24]	; (2da0 <RCC_PeriphClockSource_ADC+0x1c>)
    2d88:	6813      	ldr	r3, [r2, #0]
    2d8a:	0240      	lsls	r0, r0, #9
    2d8c:	400b      	ands	r3, r1
    2d8e:	f240 2100 	movw	r1, #512	; 0x200
    2d92:	4008      	ands	r0, r1
    2d94:	4318      	orrs	r0, r3
    2d96:	6010      	str	r0, [r2, #0]
    2d98:	4770      	bx	lr
    2d9a:	bf00      	nop
    2d9c:	41008218 	.word	0x41008218
    2da0:	fffffdff 	.word	0xfffffdff

00002da4 <RCC_PeriphClockSource_GPIO>:
    2da4:	4a05      	ldr	r2, [pc, #20]	; (2dbc <RCC_PeriphClockSource_GPIO+0x18>)
    2da6:	4906      	ldr	r1, [pc, #24]	; (2dc0 <RCC_PeriphClockSource_GPIO+0x1c>)
    2da8:	6813      	ldr	r3, [r2, #0]
    2daa:	0200      	lsls	r0, r0, #8
    2dac:	400b      	ands	r3, r1
    2dae:	f240 1100 	movw	r1, #256	; 0x100
    2db2:	4008      	ands	r0, r1
    2db4:	4318      	orrs	r0, r3
    2db6:	6010      	str	r0, [r2, #0]
    2db8:	4770      	bx	lr
    2dba:	bf00      	nop
    2dbc:	41008218 	.word	0x41008218
    2dc0:	fffffeff 	.word	0xfffffeff

00002dc4 <RCC_PeriphClockSource_SPORT>:
    2dc4:	4b0b      	ldr	r3, [pc, #44]	; (2df4 <RCC_PeriphClockSource_SPORT+0x30>)
    2dc6:	b530      	push	{r4, r5, lr}
    2dc8:	18c0      	adds	r0, r0, r3
    2dca:	4243      	negs	r3, r0
    2dcc:	4158      	adcs	r0, r3
    2dce:	2301      	movs	r3, #1
    2dd0:	4083      	lsls	r3, r0
    2dd2:	4c09      	ldr	r4, [pc, #36]	; (2df8 <RCC_PeriphClockSource_SPORT+0x34>)
    2dd4:	0018      	movs	r0, r3
    2dd6:	6822      	ldr	r2, [r4, #0]
    2dd8:	0315      	lsls	r5, r2, #12
    2dda:	0fad      	lsrs	r5, r5, #30
    2ddc:	002b      	movs	r3, r5
    2dde:	4303      	orrs	r3, r0
    2de0:	b909      	cbnz	r1, 2de6 <RCC_PeriphClockSource_SPORT+0x22>
    2de2:	002b      	movs	r3, r5
    2de4:	4383      	bics	r3, r0
    2de6:	4905      	ldr	r1, [pc, #20]	; (2dfc <RCC_PeriphClockSource_SPORT+0x38>)
    2de8:	049b      	lsls	r3, r3, #18
    2dea:	400a      	ands	r2, r1
    2dec:	4313      	orrs	r3, r2
    2dee:	6023      	str	r3, [r4, #0]
    2df0:	bd30      	pop	{r4, r5, pc}
    2df2:	bf00      	nop
    2df4:	bfed5000 	.word	0xbfed5000
    2df8:	41008218 	.word	0x41008218
    2dfc:	fff3ffff 	.word	0xfff3ffff

00002e00 <RCC_PeriphClockSource_LOGUART>:
    2e00:	b510      	push	{r4, lr}
    2e02:	4c0e      	ldr	r4, [pc, #56]	; (2e3c <RCC_PeriphClockSource_LOGUART+0x3c>)
    2e04:	6823      	ldr	r3, [r4, #0]
    2e06:	2801      	cmp	r0, #1
    2e08:	d103      	bne.n	2e12 <RCC_PeriphClockSource_LOGUART+0x12>
    2e0a:	2280      	movs	r2, #128	; 0x80
    2e0c:	0592      	lsls	r2, r2, #22
    2e0e:	4313      	orrs	r3, r2
    2e10:	e002      	b.n	2e18 <RCC_PeriphClockSource_LOGUART+0x18>
    2e12:	b918      	cbnz	r0, 2e1c <RCC_PeriphClockSource_LOGUART+0x1c>
    2e14:	4a0a      	ldr	r2, [pc, #40]	; (2e40 <RCC_PeriphClockSource_LOGUART+0x40>)
    2e16:	4013      	ands	r3, r2
    2e18:	6023      	str	r3, [r4, #0]
    2e1a:	bd10      	pop	{r4, pc}
    2e1c:	4a09      	ldr	r2, [pc, #36]	; (2e44 <RCC_PeriphClockSource_LOGUART+0x44>)
    2e1e:	4013      	ands	r3, r2
    2e20:	2802      	cmp	r0, #2
    2e22:	d1f9      	bne.n	2e18 <RCC_PeriphClockSource_LOGUART+0x18>
    2e24:	2204      	movs	r2, #4
    2e26:	4908      	ldr	r1, [pc, #32]	; (2e48 <RCC_PeriphClockSource_LOGUART+0x48>)
    2e28:	68c8      	ldr	r0, [r1, #12]
    2e2a:	4210      	tst	r0, r2
    2e2c:	d102      	bne.n	2e34 <RCC_PeriphClockSource_LOGUART+0x34>
    2e2e:	68c8      	ldr	r0, [r1, #12]
    2e30:	4302      	orrs	r2, r0
    2e32:	60ca      	str	r2, [r1, #12]
    2e34:	2280      	movs	r2, #128	; 0x80
    2e36:	0452      	lsls	r2, r2, #17
    2e38:	e7e9      	b.n	2e0e <RCC_PeriphClockSource_LOGUART+0xe>
    2e3a:	bf00      	nop
    2e3c:	41008218 	.word	0x41008218
    2e40:	deffffff 	.word	0xdeffffff
    2e44:	dfffffff 	.word	0xdfffffff
    2e48:	41008400 	.word	0x41008400

00002e4c <IPC_SEMTake>:
    2e4c:	b510      	push	{r4, lr}
    2e4e:	0004      	movs	r4, r0
    2e50:	283f      	cmp	r0, #63	; 0x3f
    2e52:	d903      	bls.n	2e5c <IPC_SEMTake+0x10>
    2e54:	211f      	movs	r1, #31
    2e56:	4805      	ldr	r0, [pc, #20]	; (2e6c <IPC_SEMTake+0x20>)
    2e58:	f7fd f95c 	bl	114 <io_assert_failed>
    2e5c:	4b04      	ldr	r3, [pc, #16]	; (2e70 <IPC_SEMTake+0x24>)
    2e5e:	18e4      	adds	r4, r4, r3
    2e60:	00a4      	lsls	r4, r4, #2
    2e62:	6820      	ldr	r0, [r4, #0]
    2e64:	4243      	negs	r3, r0
    2e66:	4158      	adcs	r0, r3
    2e68:	bd10      	pop	{r4, pc}
    2e6a:	bf00      	nop
    2e6c:	0000a75c 	.word	0x0000a75c
    2e70:	10405080 	.word	0x10405080

00002e74 <IPC_SEMFree>:
    2e74:	b510      	push	{r4, lr}
    2e76:	0004      	movs	r4, r0
    2e78:	283f      	cmp	r0, #63	; 0x3f
    2e7a:	d904      	bls.n	2e86 <IPC_SEMFree+0x12>
    2e7c:	4805      	ldr	r0, [pc, #20]	; (2e94 <IPC_SEMFree+0x20>)
    2e7e:	2133      	movs	r1, #51	; 0x33
    2e80:	300c      	adds	r0, #12
    2e82:	f7fd f947 	bl	114 <io_assert_failed>
    2e86:	2001      	movs	r0, #1
    2e88:	4b03      	ldr	r3, [pc, #12]	; (2e98 <IPC_SEMFree+0x24>)
    2e8a:	18e4      	adds	r4, r4, r3
    2e8c:	00a4      	lsls	r4, r4, #2
    2e8e:	6020      	str	r0, [r4, #0]
    2e90:	bd10      	pop	{r4, pc}
    2e92:	bf00      	nop
    2e94:	0000a75c 	.word	0x0000a75c
    2e98:	10405080 	.word	0x10405080

00002e9c <SYSCFG_RLVersion>:
    2e9c:	21a0      	movs	r1, #160	; 0xa0
    2e9e:	4a06      	ldr	r2, [pc, #24]	; (2eb8 <SYSCFG_RLVersion+0x1c>)
    2ea0:	0609      	lsls	r1, r1, #24
    2ea2:	6813      	ldr	r3, [r2, #0]
    2ea4:	011b      	lsls	r3, r3, #4
    2ea6:	091b      	lsrs	r3, r3, #4
    2ea8:	4319      	orrs	r1, r3
    2eaa:	6011      	str	r1, [r2, #0]
    2eac:	6810      	ldr	r0, [r2, #0]
    2eae:	6013      	str	r3, [r2, #0]
    2eb0:	0300      	lsls	r0, r0, #12
    2eb2:	0f00      	lsrs	r0, r0, #28
    2eb4:	4770      	bx	lr
    2eb6:	bf00      	nop
    2eb8:	41008274 	.word	0x41008274

00002ebc <SYSCFG_GetRLNum>:
    2ebc:	21a0      	movs	r1, #160	; 0xa0
    2ebe:	4a05      	ldr	r2, [pc, #20]	; (2ed4 <SYSCFG_GetRLNum+0x18>)
    2ec0:	0609      	lsls	r1, r1, #24
    2ec2:	6813      	ldr	r3, [r2, #0]
    2ec4:	011b      	lsls	r3, r3, #4
    2ec6:	091b      	lsrs	r3, r3, #4
    2ec8:	4319      	orrs	r1, r3
    2eca:	6011      	str	r1, [r2, #0]
    2ecc:	6810      	ldr	r0, [r2, #0]
    2ece:	6013      	str	r3, [r2, #0]
    2ed0:	b280      	uxth	r0, r0
    2ed2:	4770      	bx	lr
    2ed4:	41008274 	.word	0x41008274

00002ed8 <SYSCFG_TRP_UARTImage>:
    2ed8:	4b02      	ldr	r3, [pc, #8]	; (2ee4 <SYSCFG_TRP_UARTImage+0xc>)
    2eda:	6818      	ldr	r0, [r3, #0]
    2edc:	0300      	lsls	r0, r0, #12
    2ede:	0fc0      	lsrs	r0, r0, #31
    2ee0:	4770      	bx	lr
    2ee2:	bf00      	nop
    2ee4:	41008228 	.word	0x41008228

00002ee8 <SYSCFG_TRP_ICFG>:
    2ee8:	4b04      	ldr	r3, [pc, #16]	; (2efc <SYSCFG_TRP_ICFG+0x14>)
    2eea:	681b      	ldr	r3, [r3, #0]
    2eec:	039a      	lsls	r2, r3, #14
    2eee:	0fd0      	lsrs	r0, r2, #31
    2ef0:	2a00      	cmp	r2, #0
    2ef2:	da01      	bge.n	2ef8 <SYSCFG_TRP_ICFG+0x10>
    2ef4:	021b      	lsls	r3, r3, #8
    2ef6:	0f18      	lsrs	r0, r3, #28
    2ef8:	4770      	bx	lr
    2efa:	bf00      	nop
    2efc:	41008228 	.word	0x41008228

00002f00 <SYSCFG_TRP_TestMode>:
    2f00:	4b02      	ldr	r3, [pc, #8]	; (2f0c <SYSCFG_TRP_TestMode+0xc>)
    2f02:	6818      	ldr	r0, [r3, #0]
    2f04:	0380      	lsls	r0, r0, #14
    2f06:	0fc0      	lsrs	r0, r0, #31
    2f08:	4770      	bx	lr
    2f0a:	bf00      	nop
    2f0c:	41008228 	.word	0x41008228

00002f10 <SYSCFG_TRP_OTPBYP>:
    2f10:	4b02      	ldr	r3, [pc, #8]	; (2f1c <SYSCFG_TRP_OTPBYP+0xc>)
    2f12:	6818      	ldr	r0, [r3, #0]
    2f14:	03c0      	lsls	r0, r0, #15
    2f16:	0fc0      	lsrs	r0, r0, #31
    2f18:	4770      	bx	lr
    2f1a:	bf00      	nop
    2f1c:	41008228 	.word	0x41008228

00002f20 <SYSCFG_ROMINFO_Get>:
    2f20:	4b01      	ldr	r3, [pc, #4]	; (2f28 <SYSCFG_ROMINFO_Get+0x8>)
    2f22:	6818      	ldr	r0, [r3, #0]
    2f24:	b280      	uxth	r0, r0
    2f26:	4770      	bx	lr
    2f28:	4100826c 	.word	0x4100826c

00002f2c <SYSCFG_ROMINFO_Set>:
    2f2c:	2201      	movs	r2, #1
    2f2e:	4903      	ldr	r1, [pc, #12]	; (2f3c <SYSCFG_ROMINFO_Set+0x10>)
    2f30:	680b      	ldr	r3, [r1, #0]
    2f32:	0c1b      	lsrs	r3, r3, #16
    2f34:	041b      	lsls	r3, r3, #16
    2f36:	4313      	orrs	r3, r2
    2f38:	600b      	str	r3, [r1, #0]
    2f3a:	4770      	bx	lr
    2f3c:	4100826c 	.word	0x4100826c

00002f40 <SYSCFG_CHIPType_Get>:
    2f40:	4b02      	ldr	r3, [pc, #8]	; (2f4c <SYSCFG_CHIPType_Get+0xc>)
    2f42:	6818      	ldr	r0, [r3, #0]
    2f44:	0580      	lsls	r0, r0, #22
    2f46:	0f80      	lsrs	r0, r0, #30
    2f48:	4770      	bx	lr
    2f4a:	bf00      	nop
    2f4c:	41008228 	.word	0x41008228

00002f50 <SYSCFG_OTP_RDPEn>:
    2f50:	2201      	movs	r2, #1
    2f52:	4b05      	ldr	r3, [pc, #20]	; (2f68 <SYSCFG_OTP_RDPEn+0x18>)
    2f54:	0010      	movs	r0, r2
    2f56:	6819      	ldr	r1, [r3, #0]
    2f58:	4b04      	ldr	r3, [pc, #16]	; (2f6c <SYSCFG_OTP_RDPEn+0x1c>)
    2f5a:	681b      	ldr	r3, [r3, #0]
    2f5c:	00c9      	lsls	r1, r1, #3
    2f5e:	d402      	bmi.n	2f66 <SYSCFG_OTP_RDPEn+0x16>
    2f60:	095b      	lsrs	r3, r3, #5
    2f62:	439a      	bics	r2, r3
    2f64:	0010      	movs	r0, r2
    2f66:	4770      	bx	lr
    2f68:	41000100 	.word	0x41000100
    2f6c:	41000368 	.word	0x41000368

00002f70 <SYSCFG_OTP_RSIPEn>:
    2f70:	2201      	movs	r2, #1
    2f72:	4b05      	ldr	r3, [pc, #20]	; (2f88 <SYSCFG_OTP_RSIPEn+0x18>)
    2f74:	0010      	movs	r0, r2
    2f76:	6819      	ldr	r1, [r3, #0]
    2f78:	4b04      	ldr	r3, [pc, #16]	; (2f8c <SYSCFG_OTP_RSIPEn+0x1c>)
    2f7a:	681b      	ldr	r3, [r3, #0]
    2f7c:	0109      	lsls	r1, r1, #4
    2f7e:	d402      	bmi.n	2f86 <SYSCFG_OTP_RSIPEn+0x16>
    2f80:	089b      	lsrs	r3, r3, #2
    2f82:	439a      	bics	r2, r3
    2f84:	0010      	movs	r0, r2
    2f86:	4770      	bx	lr
    2f88:	41000100 	.word	0x41000100
    2f8c:	41000368 	.word	0x41000368

00002f90 <SYSCFG_OTP_SBootEn>:
    2f90:	2201      	movs	r2, #1
    2f92:	4b05      	ldr	r3, [pc, #20]	; (2fa8 <SYSCFG_OTP_SBootEn+0x18>)
    2f94:	0010      	movs	r0, r2
    2f96:	6819      	ldr	r1, [r3, #0]
    2f98:	4b04      	ldr	r3, [pc, #16]	; (2fac <SYSCFG_OTP_SBootEn+0x1c>)
    2f9a:	681b      	ldr	r3, [r3, #0]
    2f9c:	0149      	lsls	r1, r1, #5
    2f9e:	d402      	bmi.n	2fa6 <SYSCFG_OTP_SBootEn+0x16>
    2fa0:	08db      	lsrs	r3, r3, #3
    2fa2:	439a      	bics	r2, r3
    2fa4:	0010      	movs	r0, r2
    2fa6:	4770      	bx	lr
    2fa8:	41000100 	.word	0x41000100
    2fac:	41000368 	.word	0x41000368

00002fb0 <SYSCFG_OTP_LowBaudLog>:
    2fb0:	4b02      	ldr	r3, [pc, #8]	; (2fbc <SYSCFG_OTP_LowBaudLog+0xc>)
    2fb2:	6818      	ldr	r0, [r3, #0]
    2fb4:	0180      	lsls	r0, r0, #6
    2fb6:	0fc0      	lsrs	r0, r0, #31
    2fb8:	4770      	bx	lr
    2fba:	bf00      	nop
    2fbc:	41000100 	.word	0x41000100

00002fc0 <SYSCFG_OTP_DisBootLog>:
    2fc0:	4b02      	ldr	r3, [pc, #8]	; (2fcc <SYSCFG_OTP_DisBootLog+0xc>)
    2fc2:	6818      	ldr	r0, [r3, #0]
    2fc4:	01c0      	lsls	r0, r0, #7
    2fc6:	0fc0      	lsrs	r0, r0, #31
    2fc8:	4770      	bx	lr
    2fca:	bf00      	nop
    2fcc:	41000100 	.word	0x41000100

00002fd0 <SYSCFG_OTP_BootMCMFlash>:
    2fd0:	4b06      	ldr	r3, [pc, #24]	; (2fec <SYSCFG_OTP_BootMCMFlash+0x1c>)
    2fd2:	2280      	movs	r2, #128	; 0x80
    2fd4:	6819      	ldr	r1, [r3, #0]
    2fd6:	4b06      	ldr	r3, [pc, #24]	; (2ff0 <SYSCFG_OTP_BootMCMFlash+0x20>)
    2fd8:	0008      	movs	r0, r1
    2fda:	02d2      	lsls	r2, r2, #11
    2fdc:	681b      	ldr	r3, [r3, #0]
    2fde:	4010      	ands	r0, r2
    2fe0:	4211      	tst	r1, r2
    2fe2:	d002      	beq.n	2fea <SYSCFG_OTP_BootMCMFlash+0x1a>
    2fe4:	2001      	movs	r0, #1
    2fe6:	0d1b      	lsrs	r3, r3, #20
    2fe8:	4398      	bics	r0, r3
    2fea:	4770      	bx	lr
    2fec:	41008228 	.word	0x41008228
    2ff0:	41000100 	.word	0x41000100

00002ff4 <SYSCFG_OTP_BOOT_CNT_LMT_EN>:
    2ff4:	4b02      	ldr	r3, [pc, #8]	; (3000 <SYSCFG_OTP_BOOT_CNT_LMT_EN+0xc>)
    2ff6:	6818      	ldr	r0, [r3, #0]
    2ff8:	0280      	lsls	r0, r0, #10
    2ffa:	0fc0      	lsrs	r0, r0, #31
    2ffc:	4770      	bx	lr
    2ffe:	bf00      	nop
    3000:	41000100 	.word	0x41000100

00003004 <SYSCFG_OTP_BootFlashBaud>:
    3004:	4b02      	ldr	r3, [pc, #8]	; (3010 <SYSCFG_OTP_BootFlashBaud+0xc>)
    3006:	6818      	ldr	r0, [r3, #0]
    3008:	0300      	lsls	r0, r0, #12
    300a:	0fc0      	lsrs	r0, r0, #31
    300c:	4770      	bx	lr
    300e:	bf00      	nop
    3010:	41000100 	.word	0x41000100

00003014 <SYSCFG_OTP_SPICBootSpeedUpDis>:
    3014:	4b02      	ldr	r3, [pc, #8]	; (3020 <SYSCFG_OTP_SPICBootSpeedUpDis+0xc>)
    3016:	6818      	ldr	r0, [r3, #0]
    3018:	0340      	lsls	r0, r0, #13
    301a:	0fc0      	lsrs	r0, r0, #31
    301c:	4770      	bx	lr
    301e:	bf00      	nop
    3020:	41000100 	.word	0x41000100

00003024 <SYSCFG_OTP_SPICAddr4ByteEn>:
    3024:	4b02      	ldr	r3, [pc, #8]	; (3030 <SYSCFG_OTP_SPICAddr4ByteEn+0xc>)
    3026:	6818      	ldr	r0, [r3, #0]
    3028:	0380      	lsls	r0, r0, #14
    302a:	0fc0      	lsrs	r0, r0, #31
    302c:	4770      	bx	lr
    302e:	bf00      	nop
    3030:	41000100 	.word	0x41000100

00003034 <SYSCFG_OTP_FlashDSleepEn>:
    3034:	4b02      	ldr	r3, [pc, #8]	; (3040 <SYSCFG_OTP_FlashDSleepEn+0xc>)
    3036:	6818      	ldr	r0, [r3, #0]
    3038:	03c0      	lsls	r0, r0, #15
    303a:	0fc0      	lsrs	r0, r0, #31
    303c:	4770      	bx	lr
    303e:	bf00      	nop
    3040:	41000100 	.word	0x41000100

00003044 <SYSCFG_OTP_UsbClockCalEn>:
    3044:	4b02      	ldr	r3, [pc, #8]	; (3050 <SYSCFG_OTP_UsbClockCalEn+0xc>)
    3046:	6818      	ldr	r0, [r3, #0]
    3048:	0040      	lsls	r0, r0, #1
    304a:	0fc0      	lsrs	r0, r0, #31
    304c:	4770      	bx	lr
    304e:	bf00      	nop
    3050:	41000100 	.word	0x41000100

00003054 <SYSCFG_OTP_UsbDownloadEn>:
    3054:	4b01      	ldr	r3, [pc, #4]	; (305c <SYSCFG_OTP_UsbDownloadEn+0x8>)
    3056:	6818      	ldr	r0, [r3, #0]
    3058:	0fc0      	lsrs	r0, r0, #31
    305a:	4770      	bx	lr
    305c:	41000100 	.word	0x41000100

00003060 <SYSCFG_OTP_UartDownloadDis>:
    3060:	2001      	movs	r0, #1
    3062:	4b02      	ldr	r3, [pc, #8]	; (306c <SYSCFG_OTP_UartDownloadDis+0xc>)
    3064:	681b      	ldr	r3, [r3, #0]
    3066:	4398      	bics	r0, r3
    3068:	4770      	bx	lr
    306a:	bf00      	nop
    306c:	41000368 	.word	0x41000368

00003070 <SYSCFG_OTP_AntiRollback>:
    3070:	2001      	movs	r0, #1
    3072:	4b02      	ldr	r3, [pc, #8]	; (307c <SYSCFG_OTP_AntiRollback+0xc>)
    3074:	681b      	ldr	r3, [r3, #0]
    3076:	099b      	lsrs	r3, r3, #6
    3078:	4398      	bics	r0, r3
    307a:	4770      	bx	lr
    307c:	41000368 	.word	0x41000368

00003080 <SYSCFG_OTP_FaultLogDis>:
    3080:	2001      	movs	r0, #1
    3082:	4b02      	ldr	r3, [pc, #8]	; (308c <SYSCFG_OTP_FaultLogDis+0xc>)
    3084:	681b      	ldr	r3, [r3, #0]
    3086:	09db      	lsrs	r3, r3, #7
    3088:	4398      	bics	r0, r3
    308a:	4770      	bx	lr
    308c:	41000368 	.word	0x41000368

00003090 <SYSCFG_OTP_RSIPMode>:
    3090:	2201      	movs	r2, #1
    3092:	2000      	movs	r0, #0
    3094:	4b03      	ldr	r3, [pc, #12]	; (30a4 <SYSCFG_OTP_RSIPMode+0x14>)
    3096:	681b      	ldr	r3, [r3, #0]
    3098:	059b      	lsls	r3, r3, #22
    309a:	0f9b      	lsrs	r3, r3, #30
    309c:	3b01      	subs	r3, #1
    309e:	429a      	cmp	r2, r3
    30a0:	4140      	adcs	r0, r0
    30a2:	4770      	bx	lr
    30a4:	41000368 	.word	0x41000368

000030a8 <SYSCFG_OTP_HUKDerivEn>:
    30a8:	2001      	movs	r0, #1
    30aa:	4b02      	ldr	r3, [pc, #8]	; (30b4 <SYSCFG_OTP_HUKDerivEn+0xc>)
    30ac:	681b      	ldr	r3, [r3, #0]
    30ae:	0a9b      	lsrs	r3, r3, #10
    30b0:	4398      	bics	r0, r3
    30b2:	4770      	bx	lr
    30b4:	41000368 	.word	0x41000368

000030b8 <SYSCFG_OTP_RomPatchEn>:
    30b8:	2203      	movs	r2, #3
    30ba:	4b05      	ldr	r3, [pc, #20]	; (30d0 <SYSCFG_OTP_RomPatchEn+0x18>)
    30bc:	2000      	movs	r0, #0
    30be:	781b      	ldrb	r3, [r3, #0]
    30c0:	4013      	ands	r3, r2
    30c2:	4293      	cmp	r3, r2
    30c4:	d002      	beq.n	30cc <SYSCFG_OTP_RomPatchEn+0x14>
    30c6:	0018      	movs	r0, r3
    30c8:	1e43      	subs	r3, r0, #1
    30ca:	4198      	sbcs	r0, r3
    30cc:	4770      	bx	lr
    30ce:	bf00      	nop
    30d0:	41000701 	.word	0x41000701

000030d4 <SYSCFG_OTP_RandDelayEn>:
    30d4:	4b02      	ldr	r3, [pc, #8]	; (30e0 <SYSCFG_OTP_RandDelayEn+0xc>)
    30d6:	6818      	ldr	r0, [r3, #0]
    30d8:	0080      	lsls	r0, r0, #2
    30da:	0fc0      	lsrs	r0, r0, #31
    30dc:	4770      	bx	lr
    30de:	bf00      	nop
    30e0:	41000100 	.word	0x41000100

000030e4 <SYSCFG_OTP_RMAMode>:
    30e4:	b510      	push	{r4, lr}
    30e6:	2208      	movs	r2, #8
    30e8:	2000      	movs	r0, #0
    30ea:	2401      	movs	r4, #1
    30ec:	4b06      	ldr	r3, [pc, #24]	; (3108 <SYSCFG_OTP_RMAMode+0x24>)
    30ee:	781b      	ldrb	r3, [r3, #0]
    30f0:	b2db      	uxtb	r3, r3
    30f2:	0019      	movs	r1, r3
    30f4:	3a01      	subs	r2, #1
    30f6:	4021      	ands	r1, r4
    30f8:	1840      	adds	r0, r0, r1
    30fa:	085b      	lsrs	r3, r3, #1
    30fc:	2a00      	cmp	r2, #0
    30fe:	d1f8      	bne.n	30f2 <SYSCFG_OTP_RMAMode+0xe>
    3100:	2301      	movs	r3, #1
    3102:	4018      	ands	r0, r3
    3104:	bd10      	pop	{r4, pc}
    3106:	bf00      	nop
    3108:	41000700 	.word	0x41000700

0000310c <SYSCFG_HWTrigDownload>:
    310c:	b510      	push	{r4, lr}
    310e:	f7ff ffa7 	bl	3060 <SYSCFG_OTP_UartDownloadDis>
    3112:	0003      	movs	r3, r0
    3114:	2000      	movs	r0, #0
    3116:	b90b      	cbnz	r3, 311c <SYSCFG_HWTrigDownload+0x10>
    3118:	f7ff fede 	bl	2ed8 <SYSCFG_TRP_UARTImage>
    311c:	bd10      	pop	{r4, pc}

0000311e <SYSCFG_SWTrigDownload>:
    311e:	4b07      	ldr	r3, [pc, #28]	; (313c <SYSCFG_SWTrigDownload+0x1e>)
    3120:	b510      	push	{r4, lr}
    3122:	681a      	ldr	r2, [r3, #0]
    3124:	f640 0300 	movw	r3, #2048	; 0x800
    3128:	0010      	movs	r0, r2
    312a:	4018      	ands	r0, r3
    312c:	421a      	tst	r2, r3
    312e:	d004      	beq.n	313a <SYSCFG_SWTrigDownload+0x1c>
    3130:	2000      	movs	r0, #0
    3132:	4b03      	ldr	r3, [pc, #12]	; (3140 <SYSCFG_SWTrigDownload+0x22>)
    3134:	4798      	blx	r3
    3136:	0580      	lsls	r0, r0, #22
    3138:	0fc0      	lsrs	r0, r0, #31
    313a:	bd10      	pop	{r4, pc}
    313c:	41000368 	.word	0x41000368
    3140:	00000159 	.word	0x00000159

00003144 <SYSTIMER_Init>:
    3144:	b570      	push	{r4, r5, r6, lr}
    3146:	b08a      	sub	sp, #40	; 0x28
    3148:	ac03      	add	r4, sp, #12
    314a:	0020      	movs	r0, r4
    314c:	4b0c      	ldr	r3, [pc, #48]	; (3180 <SYSTIMER_Init+0x3c>)
    314e:	4798      	blx	r3
    3150:	2301      	movs	r3, #1
    3152:	2200      	movs	r2, #0
    3154:	2501      	movs	r5, #1
    3156:	4e0b      	ldr	r6, [pc, #44]	; (3184 <SYSTIMER_Init+0x40>)
    3158:	425b      	negs	r3, r3
    315a:	9304      	str	r3, [sp, #16]
    315c:	3305      	adds	r3, #5
    315e:	7522      	strb	r2, [r4, #20]
    3160:	0021      	movs	r1, r4
    3162:	0030      	movs	r0, r6
    3164:	9306      	str	r3, [sp, #24]
    3166:	9200      	str	r2, [sp, #0]
    3168:	0013      	movs	r3, r2
    316a:	4c07      	ldr	r4, [pc, #28]	; (3188 <SYSTIMER_Init+0x44>)
    316c:	9203      	str	r2, [sp, #12]
    316e:	9505      	str	r5, [sp, #20]
    3170:	9507      	str	r5, [sp, #28]
    3172:	47a0      	blx	r4
    3174:	0029      	movs	r1, r5
    3176:	0030      	movs	r0, r6
    3178:	4b04      	ldr	r3, [pc, #16]	; (318c <SYSTIMER_Init+0x48>)
    317a:	4798      	blx	r3
    317c:	b00a      	add	sp, #40	; 0x28
    317e:	bd70      	pop	{r4, r5, r6, pc}
    3180:	000031f9 	.word	0x000031f9
    3184:	41017000 	.word	0x41017000
    3188:	0000329b 	.word	0x0000329b
    318c:	00003211 	.word	0x00003211

00003190 <SYSTIMER_TickGet>:
    3190:	b510      	push	{r4, lr}
    3192:	4802      	ldr	r0, [pc, #8]	; (319c <SYSTIMER_TickGet+0xc>)
    3194:	4b02      	ldr	r3, [pc, #8]	; (31a0 <SYSTIMER_TickGet+0x10>)
    3196:	4798      	blx	r3
    3198:	bd10      	pop	{r4, pc}
    319a:	bf00      	nop
    319c:	41017000 	.word	0x41017000
    31a0:	00003239 	.word	0x00003239

000031a4 <SYSTIMER_GetPassTick>:
    31a4:	b510      	push	{r4, lr}
    31a6:	4b05      	ldr	r3, [pc, #20]	; (31bc <SYSTIMER_GetPassTick+0x18>)
    31a8:	0004      	movs	r4, r0
    31aa:	4805      	ldr	r0, [pc, #20]	; (31c0 <SYSTIMER_GetPassTick+0x1c>)
    31ac:	4798      	blx	r3
    31ae:	42a0      	cmp	r0, r4
    31b0:	d301      	bcc.n	31b6 <SYSTIMER_GetPassTick+0x12>
    31b2:	1b00      	subs	r0, r0, r4
    31b4:	bd10      	pop	{r4, pc}
    31b6:	1a20      	subs	r0, r4, r0
    31b8:	43c0      	mvns	r0, r0
    31ba:	e7fb      	b.n	31b4 <SYSTIMER_GetPassTick+0x10>
    31bc:	00003239 	.word	0x00003239
    31c0:	41017000 	.word	0x41017000

000031c4 <SYSTIMER_GetPassTime>:
    31c4:	b510      	push	{r4, lr}
    31c6:	4b0a      	ldr	r3, [pc, #40]	; (31f0 <SYSTIMER_GetPassTime+0x2c>)
    31c8:	0004      	movs	r4, r0
    31ca:	480a      	ldr	r0, [pc, #40]	; (31f4 <SYSTIMER_GetPassTime+0x30>)
    31cc:	4798      	blx	r3
    31ce:	42a0      	cmp	r0, r4
    31d0:	d30a      	bcc.n	31e8 <SYSTIMER_GetPassTime+0x24>
    31d2:	1b04      	subs	r4, r0, r4
    31d4:	f240 33e8 	movw	r3, #1000	; 0x3e8
    31d8:	0be2      	lsrs	r2, r4, #15
    31da:	0464      	lsls	r4, r4, #17
    31dc:	0c64      	lsrs	r4, r4, #17
    31de:	435c      	muls	r4, r3
    31e0:	435a      	muls	r2, r3
    31e2:	0be0      	lsrs	r0, r4, #15
    31e4:	1810      	adds	r0, r2, r0
    31e6:	bd10      	pop	{r4, pc}
    31e8:	1a24      	subs	r4, r4, r0
    31ea:	43e4      	mvns	r4, r4
    31ec:	e7f2      	b.n	31d4 <SYSTIMER_GetPassTime+0x10>
    31ee:	bf00      	nop
    31f0:	00003239 	.word	0x00003239
    31f4:	41017000 	.word	0x41017000

000031f8 <RTIM_TimeBaseStructInit>:
    31f8:	f64f 72ff 	movw	r2, #65535	; 0xffff
    31fc:	2300      	movs	r3, #0
    31fe:	2104      	movs	r1, #4
    3200:	6042      	str	r2, [r0, #4]
    3202:	2201      	movs	r2, #1
    3204:	6003      	str	r3, [r0, #0]
    3206:	6082      	str	r2, [r0, #8]
    3208:	60c1      	str	r1, [r0, #12]
    320a:	6102      	str	r2, [r0, #16]
    320c:	6183      	str	r3, [r0, #24]
    320e:	4770      	bx	lr

00003210 <RTIM_Cmd>:
    3210:	f240 1300 	movw	r3, #256	; 0x100
    3214:	6802      	ldr	r2, [r0, #0]
    3216:	b139      	cbz	r1, 3228 <RTIM_Cmd+0x18>
    3218:	421a      	tst	r2, r3
    321a:	d101      	bne.n	3220 <RTIM_Cmd+0x10>
    321c:	2201      	movs	r2, #1
    321e:	6002      	str	r2, [r0, #0]
    3220:	6802      	ldr	r2, [r0, #0]
    3222:	421a      	tst	r2, r3
    3224:	d0fc      	beq.n	3220 <RTIM_Cmd+0x10>
    3226:	4770      	bx	lr
    3228:	421a      	tst	r2, r3
    322a:	d001      	beq.n	3230 <RTIM_Cmd+0x20>
    322c:	2202      	movs	r2, #2
    322e:	6002      	str	r2, [r0, #0]
    3230:	6802      	ldr	r2, [r0, #0]
    3232:	421a      	tst	r2, r3
    3234:	d1fc      	bne.n	3230 <RTIM_Cmd+0x20>
    3236:	e7f6      	b.n	3226 <RTIM_Cmd+0x16>

00003238 <RTIM_GetCount>:
    3238:	0003      	movs	r3, r0
    323a:	6942      	ldr	r2, [r0, #20]
    323c:	6940      	ldr	r0, [r0, #20]
    323e:	4282      	cmp	r2, r0
    3240:	d000      	beq.n	3244 <RTIM_GetCount+0xc>
    3242:	6958      	ldr	r0, [r3, #20]
    3244:	4770      	bx	lr

00003246 <RTIM_INTConfig>:
    3246:	4b0c      	ldr	r3, [pc, #48]	; (3278 <RTIM_INTConfig+0x32>)
    3248:	b570      	push	{r4, r5, r6, lr}
    324a:	0004      	movs	r4, r0
    324c:	000d      	movs	r5, r1
    324e:	0016      	movs	r6, r2
    3250:	4219      	tst	r1, r3
    3252:	d102      	bne.n	325a <RTIM_INTConfig+0x14>
    3254:	4b09      	ldr	r3, [pc, #36]	; (327c <RTIM_INTConfig+0x36>)
    3256:	4219      	tst	r1, r3
    3258:	d104      	bne.n	3264 <RTIM_INTConfig+0x1e>
    325a:	f240 110b 	movw	r1, #267	; 0x10b
    325e:	4808      	ldr	r0, [pc, #32]	; (3280 <RTIM_INTConfig+0x3a>)
    3260:	f7fc ff58 	bl	114 <io_assert_failed>
    3264:	b11e      	cbz	r6, 326e <RTIM_INTConfig+0x28>
    3266:	68a1      	ldr	r1, [r4, #8]
    3268:	430d      	orrs	r5, r1
    326a:	60a5      	str	r5, [r4, #8]
    326c:	bd70      	pop	{r4, r5, r6, pc}
    326e:	68a3      	ldr	r3, [r4, #8]
    3270:	43ab      	bics	r3, r5
    3272:	60a3      	str	r3, [r4, #8]
    3274:	e7fa      	b.n	326c <RTIM_INTConfig+0x26>
    3276:	bf00      	nop
    3278:	ff00fe00 	.word	0xff00fe00
    327c:	00ff01ff 	.word	0x00ff01ff
    3280:	0000a774 	.word	0x0000a774

00003284 <RTIM_INTClear>:
    3284:	f240 122c 	movw	r2, #300	; 0x12c
    3288:	68c3      	ldr	r3, [r0, #12]
    328a:	60c3      	str	r3, [r0, #12]
    328c:	3a01      	subs	r2, #1
    328e:	b11a      	cbz	r2, 3298 <RTIM_INTClear+0x14>
    3290:	68c3      	ldr	r3, [r0, #12]
    3292:	021b      	lsls	r3, r3, #8
    3294:	2b00      	cmp	r3, #0
    3296:	d1f9      	bne.n	328c <RTIM_INTClear+0x8>
    3298:	4770      	bx	lr

0000329a <RTIM_TimeBaseInit>:
    329a:	b5f8      	push	{r3, r4, r5, r6, r7, lr}
    329c:	001f      	movs	r7, r3
    329e:	2304      	movs	r3, #4
    32a0:	0016      	movs	r6, r2
    32a2:	68ca      	ldr	r2, [r1, #12]
    32a4:	0004      	movs	r4, r0
    32a6:	439a      	bics	r2, r3
    32a8:	000d      	movs	r5, r1
    32aa:	b122      	cbz	r2, 32b6 <RTIM_TimeBaseInit+0x1c>
    32ac:	4833      	ldr	r0, [pc, #204]	; (337c <RTIM_TimeBaseInit+0xe2>)
    32ae:	2141      	movs	r1, #65	; 0x41
    32b0:	300f      	adds	r0, #15
    32b2:	f7fc ff2f 	bl	114 <io_assert_failed>
    32b6:	f64f 73ff 	movw	r3, #65535	; 0xffff
    32ba:	682a      	ldr	r2, [r5, #0]
    32bc:	429a      	cmp	r2, r3
    32be:	d904      	bls.n	32ca <RTIM_TimeBaseInit+0x30>
    32c0:	482e      	ldr	r0, [pc, #184]	; (337c <RTIM_TimeBaseInit+0xe2>)
    32c2:	2142      	movs	r1, #66	; 0x42
    32c4:	300f      	adds	r0, #15
    32c6:	f7fc ff25 	bl	114 <io_assert_failed>
    32ca:	69ab      	ldr	r3, [r5, #24]
    32cc:	b11b      	cbz	r3, 32d6 <RTIM_TimeBaseInit+0x3c>
    32ce:	2301      	movs	r3, #1
    32d0:	6a22      	ldr	r2, [r4, #32]
    32d2:	4313      	orrs	r3, r2
    32d4:	6223      	str	r3, [r4, #32]
    32d6:	2100      	movs	r1, #0
    32d8:	0020      	movs	r0, r4
    32da:	4b29      	ldr	r3, [pc, #164]	; (3380 <RTIM_TimeBaseInit+0xe6>)
    32dc:	4798      	blx	r3
    32de:	2300      	movs	r3, #0
    32e0:	0020      	movs	r0, r4
    32e2:	60a3      	str	r3, [r4, #8]
    32e4:	4b27      	ldr	r3, [pc, #156]	; (3384 <RTIM_TimeBaseInit+0xea>)
    32e6:	4798      	blx	r3
    32e8:	4a27      	ldr	r2, [pc, #156]	; (3388 <RTIM_TimeBaseInit+0xee>)
    32ea:	686b      	ldr	r3, [r5, #4]
    32ec:	4294      	cmp	r4, r2
    32ee:	d008      	beq.n	3302 <RTIM_TimeBaseInit+0x68>
    32f0:	4926      	ldr	r1, [pc, #152]	; (338c <RTIM_TimeBaseInit+0xf2>)
    32f2:	428c      	cmp	r4, r1
    32f4:	d005      	beq.n	3302 <RTIM_TimeBaseInit+0x68>
    32f6:	4926      	ldr	r1, [pc, #152]	; (3390 <RTIM_TimeBaseInit+0xf6>)
    32f8:	428c      	cmp	r4, r1
    32fa:	d002      	beq.n	3302 <RTIM_TimeBaseInit+0x68>
    32fc:	4925      	ldr	r1, [pc, #148]	; (3394 <RTIM_TimeBaseInit+0xfa>)
    32fe:	428c      	cmp	r4, r1
    3300:	d12b      	bne.n	335a <RTIM_TimeBaseInit+0xc0>
    3302:	b29b      	uxth	r3, r3
    3304:	61e3      	str	r3, [r4, #28]
    3306:	4294      	cmp	r4, r2
    3308:	d12a      	bne.n	3360 <RTIM_TimeBaseInit+0xc6>
    330a:	682b      	ldr	r3, [r5, #0]
    330c:	61a3      	str	r3, [r4, #24]
    330e:	6862      	ldr	r2, [r4, #4]
    3310:	2110      	movs	r1, #16
    3312:	0013      	movs	r3, r2
    3314:	6928      	ldr	r0, [r5, #16]
    3316:	438b      	bics	r3, r1
    3318:	b108      	cbz	r0, 331e <RTIM_TimeBaseInit+0x84>
    331a:	000b      	movs	r3, r1
    331c:	4313      	orrs	r3, r2
    331e:	68ea      	ldr	r2, [r5, #12]
    3320:	2a04      	cmp	r2, #4
    3322:	d127      	bne.n	3374 <RTIM_TimeBaseInit+0xda>
    3324:	4313      	orrs	r3, r2
    3326:	2102      	movs	r1, #2
    3328:	001a      	movs	r2, r3
    332a:	68a8      	ldr	r0, [r5, #8]
    332c:	438a      	bics	r2, r1
    332e:	b908      	cbnz	r0, 3334 <RTIM_TimeBaseInit+0x9a>
    3330:	000a      	movs	r2, r1
    3332:	431a      	orrs	r2, r3
    3334:	6062      	str	r2, [r4, #4]
    3336:	b147      	cbz	r7, 334a <RTIM_TimeBaseInit+0xb0>
    3338:	2302      	movs	r3, #2
    333a:	0031      	movs	r1, r6
    333c:	0038      	movs	r0, r7
    333e:	9a06      	ldr	r2, [sp, #24]
    3340:	4d15      	ldr	r5, [pc, #84]	; (3398 <RTIM_TimeBaseInit+0xfe>)
    3342:	47a8      	blx	r5
    3344:	0030      	movs	r0, r6
    3346:	4b15      	ldr	r3, [pc, #84]	; (339c <RTIM_TimeBaseInit+0x102>)
    3348:	4798      	blx	r3
    334a:	2301      	movs	r3, #1
    334c:	6123      	str	r3, [r4, #16]
    334e:	68e3      	ldr	r3, [r4, #12]
    3350:	2b00      	cmp	r3, #0
    3352:	dafc      	bge.n	334e <RTIM_TimeBaseInit+0xb4>
    3354:	68e3      	ldr	r3, [r4, #12]
    3356:	60e3      	str	r3, [r4, #12]
    3358:	bdf8      	pop	{r3, r4, r5, r6, r7, pc}
    335a:	61e3      	str	r3, [r4, #28]
    335c:	2300      	movs	r3, #0
    335e:	e7d5      	b.n	330c <RTIM_TimeBaseInit+0x72>
    3360:	4b0a      	ldr	r3, [pc, #40]	; (338c <RTIM_TimeBaseInit+0xf2>)
    3362:	429c      	cmp	r4, r3
    3364:	d0d1      	beq.n	330a <RTIM_TimeBaseInit+0x70>
    3366:	4b0a      	ldr	r3, [pc, #40]	; (3390 <RTIM_TimeBaseInit+0xf6>)
    3368:	429c      	cmp	r4, r3
    336a:	d0ce      	beq.n	330a <RTIM_TimeBaseInit+0x70>
    336c:	4b09      	ldr	r3, [pc, #36]	; (3394 <RTIM_TimeBaseInit+0xfa>)
    336e:	429c      	cmp	r4, r3
    3370:	d0cb      	beq.n	330a <RTIM_TimeBaseInit+0x70>
    3372:	e7f3      	b.n	335c <RTIM_TimeBaseInit+0xc2>
    3374:	2204      	movs	r2, #4
    3376:	4393      	bics	r3, r2
    3378:	e7d5      	b.n	3326 <RTIM_TimeBaseInit+0x8c>
    337a:	bf00      	nop
    337c:	0000a774 	.word	0x0000a774
    3380:	00003211 	.word	0x00003211
    3384:	00003285 	.word	0x00003285
    3388:	41100000 	.word	0x41100000
    338c:	41100200 	.word	0x41100200
    3390:	51100000 	.word	0x51100000
    3394:	51100200 	.word	0x51100200
    3398:	0000421d 	.word	0x0000421d
    339c:	000040c1 	.word	0x000040c1

000033a0 <RTIM_DeInit>:
    33a0:	b510      	push	{r4, lr}
    33a2:	0004      	movs	r4, r0
    33a4:	2100      	movs	r1, #0
    33a6:	4b04      	ldr	r3, [pc, #16]	; (33b8 <RTIM_DeInit+0x18>)
    33a8:	4798      	blx	r3
    33aa:	0020      	movs	r0, r4
    33ac:	4b03      	ldr	r3, [pc, #12]	; (33bc <RTIM_DeInit+0x1c>)
    33ae:	4798      	blx	r3
    33b0:	2300      	movs	r3, #0
    33b2:	60a3      	str	r3, [r4, #8]
    33b4:	bd10      	pop	{r4, pc}
    33b6:	bf00      	nop
    33b8:	00003211 	.word	0x00003211
    33bc:	00003285 	.word	0x00003285

000033c0 <RTIM_INTClearPendingBit>:
    33c0:	4b0b      	ldr	r3, [pc, #44]	; (33f0 <RTIM_INTClearPendingBit+0x30>)
    33c2:	b570      	push	{r4, r5, r6, lr}
    33c4:	0005      	movs	r5, r0
    33c6:	000c      	movs	r4, r1
    33c8:	4219      	tst	r1, r3
    33ca:	d102      	bne.n	33d2 <RTIM_INTClearPendingBit+0x12>
    33cc:	4b09      	ldr	r3, [pc, #36]	; (33f4 <RTIM_INTClearPendingBit+0x34>)
    33ce:	4219      	tst	r1, r3
    33d0:	d105      	bne.n	33de <RTIM_INTClearPendingBit+0x1e>
    33d2:	4809      	ldr	r0, [pc, #36]	; (33f8 <RTIM_INTClearPendingBit+0x38>)
    33d4:	f240 1153 	movw	r1, #339	; 0x153
    33d8:	3021      	adds	r0, #33	; 0x21
    33da:	f7fc fe9b 	bl	114 <io_assert_failed>
    33de:	f240 132c 	movw	r3, #300	; 0x12c
    33e2:	60ec      	str	r4, [r5, #12]
    33e4:	3b01      	subs	r3, #1
    33e6:	b113      	cbz	r3, 33ee <RTIM_INTClearPendingBit+0x2e>
    33e8:	68ea      	ldr	r2, [r5, #12]
    33ea:	4214      	tst	r4, r2
    33ec:	d1fa      	bne.n	33e4 <RTIM_INTClearPendingBit+0x24>
    33ee:	bd70      	pop	{r4, r5, r6, pc}
    33f0:	ff00fe00 	.word	0xff00fe00
    33f4:	00ff01ff 	.word	0x00ff01ff
    33f8:	0000a774 	.word	0x0000a774

000033fc <RTIM_GetFlagStatus>:
    33fc:	1e4b      	subs	r3, r1, #1
    33fe:	b570      	push	{r4, r5, r6, lr}
    3400:	0005      	movs	r5, r0
    3402:	000c      	movs	r4, r1
    3404:	2b01      	cmp	r3, #1
    3406:	d92b      	bls.n	3460 <RTIM_GetFlagStatus+0x64>
    3408:	2204      	movs	r2, #4
    340a:	1f0b      	subs	r3, r1, #4
    340c:	4393      	bics	r3, r2
    340e:	b33b      	cbz	r3, 3460 <RTIM_GetFlagStatus+0x64>
    3410:	000b      	movs	r3, r1
    3412:	320c      	adds	r2, #12
    3414:	3b10      	subs	r3, #16
    3416:	4393      	bics	r3, r2
    3418:	b313      	cbz	r3, 3460 <RTIM_GetFlagStatus+0x64>
    341a:	000b      	movs	r3, r1
    341c:	3230      	adds	r2, #48	; 0x30
    341e:	3b40      	subs	r3, #64	; 0x40
    3420:	4393      	bics	r3, r2
    3422:	b1eb      	cbz	r3, 3460 <RTIM_GetFlagStatus+0x64>
    3424:	f240 1300 	movw	r3, #256	; 0x100
    3428:	4299      	cmp	r1, r3
    342a:	d019      	beq.n	3460 <RTIM_GetFlagStatus+0x64>
    342c:	4b0f      	ldr	r3, [pc, #60]	; (346c <RTIM_GetFlagStatus+0x70>)
    342e:	4a10      	ldr	r2, [pc, #64]	; (3470 <RTIM_GetFlagStatus+0x74>)
    3430:	18cb      	adds	r3, r1, r3
    3432:	4213      	tst	r3, r2
    3434:	d014      	beq.n	3460 <RTIM_GetFlagStatus+0x64>
    3436:	4b0f      	ldr	r3, [pc, #60]	; (3474 <RTIM_GetFlagStatus+0x78>)
    3438:	4a0f      	ldr	r2, [pc, #60]	; (3478 <RTIM_GetFlagStatus+0x7c>)
    343a:	18cb      	adds	r3, r1, r3
    343c:	4213      	tst	r3, r2
    343e:	d00f      	beq.n	3460 <RTIM_GetFlagStatus+0x64>
    3440:	4b0e      	ldr	r3, [pc, #56]	; (347c <RTIM_GetFlagStatus+0x80>)
    3442:	4a0f      	ldr	r2, [pc, #60]	; (3480 <RTIM_GetFlagStatus+0x84>)
    3444:	18cb      	adds	r3, r1, r3
    3446:	4213      	tst	r3, r2
    3448:	d00a      	beq.n	3460 <RTIM_GetFlagStatus+0x64>
    344a:	4b0e      	ldr	r3, [pc, #56]	; (3484 <RTIM_GetFlagStatus+0x88>)
    344c:	4a0e      	ldr	r2, [pc, #56]	; (3488 <RTIM_GetFlagStatus+0x8c>)
    344e:	18cb      	adds	r3, r1, r3
    3450:	4213      	tst	r3, r2
    3452:	d005      	beq.n	3460 <RTIM_GetFlagStatus+0x64>
    3454:	480d      	ldr	r0, [pc, #52]	; (348c <RTIM_GetFlagStatus+0x90>)
    3456:	f240 1188 	movw	r1, #392	; 0x188
    345a:	3039      	adds	r0, #57	; 0x39
    345c:	f7fc fe5a 	bl	114 <io_assert_failed>
    3460:	68e8      	ldr	r0, [r5, #12]
    3462:	4020      	ands	r0, r4
    3464:	1e43      	subs	r3, r0, #1
    3466:	4198      	sbcs	r0, r3
    3468:	bd70      	pop	{r4, r5, r6, pc}
    346a:	bf00      	nop
    346c:	ffff0000 	.word	0xffff0000
    3470:	fffeffff 	.word	0xfffeffff
    3474:	fffc0000 	.word	0xfffc0000
    3478:	fffbffff 	.word	0xfffbffff
    347c:	fff00000 	.word	0xfff00000
    3480:	ffefffff 	.word	0xffefffff
    3484:	ffc00000 	.word	0xffc00000
