
D:/0code/v03slave/1202/project/realtek_amebaD2_va0_example/GCC-RELEASE/project_lp/asdk/image/target_rom.axf:     file format elf32-littlearm


Disassembly of section .rom.text:

00000000 <__vectors_table>:
       0:	2301fffc 	.word	0x2301fffc
       4:	00000101 	.word	0x00000101
       8:	00000105 	.word	0x00000105
       c:	00000109 	.word	0x00000109
      10:	0000010d 	.word	0x0000010d
      14:	00000111 	.word	0x00000111
	...

00000100 <Reset_Handler>:
     100:	f003 b9f8 	b.w	34f4 <BOOT_ROM_ResetVsr>

00000104 <NMI_Handler>:
     104:	f003 bb90 	b.w	3828 <INT_NMI>

00000108 <HardFault_Handler>:
     108:	f003 bb9c 	b.w	3844 <INT_HardFault>

0000010c <MemManage_Handler>:
     10c:	f003 bba6 	b.w	385c <INT_MemManage>

00000110 <BusFault_Handler>:
     110:	f003 bbb2 	b.w	3878 <INT_BusFault>

00000114 <io_assert_failed>:
     114:	4b05      	ldr	r3, [pc, #20]	; (12c <io_assert_failed+0x18>)
     116:	000a      	movs	r2, r1
     118:	681b      	ldr	r3, [r3, #0]
     11a:	b510      	push	{r4, lr}
     11c:	039b      	lsls	r3, r3, #14
     11e:	d503      	bpl.n	128 <io_assert_failed+0x14>
     120:	0001      	movs	r1, r0
     122:	4803      	ldr	r0, [pc, #12]	; (130 <io_assert_failed+0x1c>)
     124:	f003 ff28 	bl	3f78 <DiagPrintf>
     128:	e7fe      	b.n	128 <io_assert_failed+0x14>
     12a:	46c0      	nop			; (mov r8, r8)
     12c:	230005d8 	.word	0x230005d8
     130:	0000c0d0 	.word	0x0000c0d0

00000134 <BKUP_Write>:
     134:	b570      	push	{r4, r5, r6, lr}
     136:	0004      	movs	r4, r0
     138:	000d      	movs	r5, r1
     13a:	2803      	cmp	r0, #3
     13c:	d903      	bls.n	146 <BKUP_Write+0x12>
     13e:	211f      	movs	r1, #31
     140:	4803      	ldr	r0, [pc, #12]	; (150 <BKUP_Write+0x1c>)
     142:	f7ff ffe7 	bl	114 <io_assert_failed>
     146:	4b03      	ldr	r3, [pc, #12]	; (154 <BKUP_Write+0x20>)
     148:	00a4      	lsls	r4, r4, #2
     14a:	50e5      	str	r5, [r4, r3]
     14c:	bd70      	pop	{r4, r5, r6, pc}
     14e:	46c0      	nop			; (mov r8, r8)
     150:	0000c37a 	.word	0x0000c37a
     154:	420080e0 	.word	0x420080e0

00000158 <BKUP_Read>:
     158:	b510      	push	{r4, lr}
     15a:	0004      	movs	r4, r0
     15c:	2803      	cmp	r0, #3
     15e:	d903      	bls.n	168 <BKUP_Read+0x10>
     160:	212e      	movs	r1, #46	; 0x2e
     162:	4803      	ldr	r0, [pc, #12]	; (170 <BKUP_Read+0x18>)
     164:	f7ff ffd6 	bl	114 <io_assert_failed>
     168:	4b02      	ldr	r3, [pc, #8]	; (174 <BKUP_Read+0x1c>)
     16a:	00a4      	lsls	r4, r4, #2
     16c:	58e0      	ldr	r0, [r4, r3]
     16e:	bd10      	pop	{r4, pc}
     170:	0000c370 	.word	0x0000c370
     174:	420080e0 	.word	0x420080e0

00000178 <BKUP_Set>:
     178:	b570      	push	{r4, r5, r6, lr}
     17a:	0004      	movs	r4, r0
     17c:	000d      	movs	r5, r1
     17e:	2803      	cmp	r0, #3
     180:	d903      	bls.n	18a <BKUP_Set+0x12>
     182:	213e      	movs	r1, #62	; 0x3e
     184:	4804      	ldr	r0, [pc, #16]	; (198 <BKUP_Set+0x20>)
     186:	f7ff ffc5 	bl	114 <io_assert_failed>
     18a:	4b04      	ldr	r3, [pc, #16]	; (19c <BKUP_Set+0x24>)
     18c:	00a4      	lsls	r4, r4, #2
     18e:	18e4      	adds	r4, r4, r3
     190:	6821      	ldr	r1, [r4, #0]
     192:	4329      	orrs	r1, r5
     194:	6021      	str	r1, [r4, #0]
     196:	bd70      	pop	{r4, r5, r6, pc}
     198:	0000c367 	.word	0x0000c367
     19c:	420080e0 	.word	0x420080e0

000001a0 <BKUP_Clear>:
     1a0:	b570      	push	{r4, r5, r6, lr}
     1a2:	0004      	movs	r4, r0
     1a4:	000d      	movs	r5, r1
     1a6:	2803      	cmp	r0, #3
     1a8:	d903      	bls.n	1b2 <BKUP_Clear+0x12>
     1aa:	214e      	movs	r1, #78	; 0x4e
     1ac:	4804      	ldr	r0, [pc, #16]	; (1c0 <BKUP_Clear+0x20>)
     1ae:	f7ff ffb1 	bl	114 <io_assert_failed>
     1b2:	4b04      	ldr	r3, [pc, #16]	; (1c4 <BKUP_Clear+0x24>)
     1b4:	00a4      	lsls	r4, r4, #2
     1b6:	18e4      	adds	r4, r4, r3
     1b8:	6823      	ldr	r3, [r4, #0]
     1ba:	43ab      	bics	r3, r5
     1bc:	6023      	str	r3, [r4, #0]
     1be:	bd70      	pop	{r4, r5, r6, pc}
     1c0:	0000c35c 	.word	0x0000c35c
     1c4:	420080e0 	.word	0x420080e0

000001c8 <XTAL_ClkGet>:
     1c8:	4b03      	ldr	r3, [pc, #12]	; (1d8 <XTAL_ClkGet+0x10>)
     1ca:	4a04      	ldr	r2, [pc, #16]	; (1dc <XTAL_ClkGet+0x14>)
     1cc:	681b      	ldr	r3, [r3, #0]
     1ce:	021b      	lsls	r3, r3, #8
     1d0:	0f1b      	lsrs	r3, r3, #28
     1d2:	009b      	lsls	r3, r3, #2
     1d4:	5898      	ldr	r0, [r3, r2]
     1d6:	4770      	bx	lr
     1d8:	42008224 	.word	0x42008224
     1dc:	0000c000 	.word	0x0000c000

000001e0 <CPU_ClkSet>:
     1e0:	b530      	push	{r4, r5, lr}
     1e2:	4b14      	ldr	r3, [pc, #80]	; (234 <CPU_ClkSet+0x54>)
     1e4:	4c14      	ldr	r4, [pc, #80]	; (238 <CPU_ClkSet+0x58>)
     1e6:	6822      	ldr	r2, [r4, #0]
     1e8:	6819      	ldr	r1, [r3, #0]
     1ea:	2303      	movs	r3, #3
     1ec:	0989      	lsrs	r1, r1, #6
     1ee:	000d      	movs	r5, r1
     1f0:	401d      	ands	r5, r3
     1f2:	4219      	tst	r1, r3
     1f4:	d10a      	bne.n	20c <CPU_ClkSet+0x2c>
     1f6:	439a      	bics	r2, r3
     1f8:	4003      	ands	r3, r0
     1fa:	4313      	orrs	r3, r2
     1fc:	b120      	cbz	r0, 208 <CPU_ClkSet+0x28>
     1fe:	4a0f      	ldr	r2, [pc, #60]	; (23c <CPU_ClkSet+0x5c>)
     200:	0900      	lsrs	r0, r0, #4
     202:	4013      	ands	r3, r2
     204:	0500      	lsls	r0, r0, #20
     206:	4303      	orrs	r3, r0
     208:	6023      	str	r3, [r4, #0]
     20a:	bd30      	pop	{r4, r5, pc}
     20c:	2d01      	cmp	r5, #1
     20e:	d1fc      	bne.n	20a <CPU_ClkSet+0x2a>
     210:	b960      	cbnz	r0, 22c <CPU_ClkSet+0x4c>
     212:	4b0b      	ldr	r3, [pc, #44]	; (240 <CPU_ClkSet+0x60>)
     214:	401a      	ands	r2, r3
     216:	6022      	str	r2, [r4, #0]
     218:	2800      	cmp	r0, #0
     21a:	d0f6      	beq.n	20a <CPU_ClkSet+0x2a>
     21c:	2107      	movs	r1, #7
     21e:	4a09      	ldr	r2, [pc, #36]	; (244 <CPU_ClkSet+0x64>)
     220:	4008      	ands	r0, r1
     222:	6813      	ldr	r3, [r2, #0]
     224:	438b      	bics	r3, r1
     226:	4318      	orrs	r0, r3
     228:	6010      	str	r0, [r2, #0]
     22a:	e7ee      	b.n	20a <CPU_ClkSet+0x2a>
     22c:	f240 1300 	movw	r3, #256	; 0x100
     230:	431a      	orrs	r2, r3
     232:	e7f0      	b.n	216 <CPU_ClkSet+0x36>
     234:	4200827c 	.word	0x4200827c
     238:	42008224 	.word	0x42008224
     23c:	ff0fffff 	.word	0xff0fffff
     240:	fffffeff 	.word	0xfffffeff
     244:	42008228 	.word	0x42008228

00000248 <CPU_ClkGet>:
     248:	4b19      	ldr	r3, [pc, #100]	; (2b0 <CPU_ClkGet+0x68>)
     24a:	b570      	push	{r4, r5, r6, lr}
     24c:	681d      	ldr	r5, [r3, #0]
     24e:	4b19      	ldr	r3, [pc, #100]	; (2b4 <CPU_ClkGet+0x6c>)
     250:	681c      	ldr	r4, [r3, #0]
     252:	4b19      	ldr	r3, [pc, #100]	; (2b8 <CPU_ClkGet+0x70>)
     254:	4798      	blx	r3
     256:	0624      	lsls	r4, r4, #24
     258:	0fa4      	lsrs	r4, r4, #30
     25a:	0003      	movs	r3, r0
     25c:	b934      	cbnz	r4, 26c <CPU_ClkGet+0x24>
     25e:	2801      	cmp	r0, #1
     260:	d01f      	beq.n	2a2 <CPU_ClkGet+0x5a>
     262:	07ab      	lsls	r3, r5, #30
     264:	d51f      	bpl.n	2a6 <CPU_ClkGet+0x5e>
     266:	4b15      	ldr	r3, [pc, #84]	; (2bc <CPU_ClkGet+0x74>)
     268:	4798      	blx	r3
     26a:	bd70      	pop	{r4, r5, r6, pc}
     26c:	2000      	movs	r0, #0
     26e:	2c01      	cmp	r4, #1
     270:	d1fb      	bne.n	26a <CPU_ClkGet+0x22>
     272:	2b01      	cmp	r3, #1
     274:	d107      	bne.n	286 <CPU_ClkGet+0x3e>
     276:	4b12      	ldr	r3, [pc, #72]	; (2c0 <CPU_ClkGet+0x78>)
     278:	6818      	ldr	r0, [r3, #0]
     27a:	0c00      	lsrs	r0, r0, #16
     27c:	b2c3      	uxtb	r3, r0
     27e:	b1a3      	cbz	r3, 2aa <CPU_ClkGet+0x62>
     280:	4810      	ldr	r0, [pc, #64]	; (2c4 <CPU_ClkGet+0x7c>)
     282:	4358      	muls	r0, r3
     284:	e7f1      	b.n	26a <CPU_ClkGet+0x22>
     286:	0a2d      	lsrs	r5, r5, #8
     288:	002b      	movs	r3, r5
     28a:	4023      	ands	r3, r4
     28c:	4225      	tst	r5, r4
     28e:	d003      	beq.n	298 <CPU_ClkGet+0x50>
     290:	2207      	movs	r2, #7
     292:	4b0d      	ldr	r3, [pc, #52]	; (2c8 <CPU_ClkGet+0x80>)
     294:	681b      	ldr	r3, [r3, #0]
     296:	4013      	ands	r3, r2
     298:	4a0c      	ldr	r2, [pc, #48]	; (2cc <CPU_ClkGet+0x84>)
     29a:	009b      	lsls	r3, r3, #2
     29c:	189b      	adds	r3, r3, r2
     29e:	6c18      	ldr	r0, [r3, #64]	; 0x40
     2a0:	e7e3      	b.n	26a <CPU_ClkGet+0x22>
     2a2:	480b      	ldr	r0, [pc, #44]	; (2d0 <CPU_ClkGet+0x88>)
     2a4:	e7e1      	b.n	26a <CPU_ClkGet+0x22>
     2a6:	480b      	ldr	r0, [pc, #44]	; (2d4 <CPU_ClkGet+0x8c>)
     2a8:	e7df      	b.n	26a <CPU_ClkGet+0x22>
     2aa:	480b      	ldr	r0, [pc, #44]	; (2d8 <CPU_ClkGet+0x90>)
     2ac:	e7dd      	b.n	26a <CPU_ClkGet+0x22>
     2ae:	46c0      	nop			; (mov r8, r8)
     2b0:	42008224 	.word	0x42008224
     2b4:	4200827c 	.word	0x4200827c
     2b8:	00001dbd 	.word	0x00001dbd
     2bc:	000001c9 	.word	0x000001c9
     2c0:	4200826c 	.word	0x4200826c
     2c4:	000f4240 	.word	0x000f4240
     2c8:	42008228 	.word	0x42008228
     2cc:	0000c000 	.word	0x0000c000
     2d0:	01312d00 	.word	0x01312d00
     2d4:	003d0900 	.word	0x003d0900
     2d8:	02faf080 	.word	0x02faf080

000002dc <HBUS_ClkSet>:
     2dc:	4a05      	ldr	r2, [pc, #20]	; (2f4 <HBUS_ClkSet+0x18>)
     2de:	4906      	ldr	r1, [pc, #24]	; (2f8 <HBUS_ClkSet+0x1c>)
     2e0:	6813      	ldr	r3, [r2, #0]
     2e2:	0280      	lsls	r0, r0, #10
     2e4:	400b      	ands	r3, r1
     2e6:	f240 4100 	movw	r1, #1024	; 0x400
     2ea:	4008      	ands	r0, r1
     2ec:	4318      	orrs	r0, r3
     2ee:	6010      	str	r0, [r2, #0]
     2f0:	4770      	bx	lr
     2f2:	46c0      	nop			; (mov r8, r8)
     2f4:	42008224 	.word	0x42008224
     2f8:	fffffbff 	.word	0xfffffbff
     2fc:	00000000 	.word	0x00000000

00000300 <DelayNop>:
     300:	3801      	subs	r0, #1
     302:	2800      	cmp	r0, #0
     304:	46c0      	nop			; (mov r8, r8)
     306:	d1fb      	bne.n	300 <DelayNop>
     308:	4770      	bx	lr

0000030a <DelayUs>:
     30a:	b51f      	push	{r0, r1, r2, r3, r4, lr}
     30c:	4b17      	ldr	r3, [pc, #92]	; (36c <DelayUs+0x62>)
     30e:	0004      	movs	r4, r0
     310:	4798      	blx	r3
     312:	4a17      	ldr	r2, [pc, #92]	; (370 <DelayUs+0x66>)
     314:	4b17      	ldr	r3, [pc, #92]	; (374 <DelayUs+0x6a>)
     316:	6812      	ldr	r2, [r2, #0]
     318:	fbb0 f3f3 	udiv	r3, r0, r3
     31c:	0612      	lsls	r2, r2, #24
     31e:	0f92      	lsrs	r2, r2, #30
     320:	b9ea      	cbnz	r2, 35e <DelayUs+0x54>
     322:	4363      	muls	r3, r4
     324:	0018      	movs	r0, r3
     326:	2305      	movs	r3, #5
     328:	fbb0 f0f3 	udiv	r0, r0, r3
     32c:	4912      	ldr	r1, [pc, #72]	; (378 <DelayUs+0x6e>)
     32e:	680b      	ldr	r3, [r1, #0]
     330:	b98b      	cbnz	r3, 356 <DelayUs+0x4c>
     332:	2005      	movs	r0, #5
     334:	331a      	adds	r3, #26
     336:	9300      	str	r3, [sp, #0]
     338:	334a      	adds	r3, #74	; 0x4a
     33a:	9301      	str	r3, [sp, #4]
     33c:	9002      	str	r0, [sp, #8]
     33e:	ab02      	add	r3, sp, #8
     340:	3002      	adds	r0, #2
     342:	6058      	str	r0, [r3, #4]
     344:	6848      	ldr	r0, [r1, #4]
     346:	0092      	lsls	r2, r2, #2
     348:	b908      	cbnz	r0, 34e <DelayUs+0x44>
     34a:	4669      	mov	r1, sp
     34c:	5888      	ldr	r0, [r1, r2]
     34e:	4344      	muls	r4, r0
     350:	5898      	ldr	r0, [r3, r2]
     352:	fbb4 f0f0 	udiv	r0, r4, r0
     356:	b108      	cbz	r0, 35c <DelayUs+0x52>
     358:	4b08      	ldr	r3, [pc, #32]	; (37c <DelayUs+0x72>)
     35a:	4798      	blx	r3
     35c:	bd1f      	pop	{r0, r1, r2, r3, r4, pc}
     35e:	2000      	movs	r0, #0
     360:	2a01      	cmp	r2, #1
     362:	d1e3      	bne.n	32c <DelayUs+0x22>
     364:	4363      	muls	r3, r4
     366:	0018      	movs	r0, r3
     368:	2307      	movs	r3, #7
     36a:	e7dd      	b.n	328 <DelayUs+0x1e>
     36c:	00000249 	.word	0x00000249
     370:	4200827c 	.word	0x4200827c
     374:	000f4240 	.word	0x000f4240
     378:	23000250 	.word	0x23000250
     37c:	00000301 	.word	0x00000301

00000380 <DelayMs>:
     380:	f240 33e8 	movw	r3, #1000	; 0x3e8
     384:	b510      	push	{r4, lr}
     386:	4358      	muls	r0, r3
     388:	4b01      	ldr	r3, [pc, #4]	; (390 <DelayMs+0x10>)
     38a:	4798      	blx	r3
     38c:	bd10      	pop	{r4, pc}
     38e:	46c0      	nop			; (mov r8, r8)
     390:	0000030b 	.word	0x0000030b

00000394 <FLASH_SetSpiMode>:
     394:	b5f0      	push	{r4, r5, r6, r7, lr}
     396:	2588      	movs	r5, #136	; 0x88
     398:	2200      	movs	r2, #0
     39a:	1843      	adds	r3, r0, r1
     39c:	7f9c      	ldrb	r4, [r3, #30]
     39e:	7946      	ldrb	r6, [r0, #5]
     3a0:	05ed      	lsls	r5, r5, #23
     3a2:	60aa      	str	r2, [r5, #8]
     3a4:	4374      	muls	r4, r6
     3a6:	4a2d      	ldr	r2, [pc, #180]	; (45c <FLASH_SetSpiMode+0xc8>)
     3a8:	7f45      	ldrb	r5, [r0, #29]
     3aa:	6a17      	ldr	r7, [r2, #32]
     3ac:	0064      	lsls	r4, r4, #1
     3ae:	072d      	lsls	r5, r5, #28
     3b0:	0c3f      	lsrs	r7, r7, #16
     3b2:	b2a3      	uxth	r3, r4
     3b4:	0c2d      	lsrs	r5, r5, #16
     3b6:	043f      	lsls	r7, r7, #16
     3b8:	0524      	lsls	r4, r4, #20
     3ba:	432f      	orrs	r7, r5
     3bc:	0d24      	lsrs	r4, r4, #20
     3be:	433c      	orrs	r4, r7
     3c0:	6214      	str	r4, [r2, #32]
     3c2:	0004      	movs	r4, r0
     3c4:	3463      	adds	r4, #99	; 0x63
     3c6:	7824      	ldrb	r4, [r4, #0]
     3c8:	b124      	cbz	r4, 3d4 <FLASH_SetSpiMode+0x40>
     3ca:	2904      	cmp	r1, #4
     3cc:	d11a      	bne.n	404 <FLASH_SetSpiMode+0x70>
     3ce:	00b6      	lsls	r6, r6, #2
     3d0:	1b9b      	subs	r3, r3, r6
     3d2:	b29b      	uxth	r3, r3
     3d4:	69d6      	ldr	r6, [r2, #28]
     3d6:	051b      	lsls	r3, r3, #20
     3d8:	0b36      	lsrs	r6, r6, #12
     3da:	0d1b      	lsrs	r3, r3, #20
     3dc:	0336      	lsls	r6, r6, #12
     3de:	4333      	orrs	r3, r6
     3e0:	61d3      	str	r3, [r2, #28]
     3e2:	2388      	movs	r3, #136	; 0x88
     3e4:	05db      	lsls	r3, r3, #23
     3e6:	681d      	ldr	r5, [r3, #0]
     3e8:	4b1d      	ldr	r3, [pc, #116]	; (460 <FLASH_SetSpiMode+0xcc>)
     3ea:	401d      	ands	r5, r3
     3ec:	6a53      	ldr	r3, [r2, #36]	; 0x24
     3ee:	0c1b      	lsrs	r3, r3, #16
     3f0:	041b      	lsls	r3, r3, #16
     3f2:	2903      	cmp	r1, #3
     3f4:	d02a      	beq.n	44c <FLASH_SetSpiMode+0xb8>
     3f6:	d809      	bhi.n	40c <FLASH_SetSpiMode+0x78>
     3f8:	2901      	cmp	r1, #1
     3fa:	d010      	beq.n	41e <FLASH_SetSpiMode+0x8a>
     3fc:	2902      	cmp	r1, #2
     3fe:	d01e      	beq.n	43e <FLASH_SetSpiMode+0xaa>
     400:	2103      	movs	r1, #3
     402:	e012      	b.n	42a <FLASH_SetSpiMode+0x96>
     404:	2902      	cmp	r1, #2
     406:	d1e5      	bne.n	3d4 <FLASH_SetSpiMode+0x40>
     408:	00f6      	lsls	r6, r6, #3
     40a:	e7e1      	b.n	3d0 <FLASH_SetSpiMode+0x3c>
     40c:	2904      	cmp	r1, #4
     40e:	d1f7      	bne.n	400 <FLASH_SetSpiMode+0x6c>
     410:	6d01      	ldr	r1, [r0, #80]	; 0x50
     412:	430b      	orrs	r3, r1
     414:	21a0      	movs	r1, #160	; 0xa0
     416:	0309      	lsls	r1, r1, #12
     418:	430d      	orrs	r5, r1
     41a:	21eb      	movs	r1, #235	; 0xeb
     41c:	e005      	b.n	42a <FLASH_SetSpiMode+0x96>
     41e:	6c41      	ldr	r1, [r0, #68]	; 0x44
     420:	430b      	orrs	r3, r1
     422:	2180      	movs	r1, #128	; 0x80
     424:	02c9      	lsls	r1, r1, #11
     426:	430d      	orrs	r5, r1
     428:	213b      	movs	r1, #59	; 0x3b
     42a:	6081      	str	r1, [r0, #8]
     42c:	b114      	cbz	r4, 434 <FLASH_SetSpiMode+0xa0>
     42e:	f242 0100 	movw	r1, #8192	; 0x2000
     432:	430b      	orrs	r3, r1
     434:	6253      	str	r3, [r2, #36]	; 0x24
     436:	2388      	movs	r3, #136	; 0x88
     438:	05db      	lsls	r3, r3, #23
     43a:	601d      	str	r5, [r3, #0]
     43c:	bdf0      	pop	{r4, r5, r6, r7, pc}
     43e:	6c81      	ldr	r1, [r0, #72]	; 0x48
     440:	430b      	orrs	r3, r1
     442:	21a0      	movs	r1, #160	; 0xa0
     444:	02c9      	lsls	r1, r1, #11
     446:	430d      	orrs	r5, r1
     448:	21bb      	movs	r1, #187	; 0xbb
     44a:	e7ee      	b.n	42a <FLASH_SetSpiMode+0x96>
     44c:	6cc1      	ldr	r1, [r0, #76]	; 0x4c
     44e:	430b      	orrs	r3, r1
     450:	2180      	movs	r1, #128	; 0x80
     452:	0309      	lsls	r1, r1, #12
     454:	430d      	orrs	r5, r1
     456:	216b      	movs	r1, #107	; 0x6b
     458:	e7e7      	b.n	42a <FLASH_SetSpiMode+0x96>
     45a:	46c0      	nop			; (mov r8, r8)
     45c:	440000fc 	.word	0x440000fc
     460:	ffc0ffff 	.word	0xffc0ffff

00000464 <FLASH_RxCmd>:
     464:	b570      	push	{r4, r5, r6, lr}
     466:	0006      	movs	r6, r0
     468:	2001      	movs	r0, #1
     46a:	0014      	movs	r4, r2
     46c:	000d      	movs	r5, r1
     46e:	f000 f873 	bl	558 <FLASH_UserModeEn>
     472:	2100      	movs	r1, #0
     474:	4818      	ldr	r0, [pc, #96]	; (4d8 <FLASH_RxCmd+0x74>)
     476:	f7ff ff8d 	bl	394 <FLASH_SetSpiMode>
     47a:	2388      	movs	r3, #136	; 0x88
     47c:	4a17      	ldr	r2, [pc, #92]	; (4dc <FLASH_RxCmd+0x78>)
     47e:	4818      	ldr	r0, [pc, #96]	; (4e0 <FLASH_RxCmd+0x7c>)
     480:	69d1      	ldr	r1, [r2, #28]
     482:	05db      	lsls	r3, r3, #23
     484:	4001      	ands	r1, r0
     486:	61d1      	str	r1, [r2, #28]
     488:	0229      	lsls	r1, r5, #8
     48a:	0a09      	lsrs	r1, r1, #8
     48c:	6059      	str	r1, [r3, #4]
     48e:	2100      	movs	r1, #0
     490:	6351      	str	r1, [r2, #52]	; 0x34
     492:	681a      	ldr	r2, [r3, #0]
     494:	4913      	ldr	r1, [pc, #76]	; (4e4 <FLASH_RxCmd+0x80>)
     496:	2008      	movs	r0, #8
     498:	4011      	ands	r1, r2
     49a:	f240 3200 	movw	r2, #768	; 0x300
     49e:	430a      	orrs	r2, r1
     4a0:	601a      	str	r2, [r3, #0]
     4a2:	2201      	movs	r2, #1
     4a4:	4910      	ldr	r1, [pc, #64]	; (4e8 <FLASH_RxCmd+0x84>)
     4a6:	1965      	adds	r5, r4, r5
     4a8:	700e      	strb	r6, [r1, #0]
     4aa:	609a      	str	r2, [r3, #8]
     4ac:	0022      	movs	r2, r4
     4ae:	42aa      	cmp	r2, r5
     4b0:	d10a      	bne.n	4c8 <FLASH_RxCmd+0x64>
     4b2:	2004      	movs	r0, #4
     4b4:	f000 f81a 	bl	4ec <FLASH_WaitBusy>
     4b8:	4807      	ldr	r0, [pc, #28]	; (4d8 <FLASH_RxCmd+0x74>)
     4ba:	7901      	ldrb	r1, [r0, #4]
     4bc:	f7ff ff6a 	bl	394 <FLASH_SetSpiMode>
     4c0:	2000      	movs	r0, #0
     4c2:	f000 f849 	bl	558 <FLASH_UserModeEn>
     4c6:	bd70      	pop	{r4, r5, r6, pc}
     4c8:	6a9c      	ldr	r4, [r3, #40]	; 0x28
     4ca:	4204      	tst	r4, r0
     4cc:	d0ef      	beq.n	4ae <FLASH_RxCmd+0x4a>
     4ce:	780c      	ldrb	r4, [r1, #0]
     4d0:	7014      	strb	r4, [r2, #0]
     4d2:	3201      	adds	r2, #1
     4d4:	e7eb      	b.n	4ae <FLASH_RxCmd+0x4a>
     4d6:	46c0      	nop			; (mov r8, r8)
     4d8:	23000258 	.word	0x23000258
     4dc:	440000fc 	.word	0x440000fc
     4e0:	fff0ffff 	.word	0xfff0ffff
     4e4:	fff0fcff 	.word	0xfff0fcff
     4e8:	44000060 	.word	0x44000060

000004ec <FLASH_WaitBusy>:
     4ec:	b5f7      	push	{r0, r1, r2, r4, r5, r6, r7, lr}
     4ee:	466b      	mov	r3, sp
     4f0:	2688      	movs	r6, #136	; 0x88
     4f2:	1ddd      	adds	r5, r3, #7
     4f4:	2300      	movs	r3, #0
     4f6:	0004      	movs	r4, r0
     4f8:	702b      	strb	r3, [r5, #0]
     4fa:	05f6      	lsls	r6, r6, #23
     4fc:	b92c      	cbnz	r4, 50a <FLASH_WaitBusy+0x1e>
     4fe:	6ab3      	ldr	r3, [r6, #40]	; 0x28
     500:	2201      	movs	r2, #1
     502:	4013      	ands	r3, r2
     504:	2b00      	cmp	r3, #0
     506:	d1f9      	bne.n	4fc <FLASH_WaitBusy+0x10>
     508:	bdf7      	pop	{r0, r1, r2, r4, r5, r6, r7, pc}
     50a:	2c04      	cmp	r4, #4
     50c:	d101      	bne.n	512 <FLASH_WaitBusy+0x26>
     50e:	68b3      	ldr	r3, [r6, #8]
     510:	e7f6      	b.n	500 <FLASH_WaitBusy+0x14>
     512:	2c01      	cmp	r4, #1
     514:	d10a      	bne.n	52c <FLASH_WaitBusy+0x40>
     516:	4f0f      	ldr	r7, [pc, #60]	; (554 <FLASH_WaitBusy+0x68>)
     518:	002a      	movs	r2, r5
     51a:	003b      	movs	r3, r7
     51c:	3356      	adds	r3, #86	; 0x56
     51e:	7818      	ldrb	r0, [r3, #0]
     520:	0021      	movs	r1, r4
     522:	f7ff ff9f 	bl	464 <FLASH_RxCmd>
     526:	782a      	ldrb	r2, [r5, #0]
     528:	693b      	ldr	r3, [r7, #16]
     52a:	e7ea      	b.n	502 <FLASH_WaitBusy+0x16>
     52c:	2c03      	cmp	r4, #3
     52e:	d1e9      	bne.n	504 <FLASH_WaitBusy+0x18>
     530:	4f08      	ldr	r7, [pc, #32]	; (554 <FLASH_WaitBusy+0x68>)
     532:	002a      	movs	r2, r5
     534:	003b      	movs	r3, r7
     536:	3356      	adds	r3, #86	; 0x56
     538:	2101      	movs	r1, #1
     53a:	7818      	ldrb	r0, [r3, #0]
     53c:	f7ff ff92 	bl	464 <FLASH_RxCmd>
     540:	782a      	ldrb	r2, [r5, #0]
     542:	6979      	ldr	r1, [r7, #20]
     544:	2301      	movs	r3, #1
     546:	4211      	tst	r1, r2
     548:	d0dc      	beq.n	504 <FLASH_WaitBusy+0x18>
     54a:	693b      	ldr	r3, [r7, #16]
     54c:	4013      	ands	r3, r2
     54e:	1e5a      	subs	r2, r3, #1
     550:	4193      	sbcs	r3, r2
     552:	e7d7      	b.n	504 <FLASH_WaitBusy+0x18>
     554:	23000258 	.word	0x23000258

00000558 <FLASH_UserModeEn>:
     558:	b510      	push	{r4, lr}
     55a:	0004      	movs	r4, r0
     55c:	2000      	movs	r0, #0
     55e:	f7ff ffc5 	bl	4ec <FLASH_WaitBusy>
     562:	2288      	movs	r2, #136	; 0x88
     564:	05d2      	lsls	r2, r2, #23
     566:	b12c      	cbz	r4, 574 <FLASH_UserModeEn+0x1c>
     568:	2380      	movs	r3, #128	; 0x80
     56a:	6811      	ldr	r1, [r2, #0]
     56c:	061b      	lsls	r3, r3, #24
     56e:	430b      	orrs	r3, r1
     570:	6013      	str	r3, [r2, #0]
     572:	bd10      	pop	{r4, pc}
     574:	6813      	ldr	r3, [r2, #0]
     576:	005b      	lsls	r3, r3, #1
     578:	085b      	lsrs	r3, r3, #1
     57a:	e7f9      	b.n	570 <FLASH_UserModeEn+0x18>

0000057c <FLASH_RxData>:
     57c:	b5f0      	push	{r4, r5, r6, r7, lr}
     57e:	b085      	sub	sp, #20
     580:	0005      	movs	r5, r0
     582:	000c      	movs	r4, r1
     584:	4e2d      	ldr	r6, [pc, #180]	; (63c <FLASH_RxData+0xc0>)
     586:	9202      	str	r2, [sp, #8]
     588:	9303      	str	r3, [sp, #12]
     58a:	b908      	cbnz	r0, 590 <FLASH_RxData+0x14>
     58c:	68b3      	ldr	r3, [r6, #8]
     58e:	b2dd      	uxtb	r5, r3
     590:	2001      	movs	r0, #1
     592:	f7ff ffe1 	bl	558 <FLASH_UserModeEn>
     596:	2188      	movs	r1, #136	; 0x88
     598:	f240 3300 	movw	r3, #768	; 0x300
     59c:	05c9      	lsls	r1, r1, #23
     59e:	680a      	ldr	r2, [r1, #0]
     5a0:	4827      	ldr	r0, [pc, #156]	; (640 <FLASH_RxData+0xc4>)
     5a2:	4313      	orrs	r3, r2
     5a4:	600b      	str	r3, [r1, #0]
     5a6:	9b02      	ldr	r3, [sp, #8]
     5a8:	021b      	lsls	r3, r3, #8
     5aa:	0a1b      	lsrs	r3, r3, #8
     5ac:	604b      	str	r3, [r1, #4]
     5ae:	2300      	movs	r3, #0
     5b0:	6343      	str	r3, [r0, #52]	; 0x34
     5b2:	69c2      	ldr	r2, [r0, #28]
     5b4:	4b23      	ldr	r3, [pc, #140]	; (644 <FLASH_RxData+0xc8>)
     5b6:	4013      	ands	r3, r2
     5b8:	0032      	movs	r2, r6
     5ba:	9301      	str	r3, [sp, #4]
     5bc:	3263      	adds	r2, #99	; 0x63
     5be:	7817      	ldrb	r7, [r2, #0]
     5c0:	0032      	movs	r2, r6
     5c2:	23f0      	movs	r3, #240	; 0xf0
     5c4:	3262      	adds	r2, #98	; 0x62
     5c6:	7812      	ldrb	r2, [r2, #0]
     5c8:	031b      	lsls	r3, r3, #12
     5ca:	2f00      	cmp	r7, #0
     5cc:	d02c      	beq.n	628 <FLASH_RxData+0xac>
     5ce:	3201      	adds	r2, #1
     5d0:	0412      	lsls	r2, r2, #16
     5d2:	401a      	ands	r2, r3
     5d4:	9b01      	ldr	r3, [sp, #4]
     5d6:	3662      	adds	r6, #98	; 0x62
     5d8:	4313      	orrs	r3, r2
     5da:	61c3      	str	r3, [r0, #28]
     5dc:	2301      	movs	r3, #1
     5de:	481a      	ldr	r0, [pc, #104]	; (648 <FLASH_RxData+0xcc>)
     5e0:	610b      	str	r3, [r1, #16]
     5e2:	7005      	strb	r5, [r0, #0]
     5e4:	7833      	ldrb	r3, [r6, #0]
     5e6:	2b04      	cmp	r3, #4
     5e8:	d101      	bne.n	5ee <FLASH_RxData+0x72>
     5ea:	0e23      	lsrs	r3, r4, #24
     5ec:	7003      	strb	r3, [r0, #0]
     5ee:	0c23      	lsrs	r3, r4, #16
     5f0:	b2db      	uxtb	r3, r3
     5f2:	7003      	strb	r3, [r0, #0]
     5f4:	0a23      	lsrs	r3, r4, #8
     5f6:	b2db      	uxtb	r3, r3
     5f8:	b2e4      	uxtb	r4, r4
     5fa:	7003      	strb	r3, [r0, #0]
     5fc:	7004      	strb	r4, [r0, #0]
     5fe:	b10f      	cbz	r7, 604 <FLASH_RxData+0x88>
     600:	2300      	movs	r3, #0
     602:	7003      	strb	r3, [r0, #0]
     604:	2188      	movs	r1, #136	; 0x88
     606:	2301      	movs	r3, #1
     608:	2408      	movs	r4, #8
     60a:	05c9      	lsls	r1, r1, #23
     60c:	9a02      	ldr	r2, [sp, #8]
     60e:	608b      	str	r3, [r1, #8]
     610:	9b03      	ldr	r3, [sp, #12]
     612:	189a      	adds	r2, r3, r2
     614:	4293      	cmp	r3, r2
     616:	d109      	bne.n	62c <FLASH_RxData+0xb0>
     618:	2004      	movs	r0, #4
     61a:	f7ff ff67 	bl	4ec <FLASH_WaitBusy>
     61e:	2000      	movs	r0, #0
     620:	f7ff ff9a 	bl	558 <FLASH_UserModeEn>
     624:	b005      	add	sp, #20
     626:	bdf0      	pop	{r4, r5, r6, r7, pc}
     628:	0412      	lsls	r2, r2, #16
     62a:	e7d2      	b.n	5d2 <FLASH_RxData+0x56>
     62c:	6a8d      	ldr	r5, [r1, #40]	; 0x28
     62e:	4225      	tst	r5, r4
     630:	d0f0      	beq.n	614 <FLASH_RxData+0x98>
     632:	7805      	ldrb	r5, [r0, #0]
     634:	701d      	strb	r5, [r3, #0]
     636:	3301      	adds	r3, #1
     638:	e7ec      	b.n	614 <FLASH_RxData+0x98>
     63a:	46c0      	nop			; (mov r8, r8)
     63c:	23000258 	.word	0x23000258
     640:	440000fc 	.word	0x440000fc
     644:	fff0ffff 	.word	0xfff0ffff
     648:	44000060 	.word	0x44000060

0000064c <FLASH_TxCmd>:
     64c:	b5f0      	push	{r4, r5, r6, r7, lr}
     64e:	2488      	movs	r4, #136	; 0x88
     650:	4e16      	ldr	r6, [pc, #88]	; (6ac <FLASH_TxCmd+0x60>)
     652:	b085      	sub	sp, #20
     654:	0007      	movs	r7, r0
     656:	2001      	movs	r0, #1
     658:	000d      	movs	r5, r1
     65a:	9203      	str	r2, [sp, #12]
     65c:	f7ff ff7c 	bl	558 <FLASH_UserModeEn>
     660:	69f3      	ldr	r3, [r6, #28]
     662:	05e4      	lsls	r4, r4, #23
     664:	9301      	str	r3, [sp, #4]
     666:	6823      	ldr	r3, [r4, #0]
     668:	4a11      	ldr	r2, [pc, #68]	; (6b0 <FLASH_TxCmd+0x64>)
     66a:	9302      	str	r3, [sp, #8]
     66c:	6823      	ldr	r3, [r4, #0]
     66e:	4013      	ands	r3, r2
     670:	6023      	str	r3, [r4, #0]
     672:	69f3      	ldr	r3, [r6, #28]
     674:	4a0f      	ldr	r2, [pc, #60]	; (6b4 <FLASH_TxCmd+0x68>)
     676:	4013      	ands	r3, r2
     678:	61f3      	str	r3, [r6, #28]
     67a:	2300      	movs	r3, #0
     67c:	9a03      	ldr	r2, [sp, #12]
     67e:	6063      	str	r3, [r4, #4]
     680:	4b0d      	ldr	r3, [pc, #52]	; (6b8 <FLASH_TxCmd+0x6c>)
     682:	6375      	str	r5, [r6, #52]	; 0x34
     684:	701f      	strb	r7, [r3, #0]
     686:	1955      	adds	r5, r2, r5
     688:	42aa      	cmp	r2, r5
     68a:	d10a      	bne.n	6a2 <FLASH_TxCmd+0x56>
     68c:	2301      	movs	r3, #1
     68e:	2004      	movs	r0, #4
     690:	60a3      	str	r3, [r4, #8]
     692:	f7ff ff2b 	bl	4ec <FLASH_WaitBusy>
     696:	9b01      	ldr	r3, [sp, #4]
     698:	61f3      	str	r3, [r6, #28]
     69a:	9b02      	ldr	r3, [sp, #8]
     69c:	6023      	str	r3, [r4, #0]
     69e:	b005      	add	sp, #20
     6a0:	bdf0      	pop	{r4, r5, r6, r7, pc}
     6a2:	7811      	ldrb	r1, [r2, #0]
     6a4:	3201      	adds	r2, #1
     6a6:	7019      	strb	r1, [r3, #0]
     6a8:	e7ee      	b.n	688 <FLASH_TxCmd+0x3c>
     6aa:	46c0      	nop			; (mov r8, r8)
     6ac:	440000fc 	.word	0x440000fc
     6b0:	ffc0fcff 	.word	0xffc0fcff
     6b4:	fff0ffff 	.word	0xfff0ffff
     6b8:	44000060 	.word	0x44000060

000006bc <FLASH_WriteEn>:
     6bc:	b510      	push	{r4, lr}
     6be:	2001      	movs	r0, #1
     6c0:	f7ff ff14 	bl	4ec <FLASH_WaitBusy>
     6c4:	2200      	movs	r2, #0
     6c6:	4b05      	ldr	r3, [pc, #20]	; (6dc <FLASH_WriteEn+0x20>)
     6c8:	0011      	movs	r1, r2
     6ca:	3354      	adds	r3, #84	; 0x54
     6cc:	7818      	ldrb	r0, [r3, #0]
     6ce:	f7ff ffbd 	bl	64c <FLASH_TxCmd>
     6d2:	2003      	movs	r0, #3
     6d4:	f7ff ff0a 	bl	4ec <FLASH_WaitBusy>
     6d8:	bd10      	pop	{r4, pc}
     6da:	46c0      	nop			; (mov r8, r8)
     6dc:	23000258 	.word	0x23000258

000006e0 <FLASH_TxData>:
     6e0:	b5f0      	push	{r4, r5, r6, r7, lr}
     6e2:	0016      	movs	r6, r2
     6e4:	f240 1200 	movw	r2, #256	; 0x100
     6e8:	b2c3      	uxtb	r3, r0
     6ea:	185b      	adds	r3, r3, r1
     6ec:	0004      	movs	r4, r0
     6ee:	000d      	movs	r5, r1
     6f0:	b085      	sub	sp, #20
     6f2:	4293      	cmp	r3, r2
     6f4:	d904      	bls.n	700 <FLASH_TxData+0x20>
     6f6:	f240 1159 	movw	r1, #345	; 0x159
     6fa:	482e      	ldr	r0, [pc, #184]	; (7b4 <FLASH_TxData+0xd4>)
     6fc:	f7ff fd0a 	bl	114 <io_assert_failed>
     700:	f7ff ffdc 	bl	6bc <FLASH_WriteEn>
     704:	2001      	movs	r0, #1
     706:	f7ff ff27 	bl	558 <FLASH_UserModeEn>
     70a:	2288      	movs	r2, #136	; 0x88
     70c:	05d2      	lsls	r2, r2, #23
     70e:	6813      	ldr	r3, [r2, #0]
     710:	4929      	ldr	r1, [pc, #164]	; (7b8 <FLASH_TxData+0xd8>)
     712:	9302      	str	r3, [sp, #8]
     714:	6813      	ldr	r3, [r2, #0]
     716:	400b      	ands	r3, r1
     718:	4928      	ldr	r1, [pc, #160]	; (7bc <FLASH_TxData+0xdc>)
     71a:	6013      	str	r3, [r2, #0]
     71c:	69cb      	ldr	r3, [r1, #28]
     71e:	9301      	str	r3, [sp, #4]
     720:	4b27      	ldr	r3, [pc, #156]	; (7c0 <FLASH_TxData+0xe0>)
     722:	3362      	adds	r3, #98	; 0x62
     724:	781f      	ldrb	r7, [r3, #0]
     726:	043b      	lsls	r3, r7, #16
     728:	469c      	mov	ip, r3
     72a:	23f0      	movs	r3, #240	; 0xf0
     72c:	4660      	mov	r0, ip
     72e:	031b      	lsls	r3, r3, #12
     730:	4003      	ands	r3, r0
     732:	9303      	str	r3, [sp, #12]
     734:	4823      	ldr	r0, [pc, #140]	; (7c4 <FLASH_TxData+0xe4>)
     736:	9b01      	ldr	r3, [sp, #4]
     738:	4003      	ands	r3, r0
     73a:	0018      	movs	r0, r3
     73c:	9b03      	ldr	r3, [sp, #12]
     73e:	4303      	orrs	r3, r0
     740:	61cb      	str	r3, [r1, #28]
     742:	2300      	movs	r3, #0
     744:	6053      	str	r3, [r2, #4]
     746:	022b      	lsls	r3, r5, #8
     748:	0a1b      	lsrs	r3, r3, #8
     74a:	634b      	str	r3, [r1, #52]	; 0x34
     74c:	2302      	movs	r3, #2
     74e:	4a1e      	ldr	r2, [pc, #120]	; (7c8 <FLASH_TxData+0xe8>)
     750:	7013      	strb	r3, [r2, #0]
     752:	2f04      	cmp	r7, #4
     754:	d101      	bne.n	75a <FLASH_TxData+0x7a>
     756:	0e23      	lsrs	r3, r4, #24
     758:	7013      	strb	r3, [r2, #0]
     75a:	0c23      	lsrs	r3, r4, #16
     75c:	b2db      	uxtb	r3, r3
     75e:	7013      	strb	r3, [r2, #0]
     760:	0a23      	lsrs	r3, r4, #8
     762:	b2db      	uxtb	r3, r3
     764:	2188      	movs	r1, #136	; 0x88
     766:	7013      	strb	r3, [r2, #0]
     768:	2002      	movs	r0, #2
     76a:	2300      	movs	r3, #0
     76c:	b2e4      	uxtb	r4, r4
     76e:	7014      	strb	r4, [r2, #0]
     770:	05c9      	lsls	r1, r1, #23
     772:	42ab      	cmp	r3, r5
     774:	d002      	beq.n	77c <FLASH_TxData+0x9c>
     776:	6a8c      	ldr	r4, [r1, #40]	; 0x28
     778:	4204      	tst	r4, r0
     77a:	d110      	bne.n	79e <FLASH_TxData+0xbe>
     77c:	2001      	movs	r0, #1
     77e:	2488      	movs	r4, #136	; 0x88
     780:	6088      	str	r0, [r1, #8]
     782:	2102      	movs	r1, #2
     784:	05e4      	lsls	r4, r4, #23
     786:	42ab      	cmp	r3, r5
     788:	d30d      	bcc.n	7a6 <FLASH_TxData+0xc6>
     78a:	2004      	movs	r0, #4
     78c:	f7ff feae 	bl	4ec <FLASH_WaitBusy>
     790:	9b02      	ldr	r3, [sp, #8]
     792:	2001      	movs	r0, #1
     794:	6023      	str	r3, [r4, #0]
     796:	f7ff fea9 	bl	4ec <FLASH_WaitBusy>
     79a:	b005      	add	sp, #20
     79c:	bdf0      	pop	{r4, r5, r6, r7, pc}
     79e:	5cf4      	ldrb	r4, [r6, r3]
     7a0:	3301      	adds	r3, #1
     7a2:	7014      	strb	r4, [r2, #0]
     7a4:	e7e5      	b.n	772 <FLASH_TxData+0x92>
     7a6:	6aa0      	ldr	r0, [r4, #40]	; 0x28
     7a8:	4208      	tst	r0, r1
     7aa:	d0ec      	beq.n	786 <FLASH_TxData+0xa6>
     7ac:	5cf0      	ldrb	r0, [r6, r3]
     7ae:	3301      	adds	r3, #1
     7b0:	7010      	strb	r0, [r2, #0]
     7b2:	e7e8      	b.n	786 <FLASH_TxData+0xa6>
     7b4:	0000c391 	.word	0x0000c391
     7b8:	ffc0fcff 	.word	0xffc0fcff
     7bc:	440000fc 	.word	0x440000fc
     7c0:	23000258 	.word	0x23000258
     7c4:	fff0ffff 	.word	0xfff0ffff
     7c8:	44000060 	.word	0x44000060

000007cc <FLASH_SetStatus>:
     7cc:	b570      	push	{r4, r5, r6, lr}
     7ce:	0005      	movs	r5, r0
     7d0:	0016      	movs	r6, r2
     7d2:	000c      	movs	r4, r1
     7d4:	f7ff ff72 	bl	6bc <FLASH_WriteEn>
     7d8:	0032      	movs	r2, r6
     7da:	0028      	movs	r0, r5
     7dc:	b2e1      	uxtb	r1, r4
     7de:	f7ff ff35 	bl	64c <FLASH_TxCmd>
     7e2:	2001      	movs	r0, #1
     7e4:	f7ff fe82 	bl	4ec <FLASH_WaitBusy>
     7e8:	bd70      	pop	{r4, r5, r6, pc}

000007ea <FLASH_Erase>:
     7ea:	b5f7      	push	{r0, r1, r2, r4, r5, r6, r7, lr}
     7ec:	0005      	movs	r5, r0
     7ee:	000e      	movs	r6, r1
     7f0:	2802      	cmp	r0, #2
     7f2:	d904      	bls.n	7fe <FLASH_Erase+0x14>
     7f4:	f240 11eb 	movw	r1, #491	; 0x1eb
     7f8:	4819      	ldr	r0, [pc, #100]	; (860 <FLASH_Erase+0x76>)
     7fa:	f7ff fc8b 	bl	114 <io_assert_failed>
     7fe:	4b19      	ldr	r3, [pc, #100]	; (864 <FLASH_Erase+0x7a>)
     800:	0c32      	lsrs	r2, r6, #16
     802:	3362      	adds	r3, #98	; 0x62
     804:	781f      	ldrb	r7, [r3, #0]
     806:	0a33      	lsrs	r3, r6, #8
     808:	b2d2      	uxtb	r2, r2
     80a:	b2db      	uxtb	r3, r3
     80c:	b2f1      	uxtb	r1, r6
     80e:	ac01      	add	r4, sp, #4
     810:	2f04      	cmp	r7, #4
     812:	d112      	bne.n	83a <FLASH_Erase+0x50>
     814:	0e36      	lsrs	r6, r6, #24
     816:	7026      	strb	r6, [r4, #0]
     818:	7062      	strb	r2, [r4, #1]
     81a:	70a3      	strb	r3, [r4, #2]
     81c:	70e1      	strb	r1, [r4, #3]
     81e:	f7ff ff4d 	bl	6bc <FLASH_WriteEn>
     822:	b97d      	cbnz	r5, 844 <FLASH_Erase+0x5a>
     824:	002a      	movs	r2, r5
     826:	0029      	movs	r1, r5
     828:	4b0e      	ldr	r3, [pc, #56]	; (864 <FLASH_Erase+0x7a>)
     82a:	335a      	adds	r3, #90	; 0x5a
     82c:	7818      	ldrb	r0, [r3, #0]
     82e:	f7ff ff0d 	bl	64c <FLASH_TxCmd>
     832:	2001      	movs	r0, #1
     834:	f7ff fe5a 	bl	4ec <FLASH_WaitBusy>
     838:	bdf7      	pop	{r0, r1, r2, r4, r5, r6, r7, pc}
     83a:	2703      	movs	r7, #3
     83c:	7022      	strb	r2, [r4, #0]
     83e:	7063      	strb	r3, [r4, #1]
     840:	70a1      	strb	r1, [r4, #2]
     842:	e7ec      	b.n	81e <FLASH_Erase+0x34>
     844:	2d01      	cmp	r5, #1
     846:	d105      	bne.n	854 <FLASH_Erase+0x6a>
     848:	4b06      	ldr	r3, [pc, #24]	; (864 <FLASH_Erase+0x7a>)
     84a:	335b      	adds	r3, #91	; 0x5b
     84c:	0022      	movs	r2, r4
     84e:	0039      	movs	r1, r7
     850:	7818      	ldrb	r0, [r3, #0]
     852:	e7ec      	b.n	82e <FLASH_Erase+0x44>
     854:	2d02      	cmp	r5, #2
     856:	d1ec      	bne.n	832 <FLASH_Erase+0x48>
     858:	4b02      	ldr	r3, [pc, #8]	; (864 <FLASH_Erase+0x7a>)
     85a:	335c      	adds	r3, #92	; 0x5c
     85c:	e7f6      	b.n	84c <FLASH_Erase+0x62>
     85e:	46c0      	nop			; (mov r8, r8)
     860:	0000c385 	.word	0x0000c385
     864:	23000258 	.word	0x23000258

00000868 <FLASH_DeepPowerDown>:
     868:	b510      	push	{r4, lr}
     86a:	2801      	cmp	r0, #1
     86c:	d10f      	bne.n	88e <FLASH_DeepPowerDown+0x26>
     86e:	4b0f      	ldr	r3, [pc, #60]	; (8ac <FLASH_DeepPowerDown+0x44>)
     870:	4798      	blx	r3
     872:	b158      	cbz	r0, 88c <FLASH_DeepPowerDown+0x24>
     874:	f7ff ff22 	bl	6bc <FLASH_WriteEn>
     878:	2200      	movs	r2, #0
     87a:	4b0d      	ldr	r3, [pc, #52]	; (8b0 <FLASH_DeepPowerDown+0x48>)
     87c:	0011      	movs	r1, r2
     87e:	335e      	adds	r3, #94	; 0x5e
     880:	7818      	ldrb	r0, [r3, #0]
     882:	f7ff fee3 	bl	64c <FLASH_TxCmd>
     886:	2000      	movs	r0, #0
     888:	f7ff fe66 	bl	558 <FLASH_UserModeEn>
     88c:	bd10      	pop	{r4, pc}
     88e:	2200      	movs	r2, #0
     890:	4b07      	ldr	r3, [pc, #28]	; (8b0 <FLASH_DeepPowerDown+0x48>)
     892:	0011      	movs	r1, r2
     894:	335d      	adds	r3, #93	; 0x5d
     896:	7818      	ldrb	r0, [r3, #0]
     898:	f7ff fed8 	bl	64c <FLASH_TxCmd>
     89c:	2064      	movs	r0, #100	; 0x64
     89e:	4b05      	ldr	r3, [pc, #20]	; (8b4 <FLASH_DeepPowerDown+0x4c>)
     8a0:	4798      	blx	r3
     8a2:	2001      	movs	r0, #1
     8a4:	f7ff fe22 	bl	4ec <FLASH_WaitBusy>
     8a8:	e7f0      	b.n	88c <FLASH_DeepPowerDown+0x24>
     8aa:	46c0      	nop			; (mov r8, r8)
     8ac:	00001ead 	.word	0x00001ead
     8b0:	23000258 	.word	0x23000258
     8b4:	0000030b 	.word	0x0000030b

000008b8 <FLASH_SetStatusBits>:
     8b8:	b5f0      	push	{r4, r5, r6, r7, lr}
     8ba:	4d26      	ldr	r5, [pc, #152]	; (954 <FLASH_SetStatusBits+0x9c>)
     8bc:	b085      	sub	sp, #20
     8be:	002b      	movs	r3, r5
     8c0:	9101      	str	r1, [sp, #4]
     8c2:	3356      	adds	r3, #86	; 0x56
     8c4:	ac03      	add	r4, sp, #12
     8c6:	0006      	movs	r6, r0
     8c8:	0022      	movs	r2, r4
     8ca:	2101      	movs	r1, #1
     8cc:	7818      	ldrb	r0, [r3, #0]
     8ce:	f7ff fdc9 	bl	464 <FLASH_RxCmd>
     8d2:	7823      	ldrb	r3, [r4, #0]
     8d4:	9901      	ldr	r1, [sp, #4]
     8d6:	001a      	movs	r2, r3
     8d8:	43b2      	bics	r2, r6
     8da:	2901      	cmp	r1, #1
     8dc:	d101      	bne.n	8e2 <FLASH_SetStatusBits+0x2a>
     8de:	4333      	orrs	r3, r6
     8e0:	b2da      	uxtb	r2, r3
     8e2:	69ab      	ldr	r3, [r5, #24]
     8e4:	2701      	movs	r7, #1
     8e6:	7022      	strb	r2, [r4, #0]
     8e8:	b17b      	cbz	r3, 90a <FLASH_SetStatusBits+0x52>
     8ea:	002b      	movs	r3, r5
     8ec:	3357      	adds	r3, #87	; 0x57
     8ee:	7818      	ldrb	r0, [r3, #0]
     8f0:	ab02      	add	r3, sp, #8
     8f2:	1d5a      	adds	r2, r3, #5
     8f4:	0039      	movs	r1, r7
     8f6:	f7ff fdb5 	bl	464 <FLASH_RxCmd>
     8fa:	9b01      	ldr	r3, [sp, #4]
     8fc:	7860      	ldrb	r0, [r4, #1]
     8fe:	0a36      	lsrs	r6, r6, #8
     900:	42bb      	cmp	r3, r7
     902:	d113      	bne.n	92c <FLASH_SetStatusBits+0x74>
     904:	4306      	orrs	r6, r0
     906:	7066      	strb	r6, [r4, #1]
     908:	2702      	movs	r7, #2
     90a:	002e      	movs	r6, r5
     90c:	3659      	adds	r6, #89	; 0x59
     90e:	7833      	ldrb	r3, [r6, #0]
     910:	3558      	adds	r5, #88	; 0x58
     912:	b973      	cbnz	r3, 932 <FLASH_SetStatusBits+0x7a>
     914:	f7ff fed2 	bl	6bc <FLASH_WriteEn>
     918:	0022      	movs	r2, r4
     91a:	0039      	movs	r1, r7
     91c:	7828      	ldrb	r0, [r5, #0]
     91e:	f7ff fe95 	bl	64c <FLASH_TxCmd>
     922:	2001      	movs	r0, #1
     924:	f7ff fde2 	bl	4ec <FLASH_WaitBusy>
     928:	b005      	add	sp, #20
     92a:	bdf0      	pop	{r4, r5, r6, r7, pc}
     92c:	43b0      	bics	r0, r6
     92e:	7060      	strb	r0, [r4, #1]
     930:	e7ea      	b.n	908 <FLASH_SetStatusBits+0x50>
     932:	f7ff fec3 	bl	6bc <FLASH_WriteEn>
     936:	0022      	movs	r2, r4
     938:	2101      	movs	r1, #1
     93a:	7828      	ldrb	r0, [r5, #0]
     93c:	f7ff fe86 	bl	64c <FLASH_TxCmd>
     940:	2001      	movs	r0, #1
     942:	f7ff fdd3 	bl	4ec <FLASH_WaitBusy>
     946:	f7ff feb9 	bl	6bc <FLASH_WriteEn>
     94a:	ab02      	add	r3, sp, #8
     94c:	2101      	movs	r1, #1
     94e:	7830      	ldrb	r0, [r6, #0]
     950:	1d5a      	adds	r2, r3, #5
     952:	e7e4      	b.n	91e <FLASH_SetStatusBits+0x66>
     954:	23000258 	.word	0x23000258

00000958 <FLASH_StructInit_Micron>:
     958:	f240 5100 	movw	r1, #1280	; 0x500
     95c:	b530      	push	{r4, r5, lr}
     95e:	83c1      	strh	r1, [r0, #30]
     960:	2403      	movs	r4, #3
     962:	2201      	movs	r2, #1
     964:	f640 1105 	movw	r1, #2309	; 0x905
     968:	2300      	movs	r3, #0
     96a:	2509      	movs	r5, #9
     96c:	7142      	strb	r2, [r0, #5]
     96e:	6102      	str	r2, [r0, #16]
     970:	8401      	strh	r1, [r0, #32]
     972:	1892      	adds	r2, r2, r2
     974:	1901      	adds	r1, r0, r4
     976:	60c3      	str	r3, [r0, #12]
     978:	6183      	str	r3, [r0, #24]
     97a:	7743      	strb	r3, [r0, #29]
     97c:	6004      	str	r4, [r0, #0]
     97e:	6142      	str	r2, [r0, #20]
     980:	77cd      	strb	r5, [r1, #31]
     982:	0005      	movs	r5, r0
     984:	21bb      	movs	r1, #187	; 0xbb
     986:	3561      	adds	r5, #97	; 0x61
     988:	6681      	str	r1, [r0, #104]	; 0x68
     98a:	702b      	strb	r3, [r5, #0]
     98c:	0003      	movs	r3, r0
     98e:	3362      	adds	r3, #98	; 0x62
     990:	801c      	strh	r4, [r3, #0]
     992:	233b      	movs	r3, #59	; 0x3b
     994:	6243      	str	r3, [r0, #36]	; 0x24
     996:	3330      	adds	r3, #48	; 0x30
     998:	62c3      	str	r3, [r0, #44]	; 0x2c
     99a:	3380      	adds	r3, #128	; 0x80
     99c:	6303      	str	r3, [r0, #48]	; 0x30
     99e:	3b49      	subs	r3, #73	; 0x49
     9a0:	6343      	str	r3, [r0, #52]	; 0x34
     9a2:	3330      	adds	r3, #48	; 0x30
     9a4:	6383      	str	r3, [r0, #56]	; 0x38
     9a6:	3ba0      	subs	r3, #160	; 0xa0
     9a8:	63c3      	str	r3, [r0, #60]	; 0x3c
     9aa:	3b20      	subs	r3, #32
     9ac:	6403      	str	r3, [r0, #64]	; 0x40
     9ae:	3b0e      	subs	r3, #14
     9b0:	6483      	str	r3, [r0, #72]	; 0x48
     9b2:	3304      	adds	r3, #4
     9b4:	64c3      	str	r3, [r0, #76]	; 0x4c
     9b6:	3308      	adds	r3, #8
     9b8:	6503      	str	r3, [r0, #80]	; 0x50
     9ba:	4b04      	ldr	r3, [pc, #16]	; (9cc <FLASH_StructInit_Micron+0x74>)
     9bc:	6281      	str	r1, [r0, #40]	; 0x28
     9be:	6543      	str	r3, [r0, #84]	; 0x54
     9c0:	4b03      	ldr	r3, [pc, #12]	; (9d0 <FLASH_StructInit_Micron+0x78>)
     9c2:	6442      	str	r2, [r0, #68]	; 0x44
     9c4:	6583      	str	r3, [r0, #88]	; 0x58
     9c6:	4b03      	ldr	r3, [pc, #12]	; (9d4 <FLASH_StructInit_Micron+0x7c>)
     9c8:	65c3      	str	r3, [r0, #92]	; 0x5c
     9ca:	bd30      	pop	{r4, r5, pc}
     9cc:	00059f06 	.word	0x00059f06
     9d0:	d8c70001 	.word	0xd8c70001
     9d4:	00b9ab20 	.word	0x00b9ab20

000009d8 <FLASH_StructInit_MXIC>:
     9d8:	2301      	movs	r3, #1
     9da:	f640 0100 	movw	r1, #2048	; 0x800
     9de:	2240      	movs	r2, #64	; 0x40
     9e0:	b530      	push	{r4, r5, lr}
     9e2:	6003      	str	r3, [r0, #0]
     9e4:	7143      	strb	r3, [r0, #5]
     9e6:	6103      	str	r3, [r0, #16]
     9e8:	2406      	movs	r4, #6
     9ea:	2300      	movs	r3, #0
     9ec:	83c1      	strh	r1, [r0, #30]
     9ee:	3104      	adds	r1, #4
     9f0:	60c2      	str	r2, [r0, #12]
     9f2:	8401      	strh	r1, [r0, #32]
     9f4:	3a3e      	subs	r2, #62	; 0x3e
     9f6:	1cc1      	adds	r1, r0, #3
     9f8:	6183      	str	r3, [r0, #24]
     9fa:	7743      	strb	r3, [r0, #29]
     9fc:	6142      	str	r2, [r0, #20]
     9fe:	77cc      	strb	r4, [r1, #31]
     a00:	0004      	movs	r4, r0
     a02:	21bb      	movs	r1, #187	; 0xbb
     a04:	2503      	movs	r5, #3
     a06:	3461      	adds	r4, #97	; 0x61
     a08:	6681      	str	r1, [r0, #104]	; 0x68
     a0a:	7023      	strb	r3, [r4, #0]
     a0c:	3401      	adds	r4, #1
     a0e:	8025      	strh	r5, [r4, #0]
     a10:	243b      	movs	r4, #59	; 0x3b
     a12:	6343      	str	r3, [r0, #52]	; 0x34
     a14:	6383      	str	r3, [r0, #56]	; 0x38
     a16:	63c3      	str	r3, [r0, #60]	; 0x3c
     a18:	3338      	adds	r3, #56	; 0x38
     a1a:	6403      	str	r3, [r0, #64]	; 0x40
     a1c:	3b34      	subs	r3, #52	; 0x34
     a1e:	6483      	str	r3, [r0, #72]	; 0x48
     a20:	3304      	adds	r3, #4
     a22:	64c3      	str	r3, [r0, #76]	; 0x4c
     a24:	3308      	adds	r3, #8
     a26:	6503      	str	r3, [r0, #80]	; 0x50
     a28:	4b06      	ldr	r3, [pc, #24]	; (a44 <FLASH_StructInit_MXIC+0x6c>)
     a2a:	6281      	str	r1, [r0, #40]	; 0x28
     a2c:	6543      	str	r3, [r0, #84]	; 0x54
     a2e:	4b06      	ldr	r3, [pc, #24]	; (a48 <FLASH_StructInit_MXIC+0x70>)
     a30:	3950      	subs	r1, #80	; 0x50
     a32:	6583      	str	r3, [r0, #88]	; 0x58
     a34:	4b05      	ldr	r3, [pc, #20]	; (a4c <FLASH_StructInit_MXIC+0x74>)
     a36:	62c1      	str	r1, [r0, #44]	; 0x2c
     a38:	3180      	adds	r1, #128	; 0x80
     a3a:	6244      	str	r4, [r0, #36]	; 0x24
     a3c:	6301      	str	r1, [r0, #48]	; 0x30
     a3e:	6442      	str	r2, [r0, #68]	; 0x44
     a40:	65c3      	str	r3, [r0, #92]	; 0x5c
     a42:	bd30      	pop	{r4, r5, pc}
     a44:	00059f06 	.word	0x00059f06
     a48:	d8600001 	.word	0xd8600001
     a4c:	00b9ab20 	.word	0x00b9ab20

00000a50 <FLASH_StructInit_GD>:
     a50:	2305      	movs	r3, #5
     a52:	f240 2200 	movw	r2, #512	; 0x200
     a56:	f640 0100 	movw	r1, #2048	; 0x800
     a5a:	6003      	str	r3, [r0, #0]
     a5c:	3b04      	subs	r3, #4
     a5e:	b530      	push	{r4, r5, lr}
     a60:	7143      	strb	r3, [r0, #5]
     a62:	6103      	str	r3, [r0, #16]
     a64:	6183      	str	r3, [r0, #24]
     a66:	2406      	movs	r4, #6
     a68:	2300      	movs	r3, #0
     a6a:	60c2      	str	r2, [r0, #12]
     a6c:	83c1      	strh	r1, [r0, #30]
     a6e:	3aff      	subs	r2, #255	; 0xff
     a70:	3104      	adds	r1, #4
     a72:	8401      	strh	r1, [r0, #32]
     a74:	3aff      	subs	r2, #255	; 0xff
     a76:	1cc1      	adds	r1, r0, #3
     a78:	7743      	strb	r3, [r0, #29]
     a7a:	6142      	str	r2, [r0, #20]
     a7c:	77cc      	strb	r4, [r1, #31]
     a7e:	0004      	movs	r4, r0
     a80:	21bb      	movs	r1, #187	; 0xbb
     a82:	2503      	movs	r5, #3
     a84:	3461      	adds	r4, #97	; 0x61
     a86:	6681      	str	r1, [r0, #104]	; 0x68
     a88:	7023      	strb	r3, [r4, #0]
     a8a:	3401      	adds	r4, #1
     a8c:	8025      	strh	r5, [r4, #0]
     a8e:	243b      	movs	r4, #59	; 0x3b
     a90:	6343      	str	r3, [r0, #52]	; 0x34
     a92:	6383      	str	r3, [r0, #56]	; 0x38
     a94:	63c3      	str	r3, [r0, #60]	; 0x3c
     a96:	3332      	adds	r3, #50	; 0x32
     a98:	6403      	str	r3, [r0, #64]	; 0x40
     a9a:	3b2e      	subs	r3, #46	; 0x2e
     a9c:	6483      	str	r3, [r0, #72]	; 0x48
     a9e:	3304      	adds	r3, #4
     aa0:	64c3      	str	r3, [r0, #76]	; 0x4c
     aa2:	3308      	adds	r3, #8
     aa4:	6503      	str	r3, [r0, #80]	; 0x50
     aa6:	4b07      	ldr	r3, [pc, #28]	; (ac4 <FLASH_StructInit_GD+0x74>)
     aa8:	6281      	str	r1, [r0, #40]	; 0x28
     aaa:	6543      	str	r3, [r0, #84]	; 0x54
     aac:	4b06      	ldr	r3, [pc, #24]	; (ac8 <FLASH_StructInit_GD+0x78>)
     aae:	3950      	subs	r1, #80	; 0x50
     ab0:	6583      	str	r3, [r0, #88]	; 0x58
     ab2:	4b06      	ldr	r3, [pc, #24]	; (acc <FLASH_StructInit_GD+0x7c>)
     ab4:	62c1      	str	r1, [r0, #44]	; 0x2c
     ab6:	3180      	adds	r1, #128	; 0x80
     ab8:	6244      	str	r4, [r0, #36]	; 0x24
     aba:	6301      	str	r1, [r0, #48]	; 0x30
     abc:	6442      	str	r2, [r0, #68]	; 0x44
     abe:	65c3      	str	r3, [r0, #92]	; 0x5c
     ac0:	bd30      	pop	{r4, r5, pc}
     ac2:	46c0      	nop			; (mov r8, r8)
     ac4:	35059f06 	.word	0x35059f06
     ac8:	d8600001 	.word	0xd8600001
     acc:	00b9ab20 	.word	0x00b9ab20

00000ad0 <FLASH_StructInit>:
     ad0:	f240 2100 	movw	r1, #512	; 0x200
     ad4:	2301      	movs	r3, #1
     ad6:	60c1      	str	r1, [r0, #12]
     ad8:	f640 0100 	movw	r1, #2048	; 0x800
     adc:	b530      	push	{r4, r5, lr}
     ade:	7143      	strb	r3, [r0, #5]
     ae0:	6103      	str	r3, [r0, #16]
     ae2:	6183      	str	r3, [r0, #24]
     ae4:	2202      	movs	r2, #2
     ae6:	2300      	movs	r3, #0
     ae8:	2406      	movs	r4, #6
     aea:	83c1      	strh	r1, [r0, #30]
     aec:	3104      	adds	r1, #4
     aee:	8401      	strh	r1, [r0, #32]
     af0:	1cc1      	adds	r1, r0, #3
     af2:	7743      	strb	r3, [r0, #29]
     af4:	6002      	str	r2, [r0, #0]
     af6:	6142      	str	r2, [r0, #20]
     af8:	77cc      	strb	r4, [r1, #31]
     afa:	0004      	movs	r4, r0
     afc:	21bb      	movs	r1, #187	; 0xbb
     afe:	2503      	movs	r5, #3
     b00:	3461      	adds	r4, #97	; 0x61
     b02:	6681      	str	r1, [r0, #104]	; 0x68
     b04:	7023      	strb	r3, [r4, #0]
     b06:	3401      	adds	r4, #1
     b08:	8025      	strh	r5, [r4, #0]
     b0a:	243b      	movs	r4, #59	; 0x3b
     b0c:	6343      	str	r3, [r0, #52]	; 0x34
     b0e:	6383      	str	r3, [r0, #56]	; 0x38
     b10:	63c3      	str	r3, [r0, #60]	; 0x3c
     b12:	3332      	adds	r3, #50	; 0x32
     b14:	6403      	str	r3, [r0, #64]	; 0x40
     b16:	3b2e      	subs	r3, #46	; 0x2e
     b18:	6483      	str	r3, [r0, #72]	; 0x48
     b1a:	3304      	adds	r3, #4
     b1c:	64c3      	str	r3, [r0, #76]	; 0x4c
     b1e:	3308      	adds	r3, #8
     b20:	6503      	str	r3, [r0, #80]	; 0x50
     b22:	4b07      	ldr	r3, [pc, #28]	; (b40 <FLASH_StructInit+0x70>)
     b24:	6281      	str	r1, [r0, #40]	; 0x28
     b26:	6543      	str	r3, [r0, #84]	; 0x54
     b28:	4b06      	ldr	r3, [pc, #24]	; (b44 <FLASH_StructInit+0x74>)
     b2a:	3950      	subs	r1, #80	; 0x50
     b2c:	6583      	str	r3, [r0, #88]	; 0x58
     b2e:	4b06      	ldr	r3, [pc, #24]	; (b48 <FLASH_StructInit+0x78>)
     b30:	62c1      	str	r1, [r0, #44]	; 0x2c
     b32:	3180      	adds	r1, #128	; 0x80
     b34:	6244      	str	r4, [r0, #36]	; 0x24
     b36:	6301      	str	r1, [r0, #48]	; 0x30
     b38:	6442      	str	r2, [r0, #68]	; 0x44
     b3a:	65c3      	str	r3, [r0, #92]	; 0x5c
     b3c:	bd30      	pop	{r4, r5, pc}
     b3e:	46c0      	nop			; (mov r8, r8)
     b40:	35059f06 	.word	0x35059f06
     b44:	d8600001 	.word	0xd8600001
     b48:	00b9ab20 	.word	0x00b9ab20

00000b4c <FLASH_Init>:
     b4c:	2288      	movs	r2, #136	; 0x88
     b4e:	b570      	push	{r4, r5, r6, lr}
     b50:	2500      	movs	r5, #0
     b52:	05d2      	lsls	r2, r2, #23
     b54:	0001      	movs	r1, r0
     b56:	481f      	ldr	r0, [pc, #124]	; (bd4 <FLASH_Init+0x88>)
     b58:	6095      	str	r5, [r2, #8]
     b5a:	7943      	ldrb	r3, [r0, #5]
     b5c:	2401      	movs	r4, #1
     b5e:	6153      	str	r3, [r2, #20]
     b60:	0013      	movs	r3, r2
     b62:	6114      	str	r4, [r2, #16]
     b64:	6e86      	ldr	r6, [r0, #104]	; 0x68
     b66:	33e0      	adds	r3, #224	; 0xe0
     b68:	601e      	str	r6, [r3, #0]
     b6a:	6a86      	ldr	r6, [r0, #40]	; 0x28
     b6c:	3304      	adds	r3, #4
     b6e:	605e      	str	r6, [r3, #4]
     b70:	6a46      	ldr	r6, [r0, #36]	; 0x24
     b72:	32f8      	adds	r2, #248	; 0xf8
     b74:	601e      	str	r6, [r3, #0]
     b76:	6b06      	ldr	r6, [r0, #48]	; 0x30
     b78:	60de      	str	r6, [r3, #12]
     b7a:	6ac6      	ldr	r6, [r0, #44]	; 0x2c
     b7c:	3308      	adds	r3, #8
     b7e:	601e      	str	r6, [r3, #0]
     b80:	609d      	str	r5, [r3, #8]
     b82:	61dd      	str	r5, [r3, #28]
     b84:	6015      	str	r5, [r2, #0]
     b86:	611d      	str	r5, [r3, #16]
     b88:	615d      	str	r5, [r3, #20]
     b8a:	619d      	str	r5, [r3, #24]
     b8c:	6a5a      	ldr	r2, [r3, #36]	; 0x24
     b8e:	3506      	adds	r5, #6
     b90:	4322      	orrs	r2, r4
     b92:	625a      	str	r2, [r3, #36]	; 0x24
     b94:	6a5a      	ldr	r2, [r3, #36]	; 0x24
     b96:	26f0      	movs	r6, #240	; 0xf0
     b98:	43aa      	bics	r2, r5
     b9a:	625a      	str	r2, [r3, #36]	; 0x24
     b9c:	0002      	movs	r2, r0
     b9e:	3262      	adds	r2, #98	; 0x62
     ba0:	7812      	ldrb	r2, [r2, #0]
     ba2:	0336      	lsls	r6, r6, #12
     ba4:	0412      	lsls	r2, r2, #16
     ba6:	6b1d      	ldr	r5, [r3, #48]	; 0x30
     ba8:	4032      	ands	r2, r6
     baa:	4e0b      	ldr	r6, [pc, #44]	; (bd8 <FLASH_Init+0x8c>)
     bac:	4035      	ands	r5, r6
     bae:	4315      	orrs	r5, r2
     bb0:	631d      	str	r5, [r3, #48]	; 0x30
     bb2:	6add      	ldr	r5, [r3, #44]	; 0x2c
     bb4:	4e09      	ldr	r6, [pc, #36]	; (bdc <FLASH_Init+0x90>)
     bb6:	4035      	ands	r5, r6
     bb8:	432a      	orrs	r2, r5
     bba:	f241 0500 	movw	r5, #4096	; 0x1000
     bbe:	432a      	orrs	r2, r5
     bc0:	62da      	str	r2, [r3, #44]	; 0x2c
     bc2:	0002      	movs	r2, r0
     bc4:	325f      	adds	r2, #95	; 0x5f
     bc6:	7812      	ldrb	r2, [r2, #0]
     bc8:	641a      	str	r2, [r3, #64]	; 0x40
     bca:	7101      	strb	r1, [r0, #4]
     bcc:	f7ff fbe2 	bl	394 <FLASH_SetSpiMode>
     bd0:	0020      	movs	r0, r4
     bd2:	bd70      	pop	{r4, r5, r6, pc}
     bd4:	23000258 	.word	0x23000258
     bd8:	fff0ffff 	.word	0xfff0ffff
     bdc:	fff0cfff 	.word	0xfff0cfff

00000be0 <GPIO_INTMode>:
     be0:	b5f0      	push	{r4, r5, r6, r7, lr}
     be2:	0644      	lsls	r4, r0, #25
     be4:	4d16      	ldr	r5, [pc, #88]	; (c40 <GPIO_INTMode+0x60>)
     be6:	0fa4      	lsrs	r4, r4, #30
     be8:	261f      	movs	r6, #31
     bea:	00a4      	lsls	r4, r4, #2
     bec:	5964      	ldr	r4, [r4, r5]
     bee:	2501      	movs	r5, #1
     bf0:	4006      	ands	r6, r0
     bf2:	40b5      	lsls	r5, r6
     bf4:	2901      	cmp	r1, #1
     bf6:	d116      	bne.n	c26 <GPIO_INTMode+0x46>
     bf8:	43e8      	mvns	r0, r5
     bfa:	2a02      	cmp	r2, #2
     bfc:	d01c      	beq.n	c38 <GPIO_INTMode+0x58>
     bfe:	40b2      	lsls	r2, r6
     c00:	40b3      	lsls	r3, r6
     c02:	6ea7      	ldr	r7, [r4, #104]	; 0x68
     c04:	4007      	ands	r7, r0
     c06:	66a7      	str	r7, [r4, #104]	; 0x68
     c08:	6ba7      	ldr	r7, [r4, #56]	; 0x38
     c0a:	4007      	ands	r7, r0
     c0c:	433a      	orrs	r2, r7
     c0e:	63a2      	str	r2, [r4, #56]	; 0x38
     c10:	6be2      	ldr	r2, [r4, #60]	; 0x3c
     c12:	4002      	ands	r2, r0
     c14:	4313      	orrs	r3, r2
     c16:	63e3      	str	r3, [r4, #60]	; 0x3c
     c18:	6ca3      	ldr	r3, [r4, #72]	; 0x48
     c1a:	4018      	ands	r0, r3
     c1c:	9b05      	ldr	r3, [sp, #20]
     c1e:	2b01      	cmp	r3, #1
     c20:	d100      	bne.n	c24 <GPIO_INTMode+0x44>
     c22:	4328      	orrs	r0, r5
     c24:	64a0      	str	r0, [r4, #72]	; 0x48
     c26:	6b22      	ldr	r2, [r4, #48]	; 0x30
     c28:	0013      	movs	r3, r2
     c2a:	43ab      	bics	r3, r5
     c2c:	2901      	cmp	r1, #1
     c2e:	d101      	bne.n	c34 <GPIO_INTMode+0x54>
     c30:	002b      	movs	r3, r5
     c32:	4313      	orrs	r3, r2
     c34:	6323      	str	r3, [r4, #48]	; 0x30
     c36:	bdf0      	pop	{r4, r5, r6, r7, pc}
     c38:	6ea3      	ldr	r3, [r4, #104]	; 0x68
     c3a:	432b      	orrs	r3, r5
     c3c:	66a3      	str	r3, [r4, #104]	; 0x68
     c3e:	e7eb      	b.n	c18 <GPIO_INTMode+0x38>
     c40:	0000c068 	.word	0x0000c068

00000c44 <GPIO_INTConfig>:
     c44:	0643      	lsls	r3, r0, #25
     c46:	4a09      	ldr	r2, [pc, #36]	; (c6c <GPIO_INTConfig+0x28>)
     c48:	0f9b      	lsrs	r3, r3, #30
     c4a:	009b      	lsls	r3, r3, #2
     c4c:	589a      	ldr	r2, [r3, r2]
     c4e:	231f      	movs	r3, #31
     c50:	4018      	ands	r0, r3
     c52:	3b1e      	subs	r3, #30
     c54:	4083      	lsls	r3, r0
     c56:	b510      	push	{r4, lr}
     c58:	64d3      	str	r3, [r2, #76]	; 0x4c
     c5a:	6b54      	ldr	r4, [r2, #52]	; 0x34
     c5c:	0020      	movs	r0, r4
     c5e:	4398      	bics	r0, r3
     c60:	b909      	cbnz	r1, c66 <GPIO_INTConfig+0x22>
     c62:	4323      	orrs	r3, r4
     c64:	0018      	movs	r0, r3
     c66:	6350      	str	r0, [r2, #52]	; 0x34
     c68:	bd10      	pop	{r4, pc}
     c6a:	46c0      	nop			; (mov r8, r8)
     c6c:	0000c068 	.word	0x0000c068

00000c70 <GPIO_INTHandler>:
     c70:	b5f8      	push	{r3, r4, r5, r6, r7, lr}
     c72:	6d06      	ldr	r6, [r0, #80]	; 0x50
     c74:	4b2e      	ldr	r3, [pc, #184]	; (d30 <GPIO_INTHandler+0xc0>)
     c76:	6c05      	ldr	r5, [r0, #64]	; 0x40
     c78:	64c5      	str	r5, [r0, #76]	; 0x4c
     c7a:	4298      	cmp	r0, r3
     c7c:	d11e      	bne.n	cbc <GPIO_INTHandler+0x4c>
     c7e:	2400      	movs	r4, #0
     c80:	2701      	movs	r7, #1
     c82:	002b      	movs	r3, r5
     c84:	40e3      	lsrs	r3, r4
     c86:	423b      	tst	r3, r7
     c88:	d013      	beq.n	cb2 <GPIO_INTHandler+0x42>
     c8a:	4a2a      	ldr	r2, [pc, #168]	; (d34 <GPIO_INTHandler+0xc4>)
     c8c:	00a3      	lsls	r3, r4, #2
     c8e:	189a      	adds	r2, r3, r2
     c90:	6812      	ldr	r2, [r2, #0]
     c92:	b172      	cbz	r2, cb2 <GPIO_INTHandler+0x42>
     c94:	0421      	lsls	r1, r4, #16
     c96:	468c      	mov	ip, r1
     c98:	2102      	movs	r1, #2
     c9a:	4660      	mov	r0, ip
     c9c:	4301      	orrs	r1, r0
     c9e:	0030      	movs	r0, r6
     ca0:	40e0      	lsrs	r0, r4
     ca2:	4238      	tst	r0, r7
     ca4:	d001      	beq.n	caa <GPIO_INTHandler+0x3a>
     ca6:	4661      	mov	r1, ip
     ca8:	4339      	orrs	r1, r7
     caa:	4823      	ldr	r0, [pc, #140]	; (d38 <GPIO_INTHandler+0xc8>)
     cac:	181b      	adds	r3, r3, r0
     cae:	6818      	ldr	r0, [r3, #0]
     cb0:	4790      	blx	r2
     cb2:	3401      	adds	r4, #1
     cb4:	2c20      	cmp	r4, #32
     cb6:	d1e4      	bne.n	c82 <GPIO_INTHandler+0x12>
     cb8:	2000      	movs	r0, #0
     cba:	bdf8      	pop	{r3, r4, r5, r6, r7, pc}
     cbc:	4b1f      	ldr	r3, [pc, #124]	; (d3c <GPIO_INTHandler+0xcc>)
     cbe:	2400      	movs	r4, #0
     cc0:	2701      	movs	r7, #1
     cc2:	4298      	cmp	r0, r3
     cc4:	d119      	bne.n	cfa <GPIO_INTHandler+0x8a>
     cc6:	002b      	movs	r3, r5
     cc8:	40e3      	lsrs	r3, r4
     cca:	423b      	tst	r3, r7
     ccc:	d00f      	beq.n	cee <GPIO_INTHandler+0x7e>
     cce:	4b1c      	ldr	r3, [pc, #112]	; (d40 <GPIO_INTHandler+0xd0>)
     cd0:	00a2      	lsls	r2, r4, #2
     cd2:	18d3      	adds	r3, r2, r3
     cd4:	681b      	ldr	r3, [r3, #0]
     cd6:	b153      	cbz	r3, cee <GPIO_INTHandler+0x7e>
     cd8:	0030      	movs	r0, r6
     cda:	40e0      	lsrs	r0, r4
     cdc:	0421      	lsls	r1, r4, #16
     cde:	4238      	tst	r0, r7
     ce0:	d009      	beq.n	cf6 <GPIO_INTHandler+0x86>
     ce2:	4818      	ldr	r0, [pc, #96]	; (d44 <GPIO_INTHandler+0xd4>)
     ce4:	4301      	orrs	r1, r0
     ce6:	4818      	ldr	r0, [pc, #96]	; (d48 <GPIO_INTHandler+0xd8>)
     ce8:	1812      	adds	r2, r2, r0
     cea:	6810      	ldr	r0, [r2, #0]
     cec:	4798      	blx	r3
     cee:	3401      	adds	r4, #1
     cf0:	2c20      	cmp	r4, #32
     cf2:	d1e8      	bne.n	cc6 <GPIO_INTHandler+0x56>
     cf4:	e7e0      	b.n	cb8 <GPIO_INTHandler+0x48>
     cf6:	4815      	ldr	r0, [pc, #84]	; (d4c <GPIO_INTHandler+0xdc>)
     cf8:	e7f4      	b.n	ce4 <GPIO_INTHandler+0x74>
     cfa:	002b      	movs	r3, r5
     cfc:	40e3      	lsrs	r3, r4
     cfe:	423b      	tst	r3, r7
     d00:	d00f      	beq.n	d22 <GPIO_INTHandler+0xb2>
     d02:	4b13      	ldr	r3, [pc, #76]	; (d50 <GPIO_INTHandler+0xe0>)
     d04:	00a2      	lsls	r2, r4, #2
     d06:	18d3      	adds	r3, r2, r3
     d08:	681b      	ldr	r3, [r3, #0]
     d0a:	b153      	cbz	r3, d22 <GPIO_INTHandler+0xb2>
     d0c:	0030      	movs	r0, r6
     d0e:	40e0      	lsrs	r0, r4
     d10:	0421      	lsls	r1, r4, #16
     d12:	4238      	tst	r0, r7
     d14:	d009      	beq.n	d2a <GPIO_INTHandler+0xba>
     d16:	480f      	ldr	r0, [pc, #60]	; (d54 <GPIO_INTHandler+0xe4>)
     d18:	4301      	orrs	r1, r0
     d1a:	480f      	ldr	r0, [pc, #60]	; (d58 <GPIO_INTHandler+0xe8>)
     d1c:	1812      	adds	r2, r2, r0
     d1e:	6810      	ldr	r0, [r2, #0]
     d20:	4798      	blx	r3
     d22:	3401      	adds	r4, #1
     d24:	2c20      	cmp	r4, #32
     d26:	d1e8      	bne.n	cfa <GPIO_INTHandler+0x8a>
     d28:	e7c6      	b.n	cb8 <GPIO_INTHandler+0x48>
     d2a:	480c      	ldr	r0, [pc, #48]	; (d5c <GPIO_INTHandler+0xec>)
     d2c:	e7f4      	b.n	d18 <GPIO_INTHandler+0xa8>
     d2e:	46c0      	nop			; (mov r8, r8)
     d30:	4200d000 	.word	0x4200d000
     d34:	2300054c 	.word	0x2300054c
     d38:	230003cc 	.word	0x230003cc
     d3c:	4200d400 	.word	0x4200d400
     d40:	230004cc 	.word	0x230004cc
     d44:	00200001 	.word	0x00200001
     d48:	2300034c 	.word	0x2300034c
     d4c:	00200002 	.word	0x00200002
     d50:	2300044c 	.word	0x2300044c
     d54:	00400001 	.word	0x00400001
     d58:	230002cc 	.word	0x230002cc
     d5c:	00400002 	.word	0x00400002

00000d60 <GPIO_Direction>:
     d60:	0643      	lsls	r3, r0, #25
     d62:	4a08      	ldr	r2, [pc, #32]	; (d84 <GPIO_Direction+0x24>)
     d64:	0f9b      	lsrs	r3, r3, #30
     d66:	009b      	lsls	r3, r3, #2
     d68:	589b      	ldr	r3, [r3, r2]
     d6a:	221f      	movs	r2, #31
     d6c:	4010      	ands	r0, r2
     d6e:	3a1e      	subs	r2, #30
     d70:	4082      	lsls	r2, r0
     d72:	b919      	cbnz	r1, d7c <GPIO_Direction+0x1c>
     d74:	6859      	ldr	r1, [r3, #4]
     d76:	4391      	bics	r1, r2
     d78:	6059      	str	r1, [r3, #4]
     d7a:	4770      	bx	lr
     d7c:	6859      	ldr	r1, [r3, #4]
     d7e:	430a      	orrs	r2, r1
     d80:	605a      	str	r2, [r3, #4]
     d82:	e7fa      	b.n	d7a <GPIO_Direction+0x1a>
     d84:	0000c068 	.word	0x0000c068

00000d88 <GPIO_Init>:
     d88:	6803      	ldr	r3, [r0, #0]
     d8a:	b537      	push	{r0, r1, r2, r4, r5, lr}
     d8c:	0004      	movs	r4, r0
     d8e:	2b02      	cmp	r3, #2
     d90:	d904      	bls.n	d9c <GPIO_Init+0x14>
     d92:	f240 1102 	movw	r1, #258	; 0x102
     d96:	4818      	ldr	r0, [pc, #96]	; (df8 <GPIO_Init+0x70>)
     d98:	f7ff f9bc 	bl	114 <io_assert_failed>
     d9c:	6963      	ldr	r3, [r4, #20]
     d9e:	2100      	movs	r1, #0
     da0:	b2d8      	uxtb	r0, r3
     da2:	4b16      	ldr	r3, [pc, #88]	; (dfc <GPIO_Init+0x74>)
     da4:	4798      	blx	r3
     da6:	6823      	ldr	r3, [r4, #0]
     da8:	2100      	movs	r1, #0
     daa:	4d15      	ldr	r5, [pc, #84]	; (e00 <GPIO_Init+0x78>)
     dac:	2b02      	cmp	r3, #2
     dae:	d10a      	bne.n	dc6 <GPIO_Init+0x3e>
     db0:	6960      	ldr	r0, [r4, #20]
     db2:	4b14      	ldr	r3, [pc, #80]	; (e04 <GPIO_Init+0x7c>)
     db4:	4798      	blx	r3
     db6:	6923      	ldr	r3, [r4, #16]
     db8:	2101      	movs	r1, #1
     dba:	9300      	str	r3, [sp, #0]
     dbc:	68a2      	ldr	r2, [r4, #8]
     dbe:	68e3      	ldr	r3, [r4, #12]
     dc0:	6960      	ldr	r0, [r4, #20]
     dc2:	47a8      	blx	r5
     dc4:	bd37      	pop	{r0, r1, r2, r4, r5, pc}
     dc6:	000b      	movs	r3, r1
     dc8:	000a      	movs	r2, r1
     dca:	9100      	str	r1, [sp, #0]
     dcc:	6960      	ldr	r0, [r4, #20]
     dce:	47a8      	blx	r5
     dd0:	6821      	ldr	r1, [r4, #0]
     dd2:	2901      	cmp	r1, #1
     dd4:	d103      	bne.n	dde <GPIO_Init+0x56>
     dd6:	6960      	ldr	r0, [r4, #20]
     dd8:	4b0a      	ldr	r3, [pc, #40]	; (e04 <GPIO_Init+0x7c>)
     dda:	4798      	blx	r3
     ddc:	e7f2      	b.n	dc4 <GPIO_Init+0x3c>
     dde:	2900      	cmp	r1, #0
     de0:	d1f0      	bne.n	dc4 <GPIO_Init+0x3c>
     de2:	6960      	ldr	r0, [r4, #20]
     de4:	4b07      	ldr	r3, [pc, #28]	; (e04 <GPIO_Init+0x7c>)
     de6:	4798      	blx	r3
     de8:	6863      	ldr	r3, [r4, #4]
     dea:	6960      	ldr	r0, [r4, #20]
     dec:	b2d9      	uxtb	r1, r3
     dee:	b2c0      	uxtb	r0, r0
     df0:	4b05      	ldr	r3, [pc, #20]	; (e08 <GPIO_Init+0x80>)
     df2:	4798      	blx	r3
     df4:	e7e6      	b.n	dc4 <GPIO_Init+0x3c>
     df6:	46c0      	nop			; (mov r8, r8)
     df8:	0000c3f0 	.word	0x0000c3f0
     dfc:	00001909 	.word	0x00001909
     e00:	00000be1 	.word	0x00000be1
     e04:	00000d61 	.word	0x00000d61
     e08:	00001869 	.word	0x00001869

00000e0c <GPIO_DeInit>:
     e0c:	b5f8      	push	{r3, r4, r5, r6, r7, lr}
     e0e:	0645      	lsls	r5, r0, #25
     e10:	4b13      	ldr	r3, [pc, #76]	; (e60 <GPIO_DeInit+0x54>)
     e12:	0fad      	lsrs	r5, r5, #30
     e14:	00aa      	lsls	r2, r5, #2
     e16:	58d6      	ldr	r6, [r2, r3]
     e18:	0004      	movs	r4, r0
     e1a:	221f      	movs	r2, #31
     e1c:	2701      	movs	r7, #1
     e1e:	4014      	ands	r4, r2
     e20:	40a7      	lsls	r7, r4
     e22:	6873      	ldr	r3, [r6, #4]
     e24:	2100      	movs	r1, #0
     e26:	43bb      	bics	r3, r7
     e28:	6073      	str	r3, [r6, #4]
     e2a:	b2c0      	uxtb	r0, r0
     e2c:	4b0d      	ldr	r3, [pc, #52]	; (e64 <GPIO_DeInit+0x58>)
     e2e:	4798      	blx	r3
     e30:	43fa      	mvns	r2, r7
     e32:	6b33      	ldr	r3, [r6, #48]	; 0x30
     e34:	00a4      	lsls	r4, r4, #2
     e36:	4013      	ands	r3, r2
     e38:	6333      	str	r3, [r6, #48]	; 0x30
     e3a:	64f7      	str	r7, [r6, #76]	; 0x4c
     e3c:	b925      	cbnz	r5, e48 <GPIO_DeInit+0x3c>
     e3e:	4b0a      	ldr	r3, [pc, #40]	; (e68 <GPIO_DeInit+0x5c>)
     e40:	511d      	str	r5, [r3, r4]
     e42:	4b0a      	ldr	r3, [pc, #40]	; (e6c <GPIO_DeInit+0x60>)
     e44:	511d      	str	r5, [r3, r4]
     e46:	bdf8      	pop	{r3, r4, r5, r6, r7, pc}
     e48:	2300      	movs	r3, #0
     e4a:	2d01      	cmp	r5, #1
     e4c:	d104      	bne.n	e58 <GPIO_DeInit+0x4c>
     e4e:	4a08      	ldr	r2, [pc, #32]	; (e70 <GPIO_DeInit+0x64>)
     e50:	5113      	str	r3, [r2, r4]
     e52:	4a08      	ldr	r2, [pc, #32]	; (e74 <GPIO_DeInit+0x68>)
     e54:	5113      	str	r3, [r2, r4]
     e56:	e7f6      	b.n	e46 <GPIO_DeInit+0x3a>
     e58:	4a07      	ldr	r2, [pc, #28]	; (e78 <GPIO_DeInit+0x6c>)
     e5a:	5113      	str	r3, [r2, r4]
     e5c:	4a07      	ldr	r2, [pc, #28]	; (e7c <GPIO_DeInit+0x70>)
     e5e:	e7f9      	b.n	e54 <GPIO_DeInit+0x48>
     e60:	0000c068 	.word	0x0000c068
     e64:	00001869 	.word	0x00001869
     e68:	2300054c 	.word	0x2300054c
     e6c:	230003cc 	.word	0x230003cc
     e70:	230004cc 	.word	0x230004cc
     e74:	2300034c 	.word	0x2300034c
     e78:	2300044c 	.word	0x2300044c
     e7c:	230002cc 	.word	0x230002cc

00000e80 <GPIO_ReadDataBit>:
     e80:	0643      	lsls	r3, r0, #25
     e82:	4a07      	ldr	r2, [pc, #28]	; (ea0 <GPIO_ReadDataBit+0x20>)
     e84:	0f9b      	lsrs	r3, r3, #30
     e86:	009b      	lsls	r3, r3, #2
     e88:	589b      	ldr	r3, [r3, r2]
     e8a:	221f      	movs	r2, #31
     e8c:	4010      	ands	r0, r2
     e8e:	3a1e      	subs	r2, #30
     e90:	4082      	lsls	r2, r0
     e92:	0010      	movs	r0, r2
     e94:	6d1b      	ldr	r3, [r3, #80]	; 0x50
     e96:	4018      	ands	r0, r3
     e98:	1e43      	subs	r3, r0, #1
     e9a:	4198      	sbcs	r0, r3
     e9c:	4770      	bx	lr
     e9e:	46c0      	nop			; (mov r8, r8)
     ea0:	0000c068 	.word	0x0000c068

00000ea4 <GPIO_WriteBit>:
     ea4:	0643      	lsls	r3, r0, #25
     ea6:	4a08      	ldr	r2, [pc, #32]	; (ec8 <GPIO_WriteBit+0x24>)
     ea8:	0f9b      	lsrs	r3, r3, #30
     eaa:	009b      	lsls	r3, r3, #2
     eac:	589a      	ldr	r2, [r3, r2]
     eae:	231f      	movs	r3, #31
     eb0:	b510      	push	{r4, lr}
     eb2:	6814      	ldr	r4, [r2, #0]
     eb4:	4018      	ands	r0, r3
     eb6:	3b1e      	subs	r3, #30
     eb8:	4083      	lsls	r3, r0
     eba:	0020      	movs	r0, r4
     ebc:	4318      	orrs	r0, r3
     ebe:	b909      	cbnz	r1, ec4 <GPIO_WriteBit+0x20>
     ec0:	0020      	movs	r0, r4
     ec2:	4398      	bics	r0, r3
     ec4:	6010      	str	r0, [r2, #0]
     ec6:	bd10      	pop	{r4, pc}
     ec8:	0000c068 	.word	0x0000c068

00000ecc <GPIO_PortDirection>:
     ecc:	b570      	push	{r4, r5, r6, lr}
     ece:	0004      	movs	r4, r0
     ed0:	000d      	movs	r5, r1
     ed2:	0016      	movs	r6, r2
     ed4:	2802      	cmp	r0, #2
     ed6:	d904      	bls.n	ee2 <GPIO_PortDirection+0x16>
     ed8:	f240 1195 	movw	r1, #405	; 0x195
     edc:	4806      	ldr	r0, [pc, #24]	; (ef8 <GPIO_PortDirection+0x2c>)
     ede:	f7ff f919 	bl	114 <io_assert_failed>
     ee2:	4b06      	ldr	r3, [pc, #24]	; (efc <GPIO_PortDirection+0x30>)
     ee4:	00a4      	lsls	r4, r4, #2
     ee6:	58e3      	ldr	r3, [r4, r3]
     ee8:	6859      	ldr	r1, [r3, #4]
     eea:	000a      	movs	r2, r1
     eec:	432a      	orrs	r2, r5
     eee:	b90e      	cbnz	r6, ef4 <GPIO_PortDirection+0x28>
     ef0:	000a      	movs	r2, r1
     ef2:	43aa      	bics	r2, r5
     ef4:	605a      	str	r2, [r3, #4]
     ef6:	bd70      	pop	{r4, r5, r6, pc}
     ef8:	0000c3dd 	.word	0x0000c3dd
     efc:	0000c068 	.word	0x0000c068

00000f00 <GPIO_PortRead>:
     f00:	b570      	push	{r4, r5, r6, lr}
     f02:	0004      	movs	r4, r0
     f04:	000d      	movs	r5, r1
     f06:	2802      	cmp	r0, #2
     f08:	d904      	bls.n	f14 <GPIO_PortRead+0x14>
     f0a:	f240 11b5 	movw	r1, #437	; 0x1b5
     f0e:	4804      	ldr	r0, [pc, #16]	; (f20 <GPIO_PortRead+0x20>)
     f10:	f7ff f900 	bl	114 <io_assert_failed>
     f14:	4b03      	ldr	r3, [pc, #12]	; (f24 <GPIO_PortRead+0x24>)
     f16:	00a4      	lsls	r4, r4, #2
     f18:	58e3      	ldr	r3, [r4, r3]
     f1a:	6d18      	ldr	r0, [r3, #80]	; 0x50
     f1c:	4028      	ands	r0, r5
     f1e:	bd70      	pop	{r4, r5, r6, pc}
     f20:	0000c3cf 	.word	0x0000c3cf
     f24:	0000c068 	.word	0x0000c068

00000f28 <GPIO_PortWrite>:
     f28:	b570      	push	{r4, r5, r6, lr}
     f2a:	0004      	movs	r4, r0
     f2c:	000d      	movs	r5, r1
     f2e:	0016      	movs	r6, r2
     f30:	2802      	cmp	r0, #2
     f32:	d904      	bls.n	f3e <GPIO_PortWrite+0x16>
     f34:	f240 11d0 	movw	r1, #464	; 0x1d0
     f38:	4805      	ldr	r0, [pc, #20]	; (f50 <GPIO_PortWrite+0x28>)
     f3a:	f7ff f8eb 	bl	114 <io_assert_failed>
     f3e:	4b05      	ldr	r3, [pc, #20]	; (f54 <GPIO_PortWrite+0x2c>)
     f40:	00a4      	lsls	r4, r4, #2
     f42:	58e2      	ldr	r2, [r4, r3]
     f44:	6813      	ldr	r3, [r2, #0]
     f46:	405e      	eors	r6, r3
     f48:	4035      	ands	r5, r6
     f4a:	406b      	eors	r3, r5
     f4c:	6013      	str	r3, [r2, #0]
     f4e:	bd70      	pop	{r4, r5, r6, pc}
     f50:	0000c3c0 	.word	0x0000c3c0
     f54:	0000c068 	.word	0x0000c068

00000f58 <GPIO_DebounceClock>:
     f58:	b570      	push	{r4, r5, r6, lr}
     f5a:	0004      	movs	r4, r0
     f5c:	000d      	movs	r5, r1
     f5e:	2802      	cmp	r0, #2
     f60:	d904      	bls.n	f6c <GPIO_DebounceClock+0x14>
     f62:	f240 11ef 	movw	r1, #495	; 0x1ef
     f66:	4805      	ldr	r0, [pc, #20]	; (f7c <GPIO_DebounceClock+0x24>)
     f68:	f7ff f8d4 	bl	114 <io_assert_failed>
     f6c:	217f      	movs	r1, #127	; 0x7f
     f6e:	4b04      	ldr	r3, [pc, #16]	; (f80 <GPIO_DebounceClock+0x28>)
     f70:	00a4      	lsls	r4, r4, #2
     f72:	58e3      	ldr	r3, [r4, r3]
     f74:	400d      	ands	r5, r1
     f76:	679d      	str	r5, [r3, #120]	; 0x78
     f78:	bd70      	pop	{r4, r5, r6, pc}
     f7a:	46c0      	nop			; (mov r8, r8)
     f7c:	0000c3ad 	.word	0x0000c3ad
     f80:	0000c068 	.word	0x0000c068

00000f84 <GPIO_LevelSync>:
     f84:	b570      	push	{r4, r5, r6, lr}
     f86:	0004      	movs	r4, r0
     f88:	000d      	movs	r5, r1
     f8a:	2802      	cmp	r0, #2
     f8c:	d904      	bls.n	f98 <GPIO_LevelSync+0x14>
     f8e:	f240 2108 	movw	r1, #520	; 0x208
     f92:	4806      	ldr	r0, [pc, #24]	; (fac <GPIO_LevelSync+0x28>)
     f94:	f7ff f8be 	bl	114 <io_assert_failed>
     f98:	4b05      	ldr	r3, [pc, #20]	; (fb0 <GPIO_LevelSync+0x2c>)
     f9a:	00a4      	lsls	r4, r4, #2
     f9c:	58e3      	ldr	r3, [r4, r3]
     f9e:	2d01      	cmp	r5, #1
     fa0:	d101      	bne.n	fa6 <GPIO_LevelSync+0x22>
     fa2:	661d      	str	r5, [r3, #96]	; 0x60
     fa4:	bd70      	pop	{r4, r5, r6, pc}
     fa6:	2200      	movs	r2, #0
     fa8:	661a      	str	r2, [r3, #96]	; 0x60
     faa:	e7fb      	b.n	fa4 <GPIO_LevelSync+0x20>
     fac:	0000c39e 	.word	0x0000c39e
     fb0:	0000c068 	.word	0x0000c068

00000fb4 <GPIO_UserRegIrq>:
     fb4:	b510      	push	{r4, lr}
     fb6:	241f      	movs	r4, #31
     fb8:	0643      	lsls	r3, r0, #25
     fba:	0f9b      	lsrs	r3, r3, #30
     fbc:	4020      	ands	r0, r4
     fbe:	0080      	lsls	r0, r0, #2
     fc0:	b923      	cbnz	r3, fcc <GPIO_UserRegIrq+0x18>
     fc2:	4b07      	ldr	r3, [pc, #28]	; (fe0 <GPIO_UserRegIrq+0x2c>)
     fc4:	5019      	str	r1, [r3, r0]
     fc6:	4b07      	ldr	r3, [pc, #28]	; (fe4 <GPIO_UserRegIrq+0x30>)
     fc8:	501a      	str	r2, [r3, r0]
     fca:	bd10      	pop	{r4, pc}
     fcc:	2b01      	cmp	r3, #1
     fce:	d103      	bne.n	fd8 <GPIO_UserRegIrq+0x24>
     fd0:	4b05      	ldr	r3, [pc, #20]	; (fe8 <GPIO_UserRegIrq+0x34>)
     fd2:	5019      	str	r1, [r3, r0]
     fd4:	4b05      	ldr	r3, [pc, #20]	; (fec <GPIO_UserRegIrq+0x38>)
     fd6:	e7f7      	b.n	fc8 <GPIO_UserRegIrq+0x14>
     fd8:	4b05      	ldr	r3, [pc, #20]	; (ff0 <GPIO_UserRegIrq+0x3c>)
     fda:	5019      	str	r1, [r3, r0]
     fdc:	4b05      	ldr	r3, [pc, #20]	; (ff4 <GPIO_UserRegIrq+0x40>)
     fde:	e7f3      	b.n	fc8 <GPIO_UserRegIrq+0x14>
     fe0:	2300054c 	.word	0x2300054c
     fe4:	230003cc 	.word	0x230003cc
     fe8:	230004cc 	.word	0x230004cc
     fec:	2300034c 	.word	0x2300034c
     ff0:	2300044c 	.word	0x2300044c
     ff4:	230002cc 	.word	0x230002cc

00000ff8 <LOGUART_StructInit>:
     ff8:	2300      	movs	r3, #0
     ffa:	2201      	movs	r2, #1
     ffc:	2140      	movs	r1, #64	; 0x40
     ffe:	6003      	str	r3, [r0, #0]
    1000:	6083      	str	r3, [r0, #8]
    1002:	60c3      	str	r3, [r0, #12]
    1004:	6103      	str	r3, [r0, #16]
    1006:	6143      	str	r3, [r0, #20]
    1008:	6183      	str	r3, [r0, #24]
    100a:	61c3      	str	r3, [r0, #28]
    100c:	6283      	str	r3, [r0, #40]	; 0x28
    100e:	6303      	str	r3, [r0, #48]	; 0x30
    1010:	6343      	str	r3, [r0, #52]	; 0x34
    1012:	6383      	str	r3, [r0, #56]	; 0x38
    1014:	63c3      	str	r3, [r0, #60]	; 0x3c
    1016:	3307      	adds	r3, #7
    1018:	6403      	str	r3, [r0, #64]	; 0x40
    101a:	33f8      	adds	r3, #248	; 0xf8
    101c:	6042      	str	r2, [r0, #4]
    101e:	6241      	str	r1, [r0, #36]	; 0x24
    1020:	6202      	str	r2, [r0, #32]
    1022:	62c2      	str	r2, [r0, #44]	; 0x2c
    1024:	6442      	str	r2, [r0, #68]	; 0x44
    1026:	6483      	str	r3, [r0, #72]	; 0x48
    1028:	4770      	bx	lr

0000102a <LOGUART_SetBaud>:
    102a:	b573      	push	{r0, r1, r4, r5, r6, lr}
    102c:	000d      	movs	r5, r1
    102e:	0004      	movs	r4, r0
    1030:	4b1c      	ldr	r3, [pc, #112]	; (10a4 <LOGUART_SetBaud+0x7a>)
    1032:	4798      	blx	r3
    1034:	466a      	mov	r2, sp
    1036:	0029      	movs	r1, r5
    1038:	ab01      	add	r3, sp, #4
    103a:	4d1b      	ldr	r5, [pc, #108]	; (10a8 <LOGUART_SetBaud+0x7e>)
    103c:	47a8      	blx	r5
    103e:	2080      	movs	r0, #128	; 0x80
    1040:	68e3      	ldr	r3, [r4, #12]
    1042:	491a      	ldr	r1, [pc, #104]	; (10ac <LOGUART_SetBaud+0x82>)
    1044:	4303      	orrs	r3, r0
    1046:	60e3      	str	r3, [r4, #12]
    1048:	69e3      	ldr	r3, [r4, #28]
    104a:	4d19      	ldr	r5, [pc, #100]	; (10b0 <LOGUART_SetBaud+0x86>)
    104c:	4303      	orrs	r3, r0
    104e:	61e3      	str	r3, [r4, #28]
    1050:	6a22      	ldr	r2, [r4, #32]
    1052:	9b00      	ldr	r3, [sp, #0]
    1054:	4011      	ands	r1, r2
    1056:	011a      	lsls	r2, r3, #4
    1058:	402a      	ands	r2, r5
    105a:	430a      	orrs	r2, r1
    105c:	6222      	str	r2, [r4, #32]
    105e:	69e1      	ldr	r1, [r4, #28]
    1060:	9a01      	ldr	r2, [sp, #4]
    1062:	4d14      	ldr	r5, [pc, #80]	; (10b4 <LOGUART_SetBaud+0x8a>)
    1064:	4e14      	ldr	r6, [pc, #80]	; (10b8 <LOGUART_SetBaud+0x8e>)
    1066:	400d      	ands	r5, r1
    1068:	0411      	lsls	r1, r2, #16
    106a:	4031      	ands	r1, r6
    106c:	4329      	orrs	r1, r5
    106e:	61e1      	str	r1, [r4, #28]
    1070:	68e1      	ldr	r1, [r4, #12]
    1072:	00d2      	lsls	r2, r2, #3
    1074:	4381      	bics	r1, r0
    1076:	60e1      	str	r1, [r4, #12]
    1078:	6ca1      	ldr	r1, [r4, #72]	; 0x48
    107a:	4810      	ldr	r0, [pc, #64]	; (10bc <LOGUART_SetBaud+0x92>)
    107c:	0d09      	lsrs	r1, r1, #20
    107e:	0509      	lsls	r1, r1, #20
    1080:	4319      	orrs	r1, r3
    1082:	64a1      	str	r1, [r4, #72]	; 0x48
    1084:	6c61      	ldr	r1, [r4, #68]	; 0x44
    1086:	025b      	lsls	r3, r3, #9
    1088:	4001      	ands	r1, r0
    108a:	480d      	ldr	r0, [pc, #52]	; (10c0 <LOGUART_SetBaud+0x96>)
    108c:	4003      	ands	r3, r0
    108e:	430b      	orrs	r3, r1
    1090:	6463      	str	r3, [r4, #68]	; 0x44
    1092:	6c23      	ldr	r3, [r4, #64]	; 0x40
    1094:	490b      	ldr	r1, [pc, #44]	; (10c4 <LOGUART_SetBaud+0x9a>)
    1096:	400b      	ands	r3, r1
    1098:	f643 71f8 	movw	r1, #16376	; 0x3ff8
    109c:	400a      	ands	r2, r1
    109e:	431a      	orrs	r2, r3
    10a0:	6422      	str	r2, [r4, #64]	; 0x40
    10a2:	bd73      	pop	{r0, r1, r4, r5, r6, pc}
    10a4:	000001c9 	.word	0x000001c9
    10a8:	00002e4b 	.word	0x00002e4b
    10ac:	ff00000f 	.word	0xff00000f
    10b0:	00fffff0 	.word	0x00fffff0
    10b4:	f800ffff 	.word	0xf800ffff
    10b8:	07ff0000 	.word	0x07ff0000
    10bc:	e00001ff 	.word	0xe00001ff
    10c0:	1ffffe00 	.word	0x1ffffe00
    10c4:	ffffc007 	.word	0xffffc007

000010c8 <LOGUART_RxCmd>:
    10c8:	2304      	movs	r3, #4
    10ca:	6c02      	ldr	r2, [r0, #64]	; 0x40
    10cc:	b111      	cbz	r1, 10d4 <LOGUART_RxCmd+0xc>
    10ce:	4313      	orrs	r3, r2
    10d0:	6403      	str	r3, [r0, #64]	; 0x40
    10d2:	4770      	bx	lr
    10d4:	439a      	bics	r2, r3
    10d6:	6402      	str	r2, [r0, #64]	; 0x40
    10d8:	e7fb      	b.n	10d2 <LOGUART_RxCmd+0xa>

000010da <LOGUART_AGGCmd>:
    10da:	b129      	cbz	r1, 10e8 <LOGUART_AGGCmd+0xe>
    10dc:	2380      	movs	r3, #128	; 0x80
    10de:	6d82      	ldr	r2, [r0, #88]	; 0x58
    10e0:	04db      	lsls	r3, r3, #19
    10e2:	4313      	orrs	r3, r2
    10e4:	6583      	str	r3, [r0, #88]	; 0x58
    10e6:	4770      	bx	lr
    10e8:	6d83      	ldr	r3, [r0, #88]	; 0x58
    10ea:	4a01      	ldr	r2, [pc, #4]	; (10f0 <LOGUART_AGGCmd+0x16>)
    10ec:	4013      	ands	r3, r2
    10ee:	e7f9      	b.n	10e4 <LOGUART_AGGCmd+0xa>
    10f0:	fbffffff 	.word	0xfbffffff

000010f4 <LOGUART_AGGPathCmd>:
    10f4:	1e4b      	subs	r3, r1, #1
    10f6:	b570      	push	{r4, r5, r6, lr}
    10f8:	0006      	movs	r6, r0
    10fa:	000c      	movs	r4, r1
    10fc:	0015      	movs	r5, r2
    10fe:	2b04      	cmp	r3, #4
    1100:	d904      	bls.n	110c <LOGUART_AGGPathCmd+0x18>
    1102:	f240 1147 	movw	r1, #327	; 0x147
    1106:	481a      	ldr	r0, [pc, #104]	; (1170 <LOGUART_AGGPathCmd+0x7c>)
    1108:	f7ff f804 	bl	114 <io_assert_failed>
    110c:	6db3      	ldr	r3, [r6, #88]	; 0x58
    110e:	2c03      	cmp	r4, #3
    1110:	d01f      	beq.n	1152 <LOGUART_AGGPathCmd+0x5e>
    1112:	d808      	bhi.n	1126 <LOGUART_AGGPathCmd+0x32>
    1114:	2c01      	cmp	r4, #1
    1116:	d00e      	beq.n	1136 <LOGUART_AGGPathCmd+0x42>
    1118:	2c02      	cmp	r4, #2
    111a:	d014      	beq.n	1146 <LOGUART_AGGPathCmd+0x52>
    111c:	65b3      	str	r3, [r6, #88]	; 0x58
    111e:	2001      	movs	r0, #1
    1120:	4b14      	ldr	r3, [pc, #80]	; (1174 <LOGUART_AGGPathCmd+0x80>)
    1122:	4798      	blx	r3
    1124:	bd70      	pop	{r4, r5, r6, pc}
    1126:	2c04      	cmp	r4, #4
    1128:	d019      	beq.n	115e <LOGUART_AGGPathCmd+0x6a>
    112a:	2c05      	cmp	r4, #5
    112c:	d1f6      	bne.n	111c <LOGUART_AGGPathCmd+0x28>
    112e:	b1e5      	cbz	r5, 116a <LOGUART_AGGPathCmd+0x76>
    1130:	2280      	movs	r2, #128	; 0x80
    1132:	0612      	lsls	r2, r2, #24
    1134:	e002      	b.n	113c <LOGUART_AGGPathCmd+0x48>
    1136:	b11d      	cbz	r5, 1140 <LOGUART_AGGPathCmd+0x4c>
    1138:	2280      	movs	r2, #128	; 0x80
    113a:	0512      	lsls	r2, r2, #20
    113c:	4313      	orrs	r3, r2
    113e:	e7ed      	b.n	111c <LOGUART_AGGPathCmd+0x28>
    1140:	4a0d      	ldr	r2, [pc, #52]	; (1178 <LOGUART_AGGPathCmd+0x84>)
    1142:	4013      	ands	r3, r2
    1144:	e7ea      	b.n	111c <LOGUART_AGGPathCmd+0x28>
    1146:	b115      	cbz	r5, 114e <LOGUART_AGGPathCmd+0x5a>
    1148:	2280      	movs	r2, #128	; 0x80
    114a:	0552      	lsls	r2, r2, #21
    114c:	e7f6      	b.n	113c <LOGUART_AGGPathCmd+0x48>
    114e:	4a0b      	ldr	r2, [pc, #44]	; (117c <LOGUART_AGGPathCmd+0x88>)
    1150:	e7f7      	b.n	1142 <LOGUART_AGGPathCmd+0x4e>
    1152:	b115      	cbz	r5, 115a <LOGUART_AGGPathCmd+0x66>
    1154:	2280      	movs	r2, #128	; 0x80
    1156:	0592      	lsls	r2, r2, #22
    1158:	e7f0      	b.n	113c <LOGUART_AGGPathCmd+0x48>
    115a:	4a09      	ldr	r2, [pc, #36]	; (1180 <LOGUART_AGGPathCmd+0x8c>)
    115c:	e7f1      	b.n	1142 <LOGUART_AGGPathCmd+0x4e>
    115e:	b115      	cbz	r5, 1166 <LOGUART_AGGPathCmd+0x72>
    1160:	2280      	movs	r2, #128	; 0x80
    1162:	05d2      	lsls	r2, r2, #23
    1164:	e7ea      	b.n	113c <LOGUART_AGGPathCmd+0x48>
    1166:	4a07      	ldr	r2, [pc, #28]	; (1184 <LOGUART_AGGPathCmd+0x90>)
    1168:	e7eb      	b.n	1142 <LOGUART_AGGPathCmd+0x4e>
    116a:	005b      	lsls	r3, r3, #1
    116c:	085b      	lsrs	r3, r3, #1
    116e:	e7d5      	b.n	111c <LOGUART_AGGPathCmd+0x28>
    1170:	0000c456 	.word	0x0000c456
    1174:	0000030b 	.word	0x0000030b
    1178:	f7ffffff 	.word	0xf7ffffff
    117c:	efffffff 	.word	0xefffffff
    1180:	dfffffff 	.word	0xdfffffff
    1184:	bfffffff 	.word	0xbfffffff

00001188 <LOGUART_AGGSetTimeOut>:
    1188:	6d83      	ldr	r3, [r0, #88]	; 0x58
    118a:	4a04      	ldr	r2, [pc, #16]	; (119c <LOGUART_AGGSetTimeOut+0x14>)
    118c:	0309      	lsls	r1, r1, #12
    118e:	4013      	ands	r3, r2
    1190:	4a03      	ldr	r2, [pc, #12]	; (11a0 <LOGUART_AGGSetTimeOut+0x18>)
    1192:	4011      	ands	r1, r2
    1194:	4319      	orrs	r1, r3
    1196:	6581      	str	r1, [r0, #88]	; 0x58
    1198:	4770      	bx	lr
    119a:	46c0      	nop			; (mov r8, r8)
    119c:	fc000fff 	.word	0xfc000fff
    11a0:	03fff000 	.word	0x03fff000

000011a4 <LOGUART_AGGSetThreshold>:
    11a4:	b570      	push	{r4, r5, r6, lr}
    11a6:	0005      	movs	r5, r0
    11a8:	000c      	movs	r4, r1
    11aa:	2907      	cmp	r1, #7
    11ac:	d904      	bls.n	11b8 <LOGUART_AGGSetThreshold+0x14>
    11ae:	f240 119d 	movw	r1, #413	; 0x19d
    11b2:	4806      	ldr	r0, [pc, #24]	; (11cc <LOGUART_AGGSetThreshold+0x28>)
    11b4:	f7fe ffae 	bl	114 <io_assert_failed>
    11b8:	6dab      	ldr	r3, [r5, #88]	; 0x58
    11ba:	4905      	ldr	r1, [pc, #20]	; (11d0 <LOGUART_AGGSetThreshold+0x2c>)
    11bc:	0224      	lsls	r4, r4, #8
    11be:	400b      	ands	r3, r1
    11c0:	f640 7100 	movw	r1, #3840	; 0xf00
    11c4:	400c      	ands	r4, r1
    11c6:	431c      	orrs	r4, r3
    11c8:	65ac      	str	r4, [r5, #88]	; 0x58
    11ca:	bd70      	pop	{r4, r5, r6, pc}
    11cc:	0000c43e 	.word	0x0000c43e
    11d0:	fffff0ff 	.word	0xfffff0ff

000011d4 <LOGUART_AGGSetSyncPattern>:
    11d4:	22ff      	movs	r2, #255	; 0xff
    11d6:	6d83      	ldr	r3, [r0, #88]	; 0x58
    11d8:	4011      	ands	r1, r2
    11da:	4393      	bics	r3, r2
    11dc:	4319      	orrs	r1, r3
    11de:	6581      	str	r1, [r0, #88]	; 0x58
    11e0:	4770      	bx	lr

000011e2 <LOGUART_AGGPathAllCmd>:
    11e2:	b510      	push	{r4, lr}
    11e4:	6d82      	ldr	r2, [r0, #88]	; 0x58
    11e6:	b139      	cbz	r1, 11f8 <LOGUART_AGGPathAllCmd+0x16>
    11e8:	23f8      	movs	r3, #248	; 0xf8
    11ea:	061b      	lsls	r3, r3, #24
    11ec:	4313      	orrs	r3, r2
    11ee:	6583      	str	r3, [r0, #88]	; 0x58
    11f0:	2001      	movs	r0, #1
    11f2:	4b03      	ldr	r3, [pc, #12]	; (1200 <LOGUART_AGGPathAllCmd+0x1e>)
    11f4:	4798      	blx	r3
    11f6:	bd10      	pop	{r4, pc}
    11f8:	0153      	lsls	r3, r2, #5
    11fa:	095b      	lsrs	r3, r3, #5
    11fc:	e7f7      	b.n	11ee <LOGUART_AGGPathAllCmd+0xc>
    11fe:	46c0      	nop			; (mov r8, r8)
    1200:	0000030b 	.word	0x0000030b

00001204 <LOGUART_PutChar>:
    1204:	4b11      	ldr	r3, [pc, #68]	; (124c <LOGUART_PutChar+0x48>)
    1206:	4a12      	ldr	r2, [pc, #72]	; (1250 <LOGUART_PutChar+0x4c>)
    1208:	681b      	ldr	r3, [r3, #0]
    120a:	6812      	ldr	r2, [r2, #0]
    120c:	061b      	lsls	r3, r3, #24
    120e:	b5f0      	push	{r4, r5, r6, r7, lr}
    1210:	0f9b      	lsrs	r3, r3, #30
    1212:	2a01      	cmp	r2, #1
    1214:	d019      	beq.n	124a <LOGUART_PutChar+0x46>
    1216:	2214      	movs	r2, #20
    1218:	435a      	muls	r2, r3
    121a:	490e      	ldr	r1, [pc, #56]	; (1254 <LOGUART_PutChar+0x50>)
    121c:	4d0e      	ldr	r5, [pc, #56]	; (1258 <LOGUART_PutChar+0x54>)
    121e:	1852      	adds	r2, r2, r1
    1220:	2100      	movs	r1, #0
    1222:	68d6      	ldr	r6, [r2, #12]
    1224:	3101      	adds	r1, #1
    1226:	428e      	cmp	r6, r1
    1228:	d903      	bls.n	1232 <LOGUART_PutChar+0x2e>
    122a:	696c      	ldr	r4, [r5, #20]
    122c:	6857      	ldr	r7, [r2, #4]
    122e:	4227      	tst	r7, r4
    1230:	d0f8      	beq.n	1224 <LOGUART_PutChar+0x20>
    1232:	2214      	movs	r2, #20
    1234:	4353      	muls	r3, r2
    1236:	4a07      	ldr	r2, [pc, #28]	; (1254 <LOGUART_PutChar+0x50>)
    1238:	589b      	ldr	r3, [r3, r2]
    123a:	4a07      	ldr	r2, [pc, #28]	; (1258 <LOGUART_PutChar+0x54>)
    123c:	009b      	lsls	r3, r3, #2
    123e:	189b      	adds	r3, r3, r2
    1240:	65d8      	str	r0, [r3, #92]	; 0x5c
    1242:	280a      	cmp	r0, #10
    1244:	d101      	bne.n	124a <LOGUART_PutChar+0x46>
    1246:	220d      	movs	r2, #13
    1248:	65da      	str	r2, [r3, #92]	; 0x5c
    124a:	bdf0      	pop	{r4, r5, r6, r7, pc}
    124c:	4200827c 	.word	0x4200827c
    1250:	230005cc 	.word	0x230005cc
    1254:	0000c074 	.word	0x0000c074
    1258:	4200c000 	.word	0x4200c000

0000125c <LOGUART_GetChar>:
    125c:	4b04      	ldr	r3, [pc, #16]	; (1270 <LOGUART_GetChar+0x14>)
    125e:	b118      	cbz	r0, 1268 <LOGUART_GetChar+0xc>
    1260:	2201      	movs	r2, #1
    1262:	6959      	ldr	r1, [r3, #20]
    1264:	4211      	tst	r1, r2
    1266:	d0fc      	beq.n	1262 <LOGUART_GetChar+0x6>
    1268:	6a58      	ldr	r0, [r3, #36]	; 0x24
    126a:	b2c0      	uxtb	r0, r0
    126c:	4770      	bx	lr
    126e:	46c0      	nop			; (mov r8, r8)
    1270:	4200c000 	.word	0x4200c000

00001274 <LOGUART_Readable>:
    1274:	4b02      	ldr	r3, [pc, #8]	; (1280 <LOGUART_Readable+0xc>)
    1276:	6958      	ldr	r0, [r3, #20]
    1278:	2301      	movs	r3, #1
    127a:	4018      	ands	r0, r3
    127c:	4770      	bx	lr
    127e:	46c0      	nop			; (mov r8, r8)
    1280:	4200c000 	.word	0x4200c000

00001284 <LOGUART_GetRxCount>:
    1284:	4b01      	ldr	r3, [pc, #4]	; (128c <LOGUART_GetRxCount+0x8>)
    1286:	6958      	ldr	r0, [r3, #20]
    1288:	0e00      	lsrs	r0, r0, #24
    128a:	4770      	bx	lr
    128c:	4200c000 	.word	0x4200c000

00001290 <LOGUART_GetIMR>:
    1290:	4b01      	ldr	r3, [pc, #4]	; (1298 <LOGUART_GetIMR+0x8>)
    1292:	6858      	ldr	r0, [r3, #4]
    1294:	4770      	bx	lr
    1296:	46c0      	nop			; (mov r8, r8)
    1298:	4200c000 	.word	0x4200c000

0000129c <LOGUART_SetIMR>:
    129c:	4b01      	ldr	r3, [pc, #4]	; (12a4 <LOGUART_SetIMR+0x8>)
    129e:	6058      	str	r0, [r3, #4]
    12a0:	4770      	bx	lr
    12a2:	46c0      	nop			; (mov r8, r8)
    12a4:	4200c000 	.word	0x4200c000

000012a8 <LOGUART_INTConfig>:
    12a8:	6843      	ldr	r3, [r0, #4]
    12aa:	2a01      	cmp	r2, #1
    12ac:	d102      	bne.n	12b4 <LOGUART_INTConfig+0xc>
    12ae:	4319      	orrs	r1, r3
    12b0:	6041      	str	r1, [r0, #4]
    12b2:	4770      	bx	lr
    12b4:	438b      	bics	r3, r1
    12b6:	6043      	str	r3, [r0, #4]
    12b8:	e7fb      	b.n	12b2 <LOGUART_INTConfig+0xa>

000012ba <LOGUART_INTClear>:
    12ba:	6f43      	ldr	r3, [r0, #116]	; 0x74
    12bc:	430b      	orrs	r3, r1
    12be:	6743      	str	r3, [r0, #116]	; 0x74
    12c0:	4770      	bx	lr

000012c2 <LOGUART_GetStatus>:
    12c2:	6940      	ldr	r0, [r0, #20]
    12c4:	4770      	bx	lr

000012c6 <LOGUART_ClearRxFifo>:
    12c6:	2202      	movs	r2, #2
    12c8:	6d41      	ldr	r1, [r0, #84]	; 0x54
    12ca:	0003      	movs	r3, r0
    12cc:	430a      	orrs	r2, r1
    12ce:	6542      	str	r2, [r0, #84]	; 0x54
    12d0:	2005      	movs	r0, #5
    12d2:	2201      	movs	r2, #1
    12d4:	6959      	ldr	r1, [r3, #20]
    12d6:	4211      	tst	r1, r2
    12d8:	d003      	beq.n	12e2 <LOGUART_ClearRxFifo+0x1c>
    12da:	3801      	subs	r0, #1
    12dc:	2800      	cmp	r0, #0
    12de:	d1f9      	bne.n	12d4 <LOGUART_ClearRxFifo+0xe>
    12e0:	4770      	bx	lr
    12e2:	2001      	movs	r0, #1
    12e4:	e7fc      	b.n	12e0 <LOGUART_ClearRxFifo+0x1a>

000012e6 <_LOGUART_Init>:
    12e6:	23c0      	movs	r3, #192	; 0xc0
    12e8:	69ca      	ldr	r2, [r1, #28]
    12ea:	b570      	push	{r4, r5, r6, lr}
    12ec:	439a      	bics	r2, r3
    12ee:	0005      	movs	r5, r0
    12f0:	000c      	movs	r4, r1
    12f2:	b11a      	cbz	r2, 12fc <_LOGUART_Init+0x16>
    12f4:	214c      	movs	r1, #76	; 0x4c
    12f6:	4851      	ldr	r0, [pc, #324]	; (143c <_LOGUART_Init+0x156>)
    12f8:	f7fe ff0c 	bl	114 <io_assert_failed>
    12fc:	6a23      	ldr	r3, [r4, #32]
    12fe:	2b01      	cmp	r3, #1
    1300:	d903      	bls.n	130a <_LOGUART_Init+0x24>
    1302:	214d      	movs	r1, #77	; 0x4d
    1304:	484d      	ldr	r0, [pc, #308]	; (143c <_LOGUART_Init+0x156>)
    1306:	f7fe ff05 	bl	114 <io_assert_failed>
    130a:	6c23      	ldr	r3, [r4, #64]	; 0x40
    130c:	2b07      	cmp	r3, #7
    130e:	d903      	bls.n	1318 <_LOGUART_Init+0x32>
    1310:	214e      	movs	r1, #78	; 0x4e
    1312:	484a      	ldr	r0, [pc, #296]	; (143c <_LOGUART_Init+0x156>)
    1314:	f7fe fefe 	bl	114 <io_assert_failed>
    1318:	2204      	movs	r2, #4
    131a:	6c2b      	ldr	r3, [r5, #64]	; 0x40
    131c:	0028      	movs	r0, r5
    131e:	4393      	bics	r3, r2
    1320:	642b      	str	r3, [r5, #64]	; 0x40
    1322:	4b47      	ldr	r3, [pc, #284]	; (1440 <_LOGUART_Init+0x15a>)
    1324:	4798      	blx	r3
    1326:	2300      	movs	r3, #0
    1328:	606b      	str	r3, [r5, #4]
    132a:	69ea      	ldr	r2, [r5, #28]
    132c:	3380      	adds	r3, #128	; 0x80
    132e:	4313      	orrs	r3, r2
    1330:	22c1      	movs	r2, #193	; 0xc1
    1332:	61eb      	str	r3, [r5, #28]
    1334:	6d6b      	ldr	r3, [r5, #84]	; 0x54
    1336:	4393      	bics	r3, r2
    1338:	69e2      	ldr	r2, [r4, #28]
    133a:	4313      	orrs	r3, r2
    133c:	6a22      	ldr	r2, [r4, #32]
    133e:	4313      	orrs	r3, r2
    1340:	69a2      	ldr	r2, [r4, #24]
    1342:	656b      	str	r3, [r5, #84]	; 0x54
    1344:	2321      	movs	r3, #33	; 0x21
    1346:	2a01      	cmp	r2, #1
    1348:	d15e      	bne.n	1408 <_LOGUART_Init+0x122>
    134a:	692a      	ldr	r2, [r5, #16]
    134c:	4313      	orrs	r3, r2
    134e:	612b      	str	r3, [r5, #16]
    1350:	2204      	movs	r2, #4
    1352:	2108      	movs	r1, #8
    1354:	2010      	movs	r0, #16
    1356:	68a3      	ldr	r3, [r4, #8]
    1358:	009b      	lsls	r3, r3, #2
    135a:	4013      	ands	r3, r2
    135c:	68e2      	ldr	r2, [r4, #12]
    135e:	00d2      	lsls	r2, r2, #3
    1360:	400a      	ands	r2, r1
    1362:	4313      	orrs	r3, r2
    1364:	6862      	ldr	r2, [r4, #4]
    1366:	4313      	orrs	r3, r2
    1368:	6922      	ldr	r2, [r4, #16]
    136a:	0112      	lsls	r2, r2, #4
    136c:	4002      	ands	r2, r0
    136e:	4313      	orrs	r3, r2
    1370:	6962      	ldr	r2, [r4, #20]
    1372:	1800      	adds	r0, r0, r0
    1374:	0152      	lsls	r2, r2, #5
    1376:	4002      	ands	r2, r0
    1378:	4313      	orrs	r3, r2
    137a:	60eb      	str	r3, [r5, #12]
    137c:	6823      	ldr	r3, [r4, #0]
    137e:	2b00      	cmp	r3, #0
    1380:	d046      	beq.n	1410 <_LOGUART_Init+0x12a>
    1382:	6d6b      	ldr	r3, [r5, #84]	; 0x54
    1384:	4319      	orrs	r1, r3
    1386:	6569      	str	r1, [r5, #84]	; 0x54
    1388:	6c2a      	ldr	r2, [r5, #64]	; 0x40
    138a:	6a63      	ldr	r3, [r4, #36]	; 0x24
    138c:	b292      	uxth	r2, r2
    138e:	041b      	lsls	r3, r3, #16
    1390:	4313      	orrs	r3, r2
    1392:	6aa2      	ldr	r2, [r4, #40]	; 0x28
    1394:	642b      	str	r3, [r5, #64]	; 0x40
    1396:	6dab      	ldr	r3, [r5, #88]	; 0x58
    1398:	2a00      	cmp	r2, #0
    139a:	d03d      	beq.n	1418 <_LOGUART_Init+0x132>
    139c:	2280      	movs	r2, #128	; 0x80
    139e:	04d2      	lsls	r2, r2, #19
    13a0:	4313      	orrs	r3, r2
    13a2:	6ae2      	ldr	r2, [r4, #44]	; 0x2c
    13a4:	2a00      	cmp	r2, #0
    13a6:	d03a      	beq.n	141e <_LOGUART_Init+0x138>
    13a8:	2280      	movs	r2, #128	; 0x80
    13aa:	0512      	lsls	r2, r2, #20
    13ac:	4313      	orrs	r3, r2
    13ae:	6b22      	ldr	r2, [r4, #48]	; 0x30
    13b0:	2a00      	cmp	r2, #0
    13b2:	d037      	beq.n	1424 <_LOGUART_Init+0x13e>
    13b4:	2280      	movs	r2, #128	; 0x80
    13b6:	0552      	lsls	r2, r2, #21
    13b8:	4313      	orrs	r3, r2
    13ba:	6b62      	ldr	r2, [r4, #52]	; 0x34
    13bc:	2a00      	cmp	r2, #0
    13be:	d034      	beq.n	142a <_LOGUART_Init+0x144>
    13c0:	2280      	movs	r2, #128	; 0x80
    13c2:	0592      	lsls	r2, r2, #22
    13c4:	4313      	orrs	r3, r2
    13c6:	6ba2      	ldr	r2, [r4, #56]	; 0x38
    13c8:	2a00      	cmp	r2, #0
    13ca:	d031      	beq.n	1430 <_LOGUART_Init+0x14a>
    13cc:	2280      	movs	r2, #128	; 0x80
    13ce:	05d2      	lsls	r2, r2, #23
    13d0:	4313      	orrs	r3, r2
    13d2:	6be2      	ldr	r2, [r4, #60]	; 0x3c
    13d4:	2a00      	cmp	r2, #0
    13d6:	d02e      	beq.n	1436 <_LOGUART_Init+0x150>
    13d8:	2280      	movs	r2, #128	; 0x80
    13da:	0612      	lsls	r2, r2, #24
    13dc:	4313      	orrs	r3, r2
    13de:	4a19      	ldr	r2, [pc, #100]	; (1444 <_LOGUART_Init+0x15e>)
    13e0:	4919      	ldr	r1, [pc, #100]	; (1448 <_LOGUART_Init+0x162>)
    13e2:	4013      	ands	r3, r2
    13e4:	6c62      	ldr	r2, [r4, #68]	; 0x44
    13e6:	0312      	lsls	r2, r2, #12
    13e8:	400a      	ands	r2, r1
    13ea:	f640 7100 	movw	r1, #3840	; 0xf00
    13ee:	4313      	orrs	r3, r2
    13f0:	4a16      	ldr	r2, [pc, #88]	; (144c <_LOGUART_Init+0x166>)
    13f2:	401a      	ands	r2, r3
    13f4:	6c23      	ldr	r3, [r4, #64]	; 0x40
    13f6:	021b      	lsls	r3, r3, #8
    13f8:	400b      	ands	r3, r1
    13fa:	4313      	orrs	r3, r2
    13fc:	22ff      	movs	r2, #255	; 0xff
    13fe:	4393      	bics	r3, r2
    1400:	6ca2      	ldr	r2, [r4, #72]	; 0x48
    1402:	4313      	orrs	r3, r2
    1404:	65ab      	str	r3, [r5, #88]	; 0x58
    1406:	bd70      	pop	{r4, r5, r6, pc}
    1408:	692a      	ldr	r2, [r5, #16]
    140a:	439a      	bics	r2, r3
    140c:	612a      	str	r2, [r5, #16]
    140e:	e79f      	b.n	1350 <_LOGUART_Init+0x6a>
    1410:	6d6b      	ldr	r3, [r5, #84]	; 0x54
    1412:	438b      	bics	r3, r1
    1414:	656b      	str	r3, [r5, #84]	; 0x54
    1416:	e7b7      	b.n	1388 <_LOGUART_Init+0xa2>
    1418:	4a0d      	ldr	r2, [pc, #52]	; (1450 <_LOGUART_Init+0x16a>)
    141a:	4013      	ands	r3, r2
    141c:	e7c1      	b.n	13a2 <_LOGUART_Init+0xbc>
    141e:	4a0d      	ldr	r2, [pc, #52]	; (1454 <_LOGUART_Init+0x16e>)
    1420:	4013      	ands	r3, r2
    1422:	e7c4      	b.n	13ae <_LOGUART_Init+0xc8>
    1424:	4a0c      	ldr	r2, [pc, #48]	; (1458 <_LOGUART_Init+0x172>)
    1426:	4013      	ands	r3, r2
    1428:	e7c7      	b.n	13ba <_LOGUART_Init+0xd4>
    142a:	4a0c      	ldr	r2, [pc, #48]	; (145c <_LOGUART_Init+0x176>)
    142c:	4013      	ands	r3, r2
    142e:	e7ca      	b.n	13c6 <_LOGUART_Init+0xe0>
    1430:	4a0b      	ldr	r2, [pc, #44]	; (1460 <_LOGUART_Init+0x17a>)
    1432:	4013      	ands	r3, r2
    1434:	e7cd      	b.n	13d2 <_LOGUART_Init+0xec>
    1436:	005b      	lsls	r3, r3, #1
    1438:	085b      	lsrs	r3, r3, #1
    143a:	e7d0      	b.n	13de <_LOGUART_Init+0xf8>
    143c:	0000c469 	.word	0x0000c469
    1440:	000012c7 	.word	0x000012c7
    1444:	fc000fff 	.word	0xfc000fff
    1448:	03fff000 	.word	0x03fff000
    144c:	fffff0ff 	.word	0xfffff0ff
    1450:	fbffffff 	.word	0xfbffffff
    1454:	f7ffffff 	.word	0xf7ffffff
    1458:	efffffff 	.word	0xefffffff
    145c:	dfffffff 	.word	0xdfffffff
    1460:	bfffffff 	.word	0xbfffffff

00001464 <LOGUART_Init>:
    1464:	0001      	movs	r1, r0
    1466:	b510      	push	{r4, lr}
    1468:	480e      	ldr	r0, [pc, #56]	; (14a4 <LOGUART_Init+0x40>)
    146a:	f7ff ff3c 	bl	12e6 <_LOGUART_Init>
    146e:	4b0e      	ldr	r3, [pc, #56]	; (14a8 <LOGUART_Init+0x44>)
    1470:	4798      	blx	r3
    1472:	4c0e      	ldr	r4, [pc, #56]	; (14ac <LOGUART_Init+0x48>)
    1474:	2802      	cmp	r0, #2
    1476:	d10c      	bne.n	1492 <LOGUART_Init+0x2e>
    1478:	490d      	ldr	r1, [pc, #52]	; (14b0 <LOGUART_Init+0x4c>)
    147a:	480a      	ldr	r0, [pc, #40]	; (14a4 <LOGUART_Init+0x40>)
    147c:	47a0      	blx	r4
    147e:	2201      	movs	r2, #1
    1480:	4808      	ldr	r0, [pc, #32]	; (14a4 <LOGUART_Init+0x40>)
    1482:	0011      	movs	r1, r2
    1484:	4b0b      	ldr	r3, [pc, #44]	; (14b4 <LOGUART_Init+0x50>)
    1486:	4798      	blx	r3
    1488:	2101      	movs	r1, #1
    148a:	4806      	ldr	r0, [pc, #24]	; (14a4 <LOGUART_Init+0x40>)
    148c:	4b0a      	ldr	r3, [pc, #40]	; (14b8 <LOGUART_Init+0x54>)
    148e:	4798      	blx	r3
    1490:	bd10      	pop	{r4, pc}
    1492:	4b0a      	ldr	r3, [pc, #40]	; (14bc <LOGUART_Init+0x58>)
    1494:	4798      	blx	r3
    1496:	2801      	cmp	r0, #1
    1498:	d102      	bne.n	14a0 <LOGUART_Init+0x3c>
    149a:	21e1      	movs	r1, #225	; 0xe1
    149c:	0249      	lsls	r1, r1, #9
    149e:	e7ec      	b.n	147a <LOGUART_Init+0x16>
    14a0:	4907      	ldr	r1, [pc, #28]	; (14c0 <LOGUART_Init+0x5c>)
    14a2:	e7ea      	b.n	147a <LOGUART_Init+0x16>
    14a4:	4200c000 	.word	0x4200c000
    14a8:	00001dbd 	.word	0x00001dbd
    14ac:	0000102b 	.word	0x0000102b
    14b0:	001e8480 	.word	0x001e8480
    14b4:	000012a9 	.word	0x000012a9
    14b8:	000010c9 	.word	0x000010c9
    14bc:	00001e2d 	.word	0x00001e2d
    14c0:	0016e360 	.word	0x0016e360

000014c4 <LOGUART_WaitBusy>:
    14c4:	4b09      	ldr	r3, [pc, #36]	; (14ec <LOGUART_WaitBusy+0x28>)
    14c6:	b510      	push	{r4, lr}
    14c8:	681c      	ldr	r4, [r3, #0]
    14ca:	0624      	lsls	r4, r4, #24
    14cc:	0fa3      	lsrs	r3, r4, #30
    14ce:	2414      	movs	r4, #20
    14d0:	435c      	muls	r4, r3
    14d2:	4b07      	ldr	r3, [pc, #28]	; (14f0 <LOGUART_WaitBusy+0x2c>)
    14d4:	18e4      	adds	r4, r4, r3
    14d6:	4b07      	ldr	r3, [pc, #28]	; (14f4 <LOGUART_WaitBusy+0x30>)
    14d8:	68a2      	ldr	r2, [r4, #8]
    14da:	695b      	ldr	r3, [r3, #20]
    14dc:	421a      	tst	r2, r3
    14de:	d103      	bne.n	14e8 <LOGUART_WaitBusy+0x24>
    14e0:	2064      	movs	r0, #100	; 0x64
    14e2:	4b05      	ldr	r3, [pc, #20]	; (14f8 <LOGUART_WaitBusy+0x34>)
    14e4:	4798      	blx	r3
    14e6:	e7f6      	b.n	14d6 <LOGUART_WaitBusy+0x12>
    14e8:	bd10      	pop	{r4, pc}
    14ea:	46c0      	nop			; (mov r8, r8)
    14ec:	4200827c 	.word	0x4200827c
    14f0:	0000c074 	.word	0x0000c074
    14f4:	4200c000 	.word	0x4200c000
    14f8:	0000030b 	.word	0x0000030b

000014fc <LOGUART_WaitTxComplete>:
    14fc:	b510      	push	{r4, lr}
    14fe:	4b07      	ldr	r3, [pc, #28]	; (151c <LOGUART_WaitTxComplete+0x20>)
    1500:	4a07      	ldr	r2, [pc, #28]	; (1520 <LOGUART_WaitTxComplete+0x24>)
    1502:	695b      	ldr	r3, [r3, #20]
    1504:	4013      	ands	r3, r2
    1506:	4a07      	ldr	r2, [pc, #28]	; (1524 <LOGUART_WaitTxComplete+0x28>)
    1508:	4293      	cmp	r3, r2
    150a:	d003      	beq.n	1514 <LOGUART_WaitTxComplete+0x18>
    150c:	2064      	movs	r0, #100	; 0x64
    150e:	4b06      	ldr	r3, [pc, #24]	; (1528 <LOGUART_WaitTxComplete+0x2c>)
    1510:	4798      	blx	r3
    1512:	e7f4      	b.n	14fe <LOGUART_WaitTxComplete+0x2>
    1514:	2003      	movs	r0, #3
    1516:	4b05      	ldr	r3, [pc, #20]	; (152c <LOGUART_WaitTxComplete+0x30>)
    1518:	4798      	blx	r3
    151a:	bd10      	pop	{r4, pc}
    151c:	4200c000 	.word	0x4200c000
    1520:	000f0140 	.word	0x000f0140
    1524:	000f0040 	.word	0x000f0040
    1528:	0000030b 	.word	0x0000030b
    152c:	00000381 	.word	0x00000381

00001530 <LOGUART_BT_SendData>:
    1530:	b570      	push	{r4, r5, r6, lr}
    1532:	2580      	movs	r5, #128	; 0x80
    1534:	2300      	movs	r3, #0
    1536:	4c08      	ldr	r4, [pc, #32]	; (1558 <LOGUART_BT_SendData+0x28>)
    1538:	4a08      	ldr	r2, [pc, #32]	; (155c <LOGUART_BT_SendData+0x2c>)
    153a:	1841      	adds	r1, r0, r1
    153c:	03ed      	lsls	r5, r5, #15
    153e:	4288      	cmp	r0, r1
    1540:	d100      	bne.n	1544 <LOGUART_BT_SendData+0x14>
    1542:	bd70      	pop	{r4, r5, r6, pc}
    1544:	3301      	adds	r3, #1
    1546:	42a3      	cmp	r3, r4
    1548:	d802      	bhi.n	1550 <LOGUART_BT_SendData+0x20>
    154a:	6956      	ldr	r6, [r2, #20]
    154c:	422e      	tst	r6, r5
    154e:	d0f9      	beq.n	1544 <LOGUART_BT_SendData+0x14>
    1550:	7806      	ldrb	r6, [r0, #0]
    1552:	3001      	adds	r0, #1
    1554:	6656      	str	r6, [r2, #100]	; 0x64
    1556:	e7f2      	b.n	153e <LOGUART_BT_SendData+0xe>
    1558:	000bee32 	.word	0x000bee32
    155c:	4200c000 	.word	0x4200c000

00001560 <LOGUART_Relay_StructInit>:
    1560:	2300      	movs	r3, #0
    1562:	2201      	movs	r2, #1
    1564:	6043      	str	r3, [r0, #4]
    1566:	6002      	str	r2, [r0, #0]
    1568:	6083      	str	r3, [r0, #8]
    156a:	60c3      	str	r3, [r0, #12]
    156c:	6103      	str	r3, [r0, #16]
    156e:	6142      	str	r2, [r0, #20]
    1570:	4770      	bx	lr

00001572 <LOGUART_Relay_SetFormat>:
    1572:	2204      	movs	r2, #4
    1574:	b510      	push	{r4, lr}
    1576:	2408      	movs	r4, #8
    1578:	684b      	ldr	r3, [r1, #4]
    157a:	009b      	lsls	r3, r3, #2
    157c:	4013      	ands	r3, r2
    157e:	688a      	ldr	r2, [r1, #8]
    1580:	00d2      	lsls	r2, r2, #3
    1582:	4022      	ands	r2, r4
    1584:	4313      	orrs	r3, r2
    1586:	680a      	ldr	r2, [r1, #0]
    1588:	1924      	adds	r4, r4, r4
    158a:	4313      	orrs	r3, r2
    158c:	68ca      	ldr	r2, [r1, #12]
    158e:	0112      	lsls	r2, r2, #4
    1590:	4022      	ands	r2, r4
    1592:	4313      	orrs	r3, r2
    1594:	690a      	ldr	r2, [r1, #16]
    1596:	3410      	adds	r4, #16
    1598:	0152      	lsls	r2, r2, #5
    159a:	4022      	ands	r2, r4
    159c:	4313      	orrs	r3, r2
    159e:	f241 0200 	movw	r2, #4096	; 0x1000
    15a2:	66c3      	str	r3, [r0, #108]	; 0x6c
    15a4:	6d43      	ldr	r3, [r0, #84]	; 0x54
    15a6:	4c05      	ldr	r4, [pc, #20]	; (15bc <LOGUART_Relay_SetFormat+0x4a>)
    15a8:	401c      	ands	r4, r3
    15aa:	694b      	ldr	r3, [r1, #20]
    15ac:	031b      	lsls	r3, r3, #12
    15ae:	4013      	ands	r3, r2
    15b0:	2202      	movs	r2, #2
    15b2:	4323      	orrs	r3, r4
    15b4:	4393      	bics	r3, r2
    15b6:	6543      	str	r3, [r0, #84]	; 0x54
    15b8:	bd10      	pop	{r4, pc}
    15ba:	46c0      	nop			; (mov r8, r8)
    15bc:	ffffefff 	.word	0xffffefff

000015c0 <LOGUART_Relay_SetBaud>:
    15c0:	b537      	push	{r0, r1, r2, r4, r5, lr}
    15c2:	000d      	movs	r5, r1
    15c4:	0004      	movs	r4, r0
    15c6:	4b0f      	ldr	r3, [pc, #60]	; (1604 <LOGUART_Relay_SetBaud+0x44>)
    15c8:	4798      	blx	r3
    15ca:	466a      	mov	r2, sp
    15cc:	0029      	movs	r1, r5
    15ce:	ab01      	add	r3, sp, #4
    15d0:	4d0d      	ldr	r5, [pc, #52]	; (1608 <LOGUART_Relay_SetBaud+0x48>)
    15d2:	47a8      	blx	r5
    15d4:	2180      	movs	r1, #128	; 0x80
    15d6:	6ee3      	ldr	r3, [r4, #108]	; 0x6c
    15d8:	430b      	orrs	r3, r1
    15da:	66e3      	str	r3, [r4, #108]	; 0x6c
    15dc:	6ee2      	ldr	r2, [r4, #108]	; 0x6c
    15de:	9b00      	ldr	r3, [sp, #0]
    15e0:	0512      	lsls	r2, r2, #20
    15e2:	0318      	lsls	r0, r3, #12
    15e4:	0d12      	lsrs	r2, r2, #20
    15e6:	4302      	orrs	r2, r0
    15e8:	66e2      	str	r2, [r4, #108]	; 0x6c
    15ea:	6f22      	ldr	r2, [r4, #112]	; 0x70
    15ec:	4807      	ldr	r0, [pc, #28]	; (160c <LOGUART_Relay_SetBaud+0x4c>)
    15ee:	00db      	lsls	r3, r3, #3
    15f0:	4002      	ands	r2, r0
    15f2:	f643 70f8 	movw	r0, #16376	; 0x3ff8
    15f6:	4003      	ands	r3, r0
    15f8:	4313      	orrs	r3, r2
    15fa:	6723      	str	r3, [r4, #112]	; 0x70
    15fc:	6ee3      	ldr	r3, [r4, #108]	; 0x6c
    15fe:	438b      	bics	r3, r1
    1600:	66e3      	str	r3, [r4, #108]	; 0x6c
    1602:	bd37      	pop	{r0, r1, r2, r4, r5, pc}
    1604:	000001c9 	.word	0x000001c9
    1608:	00002e4b 	.word	0x00002e4b
    160c:	ffffc007 	.word	0xffffc007

00001610 <LOGUART_Relay_ClearRxFifo>:
    1610:	2102      	movs	r1, #2
    1612:	6d42      	ldr	r2, [r0, #84]	; 0x54
    1614:	0003      	movs	r3, r0
    1616:	438a      	bics	r2, r1
    1618:	0011      	movs	r1, r2
    161a:	f242 0200 	movw	r2, #8192	; 0x2000
    161e:	430a      	orrs	r2, r1
    1620:	6542      	str	r2, [r0, #84]	; 0x54
    1622:	2005      	movs	r0, #5
    1624:	f240 1200 	movw	r2, #256	; 0x100
    1628:	6959      	ldr	r1, [r3, #20]
    162a:	4211      	tst	r1, r2
    162c:	d003      	beq.n	1636 <LOGUART_Relay_ClearRxFifo+0x26>
    162e:	3801      	subs	r0, #1
    1630:	2800      	cmp	r0, #0
    1632:	d1f9      	bne.n	1628 <LOGUART_Relay_ClearRxFifo+0x18>
    1634:	4770      	bx	lr
    1636:	2001      	movs	r0, #1
    1638:	e7fc      	b.n	1634 <LOGUART_Relay_ClearRxFifo+0x24>

0000163a <LOGUART_Relay_RxCmd>:
    163a:	2304      	movs	r3, #4
    163c:	6f02      	ldr	r2, [r0, #112]	; 0x70
    163e:	b111      	cbz	r1, 1646 <LOGUART_Relay_RxCmd+0xc>
    1640:	4313      	orrs	r3, r2
    1642:	6703      	str	r3, [r0, #112]	; 0x70
    1644:	4770      	bx	lr
    1646:	439a      	bics	r2, r3
    1648:	6702      	str	r2, [r0, #112]	; 0x70
    164a:	e7fb      	b.n	1644 <LOGUART_Relay_RxCmd+0xa>

0000164c <LOGUART_MonitorParaConfig>:
    164c:	1e4b      	subs	r3, r1, #1
    164e:	b570      	push	{r4, r5, r6, lr}
    1650:	0005      	movs	r5, r0
    1652:	000c      	movs	r4, r1
    1654:	0016      	movs	r6, r2
    1656:	2b7e      	cmp	r3, #126	; 0x7e
    1658:	d904      	bls.n	1664 <LOGUART_MonitorParaConfig+0x18>
    165a:	f240 317e 	movw	r1, #894	; 0x37e
    165e:	480c      	ldr	r0, [pc, #48]	; (1690 <LOGUART_MonitorParaConfig+0x44>)
    1660:	f7fe fd58 	bl	114 <io_assert_failed>
    1664:	2204      	movs	r2, #4
    1666:	6c2b      	ldr	r3, [r5, #64]	; 0x40
    1668:	490a      	ldr	r1, [pc, #40]	; (1694 <LOGUART_MonitorParaConfig+0x48>)
    166a:	4393      	bics	r3, r2
    166c:	642b      	str	r3, [r5, #64]	; 0x40
    166e:	6c6b      	ldr	r3, [r5, #68]	; 0x44
    1670:	0064      	lsls	r4, r4, #1
    1672:	400b      	ands	r3, r1
    1674:	f240 11fe 	movw	r1, #510	; 0x1fe
    1678:	400c      	ands	r4, r1
    167a:	431c      	orrs	r4, r3
    167c:	b126      	cbz	r6, 1688 <LOGUART_MonitorParaConfig+0x3c>
    167e:	2180      	movs	r1, #128	; 0x80
    1680:	0589      	lsls	r1, r1, #22
    1682:	430c      	orrs	r4, r1
    1684:	646c      	str	r4, [r5, #68]	; 0x44
    1686:	bd70      	pop	{r4, r5, r6, pc}
    1688:	4903      	ldr	r1, [pc, #12]	; (1698 <LOGUART_MonitorParaConfig+0x4c>)
    168a:	400c      	ands	r4, r1
    168c:	e7fa      	b.n	1684 <LOGUART_MonitorParaConfig+0x38>
    168e:	46c0      	nop			; (mov r8, r8)
    1690:	0000c424 	.word	0x0000c424
    1694:	fffffe01 	.word	0xfffffe01
    1698:	dfffffff 	.word	0xdfffffff

0000169c <LOGUART_LPBaudSet>:
    169c:	4b20      	ldr	r3, [pc, #128]	; (1720 <LOGUART_LPBaudSet+0x84>)
    169e:	b570      	push	{r4, r5, r6, lr}
    16a0:	0016      	movs	r6, r2
    16a2:	1e4a      	subs	r2, r1, #1
    16a4:	0004      	movs	r4, r0
    16a6:	000d      	movs	r5, r1
    16a8:	429a      	cmp	r2, r3
    16aa:	d904      	bls.n	16b6 <LOGUART_LPBaudSet+0x1a>
    16ac:	f240 31a6 	movw	r1, #934	; 0x3a6
    16b0:	481c      	ldr	r0, [pc, #112]	; (1724 <LOGUART_LPBaudSet+0x88>)
    16b2:	f7fe fd2f 	bl	114 <io_assert_failed>
    16b6:	fbb6 f3f5 	udiv	r3, r6, r5
    16ba:	002a      	movs	r2, r5
    16bc:	2100      	movs	r1, #0
    16be:	435a      	muls	r2, r3
    16c0:	3501      	adds	r5, #1
    16c2:	1ab6      	subs	r6, r6, r2
    16c4:	086d      	lsrs	r5, r5, #1
    16c6:	42ae      	cmp	r6, r5
    16c8:	4149      	adcs	r1, r1
    16ca:	185b      	adds	r3, r3, r1
    16cc:	2180      	movs	r1, #128	; 0x80
    16ce:	68e2      	ldr	r2, [r4, #12]
    16d0:	4815      	ldr	r0, [pc, #84]	; (1728 <LOGUART_LPBaudSet+0x8c>)
    16d2:	430a      	orrs	r2, r1
    16d4:	60e2      	str	r2, [r4, #12]
    16d6:	69e2      	ldr	r2, [r4, #28]
    16d8:	4d14      	ldr	r5, [pc, #80]	; (172c <LOGUART_LPBaudSet+0x90>)
    16da:	430a      	orrs	r2, r1
    16dc:	61e2      	str	r2, [r4, #28]
    16de:	6a22      	ldr	r2, [r4, #32]
    16e0:	4010      	ands	r0, r2
    16e2:	011a      	lsls	r2, r3, #4
    16e4:	402a      	ands	r2, r5
    16e6:	4302      	orrs	r2, r0
    16e8:	6222      	str	r2, [r4, #32]
    16ea:	69e2      	ldr	r2, [r4, #28]
    16ec:	4810      	ldr	r0, [pc, #64]	; (1730 <LOGUART_LPBaudSet+0x94>)
    16ee:	4002      	ands	r2, r0
    16f0:	61e2      	str	r2, [r4, #28]
    16f2:	68e2      	ldr	r2, [r4, #12]
    16f4:	438a      	bics	r2, r1
    16f6:	60e2      	str	r2, [r4, #12]
    16f8:	6ca2      	ldr	r2, [r4, #72]	; 0x48
    16fa:	0d12      	lsrs	r2, r2, #20
    16fc:	0511      	lsls	r1, r2, #20
    16fe:	031a      	lsls	r2, r3, #12
    1700:	0b12      	lsrs	r2, r2, #12
    1702:	430a      	orrs	r2, r1
    1704:	64a2      	str	r2, [r4, #72]	; 0x48
    1706:	6c62      	ldr	r2, [r4, #68]	; 0x44
    1708:	490a      	ldr	r1, [pc, #40]	; (1734 <LOGUART_LPBaudSet+0x98>)
    170a:	025b      	lsls	r3, r3, #9
    170c:	400a      	ands	r2, r1
    170e:	490a      	ldr	r1, [pc, #40]	; (1738 <LOGUART_LPBaudSet+0x9c>)
    1710:	400b      	ands	r3, r1
    1712:	4313      	orrs	r3, r2
    1714:	6463      	str	r3, [r4, #68]	; 0x44
    1716:	6c23      	ldr	r3, [r4, #64]	; 0x40
    1718:	4a08      	ldr	r2, [pc, #32]	; (173c <LOGUART_LPBaudSet+0xa0>)
    171a:	4013      	ands	r3, r2
    171c:	6423      	str	r3, [r4, #64]	; 0x40
    171e:	bd70      	pop	{r4, r5, r6, pc}
    1720:	0007a11f 	.word	0x0007a11f
    1724:	0000c412 	.word	0x0000c412
    1728:	ff00000f 	.word	0xff00000f
    172c:	00fffff0 	.word	0x00fffff0
    1730:	f800ffff 	.word	0xf800ffff
    1734:	e00001ff 	.word	0xe00001ff
    1738:	1ffffe00 	.word	0x1ffffe00
    173c:	ffffc007 	.word	0xffffc007

00001740 <LOGUART_Relay_LPSetBaud>:
    1740:	4b14      	ldr	r3, [pc, #80]	; (1794 <LOGUART_Relay_LPSetBaud+0x54>)
    1742:	b570      	push	{r4, r5, r6, lr}
    1744:	0016      	movs	r6, r2
    1746:	1e4a      	subs	r2, r1, #1
    1748:	0004      	movs	r4, r0
    174a:	000d      	movs	r5, r1
    174c:	429a      	cmp	r2, r3
    174e:	d904      	bls.n	175a <LOGUART_Relay_LPSetBaud+0x1a>
    1750:	f240 31e5 	movw	r1, #997	; 0x3e5
    1754:	4810      	ldr	r0, [pc, #64]	; (1798 <LOGUART_Relay_LPSetBaud+0x58>)
    1756:	f7fe fcdd 	bl	114 <io_assert_failed>
    175a:	fbb6 f1f5 	udiv	r1, r6, r5
    175e:	002a      	movs	r2, r5
    1760:	2300      	movs	r3, #0
    1762:	434a      	muls	r2, r1
    1764:	3501      	adds	r5, #1
    1766:	1ab6      	subs	r6, r6, r2
    1768:	086d      	lsrs	r5, r5, #1
    176a:	42ae      	cmp	r6, r5
    176c:	415b      	adcs	r3, r3
    176e:	2080      	movs	r0, #128	; 0x80
    1770:	18c9      	adds	r1, r1, r3
    1772:	6ee3      	ldr	r3, [r4, #108]	; 0x6c
    1774:	4303      	orrs	r3, r0
    1776:	66e3      	str	r3, [r4, #108]	; 0x6c
    1778:	6ee3      	ldr	r3, [r4, #108]	; 0x6c
    177a:	051b      	lsls	r3, r3, #20
    177c:	0d1a      	lsrs	r2, r3, #20
    177e:	030b      	lsls	r3, r1, #12
    1780:	4313      	orrs	r3, r2
    1782:	66e3      	str	r3, [r4, #108]	; 0x6c
    1784:	6f23      	ldr	r3, [r4, #112]	; 0x70
    1786:	4a05      	ldr	r2, [pc, #20]	; (179c <LOGUART_Relay_LPSetBaud+0x5c>)
    1788:	4013      	ands	r3, r2
    178a:	6723      	str	r3, [r4, #112]	; 0x70
    178c:	6ee3      	ldr	r3, [r4, #108]	; 0x6c
    178e:	4383      	bics	r3, r0
    1790:	66e3      	str	r3, [r4, #108]	; 0x6c
    1792:	bd70      	pop	{r4, r5, r6, pc}
    1794:	0007a11f 	.word	0x0007a11f
    1798:	0000c3fa 	.word	0x0000c3fa
    179c:	ffffc007 	.word	0xffffc007

000017a0 <LOGUART_RxMonitorCmd>:
    17a0:	2301      	movs	r3, #1
    17a2:	6c42      	ldr	r2, [r0, #68]	; 0x44
    17a4:	b111      	cbz	r1, 17ac <LOGUART_RxMonitorCmd+0xc>
    17a6:	4313      	orrs	r3, r2
    17a8:	6443      	str	r3, [r0, #68]	; 0x44
    17aa:	4770      	bx	lr
    17ac:	439a      	bics	r2, r3
    17ae:	6442      	str	r2, [r0, #68]	; 0x44
    17b0:	e7fb      	b.n	17aa <LOGUART_RxMonitorCmd+0xa>

000017b2 <LOGUART_RxMonBaudCtrlRegGet>:
    17b2:	6c40      	ldr	r0, [r0, #68]	; 0x44
    17b4:	4770      	bx	lr

000017b6 <LOGUART_RxMonitorSatusGet>:
    17b6:	6c80      	ldr	r0, [r0, #72]	; 0x48
    17b8:	4770      	bx	lr

000017ba <LOGUART_DiagInit>:
    17ba:	b530      	push	{r4, r5, lr}
    17bc:	0005      	movs	r5, r0
    17be:	20c0      	movs	r0, #192	; 0xc0
    17c0:	4b16      	ldr	r3, [pc, #88]	; (181c <LOGUART_DiagInit+0x62>)
    17c2:	b095      	sub	sp, #84	; 0x54
    17c4:	2201      	movs	r2, #1
    17c6:	f242 0100 	movw	r1, #8192	; 0x2000
    17ca:	681c      	ldr	r4, [r3, #0]
    17cc:	0300      	lsls	r0, r0, #12
    17ce:	4b14      	ldr	r3, [pc, #80]	; (1820 <LOGUART_DiagInit+0x66>)
    17d0:	4798      	blx	r3
    17d2:	2101      	movs	r1, #1
    17d4:	2000      	movs	r0, #0
    17d6:	4b13      	ldr	r3, [pc, #76]	; (1824 <LOGUART_DiagInit+0x6a>)
    17d8:	4798      	blx	r3
    17da:	a801      	add	r0, sp, #4
    17dc:	4b12      	ldr	r3, [pc, #72]	; (1828 <LOGUART_DiagInit+0x6e>)
    17de:	4798      	blx	r3
    17e0:	a801      	add	r0, sp, #4
    17e2:	f7ff fe3f 	bl	1464 <LOGUART_Init>
    17e6:	2d01      	cmp	r5, #1
    17e8:	d115      	bne.n	1816 <LOGUART_DiagInit+0x5c>
    17ea:	2303      	movs	r3, #3
    17ec:	09a1      	lsrs	r1, r4, #6
    17ee:	2414      	movs	r4, #20
    17f0:	2200      	movs	r2, #0
    17f2:	4019      	ands	r1, r3
    17f4:	434c      	muls	r4, r1
    17f6:	490d      	ldr	r1, [pc, #52]	; (182c <LOGUART_DiagInit+0x72>)
    17f8:	480d      	ldr	r0, [pc, #52]	; (1830 <LOGUART_DiagInit+0x76>)
    17fa:	1864      	adds	r4, r4, r1
    17fc:	6921      	ldr	r1, [r4, #16]
    17fe:	4d0d      	ldr	r5, [pc, #52]	; (1834 <LOGUART_DiagInit+0x7a>)
    1800:	9200      	str	r2, [sp, #0]
    1802:	47a8      	blx	r5
    1804:	6920      	ldr	r0, [r4, #16]
    1806:	4b0c      	ldr	r3, [pc, #48]	; (1838 <LOGUART_DiagInit+0x7e>)
    1808:	4798      	blx	r3
    180a:	4b0c      	ldr	r3, [pc, #48]	; (183c <LOGUART_DiagInit+0x82>)
    180c:	4668      	mov	r0, sp
    180e:	4798      	blx	r3
    1810:	9900      	ldr	r1, [sp, #0]
    1812:	4b0b      	ldr	r3, [pc, #44]	; (1840 <LOGUART_DiagInit+0x86>)
    1814:	4798      	blx	r3
    1816:	b015      	add	sp, #84	; 0x54
    1818:	bd30      	pop	{r4, r5, pc}
    181a:	46c0      	nop			; (mov r8, r8)
    181c:	4200827c 	.word	0x4200827c
    1820:	00001a89 	.word	0x00001a89
    1824:	00001931 	.word	0x00001931
    1828:	00000ff9 	.word	0x00000ff9
    182c:	0000c074 	.word	0x0000c074
    1830:	00004771 	.word	0x00004771
    1834:	00003bb5 	.word	0x00003bb5
    1838:	00003a8d 	.word	0x00003a8d
    183c:	0000443d 	.word	0x0000443d
    1840:	00004889 	.word	0x00004889

00001844 <PAD_DrvStrength>:
    1844:	4b06      	ldr	r3, [pc, #24]	; (1860 <PAD_DrvStrength+0x1c>)
    1846:	0080      	lsls	r0, r0, #2
    1848:	18c0      	adds	r0, r0, r3
    184a:	6803      	ldr	r3, [r0, #0]
    184c:	b919      	cbnz	r1, 1856 <PAD_DrvStrength+0x12>
    184e:	4a05      	ldr	r2, [pc, #20]	; (1864 <PAD_DrvStrength+0x20>)
    1850:	4013      	ands	r3, r2
    1852:	6003      	str	r3, [r0, #0]
    1854:	4770      	bx	lr
    1856:	f640 0200 	movw	r2, #2048	; 0x800
    185a:	4313      	orrs	r3, r2
    185c:	e7f9      	b.n	1852 <PAD_DrvStrength+0xe>
    185e:	46c0      	nop			; (mov r8, r8)
    1860:	42008a00 	.word	0x42008a00
    1864:	fffff7ff 	.word	0xfffff7ff

00001868 <PAD_PullCtrl>:
    1868:	4b08      	ldr	r3, [pc, #32]	; (188c <PAD_PullCtrl+0x24>)
    186a:	0080      	lsls	r0, r0, #2
    186c:	18c0      	adds	r0, r0, r3
    186e:	6803      	ldr	r3, [r0, #0]
    1870:	4a07      	ldr	r2, [pc, #28]	; (1890 <PAD_PullCtrl+0x28>)
    1872:	4013      	ands	r3, r2
    1874:	2901      	cmp	r1, #1
    1876:	d104      	bne.n	1882 <PAD_PullCtrl+0x1a>
    1878:	f240 2200 	movw	r2, #512	; 0x200
    187c:	4313      	orrs	r3, r2
    187e:	6003      	str	r3, [r0, #0]
    1880:	4770      	bx	lr
    1882:	2902      	cmp	r1, #2
    1884:	d1fb      	bne.n	187e <PAD_PullCtrl+0x16>
    1886:	f240 1200 	movw	r2, #256	; 0x100
    188a:	e7f7      	b.n	187c <PAD_PullCtrl+0x14>
    188c:	42008a00 	.word	0x42008a00
    1890:	fffffcff 	.word	0xfffffcff

00001894 <PAD_SleepPullCtrl>:
    1894:	4b08      	ldr	r3, [pc, #32]	; (18b8 <PAD_SleepPullCtrl+0x24>)
    1896:	0080      	lsls	r0, r0, #2
    1898:	18c0      	adds	r0, r0, r3
    189a:	6803      	ldr	r3, [r0, #0]
    189c:	4a07      	ldr	r2, [pc, #28]	; (18bc <PAD_SleepPullCtrl+0x28>)
    189e:	4013      	ands	r3, r2
    18a0:	2901      	cmp	r1, #1
    18a2:	d104      	bne.n	18ae <PAD_SleepPullCtrl+0x1a>
    18a4:	2280      	movs	r2, #128	; 0x80
    18a6:	0292      	lsls	r2, r2, #10
    18a8:	4313      	orrs	r3, r2
    18aa:	6003      	str	r3, [r0, #0]
    18ac:	4770      	bx	lr
    18ae:	2902      	cmp	r1, #2
    18b0:	d1fb      	bne.n	18aa <PAD_SleepPullCtrl+0x16>
    18b2:	2280      	movs	r2, #128	; 0x80
    18b4:	0252      	lsls	r2, r2, #9
    18b6:	e7f7      	b.n	18a8 <PAD_SleepPullCtrl+0x14>
    18b8:	42008a00 	.word	0x42008a00
    18bc:	fffcffff 	.word	0xfffcffff

000018c0 <PAD_ResistorCtrl>:
    18c0:	4b06      	ldr	r3, [pc, #24]	; (18dc <PAD_ResistorCtrl+0x1c>)
    18c2:	0080      	lsls	r0, r0, #2
    18c4:	18c0      	adds	r0, r0, r3
    18c6:	6803      	ldr	r3, [r0, #0]
    18c8:	b121      	cbz	r1, 18d4 <PAD_ResistorCtrl+0x14>
    18ca:	f240 4200 	movw	r2, #1024	; 0x400
    18ce:	4313      	orrs	r3, r2
    18d0:	6003      	str	r3, [r0, #0]
    18d2:	4770      	bx	lr
    18d4:	4a02      	ldr	r2, [pc, #8]	; (18e0 <PAD_ResistorCtrl+0x20>)
    18d6:	4013      	ands	r3, r2
    18d8:	e7fa      	b.n	18d0 <PAD_ResistorCtrl+0x10>
    18da:	46c0      	nop			; (mov r8, r8)
    18dc:	42008a00 	.word	0x42008a00
    18e0:	fffffbff 	.word	0xfffffbff

000018e4 <PAD_CMD>:
    18e4:	4b06      	ldr	r3, [pc, #24]	; (1900 <PAD_CMD+0x1c>)
    18e6:	0080      	lsls	r0, r0, #2
    18e8:	18c0      	adds	r0, r0, r3
    18ea:	6803      	ldr	r3, [r0, #0]
    18ec:	2901      	cmp	r1, #1
    18ee:	d103      	bne.n	18f8 <PAD_CMD+0x14>
    18f0:	4a04      	ldr	r2, [pc, #16]	; (1904 <PAD_CMD+0x20>)
    18f2:	4013      	ands	r3, r2
    18f4:	6003      	str	r3, [r0, #0]
    18f6:	4770      	bx	lr
    18f8:	f248 0200 	movw	r2, #32768	; 0x8000
    18fc:	4313      	orrs	r3, r2
    18fe:	e7f9      	b.n	18f4 <PAD_CMD+0x10>
    1900:	42008a00 	.word	0x42008a00
    1904:	ffff7fff 	.word	0xffff7fff

00001908 <Pinmux_Config>:
    1908:	221f      	movs	r2, #31
    190a:	4b04      	ldr	r3, [pc, #16]	; (191c <Pinmux_Config+0x14>)
    190c:	0080      	lsls	r0, r0, #2
    190e:	18c0      	adds	r0, r0, r3
    1910:	6803      	ldr	r3, [r0, #0]
    1912:	4011      	ands	r1, r2
    1914:	4393      	bics	r3, r2
    1916:	4319      	orrs	r1, r3
    1918:	6001      	str	r1, [r0, #0]
    191a:	4770      	bx	lr
    191c:	42008a00 	.word	0x42008a00

00001920 <Pinmux_ConfigGet>:
    1920:	4b02      	ldr	r3, [pc, #8]	; (192c <Pinmux_ConfigGet+0xc>)
    1922:	0080      	lsls	r0, r0, #2
    1924:	58c0      	ldr	r0, [r0, r3]
    1926:	231f      	movs	r3, #31
    1928:	4018      	ands	r0, r3
    192a:	4770      	bx	lr
    192c:	42008a00 	.word	0x42008a00

00001930 <Pinmux_UartLogCtrl>:
    1930:	b570      	push	{r4, r5, r6, lr}
    1932:	000c      	movs	r4, r1
    1934:	b118      	cbz	r0, 193e <Pinmux_UartLogCtrl+0xe>
    1936:	21e7      	movs	r1, #231	; 0xe7
    1938:	480a      	ldr	r0, [pc, #40]	; (1964 <Pinmux_UartLogCtrl+0x34>)
    193a:	f7fe fbeb 	bl	114 <io_assert_failed>
    193e:	1e63      	subs	r3, r4, #1
    1940:	419c      	sbcs	r4, r3
    1942:	4d09      	ldr	r5, [pc, #36]	; (1968 <Pinmux_UartLogCtrl+0x38>)
    1944:	2102      	movs	r1, #2
    1946:	2037      	movs	r0, #55	; 0x37
    1948:	47a8      	blx	r5
    194a:	0064      	lsls	r4, r4, #1
    194c:	2102      	movs	r1, #2
    194e:	2038      	movs	r0, #56	; 0x38
    1950:	47a8      	blx	r5
    1952:	0021      	movs	r1, r4
    1954:	2037      	movs	r0, #55	; 0x37
    1956:	f7ff ffd7 	bl	1908 <Pinmux_Config>
    195a:	0021      	movs	r1, r4
    195c:	2038      	movs	r0, #56	; 0x38
    195e:	f7ff ffd3 	bl	1908 <Pinmux_Config>
    1962:	bd70      	pop	{r4, r5, r6, pc}
    1964:	0000c477 	.word	0x0000c477
    1968:	00001869 	.word	0x00001869

0000196c <PAD_SpicCtrl>:
    196c:	b510      	push	{r4, lr}
    196e:	2102      	movs	r1, #2
    1970:	4c12      	ldr	r4, [pc, #72]	; (19bc <PAD_SpicCtrl+0x50>)
    1972:	2801      	cmp	r0, #1
    1974:	d111      	bne.n	199a <PAD_SpicCtrl+0x2e>
    1976:	3045      	adds	r0, #69	; 0x45
    1978:	47a0      	blx	r4
    197a:	2102      	movs	r1, #2
    197c:	2041      	movs	r0, #65	; 0x41
    197e:	47a0      	blx	r4
    1980:	2102      	movs	r1, #2
    1982:	2042      	movs	r0, #66	; 0x42
    1984:	47a0      	blx	r4
    1986:	2102      	movs	r1, #2
    1988:	2043      	movs	r0, #67	; 0x43
    198a:	47a0      	blx	r4
    198c:	2102      	movs	r1, #2
    198e:	2044      	movs	r0, #68	; 0x44
    1990:	47a0      	blx	r4
    1992:	2102      	movs	r1, #2
    1994:	2045      	movs	r0, #69	; 0x45
    1996:	47a0      	blx	r4
    1998:	bd10      	pop	{r4, pc}
    199a:	2040      	movs	r0, #64	; 0x40
    199c:	47a0      	blx	r4
    199e:	2102      	movs	r1, #2
    19a0:	203b      	movs	r0, #59	; 0x3b
    19a2:	47a0      	blx	r4
    19a4:	2102      	movs	r1, #2
    19a6:	203c      	movs	r0, #60	; 0x3c
    19a8:	47a0      	blx	r4
    19aa:	2102      	movs	r1, #2
    19ac:	203d      	movs	r0, #61	; 0x3d
    19ae:	47a0      	blx	r4
    19b0:	2102      	movs	r1, #2
    19b2:	203e      	movs	r0, #62	; 0x3e
    19b4:	47a0      	blx	r4
    19b6:	2102      	movs	r1, #2
    19b8:	203f      	movs	r0, #63	; 0x3f
    19ba:	e7ec      	b.n	1996 <PAD_SpicCtrl+0x2a>
    19bc:	00001869 	.word	0x00001869

000019c0 <Pinmux_SpicCtrl>:
    19c0:	b570      	push	{r4, r5, r6, lr}
    19c2:	2400      	movs	r4, #0
    19c4:	b101      	cbz	r1, 19c8 <Pinmux_SpicCtrl+0x8>
    19c6:	3406      	adds	r4, #6
    19c8:	2102      	movs	r1, #2
    19ca:	4d2a      	ldr	r5, [pc, #168]	; (1a74 <Pinmux_SpicCtrl+0xb4>)
    19cc:	2801      	cmp	r0, #1
    19ce:	d129      	bne.n	1a24 <Pinmux_SpicCtrl+0x64>
    19d0:	3045      	adds	r0, #69	; 0x45
    19d2:	47a8      	blx	r5
    19d4:	2102      	movs	r1, #2
    19d6:	2041      	movs	r0, #65	; 0x41
    19d8:	47a8      	blx	r5
    19da:	2102      	movs	r1, #2
    19dc:	2042      	movs	r0, #66	; 0x42
    19de:	47a8      	blx	r5
    19e0:	2102      	movs	r1, #2
    19e2:	2043      	movs	r0, #67	; 0x43
    19e4:	47a8      	blx	r5
    19e6:	2102      	movs	r1, #2
    19e8:	2044      	movs	r0, #68	; 0x44
    19ea:	47a8      	blx	r5
    19ec:	2102      	movs	r1, #2
    19ee:	2045      	movs	r0, #69	; 0x45
    19f0:	47a8      	blx	r5
    19f2:	0021      	movs	r1, r4
    19f4:	2041      	movs	r0, #65	; 0x41
    19f6:	f7ff ff87 	bl	1908 <Pinmux_Config>
    19fa:	0021      	movs	r1, r4
    19fc:	2042      	movs	r0, #66	; 0x42
    19fe:	f7ff ff83 	bl	1908 <Pinmux_Config>
    1a02:	0021      	movs	r1, r4
    1a04:	2043      	movs	r0, #67	; 0x43
    1a06:	f7ff ff7f 	bl	1908 <Pinmux_Config>
    1a0a:	0021      	movs	r1, r4
    1a0c:	2044      	movs	r0, #68	; 0x44
    1a0e:	f7ff ff7b 	bl	1908 <Pinmux_Config>
    1a12:	0021      	movs	r1, r4
    1a14:	2045      	movs	r0, #69	; 0x45
    1a16:	f7ff ff77 	bl	1908 <Pinmux_Config>
    1a1a:	0021      	movs	r1, r4
    1a1c:	2046      	movs	r0, #70	; 0x46
    1a1e:	f7ff ff73 	bl	1908 <Pinmux_Config>
    1a22:	bd70      	pop	{r4, r5, r6, pc}
    1a24:	2040      	movs	r0, #64	; 0x40
    1a26:	47a8      	blx	r5
    1a28:	2102      	movs	r1, #2
    1a2a:	203b      	movs	r0, #59	; 0x3b
    1a2c:	47a8      	blx	r5
    1a2e:	2102      	movs	r1, #2
    1a30:	203c      	movs	r0, #60	; 0x3c
    1a32:	47a8      	blx	r5
    1a34:	2102      	movs	r1, #2
    1a36:	203d      	movs	r0, #61	; 0x3d
    1a38:	47a8      	blx	r5
    1a3a:	2102      	movs	r1, #2
    1a3c:	203e      	movs	r0, #62	; 0x3e
    1a3e:	47a8      	blx	r5
    1a40:	2102      	movs	r1, #2
    1a42:	203f      	movs	r0, #63	; 0x3f
    1a44:	47a8      	blx	r5
    1a46:	0021      	movs	r1, r4
    1a48:	203b      	movs	r0, #59	; 0x3b
    1a4a:	f7ff ff5d 	bl	1908 <Pinmux_Config>
    1a4e:	0021      	movs	r1, r4
    1a50:	203c      	movs	r0, #60	; 0x3c
    1a52:	f7ff ff59 	bl	1908 <Pinmux_Config>
    1a56:	0021      	movs	r1, r4
    1a58:	203d      	movs	r0, #61	; 0x3d
    1a5a:	f7ff ff55 	bl	1908 <Pinmux_Config>
    1a5e:	0021      	movs	r1, r4
    1a60:	203e      	movs	r0, #62	; 0x3e
    1a62:	f7ff ff51 	bl	1908 <Pinmux_Config>
    1a66:	0021      	movs	r1, r4
    1a68:	203f      	movs	r0, #63	; 0x3f
    1a6a:	f7ff ff4d 	bl	1908 <Pinmux_Config>
    1a6e:	0021      	movs	r1, r4
    1a70:	2040      	movs	r0, #64	; 0x40
    1a72:	e7d4      	b.n	1a1e <Pinmux_SpicCtrl+0x5e>
    1a74:	00001869 	.word	0x00001869

00001a78 <Pinmux_Swdoff>:
    1a78:	2101      	movs	r1, #1
    1a7a:	4a02      	ldr	r2, [pc, #8]	; (1a84 <Pinmux_Swdoff+0xc>)
    1a7c:	6813      	ldr	r3, [r2, #0]
    1a7e:	438b      	bics	r3, r1
    1a80:	6013      	str	r3, [r2, #0]
    1a82:	4770      	bx	lr
    1a84:	42008bf8 	.word	0x42008bf8

00001a88 <RCC_PeriphClockCmd>:
    1a88:	0f8b      	lsrs	r3, r1, #30
    1a8a:	3b01      	subs	r3, #1
    1a8c:	b570      	push	{r4, r5, r6, lr}
    1a8e:	0f84      	lsrs	r4, r0, #30
    1a90:	2b02      	cmp	r3, #2
    1a92:	d820      	bhi.n	1ad6 <RCC_PeriphClockCmd+0x4e>
    1a94:	4d16      	ldr	r5, [pc, #88]	; (1af0 <RCC_PeriphClockCmd+0x68>)
    1a96:	005b      	lsls	r3, r3, #1
    1a98:	5b5b      	ldrh	r3, [r3, r5]
    1a9a:	b141      	cbz	r1, 1aae <RCC_PeriphClockCmd+0x26>
    1a9c:	4d15      	ldr	r5, [pc, #84]	; (1af4 <RCC_PeriphClockCmd+0x6c>)
    1a9e:	0089      	lsls	r1, r1, #2
    1aa0:	195b      	adds	r3, r3, r5
    1aa2:	681d      	ldr	r5, [r3, #0]
    1aa4:	0889      	lsrs	r1, r1, #2
    1aa6:	2a01      	cmp	r2, #1
    1aa8:	d118      	bne.n	1adc <RCC_PeriphClockCmd+0x54>
    1aaa:	4329      	orrs	r1, r5
    1aac:	6019      	str	r1, [r3, #0]
    1aae:	3c01      	subs	r4, #1
    1ab0:	2c02      	cmp	r4, #2
    1ab2:	d816      	bhi.n	1ae2 <RCC_PeriphClockCmd+0x5a>
    1ab4:	4910      	ldr	r1, [pc, #64]	; (1af8 <RCC_PeriphClockCmd+0x70>)
    1ab6:	0063      	lsls	r3, r4, #1
    1ab8:	5a5b      	ldrh	r3, [r3, r1]
    1aba:	b140      	cbz	r0, 1ace <RCC_PeriphClockCmd+0x46>
    1abc:	490d      	ldr	r1, [pc, #52]	; (1af4 <RCC_PeriphClockCmd+0x6c>)
    1abe:	0080      	lsls	r0, r0, #2
    1ac0:	0880      	lsrs	r0, r0, #2
    1ac2:	185b      	adds	r3, r3, r1
    1ac4:	2a01      	cmp	r2, #1
    1ac6:	d10f      	bne.n	1ae8 <RCC_PeriphClockCmd+0x60>
    1ac8:	681a      	ldr	r2, [r3, #0]
    1aca:	4310      	orrs	r0, r2
    1acc:	6018      	str	r0, [r3, #0]
    1ace:	200a      	movs	r0, #10
    1ad0:	4b0a      	ldr	r3, [pc, #40]	; (1afc <RCC_PeriphClockCmd+0x74>)
    1ad2:	4798      	blx	r3
    1ad4:	bd70      	pop	{r4, r5, r6, pc}
    1ad6:	f240 2314 	movw	r3, #532	; 0x214
    1ada:	e7de      	b.n	1a9a <RCC_PeriphClockCmd+0x12>
    1adc:	438d      	bics	r5, r1
    1ade:	601d      	str	r5, [r3, #0]
    1ae0:	e7e5      	b.n	1aae <RCC_PeriphClockCmd+0x26>
    1ae2:	f240 2308 	movw	r3, #520	; 0x208
    1ae6:	e7e8      	b.n	1aba <RCC_PeriphClockCmd+0x32>
    1ae8:	681a      	ldr	r2, [r3, #0]
    1aea:	4382      	bics	r2, r0
    1aec:	601a      	str	r2, [r3, #0]
    1aee:	e7ee      	b.n	1ace <RCC_PeriphClockCmd+0x46>
    1af0:	0000c48a 	.word	0x0000c48a
    1af4:	42008000 	.word	0x42008000
    1af8:	0000c490 	.word	0x0000c490
    1afc:	0000030b 	.word	0x0000030b

00001b00 <RCC_PeriphClockSource_UART>:
    1b00:	b5f8      	push	{r3, r4, r5, r6, r7, lr}
    1b02:	4e19      	ldr	r6, [pc, #100]	; (1b68 <RCC_PeriphClockSource_UART+0x68>)
    1b04:	4c19      	ldr	r4, [pc, #100]	; (1b6c <RCC_PeriphClockSource_UART+0x6c>)
    1b06:	6832      	ldr	r2, [r6, #0]
    1b08:	4f19      	ldr	r7, [pc, #100]	; (1b70 <RCC_PeriphClockSource_UART+0x70>)
    1b0a:	0353      	lsls	r3, r2, #13
    1b0c:	f240 0c00 	movw	ip, #0
    1b10:	6824      	ldr	r4, [r4, #0]
    1b12:	0f5b      	lsrs	r3, r3, #29
    1b14:	42b8      	cmp	r0, r7
    1b16:	d00a      	beq.n	1b2e <RCC_PeriphClockSource_UART+0x2e>
    1b18:	4f16      	ldr	r7, [pc, #88]	; (1b74 <RCC_PeriphClockSource_UART+0x74>)
    1b1a:	f240 0c01 	movw	ip, #1
    1b1e:	42b8      	cmp	r0, r7
    1b20:	d005      	beq.n	1b2e <RCC_PeriphClockSource_UART+0x2e>
    1b22:	4f15      	ldr	r7, [pc, #84]	; (1b78 <RCC_PeriphClockSource_UART+0x78>)
    1b24:	19c0      	adds	r0, r0, r7
    1b26:	4247      	negs	r7, r0
    1b28:	4178      	adcs	r0, r7
    1b2a:	0040      	lsls	r0, r0, #1
    1b2c:	4684      	mov	ip, r0
    1b2e:	2701      	movs	r7, #1
    1b30:	4665      	mov	r5, ip
    1b32:	0038      	movs	r0, r7
    1b34:	40a8      	lsls	r0, r5
    1b36:	b959      	cbnz	r1, 1b50 <RCC_PeriphClockSource_UART+0x50>
    1b38:	4383      	bics	r3, r0
    1b3a:	4910      	ldr	r1, [pc, #64]	; (1b7c <RCC_PeriphClockSource_UART+0x7c>)
    1b3c:	041b      	lsls	r3, r3, #16
    1b3e:	400a      	ands	r2, r1
    1b40:	431a      	orrs	r2, r3
    1b42:	6032      	str	r2, [r6, #0]
    1b44:	2003      	movs	r0, #3
    1b46:	4b0e      	ldr	r3, [pc, #56]	; (1b80 <RCC_PeriphClockSource_UART+0x80>)
    1b48:	4798      	blx	r3
    1b4a:	4b08      	ldr	r3, [pc, #32]	; (1b6c <RCC_PeriphClockSource_UART+0x6c>)
    1b4c:	601c      	str	r4, [r3, #0]
    1b4e:	bdf8      	pop	{r3, r4, r5, r6, r7, pc}
    1b50:	4303      	orrs	r3, r0
    1b52:	2902      	cmp	r1, #2
    1b54:	d104      	bne.n	1b60 <RCC_PeriphClockSource_UART+0x60>
    1b56:	2180      	movs	r1, #128	; 0x80
    1b58:	0309      	lsls	r1, r1, #12
    1b5a:	430a      	orrs	r2, r1
    1b5c:	433c      	orrs	r4, r7
    1b5e:	e7ec      	b.n	1b3a <RCC_PeriphClockSource_UART+0x3a>
    1b60:	4908      	ldr	r1, [pc, #32]	; (1b84 <RCC_PeriphClockSource_UART+0x84>)
    1b62:	43bc      	bics	r4, r7
    1b64:	400a      	ands	r2, r1
    1b66:	e7e8      	b.n	1b3a <RCC_PeriphClockSource_UART+0x3a>
    1b68:	42008224 	.word	0x42008224
    1b6c:	4200822c 	.word	0x4200822c
    1b70:	41004000 	.word	0x41004000
    1b74:	41005000 	.word	0x41005000
    1b78:	beffa000 	.word	0xbeffa000
    1b7c:	fff8ffff 	.word	0xfff8ffff
    1b80:	0000030b 	.word	0x0000030b
    1b84:	fff7ffff 	.word	0xfff7ffff

00001b88 <RCC_PeriphClockSource_SPIC>:
    1b88:	210c      	movs	r1, #12
    1b8a:	4a04      	ldr	r2, [pc, #16]	; (1b9c <RCC_PeriphClockSource_SPIC+0x14>)
    1b8c:	0080      	lsls	r0, r0, #2
    1b8e:	6813      	ldr	r3, [r2, #0]
    1b90:	4008      	ands	r0, r1
    1b92:	438b      	bics	r3, r1
    1b94:	4318      	orrs	r0, r3
    1b96:	6010      	str	r0, [r2, #0]
    1b98:	4770      	bx	lr
    1b9a:	46c0      	nop			; (mov r8, r8)
    1b9c:	42008224 	.word	0x42008224

00001ba0 <RCC_PeriphClockSource_PSRAM>:
    1ba0:	4a03      	ldr	r2, [pc, #12]	; (1bb0 <RCC_PeriphClockSource_PSRAM+0x10>)
    1ba2:	07c0      	lsls	r0, r0, #31
    1ba4:	6813      	ldr	r3, [r2, #0]
    1ba6:	005b      	lsls	r3, r3, #1
    1ba8:	085b      	lsrs	r3, r3, #1
    1baa:	4318      	orrs	r0, r3
    1bac:	6010      	str	r0, [r2, #0]
    1bae:	4770      	bx	lr
    1bb0:	42008224 	.word	0x42008224

00001bb4 <RCC_PeriphClockSource_SDM>:
    1bb4:	4a04      	ldr	r2, [pc, #16]	; (1bc8 <RCC_PeriphClockSource_SDM+0x14>)
    1bb6:	4905      	ldr	r1, [pc, #20]	; (1bcc <RCC_PeriphClockSource_SDM+0x18>)
    1bb8:	6813      	ldr	r3, [r2, #0]
    1bba:	07c0      	lsls	r0, r0, #31
    1bbc:	400b      	ands	r3, r1
    1bbe:	0c00      	lsrs	r0, r0, #16
    1bc0:	4318      	orrs	r0, r3
    1bc2:	6010      	str	r0, [r2, #0]
    1bc4:	4770      	bx	lr
    1bc6:	46c0      	nop			; (mov r8, r8)
    1bc8:	42008224 	.word	0x42008224
    1bcc:	ffff7fff 	.word	0xffff7fff

00001bd0 <RCC_PeriphClockSource_VADMEM>:
    1bd0:	4a05      	ldr	r2, [pc, #20]	; (1be8 <RCC_PeriphClockSource_VADMEM+0x18>)
    1bd2:	4906      	ldr	r1, [pc, #24]	; (1bec <RCC_PeriphClockSource_VADMEM+0x1c>)
    1bd4:	6813      	ldr	r3, [r2, #0]
    1bd6:	0380      	lsls	r0, r0, #14
    1bd8:	400b      	ands	r3, r1
    1bda:	f244 0100 	movw	r1, #16384	; 0x4000
    1bde:	4008      	ands	r0, r1
    1be0:	4318      	orrs	r0, r3
    1be2:	6010      	str	r0, [r2, #0]
    1be4:	4770      	bx	lr
    1be6:	46c0      	nop			; (mov r8, r8)
    1be8:	42008224 	.word	0x42008224
    1bec:	ffffbfff 	.word	0xffffbfff

00001bf0 <RCC_PeriphClockSource_AUDIOCODEC>:
    1bf0:	4a05      	ldr	r2, [pc, #20]	; (1c08 <RCC_PeriphClockSource_AUDIOCODEC+0x18>)
    1bf2:	4906      	ldr	r1, [pc, #24]	; (1c0c <RCC_PeriphClockSource_AUDIOCODEC+0x1c>)
    1bf4:	6813      	ldr	r3, [r2, #0]
    1bf6:	0340      	lsls	r0, r0, #13
    1bf8:	400b      	ands	r3, r1
    1bfa:	f242 0100 	movw	r1, #8192	; 0x2000
    1bfe:	4008      	ands	r0, r1
    1c00:	4318      	orrs	r0, r3
    1c02:	6010      	str	r0, [r2, #0]
    1c04:	4770      	bx	lr
    1c06:	46c0      	nop			; (mov r8, r8)
    1c08:	42008224 	.word	0x42008224
    1c0c:	ffffdfff 	.word	0xffffdfff

00001c10 <RCC_PeriphClockSource_CTC>:
    1c10:	2140      	movs	r1, #64	; 0x40
    1c12:	4a04      	ldr	r2, [pc, #16]	; (1c24 <RCC_PeriphClockSource_CTC+0x14>)
    1c14:	0180      	lsls	r0, r0, #6
    1c16:	6813      	ldr	r3, [r2, #0]
    1c18:	4008      	ands	r0, r1
    1c1a:	438b      	bics	r3, r1
    1c1c:	4318      	orrs	r0, r3
    1c1e:	6010      	str	r0, [r2, #0]
    1c20:	4770      	bx	lr
    1c22:	46c0      	nop			; (mov r8, r8)
    1c24:	42008224 	.word	0x42008224

00001c28 <RCC_PeriphClockSource_ADC>:
    1c28:	2120      	movs	r1, #32
    1c2a:	4a04      	ldr	r2, [pc, #16]	; (1c3c <RCC_PeriphClockSource_ADC+0x14>)
    1c2c:	0140      	lsls	r0, r0, #5
    1c2e:	6813      	ldr	r3, [r2, #0]
    1c30:	4008      	ands	r0, r1
    1c32:	438b      	bics	r3, r1
    1c34:	4318      	orrs	r0, r3
    1c36:	6010      	str	r0, [r2, #0]
    1c38:	4770      	bx	lr
    1c3a:	46c0      	nop			; (mov r8, r8)
    1c3c:	42008224 	.word	0x42008224

00001c40 <RCC_PeriphClockSource_GPIO>:
    1c40:	2110      	movs	r1, #16
    1c42:	4a04      	ldr	r2, [pc, #16]	; (1c54 <RCC_PeriphClockSource_GPIO+0x14>)
    1c44:	0100      	lsls	r0, r0, #4
    1c46:	6813      	ldr	r3, [r2, #0]
    1c48:	4008      	ands	r0, r1
    1c4a:	438b      	bics	r3, r1
    1c4c:	4318      	orrs	r0, r3
    1c4e:	6010      	str	r0, [r2, #0]
    1c50:	4770      	bx	lr
    1c52:	46c0      	nop			; (mov r8, r8)
    1c54:	42008224 	.word	0x42008224

00001c58 <RCC_PeriphClockSource_SPORT>:
    1c58:	b5f0      	push	{r4, r5, r6, r7, lr}
    1c5a:	2701      	movs	r7, #1
    1c5c:	4d18      	ldr	r5, [pc, #96]	; (1cc0 <RCC_PeriphClockSource_SPORT+0x68>)
    1c5e:	4c19      	ldr	r4, [pc, #100]	; (1cc4 <RCC_PeriphClockSource_SPORT+0x6c>)
    1c60:	682e      	ldr	r6, [r5, #0]
    1c62:	4087      	lsls	r7, r0
    1c64:	0132      	lsls	r2, r6, #4
    1c66:	6823      	ldr	r3, [r4, #0]
    1c68:	0f12      	lsrs	r2, r2, #28
    1c6a:	2904      	cmp	r1, #4
    1c6c:	d10a      	bne.n	1c84 <RCC_PeriphClockSource_SPORT+0x2c>
    1c6e:	43ba      	bics	r2, r7
    1c70:	4915      	ldr	r1, [pc, #84]	; (1cc8 <RCC_PeriphClockSource_SPORT+0x70>)
    1c72:	0612      	lsls	r2, r2, #24
    1c74:	400e      	ands	r6, r1
    1c76:	21f0      	movs	r1, #240	; 0xf0
    1c78:	0509      	lsls	r1, r1, #20
    1c7a:	400a      	ands	r2, r1
    1c7c:	4332      	orrs	r2, r6
    1c7e:	602a      	str	r2, [r5, #0]
    1c80:	6023      	str	r3, [r4, #0]
    1c82:	bdf0      	pop	{r4, r5, r6, r7, pc}
    1c84:	433a      	orrs	r2, r7
    1c86:	2802      	cmp	r0, #2
    1c88:	d016      	beq.n	1cb8 <RCC_PeriphClockSource_SPORT+0x60>
    1c8a:	dc07      	bgt.n	1c9c <RCC_PeriphClockSource_SPORT+0x44>
    1c8c:	b178      	cbz	r0, 1cae <RCC_PeriphClockSource_SPORT+0x56>
    1c8e:	2801      	cmp	r0, #1
    1c90:	d1ee      	bne.n	1c70 <RCC_PeriphClockSource_SPORT+0x18>
    1c92:	270c      	movs	r7, #12
    1c94:	0088      	lsls	r0, r1, #2
    1c96:	43bb      	bics	r3, r7
    1c98:	4038      	ands	r0, r7
    1c9a:	e00b      	b.n	1cb4 <RCC_PeriphClockSource_SPORT+0x5c>
    1c9c:	2803      	cmp	r0, #3
    1c9e:	d1e7      	bne.n	1c70 <RCC_PeriphClockSource_SPORT+0x18>
    1ca0:	20c0      	movs	r0, #192	; 0xc0
    1ca2:	0189      	lsls	r1, r1, #6
    1ca4:	4383      	bics	r3, r0
    1ca6:	303f      	adds	r0, #63	; 0x3f
    1ca8:	4001      	ands	r1, r0
    1caa:	430b      	orrs	r3, r1
    1cac:	e7e0      	b.n	1c70 <RCC_PeriphClockSource_SPORT+0x18>
    1cae:	2003      	movs	r0, #3
    1cb0:	4383      	bics	r3, r0
    1cb2:	4008      	ands	r0, r1
    1cb4:	4303      	orrs	r3, r0
    1cb6:	e7db      	b.n	1c70 <RCC_PeriphClockSource_SPORT+0x18>
    1cb8:	2730      	movs	r7, #48	; 0x30
    1cba:	0108      	lsls	r0, r1, #4
    1cbc:	43bb      	bics	r3, r7
    1cbe:	e7eb      	b.n	1c98 <RCC_PeriphClockSource_SPORT+0x40>
    1cc0:	42008224 	.word	0x42008224
    1cc4:	4200822c 	.word	0x4200822c
    1cc8:	f0ffffff 	.word	0xf0ffffff

00001ccc <RCC_PeriphClockSource_32K>:
    1ccc:	2130      	movs	r1, #48	; 0x30
    1cce:	4a04      	ldr	r2, [pc, #16]	; (1ce0 <RCC_PeriphClockSource_32K+0x14>)
    1cd0:	0100      	lsls	r0, r0, #4
    1cd2:	6813      	ldr	r3, [r2, #0]
    1cd4:	4008      	ands	r0, r1
    1cd6:	438b      	bics	r3, r1
    1cd8:	4318      	orrs	r0, r3
    1cda:	6010      	str	r0, [r2, #0]
    1cdc:	4770      	bx	lr
    1cde:	46c0      	nop			; (mov r8, r8)
    1ce0:	42008010 	.word	0x42008010

00001ce4 <RCC_PeriphClockSource_LOGUART>:
    1ce4:	b570      	push	{r4, r5, r6, lr}
    1ce6:	4a0e      	ldr	r2, [pc, #56]	; (1d20 <RCC_PeriphClockSource_LOGUART+0x3c>)
    1ce8:	4d0e      	ldr	r5, [pc, #56]	; (1d24 <RCC_PeriphClockSource_LOGUART+0x40>)
    1cea:	6813      	ldr	r3, [r2, #0]
    1cec:	682c      	ldr	r4, [r5, #0]
    1cee:	b938      	cbnz	r0, 1d00 <RCC_PeriphClockSource_LOGUART+0x1c>
    1cf0:	490d      	ldr	r1, [pc, #52]	; (1d28 <RCC_PeriphClockSource_LOGUART+0x44>)
    1cf2:	400b      	ands	r3, r1
    1cf4:	6013      	str	r3, [r2, #0]
    1cf6:	2003      	movs	r0, #3
    1cf8:	4b0c      	ldr	r3, [pc, #48]	; (1d2c <RCC_PeriphClockSource_LOGUART+0x48>)
    1cfa:	4798      	blx	r3
    1cfc:	602c      	str	r4, [r5, #0]
    1cfe:	bd70      	pop	{r4, r5, r6, pc}
    1d00:	2802      	cmp	r0, #2
    1d02:	d105      	bne.n	1d10 <RCC_PeriphClockSource_LOGUART+0x2c>
    1d04:	f641 0100 	movw	r1, #6144	; 0x1800
    1d08:	430b      	orrs	r3, r1
    1d0a:	2101      	movs	r1, #1
    1d0c:	430c      	orrs	r4, r1
    1d0e:	e7f1      	b.n	1cf4 <RCC_PeriphClockSource_LOGUART+0x10>
    1d10:	4907      	ldr	r1, [pc, #28]	; (1d30 <RCC_PeriphClockSource_LOGUART+0x4c>)
    1d12:	400b      	ands	r3, r1
    1d14:	f640 0100 	movw	r1, #2048	; 0x800
    1d18:	430b      	orrs	r3, r1
    1d1a:	2101      	movs	r1, #1
    1d1c:	438c      	bics	r4, r1
    1d1e:	e7e9      	b.n	1cf4 <RCC_PeriphClockSource_LOGUART+0x10>
    1d20:	42008224 	.word	0x42008224
    1d24:	4200822c 	.word	0x4200822c
    1d28:	fffff7ff 	.word	0xfffff7ff
    1d2c:	0000030b 	.word	0x0000030b
    1d30:	ffffefff 	.word	0xffffefff

00001d34 <SYSCFG_GetChipInfo>:
    1d34:	4b01      	ldr	r3, [pc, #4]	; (1d3c <SYSCFG_GetChipInfo+0x8>)
    1d36:	6818      	ldr	r0, [r3, #0]
    1d38:	4770      	bx	lr
    1d3a:	46c0      	nop			; (mov r8, r8)
    1d3c:	4200827c 	.word	0x4200827c

00001d40 <SYSCFG_CUTVersion>:
    1d40:	4b02      	ldr	r3, [pc, #8]	; (1d4c <SYSCFG_CUTVersion+0xc>)
    1d42:	6818      	ldr	r0, [r3, #0]
    1d44:	230f      	movs	r3, #15
    1d46:	4018      	ands	r0, r3
    1d48:	4770      	bx	lr
    1d4a:	46c0      	nop			; (mov r8, r8)
    1d4c:	4200827c 	.word	0x4200827c

00001d50 <SYSCFG_TRP_UARTImage>:
    1d50:	4b02      	ldr	r3, [pc, #8]	; (1d5c <SYSCFG_TRP_UARTImage+0xc>)
    1d52:	6818      	ldr	r0, [r3, #0]
    1d54:	0300      	lsls	r0, r0, #12
    1d56:	0fc0      	lsrs	r0, r0, #31
    1d58:	4770      	bx	lr
    1d5a:	46c0      	nop			; (mov r8, r8)
    1d5c:	4200827c 	.word	0x4200827c

00001d60 <SYSCFG_TRP_ICFG>:
    1d60:	4b01      	ldr	r3, [pc, #4]	; (1d68 <SYSCFG_TRP_ICFG+0x8>)
    1d62:	6818      	ldr	r0, [r3, #0]
    1d64:	0f00      	lsrs	r0, r0, #28
    1d66:	4770      	bx	lr
    1d68:	42008280 	.word	0x42008280

00001d6c <SYSCFG_TRP_TestMode>:
    1d6c:	4b02      	ldr	r3, [pc, #8]	; (1d78 <SYSCFG_TRP_TestMode+0xc>)
    1d6e:	6818      	ldr	r0, [r3, #0]
    1d70:	0380      	lsls	r0, r0, #14
    1d72:	0fc0      	lsrs	r0, r0, #31
    1d74:	4770      	bx	lr
    1d76:	46c0      	nop			; (mov r8, r8)
    1d78:	4200827c 	.word	0x4200827c

00001d7c <SYSCFG_TRP_OTPBYP>:
    1d7c:	4b02      	ldr	r3, [pc, #8]	; (1d88 <SYSCFG_TRP_OTPBYP+0xc>)
    1d7e:	6818      	ldr	r0, [r3, #0]
    1d80:	03c0      	lsls	r0, r0, #15
    1d82:	0fc0      	lsrs	r0, r0, #31
    1d84:	4770      	bx	lr
    1d86:	46c0      	nop			; (mov r8, r8)
    1d88:	4200827c 	.word	0x4200827c

00001d8c <SYSCFG_TRP_BootSel>:
    1d8c:	4b02      	ldr	r3, [pc, #8]	; (1d98 <SYSCFG_TRP_BootSel+0xc>)
    1d8e:	6818      	ldr	r0, [r3, #0]
    1d90:	02c0      	lsls	r0, r0, #11
    1d92:	0fc0      	lsrs	r0, r0, #31
    1d94:	4770      	bx	lr
    1d96:	46c0      	nop			; (mov r8, r8)
    1d98:	4200827c 	.word	0x4200827c

00001d9c <SYSCFG_ROMINFO_Get>:
    1d9c:	4b01      	ldr	r3, [pc, #4]	; (1da4 <SYSCFG_ROMINFO_Get+0x8>)
    1d9e:	6818      	ldr	r0, [r3, #0]
    1da0:	b280      	uxth	r0, r0
    1da2:	4770      	bx	lr
    1da4:	42008268 	.word	0x42008268

00001da8 <SYSCFG_ROMINFO_Set>:
    1da8:	2201      	movs	r2, #1
    1daa:	4903      	ldr	r1, [pc, #12]	; (1db8 <SYSCFG_ROMINFO_Set+0x10>)
    1dac:	680b      	ldr	r3, [r1, #0]
    1dae:	0c1b      	lsrs	r3, r3, #16
    1db0:	041b      	lsls	r3, r3, #16
    1db2:	4313      	orrs	r3, r2
    1db4:	600b      	str	r3, [r1, #0]
    1db6:	4770      	bx	lr
    1db8:	42008268 	.word	0x42008268

00001dbc <SYSCFG_CHIPType_Get>:
    1dbc:	4b02      	ldr	r3, [pc, #8]	; (1dc8 <SYSCFG_CHIPType_Get+0xc>)
    1dbe:	6818      	ldr	r0, [r3, #0]
    1dc0:	0580      	lsls	r0, r0, #22
    1dc2:	0f80      	lsrs	r0, r0, #30
    1dc4:	4770      	bx	lr
    1dc6:	46c0      	nop			; (mov r8, r8)
    1dc8:	4200827c 	.word	0x4200827c

00001dcc <SYSCFG_OTP_RDPEn>:
    1dcc:	2201      	movs	r2, #1
    1dce:	4b05      	ldr	r3, [pc, #20]	; (1de4 <SYSCFG_OTP_RDPEn+0x18>)
    1dd0:	0010      	movs	r0, r2
    1dd2:	6819      	ldr	r1, [r3, #0]
    1dd4:	4b04      	ldr	r3, [pc, #16]	; (1de8 <SYSCFG_OTP_RDPEn+0x1c>)
    1dd6:	681b      	ldr	r3, [r3, #0]
    1dd8:	00c9      	lsls	r1, r1, #3
    1dda:	d402      	bmi.n	1de2 <SYSCFG_OTP_RDPEn+0x16>
    1ddc:	095b      	lsrs	r3, r3, #5
    1dde:	439a      	bics	r2, r3
    1de0:	0010      	movs	r0, r2
    1de2:	4770      	bx	lr
    1de4:	42000100 	.word	0x42000100
    1de8:	42000368 	.word	0x42000368

00001dec <SYSCFG_OTP_RSIPEn>:
    1dec:	2201      	movs	r2, #1
    1dee:	4b05      	ldr	r3, [pc, #20]	; (1e04 <SYSCFG_OTP_RSIPEn+0x18>)
    1df0:	0010      	movs	r0, r2
    1df2:	6819      	ldr	r1, [r3, #0]
    1df4:	4b04      	ldr	r3, [pc, #16]	; (1e08 <SYSCFG_OTP_RSIPEn+0x1c>)
    1df6:	681b      	ldr	r3, [r3, #0]
    1df8:	0109      	lsls	r1, r1, #4
    1dfa:	d402      	bmi.n	1e02 <SYSCFG_OTP_RSIPEn+0x16>
    1dfc:	089b      	lsrs	r3, r3, #2
    1dfe:	439a      	bics	r2, r3
    1e00:	0010      	movs	r0, r2
    1e02:	4770      	bx	lr
    1e04:	42000100 	.word	0x42000100
    1e08:	42000368 	.word	0x42000368

00001e0c <SYSCFG_OTP_SBootEn>:
    1e0c:	2201      	movs	r2, #1
    1e0e:	4b05      	ldr	r3, [pc, #20]	; (1e24 <SYSCFG_OTP_SBootEn+0x18>)
    1e10:	0010      	movs	r0, r2
    1e12:	6819      	ldr	r1, [r3, #0]
    1e14:	4b04      	ldr	r3, [pc, #16]	; (1e28 <SYSCFG_OTP_SBootEn+0x1c>)
    1e16:	681b      	ldr	r3, [r3, #0]
    1e18:	0149      	lsls	r1, r1, #5
    1e1a:	d402      	bmi.n	1e22 <SYSCFG_OTP_SBootEn+0x16>
    1e1c:	08db      	lsrs	r3, r3, #3
    1e1e:	439a      	bics	r2, r3
    1e20:	0010      	movs	r0, r2
    1e22:	4770      	bx	lr
    1e24:	42000100 	.word	0x42000100
    1e28:	42000368 	.word	0x42000368

00001e2c <SYSCFG_OTP_LowBaudLog>:
    1e2c:	4b02      	ldr	r3, [pc, #8]	; (1e38 <SYSCFG_OTP_LowBaudLog+0xc>)
    1e2e:	6818      	ldr	r0, [r3, #0]
    1e30:	0180      	lsls	r0, r0, #6
    1e32:	0fc0      	lsrs	r0, r0, #31
    1e34:	4770      	bx	lr
    1e36:	46c0      	nop			; (mov r8, r8)
    1e38:	42000100 	.word	0x42000100

00001e3c <SYSCFG_OTP_DisBootLog>:
    1e3c:	4b02      	ldr	r3, [pc, #8]	; (1e48 <SYSCFG_OTP_DisBootLog+0xc>)
    1e3e:	6818      	ldr	r0, [r3, #0]
    1e40:	01c0      	lsls	r0, r0, #7
    1e42:	0fc0      	lsrs	r0, r0, #31
    1e44:	4770      	bx	lr
    1e46:	46c0      	nop			; (mov r8, r8)
    1e48:	42000100 	.word	0x42000100

00001e4c <SYSCFG_OTP_BigPageNand>:
    1e4c:	4b02      	ldr	r3, [pc, #8]	; (1e58 <SYSCFG_OTP_BigPageNand+0xc>)
    1e4e:	6818      	ldr	r0, [r3, #0]
    1e50:	0200      	lsls	r0, r0, #8
    1e52:	0fc0      	lsrs	r0, r0, #31
    1e54:	4770      	bx	lr
    1e56:	46c0      	nop			; (mov r8, r8)
    1e58:	42000100 	.word	0x42000100

00001e5c <SYSCFG_OTP_USBLoadFullSpeed>:
    1e5c:	4b02      	ldr	r3, [pc, #8]	; (1e68 <SYSCFG_OTP_USBLoadFullSpeed+0xc>)
    1e5e:	6818      	ldr	r0, [r3, #0]
    1e60:	0240      	lsls	r0, r0, #9
    1e62:	0fc0      	lsrs	r0, r0, #31
    1e64:	4770      	bx	lr
    1e66:	46c0      	nop			; (mov r8, r8)
    1e68:	42000100 	.word	0x42000100

00001e6c <SYSCFG_OTP_BootSelect>:
    1e6c:	4b02      	ldr	r3, [pc, #8]	; (1e78 <SYSCFG_OTP_BootSelect+0xc>)
    1e6e:	6818      	ldr	r0, [r3, #0]
    1e70:	0280      	lsls	r0, r0, #10
    1e72:	0f80      	lsrs	r0, r0, #30
    1e74:	4770      	bx	lr
    1e76:	46c0      	nop			; (mov r8, r8)
    1e78:	42000100 	.word	0x42000100

00001e7c <SYSCFG_OTP_BootFlashBaud>:
    1e7c:	4b02      	ldr	r3, [pc, #8]	; (1e88 <SYSCFG_OTP_BootFlashBaud+0xc>)
    1e7e:	6818      	ldr	r0, [r3, #0]
    1e80:	0300      	lsls	r0, r0, #12
    1e82:	0fc0      	lsrs	r0, r0, #31
    1e84:	4770      	bx	lr
    1e86:	46c0      	nop			; (mov r8, r8)
    1e88:	42000100 	.word	0x42000100

00001e8c <SYSCFG_OTP_SPICBootSpeedUpDis>:
    1e8c:	4b02      	ldr	r3, [pc, #8]	; (1e98 <SYSCFG_OTP_SPICBootSpeedUpDis+0xc>)
    1e8e:	6818      	ldr	r0, [r3, #0]
    1e90:	0340      	lsls	r0, r0, #13
    1e92:	0fc0      	lsrs	r0, r0, #31
    1e94:	4770      	bx	lr
    1e96:	46c0      	nop			; (mov r8, r8)
    1e98:	42000100 	.word	0x42000100

00001e9c <SYSCFG_OTP_SPICAddr4ByteEn>:
    1e9c:	4b02      	ldr	r3, [pc, #8]	; (1ea8 <SYSCFG_OTP_SPICAddr4ByteEn+0xc>)
    1e9e:	6818      	ldr	r0, [r3, #0]
    1ea0:	0380      	lsls	r0, r0, #14
    1ea2:	0fc0      	lsrs	r0, r0, #31
    1ea4:	4770      	bx	lr
    1ea6:	46c0      	nop			; (mov r8, r8)
    1ea8:	42000100 	.word	0x42000100

00001eac <SYSCFG_OTP_FlashDSleepEn>:
    1eac:	4b02      	ldr	r3, [pc, #8]	; (1eb8 <SYSCFG_OTP_FlashDSleepEn+0xc>)
    1eae:	6818      	ldr	r0, [r3, #0]
    1eb0:	03c0      	lsls	r0, r0, #15
    1eb2:	0fc0      	lsrs	r0, r0, #31
    1eb4:	4770      	bx	lr
    1eb6:	46c0      	nop			; (mov r8, r8)
    1eb8:	42000100 	.word	0x42000100

00001ebc <SYSCFG_OTP_UartDownloadDis>:
    1ebc:	2001      	movs	r0, #1
    1ebe:	4b02      	ldr	r3, [pc, #8]	; (1ec8 <SYSCFG_OTP_UartDownloadDis+0xc>)
    1ec0:	681b      	ldr	r3, [r3, #0]
    1ec2:	4398      	bics	r0, r3
    1ec4:	4770      	bx	lr
    1ec6:	46c0      	nop			; (mov r8, r8)
    1ec8:	42000368 	.word	0x42000368

00001ecc <SYSCFG_OTP_SBoot_HW_DIS>:
    1ecc:	2001      	movs	r0, #1
    1ece:	4b02      	ldr	r3, [pc, #8]	; (1ed8 <SYSCFG_OTP_SBoot_HW_DIS+0xc>)
    1ed0:	681b      	ldr	r3, [r3, #0]
    1ed2:	091b      	lsrs	r3, r3, #4
    1ed4:	4398      	bics	r0, r3
    1ed6:	4770      	bx	lr
    1ed8:	42000368 	.word	0x42000368

00001edc <SYSCFG_OTP_AntiRollback>:
    1edc:	2001      	movs	r0, #1
    1ede:	4b02      	ldr	r3, [pc, #8]	; (1ee8 <SYSCFG_OTP_AntiRollback+0xc>)
    1ee0:	681b      	ldr	r3, [r3, #0]
    1ee2:	099b      	lsrs	r3, r3, #6
    1ee4:	4398      	bics	r0, r3
    1ee6:	4770      	bx	lr
    1ee8:	42000368 	.word	0x42000368

00001eec <SYSCFG_OTP_FaultLogDis>:
    1eec:	2001      	movs	r0, #1
    1eee:	4b02      	ldr	r3, [pc, #8]	; (1ef8 <SYSCFG_OTP_FaultLogDis+0xc>)
    1ef0:	681b      	ldr	r3, [r3, #0]
    1ef2:	09db      	lsrs	r3, r3, #7
    1ef4:	4398      	bics	r0, r3
    1ef6:	4770      	bx	lr
    1ef8:	42000368 	.word	0x42000368

00001efc <SYSCFG_OTP_RSIPMode>:
    1efc:	2201      	movs	r2, #1
    1efe:	2000      	movs	r0, #0
    1f00:	4b03      	ldr	r3, [pc, #12]	; (1f10 <SYSCFG_OTP_RSIPMode+0x14>)
    1f02:	681b      	ldr	r3, [r3, #0]
    1f04:	059b      	lsls	r3, r3, #22
    1f06:	0f9b      	lsrs	r3, r3, #30
    1f08:	3b01      	subs	r3, #1
    1f0a:	429a      	cmp	r2, r3
    1f0c:	4140      	adcs	r0, r0
    1f0e:	4770      	bx	lr
    1f10:	42000368 	.word	0x42000368

00001f14 <SYSCFG_OTP_HUKDerivEn>:
    1f14:	2001      	movs	r0, #1
    1f16:	4b02      	ldr	r3, [pc, #8]	; (1f20 <SYSCFG_OTP_HUKDerivEn+0xc>)
    1f18:	681b      	ldr	r3, [r3, #0]
    1f1a:	0a9b      	lsrs	r3, r3, #10
    1f1c:	4398      	bics	r0, r3
    1f1e:	4770      	bx	lr
    1f20:	42000368 	.word	0x42000368

00001f24 <SYSCFG_OTP_RomPatchEn>:
    1f24:	2203      	movs	r2, #3
    1f26:	4b05      	ldr	r3, [pc, #20]	; (1f3c <SYSCFG_OTP_RomPatchEn+0x18>)
    1f28:	2000      	movs	r0, #0
    1f2a:	781b      	ldrb	r3, [r3, #0]
    1f2c:	4013      	ands	r3, r2
    1f2e:	4293      	cmp	r3, r2
    1f30:	d002      	beq.n	1f38 <SYSCFG_OTP_RomPatchEn+0x14>
    1f32:	0018      	movs	r0, r3
    1f34:	1e43      	subs	r3, r0, #1
    1f36:	4198      	sbcs	r0, r3
    1f38:	4770      	bx	lr
    1f3a:	46c0      	nop			; (mov r8, r8)
    1f3c:	42000701 	.word	0x42000701

00001f40 <SYSCFG_OTP_RandDelayEn>:
    1f40:	4b02      	ldr	r3, [pc, #8]	; (1f4c <SYSCFG_OTP_RandDelayEn+0xc>)
    1f42:	6818      	ldr	r0, [r3, #0]
    1f44:	0080      	lsls	r0, r0, #2
    1f46:	0fc0      	lsrs	r0, r0, #31
    1f48:	4770      	bx	lr
    1f4a:	46c0      	nop			; (mov r8, r8)
    1f4c:	42000100 	.word	0x42000100

00001f50 <SYSCFG_OTP_RMAMode>:
    1f50:	b510      	push	{r4, lr}
    1f52:	2208      	movs	r2, #8
    1f54:	2000      	movs	r0, #0
    1f56:	2401      	movs	r4, #1
    1f58:	4b06      	ldr	r3, [pc, #24]	; (1f74 <SYSCFG_OTP_RMAMode+0x24>)
    1f5a:	781b      	ldrb	r3, [r3, #0]
    1f5c:	b2db      	uxtb	r3, r3
    1f5e:	0019      	movs	r1, r3
    1f60:	3a01      	subs	r2, #1
    1f62:	4021      	ands	r1, r4
    1f64:	1840      	adds	r0, r0, r1
    1f66:	085b      	lsrs	r3, r3, #1
    1f68:	2a00      	cmp	r2, #0
    1f6a:	d1f8      	bne.n	1f5e <SYSCFG_OTP_RMAMode+0xe>
    1f6c:	2301      	movs	r3, #1
    1f6e:	4018      	ands	r0, r3
    1f70:	bd10      	pop	{r4, pc}
    1f72:	46c0      	nop			; (mov r8, r8)
    1f74:	42000700 	.word	0x42000700

00001f78 <SYSCFG_OTP_GetUsbPhyCalData>:
    1f78:	4b01      	ldr	r3, [pc, #4]	; (1f80 <SYSCFG_OTP_GetUsbPhyCalData+0x8>)
    1f7a:	6818      	ldr	r0, [r3, #0]
    1f7c:	4770      	bx	lr
    1f7e:	46c0      	nop			; (mov r8, r8)
    1f80:	42000108 	.word	0x42000108

00001f84 <SYSCFG_OTP_GetUsbPhyCalData2>:
    1f84:	4b01      	ldr	r3, [pc, #4]	; (1f8c <SYSCFG_OTP_GetUsbPhyCalData2+0x8>)
    1f86:	6818      	ldr	r0, [r3, #0]
    1f88:	4770      	bx	lr
    1f8a:	46c0      	nop			; (mov r8, r8)
    1f8c:	4200010c 	.word	0x4200010c

00001f90 <SYSCFG_OTP_UsbDownloadEnable>:
    1f90:	4b01      	ldr	r3, [pc, #4]	; (1f98 <SYSCFG_OTP_UsbDownloadEnable+0x8>)
    1f92:	6818      	ldr	r0, [r3, #0]
    1f94:	0fc0      	lsrs	r0, r0, #31
    1f96:	4770      	bx	lr
    1f98:	42000100 	.word	0x42000100

00001f9c <SYSCFG_BootFromNor>:
    1f9c:	b510      	push	{r4, lr}
    1f9e:	f7ff ff65 	bl	1e6c <SYSCFG_OTP_BootSelect>
    1fa2:	2301      	movs	r3, #1
    1fa4:	2802      	cmp	r0, #2
    1fa6:	d009      	beq.n	1fbc <SYSCFG_BootFromNor+0x20>
    1fa8:	f7ff ff60 	bl	1e6c <SYSCFG_OTP_BootSelect>
    1fac:	2300      	movs	r3, #0
    1fae:	2801      	cmp	r0, #1
    1fb0:	d004      	beq.n	1fbc <SYSCFG_BootFromNor+0x20>
    1fb2:	f7ff feeb 	bl	1d8c <SYSCFG_TRP_BootSel>
    1fb6:	0003      	movs	r3, r0
    1fb8:	1e5a      	subs	r2, r3, #1
    1fba:	4193      	sbcs	r3, r2
    1fbc:	0018      	movs	r0, r3
    1fbe:	bd10      	pop	{r4, pc}

00001fc0 <SYSCFG_HWTrigDownload>:
    1fc0:	b510      	push	{r4, lr}
    1fc2:	f7ff ff7b 	bl	1ebc <SYSCFG_OTP_UartDownloadDis>
    1fc6:	0003      	movs	r3, r0
    1fc8:	2000      	movs	r0, #0
    1fca:	b90b      	cbnz	r3, 1fd0 <SYSCFG_HWTrigDownload+0x10>
    1fcc:	f7ff fec0 	bl	1d50 <SYSCFG_TRP_UARTImage>
    1fd0:	bd10      	pop	{r4, pc}

00001fd2 <SYS_M0CtrlSel>:
    1fd2:	b5f7      	push	{r0, r1, r2, r4, r5, r6, r7, lr}
    1fd4:	2500      	movs	r5, #0
    1fd6:	2701      	movs	r7, #1
    1fd8:	f644 6620 	movw	r6, #20000	; 0x4e20
    1fdc:	9001      	str	r0, [sp, #4]
    1fde:	4b0e      	ldr	r3, [pc, #56]	; (2018 <SYS_M0CtrlSel+0x46>)
    1fe0:	2001      	movs	r0, #1
    1fe2:	681c      	ldr	r4, [r3, #0]
    1fe4:	4b0d      	ldr	r3, [pc, #52]	; (201c <SYS_M0CtrlSel+0x4a>)
    1fe6:	403c      	ands	r4, r7
    1fe8:	4798      	blx	r3
    1fea:	3501      	adds	r5, #1
    1fec:	b91c      	cbnz	r4, 1ff6 <SYS_M0CtrlSel+0x24>
    1fee:	42b5      	cmp	r5, r6
    1ff0:	d1f5      	bne.n	1fde <SYS_M0CtrlSel+0xc>
    1ff2:	0020      	movs	r0, r4
    1ff4:	bdfe      	pop	{r1, r2, r3, r4, r5, r6, r7, pc}
    1ff6:	42b5      	cmp	r5, r6
    1ff8:	d00b      	beq.n	2012 <SYS_M0CtrlSel+0x40>
    1ffa:	4a09      	ldr	r2, [pc, #36]	; (2020 <SYS_M0CtrlSel+0x4e>)
    1ffc:	9901      	ldr	r1, [sp, #4]
    1ffe:	6810      	ldr	r0, [r2, #0]
    2000:	4b08      	ldr	r3, [pc, #32]	; (2024 <SYS_M0CtrlSel+0x52>)
    2002:	4003      	ands	r3, r0
    2004:	0508      	lsls	r0, r1, #20
    2006:	21c0      	movs	r1, #192	; 0xc0
    2008:	0389      	lsls	r1, r1, #14
    200a:	4008      	ands	r0, r1
    200c:	4318      	orrs	r0, r3
    200e:	6010      	str	r0, [r2, #0]
    2010:	e7ef      	b.n	1ff2 <SYS_M0CtrlSel+0x20>
    2012:	2400      	movs	r4, #0
    2014:	e7ed      	b.n	1ff2 <SYS_M0CtrlSel+0x20>
    2016:	46c0      	nop			; (mov r8, r8)
    2018:	42008244 	.word	0x42008244
    201c:	0000030b 	.word	0x0000030b
    2020:	42008240 	.word	0x42008240
    2024:	ffcfffff 	.word	0xffcfffff

00002028 <SYSCFG_SWTrigDownload>:
    2028:	4b07      	ldr	r3, [pc, #28]	; (2048 <SYSCFG_SWTrigDownload+0x20>)
    202a:	b510      	push	{r4, lr}
    202c:	681a      	ldr	r2, [r3, #0]
    202e:	f640 0300 	movw	r3, #2048	; 0x800
    2032:	0010      	movs	r0, r2
    2034:	4018      	ands	r0, r3
    2036:	421a      	tst	r2, r3
    2038:	d004      	beq.n	2044 <SYSCFG_SWTrigDownload+0x1c>
    203a:	2000      	movs	r0, #0
    203c:	4b03      	ldr	r3, [pc, #12]	; (204c <SYSCFG_SWTrigDownload+0x24>)
    203e:	4798      	blx	r3
    2040:	0580      	lsls	r0, r0, #22
    2042:	0fc0      	lsrs	r0, r0, #31
    2044:	bd10      	pop	{r4, pc}
    2046:	46c0      	nop			; (mov r8, r8)
    2048:	42000368 	.word	0x42000368
    204c:	00000159 	.word	0x00000159

00002050 <SYSTIMER_Init>:
    2050:	b570      	push	{r4, r5, r6, lr}
    2052:	b08a      	sub	sp, #40	; 0x28
    2054:	ac03      	add	r4, sp, #12
    2056:	0020      	movs	r0, r4
    2058:	4b0c      	ldr	r3, [pc, #48]	; (208c <SYSTIMER_Init+0x3c>)
    205a:	4798      	blx	r3
    205c:	2301      	movs	r3, #1
    205e:	2200      	movs	r2, #0
    2060:	2501      	movs	r5, #1
    2062:	4e0b      	ldr	r6, [pc, #44]	; (2090 <SYSTIMER_Init+0x40>)
    2064:	425b      	negs	r3, r3
    2066:	9304      	str	r3, [sp, #16]
    2068:	3305      	adds	r3, #5
    206a:	7522      	strb	r2, [r4, #20]
    206c:	0021      	movs	r1, r4
    206e:	0030      	movs	r0, r6
    2070:	9306      	str	r3, [sp, #24]
    2072:	9200      	str	r2, [sp, #0]
    2074:	0013      	movs	r3, r2
    2076:	4c07      	ldr	r4, [pc, #28]	; (2094 <SYSTIMER_Init+0x44>)
    2078:	9203      	str	r2, [sp, #12]
    207a:	9505      	str	r5, [sp, #20]
    207c:	9507      	str	r5, [sp, #28]
    207e:	47a0      	blx	r4
    2080:	0029      	movs	r1, r5
    2082:	0030      	movs	r0, r6
    2084:	4b04      	ldr	r3, [pc, #16]	; (2098 <SYSTIMER_Init+0x48>)
    2086:	4798      	blx	r3
    2088:	b00a      	add	sp, #40	; 0x28
    208a:	bd70      	pop	{r4, r5, r6, pc}
    208c:	00002105 	.word	0x00002105
    2090:	4200b000 	.word	0x4200b000
    2094:	00002645 	.word	0x00002645
    2098:	0000211d 	.word	0x0000211d

0000209c <SYSTIMER_TickGet>:
    209c:	b510      	push	{r4, lr}
    209e:	4802      	ldr	r0, [pc, #8]	; (20a8 <SYSTIMER_TickGet+0xc>)
    20a0:	4b02      	ldr	r3, [pc, #8]	; (20ac <SYSTIMER_TickGet+0x10>)
    20a2:	4798      	blx	r3
    20a4:	bd10      	pop	{r4, pc}
    20a6:	46c0      	nop			; (mov r8, r8)
    20a8:	4200b000 	.word	0x4200b000
    20ac:	00002271 	.word	0x00002271

000020b0 <SYSTIMER_GetPassTick>:
    20b0:	b510      	push	{r4, lr}
    20b2:	4b05      	ldr	r3, [pc, #20]	; (20c8 <SYSTIMER_GetPassTick+0x18>)
    20b4:	0004      	movs	r4, r0
    20b6:	4805      	ldr	r0, [pc, #20]	; (20cc <SYSTIMER_GetPassTick+0x1c>)
    20b8:	4798      	blx	r3
    20ba:	42a0      	cmp	r0, r4
    20bc:	d301      	bcc.n	20c2 <SYSTIMER_GetPassTick+0x12>
    20be:	1b00      	subs	r0, r0, r4
    20c0:	bd10      	pop	{r4, pc}
    20c2:	1a20      	subs	r0, r4, r0
    20c4:	43c0      	mvns	r0, r0
    20c6:	e7fb      	b.n	20c0 <SYSTIMER_GetPassTick+0x10>
    20c8:	00002271 	.word	0x00002271
    20cc:	4200b000 	.word	0x4200b000

000020d0 <SYSTIMER_GetPassTime>:
    20d0:	b510      	push	{r4, lr}
    20d2:	4b0a      	ldr	r3, [pc, #40]	; (20fc <SYSTIMER_GetPassTime+0x2c>)
    20d4:	0004      	movs	r4, r0
    20d6:	480a      	ldr	r0, [pc, #40]	; (2100 <SYSTIMER_GetPassTime+0x30>)
    20d8:	4798      	blx	r3
    20da:	42a0      	cmp	r0, r4
    20dc:	d30a      	bcc.n	20f4 <SYSTIMER_GetPassTime+0x24>
    20de:	1b04      	subs	r4, r0, r4
    20e0:	f240 33e8 	movw	r3, #1000	; 0x3e8
    20e4:	0be2      	lsrs	r2, r4, #15
    20e6:	0464      	lsls	r4, r4, #17
    20e8:	0c64      	lsrs	r4, r4, #17
    20ea:	435c      	muls	r4, r3
    20ec:	435a      	muls	r2, r3
    20ee:	0be0      	lsrs	r0, r4, #15
    20f0:	1810      	adds	r0, r2, r0
    20f2:	bd10      	pop	{r4, pc}
    20f4:	1a24      	subs	r4, r4, r0
    20f6:	43e4      	mvns	r4, r4
    20f8:	e7f2      	b.n	20e0 <SYSTIMER_GetPassTime+0x10>
    20fa:	46c0      	nop			; (mov r8, r8)
    20fc:	00002271 	.word	0x00002271
    2100:	4200b000 	.word	0x4200b000

00002104 <RTIM_TimeBaseStructInit>:
    2104:	f64f 72ff 	movw	r2, #65535	; 0xffff
    2108:	2300      	movs	r3, #0
    210a:	2104      	movs	r1, #4
    210c:	6042      	str	r2, [r0, #4]
    210e:	2201      	movs	r2, #1
    2110:	6003      	str	r3, [r0, #0]
    2112:	6082      	str	r2, [r0, #8]
    2114:	60c1      	str	r1, [r0, #12]
    2116:	6102      	str	r2, [r0, #16]
    2118:	6183      	str	r3, [r0, #24]
    211a:	4770      	bx	lr

0000211c <RTIM_Cmd>:
    211c:	4b37      	ldr	r3, [pc, #220]	; (21fc <RTIM_Cmd+0xe0>)
    211e:	b570      	push	{r4, r5, r6, lr}
    2120:	0004      	movs	r4, r0
    2122:	000d      	movs	r5, r1
    2124:	4298      	cmp	r0, r3
    2126:	d054      	beq.n	21d2 <RTIM_Cmd+0xb6>
    2128:	4b35      	ldr	r3, [pc, #212]	; (2200 <RTIM_Cmd+0xe4>)
    212a:	4298      	cmp	r0, r3
    212c:	d051      	beq.n	21d2 <RTIM_Cmd+0xb6>
    212e:	4b35      	ldr	r3, [pc, #212]	; (2204 <RTIM_Cmd+0xe8>)
    2130:	4298      	cmp	r0, r3
    2132:	d04e      	beq.n	21d2 <RTIM_Cmd+0xb6>
    2134:	4b34      	ldr	r3, [pc, #208]	; (2208 <RTIM_Cmd+0xec>)
    2136:	4298      	cmp	r0, r3
    2138:	d04b      	beq.n	21d2 <RTIM_Cmd+0xb6>
    213a:	4b34      	ldr	r3, [pc, #208]	; (220c <RTIM_Cmd+0xf0>)
    213c:	4298      	cmp	r0, r3
    213e:	d048      	beq.n	21d2 <RTIM_Cmd+0xb6>
    2140:	4b33      	ldr	r3, [pc, #204]	; (2210 <RTIM_Cmd+0xf4>)
    2142:	4298      	cmp	r0, r3
    2144:	d045      	beq.n	21d2 <RTIM_Cmd+0xb6>
    2146:	4b33      	ldr	r3, [pc, #204]	; (2214 <RTIM_Cmd+0xf8>)
    2148:	4298      	cmp	r0, r3
    214a:	d042      	beq.n	21d2 <RTIM_Cmd+0xb6>
    214c:	4b32      	ldr	r3, [pc, #200]	; (2218 <RTIM_Cmd+0xfc>)
    214e:	4298      	cmp	r0, r3
    2150:	d03f      	beq.n	21d2 <RTIM_Cmd+0xb6>
    2152:	4b32      	ldr	r3, [pc, #200]	; (221c <RTIM_Cmd+0x100>)
    2154:	4298      	cmp	r0, r3
    2156:	d03c      	beq.n	21d2 <RTIM_Cmd+0xb6>
    2158:	4b31      	ldr	r3, [pc, #196]	; (2220 <RTIM_Cmd+0x104>)
    215a:	4298      	cmp	r0, r3
    215c:	d039      	beq.n	21d2 <RTIM_Cmd+0xb6>
    215e:	4b31      	ldr	r3, [pc, #196]	; (2224 <RTIM_Cmd+0x108>)
    2160:	4298      	cmp	r0, r3
    2162:	d036      	beq.n	21d2 <RTIM_Cmd+0xb6>
    2164:	4b30      	ldr	r3, [pc, #192]	; (2228 <RTIM_Cmd+0x10c>)
    2166:	4298      	cmp	r0, r3
    2168:	d033      	beq.n	21d2 <RTIM_Cmd+0xb6>
    216a:	4b30      	ldr	r3, [pc, #192]	; (222c <RTIM_Cmd+0x110>)
    216c:	4298      	cmp	r0, r3
    216e:	d030      	beq.n	21d2 <RTIM_Cmd+0xb6>
    2170:	4b2f      	ldr	r3, [pc, #188]	; (2230 <RTIM_Cmd+0x114>)
    2172:	4298      	cmp	r0, r3
    2174:	d02d      	beq.n	21d2 <RTIM_Cmd+0xb6>
    2176:	4b2f      	ldr	r3, [pc, #188]	; (2234 <RTIM_Cmd+0x118>)
    2178:	4298      	cmp	r0, r3
    217a:	d02a      	beq.n	21d2 <RTIM_Cmd+0xb6>
    217c:	4b2e      	ldr	r3, [pc, #184]	; (2238 <RTIM_Cmd+0x11c>)
    217e:	4298      	cmp	r0, r3
    2180:	d027      	beq.n	21d2 <RTIM_Cmd+0xb6>
    2182:	4b2e      	ldr	r3, [pc, #184]	; (223c <RTIM_Cmd+0x120>)
    2184:	4298      	cmp	r0, r3
    2186:	d024      	beq.n	21d2 <RTIM_Cmd+0xb6>
    2188:	4b2d      	ldr	r3, [pc, #180]	; (2240 <RTIM_Cmd+0x124>)
    218a:	4298      	cmp	r0, r3
    218c:	d021      	beq.n	21d2 <RTIM_Cmd+0xb6>
    218e:	4b2d      	ldr	r3, [pc, #180]	; (2244 <RTIM_Cmd+0x128>)
    2190:	4298      	cmp	r0, r3
    2192:	d01e      	beq.n	21d2 <RTIM_Cmd+0xb6>
    2194:	4b2c      	ldr	r3, [pc, #176]	; (2248 <RTIM_Cmd+0x12c>)
    2196:	4298      	cmp	r0, r3
    2198:	d01b      	beq.n	21d2 <RTIM_Cmd+0xb6>
    219a:	4b2c      	ldr	r3, [pc, #176]	; (224c <RTIM_Cmd+0x130>)
    219c:	4298      	cmp	r0, r3
    219e:	d018      	beq.n	21d2 <RTIM_Cmd+0xb6>
    21a0:	4b2b      	ldr	r3, [pc, #172]	; (2250 <RTIM_Cmd+0x134>)
    21a2:	4298      	cmp	r0, r3
    21a4:	d015      	beq.n	21d2 <RTIM_Cmd+0xb6>
    21a6:	4b2b      	ldr	r3, [pc, #172]	; (2254 <RTIM_Cmd+0x138>)
    21a8:	4298      	cmp	r0, r3
    21aa:	d012      	beq.n	21d2 <RTIM_Cmd+0xb6>
    21ac:	4b2a      	ldr	r3, [pc, #168]	; (2258 <RTIM_Cmd+0x13c>)
    21ae:	4298      	cmp	r0, r3
    21b0:	d00f      	beq.n	21d2 <RTIM_Cmd+0xb6>
    21b2:	4b2a      	ldr	r3, [pc, #168]	; (225c <RTIM_Cmd+0x140>)
    21b4:	4298      	cmp	r0, r3
    21b6:	d00c      	beq.n	21d2 <RTIM_Cmd+0xb6>
    21b8:	4b29      	ldr	r3, [pc, #164]	; (2260 <RTIM_Cmd+0x144>)
    21ba:	4298      	cmp	r0, r3
    21bc:	d009      	beq.n	21d2 <RTIM_Cmd+0xb6>
    21be:	4b29      	ldr	r3, [pc, #164]	; (2264 <RTIM_Cmd+0x148>)
    21c0:	4298      	cmp	r0, r3
    21c2:	d006      	beq.n	21d2 <RTIM_Cmd+0xb6>
    21c4:	4b28      	ldr	r3, [pc, #160]	; (2268 <RTIM_Cmd+0x14c>)
    21c6:	4298      	cmp	r0, r3
    21c8:	d003      	beq.n	21d2 <RTIM_Cmd+0xb6>
    21ca:	21a1      	movs	r1, #161	; 0xa1
    21cc:	4827      	ldr	r0, [pc, #156]	; (226c <RTIM_Cmd+0x150>)
    21ce:	f7fd ffa1 	bl	114 <io_assert_failed>
    21d2:	f240 1300 	movw	r3, #256	; 0x100
    21d6:	6822      	ldr	r2, [r4, #0]
    21d8:	b13d      	cbz	r5, 21ea <RTIM_Cmd+0xce>
    21da:	421a      	tst	r2, r3
    21dc:	d101      	bne.n	21e2 <RTIM_Cmd+0xc6>
    21de:	2201      	movs	r2, #1
    21e0:	6022      	str	r2, [r4, #0]
    21e2:	6822      	ldr	r2, [r4, #0]
    21e4:	421a      	tst	r2, r3
    21e6:	d0fc      	beq.n	21e2 <RTIM_Cmd+0xc6>
    21e8:	bd70      	pop	{r4, r5, r6, pc}
    21ea:	421a      	tst	r2, r3
    21ec:	d001      	beq.n	21f2 <RTIM_Cmd+0xd6>
    21ee:	2202      	movs	r2, #2
    21f0:	6022      	str	r2, [r4, #0]
    21f2:	6822      	ldr	r2, [r4, #0]
    21f4:	421a      	tst	r2, r3
    21f6:	d1fc      	bne.n	21f2 <RTIM_Cmd+0xd6>
    21f8:	e7f6      	b.n	21e8 <RTIM_Cmd+0xcc>
    21fa:	46c0      	nop			; (mov r8, r8)
    21fc:	4200b000 	.word	0x4200b000
    2200:	4200b200 	.word	0x4200b200
    2204:	4200b400 	.word	0x4200b400
    2208:	4200b600 	.word	0x4200b600
    220c:	4200b800 	.word	0x4200b800
    2210:	4200ba00 	.word	0x4200ba00
    2214:	4200bc00 	.word	0x4200bc00
    2218:	4200be00 	.word	0x4200be00
    221c:	4100a000 	.word	0x4100a000
    2220:	4100a200 	.word	0x4100a200
    2224:	4100a400 	.word	0x4100a400
    2228:	4100a600 	.word	0x4100a600
    222c:	4100a800 	.word	0x4100a800
    2230:	4100aa00 	.word	0x4100aa00
    2234:	5200b000 	.word	0x5200b000
    2238:	5200b200 	.word	0x5200b200
    223c:	5200b400 	.word	0x5200b400
    2240:	5200b600 	.word	0x5200b600
    2244:	5200b800 	.word	0x5200b800
    2248:	5200ba00 	.word	0x5200ba00
    224c:	5200bc00 	.word	0x5200bc00
    2250:	5200be00 	.word	0x5200be00
    2254:	5100a000 	.word	0x5100a000
    2258:	5100a200 	.word	0x5100a200
    225c:	5100a400 	.word	0x5100a400
    2260:	5100a600 	.word	0x5100a600
    2264:	5100a800 	.word	0x5100a800
    2268:	5100aa00 	.word	0x5100aa00
    226c:	0000c50a 	.word	0x0000c50a

00002270 <RTIM_GetCount>:
    2270:	4b2f      	ldr	r3, [pc, #188]	; (2330 <RTIM_GetCount+0xc0>)
    2272:	b510      	push	{r4, lr}
    2274:	0004      	movs	r4, r0
    2276:	4298      	cmp	r0, r3
    2278:	d054      	beq.n	2324 <RTIM_GetCount+0xb4>
    227a:	4b2e      	ldr	r3, [pc, #184]	; (2334 <RTIM_GetCount+0xc4>)
    227c:	4298      	cmp	r0, r3
    227e:	d051      	beq.n	2324 <RTIM_GetCount+0xb4>
    2280:	4b2d      	ldr	r3, [pc, #180]	; (2338 <RTIM_GetCount+0xc8>)
    2282:	4298      	cmp	r0, r3
    2284:	d04e      	beq.n	2324 <RTIM_GetCount+0xb4>
    2286:	4b2d      	ldr	r3, [pc, #180]	; (233c <RTIM_GetCount+0xcc>)
    2288:	4298      	cmp	r0, r3
    228a:	d04b      	beq.n	2324 <RTIM_GetCount+0xb4>
    228c:	4b2c      	ldr	r3, [pc, #176]	; (2340 <RTIM_GetCount+0xd0>)
    228e:	4298      	cmp	r0, r3
    2290:	d048      	beq.n	2324 <RTIM_GetCount+0xb4>
    2292:	4b2c      	ldr	r3, [pc, #176]	; (2344 <RTIM_GetCount+0xd4>)
    2294:	4298      	cmp	r0, r3
    2296:	d045      	beq.n	2324 <RTIM_GetCount+0xb4>
    2298:	4b2b      	ldr	r3, [pc, #172]	; (2348 <RTIM_GetCount+0xd8>)
    229a:	4298      	cmp	r0, r3
    229c:	d042      	beq.n	2324 <RTIM_GetCount+0xb4>
    229e:	4b2b      	ldr	r3, [pc, #172]	; (234c <RTIM_GetCount+0xdc>)
    22a0:	4298      	cmp	r0, r3
    22a2:	d03f      	beq.n	2324 <RTIM_GetCount+0xb4>
    22a4:	4b2a      	ldr	r3, [pc, #168]	; (2350 <RTIM_GetCount+0xe0>)
    22a6:	4298      	cmp	r0, r3
    22a8:	d03c      	beq.n	2324 <RTIM_GetCount+0xb4>
    22aa:	4b2a      	ldr	r3, [pc, #168]	; (2354 <RTIM_GetCount+0xe4>)
    22ac:	4298      	cmp	r0, r3
    22ae:	d039      	beq.n	2324 <RTIM_GetCount+0xb4>
    22b0:	4b29      	ldr	r3, [pc, #164]	; (2358 <RTIM_GetCount+0xe8>)
    22b2:	4298      	cmp	r0, r3
    22b4:	d036      	beq.n	2324 <RTIM_GetCount+0xb4>
    22b6:	4b29      	ldr	r3, [pc, #164]	; (235c <RTIM_GetCount+0xec>)
    22b8:	4298      	cmp	r0, r3
    22ba:	d033      	beq.n	2324 <RTIM_GetCount+0xb4>
    22bc:	4b28      	ldr	r3, [pc, #160]	; (2360 <RTIM_GetCount+0xf0>)
    22be:	4298      	cmp	r0, r3
    22c0:	d030      	beq.n	2324 <RTIM_GetCount+0xb4>
    22c2:	4b28      	ldr	r3, [pc, #160]	; (2364 <RTIM_GetCount+0xf4>)
    22c4:	4298      	cmp	r0, r3
    22c6:	d02d      	beq.n	2324 <RTIM_GetCount+0xb4>
    22c8:	4b27      	ldr	r3, [pc, #156]	; (2368 <RTIM_GetCount+0xf8>)
    22ca:	4298      	cmp	r0, r3
    22cc:	d02a      	beq.n	2324 <RTIM_GetCount+0xb4>
    22ce:	4b27      	ldr	r3, [pc, #156]	; (236c <RTIM_GetCount+0xfc>)
    22d0:	4298      	cmp	r0, r3
    22d2:	d027      	beq.n	2324 <RTIM_GetCount+0xb4>
    22d4:	4b26      	ldr	r3, [pc, #152]	; (2370 <RTIM_GetCount+0x100>)
    22d6:	4298      	cmp	r0, r3
    22d8:	d024      	beq.n	2324 <RTIM_GetCount+0xb4>
    22da:	4b26      	ldr	r3, [pc, #152]	; (2374 <RTIM_GetCount+0x104>)
    22dc:	4298      	cmp	r0, r3
    22de:	d021      	beq.n	2324 <RTIM_GetCount+0xb4>
    22e0:	4b25      	ldr	r3, [pc, #148]	; (2378 <RTIM_GetCount+0x108>)
    22e2:	4298      	cmp	r0, r3
    22e4:	d01e      	beq.n	2324 <RTIM_GetCount+0xb4>
    22e6:	4b25      	ldr	r3, [pc, #148]	; (237c <RTIM_GetCount+0x10c>)
    22e8:	4298      	cmp	r0, r3
    22ea:	d01b      	beq.n	2324 <RTIM_GetCount+0xb4>
    22ec:	4b24      	ldr	r3, [pc, #144]	; (2380 <RTIM_GetCount+0x110>)
    22ee:	4298      	cmp	r0, r3
    22f0:	d018      	beq.n	2324 <RTIM_GetCount+0xb4>
    22f2:	4b24      	ldr	r3, [pc, #144]	; (2384 <RTIM_GetCount+0x114>)
    22f4:	4298      	cmp	r0, r3
    22f6:	d015      	beq.n	2324 <RTIM_GetCount+0xb4>
    22f8:	4b23      	ldr	r3, [pc, #140]	; (2388 <RTIM_GetCount+0x118>)
    22fa:	4298      	cmp	r0, r3
    22fc:	d012      	beq.n	2324 <RTIM_GetCount+0xb4>
    22fe:	4b23      	ldr	r3, [pc, #140]	; (238c <RTIM_GetCount+0x11c>)
    2300:	4298      	cmp	r0, r3
    2302:	d00f      	beq.n	2324 <RTIM_GetCount+0xb4>
    2304:	4b22      	ldr	r3, [pc, #136]	; (2390 <RTIM_GetCount+0x120>)
    2306:	4298      	cmp	r0, r3
    2308:	d00c      	beq.n	2324 <RTIM_GetCount+0xb4>
    230a:	4b22      	ldr	r3, [pc, #136]	; (2394 <RTIM_GetCount+0x124>)
    230c:	4298      	cmp	r0, r3
    230e:	d009      	beq.n	2324 <RTIM_GetCount+0xb4>
    2310:	4b21      	ldr	r3, [pc, #132]	; (2398 <RTIM_GetCount+0x128>)
    2312:	4298      	cmp	r0, r3
    2314:	d006      	beq.n	2324 <RTIM_GetCount+0xb4>
    2316:	4b21      	ldr	r3, [pc, #132]	; (239c <RTIM_GetCount+0x12c>)
    2318:	4298      	cmp	r0, r3
    231a:	d003      	beq.n	2324 <RTIM_GetCount+0xb4>
    231c:	21e0      	movs	r1, #224	; 0xe0
    231e:	4820      	ldr	r0, [pc, #128]	; (23a0 <RTIM_GetCount+0x130>)
    2320:	f7fd fef8 	bl	114 <io_assert_failed>
    2324:	6963      	ldr	r3, [r4, #20]
    2326:	6960      	ldr	r0, [r4, #20]
    2328:	4283      	cmp	r3, r0
    232a:	d000      	beq.n	232e <RTIM_GetCount+0xbe>
    232c:	6960      	ldr	r0, [r4, #20]
    232e:	bd10      	pop	{r4, pc}
    2330:	4200b000 	.word	0x4200b000
    2334:	4200b200 	.word	0x4200b200
    2338:	4200b400 	.word	0x4200b400
    233c:	4200b600 	.word	0x4200b600
    2340:	4200b800 	.word	0x4200b800
    2344:	4200ba00 	.word	0x4200ba00
    2348:	4200bc00 	.word	0x4200bc00
    234c:	4200be00 	.word	0x4200be00
    2350:	4100a000 	.word	0x4100a000
    2354:	4100a200 	.word	0x4100a200
    2358:	4100a400 	.word	0x4100a400
    235c:	4100a600 	.word	0x4100a600
    2360:	4100a800 	.word	0x4100a800
    2364:	4100aa00 	.word	0x4100aa00
    2368:	5200b000 	.word	0x5200b000
    236c:	5200b200 	.word	0x5200b200
    2370:	5200b400 	.word	0x5200b400
    2374:	5200b600 	.word	0x5200b600
    2378:	5200b800 	.word	0x5200b800
    237c:	5200ba00 	.word	0x5200ba00
    2380:	5200bc00 	.word	0x5200bc00
    2384:	5200be00 	.word	0x5200be00
    2388:	5100a000 	.word	0x5100a000
    238c:	5100a200 	.word	0x5100a200
    2390:	5100a400 	.word	0x5100a400
    2394:	5100a600 	.word	0x5100a600
    2398:	5100a800 	.word	0x5100a800
    239c:	5100aa00 	.word	0x5100aa00
    23a0:	0000c4f0 	.word	0x0000c4f0

000023a4 <RTIM_INTConfig>:
    23a4:	4b38      	ldr	r3, [pc, #224]	; (2488 <RTIM_INTConfig+0xe4>)
    23a6:	b570      	push	{r4, r5, r6, lr}
    23a8:	0004      	movs	r4, r0
    23aa:	000d      	movs	r5, r1
    23ac:	0016      	movs	r6, r2
    23ae:	4298      	cmp	r0, r3
    23b0:	d055      	beq.n	245e <RTIM_INTConfig+0xba>
    23b2:	4b36      	ldr	r3, [pc, #216]	; (248c <RTIM_INTConfig+0xe8>)
    23b4:	4298      	cmp	r0, r3
    23b6:	d052      	beq.n	245e <RTIM_INTConfig+0xba>
    23b8:	4b35      	ldr	r3, [pc, #212]	; (2490 <RTIM_INTConfig+0xec>)
    23ba:	4298      	cmp	r0, r3
    23bc:	d04f      	beq.n	245e <RTIM_INTConfig+0xba>
    23be:	4b35      	ldr	r3, [pc, #212]	; (2494 <RTIM_INTConfig+0xf0>)
    23c0:	4298      	cmp	r0, r3
    23c2:	d04c      	beq.n	245e <RTIM_INTConfig+0xba>
    23c4:	4b34      	ldr	r3, [pc, #208]	; (2498 <RTIM_INTConfig+0xf4>)
    23c6:	4298      	cmp	r0, r3
    23c8:	d049      	beq.n	245e <RTIM_INTConfig+0xba>
    23ca:	4b34      	ldr	r3, [pc, #208]	; (249c <RTIM_INTConfig+0xf8>)
    23cc:	4298      	cmp	r0, r3
    23ce:	d046      	beq.n	245e <RTIM_INTConfig+0xba>
    23d0:	4b33      	ldr	r3, [pc, #204]	; (24a0 <RTIM_INTConfig+0xfc>)
    23d2:	4298      	cmp	r0, r3
    23d4:	d043      	beq.n	245e <RTIM_INTConfig+0xba>
    23d6:	4b33      	ldr	r3, [pc, #204]	; (24a4 <RTIM_INTConfig+0x100>)
    23d8:	4298      	cmp	r0, r3
    23da:	d040      	beq.n	245e <RTIM_INTConfig+0xba>
    23dc:	4b32      	ldr	r3, [pc, #200]	; (24a8 <RTIM_INTConfig+0x104>)
    23de:	4298      	cmp	r0, r3
    23e0:	d03d      	beq.n	245e <RTIM_INTConfig+0xba>
    23e2:	4b32      	ldr	r3, [pc, #200]	; (24ac <RTIM_INTConfig+0x108>)
    23e4:	4298      	cmp	r0, r3
    23e6:	d03a      	beq.n	245e <RTIM_INTConfig+0xba>
    23e8:	4b31      	ldr	r3, [pc, #196]	; (24b0 <RTIM_INTConfig+0x10c>)
    23ea:	4298      	cmp	r0, r3
    23ec:	d037      	beq.n	245e <RTIM_INTConfig+0xba>
    23ee:	4b31      	ldr	r3, [pc, #196]	; (24b4 <RTIM_INTConfig+0x110>)
    23f0:	4298      	cmp	r0, r3
    23f2:	d034      	beq.n	245e <RTIM_INTConfig+0xba>
    23f4:	4b30      	ldr	r3, [pc, #192]	; (24b8 <RTIM_INTConfig+0x114>)
    23f6:	4298      	cmp	r0, r3
    23f8:	d031      	beq.n	245e <RTIM_INTConfig+0xba>
    23fa:	4b30      	ldr	r3, [pc, #192]	; (24bc <RTIM_INTConfig+0x118>)
    23fc:	4298      	cmp	r0, r3
    23fe:	d02e      	beq.n	245e <RTIM_INTConfig+0xba>
    2400:	4b2f      	ldr	r3, [pc, #188]	; (24c0 <RTIM_INTConfig+0x11c>)
    2402:	4298      	cmp	r0, r3
    2404:	d02b      	beq.n	245e <RTIM_INTConfig+0xba>
    2406:	4b2f      	ldr	r3, [pc, #188]	; (24c4 <RTIM_INTConfig+0x120>)
    2408:	4298      	cmp	r0, r3
    240a:	d028      	beq.n	245e <RTIM_INTConfig+0xba>
    240c:	4b2e      	ldr	r3, [pc, #184]	; (24c8 <RTIM_INTConfig+0x124>)
    240e:	4298      	cmp	r0, r3
    2410:	d025      	beq.n	245e <RTIM_INTConfig+0xba>
    2412:	4b2e      	ldr	r3, [pc, #184]	; (24cc <RTIM_INTConfig+0x128>)
    2414:	4298      	cmp	r0, r3
    2416:	d022      	beq.n	245e <RTIM_INTConfig+0xba>
    2418:	4b2d      	ldr	r3, [pc, #180]	; (24d0 <RTIM_INTConfig+0x12c>)
    241a:	4298      	cmp	r0, r3
    241c:	d01f      	beq.n	245e <RTIM_INTConfig+0xba>
    241e:	4b2d      	ldr	r3, [pc, #180]	; (24d4 <RTIM_INTConfig+0x130>)
    2420:	4298      	cmp	r0, r3
    2422:	d01c      	beq.n	245e <RTIM_INTConfig+0xba>
    2424:	4b2c      	ldr	r3, [pc, #176]	; (24d8 <RTIM_INTConfig+0x134>)
    2426:	4298      	cmp	r0, r3
    2428:	d019      	beq.n	245e <RTIM_INTConfig+0xba>
    242a:	4b2c      	ldr	r3, [pc, #176]	; (24dc <RTIM_INTConfig+0x138>)
    242c:	4298      	cmp	r0, r3
    242e:	d016      	beq.n	245e <RTIM_INTConfig+0xba>
    2430:	4b2b      	ldr	r3, [pc, #172]	; (24e0 <RTIM_INTConfig+0x13c>)
    2432:	4298      	cmp	r0, r3
    2434:	d013      	beq.n	245e <RTIM_INTConfig+0xba>
    2436:	4b2b      	ldr	r3, [pc, #172]	; (24e4 <RTIM_INTConfig+0x140>)
    2438:	4298      	cmp	r0, r3
    243a:	d010      	beq.n	245e <RTIM_INTConfig+0xba>
    243c:	4b2a      	ldr	r3, [pc, #168]	; (24e8 <RTIM_INTConfig+0x144>)
    243e:	4298      	cmp	r0, r3
    2440:	d00d      	beq.n	245e <RTIM_INTConfig+0xba>
    2442:	4b2a      	ldr	r3, [pc, #168]	; (24ec <RTIM_INTConfig+0x148>)
    2444:	4298      	cmp	r0, r3
    2446:	d00a      	beq.n	245e <RTIM_INTConfig+0xba>
    2448:	4b29      	ldr	r3, [pc, #164]	; (24f0 <RTIM_INTConfig+0x14c>)
    244a:	4298      	cmp	r0, r3
    244c:	d007      	beq.n	245e <RTIM_INTConfig+0xba>
    244e:	4b29      	ldr	r3, [pc, #164]	; (24f4 <RTIM_INTConfig+0x150>)
    2450:	4298      	cmp	r0, r3
    2452:	d004      	beq.n	245e <RTIM_INTConfig+0xba>
    2454:	f240 1111 	movw	r1, #273	; 0x111
    2458:	4827      	ldr	r0, [pc, #156]	; (24f8 <RTIM_INTConfig+0x154>)
    245a:	f7fd fe5b 	bl	114 <io_assert_failed>
    245e:	4b27      	ldr	r3, [pc, #156]	; (24fc <RTIM_INTConfig+0x158>)
    2460:	421d      	tst	r5, r3
    2462:	d102      	bne.n	246a <RTIM_INTConfig+0xc6>
    2464:	4b26      	ldr	r3, [pc, #152]	; (2500 <RTIM_INTConfig+0x15c>)
    2466:	421d      	tst	r5, r3
    2468:	d104      	bne.n	2474 <RTIM_INTConfig+0xd0>
    246a:	f240 1112 	movw	r1, #274	; 0x112
    246e:	4822      	ldr	r0, [pc, #136]	; (24f8 <RTIM_INTConfig+0x154>)
    2470:	f7fd fe50 	bl	114 <io_assert_failed>
    2474:	b11e      	cbz	r6, 247e <RTIM_INTConfig+0xda>
    2476:	68a1      	ldr	r1, [r4, #8]
    2478:	430d      	orrs	r5, r1
    247a:	60a5      	str	r5, [r4, #8]
    247c:	bd70      	pop	{r4, r5, r6, pc}
    247e:	68a3      	ldr	r3, [r4, #8]
    2480:	43ab      	bics	r3, r5
    2482:	60a3      	str	r3, [r4, #8]
    2484:	e7fa      	b.n	247c <RTIM_INTConfig+0xd8>
    2486:	46c0      	nop			; (mov r8, r8)
    2488:	4200b000 	.word	0x4200b000
    248c:	4200b200 	.word	0x4200b200
    2490:	4200b400 	.word	0x4200b400
    2494:	4200b600 	.word	0x4200b600
    2498:	4200b800 	.word	0x4200b800
    249c:	4200ba00 	.word	0x4200ba00
    24a0:	4200bc00 	.word	0x4200bc00
    24a4:	4200be00 	.word	0x4200be00
    24a8:	4100a000 	.word	0x4100a000
    24ac:	4100a200 	.word	0x4100a200
    24b0:	4100a400 	.word	0x4100a400
    24b4:	4100a600 	.word	0x4100a600
    24b8:	4100a800 	.word	0x4100a800
    24bc:	4100aa00 	.word	0x4100aa00
    24c0:	5200b000 	.word	0x5200b000
    24c4:	5200b200 	.word	0x5200b200
    24c8:	5200b400 	.word	0x5200b400
    24cc:	5200b600 	.word	0x5200b600
    24d0:	5200b800 	.word	0x5200b800
    24d4:	5200ba00 	.word	0x5200ba00
    24d8:	5200bc00 	.word	0x5200bc00
    24dc:	5200be00 	.word	0x5200be00
    24e0:	5100a000 	.word	0x5100a000
    24e4:	5100a200 	.word	0x5100a200
    24e8:	5100a400 	.word	0x5100a400
    24ec:	5100a600 	.word	0x5100a600
    24f0:	5100a800 	.word	0x5100a800
    24f4:	5100aa00 	.word	0x5100aa00
    24f8:	0000c4e1 	.word	0x0000c4e1
    24fc:	ffc0ff80 	.word	0xffc0ff80
    2500:	003f007f 	.word	0x003f007f

00002504 <RTIM_INTClear>:
    2504:	4b32      	ldr	r3, [pc, #200]	; (25d0 <RTIM_INTClear+0xcc>)
    2506:	b570      	push	{r4, r5, r6, lr}
    2508:	0004      	movs	r4, r0
    250a:	68c5      	ldr	r5, [r0, #12]
    250c:	4298      	cmp	r0, r3
    250e:	d055      	beq.n	25bc <RTIM_INTClear+0xb8>
    2510:	4b30      	ldr	r3, [pc, #192]	; (25d4 <RTIM_INTClear+0xd0>)
    2512:	4298      	cmp	r0, r3
    2514:	d052      	beq.n	25bc <RTIM_INTClear+0xb8>
    2516:	4b30      	ldr	r3, [pc, #192]	; (25d8 <RTIM_INTClear+0xd4>)
    2518:	4298      	cmp	r0, r3
    251a:	d04f      	beq.n	25bc <RTIM_INTClear+0xb8>
    251c:	4b2f      	ldr	r3, [pc, #188]	; (25dc <RTIM_INTClear+0xd8>)
    251e:	4298      	cmp	r0, r3
    2520:	d04c      	beq.n	25bc <RTIM_INTClear+0xb8>
    2522:	4b2f      	ldr	r3, [pc, #188]	; (25e0 <RTIM_INTClear+0xdc>)
    2524:	4298      	cmp	r0, r3
    2526:	d049      	beq.n	25bc <RTIM_INTClear+0xb8>
    2528:	4b2e      	ldr	r3, [pc, #184]	; (25e4 <RTIM_INTClear+0xe0>)
    252a:	4298      	cmp	r0, r3
    252c:	d046      	beq.n	25bc <RTIM_INTClear+0xb8>
    252e:	4b2e      	ldr	r3, [pc, #184]	; (25e8 <RTIM_INTClear+0xe4>)
    2530:	4298      	cmp	r0, r3
    2532:	d043      	beq.n	25bc <RTIM_INTClear+0xb8>
    2534:	4b2d      	ldr	r3, [pc, #180]	; (25ec <RTIM_INTClear+0xe8>)
    2536:	4298      	cmp	r0, r3
    2538:	d040      	beq.n	25bc <RTIM_INTClear+0xb8>
    253a:	4b2d      	ldr	r3, [pc, #180]	; (25f0 <RTIM_INTClear+0xec>)
    253c:	4298      	cmp	r0, r3
    253e:	d03d      	beq.n	25bc <RTIM_INTClear+0xb8>
    2540:	4b2c      	ldr	r3, [pc, #176]	; (25f4 <RTIM_INTClear+0xf0>)
    2542:	4298      	cmp	r0, r3
    2544:	d03a      	beq.n	25bc <RTIM_INTClear+0xb8>
    2546:	4b2c      	ldr	r3, [pc, #176]	; (25f8 <RTIM_INTClear+0xf4>)
    2548:	4298      	cmp	r0, r3
    254a:	d037      	beq.n	25bc <RTIM_INTClear+0xb8>
    254c:	4b2b      	ldr	r3, [pc, #172]	; (25fc <RTIM_INTClear+0xf8>)
    254e:	4298      	cmp	r0, r3
    2550:	d034      	beq.n	25bc <RTIM_INTClear+0xb8>
    2552:	4b2b      	ldr	r3, [pc, #172]	; (2600 <RTIM_INTClear+0xfc>)
    2554:	4298      	cmp	r0, r3
    2556:	d031      	beq.n	25bc <RTIM_INTClear+0xb8>
    2558:	4b2a      	ldr	r3, [pc, #168]	; (2604 <RTIM_INTClear+0x100>)
    255a:	4298      	cmp	r0, r3
    255c:	d02e      	beq.n	25bc <RTIM_INTClear+0xb8>
    255e:	4b2a      	ldr	r3, [pc, #168]	; (2608 <RTIM_INTClear+0x104>)
    2560:	4298      	cmp	r0, r3
    2562:	d02b      	beq.n	25bc <RTIM_INTClear+0xb8>
    2564:	4b29      	ldr	r3, [pc, #164]	; (260c <RTIM_INTClear+0x108>)
    2566:	4298      	cmp	r0, r3
    2568:	d028      	beq.n	25bc <RTIM_INTClear+0xb8>
    256a:	4b29      	ldr	r3, [pc, #164]	; (2610 <RTIM_INTClear+0x10c>)
    256c:	4298      	cmp	r0, r3
    256e:	d025      	beq.n	25bc <RTIM_INTClear+0xb8>
    2570:	4b28      	ldr	r3, [pc, #160]	; (2614 <RTIM_INTClear+0x110>)
    2572:	4298      	cmp	r0, r3
    2574:	d022      	beq.n	25bc <RTIM_INTClear+0xb8>
    2576:	4b28      	ldr	r3, [pc, #160]	; (2618 <RTIM_INTClear+0x114>)
    2578:	4298      	cmp	r0, r3
    257a:	d01f      	beq.n	25bc <RTIM_INTClear+0xb8>
    257c:	4b27      	ldr	r3, [pc, #156]	; (261c <RTIM_INTClear+0x118>)
    257e:	4298      	cmp	r0, r3
    2580:	d01c      	beq.n	25bc <RTIM_INTClear+0xb8>
    2582:	4b27      	ldr	r3, [pc, #156]	; (2620 <RTIM_INTClear+0x11c>)
    2584:	4298      	cmp	r0, r3
    2586:	d019      	beq.n	25bc <RTIM_INTClear+0xb8>
    2588:	4b26      	ldr	r3, [pc, #152]	; (2624 <RTIM_INTClear+0x120>)
    258a:	4298      	cmp	r0, r3
    258c:	d016      	beq.n	25bc <RTIM_INTClear+0xb8>
    258e:	4b26      	ldr	r3, [pc, #152]	; (2628 <RTIM_INTClear+0x124>)
    2590:	4298      	cmp	r0, r3
    2592:	d013      	beq.n	25bc <RTIM_INTClear+0xb8>
    2594:	4b25      	ldr	r3, [pc, #148]	; (262c <RTIM_INTClear+0x128>)
    2596:	4298      	cmp	r0, r3
    2598:	d010      	beq.n	25bc <RTIM_INTClear+0xb8>
    259a:	4b25      	ldr	r3, [pc, #148]	; (2630 <RTIM_INTClear+0x12c>)
    259c:	4298      	cmp	r0, r3
    259e:	d00d      	beq.n	25bc <RTIM_INTClear+0xb8>
    25a0:	4b24      	ldr	r3, [pc, #144]	; (2634 <RTIM_INTClear+0x130>)
    25a2:	4298      	cmp	r0, r3
    25a4:	d00a      	beq.n	25bc <RTIM_INTClear+0xb8>
    25a6:	4b24      	ldr	r3, [pc, #144]	; (2638 <RTIM_INTClear+0x134>)
    25a8:	4298      	cmp	r0, r3
    25aa:	d007      	beq.n	25bc <RTIM_INTClear+0xb8>
    25ac:	4b23      	ldr	r3, [pc, #140]	; (263c <RTIM_INTClear+0x138>)
    25ae:	4298      	cmp	r0, r3
    25b0:	d004      	beq.n	25bc <RTIM_INTClear+0xb8>
    25b2:	f240 1129 	movw	r1, #297	; 0x129
    25b6:	4822      	ldr	r0, [pc, #136]	; (2640 <RTIM_INTClear+0x13c>)
    25b8:	f7fd fdac 	bl	114 <io_assert_failed>
    25bc:	f240 122c 	movw	r2, #300	; 0x12c
    25c0:	60e5      	str	r5, [r4, #12]
    25c2:	3a01      	subs	r2, #1
    25c4:	b11a      	cbz	r2, 25ce <RTIM_INTClear+0xca>
    25c6:	68e3      	ldr	r3, [r4, #12]
    25c8:	021b      	lsls	r3, r3, #8
    25ca:	2b00      	cmp	r3, #0
    25cc:	d1f9      	bne.n	25c2 <RTIM_INTClear+0xbe>
    25ce:	bd70      	pop	{r4, r5, r6, pc}
    25d0:	4200b000 	.word	0x4200b000
    25d4:	4200b200 	.word	0x4200b200
    25d8:	4200b400 	.word	0x4200b400
    25dc:	4200b600 	.word	0x4200b600
    25e0:	4200b800 	.word	0x4200b800
    25e4:	4200ba00 	.word	0x4200ba00
    25e8:	4200bc00 	.word	0x4200bc00
    25ec:	4200be00 	.word	0x4200be00
    25f0:	4100a000 	.word	0x4100a000
    25f4:	4100a200 	.word	0x4100a200
    25f8:	4100a400 	.word	0x4100a400
    25fc:	4100a600 	.word	0x4100a600
    2600:	4100a800 	.word	0x4100a800
    2604:	4100aa00 	.word	0x4100aa00
    2608:	5200b000 	.word	0x5200b000
    260c:	5200b200 	.word	0x5200b200
    2610:	5200b400 	.word	0x5200b400
    2614:	5200b600 	.word	0x5200b600
    2618:	5200b800 	.word	0x5200b800
    261c:	5200ba00 	.word	0x5200ba00
    2620:	5200bc00 	.word	0x5200bc00
    2624:	5200be00 	.word	0x5200be00
    2628:	5100a000 	.word	0x5100a000
    262c:	5100a200 	.word	0x5100a200
    2630:	5100a400 	.word	0x5100a400
    2634:	5100a600 	.word	0x5100a600
    2638:	5100a800 	.word	0x5100a800
    263c:	5100aa00 	.word	0x5100aa00
    2640:	0000c4d3 	.word	0x0000c4d3

00002644 <RTIM_TimeBaseInit>:
    2644:	b5f7      	push	{r0, r1, r2, r4, r5, r6, r7, lr}
    2646:	9301      	str	r3, [sp, #4]
    2648:	4b61      	ldr	r3, [pc, #388]	; (27d0 <RTIM_TimeBaseInit+0x18c>)
    264a:	0004      	movs	r4, r0
    264c:	000d      	movs	r5, r1
    264e:	0016      	movs	r6, r2
    2650:	4f60      	ldr	r7, [pc, #384]	; (27d4 <RTIM_TimeBaseInit+0x190>)
    2652:	4298      	cmp	r0, r3
    2654:	d053      	beq.n	26fe <RTIM_TimeBaseInit+0xba>
    2656:	4b60      	ldr	r3, [pc, #384]	; (27d8 <RTIM_TimeBaseInit+0x194>)
    2658:	4298      	cmp	r0, r3
    265a:	d050      	beq.n	26fe <RTIM_TimeBaseInit+0xba>
    265c:	4b5f      	ldr	r3, [pc, #380]	; (27dc <RTIM_TimeBaseInit+0x198>)
    265e:	4298      	cmp	r0, r3
    2660:	d04d      	beq.n	26fe <RTIM_TimeBaseInit+0xba>
    2662:	4b5f      	ldr	r3, [pc, #380]	; (27e0 <RTIM_TimeBaseInit+0x19c>)
    2664:	4298      	cmp	r0, r3
    2666:	d04a      	beq.n	26fe <RTIM_TimeBaseInit+0xba>
    2668:	4b5e      	ldr	r3, [pc, #376]	; (27e4 <RTIM_TimeBaseInit+0x1a0>)
    266a:	4298      	cmp	r0, r3
    266c:	d047      	beq.n	26fe <RTIM_TimeBaseInit+0xba>
    266e:	4b5e      	ldr	r3, [pc, #376]	; (27e8 <RTIM_TimeBaseInit+0x1a4>)
    2670:	4298      	cmp	r0, r3
    2672:	d044      	beq.n	26fe <RTIM_TimeBaseInit+0xba>
    2674:	4b5d      	ldr	r3, [pc, #372]	; (27ec <RTIM_TimeBaseInit+0x1a8>)
    2676:	4298      	cmp	r0, r3
    2678:	d041      	beq.n	26fe <RTIM_TimeBaseInit+0xba>
    267a:	4b5d      	ldr	r3, [pc, #372]	; (27f0 <RTIM_TimeBaseInit+0x1ac>)
    267c:	4298      	cmp	r0, r3
    267e:	d03e      	beq.n	26fe <RTIM_TimeBaseInit+0xba>
    2680:	42b8      	cmp	r0, r7
    2682:	d03c      	beq.n	26fe <RTIM_TimeBaseInit+0xba>
    2684:	4b5b      	ldr	r3, [pc, #364]	; (27f4 <RTIM_TimeBaseInit+0x1b0>)
    2686:	4298      	cmp	r0, r3
    2688:	d039      	beq.n	26fe <RTIM_TimeBaseInit+0xba>
    268a:	4b5b      	ldr	r3, [pc, #364]	; (27f8 <RTIM_TimeBaseInit+0x1b4>)
    268c:	4298      	cmp	r0, r3
    268e:	d036      	beq.n	26fe <RTIM_TimeBaseInit+0xba>
    2690:	4b5a      	ldr	r3, [pc, #360]	; (27fc <RTIM_TimeBaseInit+0x1b8>)
    2692:	4298      	cmp	r0, r3
    2694:	d033      	beq.n	26fe <RTIM_TimeBaseInit+0xba>
    2696:	4b5a      	ldr	r3, [pc, #360]	; (2800 <RTIM_TimeBaseInit+0x1bc>)
    2698:	4298      	cmp	r0, r3
    269a:	d030      	beq.n	26fe <RTIM_TimeBaseInit+0xba>
    269c:	4b59      	ldr	r3, [pc, #356]	; (2804 <RTIM_TimeBaseInit+0x1c0>)
    269e:	4298      	cmp	r0, r3
    26a0:	d02d      	beq.n	26fe <RTIM_TimeBaseInit+0xba>
    26a2:	4b59      	ldr	r3, [pc, #356]	; (2808 <RTIM_TimeBaseInit+0x1c4>)
    26a4:	4298      	cmp	r0, r3
    26a6:	d02a      	beq.n	26fe <RTIM_TimeBaseInit+0xba>
    26a8:	4b58      	ldr	r3, [pc, #352]	; (280c <RTIM_TimeBaseInit+0x1c8>)
    26aa:	4298      	cmp	r0, r3
    26ac:	d027      	beq.n	26fe <RTIM_TimeBaseInit+0xba>
    26ae:	4b58      	ldr	r3, [pc, #352]	; (2810 <RTIM_TimeBaseInit+0x1cc>)
    26b0:	4298      	cmp	r0, r3
    26b2:	d024      	beq.n	26fe <RTIM_TimeBaseInit+0xba>
    26b4:	4b57      	ldr	r3, [pc, #348]	; (2814 <RTIM_TimeBaseInit+0x1d0>)
    26b6:	4298      	cmp	r0, r3
    26b8:	d021      	beq.n	26fe <RTIM_TimeBaseInit+0xba>
    26ba:	4b57      	ldr	r3, [pc, #348]	; (2818 <RTIM_TimeBaseInit+0x1d4>)
    26bc:	4298      	cmp	r0, r3
    26be:	d01e      	beq.n	26fe <RTIM_TimeBaseInit+0xba>
    26c0:	4b56      	ldr	r3, [pc, #344]	; (281c <RTIM_TimeBaseInit+0x1d8>)
    26c2:	4298      	cmp	r0, r3
    26c4:	d01b      	beq.n	26fe <RTIM_TimeBaseInit+0xba>
    26c6:	4b56      	ldr	r3, [pc, #344]	; (2820 <RTIM_TimeBaseInit+0x1dc>)
    26c8:	4298      	cmp	r0, r3
    26ca:	d018      	beq.n	26fe <RTIM_TimeBaseInit+0xba>
    26cc:	4b55      	ldr	r3, [pc, #340]	; (2824 <RTIM_TimeBaseInit+0x1e0>)
    26ce:	4298      	cmp	r0, r3
    26d0:	d015      	beq.n	26fe <RTIM_TimeBaseInit+0xba>
    26d2:	4b55      	ldr	r3, [pc, #340]	; (2828 <RTIM_TimeBaseInit+0x1e4>)
    26d4:	4298      	cmp	r0, r3
    26d6:	d012      	beq.n	26fe <RTIM_TimeBaseInit+0xba>
    26d8:	4b54      	ldr	r3, [pc, #336]	; (282c <RTIM_TimeBaseInit+0x1e8>)
    26da:	4298      	cmp	r0, r3
    26dc:	d00f      	beq.n	26fe <RTIM_TimeBaseInit+0xba>
    26de:	4b54      	ldr	r3, [pc, #336]	; (2830 <RTIM_TimeBaseInit+0x1ec>)
    26e0:	4298      	cmp	r0, r3
    26e2:	d00c      	beq.n	26fe <RTIM_TimeBaseInit+0xba>
    26e4:	4b53      	ldr	r3, [pc, #332]	; (2834 <RTIM_TimeBaseInit+0x1f0>)
    26e6:	4298      	cmp	r0, r3
    26e8:	d009      	beq.n	26fe <RTIM_TimeBaseInit+0xba>
    26ea:	4b53      	ldr	r3, [pc, #332]	; (2838 <RTIM_TimeBaseInit+0x1f4>)
    26ec:	4298      	cmp	r0, r3
    26ee:	d006      	beq.n	26fe <RTIM_TimeBaseInit+0xba>
    26f0:	4b52      	ldr	r3, [pc, #328]	; (283c <RTIM_TimeBaseInit+0x1f8>)
    26f2:	4298      	cmp	r0, r3
    26f4:	d003      	beq.n	26fe <RTIM_TimeBaseInit+0xba>
    26f6:	2141      	movs	r1, #65	; 0x41
    26f8:	4851      	ldr	r0, [pc, #324]	; (2840 <RTIM_TimeBaseInit+0x1fc>)
    26fa:	f7fd fd0b 	bl	114 <io_assert_failed>
    26fe:	2304      	movs	r3, #4
    2700:	68ea      	ldr	r2, [r5, #12]
    2702:	439a      	bics	r2, r3
    2704:	b11a      	cbz	r2, 270e <RTIM_TimeBaseInit+0xca>
    2706:	2142      	movs	r1, #66	; 0x42
    2708:	484d      	ldr	r0, [pc, #308]	; (2840 <RTIM_TimeBaseInit+0x1fc>)
    270a:	f7fd fd03 	bl	114 <io_assert_failed>
    270e:	f64f 73ff 	movw	r3, #65535	; 0xffff
    2712:	682a      	ldr	r2, [r5, #0]
    2714:	429a      	cmp	r2, r3
    2716:	d903      	bls.n	2720 <RTIM_TimeBaseInit+0xdc>
    2718:	2143      	movs	r1, #67	; 0x43
    271a:	4849      	ldr	r0, [pc, #292]	; (2840 <RTIM_TimeBaseInit+0x1fc>)
    271c:	f7fd fcfa 	bl	114 <io_assert_failed>
    2720:	69ab      	ldr	r3, [r5, #24]
    2722:	b11b      	cbz	r3, 272c <RTIM_TimeBaseInit+0xe8>
    2724:	2301      	movs	r3, #1
    2726:	6a22      	ldr	r2, [r4, #32]
    2728:	4313      	orrs	r3, r2
    272a:	6223      	str	r3, [r4, #32]
    272c:	2100      	movs	r1, #0
    272e:	0020      	movs	r0, r4
    2730:	4b44      	ldr	r3, [pc, #272]	; (2844 <RTIM_TimeBaseInit+0x200>)
    2732:	4798      	blx	r3
    2734:	2300      	movs	r3, #0
    2736:	0020      	movs	r0, r4
    2738:	60a3      	str	r3, [r4, #8]
    273a:	4b43      	ldr	r3, [pc, #268]	; (2848 <RTIM_TimeBaseInit+0x204>)
    273c:	4798      	blx	r3
    273e:	686b      	ldr	r3, [r5, #4]
    2740:	42bc      	cmp	r4, r7
    2742:	d008      	beq.n	2756 <RTIM_TimeBaseInit+0x112>
    2744:	4a2b      	ldr	r2, [pc, #172]	; (27f4 <RTIM_TimeBaseInit+0x1b0>)
    2746:	4294      	cmp	r4, r2
    2748:	d005      	beq.n	2756 <RTIM_TimeBaseInit+0x112>
    274a:	4a37      	ldr	r2, [pc, #220]	; (2828 <RTIM_TimeBaseInit+0x1e4>)
    274c:	4294      	cmp	r4, r2
    274e:	d002      	beq.n	2756 <RTIM_TimeBaseInit+0x112>
    2750:	4a36      	ldr	r2, [pc, #216]	; (282c <RTIM_TimeBaseInit+0x1e8>)
    2752:	4294      	cmp	r4, r2
    2754:	d12c      	bne.n	27b0 <RTIM_TimeBaseInit+0x16c>
    2756:	b29b      	uxth	r3, r3
    2758:	61e3      	str	r3, [r4, #28]
    275a:	42bc      	cmp	r4, r7
    275c:	d12b      	bne.n	27b6 <RTIM_TimeBaseInit+0x172>
    275e:	682b      	ldr	r3, [r5, #0]
    2760:	61a3      	str	r3, [r4, #24]
    2762:	6862      	ldr	r2, [r4, #4]
    2764:	2110      	movs	r1, #16
    2766:	0013      	movs	r3, r2
    2768:	6928      	ldr	r0, [r5, #16]
    276a:	438b      	bics	r3, r1
    276c:	b108      	cbz	r0, 2772 <RTIM_TimeBaseInit+0x12e>
    276e:	000b      	movs	r3, r1
    2770:	4313      	orrs	r3, r2
    2772:	68ea      	ldr	r2, [r5, #12]
    2774:	2a04      	cmp	r2, #4
    2776:	d128      	bne.n	27ca <RTIM_TimeBaseInit+0x186>
    2778:	4313      	orrs	r3, r2
    277a:	2102      	movs	r1, #2
    277c:	001a      	movs	r2, r3
    277e:	68a8      	ldr	r0, [r5, #8]
    2780:	438a      	bics	r2, r1
    2782:	b908      	cbnz	r0, 2788 <RTIM_TimeBaseInit+0x144>
    2784:	000a      	movs	r2, r1
    2786:	431a      	orrs	r2, r3
    2788:	9b01      	ldr	r3, [sp, #4]
    278a:	6062      	str	r2, [r4, #4]
    278c:	b143      	cbz	r3, 27a0 <RTIM_TimeBaseInit+0x15c>
    278e:	2303      	movs	r3, #3
    2790:	0031      	movs	r1, r6
    2792:	9a08      	ldr	r2, [sp, #32]
    2794:	9801      	ldr	r0, [sp, #4]
    2796:	4d2d      	ldr	r5, [pc, #180]	; (284c <RTIM_TimeBaseInit+0x208>)
    2798:	47a8      	blx	r5
    279a:	0030      	movs	r0, r6
    279c:	4b2c      	ldr	r3, [pc, #176]	; (2850 <RTIM_TimeBaseInit+0x20c>)
    279e:	4798      	blx	r3
    27a0:	2301      	movs	r3, #1
    27a2:	6123      	str	r3, [r4, #16]
    27a4:	68e3      	ldr	r3, [r4, #12]
    27a6:	2b00      	cmp	r3, #0
    27a8:	dafc      	bge.n	27a4 <RTIM_TimeBaseInit+0x160>
    27aa:	68e3      	ldr	r3, [r4, #12]
    27ac:	60e3      	str	r3, [r4, #12]
    27ae:	bdf7      	pop	{r0, r1, r2, r4, r5, r6, r7, pc}
    27b0:	61e3      	str	r3, [r4, #28]
    27b2:	2300      	movs	r3, #0
    27b4:	e7d4      	b.n	2760 <RTIM_TimeBaseInit+0x11c>
    27b6:	4b0f      	ldr	r3, [pc, #60]	; (27f4 <RTIM_TimeBaseInit+0x1b0>)
    27b8:	429c      	cmp	r4, r3
    27ba:	d0d0      	beq.n	275e <RTIM_TimeBaseInit+0x11a>
    27bc:	4b1a      	ldr	r3, [pc, #104]	; (2828 <RTIM_TimeBaseInit+0x1e4>)
    27be:	429c      	cmp	r4, r3
    27c0:	d0cd      	beq.n	275e <RTIM_TimeBaseInit+0x11a>
    27c2:	4b1a      	ldr	r3, [pc, #104]	; (282c <RTIM_TimeBaseInit+0x1e8>)
    27c4:	429c      	cmp	r4, r3
    27c6:	d0ca      	beq.n	275e <RTIM_TimeBaseInit+0x11a>
    27c8:	e7f3      	b.n	27b2 <RTIM_TimeBaseInit+0x16e>
    27ca:	2204      	movs	r2, #4
    27cc:	4393      	bics	r3, r2
    27ce:	e7d4      	b.n	277a <RTIM_TimeBaseInit+0x136>
    27d0:	4200b000 	.word	0x4200b000
    27d4:	4100a000 	.word	0x4100a000
    27d8:	4200b200 	.word	0x4200b200
    27dc:	4200b400 	.word	0x4200b400
    27e0:	4200b600 	.word	0x4200b600
    27e4:	4200b800 	.word	0x4200b800
    27e8:	4200ba00 	.word	0x4200ba00
    27ec:	4200bc00 	.word	0x4200bc00
    27f0:	4200be00 	.word	0x4200be00
    27f4:	4100a200 	.word	0x4100a200
    27f8:	4100a400 	.word	0x4100a400
    27fc:	4100a600 	.word	0x4100a600
    2800:	4100a800 	.word	0x4100a800
    2804:	4100aa00 	.word	0x4100aa00
    2808:	5200b000 	.word	0x5200b000
    280c:	5200b200 	.word	0x5200b200
    2810:	5200b400 	.word	0x5200b400
    2814:	5200b600 	.word	0x5200b600
    2818:	5200b800 	.word	0x5200b800
    281c:	5200ba00 	.word	0x5200ba00
    2820:	5200bc00 	.word	0x5200bc00
    2824:	5200be00 	.word	0x5200be00
    2828:	5100a000 	.word	0x5100a000
    282c:	5100a200 	.word	0x5100a200
    2830:	5100a400 	.word	0x5100a400
    2834:	5100a600 	.word	0x5100a600
    2838:	5100a800 	.word	0x5100a800
    283c:	5100aa00 	.word	0x5100aa00
    2840:	0000c513 	.word	0x0000c513
    2844:	0000211d 	.word	0x0000211d
    2848:	00002505 	.word	0x00002505
    284c:	00003bb5 	.word	0x00003bb5
    2850:	00003a8d 	.word	0x00003a8d

00002854 <RTIM_DeInit>:
    2854:	4b31      	ldr	r3, [pc, #196]	; (291c <RTIM_DeInit+0xc8>)
    2856:	b510      	push	{r4, lr}
    2858:	0004      	movs	r4, r0
    285a:	4298      	cmp	r0, r3
    285c:	d054      	beq.n	2908 <RTIM_DeInit+0xb4>
    285e:	4b30      	ldr	r3, [pc, #192]	; (2920 <RTIM_DeInit+0xcc>)
    2860:	4298      	cmp	r0, r3
    2862:	d051      	beq.n	2908 <RTIM_DeInit+0xb4>
    2864:	4b2f      	ldr	r3, [pc, #188]	; (2924 <RTIM_DeInit+0xd0>)
    2866:	4298      	cmp	r0, r3
    2868:	d04e      	beq.n	2908 <RTIM_DeInit+0xb4>
    286a:	4b2f      	ldr	r3, [pc, #188]	; (2928 <RTIM_DeInit+0xd4>)
    286c:	4298      	cmp	r0, r3
    286e:	d04b      	beq.n	2908 <RTIM_DeInit+0xb4>
    2870:	4b2e      	ldr	r3, [pc, #184]	; (292c <RTIM_DeInit+0xd8>)
    2872:	4298      	cmp	r0, r3
    2874:	d048      	beq.n	2908 <RTIM_DeInit+0xb4>
    2876:	4b2e      	ldr	r3, [pc, #184]	; (2930 <RTIM_DeInit+0xdc>)
    2878:	4298      	cmp	r0, r3
    287a:	d045      	beq.n	2908 <RTIM_DeInit+0xb4>
    287c:	4b2d      	ldr	r3, [pc, #180]	; (2934 <RTIM_DeInit+0xe0>)
    287e:	4298      	cmp	r0, r3
    2880:	d042      	beq.n	2908 <RTIM_DeInit+0xb4>
    2882:	4b2d      	ldr	r3, [pc, #180]	; (2938 <RTIM_DeInit+0xe4>)
    2884:	4298      	cmp	r0, r3
    2886:	d03f      	beq.n	2908 <RTIM_DeInit+0xb4>
    2888:	4b2c      	ldr	r3, [pc, #176]	; (293c <RTIM_DeInit+0xe8>)
    288a:	4298      	cmp	r0, r3
    288c:	d03c      	beq.n	2908 <RTIM_DeInit+0xb4>
    288e:	4b2c      	ldr	r3, [pc, #176]	; (2940 <RTIM_DeInit+0xec>)
    2890:	4298      	cmp	r0, r3
    2892:	d039      	beq.n	2908 <RTIM_DeInit+0xb4>
    2894:	4b2b      	ldr	r3, [pc, #172]	; (2944 <RTIM_DeInit+0xf0>)
    2896:	4298      	cmp	r0, r3
    2898:	d036      	beq.n	2908 <RTIM_DeInit+0xb4>
    289a:	4b2b      	ldr	r3, [pc, #172]	; (2948 <RTIM_DeInit+0xf4>)
    289c:	4298      	cmp	r0, r3
    289e:	d033      	beq.n	2908 <RTIM_DeInit+0xb4>
    28a0:	4b2a      	ldr	r3, [pc, #168]	; (294c <RTIM_DeInit+0xf8>)
    28a2:	4298      	cmp	r0, r3
    28a4:	d030      	beq.n	2908 <RTIM_DeInit+0xb4>
    28a6:	4b2a      	ldr	r3, [pc, #168]	; (2950 <RTIM_DeInit+0xfc>)
    28a8:	4298      	cmp	r0, r3
    28aa:	d02d      	beq.n	2908 <RTIM_DeInit+0xb4>
    28ac:	4b29      	ldr	r3, [pc, #164]	; (2954 <RTIM_DeInit+0x100>)
    28ae:	4298      	cmp	r0, r3
    28b0:	d02a      	beq.n	2908 <RTIM_DeInit+0xb4>
    28b2:	4b29      	ldr	r3, [pc, #164]	; (2958 <RTIM_DeInit+0x104>)
    28b4:	4298      	cmp	r0, r3
    28b6:	d027      	beq.n	2908 <RTIM_DeInit+0xb4>
    28b8:	4b28      	ldr	r3, [pc, #160]	; (295c <RTIM_DeInit+0x108>)
    28ba:	4298      	cmp	r0, r3
    28bc:	d024      	beq.n	2908 <RTIM_DeInit+0xb4>
    28be:	4b28      	ldr	r3, [pc, #160]	; (2960 <RTIM_DeInit+0x10c>)
    28c0:	4298      	cmp	r0, r3
    28c2:	d021      	beq.n	2908 <RTIM_DeInit+0xb4>
    28c4:	4b27      	ldr	r3, [pc, #156]	; (2964 <RTIM_DeInit+0x110>)
    28c6:	4298      	cmp	r0, r3
    28c8:	d01e      	beq.n	2908 <RTIM_DeInit+0xb4>
    28ca:	4b27      	ldr	r3, [pc, #156]	; (2968 <RTIM_DeInit+0x114>)
    28cc:	4298      	cmp	r0, r3
    28ce:	d01b      	beq.n	2908 <RTIM_DeInit+0xb4>
    28d0:	4b26      	ldr	r3, [pc, #152]	; (296c <RTIM_DeInit+0x118>)
    28d2:	4298      	cmp	r0, r3
    28d4:	d018      	beq.n	2908 <RTIM_DeInit+0xb4>
    28d6:	4b26      	ldr	r3, [pc, #152]	; (2970 <RTIM_DeInit+0x11c>)
    28d8:	4298      	cmp	r0, r3
    28da:	d015      	beq.n	2908 <RTIM_DeInit+0xb4>
    28dc:	4b25      	ldr	r3, [pc, #148]	; (2974 <RTIM_DeInit+0x120>)
    28de:	4298      	cmp	r0, r3
    28e0:	d012      	beq.n	2908 <RTIM_DeInit+0xb4>
    28e2:	4b25      	ldr	r3, [pc, #148]	; (2978 <RTIM_DeInit+0x124>)
    28e4:	4298      	cmp	r0, r3
    28e6:	d00f      	beq.n	2908 <RTIM_DeInit+0xb4>
    28e8:	4b24      	ldr	r3, [pc, #144]	; (297c <RTIM_DeInit+0x128>)
    28ea:	4298      	cmp	r0, r3
    28ec:	d00c      	beq.n	2908 <RTIM_DeInit+0xb4>
    28ee:	4b24      	ldr	r3, [pc, #144]	; (2980 <RTIM_DeInit+0x12c>)
    28f0:	4298      	cmp	r0, r3
    28f2:	d009      	beq.n	2908 <RTIM_DeInit+0xb4>
    28f4:	4b23      	ldr	r3, [pc, #140]	; (2984 <RTIM_DeInit+0x130>)
    28f6:	4298      	cmp	r0, r3
    28f8:	d006      	beq.n	2908 <RTIM_DeInit+0xb4>
    28fa:	4b23      	ldr	r3, [pc, #140]	; (2988 <RTIM_DeInit+0x134>)
    28fc:	4298      	cmp	r0, r3
    28fe:	d003      	beq.n	2908 <RTIM_DeInit+0xb4>
    2900:	21c9      	movs	r1, #201	; 0xc9
    2902:	4822      	ldr	r0, [pc, #136]	; (298c <RTIM_DeInit+0x138>)
    2904:	f7fd fc06 	bl	114 <io_assert_failed>
    2908:	2100      	movs	r1, #0
    290a:	0020      	movs	r0, r4
    290c:	4b20      	ldr	r3, [pc, #128]	; (2990 <RTIM_DeInit+0x13c>)
    290e:	4798      	blx	r3
    2910:	0020      	movs	r0, r4
    2912:	4b20      	ldr	r3, [pc, #128]	; (2994 <RTIM_DeInit+0x140>)
    2914:	4798      	blx	r3
    2916:	2300      	movs	r3, #0
    2918:	60a3      	str	r3, [r4, #8]
    291a:	bd10      	pop	{r4, pc}
    291c:	4200b000 	.word	0x4200b000
    2920:	4200b200 	.word	0x4200b200
    2924:	4200b400 	.word	0x4200b400
    2928:	4200b600 	.word	0x4200b600
    292c:	4200b800 	.word	0x4200b800
    2930:	4200ba00 	.word	0x4200ba00
    2934:	4200bc00 	.word	0x4200bc00
    2938:	4200be00 	.word	0x4200be00
    293c:	4100a000 	.word	0x4100a000
    2940:	4100a200 	.word	0x4100a200
    2944:	4100a400 	.word	0x4100a400
    2948:	4100a600 	.word	0x4100a600
    294c:	4100a800 	.word	0x4100a800
    2950:	4100aa00 	.word	0x4100aa00
    2954:	5200b000 	.word	0x5200b000
    2958:	5200b200 	.word	0x5200b200
    295c:	5200b400 	.word	0x5200b400
    2960:	5200b600 	.word	0x5200b600
    2964:	5200b800 	.word	0x5200b800
    2968:	5200ba00 	.word	0x5200ba00
    296c:	5200bc00 	.word	0x5200bc00
    2970:	5200be00 	.word	0x5200be00
    2974:	5100a000 	.word	0x5100a000
    2978:	5100a200 	.word	0x5100a200
    297c:	5100a400 	.word	0x5100a400
    2980:	5100a600 	.word	0x5100a600
    2984:	5100a800 	.word	0x5100a800
    2988:	5100aa00 	.word	0x5100aa00
    298c:	0000c4fe 	.word	0x0000c4fe
    2990:	0000211d 	.word	0x0000211d
    2994:	00002505 	.word	0x00002505

00002998 <RTIM_INTClearPendingBit>:
    2998:	4b37      	ldr	r3, [pc, #220]	; (2a78 <RTIM_INTClearPendingBit+0xe0>)
    299a:	b570      	push	{r4, r5, r6, lr}
    299c:	0004      	movs	r4, r0
    299e:	000d      	movs	r5, r1
    29a0:	4298      	cmp	r0, r3
    29a2:	d055      	beq.n	2a50 <RTIM_INTClearPendingBit+0xb8>
    29a4:	4b35      	ldr	r3, [pc, #212]	; (2a7c <RTIM_INTClearPendingBit+0xe4>)
    29a6:	4298      	cmp	r0, r3
    29a8:	d052      	beq.n	2a50 <RTIM_INTClearPendingBit+0xb8>
    29aa:	4b35      	ldr	r3, [pc, #212]	; (2a80 <RTIM_INTClearPendingBit+0xe8>)
    29ac:	4298      	cmp	r0, r3
    29ae:	d04f      	beq.n	2a50 <RTIM_INTClearPendingBit+0xb8>
    29b0:	4b34      	ldr	r3, [pc, #208]	; (2a84 <RTIM_INTClearPendingBit+0xec>)
    29b2:	4298      	cmp	r0, r3
    29b4:	d04c      	beq.n	2a50 <RTIM_INTClearPendingBit+0xb8>
    29b6:	4b34      	ldr	r3, [pc, #208]	; (2a88 <RTIM_INTClearPendingBit+0xf0>)
    29b8:	4298      	cmp	r0, r3
    29ba:	d049      	beq.n	2a50 <RTIM_INTClearPendingBit+0xb8>
    29bc:	4b33      	ldr	r3, [pc, #204]	; (2a8c <RTIM_INTClearPendingBit+0xf4>)
    29be:	4298      	cmp	r0, r3
    29c0:	d046      	beq.n	2a50 <RTIM_INTClearPendingBit+0xb8>
    29c2:	4b33      	ldr	r3, [pc, #204]	; (2a90 <RTIM_INTClearPendingBit+0xf8>)
    29c4:	4298      	cmp	r0, r3
    29c6:	d043      	beq.n	2a50 <RTIM_INTClearPendingBit+0xb8>
    29c8:	4b32      	ldr	r3, [pc, #200]	; (2a94 <RTIM_INTClearPendingBit+0xfc>)
    29ca:	4298      	cmp	r0, r3
    29cc:	d040      	beq.n	2a50 <RTIM_INTClearPendingBit+0xb8>
    29ce:	4b32      	ldr	r3, [pc, #200]	; (2a98 <RTIM_INTClearPendingBit+0x100>)
    29d0:	4298      	cmp	r0, r3
    29d2:	d03d      	beq.n	2a50 <RTIM_INTClearPendingBit+0xb8>
    29d4:	4b31      	ldr	r3, [pc, #196]	; (2a9c <RTIM_INTClearPendingBit+0x104>)
    29d6:	4298      	cmp	r0, r3
    29d8:	d03a      	beq.n	2a50 <RTIM_INTClearPendingBit+0xb8>
    29da:	4b31      	ldr	r3, [pc, #196]	; (2aa0 <RTIM_INTClearPendingBit+0x108>)
    29dc:	4298      	cmp	r0, r3
    29de:	d037      	beq.n	2a50 <RTIM_INTClearPendingBit+0xb8>
    29e0:	4b30      	ldr	r3, [pc, #192]	; (2aa4 <RTIM_INTClearPendingBit+0x10c>)
    29e2:	4298      	cmp	r0, r3
    29e4:	d034      	beq.n	2a50 <RTIM_INTClearPendingBit+0xb8>
    29e6:	4b30      	ldr	r3, [pc, #192]	; (2aa8 <RTIM_INTClearPendingBit+0x110>)
    29e8:	4298      	cmp	r0, r3
    29ea:	d031      	beq.n	2a50 <RTIM_INTClearPendingBit+0xb8>
    29ec:	4b2f      	ldr	r3, [pc, #188]	; (2aac <RTIM_INTClearPendingBit+0x114>)
    29ee:	4298      	cmp	r0, r3
    29f0:	d02e      	beq.n	2a50 <RTIM_INTClearPendingBit+0xb8>
    29f2:	4b2f      	ldr	r3, [pc, #188]	; (2ab0 <RTIM_INTClearPendingBit+0x118>)
    29f4:	4298      	cmp	r0, r3
    29f6:	d02b      	beq.n	2a50 <RTIM_INTClearPendingBit+0xb8>
    29f8:	4b2e      	ldr	r3, [pc, #184]	; (2ab4 <RTIM_INTClearPendingBit+0x11c>)
    29fa:	4298      	cmp	r0, r3
    29fc:	d028      	beq.n	2a50 <RTIM_INTClearPendingBit+0xb8>
    29fe:	4b2e      	ldr	r3, [pc, #184]	; (2ab8 <RTIM_INTClearPendingBit+0x120>)
    2a00:	4298      	cmp	r0, r3
    2a02:	d025      	beq.n	2a50 <RTIM_INTClearPendingBit+0xb8>
    2a04:	4b2d      	ldr	r3, [pc, #180]	; (2abc <RTIM_INTClearPendingBit+0x124>)
    2a06:	4298      	cmp	r0, r3
    2a08:	d022      	beq.n	2a50 <RTIM_INTClearPendingBit+0xb8>
    2a0a:	4b2d      	ldr	r3, [pc, #180]	; (2ac0 <RTIM_INTClearPendingBit+0x128>)
    2a0c:	4298      	cmp	r0, r3
    2a0e:	d01f      	beq.n	2a50 <RTIM_INTClearPendingBit+0xb8>
    2a10:	4b2c      	ldr	r3, [pc, #176]	; (2ac4 <RTIM_INTClearPendingBit+0x12c>)
    2a12:	4298      	cmp	r0, r3
    2a14:	d01c      	beq.n	2a50 <RTIM_INTClearPendingBit+0xb8>
    2a16:	4b2c      	ldr	r3, [pc, #176]	; (2ac8 <RTIM_INTClearPendingBit+0x130>)
    2a18:	4298      	cmp	r0, r3
    2a1a:	d019      	beq.n	2a50 <RTIM_INTClearPendingBit+0xb8>
    2a1c:	4b2b      	ldr	r3, [pc, #172]	; (2acc <RTIM_INTClearPendingBit+0x134>)
    2a1e:	4298      	cmp	r0, r3
    2a20:	d016      	beq.n	2a50 <RTIM_INTClearPendingBit+0xb8>
    2a22:	4b2b      	ldr	r3, [pc, #172]	; (2ad0 <RTIM_INTClearPendingBit+0x138>)
    2a24:	4298      	cmp	r0, r3
    2a26:	d013      	beq.n	2a50 <RTIM_INTClearPendingBit+0xb8>
    2a28:	4b2a      	ldr	r3, [pc, #168]	; (2ad4 <RTIM_INTClearPendingBit+0x13c>)
    2a2a:	4298      	cmp	r0, r3
    2a2c:	d010      	beq.n	2a50 <RTIM_INTClearPendingBit+0xb8>
    2a2e:	4b2a      	ldr	r3, [pc, #168]	; (2ad8 <RTIM_INTClearPendingBit+0x140>)
    2a30:	4298      	cmp	r0, r3
    2a32:	d00d      	beq.n	2a50 <RTIM_INTClearPendingBit+0xb8>
    2a34:	4b29      	ldr	r3, [pc, #164]	; (2adc <RTIM_INTClearPendingBit+0x144>)
    2a36:	4298      	cmp	r0, r3
    2a38:	d00a      	beq.n	2a50 <RTIM_INTClearPendingBit+0xb8>
    2a3a:	4b29      	ldr	r3, [pc, #164]	; (2ae0 <RTIM_INTClearPendingBit+0x148>)
    2a3c:	4298      	cmp	r0, r3
    2a3e:	d007      	beq.n	2a50 <RTIM_INTClearPendingBit+0xb8>
    2a40:	4b28      	ldr	r3, [pc, #160]	; (2ae4 <RTIM_INTClearPendingBit+0x14c>)
    2a42:	4298      	cmp	r0, r3
    2a44:	d004      	beq.n	2a50 <RTIM_INTClearPendingBit+0xb8>
    2a46:	f240 1159 	movw	r1, #345	; 0x159
    2a4a:	4827      	ldr	r0, [pc, #156]	; (2ae8 <RTIM_INTClearPendingBit+0x150>)
    2a4c:	f7fd fb62 	bl	114 <io_assert_failed>
    2a50:	4b26      	ldr	r3, [pc, #152]	; (2aec <RTIM_INTClearPendingBit+0x154>)
    2a52:	421d      	tst	r5, r3
    2a54:	d102      	bne.n	2a5c <RTIM_INTClearPendingBit+0xc4>
    2a56:	4b26      	ldr	r3, [pc, #152]	; (2af0 <RTIM_INTClearPendingBit+0x158>)
    2a58:	421d      	tst	r5, r3
    2a5a:	d104      	bne.n	2a66 <RTIM_INTClearPendingBit+0xce>
    2a5c:	f240 115a 	movw	r1, #346	; 0x15a
    2a60:	4821      	ldr	r0, [pc, #132]	; (2ae8 <RTIM_INTClearPendingBit+0x150>)
    2a62:	f7fd fb57 	bl	114 <io_assert_failed>
    2a66:	f240 132c 	movw	r3, #300	; 0x12c
    2a6a:	60e5      	str	r5, [r4, #12]
    2a6c:	3b01      	subs	r3, #1
    2a6e:	b113      	cbz	r3, 2a76 <RTIM_INTClearPendingBit+0xde>
    2a70:	68e2      	ldr	r2, [r4, #12]
    2a72:	4215      	tst	r5, r2
    2a74:	d1fa      	bne.n	2a6c <RTIM_INTClearPendingBit+0xd4>
    2a76:	bd70      	pop	{r4, r5, r6, pc}
    2a78:	4200b000 	.word	0x4200b000
    2a7c:	4200b200 	.word	0x4200b200
    2a80:	4200b400 	.word	0x4200b400
    2a84:	4200b600 	.word	0x4200b600
    2a88:	4200b800 	.word	0x4200b800
    2a8c:	4200ba00 	.word	0x4200ba00
    2a90:	4200bc00 	.word	0x4200bc00
    2a94:	4200be00 	.word	0x4200be00
    2a98:	4100a000 	.word	0x4100a000
    2a9c:	4100a200 	.word	0x4100a200
    2aa0:	4100a400 	.word	0x4100a400
    2aa4:	4100a600 	.word	0x4100a600
    2aa8:	4100a800 	.word	0x4100a800
    2aac:	4100aa00 	.word	0x4100aa00
    2ab0:	5200b000 	.word	0x5200b000
    2ab4:	5200b200 	.word	0x5200b200
    2ab8:	5200b400 	.word	0x5200b400
    2abc:	5200b600 	.word	0x5200b600
    2ac0:	5200b800 	.word	0x5200b800
    2ac4:	5200ba00 	.word	0x5200ba00
    2ac8:	5200bc00 	.word	0x5200bc00
    2acc:	5200be00 	.word	0x5200be00
    2ad0:	5100a000 	.word	0x5100a000
    2ad4:	5100a200 	.word	0x5100a200
    2ad8:	5100a400 	.word	0x5100a400
    2adc:	5100a600 	.word	0x5100a600
    2ae0:	5100a800 	.word	0x5100a800
    2ae4:	5100aa00 	.word	0x5100aa00
    2ae8:	0000c4bb 	.word	0x0000c4bb
    2aec:	ffc0ff80 	.word	0xffc0ff80
    2af0:	003f007f 	.word	0x003f007f

00002af4 <RTIM_GetFlagStatus>:
    2af4:	4b41      	ldr	r3, [pc, #260]	; (2bfc <RTIM_GetFlagStatus+0x108>)
    2af6:	b570      	push	{r4, r5, r6, lr}
    2af8:	0004      	movs	r4, r0
    2afa:	000d      	movs	r5, r1
    2afc:	4298      	cmp	r0, r3
    2afe:	d055      	beq.n	2bac <RTIM_GetFlagStatus+0xb8>
    2b00:	4b3f      	ldr	r3, [pc, #252]	; (2c00 <RTIM_GetFlagStatus+0x10c>)
    2b02:	4298      	cmp	r0, r3
    2b04:	d052      	beq.n	2bac <RTIM_GetFlagStatus+0xb8>
    2b06:	4b3f      	ldr	r3, [pc, #252]	; (2c04 <RTIM_GetFlagStatus+0x110>)
    2b08:	4298      	cmp	r0, r3
    2b0a:	d04f      	beq.n	2bac <RTIM_GetFlagStatus+0xb8>
    2b0c:	4b3e      	ldr	r3, [pc, #248]	; (2c08 <RTIM_GetFlagStatus+0x114>)
    2b0e:	4298      	cmp	r0, r3
    2b10:	d04c      	beq.n	2bac <RTIM_GetFlagStatus+0xb8>
    2b12:	4b3e      	ldr	r3, [pc, #248]	; (2c0c <RTIM_GetFlagStatus+0x118>)
    2b14:	4298      	cmp	r0, r3
    2b16:	d049      	beq.n	2bac <RTIM_GetFlagStatus+0xb8>
    2b18:	4b3d      	ldr	r3, [pc, #244]	; (2c10 <RTIM_GetFlagStatus+0x11c>)
    2b1a:	4298      	cmp	r0, r3
    2b1c:	d046      	beq.n	2bac <RTIM_GetFlagStatus+0xb8>
    2b1e:	4b3d      	ldr	r3, [pc, #244]	; (2c14 <RTIM_GetFlagStatus+0x120>)
    2b20:	4298      	cmp	r0, r3
    2b22:	d043      	beq.n	2bac <RTIM_GetFlagStatus+0xb8>
    2b24:	4b3c      	ldr	r3, [pc, #240]	; (2c18 <RTIM_GetFlagStatus+0x124>)
    2b26:	4298      	cmp	r0, r3
    2b28:	d040      	beq.n	2bac <RTIM_GetFlagStatus+0xb8>
    2b2a:	4b3c      	ldr	r3, [pc, #240]	; (2c1c <RTIM_GetFlagStatus+0x128>)
    2b2c:	4298      	cmp	r0, r3
    2b2e:	d03d      	beq.n	2bac <RTIM_GetFlagStatus+0xb8>
    2b30:	4b3b      	ldr	r3, [pc, #236]	; (2c20 <RTIM_GetFlagStatus+0x12c>)
    2b32:	4298      	cmp	r0, r3
    2b34:	d03a      	beq.n	2bac <RTIM_GetFlagStatus+0xb8>
    2b36:	4b3b      	ldr	r3, [pc, #236]	; (2c24 <RTIM_GetFlagStatus+0x130>)
    2b38:	4298      	cmp	r0, r3
    2b3a:	d037      	beq.n	2bac <RTIM_GetFlagStatus+0xb8>
    2b3c:	4b3a      	ldr	r3, [pc, #232]	; (2c28 <RTIM_GetFlagStatus+0x134>)
    2b3e:	4298      	cmp	r0, r3
    2b40:	d034      	beq.n	2bac <RTIM_GetFlagStatus+0xb8>
    2b42:	4b3a      	ldr	r3, [pc, #232]	; (2c2c <RTIM_GetFlagStatus+0x138>)
    2b44:	4298      	cmp	r0, r3
    2b46:	d031      	beq.n	2bac <RTIM_GetFlagStatus+0xb8>
    2b48:	4b39      	ldr	r3, [pc, #228]	; (2c30 <RTIM_GetFlagStatus+0x13c>)
    2b4a:	4298      	cmp	r0, r3
    2b4c:	d02e      	beq.n	2bac <RTIM_GetFlagStatus+0xb8>
    2b4e:	4b39      	ldr	r3, [pc, #228]	; (2c34 <RTIM_GetFlagStatus+0x140>)
    2b50:	4298      	cmp	r0, r3
    2b52:	d02b      	beq.n	2bac <RTIM_GetFlagStatus+0xb8>
    2b54:	4b38      	ldr	r3, [pc, #224]	; (2c38 <RTIM_GetFlagStatus+0x144>)
    2b56:	4298      	cmp	r0, r3
    2b58:	d028      	beq.n	2bac <RTIM_GetFlagStatus+0xb8>
    2b5a:	4b38      	ldr	r3, [pc, #224]	; (2c3c <RTIM_GetFlagStatus+0x148>)
    2b5c:	4298      	cmp	r0, r3
    2b5e:	d025      	beq.n	2bac <RTIM_GetFlagStatus+0xb8>
    2b60:	4b37      	ldr	r3, [pc, #220]	; (2c40 <RTIM_GetFlagStatus+0x14c>)
    2b62:	4298      	cmp	r0, r3
    2b64:	d022      	beq.n	2bac <RTIM_GetFlagStatus+0xb8>
    2b66:	4b37      	ldr	r3, [pc, #220]	; (2c44 <RTIM_GetFlagStatus+0x150>)
    2b68:	4298      	cmp	r0, r3
    2b6a:	d01f      	beq.n	2bac <RTIM_GetFlagStatus+0xb8>
    2b6c:	4b36      	ldr	r3, [pc, #216]	; (2c48 <RTIM_GetFlagStatus+0x154>)
    2b6e:	4298      	cmp	r0, r3
    2b70:	d01c      	beq.n	2bac <RTIM_GetFlagStatus+0xb8>
    2b72:	4b36      	ldr	r3, [pc, #216]	; (2c4c <RTIM_GetFlagStatus+0x158>)
    2b74:	4298      	cmp	r0, r3
    2b76:	d019      	beq.n	2bac <RTIM_GetFlagStatus+0xb8>
    2b78:	4b35      	ldr	r3, [pc, #212]	; (2c50 <RTIM_GetFlagStatus+0x15c>)
    2b7a:	4298      	cmp	r0, r3
    2b7c:	d016      	beq.n	2bac <RTIM_GetFlagStatus+0xb8>
    2b7e:	4b35      	ldr	r3, [pc, #212]	; (2c54 <RTIM_GetFlagStatus+0x160>)
    2b80:	4298      	cmp	r0, r3
    2b82:	d013      	beq.n	2bac <RTIM_GetFlagStatus+0xb8>
    2b84:	4b34      	ldr	r3, [pc, #208]	; (2c58 <RTIM_GetFlagStatus+0x164>)
    2b86:	4298      	cmp	r0, r3
    2b88:	d010      	beq.n	2bac <RTIM_GetFlagStatus+0xb8>
    2b8a:	4b34      	ldr	r3, [pc, #208]	; (2c5c <RTIM_GetFlagStatus+0x168>)
    2b8c:	4298      	cmp	r0, r3
    2b8e:	d00d      	beq.n	2bac <RTIM_GetFlagStatus+0xb8>
    2b90:	4b33      	ldr	r3, [pc, #204]	; (2c60 <RTIM_GetFlagStatus+0x16c>)
    2b92:	4298      	cmp	r0, r3
    2b94:	d00a      	beq.n	2bac <RTIM_GetFlagStatus+0xb8>
    2b96:	4b33      	ldr	r3, [pc, #204]	; (2c64 <RTIM_GetFlagStatus+0x170>)
    2b98:	4298      	cmp	r0, r3
    2b9a:	d007      	beq.n	2bac <RTIM_GetFlagStatus+0xb8>
    2b9c:	4b32      	ldr	r3, [pc, #200]	; (2c68 <RTIM_GetFlagStatus+0x174>)
    2b9e:	4298      	cmp	r0, r3
    2ba0:	d004      	beq.n	2bac <RTIM_GetFlagStatus+0xb8>
    2ba2:	f240 118b 	movw	r1, #395	; 0x18b
    2ba6:	4831      	ldr	r0, [pc, #196]	; (2c6c <RTIM_GetFlagStatus+0x178>)
    2ba8:	f7fd fab4 	bl	114 <io_assert_failed>
    2bac:	1e6b      	subs	r3, r5, #1
    2bae:	2b01      	cmp	r3, #1
    2bb0:	d91e      	bls.n	2bf0 <RTIM_GetFlagStatus+0xfc>
    2bb2:	2204      	movs	r2, #4
    2bb4:	1f2b      	subs	r3, r5, #4
    2bb6:	4393      	bics	r3, r2
    2bb8:	b1d3      	cbz	r3, 2bf0 <RTIM_GetFlagStatus+0xfc>
    2bba:	002b      	movs	r3, r5
    2bbc:	320c      	adds	r2, #12
    2bbe:	3b10      	subs	r3, #16
    2bc0:	4393      	bics	r3, r2
    2bc2:	b1ab      	cbz	r3, 2bf0 <RTIM_GetFlagStatus+0xfc>
    2bc4:	2d40      	cmp	r5, #64	; 0x40
    2bc6:	d013      	beq.n	2bf0 <RTIM_GetFlagStatus+0xfc>
    2bc8:	4b29      	ldr	r3, [pc, #164]	; (2c70 <RTIM_GetFlagStatus+0x17c>)
    2bca:	4a2a      	ldr	r2, [pc, #168]	; (2c74 <RTIM_GetFlagStatus+0x180>)
    2bcc:	18eb      	adds	r3, r5, r3
    2bce:	4213      	tst	r3, r2
    2bd0:	d00e      	beq.n	2bf0 <RTIM_GetFlagStatus+0xfc>
    2bd2:	4b29      	ldr	r3, [pc, #164]	; (2c78 <RTIM_GetFlagStatus+0x184>)
    2bd4:	4a29      	ldr	r2, [pc, #164]	; (2c7c <RTIM_GetFlagStatus+0x188>)
    2bd6:	18eb      	adds	r3, r5, r3
    2bd8:	4213      	tst	r3, r2
    2bda:	d009      	beq.n	2bf0 <RTIM_GetFlagStatus+0xfc>
    2bdc:	4b28      	ldr	r3, [pc, #160]	; (2c80 <RTIM_GetFlagStatus+0x18c>)
    2bde:	4a29      	ldr	r2, [pc, #164]	; (2c84 <RTIM_GetFlagStatus+0x190>)
    2be0:	18eb      	adds	r3, r5, r3
    2be2:	4213      	tst	r3, r2
    2be4:	d004      	beq.n	2bf0 <RTIM_GetFlagStatus+0xfc>
    2be6:	f240 118c 	movw	r1, #396	; 0x18c
    2bea:	4820      	ldr	r0, [pc, #128]	; (2c6c <RTIM_GetFlagStatus+0x178>)
    2bec:	f7fd fa92 	bl	114 <io_assert_failed>
    2bf0:	68e0      	ldr	r0, [r4, #12]
    2bf2:	4028      	ands	r0, r5
    2bf4:	1e43      	subs	r3, r0, #1
    2bf6:	4198      	sbcs	r0, r3
    2bf8:	bd70      	pop	{r4, r5, r6, pc}
    2bfa:	46c0      	nop			; (mov r8, r8)
    2bfc:	4200b000 	.word	0x4200b000
    2c00:	4200b200 	.word	0x4200b200
    2c04:	4200b400 	.word	0x4200b400
    2c08:	4200b600 	.word	0x4200b600
    2c0c:	4200b800 	.word	0x4200b800
    2c10:	4200ba00 	.word	0x4200ba00
    2c14:	4200bc00 	.word	0x4200bc00
    2c18:	4200be00 	.word	0x4200be00
    2c1c:	4100a000 	.word	0x4100a000
    2c20:	4100a200 	.word	0x4100a200
    2c24:	4100a400 	.word	0x4100a400
    2c28:	4100a600 	.word	0x4100a600
    2c2c:	4100a800 	.word	0x4100a800
    2c30:	4100aa00 	.word	0x4100aa00
    2c34:	5200b000 	.word	0x5200b000
    2c38:	5200b200 	.word	0x5200b200
    2c3c:	5200b400 	.word	0x5200b400
    2c40:	5200b600 	.word	0x5200b600
    2c44:	5200b800 	.word	0x5200b800
    2c48:	5200ba00 	.word	0x5200ba00
    2c4c:	5200bc00 	.word	0x5200bc00
    2c50:	5200be00 	.word	0x5200be00
    2c54:	5100a000 	.word	0x5100a000
    2c58:	5100a200 	.word	0x5100a200
    2c5c:	5100a400 	.word	0x5100a400
    2c60:	5100a600 	.word	0x5100a600
    2c64:	5100a800 	.word	0x5100a800
    2c68:	5100aa00 	.word	0x5100aa00
    2c6c:	0000c4a8 	.word	0x0000c4a8
    2c70:	ffff0000 	.word	0xffff0000
    2c74:	fffeffff 	.word	0xfffeffff
    2c78:	fffc0000 	.word	0xfffc0000
    2c7c:	fffbffff 	.word	0xfffbffff
    2c80:	fff00000 	.word	0xfff00000
    2c84:	ffefffff 	.word	0xffefffff

00002c88 <RTIM_GetINTStatus>:
    2c88:	4b44      	ldr	r3, [pc, #272]	; (2d9c <RTIM_GetINTStatus+0x114>)
    2c8a:	b570      	push	{r4, r5, r6, lr}
    2c8c:	0004      	movs	r4, r0
    2c8e:	000d      	movs	r5, r1
    2c90:	4298      	cmp	r0, r3
    2c92:	d055      	beq.n	2d40 <RTIM_GetINTStatus+0xb8>
    2c94:	4b42      	ldr	r3, [pc, #264]	; (2da0 <RTIM_GetINTStatus+0x118>)
    2c96:	4298      	cmp	r0, r3
    2c98:	d052      	beq.n	2d40 <RTIM_GetINTStatus+0xb8>
    2c9a:	4b42      	ldr	r3, [pc, #264]	; (2da4 <RTIM_GetINTStatus+0x11c>)
    2c9c:	4298      	cmp	r0, r3
    2c9e:	d04f      	beq.n	2d40 <RTIM_GetINTStatus+0xb8>
    2ca0:	4b41      	ldr	r3, [pc, #260]	; (2da8 <RTIM_GetINTStatus+0x120>)
    2ca2:	4298      	cmp	r0, r3
    2ca4:	d04c      	beq.n	2d40 <RTIM_GetINTStatus+0xb8>
    2ca6:	4b41      	ldr	r3, [pc, #260]	; (2dac <RTIM_GetINTStatus+0x124>)
    2ca8:	4298      	cmp	r0, r3
    2caa:	d049      	beq.n	2d40 <RTIM_GetINTStatus+0xb8>
    2cac:	4b40      	ldr	r3, [pc, #256]	; (2db0 <RTIM_GetINTStatus+0x128>)
    2cae:	4298      	cmp	r0, r3
    2cb0:	d046      	beq.n	2d40 <RTIM_GetINTStatus+0xb8>
    2cb2:	4b40      	ldr	r3, [pc, #256]	; (2db4 <RTIM_GetINTStatus+0x12c>)
    2cb4:	4298      	cmp	r0, r3
    2cb6:	d043      	beq.n	2d40 <RTIM_GetINTStatus+0xb8>
    2cb8:	4b3f      	ldr	r3, [pc, #252]	; (2db8 <RTIM_GetINTStatus+0x130>)
    2cba:	4298      	cmp	r0, r3
    2cbc:	d040      	beq.n	2d40 <RTIM_GetINTStatus+0xb8>
    2cbe:	4b3f      	ldr	r3, [pc, #252]	; (2dbc <RTIM_GetINTStatus+0x134>)
    2cc0:	4298      	cmp	r0, r3
    2cc2:	d03d      	beq.n	2d40 <RTIM_GetINTStatus+0xb8>
    2cc4:	4b3e      	ldr	r3, [pc, #248]	; (2dc0 <RTIM_GetINTStatus+0x138>)
    2cc6:	4298      	cmp	r0, r3
    2cc8:	d03a      	beq.n	2d40 <RTIM_GetINTStatus+0xb8>
    2cca:	4b3e      	ldr	r3, [pc, #248]	; (2dc4 <RTIM_GetINTStatus+0x13c>)
    2ccc:	4298      	cmp	r0, r3
    2cce:	d037      	beq.n	2d40 <RTIM_GetINTStatus+0xb8>
    2cd0:	4b3d      	ldr	r3, [pc, #244]	; (2dc8 <RTIM_GetINTStatus+0x140>)
    2cd2:	4298      	cmp	r0, r3
    2cd4:	d034      	beq.n	2d40 <RTIM_GetINTStatus+0xb8>
    2cd6:	4b3d      	ldr	r3, [pc, #244]	; (2dcc <RTIM_GetINTStatus+0x144>)
    2cd8:	4298      	cmp	r0, r3
    2cda:	d031      	beq.n	2d40 <RTIM_GetINTStatus+0xb8>
    2cdc:	4b3c      	ldr	r3, [pc, #240]	; (2dd0 <RTIM_GetINTStatus+0x148>)
    2cde:	4298      	cmp	r0, r3
    2ce0:	d02e      	beq.n	2d40 <RTIM_GetINTStatus+0xb8>
    2ce2:	4b3c      	ldr	r3, [pc, #240]	; (2dd4 <RTIM_GetINTStatus+0x14c>)
    2ce4:	4298      	cmp	r0, r3
    2ce6:	d02b      	beq.n	2d40 <RTIM_GetINTStatus+0xb8>
    2ce8:	4b3b      	ldr	r3, [pc, #236]	; (2dd8 <RTIM_GetINTStatus+0x150>)
    2cea:	4298      	cmp	r0, r3
    2cec:	d028      	beq.n	2d40 <RTIM_GetINTStatus+0xb8>
    2cee:	4b3b      	ldr	r3, [pc, #236]	; (2ddc <RTIM_GetINTStatus+0x154>)
    2cf0:	4298      	cmp	r0, r3
    2cf2:	d025      	beq.n	2d40 <RTIM_GetINTStatus+0xb8>
    2cf4:	4b3a      	ldr	r3, [pc, #232]	; (2de0 <RTIM_GetINTStatus+0x158>)
    2cf6:	4298      	cmp	r0, r3
    2cf8:	d022      	beq.n	2d40 <RTIM_GetINTStatus+0xb8>
    2cfa:	4b3a      	ldr	r3, [pc, #232]	; (2de4 <RTIM_GetINTStatus+0x15c>)
    2cfc:	4298      	cmp	r0, r3
    2cfe:	d01f      	beq.n	2d40 <RTIM_GetINTStatus+0xb8>
    2d00:	4b39      	ldr	r3, [pc, #228]	; (2de8 <RTIM_GetINTStatus+0x160>)
    2d02:	4298      	cmp	r0, r3
    2d04:	d01c      	beq.n	2d40 <RTIM_GetINTStatus+0xb8>
    2d06:	4b39      	ldr	r3, [pc, #228]	; (2dec <RTIM_GetINTStatus+0x164>)
    2d08:	4298      	cmp	r0, r3
    2d0a:	d019      	beq.n	2d40 <RTIM_GetINTStatus+0xb8>
    2d0c:	4b38      	ldr	r3, [pc, #224]	; (2df0 <RTIM_GetINTStatus+0x168>)
    2d0e:	4298      	cmp	r0, r3
    2d10:	d016      	beq.n	2d40 <RTIM_GetINTStatus+0xb8>
    2d12:	4b38      	ldr	r3, [pc, #224]	; (2df4 <RTIM_GetINTStatus+0x16c>)
    2d14:	4298      	cmp	r0, r3
    2d16:	d013      	beq.n	2d40 <RTIM_GetINTStatus+0xb8>
    2d18:	4b37      	ldr	r3, [pc, #220]	; (2df8 <RTIM_GetINTStatus+0x170>)
    2d1a:	4298      	cmp	r0, r3
    2d1c:	d010      	beq.n	2d40 <RTIM_GetINTStatus+0xb8>
    2d1e:	4b37      	ldr	r3, [pc, #220]	; (2dfc <RTIM_GetINTStatus+0x174>)
    2d20:	4298      	cmp	r0, r3
    2d22:	d00d      	beq.n	2d40 <RTIM_GetINTStatus+0xb8>
    2d24:	4b36      	ldr	r3, [pc, #216]	; (2e00 <RTIM_GetINTStatus+0x178>)
    2d26:	4298      	cmp	r0, r3
    2d28:	d00a      	beq.n	2d40 <RTIM_GetINTStatus+0xb8>
    2d2a:	4b36      	ldr	r3, [pc, #216]	; (2e04 <RTIM_GetINTStatus+0x17c>)
    2d2c:	4298      	cmp	r0, r3
    2d2e:	d007      	beq.n	2d40 <RTIM_GetINTStatus+0xb8>
    2d30:	4b35      	ldr	r3, [pc, #212]	; (2e08 <RTIM_GetINTStatus+0x180>)
    2d32:	4298      	cmp	r0, r3
    2d34:	d004      	beq.n	2d40 <RTIM_GetINTStatus+0xb8>
    2d36:	f240 11b9 	movw	r1, #441	; 0x1b9
    2d3a:	4834      	ldr	r0, [pc, #208]	; (2e0c <RTIM_GetINTStatus+0x184>)
    2d3c:	f7fd f9ea 	bl	114 <io_assert_failed>
    2d40:	1e6b      	subs	r3, r5, #1
    2d42:	2b01      	cmp	r3, #1
    2d44:	d91e      	bls.n	2d84 <RTIM_GetINTStatus+0xfc>
    2d46:	2204      	movs	r2, #4
    2d48:	1f2b      	subs	r3, r5, #4
    2d4a:	4393      	bics	r3, r2
    2d4c:	b1d3      	cbz	r3, 2d84 <RTIM_GetINTStatus+0xfc>
    2d4e:	002b      	movs	r3, r5
    2d50:	320c      	adds	r2, #12
    2d52:	3b10      	subs	r3, #16
    2d54:	4393      	bics	r3, r2
    2d56:	b1ab      	cbz	r3, 2d84 <RTIM_GetINTStatus+0xfc>
    2d58:	2d40      	cmp	r5, #64	; 0x40
    2d5a:	d013      	beq.n	2d84 <RTIM_GetINTStatus+0xfc>
    2d5c:	4b2c      	ldr	r3, [pc, #176]	; (2e10 <RTIM_GetINTStatus+0x188>)
    2d5e:	4a2d      	ldr	r2, [pc, #180]	; (2e14 <RTIM_GetINTStatus+0x18c>)
    2d60:	18eb      	adds	r3, r5, r3
    2d62:	4213      	tst	r3, r2
    2d64:	d00e      	beq.n	2d84 <RTIM_GetINTStatus+0xfc>
    2d66:	4b2c      	ldr	r3, [pc, #176]	; (2e18 <RTIM_GetINTStatus+0x190>)
    2d68:	4a2c      	ldr	r2, [pc, #176]	; (2e1c <RTIM_GetINTStatus+0x194>)
    2d6a:	18eb      	adds	r3, r5, r3
    2d6c:	4213      	tst	r3, r2
    2d6e:	d009      	beq.n	2d84 <RTIM_GetINTStatus+0xfc>
    2d70:	4b2b      	ldr	r3, [pc, #172]	; (2e20 <RTIM_GetINTStatus+0x198>)
    2d72:	4a2c      	ldr	r2, [pc, #176]	; (2e24 <RTIM_GetINTStatus+0x19c>)
    2d74:	18eb      	adds	r3, r5, r3
    2d76:	4213      	tst	r3, r2
    2d78:	d004      	beq.n	2d84 <RTIM_GetINTStatus+0xfc>
    2d7a:	f240 11ba 	movw	r1, #442	; 0x1ba
    2d7e:	4823      	ldr	r0, [pc, #140]	; (2e0c <RTIM_GetINTStatus+0x184>)
    2d80:	f7fd f9c8 	bl	114 <io_assert_failed>
    2d84:	0028      	movs	r0, r5
    2d86:	68e3      	ldr	r3, [r4, #12]
    2d88:	68a1      	ldr	r1, [r4, #8]
    2d8a:	4018      	ands	r0, r3
    2d8c:	421d      	tst	r5, r3
    2d8e:	d003      	beq.n	2d98 <RTIM_GetINTStatus+0x110>
    2d90:	400d      	ands	r5, r1
    2d92:	0028      	movs	r0, r5
    2d94:	1e43      	subs	r3, r0, #1
    2d96:	4198      	sbcs	r0, r3
    2d98:	bd70      	pop	{r4, r5, r6, pc}
    2d9a:	46c0      	nop			; (mov r8, r8)
    2d9c:	4200b000 	.word	0x4200b000
    2da0:	4200b200 	.word	0x4200b200
    2da4:	4200b400 	.word	0x4200b400
    2da8:	4200b600 	.word	0x4200b600
    2dac:	4200b800 	.word	0x4200b800
    2db0:	4200ba00 	.word	0x4200ba00
    2db4:	4200bc00 	.word	0x4200bc00
    2db8:	4200be00 	.word	0x4200be00
    2dbc:	4100a000 	.word	0x4100a000
    2dc0:	4100a200 	.word	0x4100a200
    2dc4:	4100a400 	.word	0x4100a400
    2dc8:	4100a600 	.word	0x4100a600
    2dcc:	4100a800 	.word	0x4100a800
    2dd0:	4100aa00 	.word	0x4100aa00
    2dd4:	5200b000 	.word	0x5200b000
    2dd8:	5200b200 	.word	0x5200b200
    2ddc:	5200b400 	.word	0x5200b400
    2de0:	5200b600 	.word	0x5200b600
    2de4:	5200b800 	.word	0x5200b800
    2de8:	5200ba00 	.word	0x5200ba00
    2dec:	5200bc00 	.word	0x5200bc00
    2df0:	5200be00 	.word	0x5200be00
    2df4:	5100a000 	.word	0x5100a000
    2df8:	5100a200 	.word	0x5100a200
    2dfc:	5100a400 	.word	0x5100a400
    2e00:	5100a600 	.word	0x5100a600
    2e04:	5100a800 	.word	0x5100a800
    2e08:	5100aa00 	.word	0x5100aa00
    2e0c:	0000c496 	.word	0x0000c496
    2e10:	ffff0000 	.word	0xffff0000
    2e14:	fffeffff 	.word	0xfffeffff
    2e18:	fffc0000 	.word	0xfffc0000
    2e1c:	fffbffff 	.word	0xfffbffff
    2e20:	fff00000 	.word	0xfff00000
    2e24:	ffefffff 	.word	0xffefffff

00002e28 <UART_DeInit>:
    2e28:	2300      	movs	r3, #0
    2e2a:	6043      	str	r3, [r0, #4]
    2e2c:	4770      	bx	lr

00002e2e <UART_StructInit>:
    2e2e:	2300      	movs	r3, #0
    2e30:	2201      	movs	r2, #1
    2e32:	6103      	str	r3, [r0, #16]
    2e34:	6143      	str	r3, [r0, #20]
    2e36:	6083      	str	r3, [r0, #8]
    2e38:	61c3      	str	r3, [r0, #28]
    2e3a:	6183      	str	r3, [r0, #24]
    2e3c:	3340      	adds	r3, #64	; 0x40
    2e3e:	60c2      	str	r2, [r0, #12]
    2e40:	6042      	str	r2, [r0, #4]
    2e42:	6202      	str	r2, [r0, #32]
    2e44:	6002      	str	r2, [r0, #0]
    2e46:	6243      	str	r3, [r0, #36]	; 0x24
    2e48:	4770      	bx	lr

00002e4a <UART_BaudParaGetFull>:
    2e4a:	b5f0      	push	{r4, r5, r6, r7, lr}
    2e4c:	fbb0 f4f1 	udiv	r4, r0, r1
    2e50:	6014      	str	r4, [r2, #0]
    2e52:	434c      	muls	r4, r1
    2e54:	1b00      	subs	r0, r0, r4
    2e56:	240b      	movs	r4, #11
    2e58:	0026      	movs	r6, r4
    2e5a:	2500      	movs	r5, #0
    2e5c:	4346      	muls	r6, r0
    2e5e:	1982      	adds	r2, r0, r6
    2e60:	fbb6 f7f1 	udiv	r7, r6, r1
    2e64:	fbb2 f2f1 	udiv	r2, r2, r1
    2e68:	1bd2      	subs	r2, r2, r7
    2e6a:	1e57      	subs	r7, r2, #1
    2e6c:	41ba      	sbcs	r2, r7
    2e6e:	006d      	lsls	r5, r5, #1
    2e70:	3c01      	subs	r4, #1
    2e72:	4315      	orrs	r5, r2
    2e74:	1a36      	subs	r6, r6, r0
    2e76:	2c00      	cmp	r4, #0
    2e78:	d1f1      	bne.n	2e5e <UART_BaudParaGetFull+0x14>
    2e7a:	601d      	str	r5, [r3, #0]
    2e7c:	bdf0      	pop	{r4, r5, r6, r7, pc}

00002e7e <UART_BaudParaGet>:
    2e7e:	b570      	push	{r4, r5, r6, lr}
    2e80:	000d      	movs	r5, r1
    2e82:	0016      	movs	r6, r2
    2e84:	0004      	movs	r4, r0
    2e86:	4b04      	ldr	r3, [pc, #16]	; (2e98 <UART_BaudParaGet+0x1a>)
    2e88:	4798      	blx	r3
    2e8a:	0033      	movs	r3, r6
    2e8c:	002a      	movs	r2, r5
    2e8e:	0021      	movs	r1, r4
    2e90:	4c02      	ldr	r4, [pc, #8]	; (2e9c <UART_BaudParaGet+0x1e>)
    2e92:	47a0      	blx	r4
    2e94:	2001      	movs	r0, #1
    2e96:	bd70      	pop	{r4, r5, r6, pc}
    2e98:	000001c9 	.word	0x000001c9
    2e9c:	00002e4b 	.word	0x00002e4b

00002ea0 <UART_SetBaud>:
    2ea0:	b573      	push	{r0, r1, r4, r5, r6, lr}
    2ea2:	000d      	movs	r5, r1
    2ea4:	0004      	movs	r4, r0
    2ea6:	4b1a      	ldr	r3, [pc, #104]	; (2f10 <UART_SetBaud+0x70>)
    2ea8:	4798      	blx	r3
    2eaa:	466a      	mov	r2, sp
    2eac:	0029      	movs	r1, r5
    2eae:	ab01      	add	r3, sp, #4
    2eb0:	4d18      	ldr	r5, [pc, #96]	; (2f14 <UART_SetBaud+0x74>)
    2eb2:	47a8      	blx	r5
    2eb4:	2080      	movs	r0, #128	; 0x80
    2eb6:	68e3      	ldr	r3, [r4, #12]
    2eb8:	4917      	ldr	r1, [pc, #92]	; (2f18 <UART_SetBaud+0x78>)
    2eba:	4303      	orrs	r3, r0
    2ebc:	60e3      	str	r3, [r4, #12]
    2ebe:	69e3      	ldr	r3, [r4, #28]
    2ec0:	4d16      	ldr	r5, [pc, #88]	; (2f1c <UART_SetBaud+0x7c>)
    2ec2:	4303      	orrs	r3, r0
    2ec4:	61e3      	str	r3, [r4, #28]
    2ec6:	6a22      	ldr	r2, [r4, #32]
    2ec8:	9b00      	ldr	r3, [sp, #0]
    2eca:	4011      	ands	r1, r2
    2ecc:	011a      	lsls	r2, r3, #4
    2ece:	402a      	ands	r2, r5
    2ed0:	430a      	orrs	r2, r1
    2ed2:	6222      	str	r2, [r4, #32]
    2ed4:	69e2      	ldr	r2, [r4, #28]
    2ed6:	9901      	ldr	r1, [sp, #4]
    2ed8:	4d11      	ldr	r5, [pc, #68]	; (2f20 <UART_SetBaud+0x80>)
    2eda:	4e12      	ldr	r6, [pc, #72]	; (2f24 <UART_SetBaud+0x84>)
    2edc:	4015      	ands	r5, r2
    2ede:	040a      	lsls	r2, r1, #16
    2ee0:	4032      	ands	r2, r6
    2ee2:	432a      	orrs	r2, r5
    2ee4:	61e2      	str	r2, [r4, #28]
    2ee6:	68e2      	ldr	r2, [r4, #12]
    2ee8:	00c9      	lsls	r1, r1, #3
    2eea:	4382      	bics	r2, r0
    2eec:	60e2      	str	r2, [r4, #12]
    2eee:	6ca2      	ldr	r2, [r4, #72]	; 0x48
    2ef0:	480d      	ldr	r0, [pc, #52]	; (2f28 <UART_SetBaud+0x88>)
    2ef2:	0d12      	lsrs	r2, r2, #20
    2ef4:	0512      	lsls	r2, r2, #20
    2ef6:	431a      	orrs	r2, r3
    2ef8:	64a2      	str	r2, [r4, #72]	; 0x48
    2efa:	6c62      	ldr	r2, [r4, #68]	; 0x44
    2efc:	025b      	lsls	r3, r3, #9
    2efe:	4002      	ands	r2, r0
    2f00:	4313      	orrs	r3, r2
    2f02:	6463      	str	r3, [r4, #68]	; 0x44
    2f04:	6c23      	ldr	r3, [r4, #64]	; 0x40
    2f06:	4a09      	ldr	r2, [pc, #36]	; (2f2c <UART_SetBaud+0x8c>)
    2f08:	4013      	ands	r3, r2
    2f0a:	4319      	orrs	r1, r3
    2f0c:	6421      	str	r1, [r4, #64]	; 0x40
    2f0e:	bd73      	pop	{r0, r1, r4, r5, r6, pc}
    2f10:	000001c9 	.word	0x000001c9
    2f14:	00002e4b 	.word	0x00002e4b
    2f18:	ff00000f 	.word	0xff00000f
    2f1c:	00fffff0 	.word	0x00fffff0
    2f20:	f800ffff 	.word	0xf800ffff
    2f24:	07ff0000 	.word	0x07ff0000
    2f28:	e00001ff 	.word	0xe00001ff
    2f2c:	ffffc007 	.word	0xffffc007

00002f30 <UART_SetBaudExt>:
    2f30:	b570      	push	{r4, r5, r6, lr}
    2f32:	2480      	movs	r4, #128	; 0x80
    2f34:	68c3      	ldr	r3, [r0, #12]
    2f36:	4d15      	ldr	r5, [pc, #84]	; (2f8c <UART_SetBaudExt+0x5c>)
    2f38:	4323      	orrs	r3, r4
    2f3a:	60c3      	str	r3, [r0, #12]
    2f3c:	69c3      	ldr	r3, [r0, #28]
    2f3e:	4e14      	ldr	r6, [pc, #80]	; (2f90 <UART_SetBaudExt+0x60>)
    2f40:	4323      	orrs	r3, r4
    2f42:	61c3      	str	r3, [r0, #28]
    2f44:	6a03      	ldr	r3, [r0, #32]
    2f46:	401d      	ands	r5, r3
    2f48:	010b      	lsls	r3, r1, #4
    2f4a:	4033      	ands	r3, r6
    2f4c:	432b      	orrs	r3, r5
    2f4e:	6203      	str	r3, [r0, #32]
    2f50:	69c3      	ldr	r3, [r0, #28]
    2f52:	4d10      	ldr	r5, [pc, #64]	; (2f94 <UART_SetBaudExt+0x64>)
    2f54:	4e10      	ldr	r6, [pc, #64]	; (2f98 <UART_SetBaudExt+0x68>)
    2f56:	401d      	ands	r5, r3
    2f58:	0413      	lsls	r3, r2, #16
    2f5a:	4033      	ands	r3, r6
    2f5c:	432b      	orrs	r3, r5
    2f5e:	61c3      	str	r3, [r0, #28]
    2f60:	68c3      	ldr	r3, [r0, #12]
    2f62:	00d2      	lsls	r2, r2, #3
    2f64:	43a3      	bics	r3, r4
    2f66:	60c3      	str	r3, [r0, #12]
    2f68:	6c83      	ldr	r3, [r0, #72]	; 0x48
    2f6a:	4c0c      	ldr	r4, [pc, #48]	; (2f9c <UART_SetBaudExt+0x6c>)
    2f6c:	0d1b      	lsrs	r3, r3, #20
    2f6e:	051b      	lsls	r3, r3, #20
    2f70:	430b      	orrs	r3, r1
    2f72:	6483      	str	r3, [r0, #72]	; 0x48
    2f74:	6c43      	ldr	r3, [r0, #68]	; 0x44
    2f76:	0249      	lsls	r1, r1, #9
    2f78:	4023      	ands	r3, r4
    2f7a:	4319      	orrs	r1, r3
    2f7c:	6441      	str	r1, [r0, #68]	; 0x44
    2f7e:	6c03      	ldr	r3, [r0, #64]	; 0x40
    2f80:	4907      	ldr	r1, [pc, #28]	; (2fa0 <UART_SetBaudExt+0x70>)
    2f82:	400b      	ands	r3, r1
    2f84:	431a      	orrs	r2, r3
    2f86:	6402      	str	r2, [r0, #64]	; 0x40
    2f88:	bd70      	pop	{r4, r5, r6, pc}
    2f8a:	46c0      	nop			; (mov r8, r8)
    2f8c:	ff00000f 	.word	0xff00000f
    2f90:	00fffff0 	.word	0x00fffff0
    2f94:	f800ffff 	.word	0xf800ffff
    2f98:	07ff0000 	.word	0x07ff0000
    2f9c:	e00001ff 	.word	0xe00001ff
    2fa0:	ffffc007 	.word	0xffffc007

00002fa4 <UART_SetRxLevel>:
    2fa4:	23c0      	movs	r3, #192	; 0xc0
    2fa6:	000a      	movs	r2, r1
    2fa8:	439a      	bics	r2, r3
    2faa:	b570      	push	{r4, r5, r6, lr}
    2fac:	0005      	movs	r5, r0
    2fae:	000c      	movs	r4, r1
    2fb0:	b122      	cbz	r2, 2fbc <UART_SetRxLevel+0x18>
    2fb2:	f240 116a 	movw	r1, #362	; 0x16a
    2fb6:	4804      	ldr	r0, [pc, #16]	; (2fc8 <UART_SetRxLevel+0x24>)
    2fb8:	f7fd f8ac 	bl	114 <io_assert_failed>
    2fbc:	23c0      	movs	r3, #192	; 0xc0
    2fbe:	6d69      	ldr	r1, [r5, #84]	; 0x54
    2fc0:	4399      	bics	r1, r3
    2fc2:	430c      	orrs	r4, r1
    2fc4:	656c      	str	r4, [r5, #84]	; 0x54
    2fc6:	bd70      	pop	{r4, r5, r6, pc}
    2fc8:	0000c525 	.word	0x0000c525

00002fcc <UART_RxCmd>:
    2fcc:	2304      	movs	r3, #4
    2fce:	6c02      	ldr	r2, [r0, #64]	; 0x40
    2fd0:	b111      	cbz	r1, 2fd8 <UART_RxCmd+0xc>
    2fd2:	4313      	orrs	r3, r2
    2fd4:	6403      	str	r3, [r0, #64]	; 0x40
    2fd6:	4770      	bx	lr
    2fd8:	439a      	bics	r2, r3
    2fda:	6402      	str	r2, [r0, #64]	; 0x40
    2fdc:	e7fb      	b.n	2fd6 <UART_RxCmd+0xa>

00002fde <UART_Writable>:
    2fde:	6940      	ldr	r0, [r0, #20]
    2fe0:	0680      	lsls	r0, r0, #26
    2fe2:	0fc0      	lsrs	r0, r0, #31
    2fe4:	4770      	bx	lr

00002fe6 <UART_Readable>:
    2fe6:	2301      	movs	r3, #1
    2fe8:	6940      	ldr	r0, [r0, #20]
    2fea:	4018      	ands	r0, r3
    2fec:	4770      	bx	lr

00002fee <UART_CharPut>:
    2fee:	6241      	str	r1, [r0, #36]	; 0x24
    2ff0:	4770      	bx	lr

00002ff2 <UART_CharGet>:
    2ff2:	6a43      	ldr	r3, [r0, #36]	; 0x24
    2ff4:	700b      	strb	r3, [r1, #0]
    2ff6:	4770      	bx	lr

00002ff8 <UART_ReceiveData>:
    2ff8:	b570      	push	{r4, r5, r6, lr}
    2ffa:	0005      	movs	r5, r0
    2ffc:	000c      	movs	r4, r1
    2ffe:	188e      	adds	r6, r1, r2
    3000:	42b4      	cmp	r4, r6
    3002:	d100      	bne.n	3006 <UART_ReceiveData+0xe>
    3004:	bd70      	pop	{r4, r5, r6, pc}
    3006:	0028      	movs	r0, r5
    3008:	4b03      	ldr	r3, [pc, #12]	; (3018 <UART_ReceiveData+0x20>)
    300a:	4798      	blx	r3
    300c:	2800      	cmp	r0, #0
    300e:	d0fa      	beq.n	3006 <UART_ReceiveData+0xe>
    3010:	6a6b      	ldr	r3, [r5, #36]	; 0x24
    3012:	7023      	strb	r3, [r4, #0]
    3014:	3401      	adds	r4, #1
    3016:	e7f3      	b.n	3000 <UART_ReceiveData+0x8>
    3018:	00002fe7 	.word	0x00002fe7

0000301c <UART_SendData>:
    301c:	b570      	push	{r4, r5, r6, lr}
    301e:	0005      	movs	r5, r0
    3020:	000c      	movs	r4, r1
    3022:	188e      	adds	r6, r1, r2
    3024:	42b4      	cmp	r4, r6
    3026:	d100      	bne.n	302a <UART_SendData+0xe>
    3028:	bd70      	pop	{r4, r5, r6, pc}
    302a:	0028      	movs	r0, r5
    302c:	4b03      	ldr	r3, [pc, #12]	; (303c <UART_SendData+0x20>)
    302e:	4798      	blx	r3
    3030:	2800      	cmp	r0, #0
    3032:	d0fa      	beq.n	302a <UART_SendData+0xe>
    3034:	7823      	ldrb	r3, [r4, #0]
    3036:	3401      	adds	r4, #1
    3038:	626b      	str	r3, [r5, #36]	; 0x24
    303a:	e7f3      	b.n	3024 <UART_SendData+0x8>
    303c:	00002fdf 	.word	0x00002fdf

00003040 <UART_ReceiveDataTO>:
    3040:	b5f7      	push	{r0, r1, r2, r4, r5, r6, r7, lr}
    3042:	2500      	movs	r5, #0
    3044:	0006      	movs	r6, r0
    3046:	0017      	movs	r7, r2
    3048:	002c      	movs	r4, r5
    304a:	9100      	str	r1, [sp, #0]
    304c:	9301      	str	r3, [sp, #4]
    304e:	0030      	movs	r0, r6
    3050:	4b08      	ldr	r3, [pc, #32]	; (3074 <UART_ReceiveDataTO+0x34>)
    3052:	4798      	blx	r3
    3054:	b138      	cbz	r0, 3066 <UART_ReceiveDataTO+0x26>
    3056:	6a73      	ldr	r3, [r6, #36]	; 0x24
    3058:	9a00      	ldr	r2, [sp, #0]
    305a:	5513      	strb	r3, [r2, r4]
    305c:	3401      	adds	r4, #1
    305e:	42bc      	cmp	r4, r7
    3060:	d205      	bcs.n	306e <UART_ReceiveDataTO+0x2e>
    3062:	2500      	movs	r5, #0
    3064:	e7f3      	b.n	304e <UART_ReceiveDataTO+0xe>
    3066:	9b01      	ldr	r3, [sp, #4]
    3068:	3501      	adds	r5, #1
    306a:	429d      	cmp	r5, r3
    306c:	d9ef      	bls.n	304e <UART_ReceiveDataTO+0xe>
    306e:	0020      	movs	r0, r4
    3070:	bdfe      	pop	{r1, r2, r3, r4, r5, r6, r7, pc}
    3072:	46c0      	nop			; (mov r8, r8)
    3074:	00002fe7 	.word	0x00002fe7

00003078 <UART_SendDataTO>:
    3078:	b5f7      	push	{r0, r1, r2, r4, r5, r6, r7, lr}
    307a:	2500      	movs	r5, #0
    307c:	0006      	movs	r6, r0
    307e:	0017      	movs	r7, r2
    3080:	002c      	movs	r4, r5
    3082:	9100      	str	r1, [sp, #0]
    3084:	9301      	str	r3, [sp, #4]
    3086:	0030      	movs	r0, r6
    3088:	4b08      	ldr	r3, [pc, #32]	; (30ac <UART_SendDataTO+0x34>)
    308a:	4798      	blx	r3
    308c:	b138      	cbz	r0, 309e <UART_SendDataTO+0x26>
    308e:	9b00      	ldr	r3, [sp, #0]
    3090:	5d1b      	ldrb	r3, [r3, r4]
    3092:	3401      	adds	r4, #1
    3094:	6273      	str	r3, [r6, #36]	; 0x24
    3096:	42bc      	cmp	r4, r7
    3098:	d205      	bcs.n	30a6 <UART_SendDataTO+0x2e>
    309a:	2500      	movs	r5, #0
    309c:	e7f3      	b.n	3086 <UART_SendDataTO+0xe>
    309e:	9b01      	ldr	r3, [sp, #4]
    30a0:	3501      	adds	r5, #1
    30a2:	429d      	cmp	r5, r3
    30a4:	d9ef      	bls.n	3086 <UART_SendDataTO+0xe>
    30a6:	0020      	movs	r0, r4
    30a8:	bdfe      	pop	{r1, r2, r3, r4, r5, r6, r7, pc}
    30aa:	46c0      	nop			; (mov r8, r8)
    30ac:	00002fdf 	.word	0x00002fdf

000030b0 <UART_RxByteCntClear>:
    30b0:	2380      	movs	r3, #128	; 0x80
    30b2:	6d02      	ldr	r2, [r0, #80]	; 0x50
    30b4:	025b      	lsls	r3, r3, #9
    30b6:	4313      	orrs	r3, r2
    30b8:	6503      	str	r3, [r0, #80]	; 0x50
    30ba:	4770      	bx	lr

000030bc <UART_RxByteCntGet>:
    30bc:	6d00      	ldr	r0, [r0, #80]	; 0x50
    30be:	b280      	uxth	r0, r0
    30c0:	4770      	bx	lr

000030c2 <UART_BreakCtl>:
    30c2:	68c2      	ldr	r2, [r0, #12]
    30c4:	b510      	push	{r4, lr}
    30c6:	0013      	movs	r3, r2
    30c8:	2440      	movs	r4, #64	; 0x40
    30ca:	43a3      	bics	r3, r4
    30cc:	b109      	cbz	r1, 30d2 <UART_BreakCtl+0x10>
    30ce:	0023      	movs	r3, r4
    30d0:	4313      	orrs	r3, r2
    30d2:	60c3      	str	r3, [r0, #12]
    30d4:	bd10      	pop	{r4, pc}

000030d6 <UART_ClearRxFifo>:
    30d6:	2202      	movs	r2, #2
    30d8:	6d41      	ldr	r1, [r0, #84]	; 0x54
    30da:	0003      	movs	r3, r0
    30dc:	430a      	orrs	r2, r1
    30de:	6542      	str	r2, [r0, #84]	; 0x54
    30e0:	2005      	movs	r0, #5
    30e2:	2201      	movs	r2, #1
    30e4:	6959      	ldr	r1, [r3, #20]
    30e6:	4211      	tst	r1, r2
    30e8:	d003      	beq.n	30f2 <UART_ClearRxFifo+0x1c>
    30ea:	3801      	subs	r0, #1
    30ec:	2800      	cmp	r0, #0
    30ee:	d1f9      	bne.n	30e4 <UART_ClearRxFifo+0xe>
    30f0:	4770      	bx	lr
    30f2:	2001      	movs	r0, #1
    30f4:	e7fc      	b.n	30f0 <UART_ClearRxFifo+0x1a>

000030f6 <UART_Init>:
    30f6:	23c0      	movs	r3, #192	; 0xc0
    30f8:	69ca      	ldr	r2, [r1, #28]
    30fa:	b570      	push	{r4, r5, r6, lr}
    30fc:	439a      	bics	r2, r3
    30fe:	0004      	movs	r4, r0
    3100:	000d      	movs	r5, r1
    3102:	b11a      	cbz	r2, 310c <UART_Init+0x16>
    3104:	2183      	movs	r1, #131	; 0x83
    3106:	4824      	ldr	r0, [pc, #144]	; (3198 <UART_Init+0xa2>)
    3108:	f7fd f804 	bl	114 <io_assert_failed>
    310c:	6a2b      	ldr	r3, [r5, #32]
    310e:	2b01      	cmp	r3, #1
    3110:	d903      	bls.n	311a <UART_Init+0x24>
    3112:	2184      	movs	r1, #132	; 0x84
    3114:	4820      	ldr	r0, [pc, #128]	; (3198 <UART_Init+0xa2>)
    3116:	f7fc fffd 	bl	114 <io_assert_failed>
    311a:	2204      	movs	r2, #4
    311c:	6c23      	ldr	r3, [r4, #64]	; 0x40
    311e:	0020      	movs	r0, r4
    3120:	4393      	bics	r3, r2
    3122:	6423      	str	r3, [r4, #64]	; 0x40
    3124:	4b1d      	ldr	r3, [pc, #116]	; (319c <UART_Init+0xa6>)
    3126:	4798      	blx	r3
    3128:	2300      	movs	r3, #0
    312a:	6063      	str	r3, [r4, #4]
    312c:	69e2      	ldr	r2, [r4, #28]
    312e:	3380      	adds	r3, #128	; 0x80
    3130:	4313      	orrs	r3, r2
    3132:	22c1      	movs	r2, #193	; 0xc1
    3134:	61e3      	str	r3, [r4, #28]
    3136:	6d63      	ldr	r3, [r4, #84]	; 0x54
    3138:	4393      	bics	r3, r2
    313a:	69ea      	ldr	r2, [r5, #28]
    313c:	4313      	orrs	r3, r2
    313e:	6a2a      	ldr	r2, [r5, #32]
    3140:	4313      	orrs	r3, r2
    3142:	69aa      	ldr	r2, [r5, #24]
    3144:	6563      	str	r3, [r4, #84]	; 0x54
    3146:	2322      	movs	r3, #34	; 0x22
    3148:	2a01      	cmp	r2, #1
    314a:	d11d      	bne.n	3188 <UART_Init+0x92>
    314c:	6922      	ldr	r2, [r4, #16]
    314e:	4313      	orrs	r3, r2
    3150:	6123      	str	r3, [r4, #16]
    3152:	68ab      	ldr	r3, [r5, #8]
    3154:	68ea      	ldr	r2, [r5, #12]
    3156:	009b      	lsls	r3, r3, #2
    3158:	00d2      	lsls	r2, r2, #3
    315a:	4313      	orrs	r3, r2
    315c:	686a      	ldr	r2, [r5, #4]
    315e:	4313      	orrs	r3, r2
    3160:	692a      	ldr	r2, [r5, #16]
    3162:	0112      	lsls	r2, r2, #4
    3164:	4313      	orrs	r3, r2
    3166:	696a      	ldr	r2, [r5, #20]
    3168:	0152      	lsls	r2, r2, #5
    316a:	4313      	orrs	r3, r2
    316c:	682a      	ldr	r2, [r5, #0]
    316e:	60e3      	str	r3, [r4, #12]
    3170:	2308      	movs	r3, #8
    3172:	b16a      	cbz	r2, 3190 <UART_Init+0x9a>
    3174:	6d62      	ldr	r2, [r4, #84]	; 0x54
    3176:	4313      	orrs	r3, r2
    3178:	6563      	str	r3, [r4, #84]	; 0x54
    317a:	6a6b      	ldr	r3, [r5, #36]	; 0x24
    317c:	6c22      	ldr	r2, [r4, #64]	; 0x40
    317e:	041b      	lsls	r3, r3, #16
    3180:	b292      	uxth	r2, r2
    3182:	4313      	orrs	r3, r2
    3184:	6423      	str	r3, [r4, #64]	; 0x40
    3186:	bd70      	pop	{r4, r5, r6, pc}
    3188:	6922      	ldr	r2, [r4, #16]
    318a:	439a      	bics	r2, r3
    318c:	6122      	str	r2, [r4, #16]
    318e:	e7e0      	b.n	3152 <UART_Init+0x5c>
    3190:	6d62      	ldr	r2, [r4, #84]	; 0x54
    3192:	439a      	bics	r2, r3
    3194:	6562      	str	r2, [r4, #84]	; 0x54
    3196:	e7f0      	b.n	317a <UART_Init+0x84>
    3198:	0000c535 	.word	0x0000c535
    319c:	000030d7 	.word	0x000030d7

000031a0 <UART_ClearTxFifo>:
    31a0:	2304      	movs	r3, #4
    31a2:	6d42      	ldr	r2, [r0, #84]	; 0x54
    31a4:	4313      	orrs	r3, r2
    31a6:	6543      	str	r3, [r0, #84]	; 0x54
    31a8:	4770      	bx	lr

000031aa <UART_INTConfig>:
    31aa:	6843      	ldr	r3, [r0, #4]
    31ac:	2a01      	cmp	r2, #1
    31ae:	d102      	bne.n	31b6 <UART_INTConfig+0xc>
    31b0:	4319      	orrs	r1, r3
    31b2:	6041      	str	r1, [r0, #4]
    31b4:	4770      	bx	lr
    31b6:	438b      	bics	r3, r1
    31b8:	6043      	str	r3, [r0, #4]
    31ba:	e7fb      	b.n	31b4 <UART_INTConfig+0xa>

000031bc <UART_INT_Clear>:
    31bc:	6d83      	ldr	r3, [r0, #88]	; 0x58
    31be:	430b      	orrs	r3, r1
    31c0:	6583      	str	r3, [r0, #88]	; 0x58
    31c2:	4770      	bx	lr

000031c4 <UART_IntStatus>:
    31c4:	6880      	ldr	r0, [r0, #8]
    31c6:	4770      	bx	lr

000031c8 <UART_ModemStatusGet>:
    31c8:	6980      	ldr	r0, [r0, #24]
    31ca:	4770      	bx	lr

000031cc <UART_LineStatusGet>:
    31cc:	6940      	ldr	r0, [r0, #20]
    31ce:	4770      	bx	lr

000031d0 <UART_WaitBusy>:
    31d0:	b5f8      	push	{r3, r4, r5, r6, r7, lr}
    31d2:	0006      	movs	r6, r0
    31d4:	000c      	movs	r4, r1
    31d6:	2500      	movs	r5, #0
    31d8:	2720      	movs	r7, #32
    31da:	6973      	ldr	r3, [r6, #20]
    31dc:	423b      	tst	r3, r7
    31de:	d105      	bne.n	31ec <UART_WaitBusy+0x1c>
    31e0:	2064      	movs	r0, #100	; 0x64
    31e2:	4b03      	ldr	r3, [pc, #12]	; (31f0 <UART_WaitBusy+0x20>)
    31e4:	3501      	adds	r5, #1
    31e6:	4798      	blx	r3
    31e8:	42a5      	cmp	r5, r4
    31ea:	d9f6      	bls.n	31da <UART_WaitBusy+0xa>
    31ec:	bdf8      	pop	{r3, r4, r5, r6, r7, pc}
    31ee:	46c0      	nop			; (mov r8, r8)
    31f0:	0000030b 	.word	0x0000030b

000031f4 <WDG_Wait_Busy>:
    31f4:	b570      	push	{r4, r5, r6, lr}
    31f6:	0004      	movs	r4, r0
    31f8:	f240 35e9 	movw	r5, #1001	; 0x3e9
    31fc:	6863      	ldr	r3, [r4, #4]
    31fe:	0f9b      	lsrs	r3, r3, #30
    3200:	b12b      	cbz	r3, 320e <WDG_Wait_Busy+0x1a>
    3202:	2001      	movs	r0, #1
    3204:	4b02      	ldr	r3, [pc, #8]	; (3210 <WDG_Wait_Busy+0x1c>)
    3206:	3d01      	subs	r5, #1
    3208:	4798      	blx	r3
    320a:	2d00      	cmp	r5, #0
    320c:	d1f6      	bne.n	31fc <WDG_Wait_Busy+0x8>
    320e:	bd70      	pop	{r4, r5, r6, pc}
    3210:	0000030b 	.word	0x0000030b

00003214 <WDG_StructInit>:
    3214:	2301      	movs	r3, #1
    3216:	425b      	negs	r3, r3
    3218:	8003      	strh	r3, [r0, #0]
    321a:	8043      	strh	r3, [r0, #2]
    321c:	2300      	movs	r3, #0
    321e:	8083      	strh	r3, [r0, #4]
    3220:	80c3      	strh	r3, [r0, #6]
    3222:	4770      	bx	lr

00003224 <WDG_Init>:
    3224:	4b17      	ldr	r3, [pc, #92]	; (3284 <WDG_Init+0x60>)
    3226:	b570      	push	{r4, r5, r6, lr}
    3228:	0004      	movs	r4, r0
    322a:	000e      	movs	r6, r1
    322c:	2563      	movs	r5, #99	; 0x63
    322e:	4298      	cmp	r0, r3
    3230:	d010      	beq.n	3254 <WDG_Init+0x30>
    3232:	4b15      	ldr	r3, [pc, #84]	; (3288 <WDG_Init+0x64>)
    3234:	3d44      	subs	r5, #68	; 0x44
    3236:	4298      	cmp	r0, r3
    3238:	d00c      	beq.n	3254 <WDG_Init+0x30>
    323a:	4b14      	ldr	r3, [pc, #80]	; (328c <WDG_Init+0x68>)
    323c:	4298      	cmp	r0, r3
    323e:	d009      	beq.n	3254 <WDG_Init+0x30>
    3240:	4b13      	ldr	r3, [pc, #76]	; (3290 <WDG_Init+0x6c>)
    3242:	4298      	cmp	r0, r3
    3244:	d006      	beq.n	3254 <WDG_Init+0x30>
    3246:	4b13      	ldr	r3, [pc, #76]	; (3294 <WDG_Init+0x70>)
    3248:	4298      	cmp	r0, r3
    324a:	d003      	beq.n	3254 <WDG_Init+0x30>
    324c:	2148      	movs	r1, #72	; 0x48
    324e:	4812      	ldr	r0, [pc, #72]	; (3298 <WDG_Init+0x74>)
    3250:	f7fc ff60 	bl	114 <io_assert_failed>
    3254:	0020      	movs	r0, r4
    3256:	f7ff ffcd 	bl	31f4 <WDG_Wait_Busy>
    325a:	f646 1369 	movw	r3, #26985	; 0x6969
    325e:	6023      	str	r3, [r4, #0]
    3260:	88f3      	ldrh	r3, [r6, #6]
    3262:	b11b      	cbz	r3, 326c <WDG_Init+0x48>
    3264:	2380      	movs	r3, #128	; 0x80
    3266:	88b2      	ldrh	r2, [r6, #4]
    3268:	025b      	lsls	r3, r3, #9
    326a:	4313      	orrs	r3, r2
    326c:	6063      	str	r3, [r4, #4]
    326e:	8873      	ldrh	r3, [r6, #2]
    3270:	042d      	lsls	r5, r5, #16
    3272:	431d      	orrs	r5, r3
    3274:	8833      	ldrh	r3, [r6, #0]
    3276:	60a5      	str	r5, [r4, #8]
    3278:	60e3      	str	r3, [r4, #12]
    327a:	f64f 73ff 	movw	r3, #65535	; 0xffff
    327e:	6023      	str	r3, [r4, #0]
    3280:	bd70      	pop	{r4, r5, r6, pc}
    3282:	46c0      	nop			; (mov r8, r8)
    3284:	42008400 	.word	0x42008400
    3288:	51000400 	.word	0x51000400
    328c:	41000440 	.word	0x41000440
    3290:	51000480 	.word	0x51000480
    3294:	410004c0 	.word	0x410004c0
    3298:	0000c58c 	.word	0x0000c58c

0000329c <WDG_Enable>:
    329c:	4b0d      	ldr	r3, [pc, #52]	; (32d4 <WDG_Enable+0x38>)
    329e:	b510      	push	{r4, lr}
    32a0:	0004      	movs	r4, r0
    32a2:	4298      	cmp	r0, r3
    32a4:	d00f      	beq.n	32c6 <WDG_Enable+0x2a>
    32a6:	4b0c      	ldr	r3, [pc, #48]	; (32d8 <WDG_Enable+0x3c>)
    32a8:	4298      	cmp	r0, r3
    32aa:	d00c      	beq.n	32c6 <WDG_Enable+0x2a>
    32ac:	4b0b      	ldr	r3, [pc, #44]	; (32dc <WDG_Enable+0x40>)
    32ae:	4298      	cmp	r0, r3
    32b0:	d009      	beq.n	32c6 <WDG_Enable+0x2a>
    32b2:	4b0b      	ldr	r3, [pc, #44]	; (32e0 <WDG_Enable+0x44>)
    32b4:	4298      	cmp	r0, r3
    32b6:	d006      	beq.n	32c6 <WDG_Enable+0x2a>
    32b8:	4b0a      	ldr	r3, [pc, #40]	; (32e4 <WDG_Enable+0x48>)
    32ba:	4298      	cmp	r0, r3
    32bc:	d003      	beq.n	32c6 <WDG_Enable+0x2a>
    32be:	216c      	movs	r1, #108	; 0x6c
    32c0:	4809      	ldr	r0, [pc, #36]	; (32e8 <WDG_Enable+0x4c>)
    32c2:	f7fc ff27 	bl	114 <io_assert_failed>
    32c6:	0020      	movs	r0, r4
    32c8:	f7ff ff94 	bl	31f4 <WDG_Wait_Busy>
    32cc:	f643 433c 	movw	r3, #15420	; 0x3c3c
    32d0:	6023      	str	r3, [r4, #0]
    32d2:	bd10      	pop	{r4, pc}
    32d4:	42008400 	.word	0x42008400
    32d8:	51000400 	.word	0x51000400
    32dc:	41000440 	.word	0x41000440
    32e0:	51000480 	.word	0x51000480
    32e4:	410004c0 	.word	0x410004c0
    32e8:	0000c581 	.word	0x0000c581

000032ec <WDG_Timeout>:
    32ec:	4b12      	ldr	r3, [pc, #72]	; (3338 <WDG_Timeout+0x4c>)
    32ee:	b570      	push	{r4, r5, r6, lr}
    32f0:	0004      	movs	r4, r0
    32f2:	000e      	movs	r6, r1
    32f4:	2563      	movs	r5, #99	; 0x63
    32f6:	4298      	cmp	r0, r3
    32f8:	d010      	beq.n	331c <WDG_Timeout+0x30>
    32fa:	4b10      	ldr	r3, [pc, #64]	; (333c <WDG_Timeout+0x50>)
    32fc:	3d44      	subs	r5, #68	; 0x44
    32fe:	4298      	cmp	r0, r3
    3300:	d00c      	beq.n	331c <WDG_Timeout+0x30>
    3302:	4b0f      	ldr	r3, [pc, #60]	; (3340 <WDG_Timeout+0x54>)
    3304:	4298      	cmp	r0, r3
    3306:	d009      	beq.n	331c <WDG_Timeout+0x30>
    3308:	4b0e      	ldr	r3, [pc, #56]	; (3344 <WDG_Timeout+0x58>)
    330a:	4298      	cmp	r0, r3
    330c:	d006      	beq.n	331c <WDG_Timeout+0x30>
    330e:	4b0e      	ldr	r3, [pc, #56]	; (3348 <WDG_Timeout+0x5c>)
    3310:	4298      	cmp	r0, r3
    3312:	d003      	beq.n	331c <WDG_Timeout+0x30>
    3314:	2180      	movs	r1, #128	; 0x80
    3316:	480d      	ldr	r0, [pc, #52]	; (334c <WDG_Timeout+0x60>)
    3318:	f7fc fefc 	bl	114 <io_assert_failed>
    331c:	0020      	movs	r0, r4
    331e:	f7ff ff69 	bl	31f4 <WDG_Wait_Busy>
    3322:	f646 1369 	movw	r3, #26985	; 0x6969
    3326:	6023      	str	r3, [r4, #0]
    3328:	f64f 73ff 	movw	r3, #65535	; 0xffff
    332c:	b2b6      	uxth	r6, r6
    332e:	042d      	lsls	r5, r5, #16
    3330:	4335      	orrs	r5, r6
    3332:	60a5      	str	r5, [r4, #8]
    3334:	6023      	str	r3, [r4, #0]
    3336:	bd70      	pop	{r4, r5, r6, pc}
    3338:	42008400 	.word	0x42008400
    333c:	51000400 	.word	0x51000400
    3340:	41000440 	.word	0x41000440
    3344:	51000480 	.word	0x51000480
    3348:	410004c0 	.word	0x410004c0
    334c:	0000c575 	.word	0x0000c575

00003350 <WDG_Refresh>:
    3350:	4b0d      	ldr	r3, [pc, #52]	; (3388 <WDG_Refresh+0x38>)
    3352:	b510      	push	{r4, lr}
    3354:	0004      	movs	r4, r0
    3356:	4298      	cmp	r0, r3
    3358:	d00f      	beq.n	337a <WDG_Refresh+0x2a>
    335a:	4b0c      	ldr	r3, [pc, #48]	; (338c <WDG_Refresh+0x3c>)
    335c:	4298      	cmp	r0, r3
    335e:	d00c      	beq.n	337a <WDG_Refresh+0x2a>
    3360:	4b0b      	ldr	r3, [pc, #44]	; (3390 <WDG_Refresh+0x40>)
    3362:	4298      	cmp	r0, r3
    3364:	d009      	beq.n	337a <WDG_Refresh+0x2a>
    3366:	4b0b      	ldr	r3, [pc, #44]	; (3394 <WDG_Refresh+0x44>)
    3368:	4298      	cmp	r0, r3
    336a:	d006      	beq.n	337a <WDG_Refresh+0x2a>
    336c:	4b0a      	ldr	r3, [pc, #40]	; (3398 <WDG_Refresh+0x48>)
    336e:	4298      	cmp	r0, r3
    3370:	d003      	beq.n	337a <WDG_Refresh+0x2a>
    3372:	219f      	movs	r1, #159	; 0x9f
    3374:	4809      	ldr	r0, [pc, #36]	; (339c <WDG_Refresh+0x4c>)
    3376:	f7fc fecd 	bl	114 <io_assert_failed>
    337a:	0020      	movs	r0, r4
    337c:	f7ff ff3a 	bl	31f4 <WDG_Wait_Busy>
    3380:	f645 235a 	movw	r3, #23130	; 0x5a5a
    3384:	6023      	str	r3, [r4, #0]
    3386:	bd10      	pop	{r4, pc}
    3388:	42008400 	.word	0x42008400
    338c:	51000400 	.word	0x51000400
    3390:	41000440 	.word	0x41000440
    3394:	51000480 	.word	0x51000480
    3398:	410004c0 	.word	0x410004c0
    339c:	0000c569 	.word	0x0000c569

000033a0 <WDG_INTConfig>:
    33a0:	4b18      	ldr	r3, [pc, #96]	; (3404 <WDG_INTConfig+0x64>)
    33a2:	b570      	push	{r4, r5, r6, lr}
    33a4:	0004      	movs	r4, r0
    33a6:	000d      	movs	r5, r1
    33a8:	0016      	movs	r6, r2
    33aa:	4298      	cmp	r0, r3
    33ac:	d00f      	beq.n	33ce <WDG_INTConfig+0x2e>
    33ae:	4b16      	ldr	r3, [pc, #88]	; (3408 <WDG_INTConfig+0x68>)
    33b0:	4298      	cmp	r0, r3
    33b2:	d00c      	beq.n	33ce <WDG_INTConfig+0x2e>
    33b4:	4b15      	ldr	r3, [pc, #84]	; (340c <WDG_INTConfig+0x6c>)
    33b6:	4298      	cmp	r0, r3
    33b8:	d009      	beq.n	33ce <WDG_INTConfig+0x2e>
    33ba:	4b15      	ldr	r3, [pc, #84]	; (3410 <WDG_INTConfig+0x70>)
