Archive member included to satisfy reference by file (symbol)

/home/auto_jenkins_wlan5/workspace/sdk/auto-release-master/amebasmart_gcc_project/build/project_ap/asdk/make/atf/lib/libpm.a(sheipa_pm.o)
                              /home/auto_jenkins_wlan5/workspace/sdk/auto-release-master/amebasmart_gcc_project/build/project_ap/asdk/make/atf/bl32/sp_min_main.o (plat_sheipa_restore_mpc)
/home/auto_jenkins_wlan5/workspace/sdk/auto-release-master/amebasmart_gcc_project/build/project_ap/asdk/make/atf/lib/libc.a(assert.o)
                              /home/auto_jenkins_wlan5/workspace/sdk/auto-release-master/amebasmart_gcc_project/build/project_ap/asdk/make/atf/bl32/sp_min_main.o (__assert)
/home/auto_jenkins_wlan5/workspace/sdk/auto-release-master/amebasmart_gcc_project/build/project_ap/asdk/make/atf/lib/libc.a(memcpy.o)
                              /home/auto_jenkins_wlan5/workspace/sdk/auto-release-master/amebasmart_gcc_project/build/project_ap/asdk/make/atf/bl32/context_mgmt.o (memcpy)
/home/auto_jenkins_wlan5/workspace/sdk/auto-release-master/amebasmart_gcc_project/build/project_ap/asdk/make/atf/lib/libc.a(memmove.o)
                              /home/auto_jenkins_wlan5/workspace/sdk/auto-release-master/amebasmart_gcc_project/build/project_ap/asdk/make/atf/bl32/xlat_tables_core.o (memmove)
/home/auto_jenkins_wlan5/workspace/sdk/auto-release-master/amebasmart_gcc_project/build/project_ap/asdk/make/atf/lib/libc.a(memset.o)
                              /home/auto_jenkins_wlan5/workspace/sdk/auto-release-master/amebasmart_gcc_project/build/project_ap/asdk/make/atf/bl32/runtime_svc.o (memset)
/home/auto_jenkins_wlan5/workspace/sdk/auto-release-master/amebasmart_gcc_project/build/project_ap/asdk/make/atf/lib/libc.a(printf.o)
                              /home/auto_jenkins_wlan5/workspace/sdk/auto-release-master/amebasmart_gcc_project/build/project_ap/asdk/make/atf/bl32/tf_log.o (vprintf)
/home/auto_jenkins_wlan5/workspace/sdk/auto-release-master/amebasmart_gcc_project/build/project_ap/asdk/make/atf/lib/libc.a(putchar.o)
                              /home/auto_jenkins_wlan5/workspace/sdk/auto-release-master/amebasmart_gcc_project/build/project_ap/asdk/make/atf/bl32/tf_log.o (putchar)

Discarded input sections

 .text          0x0000000000000000        0x0 /home/auto_jenkins_wlan5/workspace/sdk/auto-release-master/amebasmart_gcc_project/build/project_ap/asdk/make/atf/bl32/build_message.o
 .data          0x0000000000000000        0x0 /home/auto_jenkins_wlan5/workspace/sdk/auto-release-master/amebasmart_gcc_project/build/project_ap/asdk/make/atf/bl32/build_message.o
 .bss           0x0000000000000000        0x0 /home/auto_jenkins_wlan5/workspace/sdk/auto-release-master/amebasmart_gcc_project/build/project_ap/asdk/make/atf/bl32/build_message.o
 .text          0x0000000000000000        0x0 /home/auto_jenkins_wlan5/workspace/sdk/auto-release-master/amebasmart_gcc_project/build/project_ap/asdk/make/atf/bl32/sp_min_main.o
 .data          0x0000000000000000        0x0 /home/auto_jenkins_wlan5/workspace/sdk/auto-release-master/amebasmart_gcc_project/build/project_ap/asdk/make/atf/bl32/sp_min_main.o
 .bss           0x0000000000000000        0x0 /home/auto_jenkins_wlan5/workspace/sdk/auto-release-master/amebasmart_gcc_project/build/project_ap/asdk/make/atf/bl32/sp_min_main.o
 .text.smc_get_ctx
                0x0000000000000000       0x24 /home/auto_jenkins_wlan5/workspace/sdk/auto-release-master/amebasmart_gcc_project/build/project_ap/asdk/make/atf/bl32/sp_min_main.o
 .text.smc_set_next_ctx
                0x0000000000000000       0x14 /home/auto_jenkins_wlan5/workspace/sdk/auto-release-master/amebasmart_gcc_project/build/project_ap/asdk/make/atf/bl32/sp_min_main.o
 .text.cm_set_context
                0x0000000000000000       0x24 /home/auto_jenkins_wlan5/workspace/sdk/auto-release-master/amebasmart_gcc_project/build/project_ap/asdk/make/atf/bl32/sp_min_main.o
 .text          0x0000000000000000        0x0 /home/auto_jenkins_wlan5/workspace/sdk/auto-release-master/amebasmart_gcc_project/build/project_ap/asdk/make/atf/bl32/runtime_svc.o
 .data          0x0000000000000000        0x0 /home/auto_jenkins_wlan5/workspace/sdk/auto-release-master/amebasmart_gcc_project/build/project_ap/asdk/make/atf/bl32/runtime_svc.o
 .bss           0x0000000000000000        0x0 /home/auto_jenkins_wlan5/workspace/sdk/auto-release-master/amebasmart_gcc_project/build/project_ap/asdk/make/atf/bl32/runtime_svc.o
 .text          0x0000000000000000        0x0 /home/auto_jenkins_wlan5/workspace/sdk/auto-release-master/amebasmart_gcc_project/build/project_ap/asdk/make/atf/bl32/gic_common.o
 .data          0x0000000000000000        0x0 /home/auto_jenkins_wlan5/workspace/sdk/auto-release-master/amebasmart_gcc_project/build/project_ap/asdk/make/atf/bl32/gic_common.o
 .bss           0x0000000000000000        0x0 /home/auto_jenkins_wlan5/workspace/sdk/auto-release-master/amebasmart_gcc_project/build/project_ap/asdk/make/atf/bl32/gic_common.o
 .text.gicd_read_isenabler
                0x0000000000000000        0xc /home/auto_jenkins_wlan5/workspace/sdk/auto-release-master/amebasmart_gcc_project/build/project_ap/asdk/make/atf/bl32/gic_common.o
 .text.gicd_read_icenabler
                0x0000000000000000        0xc /home/auto_jenkins_wlan5/workspace/sdk/auto-release-master/amebasmart_gcc_project/build/project_ap/asdk/make/atf/bl32/gic_common.o
 .text.gicd_read_ispendr
                0x0000000000000000        0xc /home/auto_jenkins_wlan5/workspace/sdk/auto-release-master/amebasmart_gcc_project/build/project_ap/asdk/make/atf/bl32/gic_common.o
 .text.gicd_read_icpendr
                0x0000000000000000        0xc /home/auto_jenkins_wlan5/workspace/sdk/auto-release-master/amebasmart_gcc_project/build/project_ap/asdk/make/atf/bl32/gic_common.o
 .text.gicd_read_isactiver
                0x0000000000000000        0xc /home/auto_jenkins_wlan5/workspace/sdk/auto-release-master/amebasmart_gcc_project/build/project_ap/asdk/make/atf/bl32/gic_common.o
 .text.gicd_read_icactiver
                0x0000000000000000        0xc /home/auto_jenkins_wlan5/workspace/sdk/auto-release-master/amebasmart_gcc_project/build/project_ap/asdk/make/atf/bl32/gic_common.o
 .text.gicd_read_ipriorityr
                0x0000000000000000        0xc /home/auto_jenkins_wlan5/workspace/sdk/auto-release-master/amebasmart_gcc_project/build/project_ap/asdk/make/atf/bl32/gic_common.o
 .text.gicd_read_nsacr
                0x0000000000000000        0xc /home/auto_jenkins_wlan5/workspace/sdk/auto-release-master/amebasmart_gcc_project/build/project_ap/asdk/make/atf/bl32/gic_common.o
 .text.gicd_write_ispendr
                0x0000000000000000        0xc /home/auto_jenkins_wlan5/workspace/sdk/auto-release-master/amebasmart_gcc_project/build/project_ap/asdk/make/atf/bl32/gic_common.o
 .text.gicd_write_icpendr
                0x0000000000000000        0xc /home/auto_jenkins_wlan5/workspace/sdk/auto-release-master/amebasmart_gcc_project/build/project_ap/asdk/make/atf/bl32/gic_common.o
 .text.gicd_write_isactiver
                0x0000000000000000        0xc /home/auto_jenkins_wlan5/workspace/sdk/auto-release-master/amebasmart_gcc_project/build/project_ap/asdk/make/atf/bl32/gic_common.o
 .text.gicd_write_icactiver
                0x0000000000000000        0xc /home/auto_jenkins_wlan5/workspace/sdk/auto-release-master/amebasmart_gcc_project/build/project_ap/asdk/make/atf/bl32/gic_common.o
 .text.gicd_write_nsacr
                0x0000000000000000        0xc /home/auto_jenkins_wlan5/workspace/sdk/auto-release-master/amebasmart_gcc_project/build/project_ap/asdk/make/atf/bl32/gic_common.o
 .text.gicd_get_igroupr
                0x0000000000000000       0x14 /home/auto_jenkins_wlan5/workspace/sdk/auto-release-master/amebasmart_gcc_project/build/project_ap/asdk/make/atf/bl32/gic_common.o
 .text.gicd_set_igroupr
                0x0000000000000000       0x20 /home/auto_jenkins_wlan5/workspace/sdk/auto-release-master/amebasmart_gcc_project/build/project_ap/asdk/make/atf/bl32/gic_common.o
 .text.gicd_set_icenabler
                0x0000000000000000        0xc /home/auto_jenkins_wlan5/workspace/sdk/auto-release-master/amebasmart_gcc_project/build/project_ap/asdk/make/atf/bl32/gic_common.o
 .text.gicd_set_ispendr
                0x0000000000000000        0xc /home/auto_jenkins_wlan5/workspace/sdk/auto-release-master/amebasmart_gcc_project/build/project_ap/asdk/make/atf/bl32/gic_common.o
 .text.gicd_set_icpendr
                0x0000000000000000        0xc /home/auto_jenkins_wlan5/workspace/sdk/auto-release-master/amebasmart_gcc_project/build/project_ap/asdk/make/atf/bl32/gic_common.o
 .text.gicd_get_isactiver
                0x0000000000000000       0x14 /home/auto_jenkins_wlan5/workspace/sdk/auto-release-master/amebasmart_gcc_project/build/project_ap/asdk/make/atf/bl32/gic_common.o
 .text.gicd_set_isactiver
                0x0000000000000000        0xc /home/auto_jenkins_wlan5/workspace/sdk/auto-release-master/amebasmart_gcc_project/build/project_ap/asdk/make/atf/bl32/gic_common.o
 .text.gicd_set_icactiver
                0x0000000000000000        0xc /home/auto_jenkins_wlan5/workspace/sdk/auto-release-master/amebasmart_gcc_project/build/project_ap/asdk/make/atf/bl32/gic_common.o
 .text          0x0000000000000000        0x0 /home/auto_jenkins_wlan5/workspace/sdk/auto-release-master/amebasmart_gcc_project/build/project_ap/asdk/make/atf/bl32/gicv2_helpers.o
 .data          0x0000000000000000        0x0 /home/auto_jenkins_wlan5/workspace/sdk/auto-release-master/amebasmart_gcc_project/build/project_ap/asdk/make/atf/bl32/gicv2_helpers.o
 .bss           0x0000000000000000        0x0 /home/auto_jenkins_wlan5/workspace/sdk/auto-release-master/amebasmart_gcc_project/build/project_ap/asdk/make/atf/bl32/gicv2_helpers.o
 .text.gicd_read_itargetsr
                0x0000000000000000        0xc /home/auto_jenkins_wlan5/workspace/sdk/auto-release-master/amebasmart_gcc_project/build/project_ap/asdk/make/atf/bl32/gicv2_helpers.o
 .text.gicd_read_cpendsgir
                0x0000000000000000        0xc /home/auto_jenkins_wlan5/workspace/sdk/auto-release-master/amebasmart_gcc_project/build/project_ap/asdk/make/atf/bl32/gicv2_helpers.o
 .text.gicd_read_spendsgir
                0x0000000000000000        0xc /home/auto_jenkins_wlan5/workspace/sdk/auto-release-master/amebasmart_gcc_project/build/project_ap/asdk/make/atf/bl32/gicv2_helpers.o
 .text.gicd_write_itargetsr
                0x0000000000000000        0xc /home/auto_jenkins_wlan5/workspace/sdk/auto-release-master/amebasmart_gcc_project/build/project_ap/asdk/make/atf/bl32/gicv2_helpers.o
 .text.gicd_write_cpendsgir
                0x0000000000000000        0xc /home/auto_jenkins_wlan5/workspace/sdk/auto-release-master/amebasmart_gcc_project/build/project_ap/asdk/make/atf/bl32/gicv2_helpers.o
 .text.gicd_write_spendsgir
                0x0000000000000000        0xc /home/auto_jenkins_wlan5/workspace/sdk/auto-release-master/amebasmart_gcc_project/build/project_ap/asdk/make/atf/bl32/gicv2_helpers.o
 .text.gicv2_get_cpuif_id
                0x0000000000000000        0x8 /home/auto_jenkins_wlan5/workspace/sdk/auto-release-master/amebasmart_gcc_project/build/project_ap/asdk/make/atf/bl32/gicv2_helpers.o
 .text          0x0000000000000000        0x0 /home/auto_jenkins_wlan5/workspace/sdk/auto-release-master/amebasmart_gcc_project/build/project_ap/asdk/make/atf/bl32/gicv2_main.o
 .data          0x0000000000000000        0x0 /home/auto_jenkins_wlan5/workspace/sdk/auto-release-master/amebasmart_gcc_project/build/project_ap/asdk/make/atf/bl32/gicv2_main.o
 .bss           0x0000000000000000        0x0 /home/auto_jenkins_wlan5/workspace/sdk/auto-release-master/amebasmart_gcc_project/build/project_ap/asdk/make/atf/bl32/gicv2_main.o
 .text.gicv2_cpuif_disable
                0x0000000000000000       0x30 /home/auto_jenkins_wlan5/workspace/sdk/auto-release-master/amebasmart_gcc_project/build/project_ap/asdk/make/atf/bl32/gicv2_main.o
 .text.gicv2_is_fiq_enabled
                0x0000000000000000       0x28 /home/auto_jenkins_wlan5/workspace/sdk/auto-release-master/amebasmart_gcc_project/build/project_ap/asdk/make/atf/bl32/gicv2_main.o
 .text.gicv2_get_pending_interrupt_type
                0x0000000000000000       0x28 /home/auto_jenkins_wlan5/workspace/sdk/auto-release-master/amebasmart_gcc_project/build/project_ap/asdk/make/atf/bl32/gicv2_main.o
 .text.gicv2_get_pending_interrupt_id
                0x0000000000000000       0x38 /home/auto_jenkins_wlan5/workspace/sdk/auto-release-master/amebasmart_gcc_project/build/project_ap/asdk/make/atf/bl32/gicv2_main.o
 .text.gicv2_acknowledge_interrupt
                0x0000000000000000       0x24 /home/auto_jenkins_wlan5/workspace/sdk/auto-release-master/amebasmart_gcc_project/build/project_ap/asdk/make/atf/bl32/gicv2_main.o
 .text.gicv2_end_of_interrupt
                0x0000000000000000       0x24 /home/auto_jenkins_wlan5/workspace/sdk/auto-release-master/amebasmart_gcc_project/build/project_ap/asdk/make/atf/bl32/gicv2_main.o
 .text.gicv2_get_interrupt_group
                0x0000000000000000       0x30 /home/auto_jenkins_wlan5/workspace/sdk/auto-release-master/amebasmart_gcc_project/build/project_ap/asdk/make/atf/bl32/gicv2_main.o
 .text.gicv2_get_running_priority
                0x0000000000000000       0x28 /home/auto_jenkins_wlan5/workspace/sdk/auto-release-master/amebasmart_gcc_project/build/project_ap/asdk/make/atf/bl32/gicv2_main.o
 .text.gicv2_set_pe_target_mask
                0x0000000000000000       0x68 /home/auto_jenkins_wlan5/workspace/sdk/auto-release-master/amebasmart_gcc_project/build/project_ap/asdk/make/atf/bl32/gicv2_main.o
 .text.gicv2_get_interrupt_active
                0x0000000000000000       0x3c /home/auto_jenkins_wlan5/workspace/sdk/auto-release-master/amebasmart_gcc_project/build/project_ap/asdk/make/atf/bl32/gicv2_main.o
 .text.gicv2_enable_interrupt
                0x0000000000000000       0x44 /home/auto_jenkins_wlan5/workspace/sdk/auto-release-master/amebasmart_gcc_project/build/project_ap/asdk/make/atf/bl32/gicv2_main.o
 .text.gicv2_disable_interrupt
                0x0000000000000000       0x3c /home/auto_jenkins_wlan5/workspace/sdk/auto-release-master/amebasmart_gcc_project/build/project_ap/asdk/make/atf/bl32/gicv2_main.o
 .text.gicv2_set_interrupt_priority
                0x0000000000000000       0x40 /home/auto_jenkins_wlan5/workspace/sdk/auto-release-master/amebasmart_gcc_project/build/project_ap/asdk/make/atf/bl32/gicv2_main.o
 .text.gicv2_set_interrupt_type
                0x0000000000000000       0x6c /home/auto_jenkins_wlan5/workspace/sdk/auto-release-master/amebasmart_gcc_project/build/project_ap/asdk/make/atf/bl32/gicv2_main.o
 .text.gicv2_raise_sgi
                0x0000000000000000       0x6c /home/auto_jenkins_wlan5/workspace/sdk/auto-release-master/amebasmart_gcc_project/build/project_ap/asdk/make/atf/bl32/gicv2_main.o
 .text.gicv2_set_spi_routing
                0x0000000000000000       0x6c /home/auto_jenkins_wlan5/workspace/sdk/auto-release-master/amebasmart_gcc_project/build/project_ap/asdk/make/atf/bl32/gicv2_main.o
 .text.gicv2_clear_interrupt_pending
                0x0000000000000000       0x3c /home/auto_jenkins_wlan5/workspace/sdk/auto-release-master/amebasmart_gcc_project/build/project_ap/asdk/make/atf/bl32/gicv2_main.o
 .text.gicv2_set_interrupt_pending
                0x0000000000000000       0x40 /home/auto_jenkins_wlan5/workspace/sdk/auto-release-master/amebasmart_gcc_project/build/project_ap/asdk/make/atf/bl32/gicv2_main.o
 .text.gicv2_set_pmr
                0x0000000000000000       0x38 /home/auto_jenkins_wlan5/workspace/sdk/auto-release-master/amebasmart_gcc_project/build/project_ap/asdk/make/atf/bl32/gicv2_main.o
 .text.gicv2_interrupt_set_cfg
                0x0000000000000000       0x14 /home/auto_jenkins_wlan5/workspace/sdk/auto-release-master/amebasmart_gcc_project/build/project_ap/asdk/make/atf/bl32/gicv2_main.o
 .bss.gic_lock  0x0000000000000000        0x4 /home/auto_jenkins_wlan5/workspace/sdk/auto-release-master/amebasmart_gcc_project/build/project_ap/asdk/make/atf/bl32/gicv2_main.o
 .text          0x0000000000000000        0x0 /home/auto_jenkins_wlan5/workspace/sdk/auto-release-master/amebasmart_gcc_project/build/project_ap/asdk/make/atf/bl32/errata_report.o
 .data          0x0000000000000000        0x0 /home/auto_jenkins_wlan5/workspace/sdk/auto-release-master/amebasmart_gcc_project/build/project_ap/asdk/make/atf/bl32/errata_report.o
 .bss           0x0000000000000000        0x0 /home/auto_jenkins_wlan5/workspace/sdk/auto-release-master/amebasmart_gcc_project/build/project_ap/asdk/make/atf/bl32/errata_report.o
 .rodata.errata_print_msg.str1.1
                0x0000000000000000       0x7d /home/auto_jenkins_wlan5/workspace/sdk/auto-release-master/amebasmart_gcc_project/build/project_ap/asdk/make/atf/bl32/errata_report.o
 .text.errata_print_msg
                0x0000000000000000       0x60 /home/auto_jenkins_wlan5/workspace/sdk/auto-release-master/amebasmart_gcc_project/build/project_ap/asdk/make/atf/bl32/errata_report.o
 .text          0x0000000000000000        0x0 /home/auto_jenkins_wlan5/workspace/sdk/auto-release-master/amebasmart_gcc_project/build/project_ap/asdk/make/atf/bl32/context_mgmt.o
 .data          0x0000000000000000        0x0 /home/auto_jenkins_wlan5/workspace/sdk/auto-release-master/amebasmart_gcc_project/build/project_ap/asdk/make/atf/bl32/context_mgmt.o
 .bss           0x0000000000000000        0x0 /home/auto_jenkins_wlan5/workspace/sdk/auto-release-master/amebasmart_gcc_project/build/project_ap/asdk/make/atf/bl32/context_mgmt.o
 .text.cm_init  0x0000000000000000        0x2 /home/auto_jenkins_wlan5/workspace/sdk/auto-release-master/amebasmart_gcc_project/build/project_ap/asdk/make/atf/bl32/context_mgmt.o
 .text          0x0000000000000000        0x0 /home/auto_jenkins_wlan5/workspace/sdk/auto-release-master/amebasmart_gcc_project/build/project_ap/asdk/make/atf/bl32/cpu_data_array.o
 .data          0x0000000000000000        0x0 /home/auto_jenkins_wlan5/workspace/sdk/auto-release-master/amebasmart_gcc_project/build/project_ap/asdk/make/atf/bl32/cpu_data_array.o
 .bss           0x0000000000000000        0x0 /home/auto_jenkins_wlan5/workspace/sdk/auto-release-master/amebasmart_gcc_project/build/project_ap/asdk/make/atf/bl32/cpu_data_array.o
 .text          0x0000000000000000        0x0 /home/auto_jenkins_wlan5/workspace/sdk/auto-release-master/amebasmart_gcc_project/build/project_ap/asdk/make/atf/bl32/bakery_lock_coherent.o
 .data          0x0000000000000000        0x0 /home/auto_jenkins_wlan5/workspace/sdk/auto-release-master/amebasmart_gcc_project/build/project_ap/asdk/make/atf/bl32/bakery_lock_coherent.o
 .bss           0x0000000000000000        0x0 /home/auto_jenkins_wlan5/workspace/sdk/auto-release-master/amebasmart_gcc_project/build/project_ap/asdk/make/atf/bl32/bakery_lock_coherent.o
 .text          0x0000000000000000        0x0 /home/auto_jenkins_wlan5/workspace/sdk/auto-release-master/amebasmart_gcc_project/build/project_ap/asdk/make/atf/bl32/psci_common.o
 .data          0x0000000000000000        0x0 /home/auto_jenkins_wlan5/workspace/sdk/auto-release-master/amebasmart_gcc_project/build/project_ap/asdk/make/atf/bl32/psci_common.o
 .bss           0x0000000000000000        0x0 /home/auto_jenkins_wlan5/workspace/sdk/auto-release-master/amebasmart_gcc_project/build/project_ap/asdk/make/atf/bl32/psci_common.o
 .text.psci_register_spd_pm_hook
                0x0000000000000000       0x3c /home/auto_jenkins_wlan5/workspace/sdk/auto-release-master/amebasmart_gcc_project/build/project_ap/asdk/make/atf/bl32/psci_common.o
 .text.psci_secondaries_brought_up
                0x0000000000000000       0x3c /home/auto_jenkins_wlan5/workspace/sdk/auto-release-master/amebasmart_gcc_project/build/project_ap/asdk/make/atf/bl32/psci_common.o
 .text          0x0000000000000000        0x0 /home/auto_jenkins_wlan5/workspace/sdk/auto-release-master/amebasmart_gcc_project/build/project_ap/asdk/make/atf/bl32/psci_main.o
 .data          0x0000000000000000        0x0 /home/auto_jenkins_wlan5/workspace/sdk/auto-release-master/amebasmart_gcc_project/build/project_ap/asdk/make/atf/bl32/psci_main.o
 .bss           0x0000000000000000        0x0 /home/auto_jenkins_wlan5/workspace/sdk/auto-release-master/amebasmart_gcc_project/build/project_ap/asdk/make/atf/bl32/psci_main.o
 .text.psci_version
                0x0000000000000000        0x6 /home/auto_jenkins_wlan5/workspace/sdk/auto-release-master/amebasmart_gcc_project/build/project_ap/asdk/make/atf/bl32/psci_main.o
 .text          0x0000000000000000        0x0 /home/auto_jenkins_wlan5/workspace/sdk/auto-release-master/amebasmart_gcc_project/build/project_ap/asdk/make/atf/bl32/psci_mem_protect.o
 .data          0x0000000000000000        0x0 /home/auto_jenkins_wlan5/workspace/sdk/auto-release-master/amebasmart_gcc_project/build/project_ap/asdk/make/atf/bl32/psci_mem_protect.o
 .bss           0x0000000000000000        0x0 /home/auto_jenkins_wlan5/workspace/sdk/auto-release-master/amebasmart_gcc_project/build/project_ap/asdk/make/atf/bl32/psci_mem_protect.o
 .text          0x0000000000000000        0x0 /home/auto_jenkins_wlan5/workspace/sdk/auto-release-master/amebasmart_gcc_project/build/project_ap/asdk/make/atf/bl32/psci_off.o
 .data          0x0000000000000000        0x0 /home/auto_jenkins_wlan5/workspace/sdk/auto-release-master/amebasmart_gcc_project/build/project_ap/asdk/make/atf/bl32/psci_off.o
 .bss           0x0000000000000000        0x0 /home/auto_jenkins_wlan5/workspace/sdk/auto-release-master/amebasmart_gcc_project/build/project_ap/asdk/make/atf/bl32/psci_off.o
 .text          0x0000000000000000        0x0 /home/auto_jenkins_wlan5/workspace/sdk/auto-release-master/amebasmart_gcc_project/build/project_ap/asdk/make/atf/bl32/psci_on.o
 .data          0x0000000000000000        0x0 /home/auto_jenkins_wlan5/workspace/sdk/auto-release-master/amebasmart_gcc_project/build/project_ap/asdk/make/atf/bl32/psci_on.o
 .bss           0x0000000000000000        0x0 /home/auto_jenkins_wlan5/workspace/sdk/auto-release-master/amebasmart_gcc_project/build/project_ap/asdk/make/atf/bl32/psci_on.o
 .text          0x0000000000000000        0x0 /home/auto_jenkins_wlan5/workspace/sdk/auto-release-master/amebasmart_gcc_project/build/project_ap/asdk/make/atf/bl32/psci_setup.o
 .data          0x0000000000000000        0x0 /home/auto_jenkins_wlan5/workspace/sdk/auto-release-master/amebasmart_gcc_project/build/project_ap/asdk/make/atf/bl32/psci_setup.o
 .bss           0x0000000000000000        0x0 /home/auto_jenkins_wlan5/workspace/sdk/auto-release-master/amebasmart_gcc_project/build/project_ap/asdk/make/atf/bl32/psci_setup.o
 .text          0x0000000000000000        0x0 /home/auto_jenkins_wlan5/workspace/sdk/auto-release-master/amebasmart_gcc_project/build/project_ap/asdk/make/atf/bl32/psci_suspend.o
 .data          0x0000000000000000        0x0 /home/auto_jenkins_wlan5/workspace/sdk/auto-release-master/amebasmart_gcc_project/build/project_ap/asdk/make/atf/bl32/psci_suspend.o
 .bss           0x0000000000000000        0x0 /home/auto_jenkins_wlan5/workspace/sdk/auto-release-master/amebasmart_gcc_project/build/project_ap/asdk/make/atf/bl32/psci_suspend.o
 .text          0x0000000000000000        0x0 /home/auto_jenkins_wlan5/workspace/sdk/auto-release-master/amebasmart_gcc_project/build/project_ap/asdk/make/atf/bl32/psci_system_off.o
 .data          0x0000000000000000        0x0 /home/auto_jenkins_wlan5/workspace/sdk/auto-release-master/amebasmart_gcc_project/build/project_ap/asdk/make/atf/bl32/psci_system_off.o
 .bss           0x0000000000000000        0x0 /home/auto_jenkins_wlan5/workspace/sdk/auto-release-master/amebasmart_gcc_project/build/project_ap/asdk/make/atf/bl32/psci_system_off.o
 .text          0x0000000000000000        0x0 /home/auto_jenkins_wlan5/workspace/sdk/auto-release-master/amebasmart_gcc_project/build/project_ap/asdk/make/atf/bl32/plat_sp_min_common.o
 .data          0x0000000000000000        0x0 /home/auto_jenkins_wlan5/workspace/sdk/auto-release-master/amebasmart_gcc_project/build/project_ap/asdk/make/atf/bl32/plat_sp_min_common.o
 .bss           0x0000000000000000        0x0 /home/auto_jenkins_wlan5/workspace/sdk/auto-release-master/amebasmart_gcc_project/build/project_ap/asdk/make/atf/bl32/plat_sp_min_common.o
 .text          0x0000000000000000        0x0 /home/auto_jenkins_wlan5/workspace/sdk/auto-release-master/amebasmart_gcc_project/build/project_ap/asdk/make/atf/bl32/plat_gicv2.o
 .data          0x0000000000000000        0x0 /home/auto_jenkins_wlan5/workspace/sdk/auto-release-master/amebasmart_gcc_project/build/project_ap/asdk/make/atf/bl32/plat_gicv2.o
 .bss           0x0000000000000000        0x0 /home/auto_jenkins_wlan5/workspace/sdk/auto-release-master/amebasmart_gcc_project/build/project_ap/asdk/make/atf/bl32/plat_gicv2.o
 .text.plat_ic_get_pending_interrupt_id
                0x0000000000000000       0x14 /home/auto_jenkins_wlan5/workspace/sdk/auto-release-master/amebasmart_gcc_project/build/project_ap/asdk/make/atf/bl32/plat_gicv2.o
 .text.plat_ic_get_pending_interrupt_type
                0x0000000000000000       0x22 /home/auto_jenkins_wlan5/workspace/sdk/auto-release-master/amebasmart_gcc_project/build/project_ap/asdk/make/atf/bl32/plat_gicv2.o
 .text.plat_ic_acknowledge_interrupt
                0x0000000000000000        0x4 /home/auto_jenkins_wlan5/workspace/sdk/auto-release-master/amebasmart_gcc_project/build/project_ap/asdk/make/atf/bl32/plat_gicv2.o
 .text.plat_ic_get_interrupt_type
                0x0000000000000000       0x12 /home/auto_jenkins_wlan5/workspace/sdk/auto-release-master/amebasmart_gcc_project/build/project_ap/asdk/make/atf/bl32/plat_gicv2.o
 .text.plat_ic_end_of_interrupt
                0x0000000000000000        0x4 /home/auto_jenkins_wlan5/workspace/sdk/auto-release-master/amebasmart_gcc_project/build/project_ap/asdk/make/atf/bl32/plat_gicv2.o
 .rodata.plat_interrupt_type_to_line.str1.1
                0x0000000000000000       0x19 /home/auto_jenkins_wlan5/workspace/sdk/auto-release-master/amebasmart_gcc_project/build/project_ap/asdk/make/atf/bl32/plat_gicv2.o
 .text.plat_interrupt_type_to_line
                0x0000000000000000       0x2c /home/auto_jenkins_wlan5/workspace/sdk/auto-release-master/amebasmart_gcc_project/build/project_ap/asdk/make/atf/bl32/plat_gicv2.o
 .text.plat_ic_get_running_priority
                0x0000000000000000        0x4 /home/auto_jenkins_wlan5/workspace/sdk/auto-release-master/amebasmart_gcc_project/build/project_ap/asdk/make/atf/bl32/plat_gicv2.o
 .text.plat_ic_is_spi
                0x0000000000000000       0x10 /home/auto_jenkins_wlan5/workspace/sdk/auto-release-master/amebasmart_gcc_project/build/project_ap/asdk/make/atf/bl32/plat_gicv2.o
 .text.plat_ic_is_ppi
                0x0000000000000000        0xe /home/auto_jenkins_wlan5/workspace/sdk/auto-release-master/amebasmart_gcc_project/build/project_ap/asdk/make/atf/bl32/plat_gicv2.o
 .text.plat_ic_is_sgi
                0x0000000000000000        0xc /home/auto_jenkins_wlan5/workspace/sdk/auto-release-master/amebasmart_gcc_project/build/project_ap/asdk/make/atf/bl32/plat_gicv2.o
 .text.plat_ic_get_interrupt_active
                0x0000000000000000        0x4 /home/auto_jenkins_wlan5/workspace/sdk/auto-release-master/amebasmart_gcc_project/build/project_ap/asdk/make/atf/bl32/plat_gicv2.o
 .text.plat_ic_enable_interrupt
                0x0000000000000000        0x4 /home/auto_jenkins_wlan5/workspace/sdk/auto-release-master/amebasmart_gcc_project/build/project_ap/asdk/make/atf/bl32/plat_gicv2.o
 .text.plat_ic_disable_interrupt
                0x0000000000000000        0x4 /home/auto_jenkins_wlan5/workspace/sdk/auto-release-master/amebasmart_gcc_project/build/project_ap/asdk/make/atf/bl32/plat_gicv2.o
 .text.plat_ic_set_interrupt_priority
                0x0000000000000000        0x4 /home/auto_jenkins_wlan5/workspace/sdk/auto-release-master/amebasmart_gcc_project/build/project_ap/asdk/make/atf/bl32/plat_gicv2.o
 .text.plat_ic_has_interrupt_type
                0x0000000000000000        0xe /home/auto_jenkins_wlan5/workspace/sdk/auto-release-master/amebasmart_gcc_project/build/project_ap/asdk/make/atf/bl32/plat_gicv2.o
 .text.plat_ic_set_interrupt_type
                0x0000000000000000       0x20 /home/auto_jenkins_wlan5/workspace/sdk/auto-release-master/amebasmart_gcc_project/build/project_ap/asdk/make/atf/bl32/plat_gicv2.o
 .text.plat_ic_raise_el3_sgi
                0x0000000000000000       0x10 /home/auto_jenkins_wlan5/workspace/sdk/auto-release-master/amebasmart_gcc_project/build/project_ap/asdk/make/atf/bl32/plat_gicv2.o
 .text.plat_ic_set_spi_routing
                0x0000000000000000       0x38 /home/auto_jenkins_wlan5/workspace/sdk/auto-release-master/amebasmart_gcc_project/build/project_ap/asdk/make/atf/bl32/plat_gicv2.o
 .text.plat_ic_set_interrupt_pending
                0x0000000000000000        0x4 /home/auto_jenkins_wlan5/workspace/sdk/auto-release-master/amebasmart_gcc_project/build/project_ap/asdk/make/atf/bl32/plat_gicv2.o
 .text.plat_ic_clear_interrupt_pending
                0x0000000000000000        0x4 /home/auto_jenkins_wlan5/workspace/sdk/auto-release-master/amebasmart_gcc_project/build/project_ap/asdk/make/atf/bl32/plat_gicv2.o
 .text.plat_ic_set_priority_mask
                0x0000000000000000        0x4 /home/auto_jenkins_wlan5/workspace/sdk/auto-release-master/amebasmart_gcc_project/build/project_ap/asdk/make/atf/bl32/plat_gicv2.o
 .text.plat_ic_get_interrupt_id
                0x0000000000000000       0x12 /home/auto_jenkins_wlan5/workspace/sdk/auto-release-master/amebasmart_gcc_project/build/project_ap/asdk/make/atf/bl32/plat_gicv2.o
 .debug_info    0x0000000000000000      0x7c0 /home/auto_jenkins_wlan5/workspace/sdk/auto-release-master/amebasmart_gcc_project/build/project_ap/asdk/make/atf/bl32/plat_gicv2.o
 .debug_abbrev  0x0000000000000000      0x1c1 /home/auto_jenkins_wlan5/workspace/sdk/auto-release-master/amebasmart_gcc_project/build/project_ap/asdk/make/atf/bl32/plat_gicv2.o
 .debug_loc     0x0000000000000000      0x5b5 /home/auto_jenkins_wlan5/workspace/sdk/auto-release-master/amebasmart_gcc_project/build/project_ap/asdk/make/atf/bl32/plat_gicv2.o
 .debug_aranges
                0x0000000000000000       0xc8 /home/auto_jenkins_wlan5/workspace/sdk/auto-release-master/amebasmart_gcc_project/build/project_ap/asdk/make/atf/bl32/plat_gicv2.o
 .debug_ranges  0x0000000000000000       0xb8 /home/auto_jenkins_wlan5/workspace/sdk/auto-release-master/amebasmart_gcc_project/build/project_ap/asdk/make/atf/bl32/plat_gicv2.o
 .debug_line    0x0000000000000000      0x3c0 /home/auto_jenkins_wlan5/workspace/sdk/auto-release-master/amebasmart_gcc_project/build/project_ap/asdk/make/atf/bl32/plat_gicv2.o
 .debug_str     0x0000000000000000      0x6d8 /home/auto_jenkins_wlan5/workspace/sdk/auto-release-master/amebasmart_gcc_project/build/project_ap/asdk/make/atf/bl32/plat_gicv2.o
 .comment       0x0000000000000000       0x37 /home/auto_jenkins_wlan5/workspace/sdk/auto-release-master/amebasmart_gcc_project/build/project_ap/asdk/make/atf/bl32/plat_gicv2.o
 .debug_frame   0x0000000000000000      0x1b0 /home/auto_jenkins_wlan5/workspace/sdk/auto-release-master/amebasmart_gcc_project/build/project_ap/asdk/make/atf/bl32/plat_gicv2.o
 .ARM.attributes
                0x0000000000000000       0x35 /home/auto_jenkins_wlan5/workspace/sdk/auto-release-master/amebasmart_gcc_project/build/project_ap/asdk/make/atf/bl32/plat_gicv2.o
 .text          0x0000000000000000        0x0 /home/auto_jenkins_wlan5/workspace/sdk/auto-release-master/amebasmart_gcc_project/build/project_ap/asdk/make/atf/bl32/plat_psci_common.o
 .data          0x0000000000000000        0x0 /home/auto_jenkins_wlan5/workspace/sdk/auto-release-master/amebasmart_gcc_project/build/project_ap/asdk/make/atf/bl32/plat_psci_common.o
 .bss           0x0000000000000000        0x0 /home/auto_jenkins_wlan5/workspace/sdk/auto-release-master/amebasmart_gcc_project/build/project_ap/asdk/make/atf/bl32/plat_psci_common.o
 .text          0x0000000000000000        0x0 /home/auto_jenkins_wlan5/workspace/sdk/auto-release-master/amebasmart_gcc_project/build/project_ap/asdk/make/atf/bl32/bsec_svc.o
 .data          0x0000000000000000        0x0 /home/auto_jenkins_wlan5/workspace/sdk/auto-release-master/amebasmart_gcc_project/build/project_ap/asdk/make/atf/bl32/bsec_svc.o
 .bss           0x0000000000000000        0x0 /home/auto_jenkins_wlan5/workspace/sdk/auto-release-master/amebasmart_gcc_project/build/project_ap/asdk/make/atf/bl32/bsec_svc.o
 .text          0x0000000000000000        0x0 /home/auto_jenkins_wlan5/workspace/sdk/auto-release-master/amebasmart_gcc_project/build/project_ap/asdk/make/atf/bl32/rtk_svc_setup.o
 .data          0x0000000000000000        0x0 /home/auto_jenkins_wlan5/workspace/sdk/auto-release-master/amebasmart_gcc_project/build/project_ap/asdk/make/atf/bl32/rtk_svc_setup.o
 .bss           0x0000000000000000        0x0 /home/auto_jenkins_wlan5/workspace/sdk/auto-release-master/amebasmart_gcc_project/build/project_ap/asdk/make/atf/bl32/rtk_svc_setup.o
 .text          0x0000000000000000        0x0 /home/auto_jenkins_wlan5/workspace/sdk/auto-release-master/amebasmart_gcc_project/build/project_ap/asdk/make/atf/bl32/sheipa_gic.o
 .data          0x0000000000000000        0x0 /home/auto_jenkins_wlan5/workspace/sdk/auto-release-master/amebasmart_gcc_project/build/project_ap/asdk/make/atf/bl32/sheipa_gic.o
 .bss           0x0000000000000000        0x0 /home/auto_jenkins_wlan5/workspace/sdk/auto-release-master/amebasmart_gcc_project/build/project_ap/asdk/make/atf/bl32/sheipa_gic.o
 .text.plat_sheipa_gic_cpuif_disable
                0x0000000000000000        0x4 /home/auto_jenkins_wlan5/workspace/sdk/auto-release-master/amebasmart_gcc_project/build/project_ap/asdk/make/atf/bl32/sheipa_gic.o
 .text          0x0000000000000000        0x0 /home/auto_jenkins_wlan5/workspace/sdk/auto-release-master/amebasmart_gcc_project/build/project_ap/asdk/make/atf/bl32/sp_min_setup.o
 .data          0x0000000000000000        0x0 /home/auto_jenkins_wlan5/workspace/sdk/auto-release-master/amebasmart_gcc_project/build/project_ap/asdk/make/atf/bl32/sp_min_setup.o
 .bss           0x0000000000000000        0x0 /home/auto_jenkins_wlan5/workspace/sdk/auto-release-master/amebasmart_gcc_project/build/project_ap/asdk/make/atf/bl32/sp_min_setup.o
 .text.sp_min_plat_fiq_handler
                0x0000000000000000        0x2 /home/auto_jenkins_wlan5/workspace/sdk/auto-release-master/amebasmart_gcc_project/build/project_ap/asdk/make/atf/bl32/sp_min_setup.o
 .text          0x0000000000000000        0x0 /home/auto_jenkins_wlan5/workspace/sdk/auto-release-master/amebasmart_gcc_project/build/project_ap/asdk/make/atf/bl32/topology.o
 .data          0x0000000000000000        0x0 /home/auto_jenkins_wlan5/workspace/sdk/auto-release-master/amebasmart_gcc_project/build/project_ap/asdk/make/atf/bl32/topology.o
 .bss           0x0000000000000000        0x0 /home/auto_jenkins_wlan5/workspace/sdk/auto-release-master/amebasmart_gcc_project/build/project_ap/asdk/make/atf/bl32/topology.o
 .text          0x0000000000000000        0x0 /home/auto_jenkins_wlan5/workspace/sdk/auto-release-master/amebasmart_gcc_project/build/project_ap/asdk/make/atf/bl32/std_svc_setup.o
 .data          0x0000000000000000        0x0 /home/auto_jenkins_wlan5/workspace/sdk/auto-release-master/amebasmart_gcc_project/build/project_ap/asdk/make/atf/bl32/std_svc_setup.o
 .bss           0x0000000000000000        0x0 /home/auto_jenkins_wlan5/workspace/sdk/auto-release-master/amebasmart_gcc_project/build/project_ap/asdk/make/atf/bl32/std_svc_setup.o
 .text          0x0000000000000000        0x0 /home/auto_jenkins_wlan5/workspace/sdk/auto-release-master/amebasmart_gcc_project/build/project_ap/asdk/make/atf/bl32/bl_common.o
 .data          0x0000000000000000        0x0 /home/auto_jenkins_wlan5/workspace/sdk/auto-release-master/amebasmart_gcc_project/build/project_ap/asdk/make/atf/bl32/bl_common.o
 .bss           0x0000000000000000        0x0 /home/auto_jenkins_wlan5/workspace/sdk/auto-release-master/amebasmart_gcc_project/build/project_ap/asdk/make/atf/bl32/bl_common.o
 .text.page_align
                0x0000000000000000       0x18 /home/auto_jenkins_wlan5/workspace/sdk/auto-release-master/amebasmart_gcc_project/build/project_ap/asdk/make/atf/bl32/bl_common.o
 .rodata.load_auth_image.str1.1
                0x0000000000000000      0x12d /home/auto_jenkins_wlan5/workspace/sdk/auto-release-master/amebasmart_gcc_project/build/project_ap/asdk/make/atf/bl32/bl_common.o
 .text.load_auth_image
                0x0000000000000000      0x10c /home/auto_jenkins_wlan5/workspace/sdk/auto-release-master/amebasmart_gcc_project/build/project_ap/asdk/make/atf/bl32/bl_common.o
 .rodata.print_entry_point_info.str1.1
                0x0000000000000000       0x2c /home/auto_jenkins_wlan5/workspace/sdk/auto-release-master/amebasmart_gcc_project/build/project_ap/asdk/make/atf/bl32/bl_common.o
 .text.print_entry_point_info
                0x0000000000000000       0x20 /home/auto_jenkins_wlan5/workspace/sdk/auto-release-master/amebasmart_gcc_project/build/project_ap/asdk/make/atf/bl32/bl_common.o
 .debug_info    0x0000000000000000      0x68e /home/auto_jenkins_wlan5/workspace/sdk/auto-release-master/amebasmart_gcc_project/build/project_ap/asdk/make/atf/bl32/bl_common.o
 .debug_abbrev  0x0000000000000000      0x1f0 /home/auto_jenkins_wlan5/workspace/sdk/auto-release-master/amebasmart_gcc_project/build/project_ap/asdk/make/atf/bl32/bl_common.o
 .debug_loc     0x0000000000000000      0x2ec /home/auto_jenkins_wlan5/workspace/sdk/auto-release-master/amebasmart_gcc_project/build/project_ap/asdk/make/atf/bl32/bl_common.o
 .debug_aranges
                0x0000000000000000       0x30 /home/auto_jenkins_wlan5/workspace/sdk/auto-release-master/amebasmart_gcc_project/build/project_ap/asdk/make/atf/bl32/bl_common.o
 .debug_ranges  0x0000000000000000       0xb8 /home/auto_jenkins_wlan5/workspace/sdk/auto-release-master/amebasmart_gcc_project/build/project_ap/asdk/make/atf/bl32/bl_common.o
 .debug_line    0x0000000000000000      0x36d /home/auto_jenkins_wlan5/workspace/sdk/auto-release-master/amebasmart_gcc_project/build/project_ap/asdk/make/atf/bl32/bl_common.o
 .debug_str     0x0000000000000000      0x497 /home/auto_jenkins_wlan5/workspace/sdk/auto-release-master/amebasmart_gcc_project/build/project_ap/asdk/make/atf/bl32/bl_common.o
 .comment       0x0000000000000000       0x37 /home/auto_jenkins_wlan5/workspace/sdk/auto-release-master/amebasmart_gcc_project/build/project_ap/asdk/make/atf/bl32/bl_common.o
 .debug_frame   0x0000000000000000       0x68 /home/auto_jenkins_wlan5/workspace/sdk/auto-release-master/amebasmart_gcc_project/build/project_ap/asdk/make/atf/bl32/bl_common.o
 .ARM.attributes
                0x0000000000000000       0x35 /home/auto_jenkins_wlan5/workspace/sdk/auto-release-master/amebasmart_gcc_project/build/project_ap/asdk/make/atf/bl32/bl_common.o
 .text          0x0000000000000000        0x0 /home/auto_jenkins_wlan5/workspace/sdk/auto-release-master/amebasmart_gcc_project/build/project_ap/asdk/make/atf/bl32/tf_log.o
 .data          0x0000000000000000        0x0 /home/auto_jenkins_wlan5/workspace/sdk/auto-release-master/amebasmart_gcc_project/build/project_ap/asdk/make/atf/bl32/tf_log.o
 .bss           0x0000000000000000        0x0 /home/auto_jenkins_wlan5/workspace/sdk/auto-release-master/amebasmart_gcc_project/build/project_ap/asdk/make/atf/bl32/tf_log.o
 .text.tf_log_set_max_level
                0x0000000000000000       0x30 /home/auto_jenkins_wlan5/workspace/sdk/auto-release-master/amebasmart_gcc_project/build/project_ap/asdk/make/atf/bl32/tf_log.o
 .text          0x0000000000000000        0x0 /home/auto_jenkins_wlan5/workspace/sdk/auto-release-master/amebasmart_gcc_project/build/project_ap/asdk/make/atf/bl32/multi_console.o
 .data          0x0000000000000000        0x0 /home/auto_jenkins_wlan5/workspace/sdk/auto-release-master/amebasmart_gcc_project/build/project_ap/asdk/make/atf/bl32/multi_console.o
 .bss           0x0000000000000000        0x0 /home/auto_jenkins_wlan5/workspace/sdk/auto-release-master/amebasmart_gcc_project/build/project_ap/asdk/make/atf/bl32/multi_console.o
 .text.console_unregister
                0x0000000000000000       0x2c /home/auto_jenkins_wlan5/workspace/sdk/auto-release-master/amebasmart_gcc_project/build/project_ap/asdk/make/atf/bl32/multi_console.o
 .text.console_getc
                0x0000000000000000       0x3c /home/auto_jenkins_wlan5/workspace/sdk/auto-release-master/amebasmart_gcc_project/build/project_ap/asdk/make/atf/bl32/multi_console.o
 .text          0x0000000000000000        0x0 /home/auto_jenkins_wlan5/workspace/sdk/auto-release-master/amebasmart_gcc_project/build/project_ap/asdk/make/atf/bl32/plat_bl_common.o
 .data          0x0000000000000000        0x0 /home/auto_jenkins_wlan5/workspace/sdk/auto-release-master/amebasmart_gcc_project/build/project_ap/asdk/make/atf/bl32/plat_bl_common.o
 .bss           0x0000000000000000        0x0 /home/auto_jenkins_wlan5/workspace/sdk/auto-release-master/amebasmart_gcc_project/build/project_ap/asdk/make/atf/bl32/plat_bl_common.o
 .text.plat_get_soc_version
                0x0000000000000000        0x6 /home/auto_jenkins_wlan5/workspace/sdk/auto-release-master/amebasmart_gcc_project/build/project_ap/asdk/make/atf/bl32/plat_bl_common.o
 .text.plat_get_soc_revision
                0x0000000000000000        0x6 /home/auto_jenkins_wlan5/workspace/sdk/auto-release-master/amebasmart_gcc_project/build/project_ap/asdk/make/atf/bl32/plat_bl_common.o
 .text.bl2_el3_plat_prepare_exit
                0x0000000000000000        0x2 /home/auto_jenkins_wlan5/workspace/sdk/auto-release-master/amebasmart_gcc_project/build/project_ap/asdk/make/atf/bl32/plat_bl_common.o
 .text.plat_error_handler
                0x0000000000000000        0x4 /home/auto_jenkins_wlan5/workspace/sdk/auto-release-master/amebasmart_gcc_project/build/project_ap/asdk/make/atf/bl32/plat_bl_common.o
 .text.bl2_plat_preload_setup
                0x0000000000000000        0x2 /home/auto_jenkins_wlan5/workspace/sdk/auto-release-master/amebasmart_gcc_project/build/project_ap/asdk/make/atf/bl32/plat_bl_common.o
 .text.bl2_plat_handle_pre_image_load
                0x0000000000000000        0x4 /home/auto_jenkins_wlan5/workspace/sdk/auto-release-master/amebasmart_gcc_project/build/project_ap/asdk/make/atf/bl32/plat_bl_common.o
 .text.bl2_plat_handle_post_image_load
                0x0000000000000000        0x4 /home/auto_jenkins_wlan5/workspace/sdk/auto-release-master/amebasmart_gcc_project/build/project_ap/asdk/make/atf/bl32/plat_bl_common.o
 .text.plat_try_next_boot_source
                0x0000000000000000        0x4 /home/auto_jenkins_wlan5/workspace/sdk/auto-release-master/amebasmart_gcc_project/build/project_ap/asdk/make/atf/bl32/plat_bl_common.o
 .rodata.plat_get_enc_key_info.str1.1
                0x0000000000000000       0x3e /home/auto_jenkins_wlan5/workspace/sdk/auto-release-master/amebasmart_gcc_project/build/project_ap/asdk/make/atf/bl32/plat_bl_common.o
 .text.plat_get_enc_key_info
                0x0000000000000000       0x40 /home/auto_jenkins_wlan5/workspace/sdk/auto-release-master/amebasmart_gcc_project/build/project_ap/asdk/make/atf/bl32/plat_bl_common.o
 .text.setup_page_tables
                0x0000000000000000       0x16 /home/auto_jenkins_wlan5/workspace/sdk/auto-release-master/amebasmart_gcc_project/build/project_ap/asdk/make/atf/bl32/plat_bl_common.o
 .debug_info    0x0000000000000000      0x46e /home/auto_jenkins_wlan5/workspace/sdk/auto-release-master/amebasmart_gcc_project/build/project_ap/asdk/make/atf/bl32/plat_bl_common.o
 .debug_abbrev  0x0000000000000000      0x2a4 /home/auto_jenkins_wlan5/workspace/sdk/auto-release-master/amebasmart_gcc_project/build/project_ap/asdk/make/atf/bl32/plat_bl_common.o
 .debug_loc     0x0000000000000000      0x194 /home/auto_jenkins_wlan5/workspace/sdk/auto-release-master/amebasmart_gcc_project/build/project_ap/asdk/make/atf/bl32/plat_bl_common.o
 .debug_aranges
                0x0000000000000000       0x50 /home/auto_jenkins_wlan5/workspace/sdk/auto-release-master/amebasmart_gcc_project/build/project_ap/asdk/make/atf/bl32/plat_bl_common.o
 .debug_ranges  0x0000000000000000       0x40 /home/auto_jenkins_wlan5/workspace/sdk/auto-release-master/amebasmart_gcc_project/build/project_ap/asdk/make/atf/bl32/plat_bl_common.o
 .debug_line    0x0000000000000000      0x250 /home/auto_jenkins_wlan5/workspace/sdk/auto-release-master/amebasmart_gcc_project/build/project_ap/asdk/make/atf/bl32/plat_bl_common.o
 .debug_str     0x0000000000000000      0x472 /home/auto_jenkins_wlan5/workspace/sdk/auto-release-master/amebasmart_gcc_project/build/project_ap/asdk/make/atf/bl32/plat_bl_common.o
 .comment       0x0000000000000000       0x37 /home/auto_jenkins_wlan5/workspace/sdk/auto-release-master/amebasmart_gcc_project/build/project_ap/asdk/make/atf/bl32/plat_bl_common.o
 .debug_frame   0x0000000000000000       0xd0 /home/auto_jenkins_wlan5/workspace/sdk/auto-release-master/amebasmart_gcc_project/build/project_ap/asdk/make/atf/bl32/plat_bl_common.o
 .ARM.attributes
                0x0000000000000000       0x35 /home/auto_jenkins_wlan5/workspace/sdk/auto-release-master/amebasmart_gcc_project/build/project_ap/asdk/make/atf/bl32/plat_bl_common.o
 .text          0x0000000000000000        0x0 /home/auto_jenkins_wlan5/workspace/sdk/auto-release-master/amebasmart_gcc_project/build/project_ap/asdk/make/atf/bl32/plat_log_common.o
 .data          0x0000000000000000        0x0 /home/auto_jenkins_wlan5/workspace/sdk/auto-release-master/amebasmart_gcc_project/build/project_ap/asdk/make/atf/bl32/plat_log_common.o
 .bss           0x0000000000000000        0x0 /home/auto_jenkins_wlan5/workspace/sdk/auto-release-master/amebasmart_gcc_project/build/project_ap/asdk/make/atf/bl32/plat_log_common.o
 .text          0x0000000000000000        0x0 /home/auto_jenkins_wlan5/workspace/sdk/auto-release-master/amebasmart_gcc_project/build/project_ap/asdk/make/atf/bl32/plat_common.o
 .data          0x0000000000000000        0x0 /home/auto_jenkins_wlan5/workspace/sdk/auto-release-master/amebasmart_gcc_project/build/project_ap/asdk/make/atf/bl32/plat_common.o
 .bss           0x0000000000000000        0x0 /home/auto_jenkins_wlan5/workspace/sdk/auto-release-master/amebasmart_gcc_project/build/project_ap/asdk/make/atf/bl32/plat_common.o
 .text          0x0000000000000000        0x0 /home/auto_jenkins_wlan5/workspace/sdk/auto-release-master/amebasmart_gcc_project/build/project_ap/asdk/make/atf/bl32/popcountdi2.o
 .data          0x0000000000000000        0x0 /home/auto_jenkins_wlan5/workspace/sdk/auto-release-master/amebasmart_gcc_project/build/project_ap/asdk/make/atf/bl32/popcountdi2.o
 .bss           0x0000000000000000        0x0 /home/auto_jenkins_wlan5/workspace/sdk/auto-release-master/amebasmart_gcc_project/build/project_ap/asdk/make/atf/bl32/popcountdi2.o
 .text.__popcountdi2
                0x0000000000000000       0x52 /home/auto_jenkins_wlan5/workspace/sdk/auto-release-master/amebasmart_gcc_project/build/project_ap/asdk/make/atf/bl32/popcountdi2.o
 .debug_info    0x0000000000000000      0x114 /home/auto_jenkins_wlan5/workspace/sdk/auto-release-master/amebasmart_gcc_project/build/project_ap/asdk/make/atf/bl32/popcountdi2.o
 .debug_abbrev  0x0000000000000000       0x7d /home/auto_jenkins_wlan5/workspace/sdk/auto-release-master/amebasmart_gcc_project/build/project_ap/asdk/make/atf/bl32/popcountdi2.o
 .debug_loc     0x0000000000000000       0xc9 /home/auto_jenkins_wlan5/workspace/sdk/auto-release-master/amebasmart_gcc_project/build/project_ap/asdk/make/atf/bl32/popcountdi2.o
 .debug_aranges
                0x0000000000000000       0x20 /home/auto_jenkins_wlan5/workspace/sdk/auto-release-master/amebasmart_gcc_project/build/project_ap/asdk/make/atf/bl32/popcountdi2.o
 .debug_ranges  0x0000000000000000       0x10 /home/auto_jenkins_wlan5/workspace/sdk/auto-release-master/amebasmart_gcc_project/build/project_ap/asdk/make/atf/bl32/popcountdi2.o
 .debug_line    0x0000000000000000       0xca /home/auto_jenkins_wlan5/workspace/sdk/auto-release-master/amebasmart_gcc_project/build/project_ap/asdk/make/atf/bl32/popcountdi2.o
 .debug_str     0x0000000000000000      0x25e /home/auto_jenkins_wlan5/workspace/sdk/auto-release-master/amebasmart_gcc_project/build/project_ap/asdk/make/atf/bl32/popcountdi2.o
 .comment       0x0000000000000000       0x37 /home/auto_jenkins_wlan5/workspace/sdk/auto-release-master/amebasmart_gcc_project/build/project_ap/asdk/make/atf/bl32/popcountdi2.o
 .debug_frame   0x0000000000000000       0x20 /home/auto_jenkins_wlan5/workspace/sdk/auto-release-master/amebasmart_gcc_project/build/project_ap/asdk/make/atf/bl32/popcountdi2.o
 .ARM.attributes
                0x0000000000000000       0x35 /home/auto_jenkins_wlan5/workspace/sdk/auto-release-master/amebasmart_gcc_project/build/project_ap/asdk/make/atf/bl32/popcountdi2.o
 .text          0x0000000000000000        0x0 /home/auto_jenkins_wlan5/workspace/sdk/auto-release-master/amebasmart_gcc_project/build/project_ap/asdk/make/atf/bl32/popcountsi2.o
 .data          0x0000000000000000        0x0 /home/auto_jenkins_wlan5/workspace/sdk/auto-release-master/amebasmart_gcc_project/build/project_ap/asdk/make/atf/bl32/popcountsi2.o
 .bss           0x0000000000000000        0x0 /home/auto_jenkins_wlan5/workspace/sdk/auto-release-master/amebasmart_gcc_project/build/project_ap/asdk/make/atf/bl32/popcountsi2.o
 .text.__popcountsi2
                0x0000000000000000       0x2a /home/auto_jenkins_wlan5/workspace/sdk/auto-release-master/amebasmart_gcc_project/build/project_ap/asdk/make/atf/bl32/popcountsi2.o
 .debug_info    0x0000000000000000       0xe9 /home/auto_jenkins_wlan5/workspace/sdk/auto-release-master/amebasmart_gcc_project/build/project_ap/asdk/make/atf/bl32/popcountsi2.o
 .debug_abbrev  0x0000000000000000       0x7d /home/auto_jenkins_wlan5/workspace/sdk/auto-release-master/amebasmart_gcc_project/build/project_ap/asdk/make/atf/bl32/popcountsi2.o
 .debug_loc     0x0000000000000000      0x12e /home/auto_jenkins_wlan5/workspace/sdk/auto-release-master/amebasmart_gcc_project/build/project_ap/asdk/make/atf/bl32/popcountsi2.o
 .debug_aranges
                0x0000000000000000       0x20 /home/auto_jenkins_wlan5/workspace/sdk/auto-release-master/amebasmart_gcc_project/build/project_ap/asdk/make/atf/bl32/popcountsi2.o
 .debug_ranges  0x0000000000000000       0x10 /home/auto_jenkins_wlan5/workspace/sdk/auto-release-master/amebasmart_gcc_project/build/project_ap/asdk/make/atf/bl32/popcountsi2.o
 .debug_line    0x0000000000000000       0xa4 /home/auto_jenkins_wlan5/workspace/sdk/auto-release-master/amebasmart_gcc_project/build/project_ap/asdk/make/atf/bl32/popcountsi2.o
 .debug_str     0x0000000000000000      0x250 /home/auto_jenkins_wlan5/workspace/sdk/auto-release-master/amebasmart_gcc_project/build/project_ap/asdk/make/atf/bl32/popcountsi2.o
 .comment       0x0000000000000000       0x37 /home/auto_jenkins_wlan5/workspace/sdk/auto-release-master/amebasmart_gcc_project/build/project_ap/asdk/make/atf/bl32/popcountsi2.o
 .debug_frame   0x0000000000000000       0x20 /home/auto_jenkins_wlan5/workspace/sdk/auto-release-master/amebasmart_gcc_project/build/project_ap/asdk/make/atf/bl32/popcountsi2.o
 .ARM.attributes
                0x0000000000000000       0x35 /home/auto_jenkins_wlan5/workspace/sdk/auto-release-master/amebasmart_gcc_project/build/project_ap/asdk/make/atf/bl32/popcountsi2.o
 .text          0x0000000000000000        0x0 /home/auto_jenkins_wlan5/workspace/sdk/auto-release-master/amebasmart_gcc_project/build/project_ap/asdk/make/atf/bl32/ctzdi2.o
 .data          0x0000000000000000        0x0 /home/auto_jenkins_wlan5/workspace/sdk/auto-release-master/amebasmart_gcc_project/build/project_ap/asdk/make/atf/bl32/ctzdi2.o
 .bss           0x0000000000000000        0x0 /home/auto_jenkins_wlan5/workspace/sdk/auto-release-master/amebasmart_gcc_project/build/project_ap/asdk/make/atf/bl32/ctzdi2.o
 .text          0x0000000000000000        0x0 /home/auto_jenkins_wlan5/workspace/sdk/auto-release-master/amebasmart_gcc_project/build/project_ap/asdk/make/atf/bl32/divdi3.o
 .data          0x0000000000000000        0x0 /home/auto_jenkins_wlan5/workspace/sdk/auto-release-master/amebasmart_gcc_project/build/project_ap/asdk/make/atf/bl32/divdi3.o
 .bss           0x0000000000000000        0x0 /home/auto_jenkins_wlan5/workspace/sdk/auto-release-master/amebasmart_gcc_project/build/project_ap/asdk/make/atf/bl32/divdi3.o
 .text.__divdi3
                0x0000000000000000       0x3e /home/auto_jenkins_wlan5/workspace/sdk/auto-release-master/amebasmart_gcc_project/build/project_ap/asdk/make/atf/bl32/divdi3.o
 .debug_info    0x0000000000000000      0x144 /home/auto_jenkins_wlan5/workspace/sdk/auto-release-master/amebasmart_gcc_project/build/project_ap/asdk/make/atf/bl32/divdi3.o
 .debug_abbrev  0x0000000000000000       0xc1 /home/auto_jenkins_wlan5/workspace/sdk/auto-release-master/amebasmart_gcc_project/build/project_ap/asdk/make/atf/bl32/divdi3.o
 .debug_loc     0x0000000000000000       0x9e /home/auto_jenkins_wlan5/workspace/sdk/auto-release-master/amebasmart_gcc_project/build/project_ap/asdk/make/atf/bl32/divdi3.o
 .debug_aranges
                0x0000000000000000       0x20 /home/auto_jenkins_wlan5/workspace/sdk/auto-release-master/amebasmart_gcc_project/build/project_ap/asdk/make/atf/bl32/divdi3.o
 .debug_ranges  0x0000000000000000       0x10 /home/auto_jenkins_wlan5/workspace/sdk/auto-release-master/amebasmart_gcc_project/build/project_ap/asdk/make/atf/bl32/divdi3.o
 .debug_line    0x0000000000000000       0xa9 /home/auto_jenkins_wlan5/workspace/sdk/auto-release-master/amebasmart_gcc_project/build/project_ap/asdk/make/atf/bl32/divdi3.o
 .debug_str     0x0000000000000000      0x264 /home/auto_jenkins_wlan5/workspace/sdk/auto-release-master/amebasmart_gcc_project/build/project_ap/asdk/make/atf/bl32/divdi3.o
 .comment       0x0000000000000000       0x37 /home/auto_jenkins_wlan5/workspace/sdk/auto-release-master/amebasmart_gcc_project/build/project_ap/asdk/make/atf/bl32/divdi3.o
 .debug_frame   0x0000000000000000       0x30 /home/auto_jenkins_wlan5/workspace/sdk/auto-release-master/amebasmart_gcc_project/build/project_ap/asdk/make/atf/bl32/divdi3.o
 .ARM.attributes
                0x0000000000000000       0x35 /home/auto_jenkins_wlan5/workspace/sdk/auto-release-master/amebasmart_gcc_project/build/project_ap/asdk/make/atf/bl32/divdi3.o
 .text          0x0000000000000000        0x0 /home/auto_jenkins_wlan5/workspace/sdk/auto-release-master/amebasmart_gcc_project/build/project_ap/asdk/make/atf/bl32/divmoddi4.o
 .data          0x0000000000000000        0x0 /home/auto_jenkins_wlan5/workspace/sdk/auto-release-master/amebasmart_gcc_project/build/project_ap/asdk/make/atf/bl32/divmoddi4.o
 .bss           0x0000000000000000        0x0 /home/auto_jenkins_wlan5/workspace/sdk/auto-release-master/amebasmart_gcc_project/build/project_ap/asdk/make/atf/bl32/divmoddi4.o
 .text.__divmoddi4
                0x0000000000000000       0x2e /home/auto_jenkins_wlan5/workspace/sdk/auto-release-master/amebasmart_gcc_project/build/project_ap/asdk/make/atf/bl32/divmoddi4.o
 .debug_info    0x0000000000000000      0x13a /home/auto_jenkins_wlan5/workspace/sdk/auto-release-master/amebasmart_gcc_project/build/project_ap/asdk/make/atf/bl32/divmoddi4.o
 .debug_abbrev  0x0000000000000000       0xc3 /home/auto_jenkins_wlan5/workspace/sdk/auto-release-master/amebasmart_gcc_project/build/project_ap/asdk/make/atf/bl32/divmoddi4.o
 .debug_loc     0x0000000000000000       0x72 /home/auto_jenkins_wlan5/workspace/sdk/auto-release-master/amebasmart_gcc_project/build/project_ap/asdk/make/atf/bl32/divmoddi4.o
 .debug_aranges
                0x0000000000000000       0x20 /home/auto_jenkins_wlan5/workspace/sdk/auto-release-master/amebasmart_gcc_project/build/project_ap/asdk/make/atf/bl32/divmoddi4.o
 .debug_ranges  0x0000000000000000       0x10 /home/auto_jenkins_wlan5/workspace/sdk/auto-release-master/amebasmart_gcc_project/build/project_ap/asdk/make/atf/bl32/divmoddi4.o
 .debug_line    0x0000000000000000       0x98 /home/auto_jenkins_wlan5/workspace/sdk/auto-release-master/amebasmart_gcc_project/build/project_ap/asdk/make/atf/bl32/divmoddi4.o
 .debug_str     0x0000000000000000      0x24e /home/auto_jenkins_wlan5/workspace/sdk/auto-release-master/amebasmart_gcc_project/build/project_ap/asdk/make/atf/bl32/divmoddi4.o
 .comment       0x0000000000000000       0x37 /home/auto_jenkins_wlan5/workspace/sdk/auto-release-master/amebasmart_gcc_project/build/project_ap/asdk/make/atf/bl32/divmoddi4.o
 .debug_frame   0x0000000000000000       0x30 /home/auto_jenkins_wlan5/workspace/sdk/auto-release-master/amebasmart_gcc_project/build/project_ap/asdk/make/atf/bl32/divmoddi4.o
 .ARM.attributes
                0x0000000000000000       0x35 /home/auto_jenkins_wlan5/workspace/sdk/auto-release-master/amebasmart_gcc_project/build/project_ap/asdk/make/atf/bl32/divmoddi4.o
 .text          0x0000000000000000        0x0 /home/auto_jenkins_wlan5/workspace/sdk/auto-release-master/amebasmart_gcc_project/build/project_ap/asdk/make/atf/bl32/lshrdi3.o
 .data          0x0000000000000000        0x0 /home/auto_jenkins_wlan5/workspace/sdk/auto-release-master/amebasmart_gcc_project/build/project_ap/asdk/make/atf/bl32/lshrdi3.o
 .bss           0x0000000000000000        0x0 /home/auto_jenkins_wlan5/workspace/sdk/auto-release-master/amebasmart_gcc_project/build/project_ap/asdk/make/atf/bl32/lshrdi3.o
 .text.__lshrdi3
                0x0000000000000000       0x28 /home/auto_jenkins_wlan5/workspace/sdk/auto-release-master/amebasmart_gcc_project/build/project_ap/asdk/make/atf/bl32/lshrdi3.o
 .debug_info    0x0000000000000000      0x175 /home/auto_jenkins_wlan5/workspace/sdk/auto-release-master/amebasmart_gcc_project/build/project_ap/asdk/make/atf/bl32/lshrdi3.o
 .debug_abbrev  0x0000000000000000       0xf0 /home/auto_jenkins_wlan5/workspace/sdk/auto-release-master/amebasmart_gcc_project/build/project_ap/asdk/make/atf/bl32/lshrdi3.o
 .debug_loc     0x0000000000000000       0x50 /home/auto_jenkins_wlan5/workspace/sdk/auto-release-master/amebasmart_gcc_project/build/project_ap/asdk/make/atf/bl32/lshrdi3.o
 .debug_aranges
                0x0000000000000000       0x20 /home/auto_jenkins_wlan5/workspace/sdk/auto-release-master/amebasmart_gcc_project/build/project_ap/asdk/make/atf/bl32/lshrdi3.o
 .debug_ranges  0x0000000000000000       0x10 /home/auto_jenkins_wlan5/workspace/sdk/auto-release-master/amebasmart_gcc_project/build/project_ap/asdk/make/atf/bl32/lshrdi3.o
 .debug_line    0x0000000000000000       0xb5 /home/auto_jenkins_wlan5/workspace/sdk/auto-release-master/amebasmart_gcc_project/build/project_ap/asdk/make/atf/bl32/lshrdi3.o
 .debug_str     0x0000000000000000      0x27d /home/auto_jenkins_wlan5/workspace/sdk/auto-release-master/amebasmart_gcc_project/build/project_ap/asdk/make/atf/bl32/lshrdi3.o
 .comment       0x0000000000000000       0x37 /home/auto_jenkins_wlan5/workspace/sdk/auto-release-master/amebasmart_gcc_project/build/project_ap/asdk/make/atf/bl32/lshrdi3.o
 .debug_frame   0x0000000000000000       0x28 /home/auto_jenkins_wlan5/workspace/sdk/auto-release-master/amebasmart_gcc_project/build/project_ap/asdk/make/atf/bl32/lshrdi3.o
 .ARM.attributes
                0x0000000000000000       0x35 /home/auto_jenkins_wlan5/workspace/sdk/auto-release-master/amebasmart_gcc_project/build/project_ap/asdk/make/atf/bl32/lshrdi3.o
 .text          0x0000000000000000        0x0 /home/auto_jenkins_wlan5/workspace/sdk/auto-release-master/amebasmart_gcc_project/build/project_ap/asdk/make/atf/bl32/udivmoddi4.o
 .data          0x0000000000000000        0x0 /home/auto_jenkins_wlan5/workspace/sdk/auto-release-master/amebasmart_gcc_project/build/project_ap/asdk/make/atf/bl32/udivmoddi4.o
 .bss           0x0000000000000000        0x0 /home/auto_jenkins_wlan5/workspace/sdk/auto-release-master/amebasmart_gcc_project/build/project_ap/asdk/make/atf/bl32/udivmoddi4.o
 .text          0x0000000000000000        0x0 /home/auto_jenkins_wlan5/workspace/sdk/auto-release-master/amebasmart_gcc_project/build/project_ap/asdk/make/atf/bl32/sheipa_common.o
 .data          0x0000000000000000        0x0 /home/auto_jenkins_wlan5/workspace/sdk/auto-release-master/amebasmart_gcc_project/build/project_ap/asdk/make/atf/bl32/sheipa_common.o
 .bss           0x0000000000000000        0x0 /home/auto_jenkins_wlan5/workspace/sdk/auto-release-master/amebasmart_gcc_project/build/project_ap/asdk/make/atf/bl32/sheipa_common.o
 .text.sheipa_config_setup
                0x0000000000000000        0x2 /home/auto_jenkins_wlan5/workspace/sdk/auto-release-master/amebasmart_gcc_project/build/project_ap/asdk/make/atf/bl32/sheipa_common.o
 .text          0x0000000000000000        0x0 /home/auto_jenkins_wlan5/workspace/sdk/auto-release-master/amebasmart_gcc_project/build/project_ap/asdk/make/atf/bl32/sheipa_console_setup.o
 .data          0x0000000000000000        0x0 /home/auto_jenkins_wlan5/workspace/sdk/auto-release-master/amebasmart_gcc_project/build/project_ap/asdk/make/atf/bl32/sheipa_console_setup.o
 .bss           0x0000000000000000        0x0 /home/auto_jenkins_wlan5/workspace/sdk/auto-release-master/amebasmart_gcc_project/build/project_ap/asdk/make/atf/bl32/sheipa_console_setup.o
 .text          0x0000000000000000        0x0 /home/auto_jenkins_wlan5/workspace/sdk/auto-release-master/amebasmart_gcc_project/build/project_ap/asdk/make/atf/bl32/sheipa_ipc.o
 .data          0x0000000000000000        0x0 /home/auto_jenkins_wlan5/workspace/sdk/auto-release-master/amebasmart_gcc_project/build/project_ap/asdk/make/atf/bl32/sheipa_ipc.o
 .bss           0x0000000000000000        0x0 /home/auto_jenkins_wlan5/workspace/sdk/auto-release-master/amebasmart_gcc_project/build/project_ap/asdk/make/atf/bl32/sheipa_ipc.o
 .text.ipc_send_message
                0x0000000000000000       0x50 /home/auto_jenkins_wlan5/workspace/sdk/auto-release-master/amebasmart_gcc_project/build/project_ap/asdk/make/atf/bl32/sheipa_ipc.o
 .debug_info    0x0000000000000000      0x2bd /home/auto_jenkins_wlan5/workspace/sdk/auto-release-master/amebasmart_gcc_project/build/project_ap/asdk/make/atf/bl32/sheipa_ipc.o
 .debug_abbrev  0x0000000000000000      0x18d /home/auto_jenkins_wlan5/workspace/sdk/auto-release-master/amebasmart_gcc_project/build/project_ap/asdk/make/atf/bl32/sheipa_ipc.o
 .debug_loc     0x0000000000000000      0x134 /home/auto_jenkins_wlan5/workspace/sdk/auto-release-master/amebasmart_gcc_project/build/project_ap/asdk/make/atf/bl32/sheipa_ipc.o
 .debug_aranges
                0x0000000000000000       0x20 /home/auto_jenkins_wlan5/workspace/sdk/auto-release-master/amebasmart_gcc_project/build/project_ap/asdk/make/atf/bl32/sheipa_ipc.o
 .debug_ranges  0x0000000000000000       0x28 /home/auto_jenkins_wlan5/workspace/sdk/auto-release-master/amebasmart_gcc_project/build/project_ap/asdk/make/atf/bl32/sheipa_ipc.o
 .debug_line    0x0000000000000000      0x166 /home/auto_jenkins_wlan5/workspace/sdk/auto-release-master/amebasmart_gcc_project/build/project_ap/asdk/make/atf/bl32/sheipa_ipc.o
 .debug_str     0x0000000000000000      0x328 /home/auto_jenkins_wlan5/workspace/sdk/auto-release-master/amebasmart_gcc_project/build/project_ap/asdk/make/atf/bl32/sheipa_ipc.o
 .comment       0x0000000000000000       0x37 /home/auto_jenkins_wlan5/workspace/sdk/auto-release-master/amebasmart_gcc_project/build/project_ap/asdk/make/atf/bl32/sheipa_ipc.o
 .debug_frame   0x0000000000000000       0x2c /home/auto_jenkins_wlan5/workspace/sdk/auto-release-master/amebasmart_gcc_project/build/project_ap/asdk/make/atf/bl32/sheipa_ipc.o
 .ARM.attributes
                0x0000000000000000       0x35 /home/auto_jenkins_wlan5/workspace/sdk/auto-release-master/amebasmart_gcc_project/build/project_ap/asdk/make/atf/bl32/sheipa_ipc.o
 .text          0x0000000000000000        0x0 /home/auto_jenkins_wlan5/workspace/sdk/auto-release-master/amebasmart_gcc_project/build/project_ap/asdk/make/atf/bl32/sheipa_pm_ext.o
 .data          0x0000000000000000        0x0 /home/auto_jenkins_wlan5/workspace/sdk/auto-release-master/amebasmart_gcc_project/build/project_ap/asdk/make/atf/bl32/sheipa_pm_ext.o
 .bss           0x0000000000000000        0x0 /home/auto_jenkins_wlan5/workspace/sdk/auto-release-master/amebasmart_gcc_project/build/project_ap/asdk/make/atf/bl32/sheipa_pm_ext.o
 .text          0x0000000000000000        0x0 /home/auto_jenkins_wlan5/workspace/sdk/auto-release-master/amebasmart_gcc_project/build/project_ap/asdk/make/atf/bl32/xlat_tables_arch.o
 .data          0x0000000000000000        0x0 /home/auto_jenkins_wlan5/workspace/sdk/auto-release-master/amebasmart_gcc_project/build/project_ap/asdk/make/atf/bl32/xlat_tables_arch.o
 .bss           0x0000000000000000        0x0 /home/auto_jenkins_wlan5/workspace/sdk/auto-release-master/amebasmart_gcc_project/build/project_ap/asdk/make/atf/bl32/xlat_tables_arch.o
 .text.xlat_arch_is_granule_size_supported
                0x0000000000000000        0xa /home/auto_jenkins_wlan5/workspace/sdk/auto-release-master/amebasmart_gcc_project/build/project_ap/asdk/make/atf/bl32/xlat_tables_arch.o
 .text.xlat_arch_get_max_supported_granule_size
                0x0000000000000000        0x6 /home/auto_jenkins_wlan5/workspace/sdk/auto-release-master/amebasmart_gcc_project/build/project_ap/asdk/make/atf/bl32/xlat_tables_arch.o
 .text.xlat_arch_tlbi_va
                0x0000000000000000       0x30 /home/auto_jenkins_wlan5/workspace/sdk/auto-release-master/amebasmart_gcc_project/build/project_ap/asdk/make/atf/bl32/xlat_tables_arch.o
 .text.xlat_arch_tlbi_va_sync
                0x0000000000000000       0x10 /home/auto_jenkins_wlan5/workspace/sdk/auto-release-master/amebasmart_gcc_project/build/project_ap/asdk/make/atf/bl32/xlat_tables_arch.o
 .text          0x0000000000000000        0x0 /home/auto_jenkins_wlan5/workspace/sdk/auto-release-master/amebasmart_gcc_project/build/project_ap/asdk/make/atf/bl32/xlat_tables_context.o
 .data          0x0000000000000000        0x0 /home/auto_jenkins_wlan5/workspace/sdk/auto-release-master/amebasmart_gcc_project/build/project_ap/asdk/make/atf/bl32/xlat_tables_context.o
 .bss           0x0000000000000000        0x0 /home/auto_jenkins_wlan5/workspace/sdk/auto-release-master/amebasmart_gcc_project/build/project_ap/asdk/make/atf/bl32/xlat_tables_context.o
 .text.mmap_add_region_alloc_va
                0x0000000000000000       0x30 /home/auto_jenkins_wlan5/workspace/sdk/auto-release-master/amebasmart_gcc_project/build/project_ap/asdk/make/atf/bl32/xlat_tables_context.o
 .text.mmap_add_alloc_va
                0x0000000000000000       0x2c /home/auto_jenkins_wlan5/workspace/sdk/auto-release-master/amebasmart_gcc_project/build/project_ap/asdk/make/atf/bl32/xlat_tables_context.o
 .text.xlat_get_mem_attributes
                0x0000000000000000       0x10 /home/auto_jenkins_wlan5/workspace/sdk/auto-release-master/amebasmart_gcc_project/build/project_ap/asdk/make/atf/bl32/xlat_tables_context.o
 .text.xlat_change_mem_attributes
                0x0000000000000000       0x10 /home/auto_jenkins_wlan5/workspace/sdk/auto-release-master/amebasmart_gcc_project/build/project_ap/asdk/make/atf/bl32/xlat_tables_context.o
 .text.enable_mmu_hyp
                0x0000000000000000       0x34 /home/auto_jenkins_wlan5/workspace/sdk/auto-release-master/amebasmart_gcc_project/build/project_ap/asdk/make/atf/bl32/xlat_tables_context.o
 .text          0x0000000000000000        0x0 /home/auto_jenkins_wlan5/workspace/sdk/auto-release-master/amebasmart_gcc_project/build/project_ap/asdk/make/atf/bl32/xlat_tables_core.o
 .data          0x0000000000000000        0x0 /home/auto_jenkins_wlan5/workspace/sdk/auto-release-master/amebasmart_gcc_project/build/project_ap/asdk/make/atf/bl32/xlat_tables_core.o
 .bss           0x0000000000000000        0x0 /home/auto_jenkins_wlan5/workspace/sdk/auto-release-master/amebasmart_gcc_project/build/project_ap/asdk/make/atf/bl32/xlat_tables_core.o
 .text.mmap_add_region_alloc_va_ctx
                0x0000000000000000       0x58 /home/auto_jenkins_wlan5/workspace/sdk/auto-release-master/amebasmart_gcc_project/build/project_ap/asdk/make/atf/bl32/xlat_tables_core.o
 .text          0x0000000000000000        0x0 /home/auto_jenkins_wlan5/workspace/sdk/auto-release-master/amebasmart_gcc_project/build/project_ap/asdk/make/atf/bl32/xlat_tables_utils.o
 .data          0x0000000000000000        0x0 /home/auto_jenkins_wlan5/workspace/sdk/auto-release-master/amebasmart_gcc_project/build/project_ap/asdk/make/atf/bl32/xlat_tables_utils.o
 .bss           0x0000000000000000        0x0 /home/auto_jenkins_wlan5/workspace/sdk/auto-release-master/amebasmart_gcc_project/build/project_ap/asdk/make/atf/bl32/xlat_tables_utils.o
 .rodata.find_xlat_table_entry.str1.1
                0x0000000000000000       0x53 /home/auto_jenkins_wlan5/workspace/sdk/auto-release-master/amebasmart_gcc_project/build/project_ap/asdk/make/atf/bl32/xlat_tables_utils.o
 .text.find_xlat_table_entry
                0x0000000000000000       0x90 /home/auto_jenkins_wlan5/workspace/sdk/auto-release-master/amebasmart_gcc_project/build/project_ap/asdk/make/atf/bl32/xlat_tables_utils.o
 .rodata.xlat_get_mem_attributes_internal.str1.1
                0x0000000000000000       0x1f /home/auto_jenkins_wlan5/workspace/sdk/auto-release-master/amebasmart_gcc_project/build/project_ap/asdk/make/atf/bl32/xlat_tables_utils.o
 .text.xlat_get_mem_attributes_internal
                0x0000000000000000      0x118 /home/auto_jenkins_wlan5/workspace/sdk/auto-release-master/amebasmart_gcc_project/build/project_ap/asdk/make/atf/bl32/xlat_tables_utils.o
 .text.xlat_get_mem_attributes_ctx
                0x0000000000000000       0x12 /home/auto_jenkins_wlan5/workspace/sdk/auto-release-master/amebasmart_gcc_project/build/project_ap/asdk/make/atf/bl32/xlat_tables_utils.o
 .rodata.xlat_change_mem_attributes_ctx.str1.1
                0x0000000000000000      0x152 /home/auto_jenkins_wlan5/workspace/sdk/auto-release-master/amebasmart_gcc_project/build/project_ap/asdk/make/atf/bl32/xlat_tables_utils.o
 .text.xlat_change_mem_attributes_ctx
                0x0000000000000000      0x1a8 /home/auto_jenkins_wlan5/workspace/sdk/auto-release-master/amebasmart_gcc_project/build/project_ap/asdk/make/atf/bl32/xlat_tables_utils.o
 .rodata.__func__.0
                0x0000000000000000       0x1f /home/auto_jenkins_wlan5/workspace/sdk/auto-release-master/amebasmart_gcc_project/build/project_ap/asdk/make/atf/bl32/xlat_tables_utils.o
 .text          0x0000000000000000        0x0 /home/auto_jenkins_wlan5/workspace/sdk/auto-release-master/amebasmart_gcc_project/build/project_ap/asdk/make/atf/bl32/entrypoint.o
 .data          0x0000000000000000        0x0 /home/auto_jenkins_wlan5/workspace/sdk/auto-release-master/amebasmart_gcc_project/build/project_ap/asdk/make/atf/bl32/entrypoint.o
 .bss           0x0000000000000000        0x0 /home/auto_jenkins_wlan5/workspace/sdk/auto-release-master/amebasmart_gcc_project/build/project_ap/asdk/make/atf/bl32/entrypoint.o
 .text          0x0000000000000000        0x0 /home/auto_jenkins_wlan5/workspace/sdk/auto-release-master/amebasmart_gcc_project/build/project_ap/asdk/make/atf/bl32/wa_cve_2017_5715_bpiall.o
 .data          0x0000000000000000        0x0 /home/auto_jenkins_wlan5/workspace/sdk/auto-release-master/amebasmart_gcc_project/build/project_ap/asdk/make/atf/bl32/wa_cve_2017_5715_bpiall.o
 .bss           0x0000000000000000        0x0 /home/auto_jenkins_wlan5/workspace/sdk/auto-release-master/amebasmart_gcc_project/build/project_ap/asdk/make/atf/bl32/wa_cve_2017_5715_bpiall.o
 .vectors       0x0000000000000000       0x80 /home/auto_jenkins_wlan5/workspace/sdk/auto-release-master/amebasmart_gcc_project/build/project_ap/asdk/make/atf/bl32/wa_cve_2017_5715_bpiall.o
 .debug_line    0x0000000000000000       0x76 /home/auto_jenkins_wlan5/workspace/sdk/auto-release-master/amebasmart_gcc_project/build/project_ap/asdk/make/atf/bl32/wa_cve_2017_5715_bpiall.o
 .debug_info    0x0000000000000000       0x26 /home/auto_jenkins_wlan5/workspace/sdk/auto-release-master/amebasmart_gcc_project/build/project_ap/asdk/make/atf/bl32/wa_cve_2017_5715_bpiall.o
 .debug_abbrev  0x0000000000000000       0x14 /home/auto_jenkins_wlan5/workspace/sdk/auto-release-master/amebasmart_gcc_project/build/project_ap/asdk/make/atf/bl32/wa_cve_2017_5715_bpiall.o
 .debug_aranges
                0x0000000000000000       0x20 /home/auto_jenkins_wlan5/workspace/sdk/auto-release-master/amebasmart_gcc_project/build/project_ap/asdk/make/atf/bl32/wa_cve_2017_5715_bpiall.o
 .debug_str     0x0000000000000000       0x8c /home/auto_jenkins_wlan5/workspace/sdk/auto-release-master/amebasmart_gcc_project/build/project_ap/asdk/make/atf/bl32/wa_cve_2017_5715_bpiall.o
 .ARM.attributes
                0x0000000000000000       0x25 /home/auto_jenkins_wlan5/workspace/sdk/auto-release-master/amebasmart_gcc_project/build/project_ap/asdk/make/atf/bl32/wa_cve_2017_5715_bpiall.o
 .text          0x0000000000000000        0x0 /home/auto_jenkins_wlan5/workspace/sdk/auto-release-master/amebasmart_gcc_project/build/project_ap/asdk/make/atf/bl32/wa_cve_2017_5715_icache_inv.o
 .data          0x0000000000000000        0x0 /home/auto_jenkins_wlan5/workspace/sdk/auto-release-master/amebasmart_gcc_project/build/project_ap/asdk/make/atf/bl32/wa_cve_2017_5715_icache_inv.o
 .bss           0x0000000000000000        0x0 /home/auto_jenkins_wlan5/workspace/sdk/auto-release-master/amebasmart_gcc_project/build/project_ap/asdk/make/atf/bl32/wa_cve_2017_5715_icache_inv.o
 .vectors       0x0000000000000000       0x80 /home/auto_jenkins_wlan5/workspace/sdk/auto-release-master/amebasmart_gcc_project/build/project_ap/asdk/make/atf/bl32/wa_cve_2017_5715_icache_inv.o
 .debug_line    0x0000000000000000       0x7a /home/auto_jenkins_wlan5/workspace/sdk/auto-release-master/amebasmart_gcc_project/build/project_ap/asdk/make/atf/bl32/wa_cve_2017_5715_icache_inv.o
 .debug_info    0x0000000000000000       0x26 /home/auto_jenkins_wlan5/workspace/sdk/auto-release-master/amebasmart_gcc_project/build/project_ap/asdk/make/atf/bl32/wa_cve_2017_5715_icache_inv.o
 .debug_abbrev  0x0000000000000000       0x14 /home/auto_jenkins_wlan5/workspace/sdk/auto-release-master/amebasmart_gcc_project/build/project_ap/asdk/make/atf/bl32/wa_cve_2017_5715_icache_inv.o
 .debug_aranges
                0x0000000000000000       0x20 /home/auto_jenkins_wlan5/workspace/sdk/auto-release-master/amebasmart_gcc_project/build/project_ap/asdk/make/atf/bl32/wa_cve_2017_5715_icache_inv.o
 .debug_str     0x0000000000000000       0x90 /home/auto_jenkins_wlan5/workspace/sdk/auto-release-master/amebasmart_gcc_project/build/project_ap/asdk/make/atf/bl32/wa_cve_2017_5715_icache_inv.o
 .ARM.attributes
                0x0000000000000000       0x25 /home/auto_jenkins_wlan5/workspace/sdk/auto-release-master/amebasmart_gcc_project/build/project_ap/asdk/make/atf/bl32/wa_cve_2017_5715_icache_inv.o
 .text          0x0000000000000000        0x0 /home/auto_jenkins_wlan5/workspace/sdk/auto-release-master/amebasmart_gcc_project/build/project_ap/asdk/make/atf/bl32/aem_generic.o
 .bss           0x0000000000000000        0x0 /home/auto_jenkins_wlan5/workspace/sdk/auto-release-master/amebasmart_gcc_project/build/project_ap/asdk/make/atf/bl32/aem_generic.o
 .rodata        0x0000000000000000        0xc /home/auto_jenkins_wlan5/workspace/sdk/auto-release-master/amebasmart_gcc_project/build/project_ap/asdk/make/atf/bl32/aem_generic.o
 .text          0x0000000000000000        0x0 /home/auto_jenkins_wlan5/workspace/sdk/auto-release-master/amebasmart_gcc_project/build/project_ap/asdk/make/atf/bl32/cortex_a32.o
 .bss           0x0000000000000000        0x0 /home/auto_jenkins_wlan5/workspace/sdk/auto-release-master/amebasmart_gcc_project/build/project_ap/asdk/make/atf/bl32/cortex_a32.o
 .rodata        0x0000000000000000        0xb /home/auto_jenkins_wlan5/workspace/sdk/auto-release-master/amebasmart_gcc_project/build/project_ap/asdk/make/atf/bl32/cortex_a32.o
 .text          0x0000000000000000        0x0 /home/auto_jenkins_wlan5/workspace/sdk/auto-release-master/amebasmart_gcc_project/build/project_ap/asdk/make/atf/bl32/cortex_a7.o
 .bss           0x0000000000000000        0x0 /home/auto_jenkins_wlan5/workspace/sdk/auto-release-master/amebasmart_gcc_project/build/project_ap/asdk/make/atf/bl32/cortex_a7.o
 .rodata        0x0000000000000000        0xa /home/auto_jenkins_wlan5/workspace/sdk/auto-release-master/amebasmart_gcc_project/build/project_ap/asdk/make/atf/bl32/cortex_a7.o
 .text          0x0000000000000000        0x0 /home/auto_jenkins_wlan5/workspace/sdk/auto-release-master/amebasmart_gcc_project/build/project_ap/asdk/make/atf/bl32/cpu_helpers.o
 .data          0x0000000000000000        0x0 /home/auto_jenkins_wlan5/workspace/sdk/auto-release-master/amebasmart_gcc_project/build/project_ap/asdk/make/atf/bl32/cpu_helpers.o
 .bss           0x0000000000000000        0x0 /home/auto_jenkins_wlan5/workspace/sdk/auto-release-master/amebasmart_gcc_project/build/project_ap/asdk/make/atf/bl32/cpu_helpers.o
 .text.asm.cpu_get_rev_var
                0x0000000000000000       0x10 /home/auto_jenkins_wlan5/workspace/sdk/auto-release-master/amebasmart_gcc_project/build/project_ap/asdk/make/atf/bl32/cpu_helpers.o
 .text.asm.cpu_rev_var_ls
                0x0000000000000000       0x10 /home/auto_jenkins_wlan5/workspace/sdk/auto-release-master/amebasmart_gcc_project/build/project_ap/asdk/make/atf/bl32/cpu_helpers.o
 .text.asm.cpu_rev_var_hs
                0x0000000000000000       0x10 /home/auto_jenkins_wlan5/workspace/sdk/auto-release-master/amebasmart_gcc_project/build/project_ap/asdk/make/atf/bl32/cpu_helpers.o
 .text          0x0000000000000000        0x0 /home/auto_jenkins_wlan5/workspace/sdk/auto-release-master/amebasmart_gcc_project/build/project_ap/asdk/make/atf/bl32/dsu_helpers.o
 .data          0x0000000000000000        0x0 /home/auto_jenkins_wlan5/workspace/sdk/auto-release-master/amebasmart_gcc_project/build/project_ap/asdk/make/atf/bl32/dsu_helpers.o
 .bss           0x0000000000000000        0x0 /home/auto_jenkins_wlan5/workspace/sdk/auto-release-master/amebasmart_gcc_project/build/project_ap/asdk/make/atf/bl32/dsu_helpers.o
 .text.asm.check_errata_dsu_798953
                0x0000000000000000       0x1c /home/auto_jenkins_wlan5/workspace/sdk/auto-release-master/amebasmart_gcc_project/build/project_ap/asdk/make/atf/bl32/dsu_helpers.o
 .text.asm.errata_dsu_798953_wa
                0x0000000000000000       0x24 /home/auto_jenkins_wlan5/workspace/sdk/auto-release-master/amebasmart_gcc_project/build/project_ap/asdk/make/atf/bl32/dsu_helpers.o
 .text.asm.check_errata_dsu_936184
                0x0000000000000000       0x30 /home/auto_jenkins_wlan5/workspace/sdk/auto-release-master/amebasmart_gcc_project/build/project_ap/asdk/make/atf/bl32/dsu_helpers.o
 .text.asm.errata_dsu_936184_wa
                0x0000000000000000       0x28 /home/auto_jenkins_wlan5/workspace/sdk/auto-release-master/amebasmart_gcc_project/build/project_ap/asdk/make/atf/bl32/dsu_helpers.o
 .debug_line    0x0000000000000000       0x9f /home/auto_jenkins_wlan5/workspace/sdk/auto-release-master/amebasmart_gcc_project/build/project_ap/asdk/make/atf/bl32/dsu_helpers.o
 .debug_info    0x0000000000000000       0x22 /home/auto_jenkins_wlan5/workspace/sdk/auto-release-master/amebasmart_gcc_project/build/project_ap/asdk/make/atf/bl32/dsu_helpers.o
 .debug_abbrev  0x0000000000000000       0x12 /home/auto_jenkins_wlan5/workspace/sdk/auto-release-master/amebasmart_gcc_project/build/project_ap/asdk/make/atf/bl32/dsu_helpers.o
 .debug_aranges
                0x0000000000000000       0x38 /home/auto_jenkins_wlan5/workspace/sdk/auto-release-master/amebasmart_gcc_project/build/project_ap/asdk/make/atf/bl32/dsu_helpers.o
 .debug_str     0x0000000000000000       0x85 /home/auto_jenkins_wlan5/workspace/sdk/auto-release-master/amebasmart_gcc_project/build/project_ap/asdk/make/atf/bl32/dsu_helpers.o
 .debug_ranges  0x0000000000000000       0x30 /home/auto_jenkins_wlan5/workspace/sdk/auto-release-master/amebasmart_gcc_project/build/project_ap/asdk/make/atf/bl32/dsu_helpers.o
 .debug_frame   0x0000000000000000       0x50 /home/auto_jenkins_wlan5/workspace/sdk/auto-release-master/amebasmart_gcc_project/build/project_ap/asdk/make/atf/bl32/dsu_helpers.o
 .ARM.attributes
                0x0000000000000000       0x25 /home/auto_jenkins_wlan5/workspace/sdk/auto-release-master/amebasmart_gcc_project/build/project_ap/asdk/make/atf/bl32/dsu_helpers.o
 .text          0x0000000000000000        0x0 /home/auto_jenkins_wlan5/workspace/sdk/auto-release-master/amebasmart_gcc_project/build/project_ap/asdk/make/atf/bl32/cpu_data.o
 .data          0x0000000000000000        0x0 /home/auto_jenkins_wlan5/workspace/sdk/auto-release-master/amebasmart_gcc_project/build/project_ap/asdk/make/atf/bl32/cpu_data.o
 .bss           0x0000000000000000        0x0 /home/auto_jenkins_wlan5/workspace/sdk/auto-release-master/amebasmart_gcc_project/build/project_ap/asdk/make/atf/bl32/cpu_data.o
 .text          0x0000000000000000        0x0 /home/auto_jenkins_wlan5/workspace/sdk/auto-release-master/amebasmart_gcc_project/build/project_ap/asdk/make/atf/bl32/spinlock.o
 .data          0x0000000000000000        0x0 /home/auto_jenkins_wlan5/workspace/sdk/auto-release-master/amebasmart_gcc_project/build/project_ap/asdk/make/atf/bl32/spinlock.o
 .bss           0x0000000000000000        0x0 /home/auto_jenkins_wlan5/workspace/sdk/auto-release-master/amebasmart_gcc_project/build/project_ap/asdk/make/atf/bl32/spinlock.o
 .text          0x0000000000000000        0x0 /home/auto_jenkins_wlan5/workspace/sdk/auto-release-master/amebasmart_gcc_project/build/project_ap/asdk/make/atf/bl32/psci_helpers.o
 .data          0x0000000000000000        0x0 /home/auto_jenkins_wlan5/workspace/sdk/auto-release-master/amebasmart_gcc_project/build/project_ap/asdk/make/atf/bl32/psci_helpers.o
 .bss           0x0000000000000000        0x0 /home/auto_jenkins_wlan5/workspace/sdk/auto-release-master/amebasmart_gcc_project/build/project_ap/asdk/make/atf/bl32/psci_helpers.o
 .text          0x0000000000000000        0x0 /home/auto_jenkins_wlan5/workspace/sdk/auto-release-master/amebasmart_gcc_project/build/project_ap/asdk/make/atf/bl32/platform_mp_stack.o
 .data          0x0000000000000000        0x0 /home/auto_jenkins_wlan5/workspace/sdk/auto-release-master/amebasmart_gcc_project/build/project_ap/asdk/make/atf/bl32/platform_mp_stack.o
 .bss           0x0000000000000000        0x0 /home/auto_jenkins_wlan5/workspace/sdk/auto-release-master/amebasmart_gcc_project/build/project_ap/asdk/make/atf/bl32/platform_mp_stack.o
 .text          0x0000000000000000        0x0 /home/auto_jenkins_wlan5/workspace/sdk/auto-release-master/amebasmart_gcc_project/build/project_ap/asdk/make/atf/bl32/debug.o
 .data          0x0000000000000000        0x0 /home/auto_jenkins_wlan5/workspace/sdk/auto-release-master/amebasmart_gcc_project/build/project_ap/asdk/make/atf/bl32/debug.o
 .bss           0x0000000000000000        0x0 /home/auto_jenkins_wlan5/workspace/sdk/auto-release-master/amebasmart_gcc_project/build/project_ap/asdk/make/atf/bl32/debug.o
 .text.asm.report_exception
                0x0000000000000000       0x14 /home/auto_jenkins_wlan5/workspace/sdk/auto-release-master/amebasmart_gcc_project/build/project_ap/asdk/make/atf/bl32/debug.o
 .text          0x0000000000000000        0x0 /home/auto_jenkins_wlan5/workspace/sdk/auto-release-master/amebasmart_gcc_project/build/project_ap/asdk/make/atf/bl32/cache_helpers.o
 .data          0x0000000000000000        0x0 /home/auto_jenkins_wlan5/workspace/sdk/auto-release-master/amebasmart_gcc_project/build/project_ap/asdk/make/atf/bl32/cache_helpers.o
 .bss           0x0000000000000000        0x0 /home/auto_jenkins_wlan5/workspace/sdk/auto-release-master/amebasmart_gcc_project/build/project_ap/asdk/make/atf/bl32/cache_helpers.o
 .text.asm.dcsw_op_level3
                0x0000000000000000       0x10 /home/auto_jenkins_wlan5/workspace/sdk/auto-release-master/amebasmart_gcc_project/build/project_ap/asdk/make/atf/bl32/cache_helpers.o
 .text          0x0000000000000000        0x0 /home/auto_jenkins_wlan5/workspace/sdk/auto-release-master/amebasmart_gcc_project/build/project_ap/asdk/make/atf/bl32/misc_helpers.o
 .data          0x0000000000000000        0x0 /home/auto_jenkins_wlan5/workspace/sdk/auto-release-master/amebasmart_gcc_project/build/project_ap/asdk/make/atf/bl32/misc_helpers.o
 .bss           0x0000000000000000        0x0 /home/auto_jenkins_wlan5/workspace/sdk/auto-release-master/amebasmart_gcc_project/build/project_ap/asdk/make/atf/bl32/misc_helpers.o
 .text.asm.smc  0x0000000000000000        0x8 /home/auto_jenkins_wlan5/workspace/sdk/auto-release-master/amebasmart_gcc_project/build/project_ap/asdk/make/atf/bl32/misc_helpers.o
 .text.asm.memcpy4
                0x0000000000000000       0x50 /home/auto_jenkins_wlan5/workspace/sdk/auto-release-master/amebasmart_gcc_project/build/project_ap/asdk/make/atf/bl32/misc_helpers.o
 .rodata.str1.1
                0x0000000000000000       0x1b /home/auto_jenkins_wlan5/workspace/sdk/auto-release-master/amebasmart_gcc_project/build/project_ap/asdk/make/atf/bl32/misc_helpers.o
 .text.asm.disable_mmu_secure
                0x0000000000000000       0x1c /home/auto_jenkins_wlan5/workspace/sdk/auto-release-master/amebasmart_gcc_project/build/project_ap/asdk/make/atf/bl32/misc_helpers.o
 .text.asm.disable_mmu_icache_secure
                0x0000000000000000        0xc /home/auto_jenkins_wlan5/workspace/sdk/auto-release-master/amebasmart_gcc_project/build/project_ap/asdk/make/atf/bl32/misc_helpers.o
 .text          0x0000000000000000        0x0 /home/auto_jenkins_wlan5/workspace/sdk/auto-release-master/amebasmart_gcc_project/build/project_ap/asdk/make/atf/bl32/platform_helpers.o
 .data          0x0000000000000000        0x0 /home/auto_jenkins_wlan5/workspace/sdk/auto-release-master/amebasmart_gcc_project/build/project_ap/asdk/make/atf/bl32/platform_helpers.o
 .bss           0x0000000000000000        0x0 /home/auto_jenkins_wlan5/workspace/sdk/auto-release-master/amebasmart_gcc_project/build/project_ap/asdk/make/atf/bl32/platform_helpers.o
 .text.asm.plat_report_exception
                0x0000000000000000        0x4 /home/auto_jenkins_wlan5/workspace/sdk/auto-release-master/amebasmart_gcc_project/build/project_ap/asdk/make/atf/bl32/platform_helpers.o
 .text.asm.plat_report_prefetch_abort
                0x0000000000000000        0x4 /home/auto_jenkins_wlan5/workspace/sdk/auto-release-master/amebasmart_gcc_project/build/project_ap/asdk/make/atf/bl32/platform_helpers.o
 .text.asm.plat_report_data_abort
                0x0000000000000000        0x4 /home/auto_jenkins_wlan5/workspace/sdk/auto-release-master/amebasmart_gcc_project/build/project_ap/asdk/make/atf/bl32/platform_helpers.o
 .text.asm.platform_mem_init
                0x0000000000000000        0x4 /home/auto_jenkins_wlan5/workspace/sdk/auto-release-master/amebasmart_gcc_project/build/project_ap/asdk/make/atf/bl32/platform_helpers.o
 .text.asm.bl1_plat_prepare_exit
                0x0000000000000000        0x4 /home/auto_jenkins_wlan5/workspace/sdk/auto-release-master/amebasmart_gcc_project/build/project_ap/asdk/make/atf/bl32/platform_helpers.o
 .text.asm.plat_panic_handler
                0x0000000000000000        0x4 /home/auto_jenkins_wlan5/workspace/sdk/auto-release-master/amebasmart_gcc_project/build/project_ap/asdk/make/atf/bl32/platform_helpers.o
 .text          0x0000000000000000       0x24 /home/auto_jenkins_wlan5/workspace/sdk/auto-release-master/amebasmart_gcc_project/build/project_ap/asdk/make/atf/bl32/aeabi_ldivmod.o
 .data          0x0000000000000000        0x0 /home/auto_jenkins_wlan5/workspace/sdk/auto-release-master/amebasmart_gcc_project/build/project_ap/asdk/make/atf/bl32/aeabi_ldivmod.o
 .bss           0x0000000000000000        0x0 /home/auto_jenkins_wlan5/workspace/sdk/auto-release-master/amebasmart_gcc_project/build/project_ap/asdk/make/atf/bl32/aeabi_ldivmod.o
 .debug_line    0x0000000000000000       0x66 /home/auto_jenkins_wlan5/workspace/sdk/auto-release-master/amebasmart_gcc_project/build/project_ap/asdk/make/atf/bl32/aeabi_ldivmod.o
 .debug_info    0x0000000000000000       0x26 /home/auto_jenkins_wlan5/workspace/sdk/auto-release-master/amebasmart_gcc_project/build/project_ap/asdk/make/atf/bl32/aeabi_ldivmod.o
 .debug_abbrev  0x0000000000000000       0x14 /home/auto_jenkins_wlan5/workspace/sdk/auto-release-master/amebasmart_gcc_project/build/project_ap/asdk/make/atf/bl32/aeabi_ldivmod.o
 .debug_aranges
                0x0000000000000000       0x20 /home/auto_jenkins_wlan5/workspace/sdk/auto-release-master/amebasmart_gcc_project/build/project_ap/asdk/make/atf/bl32/aeabi_ldivmod.o
 .debug_str     0x0000000000000000       0x93 /home/auto_jenkins_wlan5/workspace/sdk/auto-release-master/amebasmart_gcc_project/build/project_ap/asdk/make/atf/bl32/aeabi_ldivmod.o
 .ARM.attributes
                0x0000000000000000       0x25 /home/auto_jenkins_wlan5/workspace/sdk/auto-release-master/amebasmart_gcc_project/build/project_ap/asdk/make/atf/bl32/aeabi_ldivmod.o
 .data          0x0000000000000000        0x0 /home/auto_jenkins_wlan5/workspace/sdk/auto-release-master/amebasmart_gcc_project/build/project_ap/asdk/make/atf/bl32/aeabi_uldivmod.o
 .bss           0x0000000000000000        0x0 /home/auto_jenkins_wlan5/workspace/sdk/auto-release-master/amebasmart_gcc_project/build/project_ap/asdk/make/atf/bl32/aeabi_uldivmod.o
 .text          0x0000000000000000        0x0 /home/auto_jenkins_wlan5/workspace/sdk/auto-release-master/amebasmart_gcc_project/build/project_ap/asdk/make/atf/bl32/plat_helpers.o
 .data          0x0000000000000000        0x0 /home/auto_jenkins_wlan5/workspace/sdk/auto-release-master/amebasmart_gcc_project/build/project_ap/asdk/make/atf/bl32/plat_helpers.o
 .bss           0x0000000000000000        0x0 /home/auto_jenkins_wlan5/workspace/sdk/auto-release-master/amebasmart_gcc_project/build/project_ap/asdk/make/atf/bl32/plat_helpers.o
 .text.asm.plat_is_my_cpu_primary
                0x0000000000000000       0x20 /home/auto_jenkins_wlan5/workspace/sdk/auto-release-master/amebasmart_gcc_project/build/project_ap/asdk/make/atf/bl32/plat_helpers.o
 .text.asm.plat_secondary_cold_boot_setup
                0x0000000000000000       0x38 /home/auto_jenkins_wlan5/workspace/sdk/auto-release-master/amebasmart_gcc_project/build/project_ap/asdk/make/atf/bl32/plat_helpers.o
 .text.asm.plat_get_my_entrypoint
                0x0000000000000000       0x4c /home/auto_jenkins_wlan5/workspace/sdk/auto-release-master/amebasmart_gcc_project/build/project_ap/asdk/make/atf/bl32/plat_helpers.o
 .text.asm.platform_mem_init
                0x0000000000000000        0x4 /home/auto_jenkins_wlan5/workspace/sdk/auto-release-master/amebasmart_gcc_project/build/project_ap/asdk/make/atf/bl32/plat_helpers.o
 .text          0x0000000000000000        0x0 /home/auto_jenkins_wlan5/workspace/sdk/auto-release-master/amebasmart_gcc_project/build/project_ap/asdk/make/atf/bl32/sheipa_console.o
 .data          0x0000000000000000        0x0 /home/auto_jenkins_wlan5/workspace/sdk/auto-release-master/amebasmart_gcc_project/build/project_ap/asdk/make/atf/bl32/sheipa_console.o
 .bss           0x0000000000000000        0x0 /home/auto_jenkins_wlan5/workspace/sdk/auto-release-master/amebasmart_gcc_project/build/project_ap/asdk/make/atf/bl32/sheipa_console.o
 .text          0x0000000000000000        0x0 /home/auto_jenkins_wlan5/workspace/sdk/auto-release-master/amebasmart_gcc_project/build/project_ap/asdk/make/atf/bl32/enable_mmu.o
 .data          0x0000000000000000        0x0 /home/auto_jenkins_wlan5/workspace/sdk/auto-release-master/amebasmart_gcc_project/build/project_ap/asdk/make/atf/bl32/enable_mmu.o
 .bss           0x0000000000000000        0x0 /home/auto_jenkins_wlan5/workspace/sdk/auto-release-master/amebasmart_gcc_project/build/project_ap/asdk/make/atf/bl32/enable_mmu.o
 .text.asm.enable_mmu_direct_hyp
                0x0000000000000000       0x74 /home/auto_jenkins_wlan5/workspace/sdk/auto-release-master/amebasmart_gcc_project/build/project_ap/asdk/make/atf/bl32/enable_mmu.o
 .text          0x0000000000000000        0x0 /home/auto_jenkins_wlan5/workspace/sdk/auto-release-master/amebasmart_gcc_project/build/project_ap/asdk/make/atf/lib/libpm.a(sheipa_pm.o)
 .data          0x0000000000000000        0x0 /home/auto_jenkins_wlan5/workspace/sdk/auto-release-master/amebasmart_gcc_project/build/project_ap/asdk/make/atf/lib/libpm.a(sheipa_pm.o)
 .bss           0x0000000000000000        0x0 /home/auto_jenkins_wlan5/workspace/sdk/auto-release-master/amebasmart_gcc_project/build/project_ap/asdk/make/atf/lib/libpm.a(sheipa_pm.o)
 .text          0x0000000000000000        0x0 /home/auto_jenkins_wlan5/workspace/sdk/auto-release-master/amebasmart_gcc_project/build/project_ap/asdk/make/atf/lib/libc.a(assert.o)
 .data          0x0000000000000000        0x0 /home/auto_jenkins_wlan5/workspace/sdk/auto-release-master/amebasmart_gcc_project/build/project_ap/asdk/make/atf/lib/libc.a(assert.o)
 .bss           0x0000000000000000        0x0 /home/auto_jenkins_wlan5/workspace/sdk/auto-release-master/amebasmart_gcc_project/build/project_ap/asdk/make/atf/lib/libc.a(assert.o)
 .text          0x0000000000000000        0x0 /home/auto_jenkins_wlan5/workspace/sdk/auto-release-master/amebasmart_gcc_project/build/project_ap/asdk/make/atf/lib/libc.a(memcpy.o)
 .data          0x0000000000000000        0x0 /home/auto_jenkins_wlan5/workspace/sdk/auto-release-master/amebasmart_gcc_project/build/project_ap/asdk/make/atf/lib/libc.a(memcpy.o)
 .bss           0x0000000000000000        0x0 /home/auto_jenkins_wlan5/workspace/sdk/auto-release-master/amebasmart_gcc_project/build/project_ap/asdk/make/atf/lib/libc.a(memcpy.o)
 .text          0x0000000000000000        0x0 /home/auto_jenkins_wlan5/workspace/sdk/auto-release-master/amebasmart_gcc_project/build/project_ap/asdk/make/atf/lib/libc.a(memmove.o)
 .data          0x0000000000000000        0x0 /home/auto_jenkins_wlan5/workspace/sdk/auto-release-master/amebasmart_gcc_project/build/project_ap/asdk/make/atf/lib/libc.a(memmove.o)
 .bss           0x0000000000000000        0x0 /home/auto_jenkins_wlan5/workspace/sdk/auto-release-master/amebasmart_gcc_project/build/project_ap/asdk/make/atf/lib/libc.a(memmove.o)
 .text          0x0000000000000000        0x0 /home/auto_jenkins_wlan5/workspace/sdk/auto-release-master/amebasmart_gcc_project/build/project_ap/asdk/make/atf/lib/libc.a(memset.o)
 .data          0x0000000000000000        0x0 /home/auto_jenkins_wlan5/workspace/sdk/auto-release-master/amebasmart_gcc_project/build/project_ap/asdk/make/atf/lib/libc.a(memset.o)
 .bss           0x0000000000000000        0x0 /home/auto_jenkins_wlan5/workspace/sdk/auto-release-master/amebasmart_gcc_project/build/project_ap/asdk/make/atf/lib/libc.a(memset.o)
 .text          0x0000000000000000        0x0 /home/auto_jenkins_wlan5/workspace/sdk/auto-release-master/amebasmart_gcc_project/build/project_ap/asdk/make/atf/lib/libc.a(printf.o)
 .data          0x0000000000000000        0x0 /home/auto_jenkins_wlan5/workspace/sdk/auto-release-master/amebasmart_gcc_project/build/project_ap/asdk/make/atf/lib/libc.a(printf.o)
 .bss           0x0000000000000000        0x0 /home/auto_jenkins_wlan5/workspace/sdk/auto-release-master/amebasmart_gcc_project/build/project_ap/asdk/make/atf/lib/libc.a(printf.o)
 .text          0x0000000000000000        0x0 /home/auto_jenkins_wlan5/workspace/sdk/auto-release-master/amebasmart_gcc_project/build/project_ap/asdk/make/atf/lib/libc.a(putchar.o)
 .data          0x0000000000000000        0x0 /home/auto_jenkins_wlan5/workspace/sdk/auto-release-master/amebasmart_gcc_project/build/project_ap/asdk/make/atf/lib/libc.a(putchar.o)
 .bss           0x0000000000000000        0x0 /home/auto_jenkins_wlan5/workspace/sdk/auto-release-master/amebasmart_gcc_project/build/project_ap/asdk/make/atf/lib/libc.a(putchar.o)

Memory Configuration

Name             Origin             Length             Attributes
RAM              0x0000000070200000 0x0000000000100000 xrw
*default*        0x0000000000000000 0xffffffffffffffff

Linker script and memory map

                0x0000000070200000                . = 0x70200000
                0x0000000000000001                ASSERT ((. == ALIGN (0x1000)), BL32_BASE address is not aligned on a page boundary.)

.text           0x0000000070200000     0x4000
                0x0000000070200000                __TEXT_START__ = .
 *entrypoint.o(.text*)
 .text.asm.sp_min_entrypoint
                0x0000000070200000      0x170 /home/auto_jenkins_wlan5/workspace/sdk/auto-release-master/amebasmart_gcc_project/build/project_ap/asdk/make/atf/bl32/entrypoint.o
                0x0000000070200000                sp_min_entrypoint
 .text.asm.sp_min_handle_smc
                0x0000000070200170       0xd4 /home/auto_jenkins_wlan5/workspace/sdk/auto-release-master/amebasmart_gcc_project/build/project_ap/asdk/make/atf/bl32/entrypoint.o
                0x0000000070200170                sp_min_handle_smc
 .text.asm.sp_min_handle_fiq
                0x0000000070200244        0x4 /home/auto_jenkins_wlan5/workspace/sdk/auto-release-master/amebasmart_gcc_project/build/project_ap/asdk/make/atf/bl32/entrypoint.o
                0x0000000070200244                sp_min_handle_fiq
 .text.asm.sp_min_warm_entrypoint
                0x0000000070200248       0xdc /home/auto_jenkins_wlan5/workspace/sdk/auto-release-master/amebasmart_gcc_project/build/project_ap/asdk/make/atf/bl32/entrypoint.o
                0x0000000070200248                sp_min_warm_entrypoint
 .text.asm.sp_min_exit
                0x0000000070200324       0x98 /home/auto_jenkins_wlan5/workspace/sdk/auto-release-master/amebasmart_gcc_project/build/project_ap/asdk/make/atf/bl32/entrypoint.o
 *(.text*)
 .text.smc_get_next_ctx
                0x00000000702003bc       0x14 /home/auto_jenkins_wlan5/workspace/sdk/auto-release-master/amebasmart_gcc_project/build/project_ap/asdk/make/atf/bl32/sp_min_main.o
                0x00000000702003bc                smc_get_next_ctx
 .text.cm_get_context
                0x00000000702003d0       0x24 /home/auto_jenkins_wlan5/workspace/sdk/auto-release-master/amebasmart_gcc_project/build/project_ap/asdk/make/atf/bl32/sp_min_main.o
                0x00000000702003d0                cm_get_context
 .text.cm_get_context_by_index
                0x00000000702003f4       0x20 /home/auto_jenkins_wlan5/workspace/sdk/auto-release-master/amebasmart_gcc_project/build/project_ap/asdk/make/atf/bl32/sp_min_main.o
                0x00000000702003f4                cm_get_context_by_index
 .text.cm_set_context_by_index
                0x0000000070200414       0x20 /home/auto_jenkins_wlan5/workspace/sdk/auto-release-master/amebasmart_gcc_project/build/project_ap/asdk/make/atf/bl32/sp_min_main.o
                0x0000000070200414                cm_set_context_by_index
 .text.get_arm_std_svc_args
                0x0000000070200434       0x20 /home/auto_jenkins_wlan5/workspace/sdk/auto-release-master/amebasmart_gcc_project/build/project_ap/asdk/make/atf/bl32/sp_min_main.o
                0x0000000070200434                get_arm_std_svc_args
 .text.sp_min_main
                0x0000000070200454       0xd0 /home/auto_jenkins_wlan5/workspace/sdk/auto-release-master/amebasmart_gcc_project/build/project_ap/asdk/make/atf/bl32/sp_min_main.o
                0x0000000070200454                sp_min_main
 .text.sp_min_warm_boot
                0x0000000070200524       0x84 /home/auto_jenkins_wlan5/workspace/sdk/auto-release-master/amebasmart_gcc_project/build/project_ap/asdk/make/atf/bl32/sp_min_main.o
                0x0000000070200524                sp_min_warm_boot
 .text.handle_runtime_svc
                0x00000000702005a8       0x60 /home/auto_jenkins_wlan5/workspace/sdk/auto-release-master/amebasmart_gcc_project/build/project_ap/asdk/make/atf/bl32/runtime_svc.o
                0x00000000702005a8                handle_runtime_svc
 .text.runtime_svc_init
                0x0000000070200608       0xd8 /home/auto_jenkins_wlan5/workspace/sdk/auto-release-master/amebasmart_gcc_project/build/project_ap/asdk/make/atf/bl32/runtime_svc.o
                0x0000000070200608                runtime_svc_init
 .text.gicd_read_igroupr
                0x00000000702006e0        0xa /home/auto_jenkins_wlan5/workspace/sdk/auto-release-master/amebasmart_gcc_project/build/project_ap/asdk/make/atf/bl32/gic_common.o
                0x00000000702006e0                gicd_read_igroupr
 .text.gicd_read_icfgr
                0x00000000702006ea        0xc /home/auto_jenkins_wlan5/workspace/sdk/auto-release-master/amebasmart_gcc_project/build/project_ap/asdk/make/atf/bl32/gic_common.o
                0x00000000702006ea                gicd_read_icfgr
 .text.gicd_write_igroupr
                0x00000000702006f6        0xa /home/auto_jenkins_wlan5/workspace/sdk/auto-release-master/amebasmart_gcc_project/build/project_ap/asdk/make/atf/bl32/gic_common.o
                0x00000000702006f6                gicd_write_igroupr
 .text.gicd_write_isenabler
                0x0000000070200700        0xc /home/auto_jenkins_wlan5/workspace/sdk/auto-release-master/amebasmart_gcc_project/build/project_ap/asdk/make/atf/bl32/gic_common.o
                0x0000000070200700                gicd_write_isenabler
 .text.gicd_write_icenabler
                0x000000007020070c        0xc /home/auto_jenkins_wlan5/workspace/sdk/auto-release-master/amebasmart_gcc_project/build/project_ap/asdk/make/atf/bl32/gic_common.o
                0x000000007020070c                gicd_write_icenabler
 .text.gicd_write_ipriorityr
                0x0000000070200718        0xc /home/auto_jenkins_wlan5/workspace/sdk/auto-release-master/amebasmart_gcc_project/build/project_ap/asdk/make/atf/bl32/gic_common.o
                0x0000000070200718                gicd_write_ipriorityr
 .text.gicd_write_icfgr
                0x0000000070200724        0xc /home/auto_jenkins_wlan5/workspace/sdk/auto-release-master/amebasmart_gcc_project/build/project_ap/asdk/make/atf/bl32/gic_common.o
                0x0000000070200724                gicd_write_icfgr
 .text.gicd_clr_igroupr
                0x0000000070200730       0x22 /home/auto_jenkins_wlan5/workspace/sdk/auto-release-master/amebasmart_gcc_project/build/project_ap/asdk/make/atf/bl32/gic_common.o
                0x0000000070200730                gicd_clr_igroupr
 .text.gicd_set_isenabler
                0x0000000070200752        0xc /home/auto_jenkins_wlan5/workspace/sdk/auto-release-master/amebasmart_gcc_project/build/project_ap/asdk/make/atf/bl32/gic_common.o
                0x0000000070200752                gicd_set_isenabler
 .text.gicd_set_ipriorityr
                0x000000007020075e        0xa /home/auto_jenkins_wlan5/workspace/sdk/auto-release-master/amebasmart_gcc_project/build/project_ap/asdk/make/atf/bl32/gic_common.o
                0x000000007020075e                gicd_set_ipriorityr
 .text.gicd_set_icfgr
                0x0000000070200768       0x2c /home/auto_jenkins_wlan5/workspace/sdk/auto-release-master/amebasmart_gcc_project/build/project_ap/asdk/make/atf/bl32/gic_common.o
                0x0000000070200768                gicd_set_icfgr
 .text.gicv2_spis_configure_defaults
                0x0000000070200794       0x50 /home/auto_jenkins_wlan5/workspace/sdk/auto-release-master/amebasmart_gcc_project/build/project_ap/asdk/make/atf/bl32/gicv2_helpers.o
                0x0000000070200794                gicv2_spis_configure_defaults
 .text.gicv2_secure_spis_configure_props
                0x00000000702007e4       0x94 /home/auto_jenkins_wlan5/workspace/sdk/auto-release-master/amebasmart_gcc_project/build/project_ap/asdk/make/atf/bl32/gicv2_helpers.o
                0x00000000702007e4                gicv2_secure_spis_configure_props
 .text.gicv2_secure_ppi_sgi_setup_props
                0x0000000070200878       0xb4 /home/auto_jenkins_wlan5/workspace/sdk/auto-release-master/amebasmart_gcc_project/build/project_ap/asdk/make/atf/bl32/gicv2_helpers.o
                0x0000000070200878                gicv2_secure_ppi_sgi_setup_props
 .text.gicv2_cpuif_enable
                0x000000007020092c       0x2c /home/auto_jenkins_wlan5/workspace/sdk/auto-release-master/amebasmart_gcc_project/build/project_ap/asdk/make/atf/bl32/gicv2_main.o
                0x000000007020092c                gicv2_cpuif_enable
 .text.gicv2_pcpu_distif_init
                0x0000000070200958       0x3c /home/auto_jenkins_wlan5/workspace/sdk/auto-release-master/amebasmart_gcc_project/build/project_ap/asdk/make/atf/bl32/gicv2_main.o
                0x0000000070200958                gicv2_pcpu_distif_init
 .text.gicv2_distif_init
                0x0000000070200994       0x44 /home/auto_jenkins_wlan5/workspace/sdk/auto-release-master/amebasmart_gcc_project/build/project_ap/asdk/make/atf/bl32/gicv2_main.o
                0x0000000070200994                gicv2_distif_init
 .text.gicv2_driver_init
                0x00000000702009d8       0x5c /home/auto_jenkins_wlan5/workspace/sdk/auto-release-master/amebasmart_gcc_project/build/project_ap/asdk/make/atf/bl32/gicv2_main.o
                0x00000000702009d8                gicv2_driver_init
 .text.errata_needs_reporting
                0x0000000070200a34       0x2c /home/auto_jenkins_wlan5/workspace/sdk/auto-release-master/amebasmart_gcc_project/build/project_ap/asdk/make/atf/bl32/errata_report.o
                0x0000000070200a34                errata_needs_reporting
 .text.cm_setup_context
                0x0000000070200a60       0x78 /home/auto_jenkins_wlan5/workspace/sdk/auto-release-master/amebasmart_gcc_project/build/project_ap/asdk/make/atf/bl32/context_mgmt.o
                0x0000000070200a60                cm_setup_context
 .text.cm_init_context_by_index
                0x0000000070200ad8       0x18 /home/auto_jenkins_wlan5/workspace/sdk/auto-release-master/amebasmart_gcc_project/build/project_ap/asdk/make/atf/bl32/context_mgmt.o
                0x0000000070200ad8                cm_init_context_by_index
 .text.cm_init_my_context
                0x0000000070200af0       0x18 /home/auto_jenkins_wlan5/workspace/sdk/auto-release-master/amebasmart_gcc_project/build/project_ap/asdk/make/atf/bl32/context_mgmt.o
                0x0000000070200af0                cm_init_my_context
 .text.cm_prepare_el3_exit
                0x0000000070200b08       0xb8 /home/auto_jenkins_wlan5/workspace/sdk/auto-release-master/amebasmart_gcc_project/build/project_ap/asdk/make/atf/bl32/context_mgmt.o
                0x0000000070200b08                cm_prepare_el3_exit
 .text.bakery_lock_get
                0x0000000070200bc0       0x84 /home/auto_jenkins_wlan5/workspace/sdk/auto-release-master/amebasmart_gcc_project/build/project_ap/asdk/make/atf/bl32/bakery_lock_coherent.o
                0x0000000070200bc0                bakery_lock_get
 .text.bakery_lock_release
                0x0000000070200c44       0x3c /home/auto_jenkins_wlan5/workspace/sdk/auto-release-master/amebasmart_gcc_project/build/project_ap/asdk/make/atf/bl32/bakery_lock_coherent.o
                0x0000000070200c44                bakery_lock_release
 .text.psci_set_req_local_pwr_state
                0x0000000070200c80       0x30 /home/auto_jenkins_wlan5/workspace/sdk/auto-release-master/amebasmart_gcc_project/build/project_ap/asdk/make/atf/bl32/psci_common.o
 .text.psci_validate_power_state
                0x0000000070200cb0       0x30 /home/auto_jenkins_wlan5/workspace/sdk/auto-release-master/amebasmart_gcc_project/build/project_ap/asdk/make/atf/bl32/psci_common.o
                0x0000000070200cb0                psci_validate_power_state
 .text.psci_query_sys_suspend_pwrstate
                0x0000000070200ce0       0x20 /home/auto_jenkins_wlan5/workspace/sdk/auto-release-master/amebasmart_gcc_project/build/project_ap/asdk/make/atf/bl32/psci_common.o
                0x0000000070200ce0                psci_query_sys_suspend_pwrstate
 .text.psci_is_last_on_cpu
                0x0000000070200d00       0x48 /home/auto_jenkins_wlan5/workspace/sdk/auto-release-master/amebasmart_gcc_project/build/project_ap/asdk/make/atf/bl32/psci_common.o
                0x0000000070200d00                psci_is_last_on_cpu
 .text.psci_init_req_local_pwr_states
                0x0000000070200d48       0x28 /home/auto_jenkins_wlan5/workspace/sdk/auto-release-master/amebasmart_gcc_project/build/project_ap/asdk/make/atf/bl32/psci_common.o
                0x0000000070200d48                psci_init_req_local_pwr_states
 .text.psci_get_target_local_pwr_states
                0x0000000070200d70       0x48 /home/auto_jenkins_wlan5/workspace/sdk/auto-release-master/amebasmart_gcc_project/build/project_ap/asdk/make/atf/bl32/psci_common.o
                0x0000000070200d70                psci_get_target_local_pwr_states
 .text.psci_get_parent_pwr_domain_nodes
                0x0000000070200db8       0x2c /home/auto_jenkins_wlan5/workspace/sdk/auto-release-master/amebasmart_gcc_project/build/project_ap/asdk/make/atf/bl32/psci_common.o
                0x0000000070200db8                psci_get_parent_pwr_domain_nodes
 .text.psci_set_pwr_domains_to_run
                0x0000000070200de4       0x64 /home/auto_jenkins_wlan5/workspace/sdk/auto-release-master/amebasmart_gcc_project/build/project_ap/asdk/make/atf/bl32/psci_common.o
                0x0000000070200de4                psci_set_pwr_domains_to_run
 .text.psci_do_state_coordination
                0x0000000070200e48       0xe4 /home/auto_jenkins_wlan5/workspace/sdk/auto-release-master/amebasmart_gcc_project/build/project_ap/asdk/make/atf/bl32/psci_common.o
                0x0000000070200e48                psci_do_state_coordination
 .text.psci_find_max_off_lvl
                0x0000000070200f2c       0x20 /home/auto_jenkins_wlan5/workspace/sdk/auto-release-master/amebasmart_gcc_project/build/project_ap/asdk/make/atf/bl32/psci_common.o
                0x0000000070200f2c                psci_find_max_off_lvl
 .text.psci_find_target_suspend_lvl
                0x0000000070200f4c       0x1c /home/auto_jenkins_wlan5/workspace/sdk/auto-release-master/amebasmart_gcc_project/build/project_ap/asdk/make/atf/bl32/psci_common.o
                0x0000000070200f4c                psci_find_target_suspend_lvl
 .text.psci_validate_suspend_req
                0x0000000070200f68       0x52 /home/auto_jenkins_wlan5/workspace/sdk/auto-release-master/amebasmart_gcc_project/build/project_ap/asdk/make/atf/bl32/psci_common.o
                0x0000000070200f68                psci_validate_suspend_req
 *fill*         0x0000000070200fba        0x2 
 .text.psci_acquire_pwr_domain_locks
                0x0000000070200fbc       0x38 /home/auto_jenkins_wlan5/workspace/sdk/auto-release-master/amebasmart_gcc_project/build/project_ap/asdk/make/atf/bl32/psci_common.o
                0x0000000070200fbc                psci_acquire_pwr_domain_locks
 .text.psci_release_pwr_domain_locks
                0x0000000070200ff4       0x30 /home/auto_jenkins_wlan5/workspace/sdk/auto-release-master/amebasmart_gcc_project/build/project_ap/asdk/make/atf/bl32/psci_common.o
                0x0000000070200ff4                psci_release_pwr_domain_locks
 .text.psci_validate_mpidr
                0x0000000070201024       0x12 /home/auto_jenkins_wlan5/workspace/sdk/auto-release-master/amebasmart_gcc_project/build/project_ap/asdk/make/atf/bl32/psci_common.o
                0x0000000070201024                psci_validate_mpidr
 *fill*         0x0000000070201036        0x2 
 .text.psci_validate_entry_point
                0x0000000070201038       0x94 /home/auto_jenkins_wlan5/workspace/sdk/auto-release-master/amebasmart_gcc_project/build/project_ap/asdk/make/atf/bl32/psci_common.o
                0x0000000070201038                psci_validate_entry_point
 .text.psci_warmboot_entrypoint
                0x00000000702010cc       0x9c /home/auto_jenkins_wlan5/workspace/sdk/auto-release-master/amebasmart_gcc_project/build/project_ap/asdk/make/atf/bl32/psci_common.o
                0x00000000702010cc                psci_warmboot_entrypoint
 .text.psci_spd_migrate_info
                0x0000000070201168       0x2c /home/auto_jenkins_wlan5/workspace/sdk/auto-release-master/amebasmart_gcc_project/build/project_ap/asdk/make/atf/bl32/psci_common.o
                0x0000000070201168                psci_spd_migrate_info
 .text.psci_print_power_domain_map
                0x0000000070201194       0xb4 /home/auto_jenkins_wlan5/workspace/sdk/auto-release-master/amebasmart_gcc_project/build/project_ap/asdk/make/atf/bl32/psci_common.o
                0x0000000070201194                psci_print_power_domain_map
 .text.psci_do_pwrdown_sequence
                0x0000000070201248        0x4 /home/auto_jenkins_wlan5/workspace/sdk/auto-release-master/amebasmart_gcc_project/build/project_ap/asdk/make/atf/bl32/psci_common.o
                0x0000000070201248                psci_do_pwrdown_sequence
 .text.psci_cpu_on
                0x000000007020124c       0x2e /home/auto_jenkins_wlan5/workspace/sdk/auto-release-master/amebasmart_gcc_project/build/project_ap/asdk/make/atf/bl32/psci_main.o
                0x000000007020124c                psci_cpu_on
 *fill*         0x000000007020127a        0x2 
 .text.psci_cpu_suspend
                0x000000007020127c       0xc4 /home/auto_jenkins_wlan5/workspace/sdk/auto-release-master/amebasmart_gcc_project/build/project_ap/asdk/make/atf/bl32/psci_main.o
                0x000000007020127c                psci_cpu_suspend
 .text.psci_system_suspend
                0x0000000070201340       0x68 /home/auto_jenkins_wlan5/workspace/sdk/auto-release-master/amebasmart_gcc_project/build/project_ap/asdk/make/atf/bl32/psci_main.o
                0x0000000070201340                psci_system_suspend
 .text.psci_cpu_off
                0x00000000702013a8       0x1c /home/auto_jenkins_wlan5/workspace/sdk/auto-release-master/amebasmart_gcc_project/build/project_ap/asdk/make/atf/bl32/psci_main.o
                0x00000000702013a8                psci_cpu_off
 .text.psci_affinity_info
                0x00000000702013c4       0x2a /home/auto_jenkins_wlan5/workspace/sdk/auto-release-master/amebasmart_gcc_project/build/project_ap/asdk/make/atf/bl32/psci_main.o
                0x00000000702013c4                psci_affinity_info
 *fill*         0x00000000702013ee        0x2 
 .text.psci_migrate
                0x00000000702013f0       0x74 /home/auto_jenkins_wlan5/workspace/sdk/auto-release-master/amebasmart_gcc_project/build/project_ap/asdk/make/atf/bl32/psci_main.o
                0x00000000702013f0                psci_migrate
 .text.psci_migrate_info_type
                0x0000000070201464        0xe /home/auto_jenkins_wlan5/workspace/sdk/auto-release-master/amebasmart_gcc_project/build/project_ap/asdk/make/atf/bl32/psci_main.o
                0x0000000070201464                psci_migrate_info_type
 .text.psci_migrate_info_up_cpu
                0x0000000070201472       0x1a /home/auto_jenkins_wlan5/workspace/sdk/auto-release-master/amebasmart_gcc_project/build/project_ap/asdk/make/atf/bl32/psci_main.o
                0x0000000070201472                psci_migrate_info_up_cpu
 .text.psci_node_hw_state
                0x000000007020148c       0x48 /home/auto_jenkins_wlan5/workspace/sdk/auto-release-master/amebasmart_gcc_project/build/project_ap/asdk/make/atf/bl32/psci_main.o
                0x000000007020148c                psci_node_hw_state
 .text.psci_features
                0x00000000702014d4       0x60 /home/auto_jenkins_wlan5/workspace/sdk/auto-release-master/amebasmart_gcc_project/build/project_ap/asdk/make/atf/bl32/psci_main.o
                0x00000000702014d4                psci_features
 .text.psci_smc_handler
                0x0000000070201534      0x134 /home/auto_jenkins_wlan5/workspace/sdk/auto-release-master/amebasmart_gcc_project/build/project_ap/asdk/make/atf/bl32/psci_main.o
                0x0000000070201534                psci_smc_handler
 .text.psci_mem_protect
                0x0000000070201668       0x4c /home/auto_jenkins_wlan5/workspace/sdk/auto-release-master/amebasmart_gcc_project/build/project_ap/asdk/make/atf/bl32/psci_mem_protect.o
                0x0000000070201668                psci_mem_protect
 .text.psci_mem_chk_range
                0x00000000702016b4       0x34 /home/auto_jenkins_wlan5/workspace/sdk/auto-release-master/amebasmart_gcc_project/build/project_ap/asdk/make/atf/bl32/psci_mem_protect.o
                0x00000000702016b4                psci_mem_chk_range
 .text.psci_do_cpu_off
                0x00000000702016e8       0xc4 /home/auto_jenkins_wlan5/workspace/sdk/auto-release-master/amebasmart_gcc_project/build/project_ap/asdk/make/atf/bl32/psci_off.o
                0x00000000702016e8                psci_do_cpu_off
 .text.psci_cpu_on_start
                0x00000000702017ac      0x130 /home/auto_jenkins_wlan5/workspace/sdk/auto-release-master/amebasmart_gcc_project/build/project_ap/asdk/make/atf/bl32/psci_on.o
                0x00000000702017ac                psci_cpu_on_start
 .text.psci_cpu_on_finish
                0x00000000702018dc       0x9c /home/auto_jenkins_wlan5/workspace/sdk/auto-release-master/amebasmart_gcc_project/build/project_ap/asdk/make/atf/bl32/psci_on.o
                0x00000000702018dc                psci_cpu_on_finish
 .text.psci_arch_setup
                0x0000000070201978       0x16 /home/auto_jenkins_wlan5/workspace/sdk/auto-release-master/amebasmart_gcc_project/build/project_ap/asdk/make/atf/bl32/psci_setup.o
                0x0000000070201978                psci_arch_setup
 *fill*         0x000000007020198e        0x2 
 .text.psci_setup
                0x0000000070201990      0x22c /home/auto_jenkins_wlan5/workspace/sdk/auto-release-master/amebasmart_gcc_project/build/project_ap/asdk/make/atf/bl32/psci_setup.o
                0x0000000070201990                psci_setup
 .text.psci_prepare_next_non_secure_ctx
                0x0000000070201bbc       0x24 /home/auto_jenkins_wlan5/workspace/sdk/auto-release-master/amebasmart_gcc_project/build/project_ap/asdk/make/atf/bl32/psci_setup.o
                0x0000000070201bbc                psci_prepare_next_non_secure_ctx
 .text.psci_cpu_suspend_start
                0x0000000070201be0      0x104 /home/auto_jenkins_wlan5/workspace/sdk/auto-release-master/amebasmart_gcc_project/build/project_ap/asdk/make/atf/bl32/psci_suspend.o
                0x0000000070201be0                psci_cpu_suspend_start
 .text.psci_cpu_suspend_finish
                0x0000000070201ce4       0x8c /home/auto_jenkins_wlan5/workspace/sdk/auto-release-master/amebasmart_gcc_project/build/project_ap/asdk/make/atf/bl32/psci_suspend.o
                0x0000000070201ce4                psci_cpu_suspend_finish
 .text.psci_system_off
                0x0000000070201d70       0x38 /home/auto_jenkins_wlan5/workspace/sdk/auto-release-master/amebasmart_gcc_project/build/project_ap/asdk/make/atf/bl32/psci_system_off.o
                0x0000000070201d70                psci_system_off
 .text.psci_system_reset
                0x0000000070201da8       0x38 /home/auto_jenkins_wlan5/workspace/sdk/auto-release-master/amebasmart_gcc_project/build/project_ap/asdk/make/atf/bl32/psci_system_off.o
                0x0000000070201da8                psci_system_reset
 .text.psci_system_reset2
                0x0000000070201de0       0x70 /home/auto_jenkins_wlan5/workspace/sdk/auto-release-master/amebasmart_gcc_project/build/project_ap/asdk/make/atf/bl32/psci_system_off.o
                0x0000000070201de0                psci_system_reset2
 .text.sp_min_plat_runtime_setup
                0x0000000070201e50        0x6 /home/auto_jenkins_wlan5/workspace/sdk/auto-release-master/amebasmart_gcc_project/build/project_ap/asdk/make/atf/bl32/plat_sp_min_common.o
                0x0000000070201e50                sp_min_plat_runtime_setup
 *fill*         0x0000000070201e56        0x2 
 .text.plat_get_target_pwr_state
                0x0000000070201e58       0x24 /home/auto_jenkins_wlan5/workspace/sdk/auto-release-master/amebasmart_gcc_project/build/project_ap/asdk/make/atf/bl32/plat_psci_common.o
                0x0000000070201e58                plat_get_target_pwr_state
 .text.rtk_secure_service
                0x0000000070201e7c       0x20 /home/auto_jenkins_wlan5/workspace/sdk/auto-release-master/amebasmart_gcc_project/build/project_ap/asdk/make/atf/bl32/bsec_svc.o
                0x0000000070201e7c                rtk_secure_service
 .text.rtk_smc_setup
                0x0000000070201e9c        0x4 /home/auto_jenkins_wlan5/workspace/sdk/auto-release-master/amebasmart_gcc_project/build/project_ap/asdk/make/atf/bl32/rtk_svc_setup.o
 .text.matter_secure_smc_handler
                0x0000000070201ea0       0x10 /home/auto_jenkins_wlan5/workspace/sdk/auto-release-master/amebasmart_gcc_project/build/project_ap/asdk/make/atf/bl32/rtk_svc_setup.o
                0x0000000070201ea0                matter_secure_smc_handler
 .text.rtk_smc_handler
                0x0000000070201eb0       0x58 /home/auto_jenkins_wlan5/workspace/sdk/auto-release-master/amebasmart_gcc_project/build/project_ap/asdk/make/atf/bl32/rtk_svc_setup.o
 .text.plat_sheipa_gic_driver_init
                0x0000000070201f08        0xc /home/auto_jenkins_wlan5/workspace/sdk/auto-release-master/amebasmart_gcc_project/build/project_ap/asdk/make/atf/bl32/sheipa_gic.o
                0x0000000070201f08                plat_sheipa_gic_driver_init
 .text.plat_sheipa_gic_init
                0x0000000070201f14       0x12 /home/auto_jenkins_wlan5/workspace/sdk/auto-release-master/amebasmart_gcc_project/build/project_ap/asdk/make/atf/bl32/sheipa_gic.o
                0x0000000070201f14                plat_sheipa_gic_init
 .text.plat_sheipa_gic_cpuif_enable
                0x0000000070201f26        0x4 /home/auto_jenkins_wlan5/workspace/sdk/auto-release-master/amebasmart_gcc_project/build/project_ap/asdk/make/atf/bl32/sheipa_gic.o
                0x0000000070201f26                plat_sheipa_gic_cpuif_enable
 .text.plat_sheipa_gic_pcpu_init
                0x0000000070201f2a        0x4 /home/auto_jenkins_wlan5/workspace/sdk/auto-release-master/amebasmart_gcc_project/build/project_ap/asdk/make/atf/bl32/sheipa_gic.o
                0x0000000070201f2a                plat_sheipa_gic_pcpu_init
 *fill*         0x0000000070201f2e        0x2 
 .text.sp_min_plat_get_bl33_ep_info
                0x0000000070201f30       0x10 /home/auto_jenkins_wlan5/workspace/sdk/auto-release-master/amebasmart_gcc_project/build/project_ap/asdk/make/atf/bl32/sp_min_setup.o
                0x0000000070201f30                sp_min_plat_get_bl33_ep_info
 .text.sp_min_early_platform_setup2
                0x0000000070201f40       0x5c /home/auto_jenkins_wlan5/workspace/sdk/auto-release-master/amebasmart_gcc_project/build/project_ap/asdk/make/atf/bl32/sp_min_setup.o
                0x0000000070201f40                sp_min_early_platform_setup2
 .text.sp_min_plat_arch_setup
                0x0000000070201f9c       0x44 /home/auto_jenkins_wlan5/workspace/sdk/auto-release-master/amebasmart_gcc_project/build/project_ap/asdk/make/atf/bl32/sp_min_setup.o
                0x0000000070201f9c                sp_min_plat_arch_setup
 .text.sp_min_platform_setup
                0x0000000070201fe0        0xe /home/auto_jenkins_wlan5/workspace/sdk/auto-release-master/amebasmart_gcc_project/build/project_ap/asdk/make/atf/bl32/sp_min_setup.o
                0x0000000070201fe0                sp_min_platform_setup
 .text.plat_get_syscnt_freq2
                0x0000000070201fee        0x6 /home/auto_jenkins_wlan5/workspace/sdk/auto-release-master/amebasmart_gcc_project/build/project_ap/asdk/make/atf/bl32/sp_min_setup.o
                0x0000000070201fee                plat_get_syscnt_freq2
 .text.plat_get_power_domain_tree_desc
                0x0000000070201ff4        0x8 /home/auto_jenkins_wlan5/workspace/sdk/auto-release-master/amebasmart_gcc_project/build/project_ap/asdk/make/atf/bl32/topology.o
                0x0000000070201ff4                plat_get_power_domain_tree_desc
 .text.plat_core_pos_by_mpidr
                0x0000000070201ffc       0x20 /home/auto_jenkins_wlan5/workspace/sdk/auto-release-master/amebasmart_gcc_project/build/project_ap/asdk/make/atf/bl32/topology.o
                0x0000000070201ffc                plat_core_pos_by_mpidr
 .text.std_svc_smc_handler
                0x000000007020201c       0x7c /home/auto_jenkins_wlan5/workspace/sdk/auto-release-master/amebasmart_gcc_project/build/project_ap/asdk/make/atf/bl32/std_svc_setup.o
 .text.std_svc_setup
                0x0000000070202098       0x24 /home/auto_jenkins_wlan5/workspace/sdk/auto-release-master/amebasmart_gcc_project/build/project_ap/asdk/make/atf/bl32/std_svc_setup.o
 .text.tf_log   0x00000000702020bc       0x5c /home/auto_jenkins_wlan5/workspace/sdk/auto-release-master/amebasmart_gcc_project/build/project_ap/asdk/make/atf/bl32/tf_log.o
                0x00000000702020bc                tf_log
 .text.console_is_registered
                0x0000000070202118       0x2c /home/auto_jenkins_wlan5/workspace/sdk/auto-release-master/amebasmart_gcc_project/build/project_ap/asdk/make/atf/bl32/multi_console.o
                0x0000000070202118                console_is_registered
 .text.console_register
                0x0000000070202144       0x40 /home/auto_jenkins_wlan5/workspace/sdk/auto-release-master/amebasmart_gcc_project/build/project_ap/asdk/make/atf/bl32/multi_console.o
                0x0000000070202144                console_register
 .text.console_switch_state
                0x0000000070202184        0xc /home/auto_jenkins_wlan5/workspace/sdk/auto-release-master/amebasmart_gcc_project/build/project_ap/asdk/make/atf/bl32/multi_console.o
                0x0000000070202184                console_switch_state
 .text.console_set_scope
                0x0000000070202190       0x1c /home/auto_jenkins_wlan5/workspace/sdk/auto-release-master/amebasmart_gcc_project/build/project_ap/asdk/make/atf/bl32/multi_console.o
                0x0000000070202190                console_set_scope
 .text.console_putc
                0x00000000702021ac       0x58 /home/auto_jenkins_wlan5/workspace/sdk/auto-release-master/amebasmart_gcc_project/build/project_ap/asdk/make/atf/bl32/multi_console.o
                0x00000000702021ac                console_putc
 .text.console_flush
                0x0000000070202204       0x40 /home/auto_jenkins_wlan5/workspace/sdk/auto-release-master/amebasmart_gcc_project/build/project_ap/asdk/make/atf/bl32/multi_console.o
                0x0000000070202204                console_flush
 .text.plat_log_get_prefix
                0x0000000070202244       0x24 /home/auto_jenkins_wlan5/workspace/sdk/auto-release-master/amebasmart_gcc_project/build/project_ap/asdk/make/atf/bl32/plat_log_common.o
                0x0000000070202244                plat_log_get_prefix
 .text.bl32_plat_enable_mmu
                0x0000000070202268        0x4 /home/auto_jenkins_wlan5/workspace/sdk/auto-release-master/amebasmart_gcc_project/build/project_ap/asdk/make/atf/bl32/plat_common.o
                0x0000000070202268                bl32_plat_enable_mmu
 .text.__ctzdi2
                0x000000007020226c       0x20 /home/auto_jenkins_wlan5/workspace/sdk/auto-release-master/amebasmart_gcc_project/build/project_ap/asdk/make/atf/bl32/ctzdi2.o
                0x000000007020226c                __ctzdi2
 .text.__udivmoddi4
                0x000000007020228c      0x17c /home/auto_jenkins_wlan5/workspace/sdk/auto-release-master/amebasmart_gcc_project/build/project_ap/asdk/make/atf/bl32/udivmoddi4.o
                0x000000007020228c                __udivmoddi4
 .text.sheipa_configure_mmu_svc_mon
                0x0000000070202408       0x70 /home/auto_jenkins_wlan5/workspace/sdk/auto-release-master/amebasmart_gcc_project/build/project_ap/asdk/make/atf/bl32/sheipa_common.o
                0x0000000070202408                sheipa_configure_mmu_svc_mon
 .text.sheipa_console_init
                0x0000000070202478       0x2c /home/auto_jenkins_wlan5/workspace/sdk/auto-release-master/amebasmart_gcc_project/build/project_ap/asdk/make/atf/bl32/sheipa_console_setup.o
                0x0000000070202478                sheipa_console_init
 .text.plat_sheipa_pm_get_ns_dram0_base
                0x00000000702024a4        0x8 /home/auto_jenkins_wlan5/workspace/sdk/auto-release-master/amebasmart_gcc_project/build/project_ap/asdk/make/atf/bl32/sheipa_pm_ext.o
                0x00000000702024a4                plat_sheipa_pm_get_ns_dram0_base
 .text.plat_sheipa_pm_get_ns_dram0_size
                0x00000000702024ac        0x6 /home/auto_jenkins_wlan5/workspace/sdk/auto-release-master/amebasmart_gcc_project/build/project_ap/asdk/make/atf/bl32/sheipa_pm_ext.o
                0x00000000702024ac                plat_sheipa_pm_get_ns_dram0_size
 *fill*         0x00000000702024b2        0x2 
 .text.plat_sheipa_pm_get_trusted_mailbox_base
                0x00000000702024b4        0x8 /home/auto_jenkins_wlan5/workspace/sdk/auto-release-master/amebasmart_gcc_project/build/project_ap/asdk/make/atf/bl32/sheipa_pm_ext.o
                0x00000000702024b4                plat_sheipa_pm_get_trusted_mailbox_base
 .text.plat_sheipa_pm_get_hold_base
                0x00000000702024bc        0x8 /home/auto_jenkins_wlan5/workspace/sdk/auto-release-master/amebasmart_gcc_project/build/project_ap/asdk/make/atf/bl32/sheipa_pm_ext.o
                0x00000000702024bc                plat_sheipa_pm_get_hold_base
 .text.plat_sheipa_pm_get_warm_boot_base
                0x00000000702024c4        0x8 /home/auto_jenkins_wlan5/workspace/sdk/auto-release-master/amebasmart_gcc_project/build/project_ap/asdk/make/atf/bl32/sheipa_pm_ext.o
                0x00000000702024c4                plat_sheipa_pm_get_warm_boot_base
 .text.xlat_arch_get_max_supported_pa
                0x00000000702024cc        0x8 /home/auto_jenkins_wlan5/workspace/sdk/auto-release-master/amebasmart_gcc_project/build/project_ap/asdk/make/atf/bl32/xlat_tables_arch.o
                0x00000000702024cc                xlat_arch_get_max_supported_pa
 .text.xlat_get_min_virt_addr_space_size
                0x00000000702024d4        0x6 /home/auto_jenkins_wlan5/workspace/sdk/auto-release-master/amebasmart_gcc_project/build/project_ap/asdk/make/atf/bl32/xlat_tables_arch.o
                0x00000000702024d4                xlat_get_min_virt_addr_space_size
 .text.is_dcache_enabled
                0x00000000702024da       0x1c /home/auto_jenkins_wlan5/workspace/sdk/auto-release-master/amebasmart_gcc_project/build/project_ap/asdk/make/atf/bl32/xlat_tables_arch.o
                0x00000000702024da                is_dcache_enabled
 *fill*         0x00000000702024f6        0x2 
 .text.xlat_arch_regime_get_xn_desc
                0x00000000702024f8       0x28 /home/auto_jenkins_wlan5/workspace/sdk/auto-release-master/amebasmart_gcc_project/build/project_ap/asdk/make/atf/bl32/xlat_tables_arch.o
                0x00000000702024f8                xlat_arch_regime_get_xn_desc
 .text.xlat_arch_current_el
                0x0000000070202520       0x3c /home/auto_jenkins_wlan5/workspace/sdk/auto-release-master/amebasmart_gcc_project/build/project_ap/asdk/make/atf/bl32/xlat_tables_arch.o
                0x0000000070202520                xlat_arch_current_el
 .text.is_mmu_enabled_ctx
                0x000000007020255c       0x40 /home/auto_jenkins_wlan5/workspace/sdk/auto-release-master/amebasmart_gcc_project/build/project_ap/asdk/make/atf/bl32/xlat_tables_arch.o
                0x000000007020255c                is_mmu_enabled_ctx
 .text.setup_mmu_cfg
                0x000000007020259c       0xac /home/auto_jenkins_wlan5/workspace/sdk/auto-release-master/amebasmart_gcc_project/build/project_ap/asdk/make/atf/bl32/xlat_tables_arch.o
                0x000000007020259c                setup_mmu_cfg
 .text.mmap_add_region
                0x0000000070202648       0x28 /home/auto_jenkins_wlan5/workspace/sdk/auto-release-master/amebasmart_gcc_project/build/project_ap/asdk/make/atf/bl32/xlat_tables_context.o
                0x0000000070202648                mmap_add_region
 .text.mmap_add
                0x0000000070202670        0xc /home/auto_jenkins_wlan5/workspace/sdk/auto-release-master/amebasmart_gcc_project/build/project_ap/asdk/make/atf/bl32/xlat_tables_context.o
                0x0000000070202670                mmap_add
 .text.init_xlat_tables
                0x000000007020267c       0x3c /home/auto_jenkins_wlan5/workspace/sdk/auto-release-master/amebasmart_gcc_project/build/project_ap/asdk/make/atf/bl32/xlat_tables_context.o
                0x000000007020267c                init_xlat_tables
 .text.enable_mmu_svc_mon
                0x00000000702026b8       0x34 /home/auto_jenkins_wlan5/workspace/sdk/auto-release-master/amebasmart_gcc_project/build/project_ap/asdk/make/atf/bl32/xlat_tables_context.o
                0x00000000702026b8                enable_mmu_svc_mon
 .text.xlat_clean_dcache_range
                0x00000000702026ec       0x1a /home/auto_jenkins_wlan5/workspace/sdk/auto-release-master/amebasmart_gcc_project/build/project_ap/asdk/make/atf/bl32/xlat_tables_core.o
 *fill*         0x0000000070202706        0x2 
 .text.xlat_desc
                0x0000000070202708       0xc0 /home/auto_jenkins_wlan5/workspace/sdk/auto-release-master/amebasmart_gcc_project/build/project_ap/asdk/make/atf/bl32/xlat_tables_core.o
                0x0000000070202708                xlat_desc
 .text.xlat_tables_map_region
                0x00000000702027c8      0x184 /home/auto_jenkins_wlan5/workspace/sdk/auto-release-master/amebasmart_gcc_project/build/project_ap/asdk/make/atf/bl32/xlat_tables_core.o
 .text.mmap_add_region_ctx
                0x000000007020294c      0x1f8 /home/auto_jenkins_wlan5/workspace/sdk/auto-release-master/amebasmart_gcc_project/build/project_ap/asdk/make/atf/bl32/xlat_tables_core.o
                0x000000007020294c                mmap_add_region_ctx
 .text.mmap_add_ctx
                0x0000000070202b44       0x18 /home/auto_jenkins_wlan5/workspace/sdk/auto-release-master/amebasmart_gcc_project/build/project_ap/asdk/make/atf/bl32/xlat_tables_core.o
                0x0000000070202b44                mmap_add_ctx
 .text.init_xlat_tables_ctx
                0x0000000070202b5c      0x140 /home/auto_jenkins_wlan5/workspace/sdk/auto-release-master/amebasmart_gcc_project/build/project_ap/asdk/make/atf/bl32/xlat_tables_core.o
                0x0000000070202b5c                init_xlat_tables_ctx
 .text.xlat_mmap_print
                0x0000000070202c9c        0x2 /home/auto_jenkins_wlan5/workspace/sdk/auto-release-master/amebasmart_gcc_project/build/project_ap/asdk/make/atf/bl32/xlat_tables_utils.o
                0x0000000070202c9c                xlat_mmap_print
 .text.xlat_tables_print
                0x0000000070202c9e        0x2 /home/auto_jenkins_wlan5/workspace/sdk/auto-release-master/amebasmart_gcc_project/build/project_ap/asdk/make/atf/bl32/xlat_tables_utils.o
                0x0000000070202c9e                xlat_tables_print
 .text.asm.aem_generic_core_pwr_dwn
                0x0000000070202ca0       0x24 /home/auto_jenkins_wlan5/workspace/sdk/auto-release-master/amebasmart_gcc_project/build/project_ap/asdk/make/atf/bl32/aem_generic.o
 .text.asm.aem_generic_cluster_pwr_dwn
                0x0000000070202cc4       0x24 /home/auto_jenkins_wlan5/workspace/sdk/auto-release-master/amebasmart_gcc_project/build/project_ap/asdk/make/atf/bl32/aem_generic.o
 .text.asm.aem_generic_errata_report
                0x0000000070202ce8        0x4 /home/auto_jenkins_wlan5/workspace/sdk/auto-release-master/amebasmart_gcc_project/build/project_ap/asdk/make/atf/bl32/aem_generic.o
 .text.asm.cortex_a32_disable_smp
                0x0000000070202cec       0x18 /home/auto_jenkins_wlan5/workspace/sdk/auto-release-master/amebasmart_gcc_project/build/project_ap/asdk/make/atf/bl32/cortex_a32.o
 .text.asm.cortex_a32_reset_func
                0x0000000070202d04       0x14 /home/auto_jenkins_wlan5/workspace/sdk/auto-release-master/amebasmart_gcc_project/build/project_ap/asdk/make/atf/bl32/cortex_a32.o
 .text.asm.cortex_a32_core_pwr_dwn
                0x0000000070202d18       0x30 /home/auto_jenkins_wlan5/workspace/sdk/auto-release-master/amebasmart_gcc_project/build/project_ap/asdk/make/atf/bl32/cortex_a32.o
 .text.asm.cortex_a32_cluster_pwr_dwn
                0x0000000070202d48       0x3c /home/auto_jenkins_wlan5/workspace/sdk/auto-release-master/amebasmart_gcc_project/build/project_ap/asdk/make/atf/bl32/cortex_a32.o
 .text.asm.cortex_a32_errata_report
                0x0000000070202d84        0x4 /home/auto_jenkins_wlan5/workspace/sdk/auto-release-master/amebasmart_gcc_project/build/project_ap/asdk/make/atf/bl32/cortex_a32.o
 .text.asm.cortex_a7_disable_smp
                0x0000000070202d88       0x18 /home/auto_jenkins_wlan5/workspace/sdk/auto-release-master/amebasmart_gcc_project/build/project_ap/asdk/make/atf/bl32/cortex_a7.o
 .text.asm.cortex_a7_enable_smp
                0x0000000070202da0       0x14 /home/auto_jenkins_wlan5/workspace/sdk/auto-release-master/amebasmart_gcc_project/build/project_ap/asdk/make/atf/bl32/cortex_a7.o
 .text.asm.cortex_a7_reset_func
                0x0000000070202db4        0x4 /home/auto_jenkins_wlan5/workspace/sdk/auto-release-master/amebasmart_gcc_project/build/project_ap/asdk/make/atf/bl32/cortex_a7.o
 .text.asm.cortex_a7_core_pwr_dwn
                0x0000000070202db8       0x30 /home/auto_jenkins_wlan5/workspace/sdk/auto-release-master/amebasmart_gcc_project/build/project_ap/asdk/make/atf/bl32/cortex_a7.o
 .text.asm.cortex_a7_cluster_pwr_dwn
                0x0000000070202de8       0x34 /home/auto_jenkins_wlan5/workspace/sdk/auto-release-master/amebasmart_gcc_project/build/project_ap/asdk/make/atf/bl32/cortex_a7.o
 .text.asm.cortex_a7_errata_report
                0x0000000070202e1c        0x4 /home/auto_jenkins_wlan5/workspace/sdk/auto-release-master/amebasmart_gcc_project/build/project_ap/asdk/make/atf/bl32/cortex_a7.o
 .text.asm.reset_handler
                0x0000000070202e20       0x38 /home/auto_jenkins_wlan5/workspace/sdk/auto-release-master/amebasmart_gcc_project/build/project_ap/asdk/make/atf/bl32/cpu_helpers.o
                0x0000000070202e20                reset_handler
 .text.asm.prepare_cpu_pwr_dwn
                0x0000000070202e58       0x44 /home/auto_jenkins_wlan5/workspace/sdk/auto-release-master/amebasmart_gcc_project/build/project_ap/asdk/make/atf/bl32/cpu_helpers.o
                0x0000000070202e58                prepare_cpu_pwr_dwn
 .text.asm.init_cpu_ops
                0x0000000070202e9c       0x3c /home/auto_jenkins_wlan5/workspace/sdk/auto-release-master/amebasmart_gcc_project/build/project_ap/asdk/make/atf/bl32/cpu_helpers.o
                0x0000000070202e9c                init_cpu_ops
 .text.asm.get_cpu_ops_ptr
                0x0000000070202ed8       0x44 /home/auto_jenkins_wlan5/workspace/sdk/auto-release-master/amebasmart_gcc_project/build/project_ap/asdk/make/atf/bl32/cpu_helpers.o
                0x0000000070202ed8                get_cpu_ops_ptr
 .text.asm.print_errata_status
                0x0000000070202f1c       0x34 /home/auto_jenkins_wlan5/workspace/sdk/auto-release-master/amebasmart_gcc_project/build/project_ap/asdk/make/atf/bl32/cpu_helpers.o
                0x0000000070202f1c                print_errata_status
 .text.asm._cpu_data
                0x0000000070202f50       0x10 /home/auto_jenkins_wlan5/workspace/sdk/auto-release-master/amebasmart_gcc_project/build/project_ap/asdk/make/atf/bl32/cpu_data.o
                0x0000000070202f50                _cpu_data
 .text.asm._cpu_data_by_index
                0x0000000070202f60       0x18 /home/auto_jenkins_wlan5/workspace/sdk/auto-release-master/amebasmart_gcc_project/build/project_ap/asdk/make/atf/bl32/cpu_data.o
                0x0000000070202f60                _cpu_data_by_index
 .text.asm.spin_lock
                0x0000000070202f78       0x24 /home/auto_jenkins_wlan5/workspace/sdk/auto-release-master/amebasmart_gcc_project/build/project_ap/asdk/make/atf/bl32/spinlock.o
                0x0000000070202f78                spin_lock
 .text.asm.spin_unlock
                0x0000000070202f9c        0xc /home/auto_jenkins_wlan5/workspace/sdk/auto-release-master/amebasmart_gcc_project/build/project_ap/asdk/make/atf/bl32/spinlock.o
                0x0000000070202f9c                spin_unlock
 .text.asm.psci_do_pwrdown_cache_maintenance
                0x0000000070202fa8       0x18 /home/auto_jenkins_wlan5/workspace/sdk/auto-release-master/amebasmart_gcc_project/build/project_ap/asdk/make/atf/bl32/psci_helpers.o
                0x0000000070202fa8                psci_do_pwrdown_cache_maintenance
 .text.asm.psci_do_pwrup_cache_maintenance
                0x0000000070202fc0       0x30 /home/auto_jenkins_wlan5/workspace/sdk/auto-release-master/amebasmart_gcc_project/build/project_ap/asdk/make/atf/bl32/psci_helpers.o
                0x0000000070202fc0                psci_do_pwrup_cache_maintenance
 .text.asm.do_stack_maintenance
                0x0000000070202ff0       0x3c /home/auto_jenkins_wlan5/workspace/sdk/auto-release-master/amebasmart_gcc_project/build/project_ap/asdk/make/atf/bl32/psci_helpers.o
 .text.asm.psci_power_down_wfi
                0x000000007020302c       0x10 /home/auto_jenkins_wlan5/workspace/sdk/auto-release-master/amebasmart_gcc_project/build/project_ap/asdk/make/atf/bl32/psci_helpers.o
                0x000000007020302c                psci_power_down_wfi
 .text.asm.plat_get_my_stack
                0x000000007020303c       0x1c /home/auto_jenkins_wlan5/workspace/sdk/auto-release-master/amebasmart_gcc_project/build/project_ap/asdk/make/atf/bl32/platform_mp_stack.o
                0x000000007020303c                plat_get_my_stack
 .text.asm.plat_set_my_stack
                0x0000000070203058       0x20 /home/auto_jenkins_wlan5/workspace/sdk/auto-release-master/amebasmart_gcc_project/build/project_ap/asdk/make/atf/bl32/platform_mp_stack.o
                0x0000000070203058                plat_set_my_stack
 .text.asm.do_panic
                0x0000000070203078       0x3c /home/auto_jenkins_wlan5/workspace/sdk/auto-release-master/amebasmart_gcc_project/build/project_ap/asdk/make/atf/bl32/debug.o
                0x0000000070203078                do_panic
 .text.asm.report_prefetch_abort
                0x00000000702030b4       0x10 /home/auto_jenkins_wlan5/workspace/sdk/auto-release-master/amebasmart_gcc_project/build/project_ap/asdk/make/atf/bl32/debug.o
                0x00000000702030b4                report_prefetch_abort
 .text.asm.report_data_abort
                0x00000000702030c4       0x10 /home/auto_jenkins_wlan5/workspace/sdk/auto-release-master/amebasmart_gcc_project/build/project_ap/asdk/make/atf/bl32/debug.o
                0x00000000702030c4                report_data_abort
 .text.asm.asm_assert
                0x00000000702030d4       0x7c /home/auto_jenkins_wlan5/workspace/sdk/auto-release-master/amebasmart_gcc_project/build/project_ap/asdk/make/atf/bl32/debug.o
                0x00000000702030d4                asm_assert
 .text.asm.asm_print_str
                0x0000000070203150       0x1c /home/auto_jenkins_wlan5/workspace/sdk/auto-release-master/amebasmart_gcc_project/build/project_ap/asdk/make/atf/bl32/debug.o
                0x0000000070203150                asm_print_str
 .text.asm.asm_print_hex
                0x000000007020316c       0x34 /home/auto_jenkins_wlan5/workspace/sdk/auto-release-master/amebasmart_gcc_project/build/project_ap/asdk/make/atf/bl32/debug.o
                0x000000007020316c                asm_print_hex
 .text.asm.flush_dcache_range
                0x00000000702031a0       0x3c /home/auto_jenkins_wlan5/workspace/sdk/auto-release-master/amebasmart_gcc_project/build/project_ap/asdk/make/atf/bl32/cache_helpers.o
                0x00000000702031a0                flush_dcache_range
 .text.asm.clean_dcache_range
                0x00000000702031dc       0x3c /home/auto_jenkins_wlan5/workspace/sdk/auto-release-master/amebasmart_gcc_project/build/project_ap/asdk/make/atf/bl32/cache_helpers.o
                0x00000000702031dc                clean_dcache_range
 .text.asm.inv_dcache_range
                0x0000000070203218       0x3c /home/auto_jenkins_wlan5/workspace/sdk/auto-release-master/amebasmart_gcc_project/build/project_ap/asdk/make/atf/bl32/cache_helpers.o
                0x0000000070203218                inv_dcache_range
 .text.asm.do_dcsw_op
                0x0000000070203254       0x9c /home/auto_jenkins_wlan5/workspace/sdk/auto-release-master/amebasmart_gcc_project/build/project_ap/asdk/make/atf/bl32/cache_helpers.o
 .text.asm.dcsw_op_louis
                0x00000000702032f0       0x14 /home/auto_jenkins_wlan5/workspace/sdk/auto-release-master/amebasmart_gcc_project/build/project_ap/asdk/make/atf/bl32/cache_helpers.o
                0x00000000702032f0                dcsw_op_louis
 .text.asm.dcsw_op_all
                0x0000000070203304       0x14 /home/auto_jenkins_wlan5/workspace/sdk/auto-release-master/amebasmart_gcc_project/build/project_ap/asdk/make/atf/bl32/cache_helpers.o
                0x0000000070203304                dcsw_op_all
 .text.asm.dcsw_op_level1
                0x0000000070203318       0x10 /home/auto_jenkins_wlan5/workspace/sdk/auto-release-master/amebasmart_gcc_project/build/project_ap/asdk/make/atf/bl32/cache_helpers.o
                0x0000000070203318                dcsw_op_level1
 .text.asm.dcsw_op_level2
                0x0000000070203328       0x10 /home/auto_jenkins_wlan5/workspace/sdk/auto-release-master/amebasmart_gcc_project/build/project_ap/asdk/make/atf/bl32/cache_helpers.o
                0x0000000070203328                dcsw_op_level2
 .text.asm.zeromem
                0x0000000070203338       0x64 /home/auto_jenkins_wlan5/workspace/sdk/auto-release-master/amebasmart_gcc_project/build/project_ap/asdk/make/atf/bl32/misc_helpers.o
                0x0000000070203338                zeromem
                0x0000000070203338                zero_normalmem
 .text.asm.plat_reset_handler
                0x000000007020339c        0x4 /home/auto_jenkins_wlan5/workspace/sdk/auto-release-master/amebasmart_gcc_project/build/project_ap/asdk/make/atf/bl32/platform_helpers.o
                0x000000007020339c                plat_reset_handler
 .text.asm.plat_disable_acp
                0x00000000702033a0        0x4 /home/auto_jenkins_wlan5/workspace/sdk/auto-release-master/amebasmart_gcc_project/build/project_ap/asdk/make/atf/bl32/platform_helpers.o
                0x00000000702033a0                plat_disable_acp
 .text          0x00000000702033a4       0x24 /home/auto_jenkins_wlan5/workspace/sdk/auto-release-master/amebasmart_gcc_project/build/project_ap/asdk/make/atf/bl32/aeabi_uldivmod.o
                0x00000000702033a4                __aeabi_uldivmod
 .text.asm.plat_my_core_pos
                0x00000000702033c8        0x8 /home/auto_jenkins_wlan5/workspace/sdk/auto-release-master/amebasmart_gcc_project/build/project_ap/asdk/make/atf/bl32/plat_helpers.o
                0x00000000702033c8                plat_my_core_pos
 .text.asm.plat_report_exception
                0x00000000702033d0       0x64 /home/auto_jenkins_wlan5/workspace/sdk/auto-release-master/amebasmart_gcc_project/build/project_ap/asdk/make/atf/bl32/plat_helpers.o
                0x00000000702033d0                plat_report_exception
 .text.asm.plat_report_prefetch_abort
                0x0000000070203434       0x58 /home/auto_jenkins_wlan5/workspace/sdk/auto-release-master/amebasmart_gcc_project/build/project_ap/asdk/make/atf/bl32/plat_helpers.o
                0x0000000070203434                plat_report_prefetch_abort
 .text.asm.plat_report_data_abort
                0x000000007020348c       0x58 /home/auto_jenkins_wlan5/workspace/sdk/auto-release-master/amebasmart_gcc_project/build/project_ap/asdk/make/atf/bl32/plat_helpers.o
                0x000000007020348c                plat_report_data_abort
 .text.asm.plat_sheipa_calc_core_pos
                0x00000000702034e4       0x10 /home/auto_jenkins_wlan5/workspace/sdk/auto-release-master/amebasmart_gcc_project/build/project_ap/asdk/make/atf/bl32/plat_helpers.o
                0x00000000702034e4                plat_sheipa_calc_core_pos
 .text.asm.plat_crash_console_init
                0x00000000702034f4       0x1c /home/auto_jenkins_wlan5/workspace/sdk/auto-release-master/amebasmart_gcc_project/build/project_ap/asdk/make/atf/bl32/plat_helpers.o
                0x00000000702034f4                plat_crash_console_init
 .text.asm.plat_crash_console_putc
                0x0000000070203510        0xc /home/auto_jenkins_wlan5/workspace/sdk/auto-release-master/amebasmart_gcc_project/build/project_ap/asdk/make/atf/bl32/plat_helpers.o
                0x0000000070203510                plat_crash_console_putc
 .text.asm.plat_crash_console_flush
                0x000000007020351c        0xc /home/auto_jenkins_wlan5/workspace/sdk/auto-release-master/amebasmart_gcc_project/build/project_ap/asdk/make/atf/bl32/plat_helpers.o
                0x000000007020351c                plat_crash_console_flush
 .text.asm.plat_panic_handler
                0x0000000070203528       0x14 /home/auto_jenkins_wlan5/workspace/sdk/auto-release-master/amebasmart_gcc_project/build/project_ap/asdk/make/atf/bl32/plat_helpers.o
                0x0000000070203528                plat_panic_handler
 .text.asm.console_core_init
                0x000000007020353c       0x34 /home/auto_jenkins_wlan5/workspace/sdk/auto-release-master/amebasmart_gcc_project/build/project_ap/asdk/make/atf/bl32/sheipa_console.o
                0x000000007020353c                console_core_init
 .text.asm.console_core_register
                0x0000000070203570       0x5c /home/auto_jenkins_wlan5/workspace/sdk/auto-release-master/amebasmart_gcc_project/build/project_ap/asdk/make/atf/bl32/sheipa_console.o
                0x0000000070203570                console_core_register
 .text.asm.console_core_putc
                0x00000000702035cc       0x5c /home/auto_jenkins_wlan5/workspace/sdk/auto-release-master/amebasmart_gcc_project/build/project_ap/asdk/make/atf/bl32/sheipa_console.o
                0x00000000702035cc                console_core_putc
 .text.asm.console_core_getc
                0x0000000070203628       0x30 /home/auto_jenkins_wlan5/workspace/sdk/auto-release-master/amebasmart_gcc_project/build/project_ap/asdk/make/atf/bl32/sheipa_console.o
                0x0000000070203628                console_core_getc
 .text.asm.console_core_flush
                0x0000000070203658        0x8 /home/auto_jenkins_wlan5/workspace/sdk/auto-release-master/amebasmart_gcc_project/build/project_ap/asdk/make/atf/bl32/sheipa_console.o
                0x0000000070203658                console_core_flush
 .text.asm.enable_mmu_direct_svc_mon
                0x0000000070203660       0x80 /home/auto_jenkins_wlan5/workspace/sdk/auto-release-master/amebasmart_gcc_project/build/project_ap/asdk/make/atf/bl32/enable_mmu.o
                0x0000000070203660                enable_mmu_direct_svc_mon
 .text.sheipa_pwr_domain_off
                0x00000000702036e0        0x2 /home/auto_jenkins_wlan5/workspace/sdk/auto-release-master/amebasmart_gcc_project/build/project_ap/asdk/make/atf/lib/libpm.a(sheipa_pm.o)
                0x00000000702036e0                sheipa_pwr_domain_off
 *fill*         0x00000000702036e2        0x2 
 .text.sheipa_pwr_domain_suspend_finish
                0x00000000702036e4       0x24 /home/auto_jenkins_wlan5/workspace/sdk/auto-release-master/amebasmart_gcc_project/build/project_ap/asdk/make/atf/lib/libpm.a(sheipa_pm.o)
                0x00000000702036e4                sheipa_pwr_domain_suspend_finish
 .text.sheipa_pwr_domain_pwr_down_wfi
                0x0000000070203708        0x4 /home/auto_jenkins_wlan5/workspace/sdk/auto-release-master/amebasmart_gcc_project/build/project_ap/asdk/make/atf/lib/libpm.a(sheipa_pm.o)
                0x0000000070203708                sheipa_pwr_domain_pwr_down_wfi
 .text.sheipa_validate_ns_entrypoint
                0x000000007020370c       0x26 /home/auto_jenkins_wlan5/workspace/sdk/auto-release-master/amebasmart_gcc_project/build/project_ap/asdk/make/atf/lib/libpm.a(sheipa_pm.o)
 *fill*         0x0000000070203732        0x2 
 .text.sheipa_system_reset
                0x0000000070203734       0x14 /home/auto_jenkins_wlan5/workspace/sdk/auto-release-master/amebasmart_gcc_project/build/project_ap/asdk/make/atf/lib/libpm.a(sheipa_pm.o)
 .text.sheipa_system_off
                0x0000000070203748       0x14 /home/auto_jenkins_wlan5/workspace/sdk/auto-release-master/amebasmart_gcc_project/build/project_ap/asdk/make/atf/lib/libpm.a(sheipa_pm.o)
 .text.sheipa_pwr_domain_on
                0x000000007020375c       0x1e /home/auto_jenkins_wlan5/workspace/sdk/auto-release-master/amebasmart_gcc_project/build/project_ap/asdk/make/atf/lib/libpm.a(sheipa_pm.o)
 *fill*         0x000000007020377a        0x2 
 .text.sheipa_validate_power_state
                0x000000007020377c       0x3c /home/auto_jenkins_wlan5/workspace/sdk/auto-release-master/amebasmart_gcc_project/build/project_ap/asdk/make/atf/lib/libpm.a(sheipa_pm.o)
 .text.sheipa_cpu_standby
                0x00000000702037b8       0x1c /home/auto_jenkins_wlan5/workspace/sdk/auto-release-master/amebasmart_gcc_project/build/project_ap/asdk/make/atf/lib/libpm.a(sheipa_pm.o)
 .text.sheipa_pwr_domain_on_finish
                0x00000000702037d4       0x20 /home/auto_jenkins_wlan5/workspace/sdk/auto-release-master/amebasmart_gcc_project/build/project_ap/asdk/make/atf/lib/libpm.a(sheipa_pm.o)
                0x00000000702037d4                sheipa_pwr_domain_on_finish
 .text.plat_sheipa_save_mpc
                0x00000000702037f4       0x38 /home/auto_jenkins_wlan5/workspace/sdk/auto-release-master/amebasmart_gcc_project/build/project_ap/asdk/make/atf/lib/libpm.a(sheipa_pm.o)
                0x00000000702037f4                plat_sheipa_save_mpc
 .text.sheipa_pwr_domain_suspend
                0x000000007020382c       0x28 /home/auto_jenkins_wlan5/workspace/sdk/auto-release-master/amebasmart_gcc_project/build/project_ap/asdk/make/atf/lib/libpm.a(sheipa_pm.o)
                0x000000007020382c                sheipa_pwr_domain_suspend
 .text.plat_sheipa_restore_mpc
                0x0000000070203854       0x38 /home/auto_jenkins_wlan5/workspace/sdk/auto-release-master/amebasmart_gcc_project/build/project_ap/asdk/make/atf/lib/libpm.a(sheipa_pm.o)
                0x0000000070203854                plat_sheipa_restore_mpc
 .text.plat_setup_psci_ops
                0x000000007020388c       0x18 /home/auto_jenkins_wlan5/workspace/sdk/auto-release-master/amebasmart_gcc_project/build/project_ap/asdk/make/atf/lib/libpm.a(sheipa_pm.o)
                0x000000007020388c                plat_setup_psci_ops
 .text.__assert
                0x00000000702038a4       0x18 /home/auto_jenkins_wlan5/workspace/sdk/auto-release-master/amebasmart_gcc_project/build/project_ap/asdk/make/atf/lib/libc.a(assert.o)
                0x00000000702038a4                __assert
 .text.memcpy   0x00000000702038bc       0x16 /home/auto_jenkins_wlan5/workspace/sdk/auto-release-master/amebasmart_gcc_project/build/project_ap/asdk/make/atf/lib/libc.a(memcpy.o)
                0x00000000702038bc                memcpy
 .text.memmove  0x00000000702038d2       0x2c /home/auto_jenkins_wlan5/workspace/sdk/auto-release-master/amebasmart_gcc_project/build/project_ap/asdk/make/atf/lib/libc.a(memmove.o)
                0x00000000702038d2                memmove
 .text.memset   0x00000000702038fe       0x10 /home/auto_jenkins_wlan5/workspace/sdk/auto-release-master/amebasmart_gcc_project/build/project_ap/asdk/make/atf/lib/libc.a(memset.o)
                0x00000000702038fe                memset
 .text.unsigned_num_print
                0x000000007020390e       0x80 /home/auto_jenkins_wlan5/workspace/sdk/auto-release-master/amebasmart_gcc_project/build/project_ap/asdk/make/atf/lib/libc.a(printf.o)
 *fill*         0x000000007020398e        0x2 
 .text.vprintf  0x0000000070203990      0x194 /home/auto_jenkins_wlan5/workspace/sdk/auto-release-master/amebasmart_gcc_project/build/project_ap/asdk/make/atf/lib/libc.a(printf.o)
                0x0000000070203990                vprintf
 .text.printf   0x0000000070203b24       0x1a /home/auto_jenkins_wlan5/workspace/sdk/auto-release-master/amebasmart_gcc_project/build/project_ap/asdk/make/atf/lib/libc.a(printf.o)
                0x0000000070203b24                printf
 .text.putchar  0x0000000070203b3e       0x1a /home/auto_jenkins_wlan5/workspace/sdk/auto-release-master/amebasmart_gcc_project/build/project_ap/asdk/make/atf/lib/libc.a(putchar.o)
                0x0000000070203b3e                putchar
 *(.vectors)
 *fill*         0x0000000070203b58        0x8 
 .vectors       0x0000000070203b60       0x20 /home/auto_jenkins_wlan5/workspace/sdk/auto-release-master/amebasmart_gcc_project/build/project_ap/asdk/make/atf/bl32/entrypoint.o
                0x0000000070203b60                sp_min_vector_table
 .vectors.__stub
                0x0000000070203b80       0x40 linker stubs
                0x0000000070204000                . = ALIGN (0x1000)
 *fill*         0x0000000070203bc0      0x440 
                0x0000000070204000                __TEXT_END__ = .

.glue_7         0x0000000070204000        0x0
 .glue_7        0x0000000070204000        0x0 linker stubs

.glue_7t        0x0000000070204000        0x0
 .glue_7t       0x0000000070204000        0x0 linker stubs

.vfp11_veneer   0x0000000070204000        0x0
 .vfp11_veneer  0x0000000070204000        0x0 linker stubs

.v4_bx          0x0000000070204000        0x0
 .v4_bx         0x0000000070204000        0x0 linker stubs

.iplt           0x0000000070204000        0x0
 .iplt          0x0000000070204000        0x0 /home/auto_jenkins_wlan5/workspace/sdk/auto-release-master/amebasmart_gcc_project/build/project_ap/asdk/make/atf/bl32/sp_min_main.o

.ARM.extab
 *(.ARM.extab* .gnu.linkonce.armextab.*)

.ARM.exidx
 *(.ARM.exidx* .gnu.linkonce.armexidx.*)

.rodata         0x0000000070204000     0x1000
                0x0000000070204000                __RODATA_START__ = .
 *(.rodata*)
 .rodata.build_message
                0x0000000070204000       0x1e /home/auto_jenkins_wlan5/workspace/sdk/auto-release-master/amebasmart_gcc_project/build/project_ap/asdk/make/atf/bl32/build_message.o
                0x0000000070204000                build_message
 .rodata.version_string
                0x000000007020401e       0x12 /home/auto_jenkins_wlan5/workspace/sdk/auto-release-master/amebasmart_gcc_project/build/project_ap/asdk/make/atf/bl32/build_message.o
                0x000000007020401e                version_string
 .rodata.smc_get_ctx.str1.1
                0x0000000070204030       0x1a /home/auto_jenkins_wlan5/workspace/sdk/auto-release-master/amebasmart_gcc_project/build/project_ap/asdk/make/atf/bl32/sp_min_main.o
 .rodata.sp_min_main.str1.1
                0x000000007020404a       0x5e /home/auto_jenkins_wlan5/workspace/sdk/auto-release-master/amebasmart_gcc_project/build/project_ap/asdk/make/atf/bl32/sp_min_main.o
 .rodata.psci_args.0
                0x00000000702040a8        0xc /home/auto_jenkins_wlan5/workspace/sdk/auto-release-master/amebasmart_gcc_project/build/project_ap/asdk/make/atf/bl32/sp_min_main.o
 .rodata.handle_runtime_svc.str1.1
                0x00000000702040b4       0x15 /home/auto_jenkins_wlan5/workspace/sdk/auto-release-master/amebasmart_gcc_project/build/project_ap/asdk/make/atf/bl32/runtime_svc.o
 .rodata.runtime_svc_init.str1.1
                0x00000000702040c9       0x50 /home/auto_jenkins_wlan5/workspace/sdk/auto-release-master/amebasmart_gcc_project/build/project_ap/asdk/make/atf/bl32/runtime_svc.o
 .rodata.gicv2_secure_spis_configure_props.str1.1
                0x0000000070204119       0x23 /home/auto_jenkins_wlan5/workspace/sdk/auto-release-master/amebasmart_gcc_project/build/project_ap/asdk/make/atf/bl32/gicv2_helpers.o
 .rodata.gicv2_cpuif_enable.str1.1
                0x000000007020413c       0x20 /home/auto_jenkins_wlan5/workspace/sdk/auto-release-master/amebasmart_gcc_project/build/project_ap/asdk/make/atf/bl32/gicv2_main.o
 .rodata.cm_setup_context.str1.1
                0x000000007020415c       0x27 /home/auto_jenkins_wlan5/workspace/sdk/auto-release-master/amebasmart_gcc_project/build/project_ap/asdk/make/atf/bl32/context_mgmt.o
 .rodata.bakery_lock_get.str1.1
                0x0000000070204183       0x28 /home/auto_jenkins_wlan5/workspace/sdk/auto-release-master/amebasmart_gcc_project/build/project_ap/asdk/make/atf/bl32/bakery_lock_coherent.o
 .rodata.psci_set_req_local_pwr_state.str1.1
                0x00000000702041ab       0x17 /home/auto_jenkins_wlan5/workspace/sdk/auto-release-master/amebasmart_gcc_project/build/project_ap/asdk/make/atf/bl32/psci_common.o
 .rodata.psci_warmboot_entrypoint.str1.1
                0x00000000702041c2       0x22 /home/auto_jenkins_wlan5/workspace/sdk/auto-release-master/amebasmart_gcc_project/build/project_ap/asdk/make/atf/bl32/psci_common.o
 .rodata.psci_print_power_domain_map.str1.1
                0x00000000702041e4       0x91 /home/auto_jenkins_wlan5/workspace/sdk/auto-release-master/amebasmart_gcc_project/build/project_ap/asdk/make/atf/bl32/psci_common.o
 .rodata.str1.1
                0x0000000070204275        0xe /home/auto_jenkins_wlan5/workspace/sdk/auto-release-master/amebasmart_gcc_project/build/project_ap/asdk/make/atf/bl32/psci_common.o
                                         0x11 (size before relaxing)
 .rodata        0x0000000070204283        0x3 /home/auto_jenkins_wlan5/workspace/sdk/auto-release-master/amebasmart_gcc_project/build/project_ap/asdk/make/atf/bl32/psci_common.o
 *fill*         0x0000000070204286        0x2 
 .rodata.psci_state_type_str.0
                0x0000000070204288        0xc /home/auto_jenkins_wlan5/workspace/sdk/auto-release-master/amebasmart_gcc_project/build/project_ap/asdk/make/atf/bl32/psci_common.o
 .rodata.psci_cpu_suspend.str1.1
                0x0000000070204294       0x48 /home/auto_jenkins_wlan5/workspace/sdk/auto-release-master/amebasmart_gcc_project/build/project_ap/asdk/make/atf/bl32/psci_main.o
 .rodata.psci_smc_handler.str1.1
                0x00000000702042dc       0x20 /home/auto_jenkins_wlan5/workspace/sdk/auto-release-master/amebasmart_gcc_project/build/project_ap/asdk/make/atf/bl32/psci_main.o
 .rodata        0x00000000702042fc        0x3 /home/auto_jenkins_wlan5/workspace/sdk/auto-release-master/amebasmart_gcc_project/build/project_ap/asdk/make/atf/bl32/psci_main.o
 .rodata.psci_mem_protect.str1.1
                0x00000000702042ff       0x1c /home/auto_jenkins_wlan5/workspace/sdk/auto-release-master/amebasmart_gcc_project/build/project_ap/asdk/make/atf/bl32/psci_mem_protect.o
 .rodata.psci_do_cpu_off.str1.1
                0x000000007020431b       0x14 /home/auto_jenkins_wlan5/workspace/sdk/auto-release-master/amebasmart_gcc_project/build/project_ap/asdk/make/atf/bl32/psci_off.o
 .rodata.psci_cpu_on_start.str1.1
                0x000000007020432f       0x13 /home/auto_jenkins_wlan5/workspace/sdk/auto-release-master/amebasmart_gcc_project/build/project_ap/asdk/make/atf/bl32/psci_on.o
 .rodata.psci_setup.str1.1
                0x0000000070204342       0x16 /home/auto_jenkins_wlan5/workspace/sdk/auto-release-master/amebasmart_gcc_project/build/project_ap/asdk/make/atf/bl32/psci_setup.o
 .rodata.psci_cpu_suspend_start.str1.1
                0x0000000070204358       0x18 /home/auto_jenkins_wlan5/workspace/sdk/auto-release-master/amebasmart_gcc_project/build/project_ap/asdk/make/atf/bl32/psci_suspend.o
 .rodata.psci_system_off.str1.1
                0x0000000070204370       0x1b /home/auto_jenkins_wlan5/workspace/sdk/auto-release-master/amebasmart_gcc_project/build/project_ap/asdk/make/atf/bl32/psci_system_off.o
 .rodata.plat_get_target_pwr_state.str1.1
                0x000000007020438b       0x1f /home/auto_jenkins_wlan5/workspace/sdk/auto-release-master/amebasmart_gcc_project/build/project_ap/asdk/make/atf/bl32/plat_psci_common.o
 .rodata.rtk_secure_service.str1.1
                0x00000000702043aa       0x13 /home/auto_jenkins_wlan5/workspace/sdk/auto-release-master/amebasmart_gcc_project/build/project_ap/asdk/make/atf/bl32/bsec_svc.o
 .rodata.matter_secure_smc_handler.str1.1
                0x00000000702043bd       0x27 /home/auto_jenkins_wlan5/workspace/sdk/auto-release-master/amebasmart_gcc_project/build/project_ap/asdk/make/atf/bl32/rtk_svc_setup.o
 .rodata.rtk_smc_handler.str1.1
                0x00000000702043e4       0x2d /home/auto_jenkins_wlan5/workspace/sdk/auto-release-master/amebasmart_gcc_project/build/project_ap/asdk/make/atf/bl32/rtk_svc_setup.o
 .rodata.str1.1
                0x0000000070204411        0x8 /home/auto_jenkins_wlan5/workspace/sdk/auto-release-master/amebasmart_gcc_project/build/project_ap/asdk/make/atf/bl32/rtk_svc_setup.o
 *fill*         0x0000000070204419        0x3 
 .rodata.plat_gicv2_driver_data
                0x000000007020441c       0x18 /home/auto_jenkins_wlan5/workspace/sdk/auto-release-master/amebasmart_gcc_project/build/project_ap/asdk/make/atf/bl32/sheipa_gic.o
 .rodata.sp_min_early_platform_setup2.str1.1
                0x0000000070204434       0x2a /home/auto_jenkins_wlan5/workspace/sdk/auto-release-master/amebasmart_gcc_project/build/project_ap/asdk/make/atf/bl32/sp_min_setup.o
 .rodata.std_svc_smc_handler.str1.1
                0x000000007020445e       0x2d /home/auto_jenkins_wlan5/workspace/sdk/auto-release-master/amebasmart_gcc_project/build/project_ap/asdk/make/atf/bl32/std_svc_setup.o
 .rodata.std_svc_setup.str1.1
                0x000000007020445e       0x21 /home/auto_jenkins_wlan5/workspace/sdk/auto-release-master/amebasmart_gcc_project/build/project_ap/asdk/make/atf/bl32/std_svc_setup.o
 .rodata.str1.1
                0x000000007020447f        0x8 /home/auto_jenkins_wlan5/workspace/sdk/auto-release-master/amebasmart_gcc_project/build/project_ap/asdk/make/atf/bl32/std_svc_setup.o
 .rodata.tf_log.str1.1
                0x0000000070204487       0x10 /home/auto_jenkins_wlan5/workspace/sdk/auto-release-master/amebasmart_gcc_project/build/project_ap/asdk/make/atf/bl32/tf_log.o
 .rodata.console_unregister.str1.1
                0x0000000070204497       0x20 /home/auto_jenkins_wlan5/workspace/sdk/auto-release-master/amebasmart_gcc_project/build/project_ap/asdk/make/atf/bl32/multi_console.o
 .rodata.str1.1
                0x00000000702044b7       0x32 /home/auto_jenkins_wlan5/workspace/sdk/auto-release-master/amebasmart_gcc_project/build/project_ap/asdk/make/atf/bl32/plat_log_common.o
 *fill*         0x00000000702044e9        0x3 
 .rodata.plat_prefix_str
                0x00000000702044ec       0x14 /home/auto_jenkins_wlan5/workspace/sdk/auto-release-master/amebasmart_gcc_project/build/project_ap/asdk/make/atf/bl32/plat_log_common.o
 .rodata.plat_sheipa_mmap
                0x0000000070204500       0xc0 /home/auto_jenkins_wlan5/workspace/sdk/auto-release-master/amebasmart_gcc_project/build/project_ap/asdk/make/atf/bl32/sheipa_common.o
                0x0000000070204500                plat_sheipa_mmap
 .rodata.xlat_arch_regime_get_xn_desc.str1.1
                0x00000000702045c0       0x2e /home/auto_jenkins_wlan5/workspace/sdk/auto-release-master/amebasmart_gcc_project/build/project_ap/asdk/make/atf/bl32/xlat_tables_arch.o
 .rodata.mmap_add_alloc_va.str1.1
                0x00000000702045ee       0x29 /home/auto_jenkins_wlan5/workspace/sdk/auto-release-master/amebasmart_gcc_project/build/project_ap/asdk/make/atf/bl32/xlat_tables_context.o
 .rodata.xlat_desc.str1.1
                0x0000000070204617       0x26 /home/auto_jenkins_wlan5/workspace/sdk/auto-release-master/amebasmart_gcc_project/build/project_ap/asdk/make/atf/bl32/xlat_tables_core.o
 .rodata.mmap_add_region_ctx.str1.1
                0x000000007020463d       0x2b /home/auto_jenkins_wlan5/workspace/sdk/auto-release-master/amebasmart_gcc_project/build/project_ap/asdk/make/atf/bl32/xlat_tables_core.o
 .rodata.init_xlat_tables_ctx.str1.1
                0x0000000070204668       0x4f /home/auto_jenkins_wlan5/workspace/sdk/auto-release-master/amebasmart_gcc_project/build/project_ap/asdk/make/atf/bl32/xlat_tables_core.o
 .rodata.str1.1
                0x00000000702046b7       0x29 /home/auto_jenkins_wlan5/workspace/sdk/auto-release-master/amebasmart_gcc_project/build/project_ap/asdk/make/atf/bl32/entrypoint.o
 .rodata.str1.1
                0x00000000702046e0       0x1f /home/auto_jenkins_wlan5/workspace/sdk/auto-release-master/amebasmart_gcc_project/build/project_ap/asdk/make/atf/bl32/aem_generic.o
 .rodata.str1.1
                0x00000000702046ff       0x1e /home/auto_jenkins_wlan5/workspace/sdk/auto-release-master/amebasmart_gcc_project/build/project_ap/asdk/make/atf/bl32/cortex_a32.o
 .rodata.str1.1
                0x000000007020471d       0x1d /home/auto_jenkins_wlan5/workspace/sdk/auto-release-master/amebasmart_gcc_project/build/project_ap/asdk/make/atf/bl32/cortex_a7.o
 .rodata.str1.1
                0x000000007020473a       0x1f /home/auto_jenkins_wlan5/workspace/sdk/auto-release-master/amebasmart_gcc_project/build/project_ap/asdk/make/atf/bl32/cpu_helpers.o
 .rodata.panic_str
                0x0000000070204759       0x14 /home/auto_jenkins_wlan5/workspace/sdk/auto-release-master/amebasmart_gcc_project/build/project_ap/asdk/make/atf/bl32/debug.o
 .rodata.assert_str
                0x000000007020476d       0x15 /home/auto_jenkins_wlan5/workspace/sdk/auto-release-master/amebasmart_gcc_project/build/project_ap/asdk/make/atf/bl32/debug.o
 .rodata.rev_err_str
                0x0000000070204782       0x92 /home/auto_jenkins_wlan5/workspace/sdk/auto-release-master/amebasmart_gcc_project/build/project_ap/asdk/make/atf/bl32/plat_helpers.o
 .rodata.str1.1
                0x0000000070204814       0x2d /home/auto_jenkins_wlan5/workspace/sdk/auto-release-master/amebasmart_gcc_project/build/project_ap/asdk/make/atf/bl32/sheipa_console.o
 .rodata.str1.1
                0x0000000070204841       0x28 /home/auto_jenkins_wlan5/workspace/sdk/auto-release-master/amebasmart_gcc_project/build/project_ap/asdk/make/atf/bl32/enable_mmu.o
 .rodata.sheipa_system_reset.str1.1
                0x0000000070204869       0x2e /home/auto_jenkins_wlan5/workspace/sdk/auto-release-master/amebasmart_gcc_project/build/project_ap/asdk/make/atf/lib/libpm.a(sheipa_pm.o)
 .rodata.sheipa_system_off.str1.1
                0x0000000070204897       0x2c /home/auto_jenkins_wlan5/workspace/sdk/auto-release-master/amebasmart_gcc_project/build/project_ap/asdk/make/atf/lib/libpm.a(sheipa_pm.o)
 .rodata.sheipa_validate_power_state.str1.1
                0x00000000702048c3       0x24 /home/auto_jenkins_wlan5/workspace/sdk/auto-release-master/amebasmart_gcc_project/build/project_ap/asdk/make/atf/lib/libpm.a(sheipa_pm.o)
 *fill*         0x00000000702048e7        0x1 
 .rodata.plat_sheipa_psci_pm_ops
                0x00000000702048e8       0x54 /home/auto_jenkins_wlan5/workspace/sdk/auto-release-master/amebasmart_gcc_project/build/project_ap/asdk/make/atf/lib/libpm.a(sheipa_pm.o)
 .rodata.sheipa_pm_idle_states
                0x000000007020493c       0x10 /home/auto_jenkins_wlan5/workspace/sdk/auto-release-master/amebasmart_gcc_project/build/project_ap/asdk/make/atf/lib/libpm.a(sheipa_pm.o)
 .rodata.__assert.str1.1
                0x000000007020494c        0xf /home/auto_jenkins_wlan5/workspace/sdk/auto-release-master/amebasmart_gcc_project/build/project_ap/asdk/make/atf/lib/libc.a(assert.o)
 .rodata.vprintf.str1.1
                0x000000007020495b       0x15 /home/auto_jenkins_wlan5/workspace/sdk/auto-release-master/amebasmart_gcc_project/build/project_ap/asdk/make/atf/lib/libc.a(printf.o)
                0x0000000070204970                . = ALIGN (0x4)
                0x0000000070204970                __RT_SVC_DESCS_START__ = .
 *(rt_svc_descs)
 rt_svc_descs   0x0000000070204970       0x10 /home/auto_jenkins_wlan5/workspace/sdk/auto-release-master/amebasmart_gcc_project/build/project_ap/asdk/make/atf/bl32/rtk_svc_setup.o
 rt_svc_descs   0x0000000070204980       0x10 /home/auto_jenkins_wlan5/workspace/sdk/auto-release-master/amebasmart_gcc_project/build/project_ap/asdk/make/atf/bl32/std_svc_setup.o
                0x0000000070204990                __RT_SVC_DESCS_END__ = .
                0x0000000070204990                . = ALIGN (0x4)
                0x0000000070204990                __FCONF_POPULATOR_START__ = .
 *(.fconf_populator)
                0x0000000070204990                __FCONF_POPULATOR_END__ = .
                0x0000000070204990                . = ALIGN (0x4)
                0x0000000070204990                __PMF_SVC_DESCS_START__ = .
 *(pmf_svc_descs)
                0x0000000070204990                __PMF_SVC_DESCS_END__ = .
                0x0000000070204990                . = ALIGN (0x4)
                0x0000000070204990                __PARSER_LIB_DESCS_START__ = .
 *(.img_parser_lib_descs)
                0x0000000070204990                __PARSER_LIB_DESCS_END__ = .
                0x0000000070204990                . = ALIGN (0x4)
                0x0000000070204990                __CPU_OPS_START__ = .
 *(cpu_ops)
 cpu_ops        0x0000000070204990       0x1c /home/auto_jenkins_wlan5/workspace/sdk/auto-release-master/amebasmart_gcc_project/build/project_ap/asdk/make/atf/bl32/aem_generic.o
 cpu_ops        0x00000000702049ac       0x1c /home/auto_jenkins_wlan5/workspace/sdk/auto-release-master/amebasmart_gcc_project/build/project_ap/asdk/make/atf/bl32/cortex_a32.o
 cpu_ops        0x00000000702049c8       0x1c /home/auto_jenkins_wlan5/workspace/sdk/auto-release-master/amebasmart_gcc_project/build/project_ap/asdk/make/atf/bl32/cortex_a7.o
                0x00000000702049e4                __CPU_OPS_END__ = .
                0x00000000702049e4                . = ALIGN (0x4)
                0x00000000702049e4                __GOT_START__ = .
 *(.got)
                0x00000000702049e4                __GOT_END__ = .
                0x00000000702049e8                . = ALIGN (0x8)
 *fill*         0x00000000702049e4        0x4 
                0x00000000702049e8                __pubsub_psci_cpu_on_finish_start = .
 *(__pubsub_psci_cpu_on_finish)
                0x00000000702049e8                __pubsub_psci_cpu_on_finish_end = .
                0x00000000702049e8                __pubsub_psci_suspend_pwrdown_start_start = .
 *(__pubsub_psci_suspend_pwrdown_start)
                0x00000000702049e8                __pubsub_psci_suspend_pwrdown_start_end = .
                0x00000000702049e8                __pubsub_psci_suspend_pwrdown_finish_start = .
 *(__pubsub_psci_suspend_pwrdown_finish)
                0x00000000702049e8                __pubsub_psci_suspend_pwrdown_finish_end = .
                0x0000000070205000                . = ALIGN (0x1000)
 *fill*         0x00000000702049e8      0x618 
                0x0000000070205000                __RODATA_END__ = .
                0x0000000000000001                ASSERT ((__CPU_OPS_END__ > __CPU_OPS_START__), cpu_ops not defined for this platform.)
                0x0000000070205000                __RW_START__ = .

.rel.dyn        0x0000000070205000        0x0
 .rel.iplt      0x0000000070205000        0x0 /home/auto_jenkins_wlan5/workspace/sdk/auto-release-master/amebasmart_gcc_project/build/project_ap/asdk/make/atf/bl32/sp_min_main.o

.data           0x0000000070205000       0x68
                0x0000000070205000                __DATA_START__ = .
 *(.data*)
 .data.power_domain_tree_desc
                0x0000000070205000        0x3 /home/auto_jenkins_wlan5/workspace/sdk/auto-release-master/amebasmart_gcc_project/build/project_ap/asdk/make/atf/bl32/topology.o
 *fill*         0x0000000070205003        0x1 
 .data.max_log_level
                0x0000000070205004        0x4 /home/auto_jenkins_wlan5/workspace/sdk/auto-release-master/amebasmart_gcc_project/build/project_ap/asdk/make/atf/bl32/tf_log.o
 .data.console_state
                0x0000000070205008        0x1 /home/auto_jenkins_wlan5/workspace/sdk/auto-release-master/amebasmart_gcc_project/build/project_ap/asdk/make/atf/bl32/multi_console.o
                0x0000000070205008                console_state
 *fill*         0x0000000070205009        0x7 
 .data.tf_xlat_ctx
                0x0000000070205010       0x40 /home/auto_jenkins_wlan5/workspace/sdk/auto-release-master/amebasmart_gcc_project/build/project_ap/asdk/make/atf/bl32/xlat_tables_context.o
 .data          0x0000000070205050        0x8 /home/auto_jenkins_wlan5/workspace/sdk/auto-release-master/amebasmart_gcc_project/build/project_ap/asdk/make/atf/bl32/aem_generic.o
 .data          0x0000000070205058        0x8 /home/auto_jenkins_wlan5/workspace/sdk/auto-release-master/amebasmart_gcc_project/build/project_ap/asdk/make/atf/bl32/cortex_a32.o
 .data          0x0000000070205060        0x8 /home/auto_jenkins_wlan5/workspace/sdk/auto-release-master/amebasmart_gcc_project/build/project_ap/asdk/make/atf/bl32/cortex_a7.o
                0x0000000070205068                __DATA_END__ = .

.igot.plt       0x0000000070205068        0x0
 .igot.plt      0x0000000070205068        0x0 /home/auto_jenkins_wlan5/workspace/sdk/auto-release-master/amebasmart_gcc_project/build/project_ap/asdk/make/atf/bl32/sp_min_main.o

stacks          0x0000000070205080     0x2000
                0x0000000070205080                __STACKS_START__ = .
 *(tzfw_normal_stacks)
 tzfw_normal_stacks
                0x0000000070205080     0x2000 /home/auto_jenkins_wlan5/workspace/sdk/auto-release-master/amebasmart_gcc_project/build/project_ap/asdk/make/atf/bl32/platform_mp_stack.o
                0x0000000070207080                __STACKS_END__ = .

.bss            0x0000000070207080      0x520
                0x0000000070207080                __BSS_START__ = .
 *(SORT_BY_ALIGNMENT(.bss*))
 .bss.percpu_data
                0x0000000070207080       0x80 /home/auto_jenkins_wlan5/workspace/sdk/auto-release-master/amebasmart_gcc_project/build/project_ap/asdk/make/atf/bl32/cpu_data_array.o
                0x0000000070207080                percpu_data
 .bss.sp_min_smc_context
                0x0000000070207100      0x120 /home/auto_jenkins_wlan5/workspace/sdk/auto-release-master/amebasmart_gcc_project/build/project_ap/asdk/make/atf/bl32/sp_min_main.o
 .bss.psci_ns_context
                0x0000000070207220       0x40 /home/auto_jenkins_wlan5/workspace/sdk/auto-release-master/amebasmart_gcc_project/build/project_ap/asdk/make/atf/bl32/psci_setup.o
 .bss.mmu_cfg_params
                0x0000000070207260       0x18 /home/auto_jenkins_wlan5/workspace/sdk/auto-release-master/amebasmart_gcc_project/build/project_ap/asdk/make/atf/bl32/xlat_tables_context.o
                0x0000000070207260                mmu_cfg_params
 .bss.tf_mmap   0x0000000070207278      0x198 /home/auto_jenkins_wlan5/workspace/sdk/auto-release-master/amebasmart_gcc_project/build/project_ap/asdk/make/atf/bl32/xlat_tables_context.o
 .bss.sp_min_cpu_ctx_ptr
                0x0000000070207410        0x8 /home/auto_jenkins_wlan5/workspace/sdk/auto-release-master/amebasmart_gcc_project/build/project_ap/asdk/make/atf/bl32/sp_min_main.o
 .bss.driver_data
                0x0000000070207418        0x4 /home/auto_jenkins_wlan5/workspace/sdk/auto-release-master/amebasmart_gcc_project/build/project_ap/asdk/make/atf/bl32/gicv2_main.o
 .bss.psci_cpu_pd_nodes
                0x000000007020741c       0x18 /home/auto_jenkins_wlan5/workspace/sdk/auto-release-master/amebasmart_gcc_project/build/project_ap/asdk/make/atf/bl32/psci_common.o
                0x000000007020741c                psci_cpu_pd_nodes
 .bss.psci_plat_core_count
                0x0000000070207434        0x4 /home/auto_jenkins_wlan5/workspace/sdk/auto-release-master/amebasmart_gcc_project/build/project_ap/asdk/make/atf/bl32/psci_common.o
                0x0000000070207434                psci_plat_core_count
 .bss.psci_plat_pm_ops
                0x0000000070207438        0x4 /home/auto_jenkins_wlan5/workspace/sdk/auto-release-master/amebasmart_gcc_project/build/project_ap/asdk/make/atf/bl32/psci_common.o
                0x0000000070207438                psci_plat_pm_ops
 .bss.psci_spd_pm
                0x000000007020743c        0x4 /home/auto_jenkins_wlan5/workspace/sdk/auto-release-master/amebasmart_gcc_project/build/project_ap/asdk/make/atf/bl32/psci_common.o
                0x000000007020743c                psci_spd_pm
 .bss.psci_caps
                0x0000000070207440        0x4 /home/auto_jenkins_wlan5/workspace/sdk/auto-release-master/amebasmart_gcc_project/build/project_ap/asdk/make/atf/bl32/psci_setup.o
                0x0000000070207440                psci_caps
 .bss.bl33_image_ep_info
                0x0000000070207444       0x24 /home/auto_jenkins_wlan5/workspace/sdk/auto-release-master/amebasmart_gcc_project/build/project_ap/asdk/make/atf/bl32/sp_min_setup.o
 .bss.console_list
                0x0000000070207468        0x4 /home/auto_jenkins_wlan5/workspace/sdk/auto-release-master/amebasmart_gcc_project/build/project_ap/asdk/make/atf/bl32/multi_console.o
                0x0000000070207468                console_list
 .bss.console   0x000000007020746c       0x1c /home/auto_jenkins_wlan5/workspace/sdk/auto-release-master/amebasmart_gcc_project/build/project_ap/asdk/make/atf/bl32/sheipa_console_setup.o
 .bss.mpc_backup
                0x0000000070207488       0x48 /home/auto_jenkins_wlan5/workspace/sdk/auto-release-master/amebasmart_gcc_project/build/project_ap/asdk/make/atf/lib/libpm.a(sheipa_pm.o)
 .bss.rt_svc_descs_indices
                0x00000000702074d0       0x80 /home/auto_jenkins_wlan5/workspace/sdk/auto-release-master/amebasmart_gcc_project/build/project_ap/asdk/make/atf/bl32/runtime_svc.o
                0x00000000702074d0                rt_svc_descs_indices
 .bss.psci_req_local_pwr_states
                0x0000000070207550        0x4 /home/auto_jenkins_wlan5/workspace/sdk/auto-release-master/amebasmart_gcc_project/build/project_ap/asdk/make/atf/bl32/psci_common.o
 *(COMMON)
                0x0000000070207580                . = ALIGN (0x40)
 *fill*         0x0000000070207554       0x2c 
                0x0000000070207580                __PMF_TIMESTAMP_START__ = .
 *(pmf_timestamp_array)
                0x0000000070207580                . = ALIGN (0x40)
                0x0000000070207580                __PMF_PERCPU_TIMESTAMP_END__ = .
                0x0000000000000000                __PERCPU_TIMESTAMP_SIZE__ = ABSOLUTE ((. - __PMF_TIMESTAMP_START__))
                0x0000000070207580                . = (. + (__PERCPU_TIMESTAMP_SIZE__ * 0x1))
                0x0000000070207580                __PMF_TIMESTAMP_END__ = .
                0x0000000070207580                . = ALIGN (0x10)
 *(base_xlat_table)
 base_xlat_table
                0x0000000070207580       0x20 /home/auto_jenkins_wlan5/workspace/sdk/auto-release-master/amebasmart_gcc_project/build/project_ap/asdk/make/atf/bl32/xlat_tables_context.o
                0x00000000702075a0                __BSS_END__ = .

xlat_table      0x0000000070208000     0xa000
 *(xlat_table)
 xlat_table     0x0000000070208000     0xa000 /home/auto_jenkins_wlan5/workspace/sdk/auto-release-master/amebasmart_gcc_project/build/project_ap/asdk/make/atf/bl32/xlat_tables_context.o
                0x0000000000000520                __BSS_SIZE__ = SIZEOF (.bss)

coherent_ram    0x0000000070212000     0x1000
                0x0000000070212000                __COHERENT_RAM_START__ = .
 *(bakery_lock)
 bakery_lock    0x0000000070212000        0x8 /home/auto_jenkins_wlan5/workspace/sdk/auto-release-master/amebasmart_gcc_project/build/project_ap/asdk/make/atf/bl32/psci_common.o
                0x0000000070212000                psci_locks
 *(tzfw_coherent_mem)
 tzfw_coherent_mem
                0x0000000070212008       0x20 /home/auto_jenkins_wlan5/workspace/sdk/auto-release-master/amebasmart_gcc_project/build/project_ap/asdk/make/atf/bl32/psci_common.o
                0x0000000070212008                psci_non_cpu_pd_nodes
                0x0000000070212028                __COHERENT_RAM_END_UNALIGNED__ = .
                0x0000000070213000                . = ALIGN (0x1000)
 *fill*         0x0000000070212028      0xfd8 
                0x0000000070213000                __COHERENT_RAM_END__ = .
                0x0000000000000028                __COHERENT_RAM_UNALIGNED_SIZE__ = (__COHERENT_RAM_END_UNALIGNED__ - __COHERENT_RAM_START__)
                0x0000000070213000                __RW_END__ = .
                0x0000000070213000                __BL32_END__ = .
LOAD /home/auto_jenkins_wlan5/workspace/sdk/auto-release-master/amebasmart_gcc_project/build/project_ap/asdk/make/atf/bl32/build_message.o
LOAD /home/auto_jenkins_wlan5/workspace/sdk/auto-release-master/amebasmart_gcc_project/build/project_ap/asdk/make/atf/bl32/sp_min_main.o
LOAD /home/auto_jenkins_wlan5/workspace/sdk/auto-release-master/amebasmart_gcc_project/build/project_ap/asdk/make/atf/bl32/runtime_svc.o
LOAD /home/auto_jenkins_wlan5/workspace/sdk/auto-release-master/amebasmart_gcc_project/build/project_ap/asdk/make/atf/bl32/gic_common.o
LOAD /home/auto_jenkins_wlan5/workspace/sdk/auto-release-master/amebasmart_gcc_project/build/project_ap/asdk/make/atf/bl32/gicv2_helpers.o
LOAD /home/auto_jenkins_wlan5/workspace/sdk/auto-release-master/amebasmart_gcc_project/build/project_ap/asdk/make/atf/bl32/gicv2_main.o
LOAD /home/auto_jenkins_wlan5/workspace/sdk/auto-release-master/amebasmart_gcc_project/build/project_ap/asdk/make/atf/bl32/errata_report.o
LOAD /home/auto_jenkins_wlan5/workspace/sdk/auto-release-master/amebasmart_gcc_project/build/project_ap/asdk/make/atf/bl32/context_mgmt.o
LOAD /home/auto_jenkins_wlan5/workspace/sdk/auto-release-master/amebasmart_gcc_project/build/project_ap/asdk/make/atf/bl32/cpu_data_array.o
LOAD /home/auto_jenkins_wlan5/workspace/sdk/auto-release-master/amebasmart_gcc_project/build/project_ap/asdk/make/atf/bl32/bakery_lock_coherent.o
LOAD /home/auto_jenkins_wlan5/workspace/sdk/auto-release-master/amebasmart_gcc_project/build/project_ap/asdk/make/atf/bl32/psci_common.o
LOAD /home/auto_jenkins_wlan5/workspace/sdk/auto-release-master/amebasmart_gcc_project/build/project_ap/asdk/make/atf/bl32/psci_main.o
LOAD /home/auto_jenkins_wlan5/workspace/sdk/auto-release-master/amebasmart_gcc_project/build/project_ap/asdk/make/atf/bl32/psci_mem_protect.o
LOAD /home/auto_jenkins_wlan5/workspace/sdk/auto-release-master/amebasmart_gcc_project/build/project_ap/asdk/make/atf/bl32/psci_off.o
LOAD /home/auto_jenkins_wlan5/workspace/sdk/auto-release-master/amebasmart_gcc_project/build/project_ap/asdk/make/atf/bl32/psci_on.o
LOAD /home/auto_jenkins_wlan5/workspace/sdk/auto-release-master/amebasmart_gcc_project/build/project_ap/asdk/make/atf/bl32/psci_setup.o
LOAD /home/auto_jenkins_wlan5/workspace/sdk/auto-release-master/amebasmart_gcc_project/build/project_ap/asdk/make/atf/bl32/psci_suspend.o
LOAD /home/auto_jenkins_wlan5/workspace/sdk/auto-release-master/amebasmart_gcc_project/build/project_ap/asdk/make/atf/bl32/psci_system_off.o
LOAD /home/auto_jenkins_wlan5/workspace/sdk/auto-release-master/amebasmart_gcc_project/build/project_ap/asdk/make/atf/bl32/plat_sp_min_common.o
LOAD /home/auto_jenkins_wlan5/workspace/sdk/auto-release-master/amebasmart_gcc_project/build/project_ap/asdk/make/atf/bl32/plat_gicv2.o
LOAD /home/auto_jenkins_wlan5/workspace/sdk/auto-release-master/amebasmart_gcc_project/build/project_ap/asdk/make/atf/bl32/plat_psci_common.o
LOAD /home/auto_jenkins_wlan5/workspace/sdk/auto-release-master/amebasmart_gcc_project/build/project_ap/asdk/make/atf/bl32/bsec_svc.o
LOAD /home/auto_jenkins_wlan5/workspace/sdk/auto-release-master/amebasmart_gcc_project/build/project_ap/asdk/make/atf/bl32/rtk_svc_setup.o
LOAD /home/auto_jenkins_wlan5/workspace/sdk/auto-release-master/amebasmart_gcc_project/build/project_ap/asdk/make/atf/bl32/sheipa_gic.o
LOAD /home/auto_jenkins_wlan5/workspace/sdk/auto-release-master/amebasmart_gcc_project/build/project_ap/asdk/make/atf/bl32/sp_min_setup.o
LOAD /home/auto_jenkins_wlan5/workspace/sdk/auto-release-master/amebasmart_gcc_project/build/project_ap/asdk/make/atf/bl32/topology.o
LOAD /home/auto_jenkins_wlan5/workspace/sdk/auto-release-master/amebasmart_gcc_project/build/project_ap/asdk/make/atf/bl32/std_svc_setup.o
LOAD /home/auto_jenkins_wlan5/workspace/sdk/auto-release-master/amebasmart_gcc_project/build/project_ap/asdk/make/atf/bl32/bl_common.o
LOAD /home/auto_jenkins_wlan5/workspace/sdk/auto-release-master/amebasmart_gcc_project/build/project_ap/asdk/make/atf/bl32/tf_log.o
LOAD /home/auto_jenkins_wlan5/workspace/sdk/auto-release-master/amebasmart_gcc_project/build/project_ap/asdk/make/atf/bl32/multi_console.o
LOAD /home/auto_jenkins_wlan5/workspace/sdk/auto-release-master/amebasmart_gcc_project/build/project_ap/asdk/make/atf/bl32/plat_bl_common.o
LOAD /home/auto_jenkins_wlan5/workspace/sdk/auto-release-master/amebasmart_gcc_project/build/project_ap/asdk/make/atf/bl32/plat_log_common.o
LOAD /home/auto_jenkins_wlan5/workspace/sdk/auto-release-master/amebasmart_gcc_project/build/project_ap/asdk/make/atf/bl32/plat_common.o
LOAD /home/auto_jenkins_wlan5/workspace/sdk/auto-release-master/amebasmart_gcc_project/build/project_ap/asdk/make/atf/bl32/popcountdi2.o
LOAD /home/auto_jenkins_wlan5/workspace/sdk/auto-release-master/amebasmart_gcc_project/build/project_ap/asdk/make/atf/bl32/popcountsi2.o
LOAD /home/auto_jenkins_wlan5/workspace/sdk/auto-release-master/amebasmart_gcc_project/build/project_ap/asdk/make/atf/bl32/ctzdi2.o
LOAD /home/auto_jenkins_wlan5/workspace/sdk/auto-release-master/amebasmart_gcc_project/build/project_ap/asdk/make/atf/bl32/divdi3.o
LOAD /home/auto_jenkins_wlan5/workspace/sdk/auto-release-master/amebasmart_gcc_project/build/project_ap/asdk/make/atf/bl32/divmoddi4.o
LOAD /home/auto_jenkins_wlan5/workspace/sdk/auto-release-master/amebasmart_gcc_project/build/project_ap/asdk/make/atf/bl32/lshrdi3.o
LOAD /home/auto_jenkins_wlan5/workspace/sdk/auto-release-master/amebasmart_gcc_project/build/project_ap/asdk/make/atf/bl32/udivmoddi4.o
LOAD /home/auto_jenkins_wlan5/workspace/sdk/auto-release-master/amebasmart_gcc_project/build/project_ap/asdk/make/atf/bl32/sheipa_common.o
LOAD /home/auto_jenkins_wlan5/workspace/sdk/auto-release-master/amebasmart_gcc_project/build/project_ap/asdk/make/atf/bl32/sheipa_console_setup.o
LOAD /home/auto_jenkins_wlan5/workspace/sdk/auto-release-master/amebasmart_gcc_project/build/project_ap/asdk/make/atf/bl32/sheipa_ipc.o
LOAD /home/auto_jenkins_wlan5/workspace/sdk/auto-release-master/amebasmart_gcc_project/build/project_ap/asdk/make/atf/bl32/sheipa_pm_ext.o
LOAD /home/auto_jenkins_wlan5/workspace/sdk/auto-release-master/amebasmart_gcc_project/build/project_ap/asdk/make/atf/bl32/xlat_tables_arch.o
LOAD /home/auto_jenkins_wlan5/workspace/sdk/auto-release-master/amebasmart_gcc_project/build/project_ap/asdk/make/atf/bl32/xlat_tables_context.o
LOAD /home/auto_jenkins_wlan5/workspace/sdk/auto-release-master/amebasmart_gcc_project/build/project_ap/asdk/make/atf/bl32/xlat_tables_core.o
LOAD /home/auto_jenkins_wlan5/workspace/sdk/auto-release-master/amebasmart_gcc_project/build/project_ap/asdk/make/atf/bl32/xlat_tables_utils.o
LOAD /home/auto_jenkins_wlan5/workspace/sdk/auto-release-master/amebasmart_gcc_project/build/project_ap/asdk/make/atf/bl32/entrypoint.o
LOAD /home/auto_jenkins_wlan5/workspace/sdk/auto-release-master/amebasmart_gcc_project/build/project_ap/asdk/make/atf/bl32/wa_cve_2017_5715_bpiall.o
LOAD /home/auto_jenkins_wlan5/workspace/sdk/auto-release-master/amebasmart_gcc_project/build/project_ap/asdk/make/atf/bl32/wa_cve_2017_5715_icache_inv.o
LOAD /home/auto_jenkins_wlan5/workspace/sdk/auto-release-master/amebasmart_gcc_project/build/project_ap/asdk/make/atf/bl32/aem_generic.o
LOAD /home/auto_jenkins_wlan5/workspace/sdk/auto-release-master/amebasmart_gcc_project/build/project_ap/asdk/make/atf/bl32/cortex_a32.o
LOAD /home/auto_jenkins_wlan5/workspace/sdk/auto-release-master/amebasmart_gcc_project/build/project_ap/asdk/make/atf/bl32/cortex_a7.o
LOAD /home/auto_jenkins_wlan5/workspace/sdk/auto-release-master/amebasmart_gcc_project/build/project_ap/asdk/make/atf/bl32/cpu_helpers.o
LOAD /home/auto_jenkins_wlan5/workspace/sdk/auto-release-master/amebasmart_gcc_project/build/project_ap/asdk/make/atf/bl32/dsu_helpers.o
LOAD /home/auto_jenkins_wlan5/workspace/sdk/auto-release-master/amebasmart_gcc_project/build/project_ap/asdk/make/atf/bl32/cpu_data.o
LOAD /home/auto_jenkins_wlan5/workspace/sdk/auto-release-master/amebasmart_gcc_project/build/project_ap/asdk/make/atf/bl32/spinlock.o
LOAD /home/auto_jenkins_wlan5/workspace/sdk/auto-release-master/amebasmart_gcc_project/build/project_ap/asdk/make/atf/bl32/psci_helpers.o
LOAD /home/auto_jenkins_wlan5/workspace/sdk/auto-release-master/amebasmart_gcc_project/build/project_ap/asdk/make/atf/bl32/platform_mp_stack.o
LOAD /home/auto_jenkins_wlan5/workspace/sdk/auto-release-master/amebasmart_gcc_project/build/project_ap/asdk/make/atf/bl32/debug.o
LOAD /home/auto_jenkins_wlan5/workspace/sdk/auto-release-master/amebasmart_gcc_project/build/project_ap/asdk/make/atf/bl32/cache_helpers.o
LOAD /home/auto_jenkins_wlan5/workspace/sdk/auto-release-master/amebasmart_gcc_project/build/project_ap/asdk/make/atf/bl32/misc_helpers.o
LOAD /home/auto_jenkins_wlan5/workspace/sdk/auto-release-master/amebasmart_gcc_project/build/project_ap/asdk/make/atf/bl32/platform_helpers.o
LOAD /home/auto_jenkins_wlan5/workspace/sdk/auto-release-master/amebasmart_gcc_project/build/project_ap/asdk/make/atf/bl32/aeabi_ldivmod.o
LOAD /home/auto_jenkins_wlan5/workspace/sdk/auto-release-master/amebasmart_gcc_project/build/project_ap/asdk/make/atf/bl32/aeabi_uldivmod.o
LOAD /home/auto_jenkins_wlan5/workspace/sdk/auto-release-master/amebasmart_gcc_project/build/project_ap/asdk/make/atf/bl32/plat_helpers.o
LOAD /home/auto_jenkins_wlan5/workspace/sdk/auto-release-master/amebasmart_gcc_project/build/project_ap/asdk/make/atf/bl32/sheipa_console.o
LOAD /home/auto_jenkins_wlan5/workspace/sdk/auto-release-master/amebasmart_gcc_project/build/project_ap/asdk/make/atf/bl32/enable_mmu.o
LOAD /home/auto_jenkins_wlan5/workspace/sdk/auto-release-master/amebasmart_gcc_project/build/project_ap/asdk/make/atf/lib/libfdt.a
LOAD /home/auto_jenkins_wlan5/workspace/sdk/auto-release-master/amebasmart_gcc_project/build/project_ap/asdk/make/atf/lib/libpm.a
LOAD /home/auto_jenkins_wlan5/workspace/sdk/auto-release-master/amebasmart_gcc_project/build/project_ap/asdk/make/atf/lib/libc.a
LOAD /home/auto_jenkins_wlan5/workspace/sdk/auto-release-master/amebasmart_gcc_project/project_ap/asdk/lib/soc/libpm.a
OUTPUT(/home/auto_jenkins_wlan5/workspace/sdk/auto-release-master/amebasmart_gcc_project/build/project_ap/asdk/make/atf/bl32/bl32.elf elf32-littlearm)
LOAD linker stubs

.debug_info     0x0000000000000000    0x12f94
 .debug_info    0x0000000000000000       0x7b /home/auto_jenkins_wlan5/workspace/sdk/auto-release-master/amebasmart_gcc_project/build/project_ap/asdk/make/atf/bl32/build_message.o
 .debug_info    0x000000000000007b      0xe14 /home/auto_jenkins_wlan5/workspace/sdk/auto-release-master/amebasmart_gcc_project/build/project_ap/asdk/make/atf/bl32/sp_min_main.o
 .debug_info    0x0000000000000e8f      0x7e1 /home/auto_jenkins_wlan5/workspace/sdk/auto-release-master/amebasmart_gcc_project/build/project_ap/asdk/make/atf/bl32/runtime_svc.o
 .debug_info    0x0000000000001670     0x11a1 /home/auto_jenkins_wlan5/workspace/sdk/auto-release-master/amebasmart_gcc_project/build/project_ap/asdk/make/atf/bl32/gic_common.o
 .debug_info    0x0000000000002811      0xa8a /home/auto_jenkins_wlan5/workspace/sdk/auto-release-master/amebasmart_gcc_project/build/project_ap/asdk/make/atf/bl32/gicv2_helpers.o
 .debug_info    0x000000000000329b     0x14b5 /home/auto_jenkins_wlan5/workspace/sdk/auto-release-master/amebasmart_gcc_project/build/project_ap/asdk/make/atf/bl32/gicv2_main.o
 .debug_info    0x0000000000004750      0x2a7 /home/auto_jenkins_wlan5/workspace/sdk/auto-release-master/amebasmart_gcc_project/build/project_ap/asdk/make/atf/bl32/errata_report.o
 .debug_info    0x00000000000049f7      0xabd /home/auto_jenkins_wlan5/workspace/sdk/auto-release-master/amebasmart_gcc_project/build/project_ap/asdk/make/atf/bl32/context_mgmt.o
 .debug_info    0x00000000000054b4      0x1bb /home/auto_jenkins_wlan5/workspace/sdk/auto-release-master/amebasmart_gcc_project/build/project_ap/asdk/make/atf/bl32/cpu_data_array.o
 .debug_info    0x000000000000566f      0x5bc /home/auto_jenkins_wlan5/workspace/sdk/auto-release-master/amebasmart_gcc_project/build/project_ap/asdk/make/atf/bl32/bakery_lock_coherent.o
 .debug_info    0x0000000000005c2b     0x1ea3 /home/auto_jenkins_wlan5/workspace/sdk/auto-release-master/amebasmart_gcc_project/build/project_ap/asdk/make/atf/bl32/psci_common.o
 .debug_info    0x0000000000007ace     0x1370 /home/auto_jenkins_wlan5/workspace/sdk/auto-release-master/amebasmart_gcc_project/build/project_ap/asdk/make/atf/bl32/psci_main.o
 .debug_info    0x0000000000008e3e      0x4fb /home/auto_jenkins_wlan5/workspace/sdk/auto-release-master/amebasmart_gcc_project/build/project_ap/asdk/make/atf/bl32/psci_mem_protect.o
 .debug_info    0x0000000000009339      0x8bc /home/auto_jenkins_wlan5/workspace/sdk/auto-release-master/amebasmart_gcc_project/build/project_ap/asdk/make/atf/bl32/psci_off.o
 .debug_info    0x0000000000009bf5      0xdb5 /home/auto_jenkins_wlan5/workspace/sdk/auto-release-master/amebasmart_gcc_project/build/project_ap/asdk/make/atf/bl32/psci_on.o
 .debug_info    0x000000000000a9aa      0xdab /home/auto_jenkins_wlan5/workspace/sdk/auto-release-master/amebasmart_gcc_project/build/project_ap/asdk/make/atf/bl32/psci_setup.o
 .debug_info    0x000000000000b755      0xd8f /home/auto_jenkins_wlan5/workspace/sdk/auto-release-master/amebasmart_gcc_project/build/project_ap/asdk/make/atf/bl32/psci_suspend.o
 .debug_info    0x000000000000c4e4      0x679 /home/auto_jenkins_wlan5/workspace/sdk/auto-release-master/amebasmart_gcc_project/build/project_ap/asdk/make/atf/bl32/psci_system_off.o
 .debug_info    0x000000000000cb5d      0x116 /home/auto_jenkins_wlan5/workspace/sdk/auto-release-master/amebasmart_gcc_project/build/project_ap/asdk/make/atf/bl32/plat_sp_min_common.o
 .debug_info    0x000000000000cc73      0x1d0 /home/auto_jenkins_wlan5/workspace/sdk/auto-release-master/amebasmart_gcc_project/build/project_ap/asdk/make/atf/bl32/plat_psci_common.o
 .debug_info    0x000000000000ce43      0x185 /home/auto_jenkins_wlan5/workspace/sdk/auto-release-master/amebasmart_gcc_project/build/project_ap/asdk/make/atf/bl32/bsec_svc.o
 .debug_info    0x000000000000cfc8      0x5c9 /home/auto_jenkins_wlan5/workspace/sdk/auto-release-master/amebasmart_gcc_project/build/project_ap/asdk/make/atf/bl32/rtk_svc_setup.o
 .debug_info    0x000000000000d591      0x2ba /home/auto_jenkins_wlan5/workspace/sdk/auto-release-master/amebasmart_gcc_project/build/project_ap/asdk/make/atf/bl32/sheipa_gic.o
 .debug_info    0x000000000000d84b      0x533 /home/auto_jenkins_wlan5/workspace/sdk/auto-release-master/amebasmart_gcc_project/build/project_ap/asdk/make/atf/bl32/sp_min_setup.o
 .debug_info    0x000000000000dd7e      0x1ad /home/auto_jenkins_wlan5/workspace/sdk/auto-release-master/amebasmart_gcc_project/build/project_ap/asdk/make/atf/bl32/topology.o
 .debug_info    0x000000000000df2b      0x7a7 /home/auto_jenkins_wlan5/workspace/sdk/auto-release-master/amebasmart_gcc_project/build/project_ap/asdk/make/atf/bl32/std_svc_setup.o
 .debug_info    0x000000000000e6d2      0x229 /home/auto_jenkins_wlan5/workspace/sdk/auto-release-master/amebasmart_gcc_project/build/project_ap/asdk/make/atf/bl32/tf_log.o
 .debug_info    0x000000000000e8fb      0x5d1 /home/auto_jenkins_wlan5/workspace/sdk/auto-release-master/amebasmart_gcc_project/build/project_ap/asdk/make/atf/bl32/multi_console.o
 .debug_info    0x000000000000eecc      0x150 /home/auto_jenkins_wlan5/workspace/sdk/auto-release-master/amebasmart_gcc_project/build/project_ap/asdk/make/atf/bl32/plat_log_common.o
 .debug_info    0x000000000000f01c      0x138 /home/auto_jenkins_wlan5/workspace/sdk/auto-release-master/amebasmart_gcc_project/build/project_ap/asdk/make/atf/bl32/plat_common.o
 .debug_info    0x000000000000f154      0x154 /home/auto_jenkins_wlan5/workspace/sdk/auto-release-master/amebasmart_gcc_project/build/project_ap/asdk/make/atf/bl32/ctzdi2.o
 .debug_info    0x000000000000f2a8      0x1f2 /home/auto_jenkins_wlan5/workspace/sdk/auto-release-master/amebasmart_gcc_project/build/project_ap/asdk/make/atf/bl32/udivmoddi4.o
 .debug_info    0x000000000000f49a      0x333 /home/auto_jenkins_wlan5/workspace/sdk/auto-release-master/amebasmart_gcc_project/build/project_ap/asdk/make/atf/bl32/sheipa_common.o
 .debug_info    0x000000000000f7cd      0x24f /home/auto_jenkins_wlan5/workspace/sdk/auto-release-master/amebasmart_gcc_project/build/project_ap/asdk/make/atf/bl32/sheipa_console_setup.o
 .debug_info    0x000000000000fa1c      0x152 /home/auto_jenkins_wlan5/workspace/sdk/auto-release-master/amebasmart_gcc_project/build/project_ap/asdk/make/atf/bl32/sheipa_pm_ext.o
 .debug_info    0x000000000000fb6e      0x90c /home/auto_jenkins_wlan5/workspace/sdk/auto-release-master/amebasmart_gcc_project/build/project_ap/asdk/make/atf/bl32/xlat_tables_arch.o
 .debug_info    0x000000000001047a      0x76c /home/auto_jenkins_wlan5/workspace/sdk/auto-release-master/amebasmart_gcc_project/build/project_ap/asdk/make/atf/bl32/xlat_tables_context.o
 .debug_info    0x0000000000010be6      0xe28 /home/auto_jenkins_wlan5/workspace/sdk/auto-release-master/amebasmart_gcc_project/build/project_ap/asdk/make/atf/bl32/xlat_tables_core.o
 .debug_info    0x0000000000011a0e      0x9cb /home/auto_jenkins_wlan5/workspace/sdk/auto-release-master/amebasmart_gcc_project/build/project_ap/asdk/make/atf/bl32/xlat_tables_utils.o
 .debug_info    0x00000000000123d9       0x22 /home/auto_jenkins_wlan5/workspace/sdk/auto-release-master/amebasmart_gcc_project/build/project_ap/asdk/make/atf/bl32/entrypoint.o
 .debug_info    0x00000000000123fb       0x22 /home/auto_jenkins_wlan5/workspace/sdk/auto-release-master/amebasmart_gcc_project/build/project_ap/asdk/make/atf/bl32/aem_generic.o
 .debug_info    0x000000000001241d       0x22 /home/auto_jenkins_wlan5/workspace/sdk/auto-release-master/amebasmart_gcc_project/build/project_ap/asdk/make/atf/bl32/cortex_a32.o
 .debug_info    0x000000000001243f       0x22 /home/auto_jenkins_wlan5/workspace/sdk/auto-release-master/amebasmart_gcc_project/build/project_ap/asdk/make/atf/bl32/cortex_a7.o
 .debug_info    0x0000000000012461       0x22 /home/auto_jenkins_wlan5/workspace/sdk/auto-release-master/amebasmart_gcc_project/build/project_ap/asdk/make/atf/bl32/cpu_helpers.o
 .debug_info    0x0000000000012483       0x22 /home/auto_jenkins_wlan5/workspace/sdk/auto-release-master/amebasmart_gcc_project/build/project_ap/asdk/make/atf/bl32/cpu_data.o
 .debug_info    0x00000000000124a5       0x22 /home/auto_jenkins_wlan5/workspace/sdk/auto-release-master/amebasmart_gcc_project/build/project_ap/asdk/make/atf/bl32/spinlock.o
 .debug_info    0x00000000000124c7       0x22 /home/auto_jenkins_wlan5/workspace/sdk/auto-release-master/amebasmart_gcc_project/build/project_ap/asdk/make/atf/bl32/psci_helpers.o
 .debug_info    0x00000000000124e9       0x22 /home/auto_jenkins_wlan5/workspace/sdk/auto-release-master/amebasmart_gcc_project/build/project_ap/asdk/make/atf/bl32/platform_mp_stack.o
 .debug_info    0x000000000001250b       0x22 /home/auto_jenkins_wlan5/workspace/sdk/auto-release-master/amebasmart_gcc_project/build/project_ap/asdk/make/atf/bl32/debug.o
 .debug_info    0x000000000001252d       0x22 /home/auto_jenkins_wlan5/workspace/sdk/auto-release-master/amebasmart_gcc_project/build/project_ap/asdk/make/atf/bl32/cache_helpers.o
 .debug_info    0x000000000001254f       0x22 /home/auto_jenkins_wlan5/workspace/sdk/auto-release-master/amebasmart_gcc_project/build/project_ap/asdk/make/atf/bl32/misc_helpers.o
 .debug_info    0x0000000000012571       0x22 /home/auto_jenkins_wlan5/workspace/sdk/auto-release-master/amebasmart_gcc_project/build/project_ap/asdk/make/atf/bl32/platform_helpers.o
 .debug_info    0x0000000000012593       0x26 /home/auto_jenkins_wlan5/workspace/sdk/auto-release-master/amebasmart_gcc_project/build/project_ap/asdk/make/atf/bl32/aeabi_uldivmod.o
 .debug_info    0x00000000000125b9       0x22 /home/auto_jenkins_wlan5/workspace/sdk/auto-release-master/amebasmart_gcc_project/build/project_ap/asdk/make/atf/bl32/plat_helpers.o
 .debug_info    0x00000000000125db       0x22 /home/auto_jenkins_wlan5/workspace/sdk/auto-release-master/amebasmart_gcc_project/build/project_ap/asdk/make/atf/bl32/sheipa_console.o
 .debug_info    0x00000000000125fd       0x22 /home/auto_jenkins_wlan5/workspace/sdk/auto-release-master/amebasmart_gcc_project/build/project_ap/asdk/make/atf/bl32/enable_mmu.o
 .debug_info    0x000000000001261f      0x17d /home/auto_jenkins_wlan5/workspace/sdk/auto-release-master/amebasmart_gcc_project/build/project_ap/asdk/make/atf/lib/libc.a(assert.o)
 .debug_info    0x000000000001279c       0xd6 /home/auto_jenkins_wlan5/workspace/sdk/auto-release-master/amebasmart_gcc_project/build/project_ap/asdk/make/atf/lib/libc.a(memcpy.o)
 .debug_info    0x0000000000012872      0x125 /home/auto_jenkins_wlan5/workspace/sdk/auto-release-master/amebasmart_gcc_project/build/project_ap/asdk/make/atf/lib/libc.a(memmove.o)
 .debug_info    0x0000000000012997       0xb5 /home/auto_jenkins_wlan5/workspace/sdk/auto-release-master/amebasmart_gcc_project/build/project_ap/asdk/make/atf/lib/libc.a(memset.o)
 .debug_info    0x0000000000012a4c      0x47d /home/auto_jenkins_wlan5/workspace/sdk/auto-release-master/amebasmart_gcc_project/build/project_ap/asdk/make/atf/lib/libc.a(printf.o)
 .debug_info    0x0000000000012ec9       0xcb /home/auto_jenkins_wlan5/workspace/sdk/auto-release-master/amebasmart_gcc_project/build/project_ap/asdk/make/atf/lib/libc.a(putchar.o)

.debug_abbrev   0x0000000000000000     0x53af
 .debug_abbrev  0x0000000000000000       0x45 /home/auto_jenkins_wlan5/workspace/sdk/auto-release-master/amebasmart_gcc_project/build/project_ap/asdk/make/atf/bl32/build_message.o
 .debug_abbrev  0x0000000000000045      0x337 /home/auto_jenkins_wlan5/workspace/sdk/auto-release-master/amebasmart_gcc_project/build/project_ap/asdk/make/atf/bl32/sp_min_main.o
 .debug_abbrev  0x000000000000037c      0x246 /home/auto_jenkins_wlan5/workspace/sdk/auto-release-master/amebasmart_gcc_project/build/project_ap/asdk/make/atf/bl32/runtime_svc.o
 .debug_abbrev  0x00000000000005c2      0x23c /home/auto_jenkins_wlan5/workspace/sdk/auto-release-master/amebasmart_gcc_project/build/project_ap/asdk/make/atf/bl32/gic_common.o
 .debug_abbrev  0x00000000000007fe      0x248 /home/auto_jenkins_wlan5/workspace/sdk/auto-release-master/amebasmart_gcc_project/build/project_ap/asdk/make/atf/bl32/gicv2_helpers.o
 .debug_abbrev  0x0000000000000a46      0x338 /home/auto_jenkins_wlan5/workspace/sdk/auto-release-master/amebasmart_gcc_project/build/project_ap/asdk/make/atf/bl32/gicv2_main.o
 .debug_abbrev  0x0000000000000d7e      0x16b /home/auto_jenkins_wlan5/workspace/sdk/auto-release-master/amebasmart_gcc_project/build/project_ap/asdk/make/atf/bl32/errata_report.o
 .debug_abbrev  0x0000000000000ee9      0x302 /home/auto_jenkins_wlan5/workspace/sdk/auto-release-master/amebasmart_gcc_project/build/project_ap/asdk/make/atf/bl32/context_mgmt.o
 .debug_abbrev  0x00000000000011eb       0xf7 /home/auto_jenkins_wlan5/workspace/sdk/auto-release-master/amebasmart_gcc_project/build/project_ap/asdk/make/atf/bl32/cpu_data_array.o
 .debug_abbrev  0x00000000000012e2      0x1ee /home/auto_jenkins_wlan5/workspace/sdk/auto-release-master/amebasmart_gcc_project/build/project_ap/asdk/make/atf/bl32/bakery_lock_coherent.o
 .debug_abbrev  0x00000000000014d0      0x533 /home/auto_jenkins_wlan5/workspace/sdk/auto-release-master/amebasmart_gcc_project/build/project_ap/asdk/make/atf/bl32/psci_common.o
 .debug_abbrev  0x0000000000001a03      0x46d /home/auto_jenkins_wlan5/workspace/sdk/auto-release-master/amebasmart_gcc_project/build/project_ap/asdk/make/atf/bl32/psci_main.o
 .debug_abbrev  0x0000000000001e70      0x16e /home/auto_jenkins_wlan5/workspace/sdk/auto-release-master/amebasmart_gcc_project/build/project_ap/asdk/make/atf/bl32/psci_mem_protect.o
 .debug_abbrev  0x0000000000001fde      0x2ae /home/auto_jenkins_wlan5/workspace/sdk/auto-release-master/amebasmart_gcc_project/build/project_ap/asdk/make/atf/bl32/psci_off.o
 .debug_abbrev  0x000000000000228c      0x33e /home/auto_jenkins_wlan5/workspace/sdk/auto-release-master/amebasmart_gcc_project/build/project_ap/asdk/make/atf/bl32/psci_on.o
 .debug_abbrev  0x00000000000025ca      0x34d /home/auto_jenkins_wlan5/workspace/sdk/auto-release-master/amebasmart_gcc_project/build/project_ap/asdk/make/atf/bl32/psci_setup.o
 .debug_abbrev  0x0000000000002917      0x3d1 /home/auto_jenkins_wlan5/workspace/sdk/auto-release-master/amebasmart_gcc_project/build/project_ap/asdk/make/atf/bl32/psci_suspend.o
 .debug_abbrev  0x0000000000002ce8      0x1d2 /home/auto_jenkins_wlan5/workspace/sdk/auto-release-master/amebasmart_gcc_project/build/project_ap/asdk/make/atf/bl32/psci_system_off.o
 .debug_abbrev  0x0000000000002eba       0x98 /home/auto_jenkins_wlan5/workspace/sdk/auto-release-master/amebasmart_gcc_project/build/project_ap/asdk/make/atf/bl32/plat_sp_min_common.o
 .debug_abbrev  0x0000000000002f52       0xf0 /home/auto_jenkins_wlan5/workspace/sdk/auto-release-master/amebasmart_gcc_project/build/project_ap/asdk/make/atf/bl32/plat_psci_common.o
 .debug_abbrev  0x0000000000003042       0xdc /home/auto_jenkins_wlan5/workspace/sdk/auto-release-master/amebasmart_gcc_project/build/project_ap/asdk/make/atf/bl32/bsec_svc.o
 .debug_abbrev  0x000000000000311e      0x197 /home/auto_jenkins_wlan5/workspace/sdk/auto-release-master/amebasmart_gcc_project/build/project_ap/asdk/make/atf/bl32/rtk_svc_setup.o
 .debug_abbrev  0x00000000000032b5      0x104 /home/auto_jenkins_wlan5/workspace/sdk/auto-release-master/amebasmart_gcc_project/build/project_ap/asdk/make/atf/bl32/sheipa_gic.o
 .debug_abbrev  0x00000000000033b9      0x19c /home/auto_jenkins_wlan5/workspace/sdk/auto-release-master/amebasmart_gcc_project/build/project_ap/asdk/make/atf/bl32/sp_min_setup.o
 .debug_abbrev  0x0000000000003555      0x10a /home/auto_jenkins_wlan5/workspace/sdk/auto-release-master/amebasmart_gcc_project/build/project_ap/asdk/make/atf/bl32/topology.o
 .debug_abbrev  0x000000000000365f      0x1fc /home/auto_jenkins_wlan5/workspace/sdk/auto-release-master/amebasmart_gcc_project/build/project_ap/asdk/make/atf/bl32/std_svc_setup.o
 .debug_abbrev  0x000000000000385b      0x128 /home/auto_jenkins_wlan5/workspace/sdk/auto-release-master/amebasmart_gcc_project/build/project_ap/asdk/make/atf/bl32/tf_log.o
 .debug_abbrev  0x0000000000003983      0x26a /home/auto_jenkins_wlan5/workspace/sdk/auto-release-master/amebasmart_gcc_project/build/project_ap/asdk/make/atf/bl32/multi_console.o
 .debug_abbrev  0x0000000000003bed       0xbf /home/auto_jenkins_wlan5/workspace/sdk/auto-release-master/amebasmart_gcc_project/build/project_ap/asdk/make/atf/bl32/plat_log_common.o
 .debug_abbrev  0x0000000000003cac       0xac /home/auto_jenkins_wlan5/workspace/sdk/auto-release-master/amebasmart_gcc_project/build/project_ap/asdk/make/atf/bl32/plat_common.o
 .debug_abbrev  0x0000000000003d58       0xe2 /home/auto_jenkins_wlan5/workspace/sdk/auto-release-master/amebasmart_gcc_project/build/project_ap/asdk/make/atf/bl32/ctzdi2.o
 .debug_abbrev  0x0000000000003e3a      0x11b /home/auto_jenkins_wlan5/workspace/sdk/auto-release-master/amebasmart_gcc_project/build/project_ap/asdk/make/atf/bl32/udivmoddi4.o
 .debug_abbrev  0x0000000000003f55      0x138 /home/auto_jenkins_wlan5/workspace/sdk/auto-release-master/amebasmart_gcc_project/build/project_ap/asdk/make/atf/bl32/sheipa_common.o
 .debug_abbrev  0x000000000000408d      0x102 /home/auto_jenkins_wlan5/workspace/sdk/auto-release-master/amebasmart_gcc_project/build/project_ap/asdk/make/atf/bl32/sheipa_console_setup.o
 .debug_abbrev  0x000000000000418f       0x6b /home/auto_jenkins_wlan5/workspace/sdk/auto-release-master/amebasmart_gcc_project/build/project_ap/asdk/make/atf/bl32/sheipa_pm_ext.o
 .debug_abbrev  0x00000000000041fa      0x2e1 /home/auto_jenkins_wlan5/workspace/sdk/auto-release-master/amebasmart_gcc_project/build/project_ap/asdk/make/atf/bl32/xlat_tables_arch.o
 .debug_abbrev  0x00000000000044db      0x20a /home/auto_jenkins_wlan5/workspace/sdk/auto-release-master/amebasmart_gcc_project/build/project_ap/asdk/make/atf/bl32/xlat_tables_context.o
 .debug_abbrev  0x00000000000046e5      0x342 /home/auto_jenkins_wlan5/workspace/sdk/auto-release-master/amebasmart_gcc_project/build/project_ap/asdk/make/atf/bl32/xlat_tables_core.o
 .debug_abbrev  0x0000000000004a27      0x2a3 /home/auto_jenkins_wlan5/workspace/sdk/auto-release-master/amebasmart_gcc_project/build/project_ap/asdk/make/atf/bl32/xlat_tables_utils.o
 .debug_abbrev  0x0000000000004cca       0x12 /home/auto_jenkins_wlan5/workspace/sdk/auto-release-master/amebasmart_gcc_project/build/project_ap/asdk/make/atf/bl32/entrypoint.o
 .debug_abbrev  0x0000000000004cdc       0x12 /home/auto_jenkins_wlan5/workspace/sdk/auto-release-master/amebasmart_gcc_project/build/project_ap/asdk/make/atf/bl32/aem_generic.o
 .debug_abbrev  0x0000000000004cee       0x12 /home/auto_jenkins_wlan5/workspace/sdk/auto-release-master/amebasmart_gcc_project/build/project_ap/asdk/make/atf/bl32/cortex_a32.o
 .debug_abbrev  0x0000000000004d00       0x12 /home/auto_jenkins_wlan5/workspace/sdk/auto-release-master/amebasmart_gcc_project/build/project_ap/asdk/make/atf/bl32/cortex_a7.o
 .debug_abbrev  0x0000000000004d12       0x12 /home/auto_jenkins_wlan5/workspace/sdk/auto-release-master/amebasmart_gcc_project/build/project_ap/asdk/make/atf/bl32/cpu_helpers.o
 .debug_abbrev  0x0000000000004d24       0x12 /home/auto_jenkins_wlan5/workspace/sdk/auto-release-master/amebasmart_gcc_project/build/project_ap/asdk/make/atf/bl32/cpu_data.o
 .debug_abbrev  0x0000000000004d36       0x12 /home/auto_jenkins_wlan5/workspace/sdk/auto-release-master/amebasmart_gcc_project/build/project_ap/asdk/make/atf/bl32/spinlock.o
 .debug_abbrev  0x0000000000004d48       0x12 /home/auto_jenkins_wlan5/workspace/sdk/auto-release-master/amebasmart_gcc_project/build/project_ap/asdk/make/atf/bl32/psci_helpers.o
 .debug_abbrev  0x0000000000004d5a       0x12 /home/auto_jenkins_wlan5/workspace/sdk/auto-release-master/amebasmart_gcc_project/build/project_ap/asdk/make/atf/bl32/platform_mp_stack.o
 .debug_abbrev  0x0000000000004d6c       0x12 /home/auto_jenkins_wlan5/workspace/sdk/auto-release-master/amebasmart_gcc_project/build/project_ap/asdk/make/atf/bl32/debug.o
 .debug_abbrev  0x0000000000004d7e       0x12 /home/auto_jenkins_wlan5/workspace/sdk/auto-release-master/amebasmart_gcc_project/build/project_ap/asdk/make/atf/bl32/cache_helpers.o
 .debug_abbrev  0x0000000000004d90       0x12 /home/auto_jenkins_wlan5/workspace/sdk/auto-release-master/amebasmart_gcc_project/build/project_ap/asdk/make/atf/bl32/misc_helpers.o
 .debug_abbrev  0x0000000000004da2       0x12 /home/auto_jenkins_wlan5/workspace/sdk/auto-release-master/amebasmart_gcc_project/build/project_ap/asdk/make/atf/bl32/platform_helpers.o
 .debug_abbrev  0x0000000000004db4       0x14 /home/auto_jenkins_wlan5/workspace/sdk/auto-release-master/amebasmart_gcc_project/build/project_ap/asdk/make/atf/bl32/aeabi_uldivmod.o
 .debug_abbrev  0x0000000000004dc8       0x12 /home/auto_jenkins_wlan5/workspace/sdk/auto-release-master/amebasmart_gcc_project/build/project_ap/asdk/make/atf/bl32/plat_helpers.o
 .debug_abbrev  0x0000000000004dda       0x12 /home/auto_jenkins_wlan5/workspace/sdk/auto-release-master/amebasmart_gcc_project/build/project_ap/asdk/make/atf/bl32/sheipa_console.o
 .debug_abbrev  0x0000000000004dec       0x12 /home/auto_jenkins_wlan5/workspace/sdk/auto-release-master/amebasmart_gcc_project/build/project_ap/asdk/make/atf/bl32/enable_mmu.o
 .debug_abbrev  0x0000000000004dfe       0xc2 /home/auto_jenkins_wlan5/workspace/sdk/auto-release-master/amebasmart_gcc_project/build/project_ap/asdk/make/atf/lib/libc.a(assert.o)
 .debug_abbrev  0x0000000000004ec0       0xa1 /home/auto_jenkins_wlan5/workspace/sdk/auto-release-master/amebasmart_gcc_project/build/project_ap/asdk/make/atf/lib/libc.a(memcpy.o)
 .debug_abbrev  0x0000000000004f61       0xc6 /home/auto_jenkins_wlan5/workspace/sdk/auto-release-master/amebasmart_gcc_project/build/project_ap/asdk/make/atf/lib/libc.a(memmove.o)
 .debug_abbrev  0x0000000000005027       0xa0 /home/auto_jenkins_wlan5/workspace/sdk/auto-release-master/amebasmart_gcc_project/build/project_ap/asdk/make/atf/lib/libc.a(memset.o)
 .debug_abbrev  0x00000000000050c7      0x253 /home/auto_jenkins_wlan5/workspace/sdk/auto-release-master/amebasmart_gcc_project/build/project_ap/asdk/make/atf/lib/libc.a(printf.o)
 .debug_abbrev  0x000000000000531a       0x95 /home/auto_jenkins_wlan5/workspace/sdk/auto-release-master/amebasmart_gcc_project/build/project_ap/asdk/make/atf/lib/libc.a(putchar.o)

.debug_aranges  0x0000000000000000      0xf58
 .debug_aranges
                0x0000000000000000       0x18 /home/auto_jenkins_wlan5/workspace/sdk/auto-release-master/amebasmart_gcc_project/build/project_ap/asdk/make/atf/bl32/build_message.o
 .debug_aranges
                0x0000000000000018       0x68 /home/auto_jenkins_wlan5/workspace/sdk/auto-release-master/amebasmart_gcc_project/build/project_ap/asdk/make/atf/bl32/sp_min_main.o
 .debug_aranges
                0x0000000000000080       0x28 /home/auto_jenkins_wlan5/workspace/sdk/auto-release-master/amebasmart_gcc_project/build/project_ap/asdk/make/atf/bl32/runtime_svc.o
 .debug_aranges
                0x00000000000000a8      0x118 /home/auto_jenkins_wlan5/workspace/sdk/auto-release-master/amebasmart_gcc_project/build/project_ap/asdk/make/atf/bl32/gic_common.o
 .debug_aranges
                0x00000000000001c0       0x68 /home/auto_jenkins_wlan5/workspace/sdk/auto-release-master/amebasmart_gcc_project/build/project_ap/asdk/make/atf/bl32/gicv2_helpers.o
 .debug_aranges
                0x0000000000000228       0xd8 /home/auto_jenkins_wlan5/workspace/sdk/auto-release-master/amebasmart_gcc_project/build/project_ap/asdk/make/atf/bl32/gicv2_main.o
 .debug_aranges
                0x0000000000000300       0x28 /home/auto_jenkins_wlan5/workspace/sdk/auto-release-master/amebasmart_gcc_project/build/project_ap/asdk/make/atf/bl32/errata_report.o
 .debug_aranges
                0x0000000000000328       0x40 /home/auto_jenkins_wlan5/workspace/sdk/auto-release-master/amebasmart_gcc_project/build/project_ap/asdk/make/atf/bl32/context_mgmt.o
 .debug_aranges
                0x0000000000000368       0x18 /home/auto_jenkins_wlan5/workspace/sdk/auto-release-master/amebasmart_gcc_project/build/project_ap/asdk/make/atf/bl32/cpu_data_array.o
 .debug_aranges
                0x0000000000000380       0x28 /home/auto_jenkins_wlan5/workspace/sdk/auto-release-master/amebasmart_gcc_project/build/project_ap/asdk/make/atf/bl32/bakery_lock_coherent.o
 .debug_aranges
                0x00000000000003a8       0xc8 /home/auto_jenkins_wlan5/workspace/sdk/auto-release-master/amebasmart_gcc_project/build/project_ap/asdk/make/atf/bl32/psci_common.o
 .debug_aranges
                0x0000000000000470       0x78 /home/auto_jenkins_wlan5/workspace/sdk/auto-release-master/amebasmart_gcc_project/build/project_ap/asdk/make/atf/bl32/psci_main.o
 .debug_aranges
                0x00000000000004e8       0x28 /home/auto_jenkins_wlan5/workspace/sdk/auto-release-master/amebasmart_gcc_project/build/project_ap/asdk/make/atf/bl32/psci_mem_protect.o
 .debug_aranges
                0x0000000000000510       0x20 /home/auto_jenkins_wlan5/workspace/sdk/auto-release-master/amebasmart_gcc_project/build/project_ap/asdk/make/atf/bl32/psci_off.o
 .debug_aranges
                0x0000000000000530       0x28 /home/auto_jenkins_wlan5/workspace/sdk/auto-release-master/amebasmart_gcc_project/build/project_ap/asdk/make/atf/bl32/psci_on.o
 .debug_aranges
                0x0000000000000558       0x30 /home/auto_jenkins_wlan5/workspace/sdk/auto-release-master/amebasmart_gcc_project/build/project_ap/asdk/make/atf/bl32/psci_setup.o
 .debug_aranges
                0x0000000000000588       0x28 /home/auto_jenkins_wlan5/workspace/sdk/auto-release-master/amebasmart_gcc_project/build/project_ap/asdk/make/atf/bl32/psci_suspend.o
 .debug_aranges
                0x00000000000005b0       0x30 /home/auto_jenkins_wlan5/workspace/sdk/auto-release-master/amebasmart_gcc_project/build/project_ap/asdk/make/atf/bl32/psci_system_off.o
 .debug_aranges
                0x00000000000005e0       0x20 /home/auto_jenkins_wlan5/workspace/sdk/auto-release-master/amebasmart_gcc_project/build/project_ap/asdk/make/atf/bl32/plat_sp_min_common.o
 .debug_aranges
                0x0000000000000600       0x20 /home/auto_jenkins_wlan5/workspace/sdk/auto-release-master/amebasmart_gcc_project/build/project_ap/asdk/make/atf/bl32/plat_psci_common.o
 .debug_aranges
                0x0000000000000620       0x20 /home/auto_jenkins_wlan5/workspace/sdk/auto-release-master/amebasmart_gcc_project/build/project_ap/asdk/make/atf/bl32/bsec_svc.o
 .debug_aranges
                0x0000000000000640       0x30 /home/auto_jenkins_wlan5/workspace/sdk/auto-release-master/amebasmart_gcc_project/build/project_ap/asdk/make/atf/bl32/rtk_svc_setup.o
 .debug_aranges
                0x0000000000000670       0x40 /home/auto_jenkins_wlan5/workspace/sdk/auto-release-master/amebasmart_gcc_project/build/project_ap/asdk/make/atf/bl32/sheipa_gic.o
 .debug_aranges
                0x00000000000006b0       0x48 /home/auto_jenkins_wlan5/workspace/sdk/auto-release-master/amebasmart_gcc_project/build/project_ap/asdk/make/atf/bl32/sp_min_setup.o
 .debug_aranges
                0x00000000000006f8       0x28 /home/auto_jenkins_wlan5/workspace/sdk/auto-release-master/amebasmart_gcc_project/build/project_ap/asdk/make/atf/bl32/topology.o
 .debug_aranges
                0x0000000000000720       0x28 /home/auto_jenkins_wlan5/workspace/sdk/auto-release-master/amebasmart_gcc_project/build/project_ap/asdk/make/atf/bl32/std_svc_setup.o
 .debug_aranges
                0x0000000000000748       0x28 /home/auto_jenkins_wlan5/workspace/sdk/auto-release-master/amebasmart_gcc_project/build/project_ap/asdk/make/atf/bl32/tf_log.o
 .debug_aranges
                0x0000000000000770       0x58 /home/auto_jenkins_wlan5/workspace/sdk/auto-release-master/amebasmart_gcc_project/build/project_ap/asdk/make/atf/bl32/multi_console.o
 .debug_aranges
                0x00000000000007c8       0x20 /home/auto_jenkins_wlan5/workspace/sdk/auto-release-master/amebasmart_gcc_project/build/project_ap/asdk/make/atf/bl32/plat_log_common.o
 .debug_aranges
                0x00000000000007e8       0x20 /home/auto_jenkins_wlan5/workspace/sdk/auto-release-master/amebasmart_gcc_project/build/project_ap/asdk/make/atf/bl32/plat_common.o
 .debug_aranges
                0x0000000000000808       0x20 /home/auto_jenkins_wlan5/workspace/sdk/auto-release-master/amebasmart_gcc_project/build/project_ap/asdk/make/atf/bl32/ctzdi2.o
 .debug_aranges
                0x0000000000000828       0x20 /home/auto_jenkins_wlan5/workspace/sdk/auto-release-master/amebasmart_gcc_project/build/project_ap/asdk/make/atf/bl32/udivmoddi4.o
 .debug_aranges
                0x0000000000000848       0x28 /home/auto_jenkins_wlan5/workspace/sdk/auto-release-master/amebasmart_gcc_project/build/project_ap/asdk/make/atf/bl32/sheipa_common.o
 .debug_aranges
                0x0000000000000870       0x20 /home/auto_jenkins_wlan5/workspace/sdk/auto-release-master/amebasmart_gcc_project/build/project_ap/asdk/make/atf/bl32/sheipa_console_setup.o
 .debug_aranges
                0x0000000000000890       0x40 /home/auto_jenkins_wlan5/workspace/sdk/auto-release-master/amebasmart_gcc_project/build/project_ap/asdk/make/atf/bl32/sheipa_pm_ext.o
 .debug_aranges
                0x00000000000008d0       0x70 /home/auto_jenkins_wlan5/workspace/sdk/auto-release-master/amebasmart_gcc_project/build/project_ap/asdk/make/atf/bl32/xlat_tables_arch.o
 .debug_aranges
                0x0000000000000940       0x60 /home/auto_jenkins_wlan5/workspace/sdk/auto-release-master/amebasmart_gcc_project/build/project_ap/asdk/make/atf/bl32/xlat_tables_context.o
 .debug_aranges
                0x00000000000009a0       0x50 /home/auto_jenkins_wlan5/workspace/sdk/auto-release-master/amebasmart_gcc_project/build/project_ap/asdk/make/atf/bl32/xlat_tables_core.o
 .debug_aranges
                0x00000000000009f0       0x40 /home/auto_jenkins_wlan5/workspace/sdk/auto-release-master/amebasmart_gcc_project/build/project_ap/asdk/make/atf/bl32/xlat_tables_utils.o
 .debug_aranges
                0x0000000000000a30       0x48 /home/auto_jenkins_wlan5/workspace/sdk/auto-release-master/amebasmart_gcc_project/build/project_ap/asdk/make/atf/bl32/entrypoint.o
 .debug_aranges
                0x0000000000000a78       0x30 /home/auto_jenkins_wlan5/workspace/sdk/auto-release-master/amebasmart_gcc_project/build/project_ap/asdk/make/atf/bl32/aem_generic.o
 .debug_aranges
                0x0000000000000aa8       0x40 /home/auto_jenkins_wlan5/workspace/sdk/auto-release-master/amebasmart_gcc_project/build/project_ap/asdk/make/atf/bl32/cortex_a32.o
 .debug_aranges
                0x0000000000000ae8       0x48 /home/auto_jenkins_wlan5/workspace/sdk/auto-release-master/amebasmart_gcc_project/build/project_ap/asdk/make/atf/bl32/cortex_a7.o
 .debug_aranges
                0x0000000000000b30       0x58 /home/auto_jenkins_wlan5/workspace/sdk/auto-release-master/amebasmart_gcc_project/build/project_ap/asdk/make/atf/bl32/cpu_helpers.o
 .debug_aranges
                0x0000000000000b88       0x28 /home/auto_jenkins_wlan5/workspace/sdk/auto-release-master/amebasmart_gcc_project/build/project_ap/asdk/make/atf/bl32/cpu_data.o
 .debug_aranges
                0x0000000000000bb0       0x28 /home/auto_jenkins_wlan5/workspace/sdk/auto-release-master/amebasmart_gcc_project/build/project_ap/asdk/make/atf/bl32/spinlock.o
 .debug_aranges
                0x0000000000000bd8       0x38 /home/auto_jenkins_wlan5/workspace/sdk/auto-release-master/amebasmart_gcc_project/build/project_ap/asdk/make/atf/bl32/psci_helpers.o
 .debug_aranges
                0x0000000000000c10       0x28 /home/auto_jenkins_wlan5/workspace/sdk/auto-release-master/amebasmart_gcc_project/build/project_ap/asdk/make/atf/bl32/platform_mp_stack.o
 .debug_aranges
                0x0000000000000c38       0x50 /home/auto_jenkins_wlan5/workspace/sdk/auto-release-master/amebasmart_gcc_project/build/project_ap/asdk/make/atf/bl32/debug.o
 .debug_aranges
                0x0000000000000c88       0x60 /home/auto_jenkins_wlan5/workspace/sdk/auto-release-master/amebasmart_gcc_project/build/project_ap/asdk/make/atf/bl32/cache_helpers.o
 .debug_aranges
                0x0000000000000ce8       0x40 /home/auto_jenkins_wlan5/workspace/sdk/auto-release-master/amebasmart_gcc_project/build/project_ap/asdk/make/atf/bl32/misc_helpers.o
 .debug_aranges
                0x0000000000000d28       0x58 /home/auto_jenkins_wlan5/workspace/sdk/auto-release-master/amebasmart_gcc_project/build/project_ap/asdk/make/atf/bl32/platform_helpers.o
 .debug_aranges
                0x0000000000000d80       0x20 /home/auto_jenkins_wlan5/workspace/sdk/auto-release-master/amebasmart_gcc_project/build/project_ap/asdk/make/atf/bl32/aeabi_uldivmod.o
 .debug_aranges
                0x0000000000000da0       0x80 /home/auto_jenkins_wlan5/workspace/sdk/auto-release-master/amebasmart_gcc_project/build/project_ap/asdk/make/atf/bl32/plat_helpers.o
 .debug_aranges
                0x0000000000000e20       0x40 /home/auto_jenkins_wlan5/workspace/sdk/auto-release-master/amebasmart_gcc_project/build/project_ap/asdk/make/atf/bl32/sheipa_console.o
 .debug_aranges
                0x0000000000000e60       0x28 /home/auto_jenkins_wlan5/workspace/sdk/auto-release-master/amebasmart_gcc_project/build/project_ap/asdk/make/atf/bl32/enable_mmu.o
 .debug_aranges
                0x0000000000000e88       0x20 /home/auto_jenkins_wlan5/workspace/sdk/auto-release-master/amebasmart_gcc_project/build/project_ap/asdk/make/atf/lib/libc.a(assert.o)
 .debug_aranges
                0x0000000000000ea8       0x20 /home/auto_jenkins_wlan5/workspace/sdk/auto-release-master/amebasmart_gcc_project/build/project_ap/asdk/make/atf/lib/libc.a(memcpy.o)
 .debug_aranges
                0x0000000000000ec8       0x20 /home/auto_jenkins_wlan5/workspace/sdk/auto-release-master/amebasmart_gcc_project/build/project_ap/asdk/make/atf/lib/libc.a(memmove.o)
 .debug_aranges
                0x0000000000000ee8       0x20 /home/auto_jenkins_wlan5/workspace/sdk/auto-release-master/amebasmart_gcc_project/build/project_ap/asdk/make/atf/lib/libc.a(memset.o)
 .debug_aranges
                0x0000000000000f08       0x30 /home/auto_jenkins_wlan5/workspace/sdk/auto-release-master/amebasmart_gcc_project/build/project_ap/asdk/make/atf/lib/libc.a(printf.o)
 .debug_aranges
                0x0000000000000f38       0x20 /home/auto_jenkins_wlan5/workspace/sdk/auto-release-master/amebasmart_gcc_project/build/project_ap/asdk/make/atf/lib/libc.a(putchar.o)

.debug_line     0x0000000000000000     0x9ac4
 .debug_line    0x0000000000000000       0x28 /home/auto_jenkins_wlan5/workspace/sdk/auto-release-master/amebasmart_gcc_project/build/project_ap/asdk/make/atf/bl32/build_message.o
 .debug_line    0x0000000000000028      0x5c7 /home/auto_jenkins_wlan5/workspace/sdk/auto-release-master/amebasmart_gcc_project/build/project_ap/asdk/make/atf/bl32/sp_min_main.o
 .debug_line    0x00000000000005ef      0x30a /home/auto_jenkins_wlan5/workspace/sdk/auto-release-master/amebasmart_gcc_project/build/project_ap/asdk/make/atf/bl32/runtime_svc.o
 .debug_line    0x00000000000008f9      0x730 /home/auto_jenkins_wlan5/workspace/sdk/auto-release-master/amebasmart_gcc_project/build/project_ap/asdk/make/atf/bl32/gic_common.o
 .debug_line    0x0000000000001029      0x599 /home/auto_jenkins_wlan5/workspace/sdk/auto-release-master/amebasmart_gcc_project/build/project_ap/asdk/make/atf/bl32/gicv2_helpers.o
 .debug_line    0x00000000000015c2      0xbb5 /home/auto_jenkins_wlan5/workspace/sdk/auto-release-master/amebasmart_gcc_project/build/project_ap/asdk/make/atf/bl32/gicv2_main.o
 .debug_line    0x0000000000002177      0x16c /home/auto_jenkins_wlan5/workspace/sdk/auto-release-master/amebasmart_gcc_project/build/project_ap/asdk/make/atf/bl32/errata_report.o
 .debug_line    0x00000000000022e3      0x4bc /home/auto_jenkins_wlan5/workspace/sdk/auto-release-master/amebasmart_gcc_project/build/project_ap/asdk/make/atf/bl32/context_mgmt.o
 .debug_line    0x000000000000279f       0xbd /home/auto_jenkins_wlan5/workspace/sdk/auto-release-master/amebasmart_gcc_project/build/project_ap/asdk/make/atf/bl32/cpu_data_array.o
 .debug_line    0x000000000000285c      0x3aa /home/auto_jenkins_wlan5/workspace/sdk/auto-release-master/amebasmart_gcc_project/build/project_ap/asdk/make/atf/bl32/bakery_lock_coherent.o
 .debug_line    0x0000000000002c06      0xf43 /home/auto_jenkins_wlan5/workspace/sdk/auto-release-master/amebasmart_gcc_project/build/project_ap/asdk/make/atf/bl32/psci_common.o
 .debug_line    0x0000000000003b49      0x768 /home/auto_jenkins_wlan5/workspace/sdk/auto-release-master/amebasmart_gcc_project/build/project_ap/asdk/make/atf/bl32/psci_main.o
 .debug_line    0x00000000000042b1      0x162 /home/auto_jenkins_wlan5/workspace/sdk/auto-release-master/amebasmart_gcc_project/build/project_ap/asdk/make/atf/bl32/psci_mem_protect.o
 .debug_line    0x0000000000004413      0x252 /home/auto_jenkins_wlan5/workspace/sdk/auto-release-master/amebasmart_gcc_project/build/project_ap/asdk/make/atf/bl32/psci_off.o
 .debug_line    0x0000000000004665      0x429 /home/auto_jenkins_wlan5/workspace/sdk/auto-release-master/amebasmart_gcc_project/build/project_ap/asdk/make/atf/bl32/psci_on.o
 .debug_line    0x0000000000004a8e      0x65f /home/auto_jenkins_wlan5/workspace/sdk/auto-release-master/amebasmart_gcc_project/build/project_ap/asdk/make/atf/bl32/psci_setup.o
 .debug_line    0x00000000000050ed      0x3ec /home/auto_jenkins_wlan5/workspace/sdk/auto-release-master/amebasmart_gcc_project/build/project_ap/asdk/make/atf/bl32/psci_suspend.o
 .debug_line    0x00000000000054d9      0x217 /home/auto_jenkins_wlan5/workspace/sdk/auto-release-master/amebasmart_gcc_project/build/project_ap/asdk/make/atf/bl32/psci_system_off.o
 .debug_line    0x00000000000056f0       0xb5 /home/auto_jenkins_wlan5/workspace/sdk/auto-release-master/amebasmart_gcc_project/build/project_ap/asdk/make/atf/bl32/plat_sp_min_common.o
 .debug_line    0x00000000000057a5       0xf6 /home/auto_jenkins_wlan5/workspace/sdk/auto-release-master/amebasmart_gcc_project/build/project_ap/asdk/make/atf/bl32/plat_psci_common.o
 .debug_line    0x000000000000589b       0xc5 /home/auto_jenkins_wlan5/workspace/sdk/auto-release-master/amebasmart_gcc_project/build/project_ap/asdk/make/atf/bl32/bsec_svc.o
 .debug_line    0x0000000000005960      0x1bd /home/auto_jenkins_wlan5/workspace/sdk/auto-release-master/amebasmart_gcc_project/build/project_ap/asdk/make/atf/bl32/rtk_svc_setup.o
 .debug_line    0x0000000000005b1d      0x12c /home/auto_jenkins_wlan5/workspace/sdk/auto-release-master/amebasmart_gcc_project/build/project_ap/asdk/make/atf/bl32/sheipa_gic.o
 .debug_line    0x0000000000005c49      0x24b /home/auto_jenkins_wlan5/workspace/sdk/auto-release-master/amebasmart_gcc_project/build/project_ap/asdk/make/atf/bl32/sp_min_setup.o
 .debug_line    0x0000000000005e94       0xe0 /home/auto_jenkins_wlan5/workspace/sdk/auto-release-master/amebasmart_gcc_project/build/project_ap/asdk/make/atf/bl32/topology.o
 .debug_line    0x0000000000005f74      0x24e /home/auto_jenkins_wlan5/workspace/sdk/auto-release-master/amebasmart_gcc_project/build/project_ap/asdk/make/atf/bl32/std_svc_setup.o
 .debug_line    0x00000000000061c2      0x17e /home/auto_jenkins_wlan5/workspace/sdk/auto-release-master/amebasmart_gcc_project/build/project_ap/asdk/make/atf/bl32/tf_log.o
 .debug_line    0x0000000000006340      0x3cd /home/auto_jenkins_wlan5/workspace/sdk/auto-release-master/amebasmart_gcc_project/build/project_ap/asdk/make/atf/bl32/multi_console.o
 .debug_line    0x000000000000670d       0x9d /home/auto_jenkins_wlan5/workspace/sdk/auto-release-master/amebasmart_gcc_project/build/project_ap/asdk/make/atf/bl32/plat_log_common.o
 .debug_line    0x00000000000067aa       0xbf /home/auto_jenkins_wlan5/workspace/sdk/auto-release-master/amebasmart_gcc_project/build/project_ap/asdk/make/atf/bl32/plat_common.o
 .debug_line    0x0000000000006869       0x88 /home/auto_jenkins_wlan5/workspace/sdk/auto-release-master/amebasmart_gcc_project/build/project_ap/asdk/make/atf/bl32/ctzdi2.o
 .debug_line    0x00000000000068f1      0x391 /home/auto_jenkins_wlan5/workspace/sdk/auto-release-master/amebasmart_gcc_project/build/project_ap/asdk/make/atf/bl32/udivmoddi4.o
 .debug_line    0x0000000000006c82      0x121 /home/auto_jenkins_wlan5/workspace/sdk/auto-release-master/amebasmart_gcc_project/build/project_ap/asdk/make/atf/bl32/sheipa_common.o
 .debug_line    0x0000000000006da3       0xf9 /home/auto_jenkins_wlan5/workspace/sdk/auto-release-master/amebasmart_gcc_project/build/project_ap/asdk/make/atf/bl32/sheipa_console_setup.o
 .debug_line    0x0000000000006e9c       0xf7 /home/auto_jenkins_wlan5/workspace/sdk/auto-release-master/amebasmart_gcc_project/build/project_ap/asdk/make/atf/bl32/sheipa_pm_ext.o
 .debug_line    0x0000000000006f93      0x4fe /home/auto_jenkins_wlan5/workspace/sdk/auto-release-master/amebasmart_gcc_project/build/project_ap/asdk/make/atf/bl32/xlat_tables_arch.o
 .debug_line    0x0000000000007491      0x2fa /home/auto_jenkins_wlan5/workspace/sdk/auto-release-master/amebasmart_gcc_project/build/project_ap/asdk/make/atf/bl32/xlat_tables_context.o
 .debug_line    0x000000000000778b      0x945 /home/auto_jenkins_wlan5/workspace/sdk/auto-release-master/amebasmart_gcc_project/build/project_ap/asdk/make/atf/bl32/xlat_tables_core.o
 .debug_line    0x00000000000080d0      0x661 /home/auto_jenkins_wlan5/workspace/sdk/auto-release-master/amebasmart_gcc_project/build/project_ap/asdk/make/atf/bl32/xlat_tables_utils.o
 .debug_line    0x0000000000008731       0xf4 /home/auto_jenkins_wlan5/workspace/sdk/auto-release-master/amebasmart_gcc_project/build/project_ap/asdk/make/atf/bl32/entrypoint.o
 .debug_line    0x0000000000008825       0x7a /home/auto_jenkins_wlan5/workspace/sdk/auto-release-master/amebasmart_gcc_project/build/project_ap/asdk/make/atf/bl32/aem_generic.o
 .debug_line    0x000000000000889f       0xab /home/auto_jenkins_wlan5/workspace/sdk/auto-release-master/amebasmart_gcc_project/build/project_ap/asdk/make/atf/bl32/cortex_a32.o
 .debug_line    0x000000000000894a       0xb2 /home/auto_jenkins_wlan5/workspace/sdk/auto-release-master/amebasmart_gcc_project/build/project_ap/asdk/make/atf/bl32/cortex_a7.o
 .debug_line    0x00000000000089fc      0x10e /home/auto_jenkins_wlan5/workspace/sdk/auto-release-master/amebasmart_gcc_project/build/project_ap/asdk/make/atf/bl32/cpu_helpers.o
 .debug_line    0x0000000000008b0a       0x69 /home/auto_jenkins_wlan5/workspace/sdk/auto-release-master/amebasmart_gcc_project/build/project_ap/asdk/make/atf/bl32/cpu_data.o
 .debug_line    0x0000000000008b73       0x6f /home/auto_jenkins_wlan5/workspace/sdk/auto-release-master/amebasmart_gcc_project/build/project_ap/asdk/make/atf/bl32/spinlock.o
 .debug_line    0x0000000000008be2       0xa0 /home/auto_jenkins_wlan5/workspace/sdk/auto-release-master/amebasmart_gcc_project/build/project_ap/asdk/make/atf/bl32/psci_helpers.o
 .debug_line    0x0000000000008c82       0x6d /home/auto_jenkins_wlan5/workspace/sdk/auto-release-master/amebasmart_gcc_project/build/project_ap/asdk/make/atf/bl32/platform_mp_stack.o
 .debug_line    0x0000000000008cef       0xf2 /home/auto_jenkins_wlan5/workspace/sdk/auto-release-master/amebasmart_gcc_project/build/project_ap/asdk/make/atf/bl32/debug.o
 .debug_line    0x0000000000008de1       0xef /home/auto_jenkins_wlan5/workspace/sdk/auto-release-master/amebasmart_gcc_project/build/project_ap/asdk/make/atf/bl32/cache_helpers.o
 .debug_line    0x0000000000008ed0       0xbe /home/auto_jenkins_wlan5/workspace/sdk/auto-release-master/amebasmart_gcc_project/build/project_ap/asdk/make/atf/bl32/misc_helpers.o
 .debug_line    0x0000000000008f8e       0xc2 /home/auto_jenkins_wlan5/workspace/sdk/auto-release-master/amebasmart_gcc_project/build/project_ap/asdk/make/atf/bl32/platform_helpers.o
 .debug_line    0x0000000000009050       0x67 /home/auto_jenkins_wlan5/workspace/sdk/auto-release-master/amebasmart_gcc_project/build/project_ap/asdk/make/atf/bl32/aeabi_uldivmod.o
 .debug_line    0x00000000000090b7      0x18f /home/auto_jenkins_wlan5/workspace/sdk/auto-release-master/amebasmart_gcc_project/build/project_ap/asdk/make/atf/bl32/plat_helpers.o
 .debug_line    0x0000000000009246       0xd5 /home/auto_jenkins_wlan5/workspace/sdk/auto-release-master/amebasmart_gcc_project/build/project_ap/asdk/make/atf/bl32/sheipa_console.o
 .debug_line    0x000000000000931b       0xa4 /home/auto_jenkins_wlan5/workspace/sdk/auto-release-master/amebasmart_gcc_project/build/project_ap/asdk/make/atf/bl32/enable_mmu.o
 .debug_line    0x00000000000093bf       0xe3 /home/auto_jenkins_wlan5/workspace/sdk/auto-release-master/amebasmart_gcc_project/build/project_ap/asdk/make/atf/lib/libc.a(assert.o)
 .debug_line    0x00000000000094a2       0x8b /home/auto_jenkins_wlan5/workspace/sdk/auto-release-master/amebasmart_gcc_project/build/project_ap/asdk/make/atf/lib/libc.a(memcpy.o)
 .debug_line    0x000000000000952d       0xd7 /home/auto_jenkins_wlan5/workspace/sdk/auto-release-master/amebasmart_gcc_project/build/project_ap/asdk/make/atf/lib/libc.a(memmove.o)
 .debug_line    0x0000000000009604       0x83 /home/auto_jenkins_wlan5/workspace/sdk/auto-release-master/amebasmart_gcc_project/build/project_ap/asdk/make/atf/lib/libc.a(memset.o)
 .debug_line    0x0000000000009687      0x3c2 /home/auto_jenkins_wlan5/workspace/sdk/auto-release-master/amebasmart_gcc_project/build/project_ap/asdk/make/atf/lib/libc.a(printf.o)
 .debug_line    0x0000000000009a49       0x7b /home/auto_jenkins_wlan5/workspace/sdk/auto-release-master/amebasmart_gcc_project/build/project_ap/asdk/make/atf/lib/libc.a(putchar.o)

.debug_str      0x0000000000000000     0x38cd
 .debug_str     0x0000000000000000      0x15c /home/auto_jenkins_wlan5/workspace/sdk/auto-release-master/amebasmart_gcc_project/build/project_ap/asdk/make/atf/bl32/build_message.o
                                        0x16e (size before relaxing)
 .debug_str     0x000000000000015c      0x52a /home/auto_jenkins_wlan5/workspace/sdk/auto-release-master/amebasmart_gcc_project/build/project_ap/asdk/make/atf/bl32/sp_min_main.o
                                        0x6f5 (size before relaxing)
 .debug_str     0x0000000000000686      0x12f /home/auto_jenkins_wlan5/workspace/sdk/auto-release-master/amebasmart_gcc_project/build/project_ap/asdk/make/atf/bl32/runtime_svc.o
                                        0x4d0 (size before relaxing)
 .debug_str     0x00000000000007b5      0x2bd /home/auto_jenkins_wlan5/workspace/sdk/auto-release-master/amebasmart_gcc_project/build/project_ap/asdk/make/atf/bl32/gic_common.o
                                        0x521 (size before relaxing)
 .debug_str     0x0000000000000a72      0x1d2 /home/auto_jenkins_wlan5/workspace/sdk/auto-release-master/amebasmart_gcc_project/build/project_ap/asdk/make/atf/bl32/gicv2_helpers.o
                                        0x518 (size before relaxing)
 .debug_str     0x0000000000000c44      0x3f1 /home/auto_jenkins_wlan5/workspace/sdk/auto-release-master/amebasmart_gcc_project/build/project_ap/asdk/make/atf/bl32/gicv2_main.o
                                        0x885 (size before relaxing)
 .debug_str     0x0000000000001035       0x74 /home/auto_jenkins_wlan5/workspace/sdk/auto-release-master/amebasmart_gcc_project/build/project_ap/asdk/make/atf/bl32/errata_report.o
                                        0x306 (size before relaxing)
 .debug_str     0x00000000000010a9      0x16a /home/auto_jenkins_wlan5/workspace/sdk/auto-release-master/amebasmart_gcc_project/build/project_ap/asdk/make/atf/bl32/context_mgmt.o
                                        0x52c (size before relaxing)
 .debug_str     0x0000000000001213       0xad /home/auto_jenkins_wlan5/workspace/sdk/auto-release-master/amebasmart_gcc_project/build/project_ap/asdk/make/atf/bl32/cpu_data_array.o
                                        0x335 (size before relaxing)
 .debug_str     0x00000000000012c0      0x119 /home/auto_jenkins_wlan5/workspace/sdk/auto-release-master/amebasmart_gcc_project/build/project_ap/asdk/make/atf/bl32/bakery_lock_coherent.o
                                        0x393 (size before relaxing)
 .debug_str     0x00000000000013d9      0x98b /home/auto_jenkins_wlan5/workspace/sdk/auto-release-master/amebasmart_gcc_project/build/project_ap/asdk/make/atf/bl32/psci_common.o
                                        0xf42 (size before relaxing)
 .debug_str     0x0000000000001d64      0x20c /home/auto_jenkins_wlan5/workspace/sdk/auto-release-master/amebasmart_gcc_project/build/project_ap/asdk/make/atf/bl32/psci_main.o
                                        0xad7 (size before relaxing)
 .debug_str     0x0000000000001f70       0x23 /home/auto_jenkins_wlan5/workspace/sdk/auto-release-master/amebasmart_gcc_project/build/project_ap/asdk/make/atf/bl32/psci_mem_protect.o
                                        0x4d1 (size before relaxing)
 .debug_str     0x0000000000001f93       0x5e /home/auto_jenkins_wlan5/workspace/sdk/auto-release-master/amebasmart_gcc_project/build/project_ap/asdk/make/atf/bl32/psci_off.o
                                        0x761 (size before relaxing)
 .debug_str     0x0000000000001ff1      0x10a /home/auto_jenkins_wlan5/workspace/sdk/auto-release-master/amebasmart_gcc_project/build/project_ap/asdk/make/atf/bl32/psci_on.o
                                        0x916 (size before relaxing)
 .debug_str     0x00000000000020fb      0x1b1 /home/auto_jenkins_wlan5/workspace/sdk/auto-release-master/amebasmart_gcc_project/build/project_ap/asdk/make/atf/bl32/psci_setup.o
                                        0xa2e (size before relaxing)
 .debug_str     0x00000000000022ac      0x12b /home/auto_jenkins_wlan5/workspace/sdk/auto-release-master/amebasmart_gcc_project/build/project_ap/asdk/make/atf/bl32/psci_suspend.o
                                        0xa13 (size before relaxing)
 .debug_str     0x00000000000023d7       0x30 /home/auto_jenkins_wlan5/workspace/sdk/auto-release-master/amebasmart_gcc_project/build/project_ap/asdk/make/atf/bl32/psci_system_off.o
                                        0x5c2 (size before relaxing)
 .debug_str     0x0000000000002407       0x3e /home/auto_jenkins_wlan5/workspace/sdk/auto-release-master/amebasmart_gcc_project/build/project_ap/asdk/make/atf/bl32/plat_sp_min_common.o
                                        0x29b (size before relaxing)
 .debug_str     0x0000000000002445       0x29 /home/auto_jenkins_wlan5/workspace/sdk/auto-release-master/amebasmart_gcc_project/build/project_ap/asdk/make/atf/bl32/plat_psci_common.o
                                        0x2b8 (size before relaxing)
 .debug_str     0x000000000000246e       0x52 /home/auto_jenkins_wlan5/workspace/sdk/auto-release-master/amebasmart_gcc_project/build/project_ap/asdk/make/atf/bl32/bsec_svc.o
                                        0x29c (size before relaxing)
 .debug_str     0x00000000000024c0       0x93 /home/auto_jenkins_wlan5/workspace/sdk/auto-release-master/amebasmart_gcc_project/build/project_ap/asdk/make/atf/bl32/rtk_svc_setup.o
                                        0x46a (size before relaxing)
 .debug_str     0x0000000000002553       0xbe /home/auto_jenkins_wlan5/workspace/sdk/auto-release-master/amebasmart_gcc_project/build/project_ap/asdk/make/atf/bl32/sheipa_gic.o
                                        0x40f (size before relaxing)
 .debug_str     0x0000000000002611      0x1c6 /home/auto_jenkins_wlan5/workspace/sdk/auto-release-master/amebasmart_gcc_project/build/project_ap/asdk/make/atf/bl32/sp_min_setup.o
                                        0x589 (size before relaxing)
 .debug_str     0x00000000000027d7       0x4b /home/auto_jenkins_wlan5/workspace/sdk/auto-release-master/amebasmart_gcc_project/build/project_ap/asdk/make/atf/bl32/topology.o
                                        0x2ef (size before relaxing)
 .debug_str     0x0000000000002822       0xd2 /home/auto_jenkins_wlan5/workspace/sdk/auto-release-master/amebasmart_gcc_project/build/project_ap/asdk/make/atf/bl32/std_svc_setup.o
                                        0x551 (size before relaxing)
 .debug_str     0x00000000000028f4       0x66 /home/auto_jenkins_wlan5/workspace/sdk/auto-release-master/amebasmart_gcc_project/build/project_ap/asdk/make/atf/bl32/tf_log.o
                                        0x2d3 (size before relaxing)
 .debug_str     0x000000000000295a      0x118 /home/auto_jenkins_wlan5/workspace/sdk/auto-release-master/amebasmart_gcc_project/build/project_ap/asdk/make/atf/bl32/multi_console.o
                                        0x3bd (size before relaxing)
 .debug_str     0x0000000000002a72       0x2e /home/auto_jenkins_wlan5/workspace/sdk/auto-release-master/amebasmart_gcc_project/build/project_ap/asdk/make/atf/bl32/plat_log_common.o
                                        0x295 (size before relaxing)
 .debug_str     0x0000000000002aa0       0x4a /home/auto_jenkins_wlan5/workspace/sdk/auto-release-master/amebasmart_gcc_project/build/project_ap/asdk/make/atf/bl32/plat_common.o
                                        0x29c (size before relaxing)
 .debug_str     0x0000000000002aea       0x76 /home/auto_jenkins_wlan5/workspace/sdk/auto-release-master/amebasmart_gcc_project/build/project_ap/asdk/make/atf/bl32/ctzdi2.o
                                        0x259 (size before relaxing)
 .debug_str     0x0000000000002b60       0x63 /home/auto_jenkins_wlan5/workspace/sdk/auto-release-master/amebasmart_gcc_project/build/project_ap/asdk/make/atf/bl32/udivmoddi4.o
                                        0x283 (size before relaxing)
 .debug_str     0x0000000000002bc3       0xf3 /home/auto_jenkins_wlan5/workspace/sdk/auto-release-master/amebasmart_gcc_project/build/project_ap/asdk/make/atf/bl32/sheipa_common.o
                                        0x385 (size before relaxing)
 .debug_str     0x0000000000002cb6       0x50 /home/auto_jenkins_wlan5/workspace/sdk/auto-release-master/amebasmart_gcc_project/build/project_ap/asdk/make/atf/bl32/sheipa_console_setup.o
                                        0x2f8 (size before relaxing)
 .debug_str     0x0000000000002d06       0xcd /home/auto_jenkins_wlan5/workspace/sdk/auto-release-master/amebasmart_gcc_project/build/project_ap/asdk/make/atf/bl32/sheipa_pm_ext.o
                                        0x310 (size before relaxing)
 .debug_str     0x0000000000002dd3      0x25f /home/auto_jenkins_wlan5/workspace/sdk/auto-release-master/amebasmart_gcc_project/build/project_ap/asdk/make/atf/bl32/xlat_tables_arch.o
                                        0x55b (size before relaxing)
 .debug_str     0x0000000000003032      0x199 /home/auto_jenkins_wlan5/workspace/sdk/auto-release-master/amebasmart_gcc_project/build/project_ap/asdk/make/atf/bl32/xlat_tables_context.o
                                        0x561 (size before relaxing)
 .debug_str     0x00000000000031cb      0x2a1 /home/auto_jenkins_wlan5/workspace/sdk/auto-release-master/amebasmart_gcc_project/build/project_ap/asdk/make/atf/bl32/xlat_tables_core.o
                                        0x73d (size before relaxing)
 .debug_str     0x000000000000346c      0x11e /home/auto_jenkins_wlan5/workspace/sdk/auto-release-master/amebasmart_gcc_project/build/project_ap/asdk/make/atf/bl32/xlat_tables_utils.o
                                        0x59a (size before relaxing)
 .debug_str     0x000000000000358a       0x2f /home/auto_jenkins_wlan5/workspace/sdk/auto-release-master/amebasmart_gcc_project/build/project_ap/asdk/make/atf/bl32/entrypoint.o
                                         0x87 (size before relaxing)
 .debug_str     0x00000000000035b9       0x1f /home/auto_jenkins_wlan5/workspace/sdk/auto-release-master/amebasmart_gcc_project/build/project_ap/asdk/make/atf/bl32/aem_generic.o
                                         0x85 (size before relaxing)
 .debug_str     0x00000000000035d8       0x1e /home/auto_jenkins_wlan5/workspace/sdk/auto-release-master/amebasmart_gcc_project/build/project_ap/asdk/make/atf/bl32/cortex_a32.o
                                         0x84 (size before relaxing)
 .debug_str     0x00000000000035f6       0x1d /home/auto_jenkins_wlan5/workspace/sdk/auto-release-master/amebasmart_gcc_project/build/project_ap/asdk/make/atf/bl32/cortex_a7.o
                                         0x83 (size before relaxing)
 .debug_str     0x0000000000003613       0x1f /home/auto_jenkins_wlan5/workspace/sdk/auto-release-master/amebasmart_gcc_project/build/project_ap/asdk/make/atf/bl32/cpu_helpers.o
                                         0x85 (size before relaxing)
 .debug_str     0x0000000000003632       0x23 /home/auto_jenkins_wlan5/workspace/sdk/auto-release-master/amebasmart_gcc_project/build/project_ap/asdk/make/atf/bl32/cpu_data.o
                                         0x89 (size before relaxing)
 .debug_str     0x0000000000003655       0x27 /home/auto_jenkins_wlan5/workspace/sdk/auto-release-master/amebasmart_gcc_project/build/project_ap/asdk/make/atf/bl32/spinlock.o
                                         0x8d (size before relaxing)
 .debug_str     0x000000000000367c       0x20 /home/auto_jenkins_wlan5/workspace/sdk/auto-release-master/amebasmart_gcc_project/build/project_ap/asdk/make/atf/bl32/psci_helpers.o
                                         0x86 (size before relaxing)
 .debug_str     0x000000000000369c       0x28 /home/auto_jenkins_wlan5/workspace/sdk/auto-release-master/amebasmart_gcc_project/build/project_ap/asdk/make/atf/bl32/platform_mp_stack.o
                                         0x8e (size before relaxing)
 .debug_str     0x00000000000036c4       0x17 /home/auto_jenkins_wlan5/workspace/sdk/auto-release-master/amebasmart_gcc_project/build/project_ap/asdk/make/atf/bl32/debug.o
                                         0x7d (size before relaxing)
 .debug_str     0x00000000000036db       0x1c /home/auto_jenkins_wlan5/workspace/sdk/auto-release-master/amebasmart_gcc_project/build/project_ap/asdk/make/atf/bl32/cache_helpers.o
                                         0x82 (size before relaxing)
 .debug_str     0x00000000000036f7       0x1b /home/auto_jenkins_wlan5/workspace/sdk/auto-release-master/amebasmart_gcc_project/build/project_ap/asdk/make/atf/bl32/misc_helpers.o
                                         0x81 (size before relaxing)
 .debug_str     0x0000000000003712       0x27 /home/auto_jenkins_wlan5/workspace/sdk/auto-release-master/amebasmart_gcc_project/build/project_ap/asdk/make/atf/bl32/platform_helpers.o
                                         0x8d (size before relaxing)
 .debug_str     0x0000000000003739       0x2e /home/auto_jenkins_wlan5/workspace/sdk/auto-release-master/amebasmart_gcc_project/build/project_ap/asdk/make/atf/bl32/aeabi_uldivmod.o
                                         0x94 (size before relaxing)
 .debug_str     0x0000000000003767       0x2b /home/auto_jenkins_wlan5/workspace/sdk/auto-release-master/amebasmart_gcc_project/build/project_ap/asdk/make/atf/bl32/plat_helpers.o
                                         0x91 (size before relaxing)
 .debug_str     0x0000000000003792       0x2d /home/auto_jenkins_wlan5/workspace/sdk/auto-release-master/amebasmart_gcc_project/build/project_ap/asdk/make/atf/bl32/sheipa_console.o
                                         0x93 (size before relaxing)
 .debug_str     0x00000000000037bf       0x28 /home/auto_jenkins_wlan5/workspace/sdk/auto-release-master/amebasmart_gcc_project/build/project_ap/asdk/make/atf/bl32/enable_mmu.o
                                         0x8e (size before relaxing)
 .debug_str     0x00000000000037e7       0x2f /home/auto_jenkins_wlan5/workspace/sdk/auto-release-master/amebasmart_gcc_project/build/project_ap/asdk/make/atf/lib/libc.a(assert.o)
                                        0x287 (size before relaxing)
 .debug_str     0x0000000000003816       0x12 /home/auto_jenkins_wlan5/workspace/sdk/auto-release-master/amebasmart_gcc_project/build/project_ap/asdk/make/atf/lib/libc.a(memcpy.o)
                                        0x17a (size before relaxing)
 .debug_str     0x0000000000003828       0x13 /home/auto_jenkins_wlan5/workspace/sdk/auto-release-master/amebasmart_gcc_project/build/project_ap/asdk/make/atf/lib/libc.a(memmove.o)
                                        0x183 (size before relaxing)
 .debug_str     0x000000000000383b       0x12 /home/auto_jenkins_wlan5/workspace/sdk/auto-release-master/amebasmart_gcc_project/build/project_ap/asdk/make/atf/lib/libc.a(memset.o)
                                        0x180 (size before relaxing)
 .debug_str     0x000000000000384d       0x6d /home/auto_jenkins_wlan5/workspace/sdk/auto-release-master/amebasmart_gcc_project/build/project_ap/asdk/make/atf/lib/libc.a(printf.o)
                                        0x2e1 (size before relaxing)
 .debug_str     0x00000000000038ba       0x13 /home/auto_jenkins_wlan5/workspace/sdk/auto-release-master/amebasmart_gcc_project/build/project_ap/asdk/make/atf/lib/libc.a(putchar.o)
                                        0x1f0 (size before relaxing)

.comment        0x0000000000000000       0x36
 .comment       0x0000000000000000       0x36 /home/auto_jenkins_wlan5/workspace/sdk/auto-release-master/amebasmart_gcc_project/build/project_ap/asdk/make/atf/bl32/build_message.o
                                         0x37 (size before relaxing)
 .comment       0x0000000000000036       0x37 /home/auto_jenkins_wlan5/workspace/sdk/auto-release-master/amebasmart_gcc_project/build/project_ap/asdk/make/atf/bl32/sp_min_main.o
 .comment       0x0000000000000036       0x37 /home/auto_jenkins_wlan5/workspace/sdk/auto-release-master/amebasmart_gcc_project/build/project_ap/asdk/make/atf/bl32/runtime_svc.o
 .comment       0x0000000000000036       0x37 /home/auto_jenkins_wlan5/workspace/sdk/auto-release-master/amebasmart_gcc_project/build/project_ap/asdk/make/atf/bl32/gic_common.o
 .comment       0x0000000000000036       0x37 /home/auto_jenkins_wlan5/workspace/sdk/auto-release-master/amebasmart_gcc_project/build/project_ap/asdk/make/atf/bl32/gicv2_helpers.o
 .comment       0x0000000000000036       0x37 /home/auto_jenkins_wlan5/workspace/sdk/auto-release-master/amebasmart_gcc_project/build/project_ap/asdk/make/atf/bl32/gicv2_main.o
 .comment       0x0000000000000036       0x37 /home/auto_jenkins_wlan5/workspace/sdk/auto-release-master/amebasmart_gcc_project/build/project_ap/asdk/make/atf/bl32/errata_report.o
 .comment       0x0000000000000036       0x37 /home/auto_jenkins_wlan5/workspace/sdk/auto-release-master/amebasmart_gcc_project/build/project_ap/asdk/make/atf/bl32/context_mgmt.o
 .comment       0x0000000000000036       0x37 /home/auto_jenkins_wlan5/workspace/sdk/auto-release-master/amebasmart_gcc_project/build/project_ap/asdk/make/atf/bl32/cpu_data_array.o
 .comment       0x0000000000000036       0x37 /home/auto_jenkins_wlan5/workspace/sdk/auto-release-master/amebasmart_gcc_project/build/project_ap/asdk/make/atf/bl32/bakery_lock_coherent.o
 .comment       0x0000000000000036       0x37 /home/auto_jenkins_wlan5/workspace/sdk/auto-release-master/amebasmart_gcc_project/build/project_ap/asdk/make/atf/bl32/psci_common.o
 .comment       0x0000000000000036       0x37 /home/auto_jenkins_wlan5/workspace/sdk/auto-release-master/amebasmart_gcc_project/build/project_ap/asdk/make/atf/bl32/psci_main.o
 .comment       0x0000000000000036       0x37 /home/auto_jenkins_wlan5/workspace/sdk/auto-release-master/amebasmart_gcc_project/build/project_ap/asdk/make/atf/bl32/psci_mem_protect.o
 .comment       0x0000000000000036       0x37 /home/auto_jenkins_wlan5/workspace/sdk/auto-release-master/amebasmart_gcc_project/build/project_ap/asdk/make/atf/bl32/psci_off.o
 .comment       0x0000000000000036       0x37 /home/auto_jenkins_wlan5/workspace/sdk/auto-release-master/amebasmart_gcc_project/build/project_ap/asdk/make/atf/bl32/psci_on.o
 .comment       0x0000000000000036       0x37 /home/auto_jenkins_wlan5/workspace/sdk/auto-release-master/amebasmart_gcc_project/build/project_ap/asdk/make/atf/bl32/psci_setup.o
 .comment       0x0000000000000036       0x37 /home/auto_jenkins_wlan5/workspace/sdk/auto-release-master/amebasmart_gcc_project/build/project_ap/asdk/make/atf/bl32/psci_suspend.o
 .comment       0x0000000000000036       0x37 /home/auto_jenkins_wlan5/workspace/sdk/auto-release-master/amebasmart_gcc_project/build/project_ap/asdk/make/atf/bl32/psci_system_off.o
 .comment       0x0000000000000036       0x37 /home/auto_jenkins_wlan5/workspace/sdk/auto-release-master/amebasmart_gcc_project/build/project_ap/asdk/make/atf/bl32/plat_sp_min_common.o
 .comment       0x0000000000000036       0x37 /home/auto_jenkins_wlan5/workspace/sdk/auto-release-master/amebasmart_gcc_project/build/project_ap/asdk/make/atf/bl32/plat_psci_common.o
 .comment       0x0000000000000036       0x37 /home/auto_jenkins_wlan5/workspace/sdk/auto-release-master/amebasmart_gcc_project/build/project_ap/asdk/make/atf/bl32/bsec_svc.o
 .comment       0x0000000000000036       0x37 /home/auto_jenkins_wlan5/workspace/sdk/auto-release-master/amebasmart_gcc_project/build/project_ap/asdk/make/atf/bl32/rtk_svc_setup.o
 .comment       0x0000000000000036       0x37 /home/auto_jenkins_wlan5/workspace/sdk/auto-release-master/amebasmart_gcc_project/build/project_ap/asdk/make/atf/bl32/sheipa_gic.o
 .comment       0x0000000000000036       0x37 /home/auto_jenkins_wlan5/workspace/sdk/auto-release-master/amebasmart_gcc_project/build/project_ap/asdk/make/atf/bl32/sp_min_setup.o
 .comment       0x0000000000000036       0x37 /home/auto_jenkins_wlan5/workspace/sdk/auto-release-master/amebasmart_gcc_project/build/project_ap/asdk/make/atf/bl32/topology.o
 .comment       0x0000000000000036       0x37 /home/auto_jenkins_wlan5/workspace/sdk/auto-release-master/amebasmart_gcc_project/build/project_ap/asdk/make/atf/bl32/std_svc_setup.o
 .comment       0x0000000000000036       0x37 /home/auto_jenkins_wlan5/workspace/sdk/auto-release-master/amebasmart_gcc_project/build/project_ap/asdk/make/atf/bl32/tf_log.o
 .comment       0x0000000000000036       0x37 /home/auto_jenkins_wlan5/workspace/sdk/auto-release-master/amebasmart_gcc_project/build/project_ap/asdk/make/atf/bl32/multi_console.o
 .comment       0x0000000000000036       0x37 /home/auto_jenkins_wlan5/workspace/sdk/auto-release-master/amebasmart_gcc_project/build/project_ap/asdk/make/atf/bl32/plat_log_common.o
 .comment       0x0000000000000036       0x37 /home/auto_jenkins_wlan5/workspace/sdk/auto-release-master/amebasmart_gcc_project/build/project_ap/asdk/make/atf/bl32/plat_common.o
 .comment       0x0000000000000036       0x37 /home/auto_jenkins_wlan5/workspace/sdk/auto-release-master/amebasmart_gcc_project/build/project_ap/asdk/make/atf/bl32/ctzdi2.o
 .comment       0x0000000000000036       0x37 /home/auto_jenkins_wlan5/workspace/sdk/auto-release-master/amebasmart_gcc_project/build/project_ap/asdk/make/atf/bl32/udivmoddi4.o
 .comment       0x0000000000000036       0x37 /home/auto_jenkins_wlan5/workspace/sdk/auto-release-master/amebasmart_gcc_project/build/project_ap/asdk/make/atf/bl32/sheipa_common.o
 .comment       0x0000000000000036       0x37 /home/auto_jenkins_wlan5/workspace/sdk/auto-release-master/amebasmart_gcc_project/build/project_ap/asdk/make/atf/bl32/sheipa_console_setup.o
 .comment       0x0000000000000036       0x37 /home/auto_jenkins_wlan5/workspace/sdk/auto-release-master/amebasmart_gcc_project/build/project_ap/asdk/make/atf/bl32/sheipa_pm_ext.o
 .comment       0x0000000000000036       0x37 /home/auto_jenkins_wlan5/workspace/sdk/auto-release-master/amebasmart_gcc_project/build/project_ap/asdk/make/atf/bl32/xlat_tables_arch.o
 .comment       0x0000000000000036       0x37 /home/auto_jenkins_wlan5/workspace/sdk/auto-release-master/amebasmart_gcc_project/build/project_ap/asdk/make/atf/bl32/xlat_tables_context.o
 .comment       0x0000000000000036       0x37 /home/auto_jenkins_wlan5/workspace/sdk/auto-release-master/amebasmart_gcc_project/build/project_ap/asdk/make/atf/bl32/xlat_tables_core.o
 .comment       0x0000000000000036       0x37 /home/auto_jenkins_wlan5/workspace/sdk/auto-release-master/amebasmart_gcc_project/build/project_ap/asdk/make/atf/bl32/xlat_tables_utils.o
 .comment       0x0000000000000036       0x37 /home/auto_jenkins_wlan5/workspace/sdk/auto-release-master/amebasmart_gcc_project/build/project_ap/asdk/make/atf/lib/libpm.a(sheipa_pm.o)
 .comment       0x0000000000000036       0x37 /home/auto_jenkins_wlan5/workspace/sdk/auto-release-master/amebasmart_gcc_project/build/project_ap/asdk/make/atf/lib/libc.a(assert.o)
 .comment       0x0000000000000036       0x37 /home/auto_jenkins_wlan5/workspace/sdk/auto-release-master/amebasmart_gcc_project/build/project_ap/asdk/make/atf/lib/libc.a(memcpy.o)
 .comment       0x0000000000000036       0x37 /home/auto_jenkins_wlan5/workspace/sdk/auto-release-master/amebasmart_gcc_project/build/project_ap/asdk/make/atf/lib/libc.a(memmove.o)
 .comment       0x0000000000000036       0x37 /home/auto_jenkins_wlan5/workspace/sdk/auto-release-master/amebasmart_gcc_project/build/project_ap/asdk/make/atf/lib/libc.a(memset.o)
 .comment       0x0000000000000036       0x37 /home/auto_jenkins_wlan5/workspace/sdk/auto-release-master/amebasmart_gcc_project/build/project_ap/asdk/make/atf/lib/libc.a(printf.o)
 .comment       0x0000000000000036       0x37 /home/auto_jenkins_wlan5/workspace/sdk/auto-release-master/amebasmart_gcc_project/build/project_ap/asdk/make/atf/lib/libc.a(putchar.o)

.ARM.attributes
                0x0000000000000000       0x33
 .ARM.attributes
                0x0000000000000000       0x35 /home/auto_jenkins_wlan5/workspace/sdk/auto-release-master/amebasmart_gcc_project/build/project_ap/asdk/make/atf/bl32/build_message.o
 .ARM.attributes
                0x0000000000000035       0x35 /home/auto_jenkins_wlan5/workspace/sdk/auto-release-master/amebasmart_gcc_project/build/project_ap/asdk/make/atf/bl32/sp_min_main.o
 .ARM.attributes
                0x000000000000006a       0x35 /home/auto_jenkins_wlan5/workspace/sdk/auto-release-master/amebasmart_gcc_project/build/project_ap/asdk/make/atf/bl32/runtime_svc.o
 .ARM.attributes
                0x000000000000009f       0x35 /home/auto_jenkins_wlan5/workspace/sdk/auto-release-master/amebasmart_gcc_project/build/project_ap/asdk/make/atf/bl32/gic_common.o
 .ARM.attributes
                0x00000000000000d4       0x35 /home/auto_jenkins_wlan5/workspace/sdk/auto-release-master/amebasmart_gcc_project/build/project_ap/asdk/make/atf/bl32/gicv2_helpers.o
 .ARM.attributes
                0x0000000000000109       0x35 /home/auto_jenkins_wlan5/workspace/sdk/auto-release-master/amebasmart_gcc_project/build/project_ap/asdk/make/atf/bl32/gicv2_main.o
 .ARM.attributes
                0x000000000000013e       0x35 /home/auto_jenkins_wlan5/workspace/sdk/auto-release-master/amebasmart_gcc_project/build/project_ap/asdk/make/atf/bl32/errata_report.o
 .ARM.attributes
                0x0000000000000173       0x35 /home/auto_jenkins_wlan5/workspace/sdk/auto-release-master/amebasmart_gcc_project/build/project_ap/asdk/make/atf/bl32/context_mgmt.o
 .ARM.attributes
                0x00000000000001a8       0x35 /home/auto_jenkins_wlan5/workspace/sdk/auto-release-master/amebasmart_gcc_project/build/project_ap/asdk/make/atf/bl32/cpu_data_array.o
 .ARM.attributes
                0x00000000000001dd       0x35 /home/auto_jenkins_wlan5/workspace/sdk/auto-release-master/amebasmart_gcc_project/build/project_ap/asdk/make/atf/bl32/bakery_lock_coherent.o
 .ARM.attributes
                0x0000000000000212       0x35 /home/auto_jenkins_wlan5/workspace/sdk/auto-release-master/amebasmart_gcc_project/build/project_ap/asdk/make/atf/bl32/psci_common.o
 .ARM.attributes
                0x0000000000000247       0x35 /home/auto_jenkins_wlan5/workspace/sdk/auto-release-master/amebasmart_gcc_project/build/project_ap/asdk/make/atf/bl32/psci_main.o
 .ARM.attributes
                0x000000000000027c       0x35 /home/auto_jenkins_wlan5/workspace/sdk/auto-release-master/amebasmart_gcc_project/build/project_ap/asdk/make/atf/bl32/psci_mem_protect.o
 .ARM.attributes
                0x00000000000002b1       0x35 /home/auto_jenkins_wlan5/workspace/sdk/auto-release-master/amebasmart_gcc_project/build/project_ap/asdk/make/atf/bl32/psci_off.o
 .ARM.attributes
                0x00000000000002e6       0x35 /home/auto_jenkins_wlan5/workspace/sdk/auto-release-master/amebasmart_gcc_project/build/project_ap/asdk/make/atf/bl32/psci_on.o
 .ARM.attributes
                0x000000000000031b       0x35 /home/auto_jenkins_wlan5/workspace/sdk/auto-release-master/amebasmart_gcc_project/build/project_ap/asdk/make/atf/bl32/psci_setup.o
 .ARM.attributes
                0x0000000000000350       0x35 /home/auto_jenkins_wlan5/workspace/sdk/auto-release-master/amebasmart_gcc_project/build/project_ap/asdk/make/atf/bl32/psci_suspend.o
 .ARM.attributes
                0x0000000000000385       0x35 /home/auto_jenkins_wlan5/workspace/sdk/auto-release-master/amebasmart_gcc_project/build/project_ap/asdk/make/atf/bl32/psci_system_off.o
 .ARM.attributes
                0x00000000000003ba       0x35 /home/auto_jenkins_wlan5/workspace/sdk/auto-release-master/amebasmart_gcc_project/build/project_ap/asdk/make/atf/bl32/plat_sp_min_common.o
 .ARM.attributes
                0x00000000000003ef       0x35 /home/auto_jenkins_wlan5/workspace/sdk/auto-release-master/amebasmart_gcc_project/build/project_ap/asdk/make/atf/bl32/plat_psci_common.o
 .ARM.attributes
                0x0000000000000424       0x35 /home/auto_jenkins_wlan5/workspace/sdk/auto-release-master/amebasmart_gcc_project/build/project_ap/asdk/make/atf/bl32/bsec_svc.o
 .ARM.attributes
                0x0000000000000459       0x35 /home/auto_jenkins_wlan5/workspace/sdk/auto-release-master/amebasmart_gcc_project/build/project_ap/asdk/make/atf/bl32/rtk_svc_setup.o
 .ARM.attributes
                0x000000000000048e       0x35 /home/auto_jenkins_wlan5/workspace/sdk/auto-release-master/amebasmart_gcc_project/build/project_ap/asdk/make/atf/bl32/sheipa_gic.o
 .ARM.attributes
                0x00000000000004c3       0x35 /home/auto_jenkins_wlan5/workspace/sdk/auto-release-master/amebasmart_gcc_project/build/project_ap/asdk/make/atf/bl32/sp_min_setup.o
 .ARM.attributes
                0x00000000000004f8       0x35 /home/auto_jenkins_wlan5/workspace/sdk/auto-release-master/amebasmart_gcc_project/build/project_ap/asdk/make/atf/bl32/topology.o
 .ARM.attributes
                0x000000000000052d       0x35 /home/auto_jenkins_wlan5/workspace/sdk/auto-release-master/amebasmart_gcc_project/build/project_ap/asdk/make/atf/bl32/std_svc_setup.o
 .ARM.attributes
                0x0000000000000562       0x35 /home/auto_jenkins_wlan5/workspace/sdk/auto-release-master/amebasmart_gcc_project/build/project_ap/asdk/make/atf/bl32/tf_log.o
 .ARM.attributes
                0x0000000000000597       0x35 /home/auto_jenkins_wlan5/workspace/sdk/auto-release-master/amebasmart_gcc_project/build/project_ap/asdk/make/atf/bl32/multi_console.o
 .ARM.attributes
                0x00000000000005cc       0x35 /home/auto_jenkins_wlan5/workspace/sdk/auto-release-master/amebasmart_gcc_project/build/project_ap/asdk/make/atf/bl32/plat_log_common.o
 .ARM.attributes
                0x0000000000000601       0x35 /home/auto_jenkins_wlan5/workspace/sdk/auto-release-master/amebasmart_gcc_project/build/project_ap/asdk/make/atf/bl32/plat_common.o
 .ARM.attributes
                0x0000000000000636       0x35 /home/auto_jenkins_wlan5/workspace/sdk/auto-release-master/amebasmart_gcc_project/build/project_ap/asdk/make/atf/bl32/ctzdi2.o
 .ARM.attributes
                0x000000000000066b       0x35 /home/auto_jenkins_wlan5/workspace/sdk/auto-release-master/amebasmart_gcc_project/build/project_ap/asdk/make/atf/bl32/udivmoddi4.o
 .ARM.attributes
                0x00000000000006a0       0x35 /home/auto_jenkins_wlan5/workspace/sdk/auto-release-master/amebasmart_gcc_project/build/project_ap/asdk/make/atf/bl32/sheipa_common.o
 .ARM.attributes
                0x00000000000006d5       0x35 /home/auto_jenkins_wlan5/workspace/sdk/auto-release-master/amebasmart_gcc_project/build/project_ap/asdk/make/atf/bl32/sheipa_console_setup.o
 .ARM.attributes
                0x000000000000070a       0x35 /home/auto_jenkins_wlan5/workspace/sdk/auto-release-master/amebasmart_gcc_project/build/project_ap/asdk/make/atf/bl32/sheipa_pm_ext.o
 .ARM.attributes
                0x000000000000073f       0x35 /home/auto_jenkins_wlan5/workspace/sdk/auto-release-master/amebasmart_gcc_project/build/project_ap/asdk/make/atf/bl32/xlat_tables_arch.o
 .ARM.attributes
                0x0000000000000774       0x35 /home/auto_jenkins_wlan5/workspace/sdk/auto-release-master/amebasmart_gcc_project/build/project_ap/asdk/make/atf/bl32/xlat_tables_context.o
 .ARM.attributes
                0x00000000000007a9       0x35 /home/auto_jenkins_wlan5/workspace/sdk/auto-release-master/amebasmart_gcc_project/build/project_ap/asdk/make/atf/bl32/xlat_tables_core.o
 .ARM.attributes
                0x00000000000007de       0x35 /home/auto_jenkins_wlan5/workspace/sdk/auto-release-master/amebasmart_gcc_project/build/project_ap/asdk/make/atf/bl32/xlat_tables_utils.o
 .ARM.attributes
                0x0000000000000813       0x25 /home/auto_jenkins_wlan5/workspace/sdk/auto-release-master/amebasmart_gcc_project/build/project_ap/asdk/make/atf/bl32/entrypoint.o
 .ARM.attributes
                0x0000000000000838       0x25 /home/auto_jenkins_wlan5/workspace/sdk/auto-release-master/amebasmart_gcc_project/build/project_ap/asdk/make/atf/bl32/aem_generic.o
 .ARM.attributes
                0x000000000000085d       0x25 /home/auto_jenkins_wlan5/workspace/sdk/auto-release-master/amebasmart_gcc_project/build/project_ap/asdk/make/atf/bl32/cortex_a32.o
 .ARM.attributes
                0x0000000000000882       0x25 /home/auto_jenkins_wlan5/workspace/sdk/auto-release-master/amebasmart_gcc_project/build/project_ap/asdk/make/atf/bl32/cortex_a7.o
 .ARM.attributes
                0x00000000000008a7       0x25 /home/auto_jenkins_wlan5/workspace/sdk/auto-release-master/amebasmart_gcc_project/build/project_ap/asdk/make/atf/bl32/cpu_helpers.o
 .ARM.attributes
                0x00000000000008cc       0x25 /home/auto_jenkins_wlan5/workspace/sdk/auto-release-master/amebasmart_gcc_project/build/project_ap/asdk/make/atf/bl32/cpu_data.o
 .ARM.attributes
                0x00000000000008f1       0x25 /home/auto_jenkins_wlan5/workspace/sdk/auto-release-master/amebasmart_gcc_project/build/project_ap/asdk/make/atf/bl32/spinlock.o
 .ARM.attributes
                0x0000000000000916       0x25 /home/auto_jenkins_wlan5/workspace/sdk/auto-release-master/amebasmart_gcc_project/build/project_ap/asdk/make/atf/bl32/psci_helpers.o
 .ARM.attributes
                0x000000000000093b       0x25 /home/auto_jenkins_wlan5/workspace/sdk/auto-release-master/amebasmart_gcc_project/build/project_ap/asdk/make/atf/bl32/platform_mp_stack.o
 .ARM.attributes
                0x0000000000000960       0x25 /home/auto_jenkins_wlan5/workspace/sdk/auto-release-master/amebasmart_gcc_project/build/project_ap/asdk/make/atf/bl32/debug.o
 .ARM.attributes
                0x0000000000000985       0x25 /home/auto_jenkins_wlan5/workspace/sdk/auto-release-master/amebasmart_gcc_project/build/project_ap/asdk/make/atf/bl32/cache_helpers.o
 .ARM.attributes
                0x00000000000009aa       0x25 /home/auto_jenkins_wlan5/workspace/sdk/auto-release-master/amebasmart_gcc_project/build/project_ap/asdk/make/atf/bl32/misc_helpers.o
 .ARM.attributes
                0x00000000000009cf       0x25 /home/auto_jenkins_wlan5/workspace/sdk/auto-release-master/amebasmart_gcc_project/build/project_ap/asdk/make/atf/bl32/platform_helpers.o
 .ARM.attributes
                0x00000000000009f4       0x25 /home/auto_jenkins_wlan5/workspace/sdk/auto-release-master/amebasmart_gcc_project/build/project_ap/asdk/make/atf/bl32/aeabi_uldivmod.o
 .ARM.attributes
                0x0000000000000a19       0x25 /home/auto_jenkins_wlan5/workspace/sdk/auto-release-master/amebasmart_gcc_project/build/project_ap/asdk/make/atf/bl32/plat_helpers.o
 .ARM.attributes
                0x0000000000000a3e       0x25 /home/auto_jenkins_wlan5/workspace/sdk/auto-release-master/amebasmart_gcc_project/build/project_ap/asdk/make/atf/bl32/sheipa_console.o
 .ARM.attributes
                0x0000000000000a63       0x25 /home/auto_jenkins_wlan5/workspace/sdk/auto-release-master/amebasmart_gcc_project/build/project_ap/asdk/make/atf/bl32/enable_mmu.o
 .ARM.attributes
                0x0000000000000a88       0x35 /home/auto_jenkins_wlan5/workspace/sdk/auto-release-master/amebasmart_gcc_project/build/project_ap/asdk/make/atf/lib/libpm.a(sheipa_pm.o)
 .ARM.attributes
                0x0000000000000abd       0x35 /home/auto_jenkins_wlan5/workspace/sdk/auto-release-master/amebasmart_gcc_project/build/project_ap/asdk/make/atf/lib/libc.a(assert.o)
 .ARM.attributes
                0x0000000000000af2       0x35 /home/auto_jenkins_wlan5/workspace/sdk/auto-release-master/amebasmart_gcc_project/build/project_ap/asdk/make/atf/lib/libc.a(memcpy.o)
 .ARM.attributes
                0x0000000000000b27       0x35 /home/auto_jenkins_wlan5/workspace/sdk/auto-release-master/amebasmart_gcc_project/build/project_ap/asdk/make/atf/lib/libc.a(memmove.o)
 .ARM.attributes
                0x0000000000000b5c       0x35 /home/auto_jenkins_wlan5/workspace/sdk/auto-release-master/amebasmart_gcc_project/build/project_ap/asdk/make/atf/lib/libc.a(memset.o)
 .ARM.attributes
                0x0000000000000b91       0x35 /home/auto_jenkins_wlan5/workspace/sdk/auto-release-master/amebasmart_gcc_project/build/project_ap/asdk/make/atf/lib/libc.a(printf.o)
 .ARM.attributes
                0x0000000000000bc6       0x35 /home/auto_jenkins_wlan5/workspace/sdk/auto-release-master/amebasmart_gcc_project/build/project_ap/asdk/make/atf/lib/libc.a(putchar.o)

.debug_loc      0x0000000000000000     0xc1b7
 .debug_loc     0x0000000000000000      0x50d /home/auto_jenkins_wlan5/workspace/sdk/auto-release-master/amebasmart_gcc_project/build/project_ap/asdk/make/atf/bl32/sp_min_main.o
 .debug_loc     0x000000000000050d      0x442 /home/auto_jenkins_wlan5/workspace/sdk/auto-release-master/amebasmart_gcc_project/build/project_ap/asdk/make/atf/bl32/runtime_svc.o
 .debug_loc     0x000000000000094f     0x1771 /home/auto_jenkins_wlan5/workspace/sdk/auto-release-master/amebasmart_gcc_project/build/project_ap/asdk/make/atf/bl32/gic_common.o
 .debug_loc     0x00000000000020c0      0xac9 /home/auto_jenkins_wlan5/workspace/sdk/auto-release-master/amebasmart_gcc_project/build/project_ap/asdk/make/atf/bl32/gicv2_helpers.o
 .debug_loc     0x0000000000002b89      0xf27 /home/auto_jenkins_wlan5/workspace/sdk/auto-release-master/amebasmart_gcc_project/build/project_ap/asdk/make/atf/bl32/gicv2_main.o
 .debug_loc     0x0000000000003ab0      0x242 /home/auto_jenkins_wlan5/workspace/sdk/auto-release-master/amebasmart_gcc_project/build/project_ap/asdk/make/atf/bl32/errata_report.o
 .debug_loc     0x0000000000003cf2      0x53e /home/auto_jenkins_wlan5/workspace/sdk/auto-release-master/amebasmart_gcc_project/build/project_ap/asdk/make/atf/bl32/context_mgmt.o
 .debug_loc     0x0000000000004230      0x32b /home/auto_jenkins_wlan5/workspace/sdk/auto-release-master/amebasmart_gcc_project/build/project_ap/asdk/make/atf/bl32/bakery_lock_coherent.o
 .debug_loc     0x000000000000455b     0x14dd /home/auto_jenkins_wlan5/workspace/sdk/auto-release-master/amebasmart_gcc_project/build/project_ap/asdk/make/atf/bl32/psci_common.o
 .debug_loc     0x0000000000005a38     0x1680 /home/auto_jenkins_wlan5/workspace/sdk/auto-release-master/amebasmart_gcc_project/build/project_ap/asdk/make/atf/bl32/psci_main.o
 .debug_loc     0x00000000000070b8      0x10f /home/auto_jenkins_wlan5/workspace/sdk/auto-release-master/amebasmart_gcc_project/build/project_ap/asdk/make/atf/bl32/psci_mem_protect.o
 .debug_loc     0x00000000000071c7      0x110 /home/auto_jenkins_wlan5/workspace/sdk/auto-release-master/amebasmart_gcc_project/build/project_ap/asdk/make/atf/bl32/psci_off.o
 .debug_loc     0x00000000000072d7      0x2a3 /home/auto_jenkins_wlan5/workspace/sdk/auto-release-master/amebasmart_gcc_project/build/project_ap/asdk/make/atf/bl32/psci_on.o
 .debug_loc     0x000000000000757a      0x48a /home/auto_jenkins_wlan5/workspace/sdk/auto-release-master/amebasmart_gcc_project/build/project_ap/asdk/make/atf/bl32/psci_setup.o
 .debug_loc     0x0000000000007a04      0x2f3 /home/auto_jenkins_wlan5/workspace/sdk/auto-release-master/amebasmart_gcc_project/build/project_ap/asdk/make/atf/bl32/psci_suspend.o
 .debug_loc     0x0000000000007cf7      0x11c /home/auto_jenkins_wlan5/workspace/sdk/auto-release-master/amebasmart_gcc_project/build/project_ap/asdk/make/atf/bl32/psci_system_off.o
 .debug_loc     0x0000000000007e13      0x19c /home/auto_jenkins_wlan5/workspace/sdk/auto-release-master/amebasmart_gcc_project/build/project_ap/asdk/make/atf/bl32/plat_psci_common.o
 .debug_loc     0x0000000000007faf       0xe8 /home/auto_jenkins_wlan5/workspace/sdk/auto-release-master/amebasmart_gcc_project/build/project_ap/asdk/make/atf/bl32/bsec_svc.o
 .debug_loc     0x0000000000008097      0x312 /home/auto_jenkins_wlan5/workspace/sdk/auto-release-master/amebasmart_gcc_project/build/project_ap/asdk/make/atf/bl32/rtk_svc_setup.o
 .debug_loc     0x00000000000083a9       0xe8 /home/auto_jenkins_wlan5/workspace/sdk/auto-release-master/amebasmart_gcc_project/build/project_ap/asdk/make/atf/bl32/sp_min_setup.o
 .debug_loc     0x0000000000008491       0xee /home/auto_jenkins_wlan5/workspace/sdk/auto-release-master/amebasmart_gcc_project/build/project_ap/asdk/make/atf/bl32/topology.o
 .debug_loc     0x000000000000857f      0x280 /home/auto_jenkins_wlan5/workspace/sdk/auto-release-master/amebasmart_gcc_project/build/project_ap/asdk/make/atf/bl32/std_svc_setup.o
 .debug_loc     0x00000000000087ff       0xb5 /home/auto_jenkins_wlan5/workspace/sdk/auto-release-master/amebasmart_gcc_project/build/project_ap/asdk/make/atf/bl32/tf_log.o
 .debug_loc     0x00000000000088b4      0x321 /home/auto_jenkins_wlan5/workspace/sdk/auto-release-master/amebasmart_gcc_project/build/project_ap/asdk/make/atf/bl32/multi_console.o
 .debug_loc     0x0000000000008bd5       0x96 /home/auto_jenkins_wlan5/workspace/sdk/auto-release-master/amebasmart_gcc_project/build/project_ap/asdk/make/atf/bl32/plat_log_common.o
 .debug_loc     0x0000000000008c6b       0x25 /home/auto_jenkins_wlan5/workspace/sdk/auto-release-master/amebasmart_gcc_project/build/project_ap/asdk/make/atf/bl32/plat_common.o
 .debug_loc     0x0000000000008c90       0x41 /home/auto_jenkins_wlan5/workspace/sdk/auto-release-master/amebasmart_gcc_project/build/project_ap/asdk/make/atf/bl32/ctzdi2.o
 .debug_loc     0x0000000000008cd1      0x2da /home/auto_jenkins_wlan5/workspace/sdk/auto-release-master/amebasmart_gcc_project/build/project_ap/asdk/make/atf/bl32/udivmoddi4.o
 .debug_loc     0x0000000000008fab      0x14b /home/auto_jenkins_wlan5/workspace/sdk/auto-release-master/amebasmart_gcc_project/build/project_ap/asdk/make/atf/bl32/sheipa_common.o
 .debug_loc     0x00000000000090f6      0x4c4 /home/auto_jenkins_wlan5/workspace/sdk/auto-release-master/amebasmart_gcc_project/build/project_ap/asdk/make/atf/bl32/xlat_tables_arch.o
 .debug_loc     0x00000000000095ba      0x3a1 /home/auto_jenkins_wlan5/workspace/sdk/auto-release-master/amebasmart_gcc_project/build/project_ap/asdk/make/atf/bl32/xlat_tables_context.o
 .debug_loc     0x000000000000995b     0x1494 /home/auto_jenkins_wlan5/workspace/sdk/auto-release-master/amebasmart_gcc_project/build/project_ap/asdk/make/atf/bl32/xlat_tables_core.o
 .debug_loc     0x000000000000adef      0x950 /home/auto_jenkins_wlan5/workspace/sdk/auto-release-master/amebasmart_gcc_project/build/project_ap/asdk/make/atf/bl32/xlat_tables_utils.o
 .debug_loc     0x000000000000b73f       0x64 /home/auto_jenkins_wlan5/workspace/sdk/auto-release-master/amebasmart_gcc_project/build/project_ap/asdk/make/atf/lib/libc.a(assert.o)
 .debug_loc     0x000000000000b7a3       0xa2 /home/auto_jenkins_wlan5/workspace/sdk/auto-release-master/amebasmart_gcc_project/build/project_ap/asdk/make/atf/lib/libc.a(memcpy.o)
 .debug_loc     0x000000000000b845      0x170 /home/auto_jenkins_wlan5/workspace/sdk/auto-release-master/amebasmart_gcc_project/build/project_ap/asdk/make/atf/lib/libc.a(memmove.o)
 .debug_loc     0x000000000000b9b5       0x63 /home/auto_jenkins_wlan5/workspace/sdk/auto-release-master/amebasmart_gcc_project/build/project_ap/asdk/make/atf/lib/libc.a(memset.o)
 .debug_loc     0x000000000000ba18      0x77d /home/auto_jenkins_wlan5/workspace/sdk/auto-release-master/amebasmart_gcc_project/build/project_ap/asdk/make/atf/lib/libc.a(printf.o)
 .debug_loc     0x000000000000c195       0x22 /home/auto_jenkins_wlan5/workspace/sdk/auto-release-master/amebasmart_gcc_project/build/project_ap/asdk/make/atf/lib/libc.a(putchar.o)

.debug_ranges   0x0000000000000000     0x1a60
 .debug_ranges  0x0000000000000000       0xe8 /home/auto_jenkins_wlan5/workspace/sdk/auto-release-master/amebasmart_gcc_project/build/project_ap/asdk/make/atf/bl32/sp_min_main.o
 .debug_ranges  0x00000000000000e8       0xc0 /home/auto_jenkins_wlan5/workspace/sdk/auto-release-master/amebasmart_gcc_project/build/project_ap/asdk/make/atf/bl32/runtime_svc.o
 .debug_ranges  0x00000000000001a8      0x2e8 /home/auto_jenkins_wlan5/workspace/sdk/auto-release-master/amebasmart_gcc_project/build/project_ap/asdk/make/atf/bl32/gic_common.o
 .debug_ranges  0x0000000000000490      0x150 /home/auto_jenkins_wlan5/workspace/sdk/auto-release-master/amebasmart_gcc_project/build/project_ap/asdk/make/atf/bl32/gicv2_helpers.o
 .debug_ranges  0x00000000000005e0      0x1f8 /home/auto_jenkins_wlan5/workspace/sdk/auto-release-master/amebasmart_gcc_project/build/project_ap/asdk/make/atf/bl32/gicv2_main.o
 .debug_ranges  0x00000000000007d8       0x18 /home/auto_jenkins_wlan5/workspace/sdk/auto-release-master/amebasmart_gcc_project/build/project_ap/asdk/make/atf/bl32/errata_report.o
 .debug_ranges  0x00000000000007f0       0xa8 /home/auto_jenkins_wlan5/workspace/sdk/auto-release-master/amebasmart_gcc_project/build/project_ap/asdk/make/atf/bl32/context_mgmt.o
 .debug_ranges  0x0000000000000898       0x90 /home/auto_jenkins_wlan5/workspace/sdk/auto-release-master/amebasmart_gcc_project/build/project_ap/asdk/make/atf/bl32/bakery_lock_coherent.o
 .debug_ranges  0x0000000000000928      0x248 /home/auto_jenkins_wlan5/workspace/sdk/auto-release-master/amebasmart_gcc_project/build/project_ap/asdk/make/atf/bl32/psci_common.o
 .debug_ranges  0x0000000000000b70      0x100 /home/auto_jenkins_wlan5/workspace/sdk/auto-release-master/amebasmart_gcc_project/build/project_ap/asdk/make/atf/bl32/psci_main.o
 .debug_ranges  0x0000000000000c70       0x18 /home/auto_jenkins_wlan5/workspace/sdk/auto-release-master/amebasmart_gcc_project/build/project_ap/asdk/make/atf/bl32/psci_mem_protect.o
 .debug_ranges  0x0000000000000c88       0x58 /home/auto_jenkins_wlan5/workspace/sdk/auto-release-master/amebasmart_gcc_project/build/project_ap/asdk/make/atf/bl32/psci_off.o
 .debug_ranges  0x0000000000000ce0       0x60 /home/auto_jenkins_wlan5/workspace/sdk/auto-release-master/amebasmart_gcc_project/build/project_ap/asdk/make/atf/bl32/psci_on.o
 .debug_ranges  0x0000000000000d40       0xa0 /home/auto_jenkins_wlan5/workspace/sdk/auto-release-master/amebasmart_gcc_project/build/project_ap/asdk/make/atf/bl32/psci_setup.o
 .debug_ranges  0x0000000000000de0       0xb0 /home/auto_jenkins_wlan5/workspace/sdk/auto-release-master/amebasmart_gcc_project/build/project_ap/asdk/make/atf/bl32/psci_suspend.o
 .debug_ranges  0x0000000000000e90       0x20 /home/auto_jenkins_wlan5/workspace/sdk/auto-release-master/amebasmart_gcc_project/build/project_ap/asdk/make/atf/bl32/psci_system_off.o
 .debug_ranges  0x0000000000000eb0       0x10 /home/auto_jenkins_wlan5/workspace/sdk/auto-release-master/amebasmart_gcc_project/build/project_ap/asdk/make/atf/bl32/plat_sp_min_common.o
 .debug_ranges  0x0000000000000ec0       0x10 /home/auto_jenkins_wlan5/workspace/sdk/auto-release-master/amebasmart_gcc_project/build/project_ap/asdk/make/atf/bl32/plat_psci_common.o
 .debug_ranges  0x0000000000000ed0       0x10 /home/auto_jenkins_wlan5/workspace/sdk/auto-release-master/amebasmart_gcc_project/build/project_ap/asdk/make/atf/bl32/bsec_svc.o
 .debug_ranges  0x0000000000000ee0       0x20 /home/auto_jenkins_wlan5/workspace/sdk/auto-release-master/amebasmart_gcc_project/build/project_ap/asdk/make/atf/bl32/rtk_svc_setup.o
 .debug_ranges  0x0000000000000f00       0x30 /home/auto_jenkins_wlan5/workspace/sdk/auto-release-master/amebasmart_gcc_project/build/project_ap/asdk/make/atf/bl32/sheipa_gic.o
 .debug_ranges  0x0000000000000f30       0x38 /home/auto_jenkins_wlan5/workspace/sdk/auto-release-master/amebasmart_gcc_project/build/project_ap/asdk/make/atf/bl32/sp_min_setup.o
 .debug_ranges  0x0000000000000f68       0x18 /home/auto_jenkins_wlan5/workspace/sdk/auto-release-master/amebasmart_gcc_project/build/project_ap/asdk/make/atf/bl32/topology.o
 .debug_ranges  0x0000000000000f80       0x30 /home/auto_jenkins_wlan5/workspace/sdk/auto-release-master/amebasmart_gcc_project/build/project_ap/asdk/make/atf/bl32/std_svc_setup.o
 .debug_ranges  0x0000000000000fb0       0x18 /home/auto_jenkins_wlan5/workspace/sdk/auto-release-master/amebasmart_gcc_project/build/project_ap/asdk/make/atf/bl32/tf_log.o
 .debug_ranges  0x0000000000000fc8       0x90 /home/auto_jenkins_wlan5/workspace/sdk/auto-release-master/amebasmart_gcc_project/build/project_ap/asdk/make/atf/bl32/multi_console.o
 .debug_ranges  0x0000000000001058       0x10 /home/auto_jenkins_wlan5/workspace/sdk/auto-release-master/amebasmart_gcc_project/build/project_ap/asdk/make/atf/bl32/plat_log_common.o
 .debug_ranges  0x0000000000001068       0x10 /home/auto_jenkins_wlan5/workspace/sdk/auto-release-master/amebasmart_gcc_project/build/project_ap/asdk/make/atf/bl32/plat_common.o
 .debug_ranges  0x0000000000001078       0x10 /home/auto_jenkins_wlan5/workspace/sdk/auto-release-master/amebasmart_gcc_project/build/project_ap/asdk/make/atf/bl32/ctzdi2.o
 .debug_ranges  0x0000000000001088       0x10 /home/auto_jenkins_wlan5/workspace/sdk/auto-release-master/amebasmart_gcc_project/build/project_ap/asdk/make/atf/bl32/udivmoddi4.o
 .debug_ranges  0x0000000000001098       0x18 /home/auto_jenkins_wlan5/workspace/sdk/auto-release-master/amebasmart_gcc_project/build/project_ap/asdk/make/atf/bl32/sheipa_common.o
 .debug_ranges  0x00000000000010b0       0x10 /home/auto_jenkins_wlan5/workspace/sdk/auto-release-master/amebasmart_gcc_project/build/project_ap/asdk/make/atf/bl32/sheipa_console_setup.o
 .debug_ranges  0x00000000000010c0       0x30 /home/auto_jenkins_wlan5/workspace/sdk/auto-release-master/amebasmart_gcc_project/build/project_ap/asdk/make/atf/bl32/sheipa_pm_ext.o
 .debug_ranges  0x00000000000010f0       0xe0 /home/auto_jenkins_wlan5/workspace/sdk/auto-release-master/amebasmart_gcc_project/build/project_ap/asdk/make/atf/bl32/xlat_tables_arch.o
 .debug_ranges  0x00000000000011d0       0x50 /home/auto_jenkins_wlan5/workspace/sdk/auto-release-master/amebasmart_gcc_project/build/project_ap/asdk/make/atf/bl32/xlat_tables_context.o
 .debug_ranges  0x0000000000001220      0x290 /home/auto_jenkins_wlan5/workspace/sdk/auto-release-master/amebasmart_gcc_project/build/project_ap/asdk/make/atf/bl32/xlat_tables_core.o
 .debug_ranges  0x00000000000014b0      0x128 /home/auto_jenkins_wlan5/workspace/sdk/auto-release-master/amebasmart_gcc_project/build/project_ap/asdk/make/atf/bl32/xlat_tables_utils.o
 .debug_ranges  0x00000000000015d8       0x40 /home/auto_jenkins_wlan5/workspace/sdk/auto-release-master/amebasmart_gcc_project/build/project_ap/asdk/make/atf/bl32/entrypoint.o
 .debug_ranges  0x0000000000001618       0x28 /home/auto_jenkins_wlan5/workspace/sdk/auto-release-master/amebasmart_gcc_project/build/project_ap/asdk/make/atf/bl32/aem_generic.o
 .debug_ranges  0x0000000000001640       0x38 /home/auto_jenkins_wlan5/workspace/sdk/auto-release-master/amebasmart_gcc_project/build/project_ap/asdk/make/atf/bl32/cortex_a32.o
 .debug_ranges  0x0000000000001678       0x40 /home/auto_jenkins_wlan5/workspace/sdk/auto-release-master/amebasmart_gcc_project/build/project_ap/asdk/make/atf/bl32/cortex_a7.o
 .debug_ranges  0x00000000000016b8       0x50 /home/auto_jenkins_wlan5/workspace/sdk/auto-release-master/amebasmart_gcc_project/build/project_ap/asdk/make/atf/bl32/cpu_helpers.o
 .debug_ranges  0x0000000000001708       0x20 /home/auto_jenkins_wlan5/workspace/sdk/auto-release-master/amebasmart_gcc_project/build/project_ap/asdk/make/atf/bl32/cpu_data.o
 .debug_ranges  0x0000000000001728       0x20 /home/auto_jenkins_wlan5/workspace/sdk/auto-release-master/amebasmart_gcc_project/build/project_ap/asdk/make/atf/bl32/spinlock.o
 .debug_ranges  0x0000000000001748       0x30 /home/auto_jenkins_wlan5/workspace/sdk/auto-release-master/amebasmart_gcc_project/build/project_ap/asdk/make/atf/bl32/psci_helpers.o
 .debug_ranges  0x0000000000001778       0x20 /home/auto_jenkins_wlan5/workspace/sdk/auto-release-master/amebasmart_gcc_project/build/project_ap/asdk/make/atf/bl32/platform_mp_stack.o
 .debug_ranges  0x0000000000001798       0x48 /home/auto_jenkins_wlan5/workspace/sdk/auto-release-master/amebasmart_gcc_project/build/project_ap/asdk/make/atf/bl32/debug.o
 .debug_ranges  0x00000000000017e0       0x58 /home/auto_jenkins_wlan5/workspace/sdk/auto-release-master/amebasmart_gcc_project/build/project_ap/asdk/make/atf/bl32/cache_helpers.o
 .debug_ranges  0x0000000000001838       0x38 /home/auto_jenkins_wlan5/workspace/sdk/auto-release-master/amebasmart_gcc_project/build/project_ap/asdk/make/atf/bl32/misc_helpers.o
 .debug_ranges  0x0000000000001870       0x50 /home/auto_jenkins_wlan5/workspace/sdk/auto-release-master/amebasmart_gcc_project/build/project_ap/asdk/make/atf/bl32/platform_helpers.o
 .debug_ranges  0x00000000000018c0       0x78 /home/auto_jenkins_wlan5/workspace/sdk/auto-release-master/amebasmart_gcc_project/build/project_ap/asdk/make/atf/bl32/plat_helpers.o
 .debug_ranges  0x0000000000001938       0x38 /home/auto_jenkins_wlan5/workspace/sdk/auto-release-master/amebasmart_gcc_project/build/project_ap/asdk/make/atf/bl32/sheipa_console.o
 .debug_ranges  0x0000000000001970       0x20 /home/auto_jenkins_wlan5/workspace/sdk/auto-release-master/amebasmart_gcc_project/build/project_ap/asdk/make/atf/bl32/enable_mmu.o
 .debug_ranges  0x0000000000001990       0x10 /home/auto_jenkins_wlan5/workspace/sdk/auto-release-master/amebasmart_gcc_project/build/project_ap/asdk/make/atf/lib/libc.a(assert.o)
 .debug_ranges  0x00000000000019a0       0x10 /home/auto_jenkins_wlan5/workspace/sdk/auto-release-master/amebasmart_gcc_project/build/project_ap/asdk/make/atf/lib/libc.a(memcpy.o)
 .debug_ranges  0x00000000000019b0       0x28 /home/auto_jenkins_wlan5/workspace/sdk/auto-release-master/amebasmart_gcc_project/build/project_ap/asdk/make/atf/lib/libc.a(memmove.o)
 .debug_ranges  0x00000000000019d8       0x10 /home/auto_jenkins_wlan5/workspace/sdk/auto-release-master/amebasmart_gcc_project/build/project_ap/asdk/make/atf/lib/libc.a(memset.o)
 .debug_ranges  0x00000000000019e8       0x68 /home/auto_jenkins_wlan5/workspace/sdk/auto-release-master/amebasmart_gcc_project/build/project_ap/asdk/make/atf/lib/libc.a(printf.o)
 .debug_ranges  0x0000000000001a50       0x10 /home/auto_jenkins_wlan5/workspace/sdk/auto-release-master/amebasmart_gcc_project/build/project_ap/asdk/make/atf/lib/libc.a(putchar.o)

.debug_frame    0x0000000000000000     0x1f94
 .debug_frame   0x0000000000000000      0x114 /home/auto_jenkins_wlan5/workspace/sdk/auto-release-master/amebasmart_gcc_project/build/project_ap/asdk/make/atf/bl32/sp_min_main.o
 .debug_frame   0x0000000000000114       0x5c /home/auto_jenkins_wlan5/workspace/sdk/auto-release-master/amebasmart_gcc_project/build/project_ap/asdk/make/atf/bl32/runtime_svc.o
 .debug_frame   0x0000000000000170      0x24c /home/auto_jenkins_wlan5/workspace/sdk/auto-release-master/amebasmart_gcc_project/build/project_ap/asdk/make/atf/bl32/gic_common.o
 .debug_frame   0x00000000000003bc       0xf4 /home/auto_jenkins_wlan5/workspace/sdk/auto-release-master/amebasmart_gcc_project/build/project_ap/asdk/make/atf/bl32/gicv2_helpers.o
 .debug_frame   0x00000000000004b0      0x288 /home/auto_jenkins_wlan5/workspace/sdk/auto-release-master/amebasmart_gcc_project/build/project_ap/asdk/make/atf/bl32/gicv2_main.o
 .debug_frame   0x0000000000000738       0x48 /home/auto_jenkins_wlan5/workspace/sdk/auto-release-master/amebasmart_gcc_project/build/project_ap/asdk/make/atf/bl32/errata_report.o
 .debug_frame   0x0000000000000780       0x94 /home/auto_jenkins_wlan5/workspace/sdk/auto-release-master/amebasmart_gcc_project/build/project_ap/asdk/make/atf/bl32/context_mgmt.o
 .debug_frame   0x0000000000000814       0x44 /home/auto_jenkins_wlan5/workspace/sdk/auto-release-master/amebasmart_gcc_project/build/project_ap/asdk/make/atf/bl32/bakery_lock_coherent.o
 .debug_frame   0x0000000000000858      0x284 /home/auto_jenkins_wlan5/workspace/sdk/auto-release-master/amebasmart_gcc_project/build/project_ap/asdk/make/atf/bl32/psci_common.o
 .debug_frame   0x0000000000000adc      0x1e8 /home/auto_jenkins_wlan5/workspace/sdk/auto-release-master/amebasmart_gcc_project/build/project_ap/asdk/make/atf/bl32/psci_main.o
 .debug_frame   0x0000000000000cc4       0x48 /home/auto_jenkins_wlan5/workspace/sdk/auto-release-master/amebasmart_gcc_project/build/project_ap/asdk/make/atf/bl32/psci_mem_protect.o
 .debug_frame   0x0000000000000d0c       0x30 /home/auto_jenkins_wlan5/workspace/sdk/auto-release-master/amebasmart_gcc_project/build/project_ap/asdk/make/atf/bl32/psci_off.o
 .debug_frame   0x0000000000000d3c       0x60 /home/auto_jenkins_wlan5/workspace/sdk/auto-release-master/amebasmart_gcc_project/build/project_ap/asdk/make/atf/bl32/psci_on.o
 .debug_frame   0x0000000000000d9c       0x78 /home/auto_jenkins_wlan5/workspace/sdk/auto-release-master/amebasmart_gcc_project/build/project_ap/asdk/make/atf/bl32/psci_setup.o
 .debug_frame   0x0000000000000e14       0x74 /home/auto_jenkins_wlan5/workspace/sdk/auto-release-master/amebasmart_gcc_project/build/project_ap/asdk/make/atf/bl32/psci_suspend.o
 .debug_frame   0x0000000000000e88       0x6c /home/auto_jenkins_wlan5/workspace/sdk/auto-release-master/amebasmart_gcc_project/build/project_ap/asdk/make/atf/bl32/psci_system_off.o
 .debug_frame   0x0000000000000ef4       0x20 /home/auto_jenkins_wlan5/workspace/sdk/auto-release-master/amebasmart_gcc_project/build/project_ap/asdk/make/atf/bl32/plat_sp_min_common.o
 .debug_frame   0x0000000000000f14       0x28 /home/auto_jenkins_wlan5/workspace/sdk/auto-release-master/amebasmart_gcc_project/build/project_ap/asdk/make/atf/bl32/plat_psci_common.o
 .debug_frame   0x0000000000000f3c       0x2c /home/auto_jenkins_wlan5/workspace/sdk/auto-release-master/amebasmart_gcc_project/build/project_ap/asdk/make/atf/bl32/bsec_svc.o
 .debug_frame   0x0000000000000f68       0x58 /home/auto_jenkins_wlan5/workspace/sdk/auto-release-master/amebasmart_gcc_project/build/project_ap/asdk/make/atf/bl32/rtk_svc_setup.o
 .debug_frame   0x0000000000000fc0       0x6c /home/auto_jenkins_wlan5/workspace/sdk/auto-release-master/amebasmart_gcc_project/build/project_ap/asdk/make/atf/bl32/sheipa_gic.o
 .debug_frame   0x000000000000102c       0x90 /home/auto_jenkins_wlan5/workspace/sdk/auto-release-master/amebasmart_gcc_project/build/project_ap/asdk/make/atf/bl32/sp_min_setup.o
 .debug_frame   0x00000000000010bc       0x30 /home/auto_jenkins_wlan5/workspace/sdk/auto-release-master/amebasmart_gcc_project/build/project_ap/asdk/make/atf/bl32/topology.o
 .debug_frame   0x00000000000010ec       0x4c /home/auto_jenkins_wlan5/workspace/sdk/auto-release-master/amebasmart_gcc_project/build/project_ap/asdk/make/atf/bl32/std_svc_setup.o
 .debug_frame   0x0000000000001138       0x60 /home/auto_jenkins_wlan5/workspace/sdk/auto-release-master/amebasmart_gcc_project/build/project_ap/asdk/make/atf/bl32/tf_log.o
 .debug_frame   0x0000000000001198       0xdc /home/auto_jenkins_wlan5/workspace/sdk/auto-release-master/amebasmart_gcc_project/build/project_ap/asdk/make/atf/bl32/multi_console.o
 .debug_frame   0x0000000000001274       0x20 /home/auto_jenkins_wlan5/workspace/sdk/auto-release-master/amebasmart_gcc_project/build/project_ap/asdk/make/atf/bl32/plat_log_common.o
 .debug_frame   0x0000000000001294       0x20 /home/auto_jenkins_wlan5/workspace/sdk/auto-release-master/amebasmart_gcc_project/build/project_ap/asdk/make/atf/bl32/plat_common.o
 .debug_frame   0x00000000000012b4       0x20 /home/auto_jenkins_wlan5/workspace/sdk/auto-release-master/amebasmart_gcc_project/build/project_ap/asdk/make/atf/bl32/ctzdi2.o
 .debug_frame   0x00000000000012d4       0x30 /home/auto_jenkins_wlan5/workspace/sdk/auto-release-master/amebasmart_gcc_project/build/project_ap/asdk/make/atf/bl32/udivmoddi4.o
 .debug_frame   0x0000000000001304       0x54 /home/auto_jenkins_wlan5/workspace/sdk/auto-release-master/amebasmart_gcc_project/build/project_ap/asdk/make/atf/bl32/sheipa_common.o
 .debug_frame   0x0000000000001358       0x2c /home/auto_jenkins_wlan5/workspace/sdk/auto-release-master/amebasmart_gcc_project/build/project_ap/asdk/make/atf/bl32/sheipa_console_setup.o
 .debug_frame   0x0000000000001384       0x60 /home/auto_jenkins_wlan5/workspace/sdk/auto-release-master/amebasmart_gcc_project/build/project_ap/asdk/make/atf/bl32/sheipa_pm_ext.o
 .debug_frame   0x00000000000013e4       0xf0 /home/auto_jenkins_wlan5/workspace/sdk/auto-release-master/amebasmart_gcc_project/build/project_ap/asdk/make/atf/bl32/xlat_tables_arch.o
 .debug_frame   0x00000000000014d4       0xf4 /home/auto_jenkins_wlan5/workspace/sdk/auto-release-master/amebasmart_gcc_project/build/project_ap/asdk/make/atf/bl32/xlat_tables_context.o
 .debug_frame   0x00000000000015c8      0x124 /home/auto_jenkins_wlan5/workspace/sdk/auto-release-master/amebasmart_gcc_project/build/project_ap/asdk/make/atf/bl32/xlat_tables_core.o
 .debug_frame   0x00000000000016ec       0xd4 /home/auto_jenkins_wlan5/workspace/sdk/auto-release-master/amebasmart_gcc_project/build/project_ap/asdk/make/atf/bl32/xlat_tables_utils.o
 .debug_frame   0x00000000000017c0       0x60 /home/auto_jenkins_wlan5/workspace/sdk/auto-release-master/amebasmart_gcc_project/build/project_ap/asdk/make/atf/bl32/entrypoint.o
 .debug_frame   0x0000000000001820       0x40 /home/auto_jenkins_wlan5/workspace/sdk/auto-release-master/amebasmart_gcc_project/build/project_ap/asdk/make/atf/bl32/aem_generic.o
 .debug_frame   0x0000000000001860       0x60 /home/auto_jenkins_wlan5/workspace/sdk/auto-release-master/amebasmart_gcc_project/build/project_ap/asdk/make/atf/bl32/cortex_a32.o
 .debug_frame   0x00000000000018c0       0x70 /home/auto_jenkins_wlan5/workspace/sdk/auto-release-master/amebasmart_gcc_project/build/project_ap/asdk/make/atf/bl32/cortex_a7.o
 .debug_frame   0x0000000000001930       0x90 /home/auto_jenkins_wlan5/workspace/sdk/auto-release-master/amebasmart_gcc_project/build/project_ap/asdk/make/atf/bl32/cpu_helpers.o
 .debug_frame   0x00000000000019c0       0x30 /home/auto_jenkins_wlan5/workspace/sdk/auto-release-master/amebasmart_gcc_project/build/project_ap/asdk/make/atf/bl32/cpu_data.o
 .debug_frame   0x00000000000019f0       0x30 /home/auto_jenkins_wlan5/workspace/sdk/auto-release-master/amebasmart_gcc_project/build/project_ap/asdk/make/atf/bl32/spinlock.o
 .debug_frame   0x0000000000001a20       0x50 /home/auto_jenkins_wlan5/workspace/sdk/auto-release-master/amebasmart_gcc_project/build/project_ap/asdk/make/atf/bl32/psci_helpers.o
 .debug_frame   0x0000000000001a70       0x30 /home/auto_jenkins_wlan5/workspace/sdk/auto-release-master/amebasmart_gcc_project/build/project_ap/asdk/make/atf/bl32/platform_mp_stack.o
 .debug_frame   0x0000000000001aa0       0x80 /home/auto_jenkins_wlan5/workspace/sdk/auto-release-master/amebasmart_gcc_project/build/project_ap/asdk/make/atf/bl32/debug.o
 .debug_frame   0x0000000000001b20       0xa0 /home/auto_jenkins_wlan5/workspace/sdk/auto-release-master/amebasmart_gcc_project/build/project_ap/asdk/make/atf/bl32/cache_helpers.o
 .debug_frame   0x0000000000001bc0       0x60 /home/auto_jenkins_wlan5/workspace/sdk/auto-release-master/amebasmart_gcc_project/build/project_ap/asdk/make/atf/bl32/misc_helpers.o
 .debug_frame   0x0000000000001c20       0x90 /home/auto_jenkins_wlan5/workspace/sdk/auto-release-master/amebasmart_gcc_project/build/project_ap/asdk/make/atf/bl32/platform_helpers.o
 .debug_frame   0x0000000000001cb0       0xe0 /home/auto_jenkins_wlan5/workspace/sdk/auto-release-master/amebasmart_gcc_project/build/project_ap/asdk/make/atf/bl32/plat_helpers.o
 .debug_frame   0x0000000000001d90       0x60 /home/auto_jenkins_wlan5/workspace/sdk/auto-release-master/amebasmart_gcc_project/build/project_ap/asdk/make/atf/bl32/sheipa_console.o
 .debug_frame   0x0000000000001df0       0x30 /home/auto_jenkins_wlan5/workspace/sdk/auto-release-master/amebasmart_gcc_project/build/project_ap/asdk/make/atf/bl32/enable_mmu.o
 .debug_frame   0x0000000000001e20       0x28 /home/auto_jenkins_wlan5/workspace/sdk/auto-release-master/amebasmart_gcc_project/build/project_ap/asdk/make/atf/lib/libc.a(assert.o)
 .debug_frame   0x0000000000001e48       0x28 /home/auto_jenkins_wlan5/workspace/sdk/auto-release-master/amebasmart_gcc_project/build/project_ap/asdk/make/atf/lib/libc.a(memcpy.o)
 .debug_frame   0x0000000000001e70       0x3c /home/auto_jenkins_wlan5/workspace/sdk/auto-release-master/amebasmart_gcc_project/build/project_ap/asdk/make/atf/lib/libc.a(memmove.o)
 .debug_frame   0x0000000000001eac       0x20 /home/auto_jenkins_wlan5/workspace/sdk/auto-release-master/amebasmart_gcc_project/build/project_ap/asdk/make/atf/lib/libc.a(memset.o)
 .debug_frame   0x0000000000001ecc       0xa0 /home/auto_jenkins_wlan5/workspace/sdk/auto-release-master/amebasmart_gcc_project/build/project_ap/asdk/make/atf/lib/libc.a(printf.o)
 .debug_frame   0x0000000000001f6c       0x28 /home/auto_jenkins_wlan5/workspace/sdk/auto-release-master/amebasmart_gcc_project/build/project_ap/asdk/make/atf/lib/libc.a(putchar.o)
