
/home/eric_gao/repo/repo_g2_bcut_rom_branch/amebagreen2_gcc_project/project_km4tz/asdk/image/target_rom_ns.axf:     file format elf32-littlearm


Disassembly of section .ap_only.rom:

0001f000 <INT_HardFault>:
   1f000:	f04f 0200 	mov.w	r2, #0
   1f004:	f000 b954 	b.w	1f2b0 <FaultHandler>
   1f008:	4770      	bx	lr

0001f00a <INT_MemManage>:
   1f00a:	f04f 0203 	mov.w	r2, #3
   1f00e:	f000 b94f 	b.w	1f2b0 <FaultHandler>
   1f012:	4770      	bx	lr

0001f014 <INT_BusFault>:
   1f014:	f04f 0202 	mov.w	r2, #2
   1f018:	f000 b94a 	b.w	1f2b0 <FaultHandler>
   1f01c:	4770      	bx	lr

0001f01e <INT_UsageFault>:
   1f01e:	f04f 0201 	mov.w	r2, #1
   1f022:	f000 b945 	b.w	1f2b0 <FaultHandler>
   1f026:	4770      	bx	lr

0001f028 <INT_SecureFault>:
   1f028:	f04f 0204 	mov.w	r2, #4
   1f02c:	f000 b940 	b.w	1f2b0 <FaultHandler>
   1f030:	4770      	bx	lr

0001f032 <INT_NMI>:
   1f032:	2245      	movs	r2, #69	; 0x45
   1f034:	2002      	movs	r0, #2
   1f036:	4b02      	ldr	r3, [pc, #8]	; (1f040 <INT_NMI+0xe>)
   1f038:	4902      	ldr	r1, [pc, #8]	; (1f044 <INT_NMI+0x12>)
   1f03a:	f0eb b95b 	b.w	10a2f4 <rtk_log_write>
   1f03e:	bf00      	nop
   1f040:	0010c000 	.word	0x0010c000
   1f044:	0010c017 	.word	0x0010c017

0001f048 <INT_SVCall>:
   1f048:	4b04      	ldr	r3, [pc, #16]	; (1f05c <INT_SVCall+0x14>)
   1f04a:	681b      	ldr	r3, [r3, #0]
   1f04c:	b103      	cbz	r3, 1f050 <INT_SVCall+0x8>
   1f04e:	4718      	bx	r3
   1f050:	2245      	movs	r2, #69	; 0x45
   1f052:	2002      	movs	r0, #2
   1f054:	4b02      	ldr	r3, [pc, #8]	; (1f060 <INT_SVCall+0x18>)
   1f056:	4903      	ldr	r1, [pc, #12]	; (1f064 <INT_SVCall+0x1c>)
   1f058:	f0eb b94c 	b.w	10a2f4 <rtk_log_write>
   1f05c:	2000149c 	.word	0x2000149c
   1f060:	0010c01e 	.word	0x0010c01e
   1f064:	0010c017 	.word	0x0010c017

0001f068 <INT_PendSV>:
   1f068:	4b04      	ldr	r3, [pc, #16]	; (1f07c <INT_PendSV+0x14>)
   1f06a:	685b      	ldr	r3, [r3, #4]
   1f06c:	b103      	cbz	r3, 1f070 <INT_PendSV+0x8>
   1f06e:	4718      	bx	r3
   1f070:	2245      	movs	r2, #69	; 0x45
   1f072:	2002      	movs	r0, #2
   1f074:	4b02      	ldr	r3, [pc, #8]	; (1f080 <INT_PendSV+0x18>)
   1f076:	4903      	ldr	r1, [pc, #12]	; (1f084 <INT_PendSV+0x1c>)
   1f078:	f0eb b93c 	b.w	10a2f4 <rtk_log_write>
   1f07c:	2000149c 	.word	0x2000149c
   1f080:	0010c03a 	.word	0x0010c03a
   1f084:	0010c017 	.word	0x0010c017

0001f088 <INT_SysTick>:
   1f088:	4b04      	ldr	r3, [pc, #16]	; (1f09c <INT_SysTick+0x14>)
   1f08a:	689b      	ldr	r3, [r3, #8]
   1f08c:	b103      	cbz	r3, 1f090 <INT_SysTick+0x8>
   1f08e:	4718      	bx	r3
   1f090:	2245      	movs	r2, #69	; 0x45
   1f092:	2002      	movs	r0, #2
   1f094:	4b02      	ldr	r3, [pc, #8]	; (1f0a0 <INT_SysTick+0x18>)
   1f096:	4903      	ldr	r1, [pc, #12]	; (1f0a4 <INT_SysTick+0x1c>)
   1f098:	f0eb b92c 	b.w	10a2f4 <rtk_log_write>
   1f09c:	2000149c 	.word	0x2000149c
   1f0a0:	0010c056 	.word	0x0010c056
   1f0a4:	0010c017 	.word	0x0010c017

0001f0a8 <INT_Entry>:
   1f0a8:	b507      	push	{r0, r1, r2, lr}
   1f0aa:	2201      	movs	r2, #1
   1f0ac:	f000 011f 	and.w	r1, r0, #31
   1f0b0:	408a      	lsls	r2, r1
   1f0b2:	0943      	lsrs	r3, r0, #5
   1f0b4:	490e      	ldr	r1, [pc, #56]	; (1f0f0 <INT_Entry+0x48>)
   1f0b6:	3360      	adds	r3, #96	; 0x60
   1f0b8:	f841 2023 	str.w	r2, [r1, r3, lsl #2]
   1f0bc:	4b0d      	ldr	r3, [pc, #52]	; (1f0f4 <INT_Entry+0x4c>)
   1f0be:	f853 3020 	ldr.w	r3, [r3, r0, lsl #2]
   1f0c2:	b133      	cbz	r3, 1f0d2 <INT_Entry+0x2a>
   1f0c4:	4a0c      	ldr	r2, [pc, #48]	; (1f0f8 <INT_Entry+0x50>)
   1f0c6:	f852 0020 	ldr.w	r0, [r2, r0, lsl #2]
   1f0ca:	b003      	add	sp, #12
   1f0cc:	f85d eb04 	ldr.w	lr, [sp], #4
   1f0d0:	4718      	bx	r3
   1f0d2:	9000      	str	r0, [sp, #0]
   1f0d4:	2257      	movs	r2, #87	; 0x57
   1f0d6:	2003      	movs	r0, #3
   1f0d8:	4b08      	ldr	r3, [pc, #32]	; (1f0fc <INT_Entry+0x54>)
   1f0da:	4909      	ldr	r1, [pc, #36]	; (1f100 <INT_Entry+0x58>)
   1f0dc:	f0eb f90a 	bl	10a2f4 <rtk_log_write>
   1f0e0:	f44f 707a 	mov.w	r0, #1000	; 0x3e8
   1f0e4:	4b07      	ldr	r3, [pc, #28]	; (1f104 <INT_Entry+0x5c>)
   1f0e6:	b003      	add	sp, #12
   1f0e8:	f85d eb04 	ldr.w	lr, [sp], #4
   1f0ec:	4718      	bx	r3
   1f0ee:	bf00      	nop
   1f0f0:	e000e100 	.word	0xe000e100
   1f0f4:	20001000 	.word	0x20001000
   1f0f8:	20001140 	.word	0x20001140
   1f0fc:	0010c073 	.word	0x0010c073
   1f100:	0010c017 	.word	0x0010c017
   1f104:	0014786d 	.word	0x0014786d

0001f108 <INT_CPU1_WDG_RST>:
   1f108:	204e      	movs	r0, #78	; 0x4e
   1f10a:	e7cd      	b.n	1f0a8 <INT_Entry>

0001f10c <INT_BT_WAKE_HOST>:
   1f10c:	204d      	movs	r0, #77	; 0x4d
   1f10e:	e7cb      	b.n	1f0a8 <INT_Entry>

0001f110 <INT_BT_SCB>:
   1f110:	204c      	movs	r0, #76	; 0x4c
   1f112:	e7c9      	b.n	1f0a8 <INT_Entry>

0001f114 <INT_BT_MAILBOX>:
   1f114:	204b      	movs	r0, #75	; 0x4b
   1f116:	e7c7      	b.n	1f0a8 <INT_Entry>

0001f118 <INT_RTC_DET>:
   1f118:	204a      	movs	r0, #74	; 0x4a
   1f11a:	e7c5      	b.n	1f0a8 <INT_Entry>

0001f11c <INT_UVC_DEC>:
   1f11c:	2049      	movs	r0, #73	; 0x49
   1f11e:	e7c3      	b.n	1f0a8 <INT_Entry>

0001f120 <INT_SPIC_ECC>:
   1f120:	2048      	movs	r0, #72	; 0x48
   1f122:	e7c1      	b.n	1f0a8 <INT_Entry>

0001f124 <INT_OCP>:
   1f124:	2047      	movs	r0, #71	; 0x47
   1f126:	e7bf      	b.n	1f0a8 <INT_Entry>

0001f128 <INT_CPU0_S_WDG>:
   1f128:	2046      	movs	r0, #70	; 0x46
   1f12a:	e7bd      	b.n	1f0a8 <INT_Entry>

0001f12c <INT_CPU0_NS_WDG>:
   1f12c:	2045      	movs	r0, #69	; 0x45
   1f12e:	e7bb      	b.n	1f0a8 <INT_Entry>

0001f130 <INT_SHA>:
   1f130:	2044      	movs	r0, #68	; 0x44
   1f132:	e7b9      	b.n	1f0a8 <INT_Entry>

0001f134 <INT_AES>:
   1f134:	2043      	movs	r0, #67	; 0x43
   1f136:	e7b7      	b.n	1f0a8 <INT_Entry>

0001f138 <INT_RSIP>:
   1f138:	2042      	movs	r0, #66	; 0x42
   1f13a:	e7b5      	b.n	1f0a8 <INT_Entry>

0001f13c <INT_SPI_FLASH>:
   1f13c:	2041      	movs	r0, #65	; 0x41
   1f13e:	e7b3      	b.n	1f0a8 <INT_Entry>

0001f140 <INT_PSRAMC>:
   1f140:	2040      	movs	r0, #64	; 0x40
   1f142:	e7b1      	b.n	1f0a8 <INT_Entry>

0001f144 <INT_RXI300>:
   1f144:	203f      	movs	r0, #63	; 0x3f
   1f146:	e7af      	b.n	1f0a8 <INT_Entry>

0001f148 <INT_IR>:
   1f148:	203e      	movs	r0, #62	; 0x3e
   1f14a:	e7ad      	b.n	1f0a8 <INT_Entry>

0001f14c <INT_CAN1>:
   1f14c:	203d      	movs	r0, #61	; 0x3d
   1f14e:	e7ab      	b.n	1f0a8 <INT_Entry>

0001f150 <INT_CAN0>:
   1f150:	203c      	movs	r0, #60	; 0x3c
   1f152:	e7a9      	b.n	1f0a8 <INT_Entry>

0001f154 <INT_USB>:
   1f154:	203b      	movs	r0, #59	; 0x3b
   1f156:	e7a7      	b.n	1f0a8 <INT_Entry>

0001f158 <INT_SDIO_HOST>:
   1f158:	203a      	movs	r0, #58	; 0x3a
   1f15a:	e7a5      	b.n	1f0a8 <INT_Entry>

0001f15c <INT_SDIO_BT>:
   1f15c:	2039      	movs	r0, #57	; 0x39
   1f15e:	e7a3      	b.n	1f0a8 <INT_Entry>

0001f160 <INT_SDIO_WIFI>:
   1f160:	2038      	movs	r0, #56	; 0x38
   1f162:	e7a1      	b.n	1f0a8 <INT_Entry>

0001f164 <INT_AON_WAKEPIN>:
   1f164:	2037      	movs	r0, #55	; 0x37
   1f166:	e79f      	b.n	1f0a8 <INT_Entry>

0001f168 <INT_AON_TIM>:
   1f168:	2036      	movs	r0, #54	; 0x36
   1f16a:	e79d      	b.n	1f0a8 <INT_Entry>

0001f16c <INT_TRNG>:
   1f16c:	2035      	movs	r0, #53	; 0x35
   1f16e:	e79b      	b.n	1f0a8 <INT_Entry>

0001f170 <INT_PKE>:
   1f170:	2034      	movs	r0, #52	; 0x34
   1f172:	e799      	b.n	1f0a8 <INT_Entry>

0001f174 <INT_PPE>:
   1f174:	2033      	movs	r0, #51	; 0x33
   1f176:	e797      	b.n	1f0a8 <INT_Entry>

0001f178 <INT_MJPEG>:
   1f178:	2032      	movs	r0, #50	; 0x32
   1f17a:	e795      	b.n	1f0a8 <INT_Entry>

0001f17c <INT_LCDC>:
   1f17c:	2031      	movs	r0, #49	; 0x31
   1f17e:	e793      	b.n	1f0a8 <INT_Entry>

0001f180 <INT_RMII>:
   1f180:	2030      	movs	r0, #48	; 0x30
   1f182:	e791      	b.n	1f0a8 <INT_Entry>

0001f184 <INT_PWR_DOWN>:
   1f184:	202f      	movs	r0, #47	; 0x2f
   1f186:	e78f      	b.n	1f0a8 <INT_Entry>

0001f188 <INT_BOR>:
   1f188:	202e      	movs	r0, #46	; 0x2e
   1f18a:	e78d      	b.n	1f0a8 <INT_Entry>

0001f18c <INT_THERMAL>:
   1f18c:	202d      	movs	r0, #45	; 0x2d
   1f18e:	e78b      	b.n	1f0a8 <INT_Entry>

0001f190 <INT_CAPTOUCH>:
   1f190:	202c      	movs	r0, #44	; 0x2c
   1f192:	e789      	b.n	1f0a8 <INT_Entry>

0001f194 <INT_ADC_COMP>:
   1f194:	202b      	movs	r0, #43	; 0x2b
   1f196:	e787      	b.n	1f0a8 <INT_Entry>

0001f198 <INT_ADC>:
   1f198:	202a      	movs	r0, #42	; 0x2a
   1f19a:	e785      	b.n	1f0a8 <INT_Entry>

0001f19c <INT_RTC>:
   1f19c:	2029      	movs	r0, #41	; 0x29
   1f19e:	e783      	b.n	1f0a8 <INT_Entry>

0001f1a0 <INT_SPORT0>:
   1f1a0:	2028      	movs	r0, #40	; 0x28
   1f1a2:	e781      	b.n	1f0a8 <INT_Entry>

0001f1a4 <INT_SPI1>:
   1f1a4:	2027      	movs	r0, #39	; 0x27
   1f1a6:	e77f      	b.n	1f0a8 <INT_Entry>

0001f1a8 <INT_SPI0>:
   1f1a8:	2026      	movs	r0, #38	; 0x26
   1f1aa:	e77d      	b.n	1f0a8 <INT_Entry>

0001f1ac <INT_GDMA0_CHANNEL7>:
   1f1ac:	2025      	movs	r0, #37	; 0x25
   1f1ae:	e77b      	b.n	1f0a8 <INT_Entry>

0001f1b0 <INT_GDMA0_CHANNEL6>:
   1f1b0:	2024      	movs	r0, #36	; 0x24
   1f1b2:	e779      	b.n	1f0a8 <INT_Entry>

0001f1b4 <INT_GDMA0_CHANNEL5>:
   1f1b4:	2023      	movs	r0, #35	; 0x23
   1f1b6:	e777      	b.n	1f0a8 <INT_Entry>

0001f1b8 <INT_GDMA0_CHANNEL4>:
   1f1b8:	2022      	movs	r0, #34	; 0x22
   1f1ba:	e775      	b.n	1f0a8 <INT_Entry>

0001f1bc <INT_GDMA0_CHANNEL3>:
   1f1bc:	2021      	movs	r0, #33	; 0x21
   1f1be:	e773      	b.n	1f0a8 <INT_Entry>

0001f1c0 <INT_GDMA0_CHANNEL2>:
   1f1c0:	2020      	movs	r0, #32
   1f1c2:	e771      	b.n	1f0a8 <INT_Entry>

0001f1c4 <INT_GDMA0_CHANNEL1>:
   1f1c4:	201f      	movs	r0, #31
   1f1c6:	e76f      	b.n	1f0a8 <INT_Entry>

0001f1c8 <INT_GDMA0_CHANNEL0>:
   1f1c8:	201e      	movs	r0, #30
   1f1ca:	e76d      	b.n	1f0a8 <INT_Entry>

0001f1cc <INT_I2C1>:
   1f1cc:	201d      	movs	r0, #29
   1f1ce:	e76b      	b.n	1f0a8 <INT_Entry>

0001f1d0 <INT_I2C0>:
   1f1d0:	201c      	movs	r0, #28
   1f1d2:	e769      	b.n	1f0a8 <INT_Entry>

0001f1d4 <INT_GPIOC>:
   1f1d4:	201b      	movs	r0, #27
   1f1d6:	e767      	b.n	1f0a8 <INT_Entry>

0001f1d8 <INT_GPIOB>:
   1f1d8:	201a      	movs	r0, #26
   1f1da:	e765      	b.n	1f0a8 <INT_Entry>

0001f1dc <INT_GPIOA>:
   1f1dc:	2019      	movs	r0, #25
   1f1de:	e763      	b.n	1f0a8 <INT_Entry>

0001f1e0 <INT_UART_LOG>:
   1f1e0:	2018      	movs	r0, #24
   1f1e2:	e761      	b.n	1f0a8 <INT_Entry>

0001f1e4 <INT_UART3>:
   1f1e4:	2017      	movs	r0, #23
   1f1e6:	e75f      	b.n	1f0a8 <INT_Entry>

0001f1e8 <INT_UART2>:
   1f1e8:	2016      	movs	r0, #22
   1f1ea:	e75d      	b.n	1f0a8 <INT_Entry>

0001f1ec <INT_UART1>:
   1f1ec:	2015      	movs	r0, #21
   1f1ee:	e75b      	b.n	1f0a8 <INT_Entry>

0001f1f0 <INT_UART0>:
   1f1f0:	2014      	movs	r0, #20
   1f1f2:	e759      	b.n	1f0a8 <INT_Entry>

0001f1f4 <INT_PMC_TIMER1>:
   1f1f4:	2013      	movs	r0, #19
   1f1f6:	e757      	b.n	1f0a8 <INT_Entry>

0001f1f8 <INT_PMC_TIMER0>:
   1f1f8:	2012      	movs	r0, #18
   1f1fa:	e755      	b.n	1f0a8 <INT_Entry>

0001f1fc <INT_RSVD>:
   1f1fc:	2011      	movs	r0, #17
   1f1fe:	e753      	b.n	1f0a8 <INT_Entry>

0001f200 <INT_COEX_MAILBOX>:
   1f200:	2010      	movs	r0, #16
   1f202:	e751      	b.n	1f0a8 <INT_Entry>

0001f204 <INT_TIMER8>:
   1f204:	200f      	movs	r0, #15
   1f206:	e74f      	b.n	1f0a8 <INT_Entry>

0001f208 <INT_TIMER7>:
   1f208:	200e      	movs	r0, #14
   1f20a:	e74d      	b.n	1f0a8 <INT_Entry>

0001f20c <INT_TIMER6>:
   1f20c:	200d      	movs	r0, #13
   1f20e:	e74b      	b.n	1f0a8 <INT_Entry>

0001f210 <INT_TIMER5>:
   1f210:	200c      	movs	r0, #12
   1f212:	e749      	b.n	1f0a8 <INT_Entry>

0001f214 <INT_TIMER4>:
   1f214:	200b      	movs	r0, #11
   1f216:	e747      	b.n	1f0a8 <INT_Entry>

0001f218 <INT_TIMER3>:
   1f218:	200a      	movs	r0, #10
   1f21a:	e745      	b.n	1f0a8 <INT_Entry>

0001f21c <INT_TIMER2>:
   1f21c:	2009      	movs	r0, #9
   1f21e:	e743      	b.n	1f0a8 <INT_Entry>

0001f220 <INT_TIMER1>:
   1f220:	2008      	movs	r0, #8
   1f222:	e741      	b.n	1f0a8 <INT_Entry>

0001f224 <INT_TIMER0>:
   1f224:	2007      	movs	r0, #7
   1f226:	e73f      	b.n	1f0a8 <INT_Entry>

0001f228 <INT_IWDG>:
   1f228:	2006      	movs	r0, #6
   1f22a:	e73d      	b.n	1f0a8 <INT_Entry>

0001f22c <INT_IPC_CPU0>:
   1f22c:	2005      	movs	r0, #5
   1f22e:	e73b      	b.n	1f0a8 <INT_Entry>

0001f230 <INT_AP_WAKE>:
   1f230:	2004      	movs	r0, #4
   1f232:	e739      	b.n	1f0a8 <INT_Entry>

0001f234 <INT_WL_PROTOCOL>:
   1f234:	2003      	movs	r0, #3
   1f236:	e737      	b.n	1f0a8 <INT_Entry>

0001f238 <INT_WL_DMA>:
   1f238:	2002      	movs	r0, #2
   1f23a:	e735      	b.n	1f0a8 <INT_Entry>

0001f23c <INT_WIFI_FTSR_MAILBOX>:
   1f23c:	2001      	movs	r0, #1
   1f23e:	e733      	b.n	1f0a8 <INT_Entry>

0001f240 <INT_WIFI_FISR_FESR>:
   1f240:	2000      	movs	r0, #0
   1f242:	e731      	b.n	1f0a8 <INT_Entry>

0001f244 <INT_HardFault_C>:
   1f244:	b580      	push	{r7, lr}
   1f246:	4b15      	ldr	r3, [pc, #84]	; (1f29c <INT_HardFault_C+0x58>)
   1f248:	4604      	mov	r4, r0
   1f24a:	460d      	mov	r5, r1
   1f24c:	4616      	mov	r6, r2
   1f24e:	4798      	blx	r3
   1f250:	2801      	cmp	r0, #1
   1f252:	d10c      	bne.n	1f26e <INT_HardFault_C+0x2a>
   1f254:	2249      	movs	r2, #73	; 0x49
   1f256:	2004      	movs	r0, #4
   1f258:	4b11      	ldr	r3, [pc, #68]	; (1f2a0 <INT_HardFault_C+0x5c>)
   1f25a:	4912      	ldr	r1, [pc, #72]	; (1f2a4 <INT_HardFault_C+0x60>)
   1f25c:	f0eb f84a 	bl	10a2f4 <rtk_log_write>
   1f260:	2249      	movs	r2, #73	; 0x49
   1f262:	2004      	movs	r0, #4
   1f264:	4b10      	ldr	r3, [pc, #64]	; (1f2a8 <INT_HardFault_C+0x64>)
   1f266:	490f      	ldr	r1, [pc, #60]	; (1f2a4 <INT_HardFault_C+0x60>)
   1f268:	f0eb f844 	bl	10a2f4 <rtk_log_write>
   1f26c:	e7fe      	b.n	1f26c <INT_HardFault_C+0x28>
   1f26e:	4f0f      	ldr	r7, [pc, #60]	; (1f2ac <INT_HardFault_C+0x68>)
   1f270:	68fb      	ldr	r3, [r7, #12]
   1f272:	b95b      	cbnz	r3, 1f28c <INT_HardFault_C+0x48>
   1f274:	4632      	mov	r2, r6
   1f276:	4629      	mov	r1, r5
   1f278:	4620      	mov	r0, r4
   1f27a:	f0eb fe03 	bl	10ae84 <crash_Main>
   1f27e:	693b      	ldr	r3, [r7, #16]
   1f280:	b11b      	cbz	r3, 1f28a <INT_HardFault_C+0x46>
   1f282:	4632      	mov	r2, r6
   1f284:	4629      	mov	r1, r5
   1f286:	4620      	mov	r0, r4
   1f288:	4798      	blx	r3
   1f28a:	e7fe      	b.n	1f28a <INT_HardFault_C+0x46>
   1f28c:	4632      	mov	r2, r6
   1f28e:	4629      	mov	r1, r5
   1f290:	4620      	mov	r0, r4
   1f292:	4798      	blx	r3
   1f294:	2800      	cmp	r0, #0
   1f296:	d1ed      	bne.n	1f274 <INT_HardFault_C+0x30>
   1f298:	e7f1      	b.n	1f27e <INT_HardFault_C+0x3a>
   1f29a:	bf00      	nop
   1f29c:	00108fb7 	.word	0x00108fb7
   1f2a0:	0010c099 	.word	0x0010c099
   1f2a4:	0010c017 	.word	0x0010c017
   1f2a8:	0010c0af 	.word	0x0010c0af
   1f2ac:	2000149c 	.word	0x2000149c

0001f2b0 <FaultHandler>:
   1f2b0:	f3ef 8008 	mrs	r0, MSP
   1f2b4:	4671      	mov	r1, lr
   1f2b6:	e92d 0ff0 	stmdb	sp!, {r4, r5, r6, r7, r8, r9, sl, fp}
   1f2ba:	f7ff bfc3 	b.w	1f244 <INT_HardFault_C>
   1f2be:	4770      	bx	lr

0001f2c0 <PreFaultPatch_register>:
   1f2c0:	4b01      	ldr	r3, [pc, #4]	; (1f2c8 <PreFaultPatch_register+0x8>)
   1f2c2:	60d8      	str	r0, [r3, #12]
   1f2c4:	2001      	movs	r0, #1
   1f2c6:	4770      	bx	lr
   1f2c8:	2000149c 	.word	0x2000149c

0001f2cc <PostFaultPatch_register>:
   1f2cc:	4b01      	ldr	r3, [pc, #4]	; (1f2d4 <PostFaultPatch_register+0x8>)
   1f2ce:	6118      	str	r0, [r3, #16]
   1f2d0:	2001      	movs	r0, #1
   1f2d2:	4770      	bx	lr
   1f2d4:	2000149c 	.word	0x2000149c

0001f2d8 <SVCall_irqfunc_set>:
   1f2d8:	4b01      	ldr	r3, [pc, #4]	; (1f2e0 <SVCall_irqfunc_set+0x8>)
   1f2da:	6018      	str	r0, [r3, #0]
   1f2dc:	4770      	bx	lr
   1f2de:	bf00      	nop
   1f2e0:	2000149c 	.word	0x2000149c

0001f2e4 <SVCall_irqfunc_get>:
   1f2e4:	4b01      	ldr	r3, [pc, #4]	; (1f2ec <SVCall_irqfunc_get+0x8>)
   1f2e6:	6818      	ldr	r0, [r3, #0]
   1f2e8:	4770      	bx	lr
   1f2ea:	bf00      	nop
   1f2ec:	2000149c 	.word	0x2000149c

0001f2f0 <PendSV_irqfunc_set>:
   1f2f0:	4b01      	ldr	r3, [pc, #4]	; (1f2f8 <PendSV_irqfunc_set+0x8>)
   1f2f2:	6058      	str	r0, [r3, #4]
   1f2f4:	4770      	bx	lr
   1f2f6:	bf00      	nop
   1f2f8:	2000149c 	.word	0x2000149c

0001f2fc <PendSV_irqfunc_get>:
   1f2fc:	4b01      	ldr	r3, [pc, #4]	; (1f304 <PendSV_irqfunc_get+0x8>)
   1f2fe:	6858      	ldr	r0, [r3, #4]
   1f300:	4770      	bx	lr
   1f302:	bf00      	nop
   1f304:	2000149c 	.word	0x2000149c

0001f308 <Systick_irqfunc_set>:
   1f308:	4b01      	ldr	r3, [pc, #4]	; (1f310 <Systick_irqfunc_set+0x8>)
   1f30a:	6098      	str	r0, [r3, #8]
   1f30c:	4770      	bx	lr
   1f30e:	bf00      	nop
   1f310:	2000149c 	.word	0x2000149c

0001f314 <Systick_irqfunc_get>:
   1f314:	4b01      	ldr	r3, [pc, #4]	; (1f31c <Systick_irqfunc_get+0x8>)
   1f316:	6898      	ldr	r0, [r3, #8]
   1f318:	4770      	bx	lr
   1f31a:	bf00      	nop
   1f31c:	2000149c 	.word	0x2000149c

0001f320 <RSIP_WAIT_IDLE>:
   1f320:	4a06      	ldr	r2, [pc, #24]	; (1f33c <RSIP_WAIT_IDLE+0x1c>)
   1f322:	4b07      	ldr	r3, [pc, #28]	; (1f340 <RSIP_WAIT_IDLE+0x20>)
   1f324:	6811      	ldr	r1, [r2, #0]
   1f326:	07c9      	lsls	r1, r1, #31
   1f328:	d407      	bmi.n	1f33a <RSIP_WAIT_IDLE+0x1a>
   1f32a:	3b01      	subs	r3, #1
   1f32c:	d1fa      	bne.n	1f324 <RSIP_WAIT_IDLE+0x4>
   1f32e:	2245      	movs	r2, #69	; 0x45
   1f330:	2002      	movs	r0, #2
   1f332:	4b04      	ldr	r3, [pc, #16]	; (1f344 <RSIP_WAIT_IDLE+0x24>)
   1f334:	4904      	ldr	r1, [pc, #16]	; (1f348 <RSIP_WAIT_IDLE+0x28>)
   1f336:	f0ea bfdd 	b.w	10a2f4 <rtk_log_write>
   1f33a:	4770      	bx	lr
   1f33c:	51004000 	.word	0x51004000
   1f340:	000186a0 	.word	0x000186a0
   1f344:	0010e3f1 	.word	0x0010e3f1
   1f348:	0010e40d 	.word	0x0010e40d

0001f34c <RSIP_IV_Set>:
   1f34c:	680b      	ldr	r3, [r1, #0]
   1f34e:	00c0      	lsls	r0, r0, #3
   1f350:	f100 40a2 	add.w	r0, r0, #1358954496	; 0x51000000
   1f354:	ba1b      	rev	r3, r3
   1f356:	f500 4080 	add.w	r0, r0, #16384	; 0x4000
   1f35a:	6643      	str	r3, [r0, #100]	; 0x64
   1f35c:	684b      	ldr	r3, [r1, #4]
   1f35e:	ba1b      	rev	r3, r3
   1f360:	6603      	str	r3, [r0, #96]	; 0x60
   1f362:	4770      	bx	lr

0001f364 <RSIP_OTF_init>:
   1f364:	4b05      	ldr	r3, [pc, #20]	; (1f37c <RSIP_OTF_init+0x18>)
   1f366:	0140      	lsls	r0, r0, #5
   1f368:	695a      	ldr	r2, [r3, #20]
   1f36a:	f000 0060 	and.w	r0, r0, #96	; 0x60
   1f36e:	f022 0260 	bic.w	r2, r2, #96	; 0x60
   1f372:	615a      	str	r2, [r3, #20]
   1f374:	695a      	ldr	r2, [r3, #20]
   1f376:	4310      	orrs	r0, r2
   1f378:	6158      	str	r0, [r3, #20]
   1f37a:	4770      	bx	lr
   1f37c:	51004000 	.word	0x51004000

0001f380 <RSIP_OTF_Set_GCM_Tag>:
   1f380:	b538      	push	{r3, r4, r5, lr}
   1f382:	b91a      	cbnz	r2, 1f38c <RSIP_OTF_Set_GCM_Tag+0xc>
   1f384:	2151      	movs	r1, #81	; 0x51
   1f386:	4809      	ldr	r0, [pc, #36]	; (1f3ac <RSIP_OTF_Set_GCM_Tag+0x2c>)
   1f388:	f0e6 f854 	bl	105434 <io_assert_failed>
   1f38c:	4b08      	ldr	r3, [pc, #32]	; (1f3b0 <RSIP_OTF_Set_GCM_Tag+0x30>)
   1f38e:	0940      	lsrs	r0, r0, #5
   1f390:	695c      	ldr	r4, [r3, #20]
   1f392:	fb02 1110 	mls	r1, r2, r0, r1
   1f396:	f024 0403 	bic.w	r4, r4, #3
   1f39a:	615c      	str	r4, [r3, #20]
   1f39c:	695d      	ldr	r5, [r3, #20]
   1f39e:	f3c2 04c1 	ubfx	r4, r2, #3, #2
   1f3a2:	432c      	orrs	r4, r5
   1f3a4:	615c      	str	r4, [r3, #20]
   1f3a6:	6219      	str	r1, [r3, #32]
   1f3a8:	bd38      	pop	{r3, r4, r5, pc}
   1f3aa:	bf00      	nop
   1f3ac:	0010e40f 	.word	0x0010e40f
   1f3b0:	51004000 	.word	0x51004000

0001f3b4 <RSIP_OTF_Cmd>:
   1f3b4:	4b04      	ldr	r3, [pc, #16]	; (1f3c8 <RSIP_OTF_Cmd+0x14>)
   1f3b6:	2801      	cmp	r0, #1
   1f3b8:	695a      	ldr	r2, [r3, #20]
   1f3ba:	bf0c      	ite	eq
   1f3bc:	f442 7280 	orreq.w	r2, r2, #256	; 0x100
   1f3c0:	f422 7280 	bicne.w	r2, r2, #256	; 0x100
   1f3c4:	615a      	str	r2, [r3, #20]
   1f3c6:	4770      	bx	lr
   1f3c8:	51004000 	.word	0x51004000

0001f3cc <RSIP_OTF_Enable>:
   1f3cc:	b5f8      	push	{r3, r4, r5, r6, r7, lr}
   1f3ce:	9d08      	ldr	r5, [sp, #32]
   1f3d0:	4c1b      	ldr	r4, [pc, #108]	; (1f440 <RSIP_OTF_Enable+0x74>)
   1f3d2:	e9dd 7606 	ldrd	r7, r6, [sp, #24]
   1f3d6:	b34b      	cbz	r3, 1f42c <RSIP_OTF_Enable+0x60>
   1f3d8:	2f07      	cmp	r7, #7
   1f3da:	d903      	bls.n	1f3e4 <RSIP_OTF_Enable+0x18>
   1f3dc:	217f      	movs	r1, #127	; 0x7f
   1f3de:	4819      	ldr	r0, [pc, #100]	; (1f444 <RSIP_OTF_Enable+0x78>)
   1f3e0:	f0e6 f828 	bl	105434 <io_assert_failed>
   1f3e4:	2e01      	cmp	r6, #1
   1f3e6:	d901      	bls.n	1f3ec <RSIP_OTF_Enable+0x20>
   1f3e8:	2180      	movs	r1, #128	; 0x80
   1f3ea:	e7f8      	b.n	1f3de <RSIP_OTF_Enable+0x12>
   1f3ec:	2d02      	cmp	r5, #2
   1f3ee:	d901      	bls.n	1f3f4 <RSIP_OTF_Enable+0x28>
   1f3f0:	2181      	movs	r1, #129	; 0x81
   1f3f2:	e7f4      	b.n	1f3de <RSIP_OTF_Enable+0x12>
   1f3f4:	230c      	movs	r3, #12
   1f3f6:	fb03 4000 	mla	r0, r3, r0, r4
   1f3fa:	006d      	lsls	r5, r5, #1
   1f3fc:	f8d0 30a8 	ldr.w	r3, [r0, #168]	; 0xa8
   1f400:	ea45 05c7 	orr.w	r5, r5, r7, lsl #3
   1f404:	3a01      	subs	r2, #1
   1f406:	ea45 1586 	orr.w	r5, r5, r6, lsl #6
   1f40a:	f023 0301 	bic.w	r3, r3, #1
   1f40e:	f021 011f 	bic.w	r1, r1, #31
   1f412:	f022 021f 	bic.w	r2, r2, #31
   1f416:	f045 0501 	orr.w	r5, r5, #1
   1f41a:	f8c0 30a8 	str.w	r3, [r0, #168]	; 0xa8
   1f41e:	f8c0 10a0 	str.w	r1, [r0, #160]	; 0xa0
   1f422:	f8c0 20a4 	str.w	r2, [r0, #164]	; 0xa4
   1f426:	f8c0 50a8 	str.w	r5, [r0, #168]	; 0xa8
   1f42a:	bdf8      	pop	{r3, r4, r5, r6, r7, pc}
   1f42c:	230c      	movs	r3, #12
   1f42e:	fb03 4000 	mla	r0, r3, r0, r4
   1f432:	f8d0 30a8 	ldr.w	r3, [r0, #168]	; 0xa8
   1f436:	f023 0301 	bic.w	r3, r3, #1
   1f43a:	f8c0 30a8 	str.w	r3, [r0, #168]	; 0xa8
   1f43e:	e7f4      	b.n	1f42a <RSIP_OTF_Enable+0x5e>
   1f440:	51004000 	.word	0x51004000
   1f444:	0010e40f 	.word	0x0010e40f

0001f448 <RSIP_MMU_Config>:
   1f448:	b510      	push	{r4, lr}
   1f44a:	240c      	movs	r4, #12
   1f44c:	4360      	muls	r0, r4
   1f44e:	f100 40a2 	add.w	r0, r0, #1358954496	; 0x51000000
   1f452:	f500 4080 	add.w	r0, r0, #16384	; 0x4000
   1f456:	f8d0 4108 	ldr.w	r4, [r0, #264]	; 0x108
   1f45a:	3a01      	subs	r2, #1
   1f45c:	0949      	lsrs	r1, r1, #5
   1f45e:	0952      	lsrs	r2, r2, #5
   1f460:	095b      	lsrs	r3, r3, #5
   1f462:	f024 0401 	bic.w	r4, r4, #1
   1f466:	0249      	lsls	r1, r1, #9
   1f468:	0252      	lsls	r2, r2, #9
   1f46a:	025b      	lsls	r3, r3, #9
   1f46c:	f8c0 4108 	str.w	r4, [r0, #264]	; 0x108
   1f470:	f8c0 1100 	str.w	r1, [r0, #256]	; 0x100
   1f474:	f8c0 2104 	str.w	r2, [r0, #260]	; 0x104
   1f478:	f8c0 3108 	str.w	r3, [r0, #264]	; 0x108
   1f47c:	bd10      	pop	{r4, pc}

0001f47e <RSIP_MMU_Cmd>:
   1f47e:	220c      	movs	r2, #12
   1f480:	4b06      	ldr	r3, [pc, #24]	; (1f49c <RSIP_MMU_Cmd+0x1e>)
   1f482:	fb02 3300 	mla	r3, r2, r0, r3
   1f486:	f8d3 2108 	ldr.w	r2, [r3, #264]	; 0x108
   1f48a:	b121      	cbz	r1, 1f496 <RSIP_MMU_Cmd+0x18>
   1f48c:	f042 0201 	orr.w	r2, r2, #1
   1f490:	f8c3 2108 	str.w	r2, [r3, #264]	; 0x108
   1f494:	4770      	bx	lr
   1f496:	f022 0201 	bic.w	r2, r2, #1
   1f49a:	e7f9      	b.n	1f490 <RSIP_MMU_Cmd+0x12>
   1f49c:	51004000 	.word	0x51004000

0001f4a0 <RSIP_MMU_Cache_Clean>:
   1f4a0:	4b10      	ldr	r3, [pc, #64]	; (1f4e4 <RSIP_MMU_Cache_Clean+0x44>)
   1f4a2:	e843 f300 	tt	r3, r3
   1f4a6:	0259      	lsls	r1, r3, #9
   1f4a8:	b082      	sub	sp, #8
   1f4aa:	d504      	bpl.n	1f4b6 <RSIP_MMU_Cache_Clean+0x16>
   1f4ac:	2204      	movs	r2, #4
   1f4ae:	4b0e      	ldr	r3, [pc, #56]	; (1f4e8 <RSIP_MMU_Cache_Clean+0x48>)
   1f4b0:	619a      	str	r2, [r3, #24]
   1f4b2:	b002      	add	sp, #8
   1f4b4:	4770      	bx	lr
   1f4b6:	4b0d      	ldr	r3, [pc, #52]	; (1f4ec <RSIP_MMU_Cache_Clean+0x4c>)
   1f4b8:	695a      	ldr	r2, [r3, #20]
   1f4ba:	03d2      	lsls	r2, r2, #15
   1f4bc:	d509      	bpl.n	1f4d2 <RSIP_MMU_Cache_Clean+0x32>
   1f4be:	f3bf 8f4f 	dsb	sy
   1f4c2:	f04f 7200 	mov.w	r2, #33554432	; 0x2000000
   1f4c6:	f8c3 225c 	str.w	r2, [r3, #604]	; 0x25c
   1f4ca:	f3bf 8f4f 	dsb	sy
   1f4ce:	f3bf 8f6f 	isb	sy
   1f4d2:	f04f 7300 	mov.w	r3, #33554432	; 0x2000000
   1f4d6:	781b      	ldrb	r3, [r3, #0]
   1f4d8:	b2db      	uxtb	r3, r3
   1f4da:	f88d 3007 	strb.w	r3, [sp, #7]
   1f4de:	f89d 3007 	ldrb.w	r3, [sp, #7]
   1f4e2:	e7e6      	b.n	1f4b2 <RSIP_MMU_Cache_Clean+0x12>
   1f4e4:	0010a1e9 	.word	0x0010a1e9
   1f4e8:	51004000 	.word	0x51004000
   1f4ec:	e000ed00 	.word	0xe000ed00

0001f4f0 <otf_hw_crypto_set_iv_sw>:
   1f4f0:	b570      	push	{r4, r5, r6, lr}
   1f4f2:	4b0c      	ldr	r3, [pc, #48]	; (1f524 <otf_hw_crypto_set_iv_sw+0x34>)
   1f4f4:	f3c2 1656 	ubfx	r6, r2, #5, #23
   1f4f8:	4615      	mov	r5, r2
   1f4fa:	2208      	movs	r2, #8
   1f4fc:	4604      	mov	r4, r0
   1f4fe:	4798      	blx	r3
   1f500:	2300      	movs	r3, #0
   1f502:	f015 0f1f 	tst.w	r5, #31
   1f506:	7223      	strb	r3, [r4, #8]
   1f508:	7323      	strb	r3, [r4, #12]
   1f50a:	7363      	strb	r3, [r4, #13]
   1f50c:	73a3      	strb	r3, [r4, #14]
   1f50e:	bf14      	ite	ne
   1f510:	2303      	movne	r3, #3
   1f512:	2302      	moveq	r3, #2
   1f514:	0c32      	lsrs	r2, r6, #16
   1f516:	7262      	strb	r2, [r4, #9]
   1f518:	0a32      	lsrs	r2, r6, #8
   1f51a:	72a2      	strb	r2, [r4, #10]
   1f51c:	72e6      	strb	r6, [r4, #11]
   1f51e:	73e3      	strb	r3, [r4, #15]
   1f520:	bd70      	pop	{r4, r5, r6, pc}
   1f522:	bf00      	nop
   1f524:	00101365 	.word	0x00101365

0001f528 <otf_hw_crypto>:
   1f528:	e92d 4ff0 	stmdb	sp!, {r4, r5, r6, r7, r8, r9, sl, fp, lr}
   1f52c:	b093      	sub	sp, #76	; 0x4c
   1f52e:	f89d 907c 	ldrb.w	r9, [sp, #124]	; 0x7c
   1f532:	e9cd 2303 	strd	r2, r3, [sp, #12]
   1f536:	f1b9 0f05 	cmp.w	r9, #5
   1f53a:	4688      	mov	r8, r1
   1f53c:	f89d 4080 	ldrb.w	r4, [sp, #128]	; 0x80
   1f540:	9002      	str	r0, [sp, #8]
   1f542:	f002 031f 	and.w	r3, r2, #31
   1f546:	d80c      	bhi.n	1f562 <otf_hw_crypto+0x3a>
   1f548:	2c05      	cmp	r4, #5
   1f54a:	d815      	bhi.n	1f578 <otf_hw_crypto+0x50>
   1f54c:	b993      	cbnz	r3, 1f574 <otf_hw_crypto+0x4c>
   1f54e:	f04f 0b10 	mov.w	fp, #16
   1f552:	2500      	movs	r5, #0
   1f554:	af06      	add	r7, sp, #24
   1f556:	9b03      	ldr	r3, [sp, #12]
   1f558:	429d      	cmp	r5, r3
   1f55a:	d32e      	bcc.n	1f5ba <otf_hw_crypto+0x92>
   1f55c:	b013      	add	sp, #76	; 0x4c
   1f55e:	e8bd 8ff0 	ldmia.w	sp!, {r4, r5, r6, r7, r8, r9, sl, fp, pc}
   1f562:	f1a9 0221 	sub.w	r2, r9, #33	; 0x21
   1f566:	2a03      	cmp	r2, #3
   1f568:	d80e      	bhi.n	1f588 <otf_hw_crypto+0x60>
   1f56a:	2c05      	cmp	r4, #5
   1f56c:	d9ee      	bls.n	1f54c <otf_hw_crypto+0x24>
   1f56e:	2c21      	cmp	r4, #33	; 0x21
   1f570:	d104      	bne.n	1f57c <otf_hw_crypto+0x54>
   1f572:	b19b      	cbz	r3, 1f59c <otf_hw_crypto+0x74>
   1f574:	2142      	movs	r1, #66	; 0x42
   1f576:	e008      	b.n	1f58a <otf_hw_crypto+0x62>
   1f578:	2c21      	cmp	r4, #33	; 0x21
   1f57a:	d0e7      	beq.n	1f54c <otf_hw_crypto+0x24>
   1f57c:	2c22      	cmp	r4, #34	; 0x22
   1f57e:	d007      	beq.n	1f590 <otf_hw_crypto+0x68>
   1f580:	2c23      	cmp	r4, #35	; 0x23
   1f582:	d005      	beq.n	1f590 <otf_hw_crypto+0x68>
   1f584:	2c24      	cmp	r4, #36	; 0x24
   1f586:	d003      	beq.n	1f590 <otf_hw_crypto+0x68>
   1f588:	2141      	movs	r1, #65	; 0x41
   1f58a:	4836      	ldr	r0, [pc, #216]	; (1f664 <otf_hw_crypto+0x13c>)
   1f58c:	f0e5 ff52 	bl	105434 <io_assert_failed>
   1f590:	2b00      	cmp	r3, #0
   1f592:	d1ef      	bne.n	1f574 <otf_hw_crypto+0x4c>
   1f594:	f1a9 0321 	sub.w	r3, r9, #33	; 0x21
   1f598:	2b03      	cmp	r3, #3
   1f59a:	d8d8      	bhi.n	1f54e <otf_hw_crypto+0x26>
   1f59c:	f44f 7180 	mov.w	r1, #256	; 0x100
   1f5a0:	4620      	mov	r0, r4
   1f5a2:	9a22      	ldr	r2, [sp, #136]	; 0x88
   1f5a4:	4d30      	ldr	r5, [pc, #192]	; (1f668 <otf_hw_crypto+0x140>)
   1f5a6:	47a8      	blx	r5
   1f5a8:	9b02      	ldr	r3, [sp, #8]
   1f5aa:	2b02      	cmp	r3, #2
   1f5ac:	d1cf      	bne.n	1f54e <otf_hw_crypto+0x26>
   1f5ae:	f44f 7180 	mov.w	r1, #256	; 0x100
   1f5b2:	4648      	mov	r0, r9
   1f5b4:	9a21      	ldr	r2, [sp, #132]	; 0x84
   1f5b6:	47a8      	blx	r5
   1f5b8:	e7c9      	b.n	1f54e <otf_hw_crypto+0x26>
   1f5ba:	9b04      	ldr	r3, [sp, #16]
   1f5bc:	4638      	mov	r0, r7
   1f5be:	18ea      	adds	r2, r5, r3
   1f5c0:	991c      	ldr	r1, [sp, #112]	; 0x70
   1f5c2:	f7ff ff95 	bl	1f4f0 <otf_hw_crypto_set_iv_sw>
   1f5c6:	9a1e      	ldr	r2, [sp, #120]	; 0x78
   1f5c8:	9b1d      	ldr	r3, [sp, #116]	; 0x74
   1f5ca:	18ae      	adds	r6, r5, r2
   1f5cc:	9a02      	ldr	r2, [sp, #8]
   1f5ce:	18eb      	adds	r3, r5, r3
   1f5d0:	2a01      	cmp	r2, #1
   1f5d2:	d10b      	bne.n	1f5ec <otf_hw_crypto+0xc4>
   1f5d4:	e9cd 7600 	strd	r7, r6, [sp]
   1f5d8:	4642      	mov	r2, r8
   1f5da:	f44f 7180 	mov.w	r1, #256	; 0x100
   1f5de:	4620      	mov	r0, r4
   1f5e0:	4e22      	ldr	r6, [pc, #136]	; (1f66c <otf_hw_crypto+0x144>)
   1f5e2:	47b0      	blx	r6
   1f5e4:	3510      	adds	r5, #16
   1f5e6:	f10b 0b10 	add.w	fp, fp, #16
   1f5ea:	e7b4      	b.n	1f556 <otf_hw_crypto+0x2e>
   1f5ec:	f10d 0a38 	add.w	sl, sp, #56	; 0x38
   1f5f0:	f44f 7180 	mov.w	r1, #256	; 0x100
   1f5f4:	e9cd 7a00 	strd	r7, sl, [sp]
   1f5f8:	4642      	mov	r2, r8
   1f5fa:	4620      	mov	r0, r4
   1f5fc:	f8df c06c 	ldr.w	ip, [pc, #108]	; 1f66c <otf_hw_crypto+0x144>
   1f600:	9305      	str	r3, [sp, #20]
   1f602:	47e0      	blx	ip
   1f604:	9b1d      	ldr	r3, [sp, #116]	; 0x74
   1f606:	4650      	mov	r0, sl
   1f608:	eb03 0e0b 	add.w	lr, r3, fp
   1f60c:	9b05      	ldr	r3, [sp, #20]
   1f60e:	f10d 0a28 	add.w	sl, sp, #40	; 0x28
   1f612:	ebae 0e03 	sub.w	lr, lr, r3
   1f616:	4651      	mov	r1, sl
   1f618:	f04e e001 	dls	lr, lr
   1f61c:	f810 2b01 	ldrb.w	r2, [r0], #1
   1f620:	f813 cb01 	ldrb.w	ip, [r3], #1
   1f624:	ea82 020c 	eor.w	r2, r2, ip
   1f628:	f801 2b01 	strb.w	r2, [r1], #1
   1f62c:	f00f c00b 	le	lr, 1f61c <otf_hw_crypto+0xf4>
   1f630:	ab0e      	add	r3, sp, #56	; 0x38
   1f632:	4642      	mov	r2, r8
   1f634:	f44f 7180 	mov.w	r1, #256	; 0x100
   1f638:	4648      	mov	r0, r9
   1f63a:	f8df c034 	ldr.w	ip, [pc, #52]	; 1f670 <otf_hw_crypto+0x148>
   1f63e:	9600      	str	r6, [sp, #0]
   1f640:	47e0      	blx	ip
   1f642:	9b1e      	ldr	r3, [sp, #120]	; 0x78
   1f644:	eb03 0e0b 	add.w	lr, r3, fp
   1f648:	ebae 0e06 	sub.w	lr, lr, r6
   1f64c:	f04e e001 	dls	lr, lr
   1f650:	7833      	ldrb	r3, [r6, #0]
   1f652:	f81a 2b01 	ldrb.w	r2, [sl], #1
   1f656:	4053      	eors	r3, r2
   1f658:	f806 3b01 	strb.w	r3, [r6], #1
   1f65c:	f00f c009 	le	lr, 1f650 <otf_hw_crypto+0x128>
   1f660:	e7c0      	b.n	1f5e4 <otf_hw_crypto+0xbc>
   1f662:	bf00      	nop
   1f664:	0010e388 	.word	0x0010e388
   1f668:	00102839 	.word	0x00102839
   1f66c:	00102bb1 	.word	0x00102bb1
   1f670:	00102b91 	.word	0x00102b91

0001f674 <otf_hw_crypto_gcm_set_iv_sw>:
   1f674:	b538      	push	{r3, r4, r5, lr}
   1f676:	f3c2 1556 	ubfx	r5, r2, #5, #23
   1f67a:	4b06      	ldr	r3, [pc, #24]	; (1f694 <otf_hw_crypto_gcm_set_iv_sw+0x20>)
   1f67c:	2208      	movs	r2, #8
   1f67e:	4604      	mov	r4, r0
   1f680:	4798      	blx	r3
   1f682:	2300      	movs	r3, #0
   1f684:	7223      	strb	r3, [r4, #8]
   1f686:	0c2b      	lsrs	r3, r5, #16
   1f688:	7263      	strb	r3, [r4, #9]
   1f68a:	0a2b      	lsrs	r3, r5, #8
   1f68c:	72a3      	strb	r3, [r4, #10]
   1f68e:	72e5      	strb	r5, [r4, #11]
   1f690:	bd38      	pop	{r3, r4, r5, pc}
   1f692:	bf00      	nop
   1f694:	00101365 	.word	0x00101365

0001f698 <otf_hw_crypto_gcm>:
   1f698:	e92d 4ff0 	stmdb	sp!, {r4, r5, r6, r7, r8, r9, sl, fp, lr}
   1f69c:	b08f      	sub	sp, #60	; 0x3c
   1f69e:	f89d 9070 	ldrb.w	r9, [sp, #112]	; 0x70
   1f6a2:	4698      	mov	r8, r3
   1f6a4:	f1b9 0f05 	cmp.w	r9, #5
   1f6a8:	4606      	mov	r6, r0
   1f6aa:	4615      	mov	r5, r2
   1f6ac:	9f1b      	ldr	r7, [sp, #108]	; 0x6c
   1f6ae:	9109      	str	r1, [sp, #36]	; 0x24
   1f6b0:	f002 031f 	and.w	r3, r2, #31
   1f6b4:	d907      	bls.n	1f6c6 <otf_hw_crypto_gcm+0x2e>
   1f6b6:	f1a9 0221 	sub.w	r2, r9, #33	; 0x21
   1f6ba:	2a03      	cmp	r2, #3
   1f6bc:	d906      	bls.n	1f6cc <otf_hw_crypto_gcm+0x34>
   1f6be:	2185      	movs	r1, #133	; 0x85
   1f6c0:	481f      	ldr	r0, [pc, #124]	; (1f740 <otf_hw_crypto_gcm+0xa8>)
   1f6c2:	f0e5 feb7 	bl	105434 <io_assert_failed>
   1f6c6:	b14b      	cbz	r3, 1f6dc <otf_hw_crypto_gcm+0x44>
   1f6c8:	2186      	movs	r1, #134	; 0x86
   1f6ca:	e7f9      	b.n	1f6c0 <otf_hw_crypto_gcm+0x28>
   1f6cc:	2b00      	cmp	r3, #0
   1f6ce:	d1fb      	bne.n	1f6c8 <otf_hw_crypto_gcm+0x30>
   1f6d0:	f44f 7180 	mov.w	r1, #256	; 0x100
   1f6d4:	4648      	mov	r0, r9
   1f6d6:	9a1d      	ldr	r2, [sp, #116]	; 0x74
   1f6d8:	4b1a      	ldr	r3, [pc, #104]	; (1f744 <otf_hw_crypto_gcm+0xac>)
   1f6da:	4798      	blx	r3
   1f6dc:	2400      	movs	r4, #0
   1f6de:	f8df a068 	ldr.w	sl, [pc, #104]	; 1f748 <otf_hw_crypto_gcm+0xb0>
   1f6e2:	f8df b068 	ldr.w	fp, [pc, #104]	; 1f74c <otf_hw_crypto_gcm+0xb4>
   1f6e6:	42ac      	cmp	r4, r5
   1f6e8:	d303      	bcc.n	1f6f2 <otf_hw_crypto_gcm+0x5a>
   1f6ea:	2000      	movs	r0, #0
   1f6ec:	b00f      	add	sp, #60	; 0x3c
   1f6ee:	e8bd 8ff0 	ldmia.w	sp!, {r4, r5, r6, r7, r8, r9, sl, fp, pc}
   1f6f2:	9918      	ldr	r1, [sp, #96]	; 0x60
   1f6f4:	a80b      	add	r0, sp, #44	; 0x2c
   1f6f6:	eb04 0208 	add.w	r2, r4, r8
   1f6fa:	f7ff ffbb 	bl	1f674 <otf_hw_crypto_gcm_set_iv_sw>
   1f6fe:	9b1a      	ldr	r3, [sp, #104]	; 0x68
   1f700:	a80b      	add	r0, sp, #44	; 0x2c
   1f702:	4423      	add	r3, r4
   1f704:	9305      	str	r3, [sp, #20]
   1f706:	9b19      	ldr	r3, [sp, #100]	; 0x64
   1f708:	9000      	str	r0, [sp, #0]
   1f70a:	4423      	add	r3, r4
   1f70c:	9304      	str	r3, [sp, #16]
   1f70e:	2300      	movs	r3, #0
   1f710:	e9cd 3302 	strd	r3, r3, [sp, #8]
   1f714:	230c      	movs	r3, #12
   1f716:	f44f 7180 	mov.w	r1, #256	; 0x100
   1f71a:	9301      	str	r3, [sp, #4]
   1f71c:	4648      	mov	r0, r9
   1f71e:	2320      	movs	r3, #32
   1f720:	e9cd 6706 	strd	r6, r7, [sp, #24]
   1f724:	9a09      	ldr	r2, [sp, #36]	; 0x24
   1f726:	47d0      	blx	sl
   1f728:	b138      	cbz	r0, 1f73a <otf_hw_crypto_gcm+0xa2>
   1f72a:	e9cd b000 	strd	fp, r0, [sp]
   1f72e:	2249      	movs	r2, #73	; 0x49
   1f730:	2004      	movs	r0, #4
   1f732:	4b07      	ldr	r3, [pc, #28]	; (1f750 <otf_hw_crypto_gcm+0xb8>)
   1f734:	4907      	ldr	r1, [pc, #28]	; (1f754 <otf_hw_crypto_gcm+0xbc>)
   1f736:	f0ea fdfd 	bl	10a334 <rtk_log_write_nano>
   1f73a:	4437      	add	r7, r6
   1f73c:	3420      	adds	r4, #32
   1f73e:	e7d2      	b.n	1f6e6 <otf_hw_crypto_gcm+0x4e>
   1f740:	0010e388 	.word	0x0010e388
   1f744:	00102839 	.word	0x00102839
   1f748:	00102e39 	.word	0x00102e39
   1f74c:	0010e3df 	.word	0x0010e3df
   1f750:	0010e3c5 	.word	0x0010e3c5
   1f754:	0010e3dd 	.word	0x0010e3dd

Disassembly of section .delay.rom:

00147800 <DelayNop>:
  147800:	f1a0 0001 	sub.w	r0, r0, #1
  147804:	2800      	cmp	r0, #0
  147806:	bf00      	nop
  147808:	d1fa      	bne.n	147800 <DelayNop>
  14780a:	4770      	bx	lr

0014780c <DelayUs>:
  14780c:	b507      	push	{r0, r1, r2, lr}
  14780e:	4b14      	ldr	r3, [pc, #80]	; (147860 <DelayUs+0x54>)
  147810:	f8d3 22a8 	ldr.w	r2, [r3, #680]	; 0x2a8
  147814:	4b13      	ldr	r3, [pc, #76]	; (147864 <DelayUs+0x58>)
  147816:	7819      	ldrb	r1, [r3, #0]
  147818:	b909      	cbnz	r1, 14781e <DelayUs+0x12>
  14781a:	2106      	movs	r1, #6
  14781c:	7019      	strb	r1, [r3, #0]
  14781e:	6859      	ldr	r1, [r3, #4]
  147820:	781b      	ldrb	r3, [r3, #0]
  147822:	b9c1      	cbnz	r1, 147856 <DelayUs+0x4a>
  147824:	f04f 11f0 	mov.w	r1, #15728880	; 0xf000f0
  147828:	9101      	str	r1, [sp, #4]
  14782a:	f3c2 2101 	ubfx	r1, r2, #8, #2
  14782e:	2901      	cmp	r1, #1
  147830:	bf0f      	iteee	eq
  147832:	2228      	moveq	r2, #40	; 0x28
  147834:	f3c2 1281 	ubfxne	r2, r2, #6, #2
  147838:	a902      	addne	r1, sp, #8
  14783a:	eb01 0242 	addne.w	r2, r1, r2, lsl #1
  14783e:	bf18      	it	ne
  147840:	f832 2c04 	ldrhne.w	r2, [r2, #-4]
  147844:	4342      	muls	r2, r0
  147846:	fbb2 f0f3 	udiv	r0, r2, r3
  14784a:	b108      	cbz	r0, 147850 <DelayUs+0x44>
  14784c:	4b06      	ldr	r3, [pc, #24]	; (147868 <DelayUs+0x5c>)
  14784e:	4798      	blx	r3
  147850:	b003      	add	sp, #12
  147852:	f85d fb04 	ldr.w	pc, [sp], #4
  147856:	4341      	muls	r1, r0
  147858:	fbb1 f0f3 	udiv	r0, r1, r3
  14785c:	e7f5      	b.n	14784a <DelayUs+0x3e>
  14785e:	bf00      	nop
  147860:	4080a000 	.word	0x4080a000
  147864:	200014b0 	.word	0x200014b0
  147868:	00147801 	.word	0x00147801

0014786c <DelayMs>:
  14786c:	b508      	push	{r3, lr}
  14786e:	f44f 737a 	mov.w	r3, #1000	; 0x3e8
  147872:	4358      	muls	r0, r3
  147874:	4b01      	ldr	r3, [pc, #4]	; (14787c <DelayMs+0x10>)
  147876:	4798      	blx	r3
  147878:	bd08      	pop	{r3, pc}
  14787a:	bf00      	nop
  14787c:	0014780d 	.word	0x0014780d

00147880 <DelayClkUpdate>:
  147880:	4b02      	ldr	r3, [pc, #8]	; (14788c <DelayClkUpdate+0xc>)
  147882:	fbb0 f0f3 	udiv	r0, r0, r3
  147886:	4b02      	ldr	r3, [pc, #8]	; (147890 <DelayClkUpdate+0x10>)
  147888:	6058      	str	r0, [r3, #4]
  14788a:	4770      	bx	lr
  14788c:	000f4240 	.word	0x000f4240
  147890:	200014b0 	.word	0x200014b0

Disassembly of section .share.text:

00101000 <irq_enable>:
  101000:	2800      	cmp	r0, #0
  101002:	db07      	blt.n	101014 <irq_enable+0x14>
  101004:	2301      	movs	r3, #1
  101006:	0941      	lsrs	r1, r0, #5
  101008:	4a03      	ldr	r2, [pc, #12]	; (101018 <irq_enable+0x18>)
  10100a:	f000 001f 	and.w	r0, r0, #31
  10100e:	4083      	lsls	r3, r0
  101010:	f842 3021 	str.w	r3, [r2, r1, lsl #2]
  101014:	4770      	bx	lr
  101016:	bf00      	nop
  101018:	e000e100 	.word	0xe000e100

0010101c <irq_disable>:
  10101c:	2800      	cmp	r0, #0
  10101e:	db0c      	blt.n	10103a <irq_disable+0x1e>
  101020:	2201      	movs	r2, #1
  101022:	4906      	ldr	r1, [pc, #24]	; (10103c <irq_disable+0x20>)
  101024:	0943      	lsrs	r3, r0, #5
  101026:	f000 001f 	and.w	r0, r0, #31
  10102a:	4082      	lsls	r2, r0
  10102c:	3320      	adds	r3, #32
  10102e:	f841 2023 	str.w	r2, [r1, r3, lsl #2]
  101032:	f3bf 8f4f 	dsb	sy
  101036:	f3bf 8f6f 	isb	sy
  10103a:	4770      	bx	lr
  10103c:	e000e100 	.word	0xe000e100

00101040 <irq_set_priority>:
  101040:	2907      	cmp	r1, #7
  101042:	b51f      	push	{r0, r1, r2, r3, r4, lr}
  101044:	d90a      	bls.n	10105c <irq_set_priority+0x1c>
  101046:	2307      	movs	r3, #7
  101048:	9000      	str	r0, [sp, #0]
  10104a:	e9cd 1301 	strd	r1, r3, [sp, #4]
  10104e:	2257      	movs	r2, #87	; 0x57
  101050:	2003      	movs	r0, #3
  101052:	4b0c      	ldr	r3, [pc, #48]	; (101084 <irq_set_priority+0x44>)
  101054:	490c      	ldr	r1, [pc, #48]	; (101088 <irq_set_priority+0x48>)
  101056:	f009 f94d 	bl	10a2f4 <rtk_log_write>
  10105a:	e7fe      	b.n	10105a <irq_set_priority+0x1a>
  10105c:	2800      	cmp	r0, #0
  10105e:	bfac      	ite	ge
  101060:	f100 4060 	addge.w	r0, r0, #3758096384	; 0xe0000000
  101064:	4b09      	ldrlt	r3, [pc, #36]	; (10108c <irq_set_priority+0x4c>)
  101066:	ea4f 1141 	mov.w	r1, r1, lsl #5
  10106a:	b2c9      	uxtb	r1, r1
  10106c:	bfab      	itete	ge
  10106e:	f500 4061 	addge.w	r0, r0, #57600	; 0xe100
  101072:	f000 000f 	andlt.w	r0, r0, #15
  101076:	f880 1300 	strbge.w	r1, [r0, #768]	; 0x300
  10107a:	5419      	strblt	r1, [r3, r0]
  10107c:	b005      	add	sp, #20
  10107e:	f85d fb04 	ldr.w	pc, [sp], #4
  101082:	bf00      	nop
  101084:	0010c0d3 	.word	0x0010c0d3
  101088:	0010c017 	.word	0x0010c017
  10108c:	e000ed14 	.word	0xe000ed14

00101090 <irq_get_priority>:
  101090:	2800      	cmp	r0, #0
  101092:	bfab      	itete	ge
  101094:	f100 4060 	addge.w	r0, r0, #3758096384	; 0xe0000000
  101098:	4b05      	ldrlt	r3, [pc, #20]	; (1010b0 <irq_get_priority+0x20>)
  10109a:	f500 4061 	addge.w	r0, r0, #57600	; 0xe100
  10109e:	f000 000f 	andlt.w	r0, r0, #15
  1010a2:	bfac      	ite	ge
  1010a4:	f890 0300 	ldrbge.w	r0, [r0, #768]	; 0x300
  1010a8:	5c18      	ldrblt	r0, [r3, r0]
  1010aa:	0940      	lsrs	r0, r0, #5
  1010ac:	4770      	bx	lr
  1010ae:	bf00      	nop
  1010b0:	e000ed14 	.word	0xe000ed14

001010b4 <irq_set_pending>:
  1010b4:	2800      	cmp	r0, #0
  1010b6:	db08      	blt.n	1010ca <irq_set_pending+0x16>
  1010b8:	2201      	movs	r2, #1
  1010ba:	0943      	lsrs	r3, r0, #5
  1010bc:	4903      	ldr	r1, [pc, #12]	; (1010cc <irq_set_pending+0x18>)
  1010be:	f000 001f 	and.w	r0, r0, #31
  1010c2:	4082      	lsls	r2, r0
  1010c4:	3340      	adds	r3, #64	; 0x40
  1010c6:	f841 2023 	str.w	r2, [r1, r3, lsl #2]
  1010ca:	4770      	bx	lr
  1010cc:	e000e100 	.word	0xe000e100

001010d0 <irq_get_pending>:
  1010d0:	2800      	cmp	r0, #0
  1010d2:	bfa1      	itttt	ge
  1010d4:	0943      	lsrge	r3, r0, #5
  1010d6:	4a06      	ldrge	r2, [pc, #24]	; (1010f0 <irq_get_pending+0x20>)
  1010d8:	3340      	addge	r3, #64	; 0x40
  1010da:	f852 3023 	ldrge.w	r3, [r2, r3, lsl #2]
  1010de:	bfa3      	ittte	ge
  1010e0:	f000 001f 	andge.w	r0, r0, #31
  1010e4:	fa23 f000 	lsrge.w	r0, r3, r0
  1010e8:	f000 0001 	andge.w	r0, r0, #1
  1010ec:	2000      	movlt	r0, #0
  1010ee:	4770      	bx	lr
  1010f0:	e000e100 	.word	0xe000e100

001010f4 <irq_clear_pending>:
  1010f4:	2800      	cmp	r0, #0
  1010f6:	db08      	blt.n	10110a <irq_clear_pending+0x16>
  1010f8:	2201      	movs	r2, #1
  1010fa:	0943      	lsrs	r3, r0, #5
  1010fc:	4903      	ldr	r1, [pc, #12]	; (10110c <irq_clear_pending+0x18>)
  1010fe:	f000 001f 	and.w	r0, r0, #31
  101102:	4082      	lsls	r2, r0
  101104:	3360      	adds	r3, #96	; 0x60
  101106:	f841 2023 	str.w	r2, [r1, r3, lsl #2]
  10110a:	4770      	bx	lr
  10110c:	e000e100 	.word	0xe000e100

00101110 <irq_register>:
  101110:	b510      	push	{r4, lr}
  101112:	4604      	mov	r4, r0
  101114:	4608      	mov	r0, r1
  101116:	4906      	ldr	r1, [pc, #24]	; (101130 <irq_register+0x20>)
  101118:	f044 0401 	orr.w	r4, r4, #1
  10111c:	f841 4020 	str.w	r4, [r1, r0, lsl #2]
  101120:	4904      	ldr	r1, [pc, #16]	; (101134 <irq_register+0x24>)
  101122:	f841 2020 	str.w	r2, [r1, r0, lsl #2]
  101126:	4619      	mov	r1, r3
  101128:	f7ff ff8a 	bl	101040 <irq_set_priority>
  10112c:	2001      	movs	r0, #1
  10112e:	bd10      	pop	{r4, pc}
  101130:	20001000 	.word	0x20001000
  101134:	20001140 	.word	0x20001140

00101138 <irq_unregister>:
  101138:	2300      	movs	r3, #0
  10113a:	4a04      	ldr	r2, [pc, #16]	; (10114c <irq_unregister+0x14>)
  10113c:	f842 3020 	str.w	r3, [r2, r0, lsl #2]
  101140:	4a03      	ldr	r2, [pc, #12]	; (101150 <irq_unregister+0x18>)
  101142:	f842 3020 	str.w	r3, [r2, r0, lsl #2]
  101146:	2001      	movs	r0, #1
  101148:	4770      	bx	lr
  10114a:	bf00      	nop
  10114c:	20001000 	.word	0x20001000
  101150:	20001140 	.word	0x20001140

00101154 <_char2num>:
  101154:	f1a0 0330 	sub.w	r3, r0, #48	; 0x30
  101158:	b2db      	uxtb	r3, r3
  10115a:	2b09      	cmp	r3, #9
  10115c:	d90e      	bls.n	10117c <_char2num+0x28>
  10115e:	f1a0 0361 	sub.w	r3, r0, #97	; 0x61
  101162:	2b05      	cmp	r3, #5
  101164:	d907      	bls.n	101176 <_char2num+0x22>
  101166:	f1a0 0341 	sub.w	r3, r0, #65	; 0x41
  10116a:	2b05      	cmp	r3, #5
  10116c:	bf9a      	itte	ls
  10116e:	3837      	subls	r0, #55	; 0x37
  101170:	b2c0      	uxtbls	r0, r0
  101172:	20ff      	movhi	r0, #255	; 0xff
  101174:	4770      	bx	lr
  101176:	3857      	subs	r0, #87	; 0x57
  101178:	b2c0      	uxtb	r0, r0
  10117a:	4770      	bx	lr
  10117c:	4618      	mov	r0, r3
  10117e:	4770      	bx	lr

00101180 <_2char2dec>:
  101180:	f1a0 0330 	sub.w	r3, r0, #48	; 0x30
  101184:	b2da      	uxtb	r2, r3
  101186:	2a09      	cmp	r2, #9
  101188:	d92e      	bls.n	1011e8 <_2char2dec+0x68>
  10118a:	f1a0 0361 	sub.w	r3, r0, #97	; 0x61
  10118e:	2b05      	cmp	r3, #5
  101190:	d91c      	bls.n	1011cc <_2char2dec+0x4c>
  101192:	f1a0 0341 	sub.w	r3, r0, #65	; 0x41
  101196:	2b05      	cmp	r3, #5
  101198:	d82f      	bhi.n	1011fa <_2char2dec+0x7a>
  10119a:	3837      	subs	r0, #55	; 0x37
  10119c:	eb00 0080 	add.w	r0, r0, r0, lsl #2
  1011a0:	0040      	lsls	r0, r0, #1
  1011a2:	b240      	sxtb	r0, r0
  1011a4:	f1a1 0330 	sub.w	r3, r1, #48	; 0x30
  1011a8:	b2da      	uxtb	r2, r3
  1011aa:	2a09      	cmp	r2, #9
  1011ac:	d918      	bls.n	1011e0 <_2char2dec+0x60>
  1011ae:	f1a1 0361 	sub.w	r3, r1, #97	; 0x61
  1011b2:	2b05      	cmp	r3, #5
  1011b4:	d91d      	bls.n	1011f2 <_2char2dec+0x72>
  1011b6:	f1a1 0341 	sub.w	r3, r1, #65	; 0x41
  1011ba:	2b05      	cmp	r3, #5
  1011bc:	bf8e      	itee	hi
  1011be:	f04f 33ff 	movhi.w	r3, #4294967295	; 0xffffffff
  1011c2:	3937      	subls	r1, #55	; 0x37
  1011c4:	b24b      	sxtbls	r3, r1
  1011c6:	4418      	add	r0, r3
  1011c8:	b2c0      	uxtb	r0, r0
  1011ca:	4770      	bx	lr
  1011cc:	3857      	subs	r0, #87	; 0x57
  1011ce:	f1a1 0330 	sub.w	r3, r1, #48	; 0x30
  1011d2:	eb00 0080 	add.w	r0, r0, r0, lsl #2
  1011d6:	b2da      	uxtb	r2, r3
  1011d8:	0040      	lsls	r0, r0, #1
  1011da:	2a09      	cmp	r2, #9
  1011dc:	b240      	sxtb	r0, r0
  1011de:	d8e6      	bhi.n	1011ae <_2char2dec+0x2e>
  1011e0:	b25b      	sxtb	r3, r3
  1011e2:	4418      	add	r0, r3
  1011e4:	b2c0      	uxtb	r0, r0
  1011e6:	4770      	bx	lr
  1011e8:	eb03 0083 	add.w	r0, r3, r3, lsl #2
  1011ec:	0040      	lsls	r0, r0, #1
  1011ee:	b240      	sxtb	r0, r0
  1011f0:	e7d8      	b.n	1011a4 <_2char2dec+0x24>
  1011f2:	f1a1 0357 	sub.w	r3, r1, #87	; 0x57
  1011f6:	b25b      	sxtb	r3, r3
  1011f8:	e7f3      	b.n	1011e2 <_2char2dec+0x62>
  1011fa:	f06f 0009 	mvn.w	r0, #9
  1011fe:	e7d1      	b.n	1011a4 <_2char2dec+0x24>

00101200 <_2char2hex>:
  101200:	f1a0 0330 	sub.w	r3, r0, #48	; 0x30
  101204:	b2da      	uxtb	r2, r3
  101206:	2a09      	cmp	r2, #9
  101208:	d92a      	bls.n	101260 <_2char2hex+0x60>
  10120a:	f1a0 0361 	sub.w	r3, r0, #97	; 0x61
  10120e:	2b05      	cmp	r3, #5
  101210:	d91a      	bls.n	101248 <_2char2hex+0x48>
  101212:	f1a0 0341 	sub.w	r3, r0, #65	; 0x41
  101216:	2b05      	cmp	r3, #5
  101218:	bf8f      	iteee	hi
  10121a:	20f0      	movhi	r0, #240	; 0xf0
  10121c:	3837      	subls	r0, #55	; 0x37
  10121e:	0100      	lslls	r0, r0, #4
  101220:	f000 00f0 	andls.w	r0, r0, #240	; 0xf0
  101224:	f1a1 0330 	sub.w	r3, r1, #48	; 0x30
  101228:	b2da      	uxtb	r2, r3
  10122a:	2a09      	cmp	r2, #9
  10122c:	d915      	bls.n	10125a <_2char2hex+0x5a>
  10122e:	f1a1 0361 	sub.w	r3, r1, #97	; 0x61
  101232:	2b05      	cmp	r3, #5
  101234:	d918      	bls.n	101268 <_2char2hex+0x68>
  101236:	f1a1 0341 	sub.w	r3, r1, #65	; 0x41
  10123a:	2b05      	cmp	r3, #5
  10123c:	bf9d      	ittte	ls
  10123e:	3937      	subls	r1, #55	; 0x37
  101240:	4308      	orrls	r0, r1
  101242:	b2c0      	uxtbls	r0, r0
  101244:	20ff      	movhi	r0, #255	; 0xff
  101246:	4770      	bx	lr
  101248:	f1a1 0330 	sub.w	r3, r1, #48	; 0x30
  10124c:	3857      	subs	r0, #87	; 0x57
  10124e:	b2da      	uxtb	r2, r3
  101250:	0100      	lsls	r0, r0, #4
  101252:	2a09      	cmp	r2, #9
  101254:	f000 00f0 	and.w	r0, r0, #240	; 0xf0
  101258:	d8e9      	bhi.n	10122e <_2char2hex+0x2e>
  10125a:	4318      	orrs	r0, r3
  10125c:	b2c0      	uxtb	r0, r0
  10125e:	4770      	bx	lr
  101260:	0118      	lsls	r0, r3, #4
  101262:	f000 00f0 	and.w	r0, r0, #240	; 0xf0
  101266:	e7dd      	b.n	101224 <_2char2hex+0x24>
  101268:	3957      	subs	r1, #87	; 0x57
  10126a:	4308      	orrs	r0, r1
  10126c:	b2c0      	uxtb	r0, r0
  10126e:	4770      	bx	lr

00101270 <_memchr>:
  101270:	b538      	push	{r3, r4, r5, lr}
  101272:	0784      	lsls	r4, r0, #30
  101274:	fa5f fe81 	uxtb.w	lr, r1
  101278:	d03b      	beq.n	1012f2 <_memchr+0x82>
  10127a:	1e51      	subs	r1, r2, #1
  10127c:	b172      	cbz	r2, 10129c <_memchr+0x2c>
  10127e:	4603      	mov	r3, r0
  101280:	e005      	b.n	10128e <_memchr+0x1e>
  101282:	0798      	lsls	r0, r3, #30
  101284:	d00c      	beq.n	1012a0 <_memchr+0x30>
  101286:	3a01      	subs	r2, #1
  101288:	f101 31ff 	add.w	r1, r1, #4294967295	; 0xffffffff
  10128c:	d006      	beq.n	10129c <_memchr+0x2c>
  10128e:	4618      	mov	r0, r3
  101290:	f890 c000 	ldrb.w	ip, [r0]
  101294:	3301      	adds	r3, #1
  101296:	45f4      	cmp	ip, lr
  101298:	d1f3      	bne.n	101282 <_memchr+0x12>
  10129a:	bd38      	pop	{r3, r4, r5, pc}
  10129c:	2000      	movs	r0, #0
  10129e:	bd38      	pop	{r3, r4, r5, pc}
  1012a0:	4618      	mov	r0, r3
  1012a2:	2903      	cmp	r1, #3
  1012a4:	d917      	bls.n	1012d6 <_memchr+0x66>
  1012a6:	1f0c      	subs	r4, r1, #4
  1012a8:	eb0e 250e 	add.w	r5, lr, lr, lsl #8
  1012ac:	08a4      	lsrs	r4, r4, #2
  1012ae:	4602      	mov	r2, r0
  1012b0:	eb05 4505 	add.w	r5, r5, r5, lsl #16
  1012b4:	3401      	adds	r4, #1
  1012b6:	e003      	b.n	1012c0 <_memchr+0x50>
  1012b8:	3c01      	subs	r4, #1
  1012ba:	f1a1 0104 	sub.w	r1, r1, #4
  1012be:	d016      	beq.n	1012ee <_memchr+0x7e>
  1012c0:	4610      	mov	r0, r2
  1012c2:	f852 3b04 	ldr.w	r3, [r2], #4
  1012c6:	406b      	eors	r3, r5
  1012c8:	f1a3 3c01 	sub.w	ip, r3, #16843009	; 0x1010101
  1012cc:	ea2c 0303 	bic.w	r3, ip, r3
  1012d0:	f013 3f80 	tst.w	r3, #2155905152	; 0x80808080
  1012d4:	d0f0      	beq.n	1012b8 <_memchr+0x48>
  1012d6:	4603      	mov	r3, r0
  1012d8:	460a      	mov	r2, r1
  1012da:	b911      	cbnz	r1, 1012e2 <_memchr+0x72>
  1012dc:	e7de      	b.n	10129c <_memchr+0x2c>
  1012de:	3a01      	subs	r2, #1
  1012e0:	d0dc      	beq.n	10129c <_memchr+0x2c>
  1012e2:	4618      	mov	r0, r3
  1012e4:	f813 1b01 	ldrb.w	r1, [r3], #1
  1012e8:	4571      	cmp	r1, lr
  1012ea:	d1f8      	bne.n	1012de <_memchr+0x6e>
  1012ec:	bd38      	pop	{r3, r4, r5, pc}
  1012ee:	4610      	mov	r0, r2
  1012f0:	e7f1      	b.n	1012d6 <_memchr+0x66>
  1012f2:	4611      	mov	r1, r2
  1012f4:	e7d5      	b.n	1012a2 <_memchr+0x32>
  1012f6:	bf00      	nop

001012f8 <_memcmp>:
  1012f8:	2a03      	cmp	r2, #3
  1012fa:	b538      	push	{r3, r4, r5, lr}
  1012fc:	d919      	bls.n	101332 <_memcmp+0x3a>
  1012fe:	ea40 0301 	orr.w	r3, r0, r1
  101302:	079b      	lsls	r3, r3, #30
  101304:	d128      	bne.n	101358 <_memcmp+0x60>
  101306:	f1a2 0e04 	sub.w	lr, r2, #4
  10130a:	ea4f 0e9e 	mov.w	lr, lr, lsr #2
  10130e:	4684      	mov	ip, r0
  101310:	460b      	mov	r3, r1
  101312:	f10e 0e01 	add.w	lr, lr, #1
  101316:	e004      	b.n	101322 <_memcmp+0x2a>
  101318:	f1be 0e01 	subs.w	lr, lr, #1
  10131c:	f1a2 0204 	sub.w	r2, r2, #4
  101320:	d01c      	beq.n	10135c <_memcmp+0x64>
  101322:	4619      	mov	r1, r3
  101324:	4660      	mov	r0, ip
  101326:	f853 4b04 	ldr.w	r4, [r3], #4
  10132a:	f85c 5b04 	ldr.w	r5, [ip], #4
  10132e:	42a5      	cmp	r5, r4
  101330:	d0f2      	beq.n	101318 <_memcmp+0x20>
  101332:	1e53      	subs	r3, r2, #1
  101334:	b172      	cbz	r2, 101354 <_memcmp+0x5c>
  101336:	3901      	subs	r1, #1
  101338:	1e42      	subs	r2, r0, #1
  10133a:	3301      	adds	r3, #1
  10133c:	e001      	b.n	101342 <_memcmp+0x4a>
  10133e:	3b01      	subs	r3, #1
  101340:	d008      	beq.n	101354 <_memcmp+0x5c>
  101342:	f812 0f01 	ldrb.w	r0, [r2, #1]!
  101346:	f811 cf01 	ldrb.w	ip, [r1, #1]!
  10134a:	4560      	cmp	r0, ip
  10134c:	d0f7      	beq.n	10133e <_memcmp+0x46>
  10134e:	eba0 000c 	sub.w	r0, r0, ip
  101352:	bd38      	pop	{r3, r4, r5, pc}
  101354:	2000      	movs	r0, #0
  101356:	bd38      	pop	{r3, r4, r5, pc}
  101358:	1e53      	subs	r3, r2, #1
  10135a:	e7ec      	b.n	101336 <_memcmp+0x3e>
  10135c:	4660      	mov	r0, ip
  10135e:	4619      	mov	r1, r3
  101360:	e7e7      	b.n	101332 <_memcmp+0x3a>
  101362:	bf00      	nop

00101364 <_memcpy>:
  101364:	2a0f      	cmp	r2, #15
  101366:	b5f8      	push	{r3, r4, r5, r6, r7, lr}
  101368:	d80f      	bhi.n	10138a <_memcpy+0x26>
  10136a:	4603      	mov	r3, r0
  10136c:	f102 3eff 	add.w	lr, r2, #4294967295	; 0xffffffff
  101370:	b152      	cbz	r2, 101388 <_memcpy+0x24>
  101372:	f10e 0e01 	add.w	lr, lr, #1
  101376:	f04e e001 	dls	lr, lr
  10137a:	3b01      	subs	r3, #1
  10137c:	f811 2b01 	ldrb.w	r2, [r1], #1
  101380:	f803 2f01 	strb.w	r2, [r3, #1]!
  101384:	f00f c007 	le	lr, 10137c <_memcpy+0x18>
  101388:	bdf8      	pop	{r3, r4, r5, r6, r7, pc}
  10138a:	ea40 0301 	orr.w	r3, r0, r1
  10138e:	079b      	lsls	r3, r3, #30
  101390:	d136      	bne.n	101400 <_memcpy+0x9c>
  101392:	f1a2 0310 	sub.w	r3, r2, #16
  101396:	091b      	lsrs	r3, r3, #4
  101398:	1c5f      	adds	r7, r3, #1
  10139a:	4684      	mov	ip, r0
  10139c:	460b      	mov	r3, r1
  10139e:	f047 e001 	dls	lr, r7
  1013a2:	689c      	ldr	r4, [r3, #8]
  1013a4:	681e      	ldr	r6, [r3, #0]
  1013a6:	685d      	ldr	r5, [r3, #4]
  1013a8:	f8cc 4008 	str.w	r4, [ip, #8]
  1013ac:	68dc      	ldr	r4, [r3, #12]
  1013ae:	f8cc 6000 	str.w	r6, [ip]
  1013b2:	f8cc 5004 	str.w	r5, [ip, #4]
  1013b6:	f8cc 400c 	str.w	r4, [ip, #12]
  1013ba:	3310      	adds	r3, #16
  1013bc:	f10c 0c10 	add.w	ip, ip, #16
  1013c0:	f00f c811 	le	lr, 1013a2 <_memcpy+0x3e>
  1013c4:	f012 0f0c 	tst.w	r2, #12
  1013c8:	eb01 1107 	add.w	r1, r1, r7, lsl #4
  1013cc:	eb00 1307 	add.w	r3, r0, r7, lsl #4
  1013d0:	f002 040f 	and.w	r4, r2, #15
  1013d4:	d018      	beq.n	101408 <_memcpy+0xa4>
  1013d6:	460e      	mov	r6, r1
  1013d8:	3c04      	subs	r4, #4
  1013da:	f024 0c03 	bic.w	ip, r4, #3
  1013de:	08a5      	lsrs	r5, r4, #2
  1013e0:	449c      	add	ip, r3
  1013e2:	1f1c      	subs	r4, r3, #4
  1013e4:	f856 7b04 	ldr.w	r7, [r6], #4
  1013e8:	f844 7f04 	str.w	r7, [r4, #4]!
  1013ec:	4564      	cmp	r4, ip
  1013ee:	d1f9      	bne.n	1013e4 <_memcpy+0x80>
  1013f0:	1c6c      	adds	r4, r5, #1
  1013f2:	f002 0203 	and.w	r2, r2, #3
  1013f6:	eb03 0384 	add.w	r3, r3, r4, lsl #2
  1013fa:	eb01 0184 	add.w	r1, r1, r4, lsl #2
  1013fe:	e7b5      	b.n	10136c <_memcpy+0x8>
  101400:	4603      	mov	r3, r0
  101402:	f102 3eff 	add.w	lr, r2, #4294967295	; 0xffffffff
  101406:	e7b4      	b.n	101372 <_memcpy+0xe>
  101408:	4622      	mov	r2, r4
  10140a:	e7af      	b.n	10136c <_memcpy+0x8>

0010140c <_memmove>:
  10140c:	4288      	cmp	r0, r1
  10140e:	b570      	push	{r4, r5, r6, lr}
  101410:	d911      	bls.n	101436 <_memmove+0x2a>
  101412:	188b      	adds	r3, r1, r2
  101414:	4283      	cmp	r3, r0
  101416:	d90e      	bls.n	101436 <_memmove+0x2a>
  101418:	eb00 0c02 	add.w	ip, r0, r2
  10141c:	b152      	cbz	r2, 101434 <_memmove+0x28>
  10141e:	eba3 0e01 	sub.w	lr, r3, r1
  101422:	4662      	mov	r2, ip
  101424:	f04e e001 	dls	lr, lr
  101428:	f813 1d01 	ldrb.w	r1, [r3, #-1]!
  10142c:	f802 1d01 	strb.w	r1, [r2, #-1]!
  101430:	f00f c007 	le	lr, 101428 <_memmove+0x1c>
  101434:	bd70      	pop	{r4, r5, r6, pc}
  101436:	2a0f      	cmp	r2, #15
  101438:	d810      	bhi.n	10145c <_memmove+0x50>
  10143a:	4603      	mov	r3, r0
  10143c:	f102 3eff 	add.w	lr, r2, #4294967295	; 0xffffffff
  101440:	2a00      	cmp	r2, #0
  101442:	d0f7      	beq.n	101434 <_memmove+0x28>
  101444:	f10e 0e01 	add.w	lr, lr, #1
  101448:	f04e e001 	dls	lr, lr
  10144c:	3b01      	subs	r3, #1
  10144e:	f811 2b01 	ldrb.w	r2, [r1], #1
  101452:	f803 2f01 	strb.w	r2, [r3, #1]!
  101456:	f00f c007 	le	lr, 10144e <_memmove+0x42>
  10145a:	bd70      	pop	{r4, r5, r6, pc}
  10145c:	ea40 0301 	orr.w	r3, r0, r1
  101460:	079b      	lsls	r3, r3, #30
  101462:	d143      	bne.n	1014ec <_memmove+0xe0>
  101464:	f1a2 0c10 	sub.w	ip, r2, #16
  101468:	ea4f 1e1c 	mov.w	lr, ip, lsr #4
  10146c:	f10e 0e01 	add.w	lr, lr, #1
  101470:	f04e e001 	dls	lr, lr
  101474:	ea4f 141c 	mov.w	r4, ip, lsr #4
  101478:	f100 0310 	add.w	r3, r0, #16
  10147c:	f101 0c10 	add.w	ip, r1, #16
  101480:	f85c 5c10 	ldr.w	r5, [ip, #-16]
  101484:	3310      	adds	r3, #16
  101486:	f843 5c20 	str.w	r5, [r3, #-32]
  10148a:	f85c 5c0c 	ldr.w	r5, [ip, #-12]
  10148e:	f10c 0c10 	add.w	ip, ip, #16
  101492:	f843 5c1c 	str.w	r5, [r3, #-28]
  101496:	f85c 5c18 	ldr.w	r5, [ip, #-24]
  10149a:	f843 5c18 	str.w	r5, [r3, #-24]
  10149e:	f85c 5c14 	ldr.w	r5, [ip, #-20]
  1014a2:	f843 5c14 	str.w	r5, [r3, #-20]
  1014a6:	f00f c815 	le	lr, 101480 <_memmove+0x74>
  1014aa:	1c63      	adds	r3, r4, #1
  1014ac:	f012 0f0c 	tst.w	r2, #12
  1014b0:	eb01 1103 	add.w	r1, r1, r3, lsl #4
  1014b4:	f002 040f 	and.w	r4, r2, #15
  1014b8:	eb00 1303 	add.w	r3, r0, r3, lsl #4
  1014bc:	d01a      	beq.n	1014f4 <_memmove+0xe8>
  1014be:	468e      	mov	lr, r1
  1014c0:	3c04      	subs	r4, #4
  1014c2:	f024 0603 	bic.w	r6, r4, #3
  1014c6:	ea4f 0c94 	mov.w	ip, r4, lsr #2
  1014ca:	441e      	add	r6, r3
  1014cc:	1f1c      	subs	r4, r3, #4
  1014ce:	f85e 5b04 	ldr.w	r5, [lr], #4
  1014d2:	f844 5f04 	str.w	r5, [r4, #4]!
  1014d6:	42b4      	cmp	r4, r6
  1014d8:	d1f9      	bne.n	1014ce <_memmove+0xc2>
  1014da:	f10c 0401 	add.w	r4, ip, #1
  1014de:	f002 0203 	and.w	r2, r2, #3
  1014e2:	eb03 0384 	add.w	r3, r3, r4, lsl #2
  1014e6:	eb01 0184 	add.w	r1, r1, r4, lsl #2
  1014ea:	e7a7      	b.n	10143c <_memmove+0x30>
  1014ec:	4603      	mov	r3, r0
  1014ee:	f102 3eff 	add.w	lr, r2, #4294967295	; 0xffffffff
  1014f2:	e7a7      	b.n	101444 <_memmove+0x38>
  1014f4:	4622      	mov	r2, r4
  1014f6:	e7a1      	b.n	10143c <_memmove+0x30>

001014f8 <_memset>:
  1014f8:	b538      	push	{r3, r4, r5, lr}
  1014fa:	0783      	lsls	r3, r0, #30
  1014fc:	d053      	beq.n	1015a6 <_memset+0xae>
  1014fe:	1e54      	subs	r4, r2, #1
  101500:	2a00      	cmp	r2, #0
  101502:	d04a      	beq.n	10159a <_memset+0xa2>
  101504:	4603      	mov	r3, r0
  101506:	b2cd      	uxtb	r5, r1
  101508:	e003      	b.n	101512 <_memset+0x1a>
  10150a:	3a01      	subs	r2, #1
  10150c:	f104 34ff 	add.w	r4, r4, #4294967295	; 0xffffffff
  101510:	d043      	beq.n	10159a <_memset+0xa2>
  101512:	f803 5b01 	strb.w	r5, [r3], #1
  101516:	f013 0f03 	tst.w	r3, #3
  10151a:	d1f6      	bne.n	10150a <_memset+0x12>
  10151c:	2c03      	cmp	r4, #3
  10151e:	d934      	bls.n	10158a <_memset+0x92>
  101520:	b2cd      	uxtb	r5, r1
  101522:	eb05 2505 	add.w	r5, r5, r5, lsl #8
  101526:	2c0f      	cmp	r4, #15
  101528:	eb05 4505 	add.w	r5, r5, r5, lsl #16
  10152c:	d93e      	bls.n	1015ac <_memset+0xb4>
  10152e:	f1a4 0210 	sub.w	r2, r4, #16
  101532:	ea4f 1e12 	mov.w	lr, r2, lsr #4
  101536:	f10e 0e01 	add.w	lr, lr, #1
  10153a:	ea4f 1c12 	mov.w	ip, r2, lsr #4
  10153e:	f04e e001 	dls	lr, lr
  101542:	461a      	mov	r2, r3
  101544:	6015      	str	r5, [r2, #0]
  101546:	6055      	str	r5, [r2, #4]
  101548:	6095      	str	r5, [r2, #8]
  10154a:	60d5      	str	r5, [r2, #12]
  10154c:	3210      	adds	r2, #16
  10154e:	f00f c807 	le	lr, 101544 <_memset+0x4c>
  101552:	f10c 0201 	add.w	r2, ip, #1
  101556:	f014 0f0c 	tst.w	r4, #12
  10155a:	eb03 1202 	add.w	r2, r3, r2, lsl #4
  10155e:	f004 0c0f 	and.w	ip, r4, #15
  101562:	d01b      	beq.n	10159c <_memset+0xa4>
  101564:	f1ac 0304 	sub.w	r3, ip, #4
  101568:	f023 0303 	bic.w	r3, r3, #3
  10156c:	469e      	mov	lr, r3
  10156e:	ea4f 0e9e 	mov.w	lr, lr, lsr #2
  101572:	f10e 0e01 	add.w	lr, lr, #1
  101576:	f04e e001 	dls	lr, lr
  10157a:	3304      	adds	r3, #4
  10157c:	4413      	add	r3, r2
  10157e:	f842 5b04 	str.w	r5, [r2], #4
  101582:	f00f c005 	le	lr, 10157e <_memset+0x86>
  101586:	f00c 0403 	and.w	r4, ip, #3
  10158a:	b134      	cbz	r4, 10159a <_memset+0xa2>
  10158c:	f044 e001 	dls	lr, r4
  101590:	b2c9      	uxtb	r1, r1
  101592:	f803 1b01 	strb.w	r1, [r3], #1
  101596:	f00f c005 	le	lr, 101592 <_memset+0x9a>
  10159a:	bd38      	pop	{r3, r4, r5, pc}
  10159c:	4664      	mov	r4, ip
  10159e:	4613      	mov	r3, r2
  1015a0:	2c00      	cmp	r4, #0
  1015a2:	d1f3      	bne.n	10158c <_memset+0x94>
  1015a4:	e7f9      	b.n	10159a <_memset+0xa2>
  1015a6:	4603      	mov	r3, r0
  1015a8:	4614      	mov	r4, r2
  1015aa:	e7b7      	b.n	10151c <_memset+0x24>
  1015ac:	461a      	mov	r2, r3
  1015ae:	46a4      	mov	ip, r4
  1015b0:	e7d8      	b.n	101564 <_memset+0x6c>
  1015b2:	bf00      	nop

001015b4 <judge_digit_width>:
  1015b4:	2910      	cmp	r1, #16
  1015b6:	7803      	ldrb	r3, [r0, #0]
  1015b8:	d020      	beq.n	1015fc <judge_digit_width+0x48>
  1015ba:	b979      	cbnz	r1, 1015dc <judge_digit_width+0x28>
  1015bc:	2b30      	cmp	r3, #48	; 0x30
  1015be:	d044      	beq.n	10164a <judge_digit_width+0x96>
  1015c0:	3b30      	subs	r3, #48	; 0x30
  1015c2:	2b09      	cmp	r3, #9
  1015c4:	4602      	mov	r2, r0
  1015c6:	d82a      	bhi.n	10161e <judge_digit_width+0x6a>
  1015c8:	4611      	mov	r1, r2
  1015ca:	f812 3f01 	ldrb.w	r3, [r2, #1]!
  1015ce:	3b30      	subs	r3, #48	; 0x30
  1015d0:	2b09      	cmp	r3, #9
  1015d2:	d9f9      	bls.n	1015c8 <judge_digit_width+0x14>
  1015d4:	f1c0 0001 	rsb	r0, r0, #1
  1015d8:	4408      	add	r0, r1
  1015da:	4770      	bx	lr
  1015dc:	2908      	cmp	r1, #8
  1015de:	d1ef      	bne.n	1015c0 <judge_digit_width+0xc>
  1015e0:	3b30      	subs	r3, #48	; 0x30
  1015e2:	2b07      	cmp	r3, #7
  1015e4:	d81b      	bhi.n	10161e <judge_digit_width+0x6a>
  1015e6:	4602      	mov	r2, r0
  1015e8:	4611      	mov	r1, r2
  1015ea:	f812 3f01 	ldrb.w	r3, [r2, #1]!
  1015ee:	3b30      	subs	r3, #48	; 0x30
  1015f0:	2b07      	cmp	r3, #7
  1015f2:	d9f9      	bls.n	1015e8 <judge_digit_width+0x34>
  1015f4:	f1c0 0001 	rsb	r0, r0, #1
  1015f8:	4408      	add	r0, r1
  1015fa:	4770      	bx	lr
  1015fc:	2b30      	cmp	r3, #48	; 0x30
  1015fe:	d010      	beq.n	101622 <judge_digit_width+0x6e>
  101600:	1e41      	subs	r1, r0, #1
  101602:	784b      	ldrb	r3, [r1, #1]
  101604:	f101 0c01 	add.w	ip, r1, #1
  101608:	f023 0220 	bic.w	r2, r3, #32
  10160c:	3b30      	subs	r3, #48	; 0x30
  10160e:	2b09      	cmp	r3, #9
  101610:	f1a2 0241 	sub.w	r2, r2, #65	; 0x41
  101614:	d901      	bls.n	10161a <judge_digit_width+0x66>
  101616:	2a05      	cmp	r2, #5
  101618:	d8dc      	bhi.n	1015d4 <judge_digit_width+0x20>
  10161a:	4661      	mov	r1, ip
  10161c:	e7f1      	b.n	101602 <judge_digit_width+0x4e>
  10161e:	2000      	movs	r0, #0
  101620:	4770      	bx	lr
  101622:	7843      	ldrb	r3, [r0, #1]
  101624:	f043 0320 	orr.w	r3, r3, #32
  101628:	2b78      	cmp	r3, #120	; 0x78
  10162a:	d1e9      	bne.n	101600 <judge_digit_width+0x4c>
  10162c:	1c41      	adds	r1, r0, #1
  10162e:	784b      	ldrb	r3, [r1, #1]
  101630:	f101 0c01 	add.w	ip, r1, #1
  101634:	f023 0220 	bic.w	r2, r3, #32
  101638:	3b30      	subs	r3, #48	; 0x30
  10163a:	2b09      	cmp	r3, #9
  10163c:	f1a2 0241 	sub.w	r2, r2, #65	; 0x41
  101640:	d901      	bls.n	101646 <judge_digit_width+0x92>
  101642:	2a05      	cmp	r2, #5
  101644:	d8c6      	bhi.n	1015d4 <judge_digit_width+0x20>
  101646:	4661      	mov	r1, ip
  101648:	e7f1      	b.n	10162e <judge_digit_width+0x7a>
  10164a:	7843      	ldrb	r3, [r0, #1]
  10164c:	f043 0320 	orr.w	r3, r3, #32
  101650:	2b78      	cmp	r3, #120	; 0x78
  101652:	d1c8      	bne.n	1015e6 <judge_digit_width+0x32>
  101654:	e7ea      	b.n	10162c <judge_digit_width+0x78>
  101656:	bf00      	nop

00101658 <_vsscanf_minimal>:
  101658:	e92d 4ff0 	stmdb	sp!, {r4, r5, r6, r7, r8, r9, sl, fp, lr}
  10165c:	2500      	movs	r5, #0
  10165e:	780b      	ldrb	r3, [r1, #0]
  101660:	b08f      	sub	sp, #60	; 0x3c
  101662:	e9cd 5508 	strd	r5, r5, [sp, #32]
  101666:	e9cd 550a 	strd	r5, r5, [sp, #40]	; 0x28
  10166a:	e9cd 550c 	strd	r5, r5, [sp, #48]	; 0x30
  10166e:	2b00      	cmp	r3, #0
  101670:	f000 8235 	beq.w	101ade <_vsscanf_minimal+0x486>
  101674:	46a8      	mov	r8, r5
  101676:	460c      	mov	r4, r1
  101678:	4691      	mov	r9, r2
  10167a:	4605      	mov	r5, r0
  10167c:	4683      	mov	fp, r0
  10167e:	2b20      	cmp	r3, #32
  101680:	d014      	beq.n	1016ac <_vsscanf_minimal+0x54>
  101682:	f1a3 0209 	sub.w	r2, r3, #9
  101686:	2a04      	cmp	r2, #4
  101688:	d910      	bls.n	1016ac <_vsscanf_minimal+0x54>
  10168a:	2b2c      	cmp	r3, #44	; 0x2c
  10168c:	d00e      	beq.n	1016ac <_vsscanf_minimal+0x54>
  10168e:	7823      	ldrb	r3, [r4, #0]
  101690:	2b25      	cmp	r3, #37	; 0x25
  101692:	d026      	beq.n	1016e2 <_vsscanf_minimal+0x8a>
  101694:	b11b      	cbz	r3, 10169e <_vsscanf_minimal+0x46>
  101696:	782a      	ldrb	r2, [r5, #0]
  101698:	429a      	cmp	r2, r3
  10169a:	f000 80b3 	beq.w	101804 <_vsscanf_minimal+0x1ac>
  10169e:	4640      	mov	r0, r8
  1016a0:	b00f      	add	sp, #60	; 0x3c
  1016a2:	e8bd 8ff0 	ldmia.w	sp!, {r4, r5, r6, r7, r8, r9, sl, fp, pc}
  1016a6:	2a20      	cmp	r2, #32
  1016a8:	f040 81b5 	bne.w	101a16 <_vsscanf_minimal+0x3be>
  1016ac:	1c62      	adds	r2, r4, #1
  1016ae:	7813      	ldrb	r3, [r2, #0]
  1016b0:	4614      	mov	r4, r2
  1016b2:	2b20      	cmp	r3, #32
  1016b4:	f1a3 0109 	sub.w	r1, r3, #9
  1016b8:	f102 0201 	add.w	r2, r2, #1
  1016bc:	d0f7      	beq.n	1016ae <_vsscanf_minimal+0x56>
  1016be:	2904      	cmp	r1, #4
  1016c0:	d9f5      	bls.n	1016ae <_vsscanf_minimal+0x56>
  1016c2:	2b2c      	cmp	r3, #44	; 0x2c
  1016c4:	d0f3      	beq.n	1016ae <_vsscanf_minimal+0x56>
  1016c6:	4629      	mov	r1, r5
  1016c8:	460d      	mov	r5, r1
  1016ca:	f811 2b01 	ldrb.w	r2, [r1], #1
  1016ce:	2a20      	cmp	r2, #32
  1016d0:	f1a2 0009 	sub.w	r0, r2, #9
  1016d4:	d0f8      	beq.n	1016c8 <_vsscanf_minimal+0x70>
  1016d6:	2804      	cmp	r0, #4
  1016d8:	d9f6      	bls.n	1016c8 <_vsscanf_minimal+0x70>
  1016da:	2a2c      	cmp	r2, #44	; 0x2c
  1016dc:	d0f4      	beq.n	1016c8 <_vsscanf_minimal+0x70>
  1016de:	2b25      	cmp	r3, #37	; 0x25
  1016e0:	d1d8      	bne.n	101694 <_vsscanf_minimal+0x3c>
  1016e2:	7866      	ldrb	r6, [r4, #1]
  1016e4:	1c67      	adds	r7, r4, #1
  1016e6:	2e2a      	cmp	r6, #42	; 0x2a
  1016e8:	f000 8177 	beq.w	1019da <_vsscanf_minimal+0x382>
  1016ec:	f1a6 0330 	sub.w	r3, r6, #48	; 0x30
  1016f0:	2b09      	cmp	r3, #9
  1016f2:	d971      	bls.n	1017d8 <_vsscanf_minimal+0x180>
  1016f4:	f04f 33ff 	mov.w	r3, #4294967295	; 0xffffffff
  1016f8:	2e68      	cmp	r6, #104	; 0x68
  1016fa:	d065      	beq.n	1017c8 <_vsscanf_minimal+0x170>
  1016fc:	f046 0220 	orr.w	r2, r6, #32
  101700:	2a6c      	cmp	r2, #108	; 0x6c
  101702:	d05b      	beq.n	1017bc <_vsscanf_minimal+0x164>
  101704:	2a7a      	cmp	r2, #122	; 0x7a
  101706:	d059      	beq.n	1017bc <_vsscanf_minimal+0x164>
  101708:	4631      	mov	r1, r6
  10170a:	26ff      	movs	r6, #255	; 0xff
  10170c:	2900      	cmp	r1, #0
  10170e:	d0c6      	beq.n	10169e <_vsscanf_minimal+0x46>
  101710:	296e      	cmp	r1, #110	; 0x6e
  101712:	f000 818e 	beq.w	101a32 <_vsscanf_minimal+0x3da>
  101716:	782a      	ldrb	r2, [r5, #0]
  101718:	2a00      	cmp	r2, #0
  10171a:	d0c0      	beq.n	10169e <_vsscanf_minimal+0x46>
  10171c:	2925      	cmp	r1, #37	; 0x25
  10171e:	f107 0401 	add.w	r4, r7, #1
  101722:	f000 81af 	beq.w	101a84 <_vsscanf_minimal+0x42c>
  101726:	3958      	subs	r1, #88	; 0x58
  101728:	b2c8      	uxtb	r0, r1
  10172a:	2820      	cmp	r0, #32
  10172c:	d8b7      	bhi.n	10169e <_vsscanf_minimal+0x46>
  10172e:	2920      	cmp	r1, #32
  101730:	d8b5      	bhi.n	10169e <_vsscanf_minimal+0x46>
  101732:	a001      	add	r0, pc, #4	; (adr r0, 101738 <_vsscanf_minimal+0xe0>)
  101734:	f850 f021 	ldr.w	pc, [r0, r1, lsl #2]
  101738:	00101ab9 	.word	0x00101ab9
  10173c:	0010169f 	.word	0x0010169f
  101740:	0010169f 	.word	0x0010169f
  101744:	0010169f 	.word	0x0010169f
  101748:	0010169f 	.word	0x0010169f
  10174c:	0010169f 	.word	0x0010169f
  101750:	0010169f 	.word	0x0010169f
  101754:	0010169f 	.word	0x0010169f
  101758:	0010169f 	.word	0x0010169f
  10175c:	0010169f 	.word	0x0010169f
  101760:	0010169f 	.word	0x0010169f
  101764:	00101997 	.word	0x00101997
  101768:	00101813 	.word	0x00101813
  10176c:	0010169f 	.word	0x0010169f
  101770:	0010169f 	.word	0x0010169f
  101774:	0010169f 	.word	0x0010169f
  101778:	0010169f 	.word	0x0010169f
  10177c:	0010198f 	.word	0x0010198f
  101780:	0010169f 	.word	0x0010169f
  101784:	0010169f 	.word	0x0010169f
  101788:	0010169f 	.word	0x0010169f
  10178c:	0010169f 	.word	0x0010169f
  101790:	0010169f 	.word	0x0010169f
  101794:	00101ac1 	.word	0x00101ac1
  101798:	0010169f 	.word	0x0010169f
  10179c:	0010169f 	.word	0x0010169f
  1017a0:	0010169f 	.word	0x0010169f
  1017a4:	0010192d 	.word	0x0010192d
  1017a8:	0010169f 	.word	0x0010169f
  1017ac:	00101925 	.word	0x00101925
  1017b0:	0010169f 	.word	0x0010169f
  1017b4:	0010169f 	.word	0x0010169f
  1017b8:	00101ab9 	.word	0x00101ab9
  1017bc:	7879      	ldrb	r1, [r7, #1]
  1017be:	1c7a      	adds	r2, r7, #1
  1017c0:	42b1      	cmp	r1, r6
  1017c2:	d019      	beq.n	1017f8 <_vsscanf_minimal+0x1a0>
  1017c4:	4617      	mov	r7, r2
  1017c6:	e7a1      	b.n	10170c <_vsscanf_minimal+0xb4>
  1017c8:	7879      	ldrb	r1, [r7, #1]
  1017ca:	2968      	cmp	r1, #104	; 0x68
  1017cc:	bf05      	ittet	eq
  1017ce:	78b9      	ldrbeq	r1, [r7, #2]
  1017d0:	2648      	moveq	r6, #72	; 0x48
  1017d2:	3701      	addne	r7, #1
  1017d4:	3702      	addeq	r7, #2
  1017d6:	e799      	b.n	10170c <_vsscanf_minimal+0xb4>
  1017d8:	2300      	movs	r3, #0
  1017da:	eb03 0383 	add.w	r3, r3, r3, lsl #2
  1017de:	eb06 0343 	add.w	r3, r6, r3, lsl #1
  1017e2:	f817 6f01 	ldrb.w	r6, [r7, #1]!
  1017e6:	3b30      	subs	r3, #48	; 0x30
  1017e8:	f1a6 0230 	sub.w	r2, r6, #48	; 0x30
  1017ec:	2a09      	cmp	r2, #9
  1017ee:	d9f4      	bls.n	1017da <_vsscanf_minimal+0x182>
  1017f0:	b21b      	sxth	r3, r3
  1017f2:	2b00      	cmp	r3, #0
  1017f4:	dc80      	bgt.n	1016f8 <_vsscanf_minimal+0xa0>
  1017f6:	e752      	b.n	10169e <_vsscanf_minimal+0x46>
  1017f8:	2e6c      	cmp	r6, #108	; 0x6c
  1017fa:	d1e3      	bne.n	1017c4 <_vsscanf_minimal+0x16c>
  1017fc:	78b9      	ldrb	r1, [r7, #2]
  1017fe:	264c      	movs	r6, #76	; 0x4c
  101800:	3702      	adds	r7, #2
  101802:	e783      	b.n	10170c <_vsscanf_minimal+0xb4>
  101804:	7863      	ldrb	r3, [r4, #1]
  101806:	3501      	adds	r5, #1
  101808:	3401      	adds	r4, #1
  10180a:	2b00      	cmp	r3, #0
  10180c:	f47f af37 	bne.w	10167e <_vsscanf_minimal+0x26>
  101810:	e745      	b.n	10169e <_vsscanf_minimal+0x46>
  101812:	210a      	movs	r1, #10
  101814:	f04f 0a01 	mov.w	sl, #1
  101818:	e001      	b.n	10181e <_vsscanf_minimal+0x1c6>
  10181a:	f815 2f01 	ldrb.w	r2, [r5, #1]!
  10181e:	2a20      	cmp	r2, #32
  101820:	f1a2 0009 	sub.w	r0, r2, #9
  101824:	d0f9      	beq.n	10181a <_vsscanf_minimal+0x1c2>
  101826:	2804      	cmp	r0, #4
  101828:	d9f7      	bls.n	10181a <_vsscanf_minimal+0x1c2>
  10182a:	2a2c      	cmp	r2, #44	; 0x2c
  10182c:	d0f5      	beq.n	10181a <_vsscanf_minimal+0x1c2>
  10182e:	f1ba 0f00 	cmp.w	sl, #0
  101832:	d002      	beq.n	10183a <_vsscanf_minimal+0x1e2>
  101834:	2a2d      	cmp	r2, #45	; 0x2d
  101836:	f000 812e 	beq.w	101a96 <_vsscanf_minimal+0x43e>
  10183a:	1c58      	adds	r0, r3, #1
  10183c:	f000 8119 	beq.w	101a72 <_vsscanf_minimal+0x41a>
  101840:	4628      	mov	r0, r5
  101842:	e9cd 3202 	strd	r3, r2, [sp, #8]
  101846:	9101      	str	r1, [sp, #4]
  101848:	f7ff feb4 	bl	1015b4 <judge_digit_width>
  10184c:	9b02      	ldr	r3, [sp, #8]
  10184e:	9a03      	ldr	r2, [sp, #12]
  101850:	4298      	cmp	r0, r3
  101852:	b200      	sxth	r0, r0
  101854:	bfb8      	it	lt
  101856:	4603      	movlt	r3, r0
  101858:	9901      	ldr	r1, [sp, #4]
  10185a:	2a00      	cmp	r2, #0
  10185c:	f43f af1f 	beq.w	10169e <_vsscanf_minimal+0x46>
  101860:	f1a2 0030 	sub.w	r0, r2, #48	; 0x30
  101864:	2910      	cmp	r1, #16
  101866:	b2c0      	uxtb	r0, r0
  101868:	f000 80f5 	beq.w	101a56 <_vsscanf_minimal+0x3fe>
  10186c:	290a      	cmp	r1, #10
  10186e:	d002      	beq.n	101876 <_vsscanf_minimal+0x21e>
  101870:	2908      	cmp	r1, #8
  101872:	f000 80fa 	beq.w	101a6a <_vsscanf_minimal+0x412>
  101876:	2809      	cmp	r0, #9
  101878:	f63f af11 	bhi.w	10169e <_vsscanf_minimal+0x46>
  10187c:	2b00      	cmp	r3, #0
  10187e:	f340 812a 	ble.w	101ad6 <_vsscanf_minimal+0x47e>
  101882:	462a      	mov	r2, r5
  101884:	ad08      	add	r5, sp, #32
  101886:	4628      	mov	r0, r5
  101888:	f043 e001 	dls	lr, r3
  10188c:	18d3      	adds	r3, r2, r3
  10188e:	9301      	str	r3, [sp, #4]
  101890:	f812 3b01 	ldrb.w	r3, [r2], #1
  101894:	f800 3b01 	strb.w	r3, [r0], #1
  101898:	f00f c007 	le	lr, 101890 <_vsscanf_minimal+0x238>
  10189c:	460a      	mov	r2, r1
  10189e:	4628      	mov	r0, r5
  1018a0:	f1ba 0f00 	cmp.w	sl, #0
  1018a4:	f000 80d0 	beq.w	101a48 <_vsscanf_minimal+0x3f0>
  1018a8:	4b8e      	ldr	r3, [pc, #568]	; (101ae4 <_vsscanf_minimal+0x48c>)
  1018aa:	a905      	add	r1, sp, #20
  1018ac:	4798      	blx	r3
  1018ae:	17c3      	asrs	r3, r0, #31
  1018b0:	9006      	str	r0, [sp, #24]
  1018b2:	9307      	str	r3, [sp, #28]
  1018b4:	f04f 0e06 	mov.w	lr, #6
  1018b8:	9b01      	ldr	r3, [sp, #4]
  1018ba:	f04e e001 	dls	lr, lr
  1018be:	9305      	str	r3, [sp, #20]
  1018c0:	2300      	movs	r3, #0
  1018c2:	f845 3b04 	str.w	r3, [r5], #4
  1018c6:	f00f c005 	le	lr, 1018c2 <_vsscanf_minimal+0x26a>
  1018ca:	2e6c      	cmp	r6, #108	; 0x6c
  1018cc:	f859 0b04 	ldr.w	r0, [r9], #4
  1018d0:	d819      	bhi.n	101906 <_vsscanf_minimal+0x2ae>
  1018d2:	2e47      	cmp	r6, #71	; 0x47
  1018d4:	d917      	bls.n	101906 <_vsscanf_minimal+0x2ae>
  1018d6:	3e48      	subs	r6, #72	; 0x48
  1018d8:	2e24      	cmp	r6, #36	; 0x24
  1018da:	d814      	bhi.n	101906 <_vsscanf_minimal+0x2ae>
  1018dc:	e8df f006 	tbb	[pc, r6]
  1018e0:	1313137a 	.word	0x1313137a
  1018e4:	13131376 	.word	0x13131376
  1018e8:	13131313 	.word	0x13131313
  1018ec:	13131313 	.word	0x13131313
  1018f0:	13131313 	.word	0x13131313
  1018f4:	13131313 	.word	0x13131313
  1018f8:	13131313 	.word	0x13131313
  1018fc:	13131313 	.word	0x13131313
  101900:	13131372 	.word	0x13131372
  101904:	13          	.byte	0x13
  101905:	00          	.byte	0x00
  101906:	2204      	movs	r2, #4
  101908:	4b77      	ldr	r3, [pc, #476]	; (101ae8 <_vsscanf_minimal+0x490>)
  10190a:	a906      	add	r1, sp, #24
  10190c:	4798      	blx	r3
  10190e:	9d05      	ldr	r5, [sp, #20]
  101910:	f108 0801 	add.w	r8, r8, #1
  101914:	2d00      	cmp	r5, #0
  101916:	f43f aec2 	beq.w	10169e <_vsscanf_minimal+0x46>
  10191a:	787b      	ldrb	r3, [r7, #1]
  10191c:	2b00      	cmp	r3, #0
  10191e:	f47f aeae 	bne.w	10167e <_vsscanf_minimal+0x26>
  101922:	e6bc      	b.n	10169e <_vsscanf_minimal+0x46>
  101924:	210a      	movs	r1, #10
  101926:	f04f 0a00 	mov.w	sl, #0
  10192a:	e778      	b.n	10181e <_vsscanf_minimal+0x1c6>
  10192c:	f647 72ff 	movw	r2, #32767	; 0x7fff
  101930:	1c59      	adds	r1, r3, #1
  101932:	bf08      	it	eq
  101934:	4613      	moveq	r3, r2
  101936:	4629      	mov	r1, r5
  101938:	f859 6b04 	ldr.w	r6, [r9], #4
  10193c:	780a      	ldrb	r2, [r1, #0]
  10193e:	460d      	mov	r5, r1
  101940:	2a20      	cmp	r2, #32
  101942:	f1a2 0009 	sub.w	r0, r2, #9
  101946:	f101 0101 	add.w	r1, r1, #1
  10194a:	d0f7      	beq.n	10193c <_vsscanf_minimal+0x2e4>
  10194c:	2804      	cmp	r0, #4
  10194e:	d9f5      	bls.n	10193c <_vsscanf_minimal+0x2e4>
  101950:	2a2c      	cmp	r2, #44	; 0x2c
  101952:	d0f3      	beq.n	10193c <_vsscanf_minimal+0x2e4>
  101954:	b192      	cbz	r2, 10197c <_vsscanf_minimal+0x324>
  101956:	3301      	adds	r3, #1
  101958:	e00a      	b.n	101970 <_vsscanf_minimal+0x318>
  10195a:	2904      	cmp	r1, #4
  10195c:	d90e      	bls.n	10197c <_vsscanf_minimal+0x324>
  10195e:	3b01      	subs	r3, #1
  101960:	d00c      	beq.n	10197c <_vsscanf_minimal+0x324>
  101962:	f806 2b01 	strb.w	r2, [r6], #1
  101966:	f815 2f01 	ldrb.w	r2, [r5, #1]!
  10196a:	b13a      	cbz	r2, 10197c <_vsscanf_minimal+0x324>
  10196c:	2a20      	cmp	r2, #32
  10196e:	d005      	beq.n	10197c <_vsscanf_minimal+0x324>
  101970:	2a20      	cmp	r2, #32
  101972:	f1a2 0109 	sub.w	r1, r2, #9
  101976:	d9f0      	bls.n	10195a <_vsscanf_minimal+0x302>
  101978:	2a2c      	cmp	r2, #44	; 0x2c
  10197a:	d1f0      	bne.n	10195e <_vsscanf_minimal+0x306>
  10197c:	2300      	movs	r3, #0
  10197e:	7033      	strb	r3, [r6, #0]
  101980:	787b      	ldrb	r3, [r7, #1]
  101982:	f108 0801 	add.w	r8, r8, #1
  101986:	2b00      	cmp	r3, #0
  101988:	f47f ae79 	bne.w	10167e <_vsscanf_minimal+0x26>
  10198c:	e687      	b.n	10169e <_vsscanf_minimal+0x46>
  10198e:	2100      	movs	r1, #0
  101990:	f04f 0a01 	mov.w	sl, #1
  101994:	e743      	b.n	10181e <_vsscanf_minimal+0x1c6>
  101996:	1c58      	adds	r0, r3, #1
  101998:	bf08      	it	eq
  10199a:	2301      	moveq	r3, #1
  10199c:	f859 2b04 	ldr.w	r2, [r9], #4
  1019a0:	b29b      	uxth	r3, r3
  1019a2:	3a01      	subs	r2, #1
  1019a4:	e001      	b.n	1019aa <_vsscanf_minimal+0x352>
  1019a6:	7829      	ldrb	r1, [r5, #0]
  1019a8:	b129      	cbz	r1, 1019b6 <_vsscanf_minimal+0x35e>
  1019aa:	f815 1b01 	ldrb.w	r1, [r5], #1
  1019ae:	3b01      	subs	r3, #1
  1019b0:	f802 1f01 	strb.w	r1, [r2, #1]!
  1019b4:	d1f7      	bne.n	1019a6 <_vsscanf_minimal+0x34e>
  1019b6:	787b      	ldrb	r3, [r7, #1]
  1019b8:	f108 0801 	add.w	r8, r8, #1
  1019bc:	2b00      	cmp	r3, #0
  1019be:	f47f ae5e 	bne.w	10167e <_vsscanf_minimal+0x26>
  1019c2:	e66c      	b.n	10169e <_vsscanf_minimal+0x46>
  1019c4:	2202      	movs	r2, #2
  1019c6:	4b48      	ldr	r3, [pc, #288]	; (101ae8 <_vsscanf_minimal+0x490>)
  1019c8:	a906      	add	r1, sp, #24
  1019ca:	e79f      	b.n	10190c <_vsscanf_minimal+0x2b4>
  1019cc:	2208      	movs	r2, #8
  1019ce:	4b46      	ldr	r3, [pc, #280]	; (101ae8 <_vsscanf_minimal+0x490>)
  1019d0:	a906      	add	r1, sp, #24
  1019d2:	e79b      	b.n	10190c <_vsscanf_minimal+0x2b4>
  1019d4:	9b06      	ldr	r3, [sp, #24]
  1019d6:	7003      	strb	r3, [r0, #0]
  1019d8:	e799      	b.n	10190e <_vsscanf_minimal+0x2b6>
  1019da:	782a      	ldrb	r2, [r5, #0]
  1019dc:	2a00      	cmp	r2, #0
  1019de:	f43f ae5e 	beq.w	10169e <_vsscanf_minimal+0x46>
  1019e2:	463c      	mov	r4, r7
  1019e4:	4621      	mov	r1, r4
  1019e6:	f814 3f01 	ldrb.w	r3, [r4, #1]!
  1019ea:	2b20      	cmp	r3, #32
  1019ec:	f1a3 0009 	sub.w	r0, r3, #9
  1019f0:	f43f ae59 	beq.w	1016a6 <_vsscanf_minimal+0x4e>
  1019f4:	2b25      	cmp	r3, #37	; 0x25
  1019f6:	d004      	beq.n	101a02 <_vsscanf_minimal+0x3aa>
  1019f8:	d818      	bhi.n	101a2c <_vsscanf_minimal+0x3d4>
  1019fa:	2804      	cmp	r0, #4
  1019fc:	d901      	bls.n	101a02 <_vsscanf_minimal+0x3aa>
  1019fe:	2b00      	cmp	r3, #0
  101a00:	d1f0      	bne.n	1019e4 <_vsscanf_minimal+0x38c>
  101a02:	784b      	ldrb	r3, [r1, #1]
  101a04:	e004      	b.n	101a10 <_vsscanf_minimal+0x3b8>
  101a06:	2a2c      	cmp	r2, #44	; 0x2c
  101a08:	f43f aeff 	beq.w	10180a <_vsscanf_minimal+0x1b2>
  101a0c:	f815 2f01 	ldrb.w	r2, [r5, #1]!
  101a10:	2a20      	cmp	r2, #32
  101a12:	f43f aefa 	beq.w	10180a <_vsscanf_minimal+0x1b2>
  101a16:	2a0d      	cmp	r2, #13
  101a18:	d8f5      	bhi.n	101a06 <_vsscanf_minimal+0x3ae>
  101a1a:	2a08      	cmp	r2, #8
  101a1c:	f63f aef5 	bhi.w	10180a <_vsscanf_minimal+0x1b2>
  101a20:	2a00      	cmp	r2, #0
  101a22:	d1f3      	bne.n	101a0c <_vsscanf_minimal+0x3b4>
  101a24:	2b00      	cmp	r3, #0
  101a26:	f47f ae2a 	bne.w	10167e <_vsscanf_minimal+0x26>
  101a2a:	e638      	b.n	10169e <_vsscanf_minimal+0x46>
  101a2c:	2b2c      	cmp	r3, #44	; 0x2c
  101a2e:	d1d9      	bne.n	1019e4 <_vsscanf_minimal+0x38c>
  101a30:	e7e7      	b.n	101a02 <_vsscanf_minimal+0x3aa>
  101a32:	f859 2b04 	ldr.w	r2, [r9], #4
  101a36:	eba5 030b 	sub.w	r3, r5, fp
  101a3a:	6013      	str	r3, [r2, #0]
  101a3c:	787b      	ldrb	r3, [r7, #1]
  101a3e:	1c7c      	adds	r4, r7, #1
  101a40:	2b00      	cmp	r3, #0
  101a42:	f47f ae1c 	bne.w	10167e <_vsscanf_minimal+0x26>
  101a46:	e62a      	b.n	10169e <_vsscanf_minimal+0x46>
  101a48:	4b28      	ldr	r3, [pc, #160]	; (101aec <_vsscanf_minimal+0x494>)
  101a4a:	a905      	add	r1, sp, #20
  101a4c:	4798      	blx	r3
  101a4e:	2300      	movs	r3, #0
  101a50:	9006      	str	r0, [sp, #24]
  101a52:	9307      	str	r3, [sp, #28]
  101a54:	e72e      	b.n	1018b4 <_vsscanf_minimal+0x25c>
  101a56:	2809      	cmp	r0, #9
  101a58:	f67f af10 	bls.w	10187c <_vsscanf_minimal+0x224>
  101a5c:	f022 0220 	bic.w	r2, r2, #32
  101a60:	3a41      	subs	r2, #65	; 0x41
  101a62:	2a05      	cmp	r2, #5
  101a64:	f63f ae1b 	bhi.w	10169e <_vsscanf_minimal+0x46>
  101a68:	e708      	b.n	10187c <_vsscanf_minimal+0x224>
  101a6a:	2807      	cmp	r0, #7
  101a6c:	f67f af06 	bls.w	10187c <_vsscanf_minimal+0x224>
  101a70:	e615      	b.n	10169e <_vsscanf_minimal+0x46>
  101a72:	4628      	mov	r0, r5
  101a74:	e9cd 1201 	strd	r1, r2, [sp, #4]
  101a78:	f7ff fd9c 	bl	1015b4 <judge_digit_width>
  101a7c:	e9dd 1201 	ldrd	r1, r2, [sp, #4]
  101a80:	b203      	sxth	r3, r0
  101a82:	e6ea      	b.n	10185a <_vsscanf_minimal+0x202>
  101a84:	2a25      	cmp	r2, #37	; 0x25
  101a86:	f47f ae0a 	bne.w	10169e <_vsscanf_minimal+0x46>
  101a8a:	787b      	ldrb	r3, [r7, #1]
  101a8c:	3501      	adds	r5, #1
  101a8e:	2b00      	cmp	r3, #0
  101a90:	f47f adf5 	bne.w	10167e <_vsscanf_minimal+0x26>
  101a94:	e603      	b.n	10169e <_vsscanf_minimal+0x46>
  101a96:	1c5a      	adds	r2, r3, #1
  101a98:	f105 0001 	add.w	r0, r5, #1
  101a9c:	d014      	beq.n	101ac8 <_vsscanf_minimal+0x470>
  101a9e:	e9cd 1301 	strd	r1, r3, [sp, #4]
  101aa2:	f7ff fd87 	bl	1015b4 <judge_digit_width>
  101aa6:	9b02      	ldr	r3, [sp, #8]
  101aa8:	1c42      	adds	r2, r0, #1
  101aaa:	429a      	cmp	r2, r3
  101aac:	b212      	sxth	r2, r2
  101aae:	bfb8      	it	lt
  101ab0:	4613      	movlt	r3, r2
  101ab2:	9901      	ldr	r1, [sp, #4]
  101ab4:	786a      	ldrb	r2, [r5, #1]
  101ab6:	e6d0      	b.n	10185a <_vsscanf_minimal+0x202>
  101ab8:	2110      	movs	r1, #16
  101aba:	f04f 0a00 	mov.w	sl, #0
  101abe:	e6ae      	b.n	10181e <_vsscanf_minimal+0x1c6>
  101ac0:	2108      	movs	r1, #8
  101ac2:	f04f 0a00 	mov.w	sl, #0
  101ac6:	e6aa      	b.n	10181e <_vsscanf_minimal+0x1c6>
  101ac8:	9101      	str	r1, [sp, #4]
  101aca:	f7ff fd73 	bl	1015b4 <judge_digit_width>
  101ace:	1c43      	adds	r3, r0, #1
  101ad0:	9901      	ldr	r1, [sp, #4]
  101ad2:	b21b      	sxth	r3, r3
  101ad4:	e7ee      	b.n	101ab4 <_vsscanf_minimal+0x45c>
  101ad6:	442b      	add	r3, r5
  101ad8:	9301      	str	r3, [sp, #4]
  101ada:	ad08      	add	r5, sp, #32
  101adc:	e6de      	b.n	10189c <_vsscanf_minimal+0x244>
  101ade:	4698      	mov	r8, r3
  101ae0:	e5dd      	b.n	10169e <_vsscanf_minimal+0x46>
  101ae2:	bf00      	nop
  101ae4:	00101cf5 	.word	0x00101cf5
  101ae8:	00101365 	.word	0x00101365
  101aec:	00101e0d 	.word	0x00101e0d

00101af0 <_sscanf_ss>:
  101af0:	b40e      	push	{r1, r2, r3}
  101af2:	b500      	push	{lr}
  101af4:	b082      	sub	sp, #8
  101af6:	aa03      	add	r2, sp, #12
  101af8:	f852 1b04 	ldr.w	r1, [r2], #4
  101afc:	9201      	str	r2, [sp, #4]
  101afe:	f7ff fdab 	bl	101658 <_vsscanf_minimal>
  101b02:	b002      	add	sp, #8
  101b04:	f85d eb04 	ldr.w	lr, [sp], #4
  101b08:	b003      	add	sp, #12
  101b0a:	4770      	bx	lr

00101b0c <_strcmp>:
  101b0c:	b508      	push	{r3, lr}
  101b0e:	ea40 0301 	orr.w	r3, r0, r1
  101b12:	079b      	lsls	r3, r3, #30
  101b14:	d11a      	bne.n	101b4c <_strcmp+0x40>
  101b16:	6803      	ldr	r3, [r0, #0]
  101b18:	680a      	ldr	r2, [r1, #0]
  101b1a:	4293      	cmp	r3, r2
  101b1c:	d116      	bne.n	101b4c <_strcmp+0x40>
  101b1e:	f100 0e04 	add.w	lr, r0, #4
  101b22:	f101 0c04 	add.w	ip, r1, #4
  101b26:	e008      	b.n	101b3a <_strcmp+0x2e>
  101b28:	4661      	mov	r1, ip
  101b2a:	4670      	mov	r0, lr
  101b2c:	680a      	ldr	r2, [r1, #0]
  101b2e:	f85e 3b04 	ldr.w	r3, [lr], #4
  101b32:	f10c 0c04 	add.w	ip, ip, #4
  101b36:	4293      	cmp	r3, r2
  101b38:	d108      	bne.n	101b4c <_strcmp+0x40>
  101b3a:	f1a3 3201 	sub.w	r2, r3, #16843009	; 0x1010101
  101b3e:	ea22 0303 	bic.w	r3, r2, r3
  101b42:	f013 3f80 	tst.w	r3, #2155905152	; 0x80808080
  101b46:	d0ef      	beq.n	101b28 <_strcmp+0x1c>
  101b48:	2000      	movs	r0, #0
  101b4a:	bd08      	pop	{r3, pc}
  101b4c:	7803      	ldrb	r3, [r0, #0]
  101b4e:	460a      	mov	r2, r1
  101b50:	b91b      	cbnz	r3, 101b5a <_strcmp+0x4e>
  101b52:	e00d      	b.n	101b70 <_strcmp+0x64>
  101b54:	f810 3f01 	ldrb.w	r3, [r0, #1]!
  101b58:	b133      	cbz	r3, 101b68 <_strcmp+0x5c>
  101b5a:	4694      	mov	ip, r2
  101b5c:	f812 1b01 	ldrb.w	r1, [r2], #1
  101b60:	4299      	cmp	r1, r3
  101b62:	d0f7      	beq.n	101b54 <_strcmp+0x48>
  101b64:	1a58      	subs	r0, r3, r1
  101b66:	bd08      	pop	{r3, pc}
  101b68:	f89c 1001 	ldrb.w	r1, [ip, #1]
  101b6c:	1a58      	subs	r0, r3, r1
  101b6e:	e7fa      	b.n	101b66 <_strcmp+0x5a>
  101b70:	7809      	ldrb	r1, [r1, #0]
  101b72:	e7f7      	b.n	101b64 <_strcmp+0x58>

00101b74 <_strcpy>:
  101b74:	b508      	push	{r3, lr}
  101b76:	ea40 0301 	orr.w	r3, r0, r1
  101b7a:	079b      	lsls	r3, r3, #30
  101b7c:	d117      	bne.n	101bae <_strcpy+0x3a>
  101b7e:	680a      	ldr	r2, [r1, #0]
  101b80:	f1a2 3301 	sub.w	r3, r2, #16843009	; 0x1010101
  101b84:	ea23 0302 	bic.w	r3, r3, r2
  101b88:	f013 3f80 	tst.w	r3, #2155905152	; 0x80808080
  101b8c:	d10f      	bne.n	101bae <_strcpy+0x3a>
  101b8e:	4603      	mov	r3, r0
  101b90:	f101 0e04 	add.w	lr, r1, #4
  101b94:	f843 2b04 	str.w	r2, [r3], #4
  101b98:	4671      	mov	r1, lr
  101b9a:	f85e 2b04 	ldr.w	r2, [lr], #4
  101b9e:	f1a2 3c01 	sub.w	ip, r2, #16843009	; 0x1010101
  101ba2:	ea2c 0c02 	bic.w	ip, ip, r2
  101ba6:	f01c 3f80 	tst.w	ip, #2155905152	; 0x80808080
  101baa:	d0f3      	beq.n	101b94 <_strcpy+0x20>
  101bac:	e000      	b.n	101bb0 <_strcpy+0x3c>
  101bae:	4603      	mov	r3, r0
  101bb0:	3b01      	subs	r3, #1
  101bb2:	f811 2b01 	ldrb.w	r2, [r1], #1
  101bb6:	f803 2f01 	strb.w	r2, [r3, #1]!
  101bba:	2a00      	cmp	r2, #0
  101bbc:	d1f9      	bne.n	101bb2 <_strcpy+0x3e>
  101bbe:	bd08      	pop	{r3, pc}

00101bc0 <_stricmp>:
  101bc0:	f810 3b01 	ldrb.w	r3, [r0], #1
  101bc4:	f811 2b01 	ldrb.w	r2, [r1], #1
  101bc8:	4293      	cmp	r3, r2
  101bca:	d01c      	beq.n	101c06 <_stricmp+0x46>
  101bcc:	f043 0c20 	orr.w	ip, r3, #32
  101bd0:	b510      	push	{r4, lr}
  101bd2:	f1ac 0e61 	sub.w	lr, ip, #97	; 0x61
  101bd6:	f1be 0f19 	cmp.w	lr, #25
  101bda:	d812      	bhi.n	101c02 <_stricmp+0x42>
  101bdc:	f042 0420 	orr.w	r4, r2, #32
  101be0:	45a4      	cmp	ip, r4
  101be2:	d10e      	bne.n	101c02 <_stricmp+0x42>
  101be4:	b1a3      	cbz	r3, 101c10 <_stricmp+0x50>
  101be6:	b1aa      	cbz	r2, 101c14 <_stricmp+0x54>
  101be8:	f810 3b01 	ldrb.w	r3, [r0], #1
  101bec:	f811 2b01 	ldrb.w	r2, [r1], #1
  101bf0:	4293      	cmp	r3, r2
  101bf2:	d0f7      	beq.n	101be4 <_stricmp+0x24>
  101bf4:	f043 0c20 	orr.w	ip, r3, #32
  101bf8:	f1ac 0e61 	sub.w	lr, ip, #97	; 0x61
  101bfc:	f1be 0f19 	cmp.w	lr, #25
  101c00:	d9ec      	bls.n	101bdc <_stricmp+0x1c>
  101c02:	2001      	movs	r0, #1
  101c04:	bd10      	pop	{r4, pc}
  101c06:	b13b      	cbz	r3, 101c18 <_stricmp+0x58>
  101c08:	2a00      	cmp	r2, #0
  101c0a:	d1d9      	bne.n	101bc0 <_stricmp>
  101c0c:	4610      	mov	r0, r2
  101c0e:	4770      	bx	lr
  101c10:	4618      	mov	r0, r3
  101c12:	bd10      	pop	{r4, pc}
  101c14:	4610      	mov	r0, r2
  101c16:	bd10      	pop	{r4, pc}
  101c18:	4618      	mov	r0, r3
  101c1a:	4770      	bx	lr

00101c1c <_strlen>:
  101c1c:	0781      	lsls	r1, r0, #30
  101c1e:	4603      	mov	r3, r0
  101c20:	d009      	beq.n	101c36 <_strlen+0x1a>
  101c22:	e001      	b.n	101c28 <_strlen+0xc>
  101c24:	079a      	lsls	r2, r3, #30
  101c26:	d006      	beq.n	101c36 <_strlen+0x1a>
  101c28:	461a      	mov	r2, r3
  101c2a:	7811      	ldrb	r1, [r2, #0]
  101c2c:	3301      	adds	r3, #1
  101c2e:	2900      	cmp	r1, #0
  101c30:	d1f8      	bne.n	101c24 <_strlen+0x8>
  101c32:	1a10      	subs	r0, r2, r0
  101c34:	4770      	bx	lr
  101c36:	6819      	ldr	r1, [r3, #0]
  101c38:	f1a1 3201 	sub.w	r2, r1, #16843009	; 0x1010101
  101c3c:	ea22 0201 	bic.w	r2, r2, r1
  101c40:	f012 3f80 	tst.w	r2, #2155905152	; 0x80808080
  101c44:	d108      	bne.n	101c58 <_strlen+0x3c>
  101c46:	f853 1f04 	ldr.w	r1, [r3, #4]!
  101c4a:	f1a1 3201 	sub.w	r2, r1, #16843009	; 0x1010101
  101c4e:	ea22 0201 	bic.w	r2, r2, r1
  101c52:	f012 3f80 	tst.w	r2, #2155905152	; 0x80808080
  101c56:	d0f6      	beq.n	101c46 <_strlen+0x2a>
  101c58:	781a      	ldrb	r2, [r3, #0]
  101c5a:	b11a      	cbz	r2, 101c64 <_strlen+0x48>
  101c5c:	f813 2f01 	ldrb.w	r2, [r3, #1]!
  101c60:	2a00      	cmp	r2, #0
  101c62:	d1fb      	bne.n	101c5c <_strlen+0x40>
  101c64:	1a18      	subs	r0, r3, r0
  101c66:	4770      	bx	lr

00101c68 <_strncpy>:
  101c68:	b538      	push	{r3, r4, r5, lr}
  101c6a:	ea40 0301 	orr.w	r3, r0, r1
  101c6e:	079b      	lsls	r3, r3, #30
  101c70:	4604      	mov	r4, r0
  101c72:	d101      	bne.n	101c78 <_strncpy+0x10>
  101c74:	2a03      	cmp	r2, #3
  101c76:	d81e      	bhi.n	101cb6 <_strncpy+0x4e>
  101c78:	f101 3cff 	add.w	ip, r1, #4294967295	; 0xffffffff
  101c7c:	f102 0e01 	add.w	lr, r2, #1
  101c80:	e008      	b.n	101c94 <_strncpy+0x2c>
  101c82:	4623      	mov	r3, r4
  101c84:	f81c 1f01 	ldrb.w	r1, [ip, #1]!
  101c88:	1e55      	subs	r5, r2, #1
  101c8a:	f803 1b01 	strb.w	r1, [r3], #1
  101c8e:	b129      	cbz	r1, 101c9c <_strncpy+0x34>
  101c90:	461c      	mov	r4, r3
  101c92:	462a      	mov	r2, r5
  101c94:	f1be 0e01 	subs.w	lr, lr, #1
  101c98:	d1f3      	bne.n	101c82 <_strncpy+0x1a>
  101c9a:	bd38      	pop	{r3, r4, r5, pc}
  101c9c:	eb04 0e02 	add.w	lr, r4, r2
  101ca0:	2d00      	cmp	r5, #0
  101ca2:	d0fa      	beq.n	101c9a <_strncpy+0x32>
  101ca4:	ebae 0e03 	sub.w	lr, lr, r3
  101ca8:	f04e e001 	dls	lr, lr
  101cac:	f803 1b01 	strb.w	r1, [r3], #1
  101cb0:	f00f c005 	le	lr, 101cac <_strncpy+0x44>
  101cb4:	bd38      	pop	{r3, r4, r5, pc}
  101cb6:	f1a2 0c04 	sub.w	ip, r2, #4
  101cba:	ea4f 0c9c 	mov.w	ip, ip, lsr #2
  101cbe:	468e      	mov	lr, r1
  101cc0:	f10c 0c01 	add.w	ip, ip, #1
  101cc4:	e006      	b.n	101cd4 <_strncpy+0x6c>
  101cc6:	f1bc 0c01 	subs.w	ip, ip, #1
  101cca:	f844 5b04 	str.w	r5, [r4], #4
  101cce:	f1a2 0204 	sub.w	r2, r2, #4
  101cd2:	d00c      	beq.n	101cee <_strncpy+0x86>
  101cd4:	f8de 5000 	ldr.w	r5, [lr]
  101cd8:	4671      	mov	r1, lr
  101cda:	f1a5 3301 	sub.w	r3, r5, #16843009	; 0x1010101
  101cde:	ea23 0305 	bic.w	r3, r3, r5
  101ce2:	f013 3f80 	tst.w	r3, #2155905152	; 0x80808080
  101ce6:	f10e 0e04 	add.w	lr, lr, #4
  101cea:	d0ec      	beq.n	101cc6 <_strncpy+0x5e>
  101cec:	e7c4      	b.n	101c78 <_strncpy+0x10>
  101cee:	4671      	mov	r1, lr
  101cf0:	e7c2      	b.n	101c78 <_strncpy+0x10>
  101cf2:	bf00      	nop

00101cf4 <_strtol>:
  101cf4:	e92d 4ff8 	stmdb	sp!, {r3, r4, r5, r6, r7, r8, r9, sl, fp, lr}
  101cf8:	4607      	mov	r7, r0
  101cfa:	4686      	mov	lr, r0
  101cfc:	f81e 3b01 	ldrb.w	r3, [lr], #1
  101d00:	2b20      	cmp	r3, #32
  101d02:	d03e      	beq.n	101d82 <_strtol+0x8e>
  101d04:	2b0d      	cmp	r3, #13
  101d06:	d83a      	bhi.n	101d7e <_strtol+0x8a>
  101d08:	2b08      	cmp	r3, #8
  101d0a:	d83a      	bhi.n	101d82 <_strtol+0x8e>
  101d0c:	f06f 4800 	mvn.w	r8, #2147483648	; 0x80000000
  101d10:	f04f 0a00 	mov.w	sl, #0
  101d14:	2b2b      	cmp	r3, #43	; 0x2b
  101d16:	bf04      	itt	eq
  101d18:	7843      	ldrbeq	r3, [r0, #1]
  101d1a:	f100 0e02 	addeq.w	lr, r0, #2
  101d1e:	bb92      	cbnz	r2, 101d86 <_strtol+0x92>
  101d20:	2b30      	cmp	r3, #48	; 0x30
  101d22:	d05a      	beq.n	101dda <_strtol+0xe6>
  101d24:	220a      	movs	r2, #10
  101d26:	4616      	mov	r6, r2
  101d28:	2400      	movs	r4, #0
  101d2a:	fbb8 f5f6 	udiv	r5, r8, r6
  101d2e:	4620      	mov	r0, r4
  101d30:	fb06 8915 	mls	r9, r6, r5, r8
  101d34:	e005      	b.n	101d42 <_strtol+0x4e>
  101d36:	d03b      	beq.n	101db0 <_strtol+0xbc>
  101d38:	2401      	movs	r4, #1
  101d3a:	fb06 c000 	mla	r0, r6, r0, ip
  101d3e:	f81e 3b01 	ldrb.w	r3, [lr], #1
  101d42:	f1a3 0c30 	sub.w	ip, r3, #48	; 0x30
  101d46:	fa5f fb8c 	uxtb.w	fp, ip
  101d4a:	f1bb 0f09 	cmp.w	fp, #9
  101d4e:	d90d      	bls.n	101d6c <_strtol+0x78>
  101d50:	f1a3 0c41 	sub.w	ip, r3, #65	; 0x41
  101d54:	f1bc 0f19 	cmp.w	ip, #25
  101d58:	d927      	bls.n	101daa <_strtol+0xb6>
  101d5a:	f1a3 0c61 	sub.w	ip, r3, #97	; 0x61
  101d5e:	f1bc 0f19 	cmp.w	ip, #25
  101d62:	d82a      	bhi.n	101dba <_strtol+0xc6>
  101d64:	f04f 0c57 	mov.w	ip, #87	; 0x57
  101d68:	eba3 0c0c 	sub.w	ip, r3, ip
  101d6c:	4562      	cmp	r2, ip
  101d6e:	dd24      	ble.n	101dba <_strtol+0xc6>
  101d70:	1c63      	adds	r3, r4, #1
  101d72:	d0e4      	beq.n	101d3e <_strtol+0x4a>
  101d74:	42a8      	cmp	r0, r5
  101d76:	d9de      	bls.n	101d36 <_strtol+0x42>
  101d78:	f04f 34ff 	mov.w	r4, #4294967295	; 0xffffffff
  101d7c:	e7df      	b.n	101d3e <_strtol+0x4a>
  101d7e:	2b2c      	cmp	r3, #44	; 0x2c
  101d80:	d139      	bne.n	101df6 <_strtol+0x102>
  101d82:	4670      	mov	r0, lr
  101d84:	e7b9      	b.n	101cfa <_strtol+0x6>
  101d86:	2a10      	cmp	r2, #16
  101d88:	4616      	mov	r6, r2
  101d8a:	d1cd      	bne.n	101d28 <_strtol+0x34>
  101d8c:	2b30      	cmp	r3, #48	; 0x30
  101d8e:	d1cb      	bne.n	101d28 <_strtol+0x34>
  101d90:	f89e 0000 	ldrb.w	r0, [lr]
  101d94:	f000 00df 	and.w	r0, r0, #223	; 0xdf
  101d98:	2858      	cmp	r0, #88	; 0x58
  101d9a:	d1c5      	bne.n	101d28 <_strtol+0x34>
  101d9c:	2610      	movs	r6, #16
  101d9e:	f89e 3001 	ldrb.w	r3, [lr, #1]
  101da2:	4632      	mov	r2, r6
  101da4:	f10e 0e02 	add.w	lr, lr, #2
  101da8:	e7be      	b.n	101d28 <_strtol+0x34>
  101daa:	f04f 0c37 	mov.w	ip, #55	; 0x37
  101dae:	e7db      	b.n	101d68 <_strtol+0x74>
  101db0:	45cc      	cmp	ip, r9
  101db2:	ddc1      	ble.n	101d38 <_strtol+0x44>
  101db4:	f04f 34ff 	mov.w	r4, #4294967295	; 0xffffffff
  101db8:	e7c1      	b.n	101d3e <_strtol+0x4a>
  101dba:	1c63      	adds	r3, r4, #1
  101dbc:	d008      	beq.n	101dd0 <_strtol+0xdc>
  101dbe:	f1ba 0f00 	cmp.w	sl, #0
  101dc2:	ea50 b000 			; <UNDEFINED> instruction: 0xea50b000
  101dc6:	b109      	cbz	r1, 101dcc <_strtol+0xd8>
  101dc8:	b99c      	cbnz	r4, 101df2 <_strtol+0xfe>
  101dca:	600f      	str	r7, [r1, #0]
  101dcc:	e8bd 8ff8 	ldmia.w	sp!, {r3, r4, r5, r6, r7, r8, r9, sl, fp, pc}
  101dd0:	b161      	cbz	r1, 101dec <_strtol+0xf8>
  101dd2:	4640      	mov	r0, r8
  101dd4:	f10e 37ff 	add.w	r7, lr, #4294967295	; 0xffffffff
  101dd8:	e7f7      	b.n	101dca <_strtol+0xd6>
  101dda:	f89e 2000 	ldrb.w	r2, [lr]
  101dde:	f002 02df 	and.w	r2, r2, #223	; 0xdf
  101de2:	2a58      	cmp	r2, #88	; 0x58
  101de4:	d0da      	beq.n	101d9c <_strtol+0xa8>
  101de6:	2208      	movs	r2, #8
  101de8:	4616      	mov	r6, r2
  101dea:	e79d      	b.n	101d28 <_strtol+0x34>
  101dec:	4640      	mov	r0, r8
  101dee:	e8bd 8ff8 	ldmia.w	sp!, {r3, r4, r5, r6, r7, r8, r9, sl, fp, pc}
  101df2:	4680      	mov	r8, r0
  101df4:	e7ed      	b.n	101dd2 <_strtol+0xde>
  101df6:	2b2d      	cmp	r3, #45	; 0x2d
  101df8:	d188      	bne.n	101d0c <_strtol+0x18>
  101dfa:	f04f 4800 	mov.w	r8, #2147483648	; 0x80000000
  101dfe:	f04f 0a01 	mov.w	sl, #1
  101e02:	7843      	ldrb	r3, [r0, #1]
  101e04:	f100 0e02 	add.w	lr, r0, #2
  101e08:	e789      	b.n	101d1e <_strtol+0x2a>
  101e0a:	bf00      	nop

00101e0c <_strtoul>:
  101e0c:	e92d 47f0 	stmdb	sp!, {r4, r5, r6, r7, r8, r9, sl, lr}
  101e10:	4684      	mov	ip, r0
  101e12:	4606      	mov	r6, r0
  101e14:	46e6      	mov	lr, ip
  101e16:	f81e 3b01 	ldrb.w	r3, [lr], #1
  101e1a:	2b20      	cmp	r3, #32
  101e1c:	d03c      	beq.n	101e98 <_strtoul+0x8c>
  101e1e:	2b0d      	cmp	r3, #13
  101e20:	d838      	bhi.n	101e94 <_strtoul+0x88>
  101e22:	2b08      	cmp	r3, #8
  101e24:	d838      	bhi.n	101e98 <_strtoul+0x8c>
  101e26:	f04f 0900 	mov.w	r9, #0
  101e2a:	2b2b      	cmp	r3, #43	; 0x2b
  101e2c:	bf04      	itt	eq
  101e2e:	f89c 3001 	ldrbeq.w	r3, [ip, #1]
  101e32:	f10c 0e02 	addeq.w	lr, ip, #2
  101e36:	bb8a      	cbnz	r2, 101e9c <_strtoul+0x90>
  101e38:	2b30      	cmp	r3, #48	; 0x30
  101e3a:	d054      	beq.n	101ee6 <_strtoul+0xda>
  101e3c:	220a      	movs	r2, #10
  101e3e:	f04f 0805 	mov.w	r8, #5
  101e42:	4617      	mov	r7, r2
  101e44:	4d40      	ldr	r5, [pc, #256]	; (101f48 <_strtoul+0x13c>)
  101e46:	2400      	movs	r4, #0
  101e48:	4620      	mov	r0, r4
  101e4a:	e005      	b.n	101e58 <_strtoul+0x4c>
  101e4c:	d035      	beq.n	101eba <_strtoul+0xae>
  101e4e:	2401      	movs	r4, #1
  101e50:	fb07 c000 	mla	r0, r7, r0, ip
  101e54:	f81e 3b01 	ldrb.w	r3, [lr], #1
  101e58:	f1a3 0c30 	sub.w	ip, r3, #48	; 0x30
  101e5c:	fa5f fa8c 	uxtb.w	sl, ip
  101e60:	f1ba 0f09 	cmp.w	sl, #9
  101e64:	d90d      	bls.n	101e82 <_strtoul+0x76>
  101e66:	f1a3 0c41 	sub.w	ip, r3, #65	; 0x41
  101e6a:	f1bc 0f19 	cmp.w	ip, #25
  101e6e:	d921      	bls.n	101eb4 <_strtoul+0xa8>
  101e70:	f1a3 0c61 	sub.w	ip, r3, #97	; 0x61
  101e74:	f1bc 0f19 	cmp.w	ip, #25
  101e78:	d824      	bhi.n	101ec4 <_strtoul+0xb8>
  101e7a:	f04f 0c57 	mov.w	ip, #87	; 0x57
  101e7e:	eba3 0c0c 	sub.w	ip, r3, ip
  101e82:	4562      	cmp	r2, ip
  101e84:	dd1e      	ble.n	101ec4 <_strtoul+0xb8>
  101e86:	1c63      	adds	r3, r4, #1
  101e88:	d0e4      	beq.n	101e54 <_strtoul+0x48>
  101e8a:	42a8      	cmp	r0, r5
  101e8c:	d9de      	bls.n	101e4c <_strtoul+0x40>
  101e8e:	f04f 34ff 	mov.w	r4, #4294967295	; 0xffffffff
  101e92:	e7df      	b.n	101e54 <_strtoul+0x48>
  101e94:	2b2c      	cmp	r3, #44	; 0x2c
  101e96:	d14c      	bne.n	101f32 <_strtoul+0x126>
  101e98:	46f4      	mov	ip, lr
  101e9a:	e7bb      	b.n	101e14 <_strtoul+0x8>
  101e9c:	2a10      	cmp	r2, #16
  101e9e:	d02f      	beq.n	101f00 <_strtoul+0xf4>
  101ea0:	f04f 35ff 	mov.w	r5, #4294967295	; 0xffffffff
  101ea4:	fbb5 f5f2 	udiv	r5, r5, r2
  101ea8:	fb02 f805 	mul.w	r8, r2, r5
  101eac:	4617      	mov	r7, r2
  101eae:	ea6f 0808 	mvn.w	r8, r8
  101eb2:	e7c8      	b.n	101e46 <_strtoul+0x3a>
  101eb4:	f04f 0c37 	mov.w	ip, #55	; 0x37
  101eb8:	e7e1      	b.n	101e7e <_strtoul+0x72>
  101eba:	45c4      	cmp	ip, r8
  101ebc:	ddc7      	ble.n	101e4e <_strtoul+0x42>
  101ebe:	f04f 34ff 	mov.w	r4, #4294967295	; 0xffffffff
  101ec2:	e7c7      	b.n	101e54 <_strtoul+0x48>
  101ec4:	1c63      	adds	r3, r4, #1
  101ec6:	d008      	beq.n	101eda <_strtoul+0xce>
  101ec8:	f1b9 0f00 	cmp.w	r9, #0
  101ecc:	ea50 b000 			; <UNDEFINED> instruction: 0xea50b000
  101ed0:	b109      	cbz	r1, 101ed6 <_strtoul+0xca>
  101ed2:	b92c      	cbnz	r4, 101ee0 <_strtoul+0xd4>
  101ed4:	600e      	str	r6, [r1, #0]
  101ed6:	e8bd 87f0 	ldmia.w	sp!, {r4, r5, r6, r7, r8, r9, sl, pc}
  101eda:	4620      	mov	r0, r4
  101edc:	2900      	cmp	r1, #0
  101ede:	d0fa      	beq.n	101ed6 <_strtoul+0xca>
  101ee0:	f10e 36ff 	add.w	r6, lr, #4294967295	; 0xffffffff
  101ee4:	e7f6      	b.n	101ed4 <_strtoul+0xc8>
  101ee6:	f89e 2000 	ldrb.w	r2, [lr]
  101eea:	f002 02df 	and.w	r2, r2, #223	; 0xdf
  101eee:	2a58      	cmp	r2, #88	; 0x58
  101ef0:	d014      	beq.n	101f1c <_strtoul+0x110>
  101ef2:	2208      	movs	r2, #8
  101ef4:	f04f 0807 	mov.w	r8, #7
  101ef8:	f06f 4560 	mvn.w	r5, #3758096384	; 0xe0000000
  101efc:	4617      	mov	r7, r2
  101efe:	e7a2      	b.n	101e46 <_strtoul+0x3a>
  101f00:	2b30      	cmp	r3, #48	; 0x30
  101f02:	d005      	beq.n	101f10 <_strtoul+0x104>
  101f04:	f04f 080f 	mov.w	r8, #15
  101f08:	f06f 4570 	mvn.w	r5, #4026531840	; 0xf0000000
  101f0c:	4617      	mov	r7, r2
  101f0e:	e79a      	b.n	101e46 <_strtoul+0x3a>
  101f10:	f89e 0000 	ldrb.w	r0, [lr]
  101f14:	f000 00df 	and.w	r0, r0, #223	; 0xdf
  101f18:	2858      	cmp	r0, #88	; 0x58
  101f1a:	d1f3      	bne.n	101f04 <_strtoul+0xf8>
  101f1c:	2710      	movs	r7, #16
  101f1e:	f89e 3001 	ldrb.w	r3, [lr, #1]
  101f22:	f04f 080f 	mov.w	r8, #15
  101f26:	f06f 4570 	mvn.w	r5, #4026531840	; 0xf0000000
  101f2a:	463a      	mov	r2, r7
  101f2c:	f10e 0e02 	add.w	lr, lr, #2
  101f30:	e789      	b.n	101e46 <_strtoul+0x3a>
  101f32:	2b2d      	cmp	r3, #45	; 0x2d
  101f34:	f47f af77 	bne.w	101e26 <_strtoul+0x1a>
  101f38:	f04f 0901 	mov.w	r9, #1
  101f3c:	f89c 3001 	ldrb.w	r3, [ip, #1]
  101f40:	f10c 0e02 	add.w	lr, ip, #2
  101f44:	e777      	b.n	101e36 <_strtoul+0x2a>
  101f46:	bf00      	nop
  101f48:	19999999 	.word	0x19999999

00101f4c <_strupr>:
  101f4c:	7803      	ldrb	r3, [r0, #0]
  101f4e:	b153      	cbz	r3, 101f66 <_strupr+0x1a>
  101f50:	4602      	mov	r2, r0
  101f52:	f1a3 0161 	sub.w	r1, r3, #97	; 0x61
  101f56:	2919      	cmp	r1, #25
  101f58:	bf9c      	itt	ls
  101f5a:	3b20      	subls	r3, #32
  101f5c:	7013      	strbls	r3, [r2, #0]
  101f5e:	f812 3f01 	ldrb.w	r3, [r2, #1]!
  101f62:	2b00      	cmp	r3, #0
  101f64:	d1f5      	bne.n	101f52 <_strupr+0x6>
  101f66:	4770      	bx	lr

00101f68 <__wrap_memset>:
  101f68:	4b00      	ldr	r3, [pc, #0]	; (101f6c <__wrap_memset+0x4>)
  101f6a:	4718      	bx	r3
  101f6c:	001014f9 	.word	0x001014f9

00101f70 <__wrap_memcpy>:
  101f70:	4b00      	ldr	r3, [pc, #0]	; (101f74 <__wrap_memcpy+0x4>)
  101f72:	4718      	bx	r3
  101f74:	00101365 	.word	0x00101365

00101f78 <__wrap_memcmp>:
  101f78:	4b00      	ldr	r3, [pc, #0]	; (101f7c <__wrap_memcmp+0x4>)
  101f7a:	4718      	bx	r3
  101f7c:	001012f9 	.word	0x001012f9

00101f80 <__wrap_memchr>:
  101f80:	4b00      	ldr	r3, [pc, #0]	; (101f84 <__wrap_memchr+0x4>)
  101f82:	4718      	bx	r3
  101f84:	00101271 	.word	0x00101271

00101f88 <__wrap_memmove>:
  101f88:	4b00      	ldr	r3, [pc, #0]	; (101f8c <__wrap_memmove+0x4>)
  101f8a:	4718      	bx	r3
  101f8c:	0010140d 	.word	0x0010140d

00101f90 <__wrap_strlen>:
  101f90:	4b00      	ldr	r3, [pc, #0]	; (101f94 <__wrap_strlen+0x4>)
  101f92:	4718      	bx	r3
  101f94:	00101c1d 	.word	0x00101c1d

00101f98 <__wrap_strcmp>:
  101f98:	4b00      	ldr	r3, [pc, #0]	; (101f9c <__wrap_strcmp+0x4>)
  101f9a:	4718      	bx	r3
  101f9c:	00101b0d 	.word	0x00101b0d

00101fa0 <__wrap_stricmp>:
  101fa0:	4b00      	ldr	r3, [pc, #0]	; (101fa4 <__wrap_stricmp+0x4>)
  101fa2:	4718      	bx	r3
  101fa4:	00101bc1 	.word	0x00101bc1

00101fa8 <__wrap_strupr>:
  101fa8:	4b00      	ldr	r3, [pc, #0]	; (101fac <__wrap_strupr+0x4>)
  101faa:	4718      	bx	r3
  101fac:	00101f4d 	.word	0x00101f4d

00101fb0 <__wrap_strncpy>:
  101fb0:	4b00      	ldr	r3, [pc, #0]	; (101fb4 <__wrap_strncpy+0x4>)
  101fb2:	4718      	bx	r3
  101fb4:	00101c69 	.word	0x00101c69

00101fb8 <__wrap_strtoul>:
  101fb8:	4b00      	ldr	r3, [pc, #0]	; (101fbc <__wrap_strtoul+0x4>)
  101fba:	4718      	bx	r3
  101fbc:	00101e0d 	.word	0x00101e0d

00101fc0 <__wrap_strcpy>:
  101fc0:	4b00      	ldr	r3, [pc, #0]	; (101fc4 <__wrap_strcpy+0x4>)
  101fc2:	4718      	bx	r3
  101fc4:	00101b75 	.word	0x00101b75

00101fc8 <__wrap_strtol>:
  101fc8:	4b00      	ldr	r3, [pc, #0]	; (101fcc <__wrap_strtol+0x4>)
  101fca:	4718      	bx	r3
  101fcc:	00101cf5 	.word	0x00101cf5

00101fd0 <__wrap_printf>:
  101fd0:	b40f      	push	{r0, r1, r2, r3}
  101fd2:	b500      	push	{lr}
  101fd4:	b083      	sub	sp, #12
  101fd6:	a904      	add	r1, sp, #16
  101fd8:	f851 0b04 	ldr.w	r0, [r1], #4
  101fdc:	9101      	str	r1, [sp, #4]
  101fde:	f008 f8fd 	bl	10a1dc <DiagVprintf>
  101fe2:	b003      	add	sp, #12
  101fe4:	f85d eb04 	ldr.w	lr, [sp], #4
  101fe8:	b004      	add	sp, #16
  101fea:	4770      	bx	lr

00101fec <__wrap_sprintf>:
  101fec:	b40e      	push	{r1, r2, r3}
  101fee:	b500      	push	{lr}
  101ff0:	b082      	sub	sp, #8
  101ff2:	aa03      	add	r2, sp, #12
  101ff4:	f852 1b04 	ldr.w	r1, [r2], #4
  101ff8:	9201      	str	r2, [sp, #4]
  101ffa:	f008 f8e9 	bl	10a1d0 <DiagVSprintf>
  101ffe:	b002      	add	sp, #8
  102000:	f85d eb04 	ldr.w	lr, [sp], #4
  102004:	b003      	add	sp, #12
  102006:	4770      	bx	lr

00102008 <AES_Get_AES_Addr>:
  102008:	4b04      	ldr	r3, [pc, #16]	; (10201c <AES_Get_AES_Addr+0x14>)
  10200a:	e843 f300 	tt	r3, r3
  10200e:	f413 0f80 	tst.w	r3, #4194304	; 0x400000
  102012:	4b03      	ldr	r3, [pc, #12]	; (102020 <AES_Get_AES_Addr+0x18>)
  102014:	4803      	ldr	r0, [pc, #12]	; (102024 <AES_Get_AES_Addr+0x1c>)
  102016:	bf18      	it	ne
  102018:	4618      	movne	r0, r3
  10201a:	4770      	bx	lr
  10201c:	0010a1e9 	.word	0x0010a1e9
  102020:	50123000 	.word	0x50123000
  102024:	40123000 	.word	0x40123000

00102028 <AES_get_km_aes_addr>:
  102028:	4b04      	ldr	r3, [pc, #16]	; (10203c <AES_get_km_aes_addr+0x14>)
  10202a:	e843 f300 	tt	r3, r3
  10202e:	f413 0f80 	tst.w	r3, #4194304	; 0x400000
  102032:	4b03      	ldr	r3, [pc, #12]	; (102040 <AES_get_km_aes_addr+0x18>)
  102034:	4803      	ldr	r0, [pc, #12]	; (102044 <AES_get_km_aes_addr+0x1c>)
  102036:	bf18      	it	ne
  102038:	4618      	movne	r0, r3
  10203a:	4770      	bx	lr
  10203c:	0010a1e9 	.word	0x0010a1e9
  102040:	50808000 	.word	0x50808000
  102044:	40808000 	.word	0x40808000

00102048 <AES_Get_DMA_Addr>:
  102048:	4b04      	ldr	r3, [pc, #16]	; (10205c <AES_Get_DMA_Addr+0x14>)
  10204a:	e843 f300 	tt	r3, r3
  10204e:	f413 0f80 	tst.w	r3, #4194304	; 0x400000
  102052:	4b03      	ldr	r3, [pc, #12]	; (102060 <AES_Get_DMA_Addr+0x18>)
  102054:	4803      	ldr	r0, [pc, #12]	; (102064 <AES_Get_DMA_Addr+0x1c>)
  102056:	bf18      	it	ne
  102058:	4618      	movne	r0, r3
  10205a:	4770      	bx	lr
  10205c:	0010a1e9 	.word	0x0010a1e9
  102060:	50125000 	.word	0x50125000
  102064:	40125000 	.word	0x40125000

00102068 <AES_Disable_SCA_Mask>:
  102068:	b508      	push	{r3, lr}
  10206a:	4b03      	ldr	r3, [pc, #12]	; (102078 <AES_Disable_SCA_Mask+0x10>)
  10206c:	4798      	blx	r3
  10206e:	6f03      	ldr	r3, [r0, #112]	; 0x70
  102070:	f423 6300 	bic.w	r3, r3, #2048	; 0x800
  102074:	6703      	str	r3, [r0, #112]	; 0x70
  102076:	bd08      	pop	{r3, pc}
  102078:	00102009 	.word	0x00102009

0010207c <AES_Enable_SCA_Mask>:
  10207c:	b508      	push	{r3, lr}
  10207e:	4b03      	ldr	r3, [pc, #12]	; (10208c <AES_Enable_SCA_Mask+0x10>)
  102080:	4798      	blx	r3
  102082:	6f03      	ldr	r3, [r0, #112]	; 0x70
  102084:	f443 6300 	orr.w	r3, r3, #2048	; 0x800
  102088:	6703      	str	r3, [r0, #112]	; 0x70
  10208a:	bd08      	pop	{r3, pc}
  10208c:	00102009 	.word	0x00102009

00102090 <AES_Set_SCA_Mask>:
  102090:	b570      	push	{r4, r5, r6, lr}
  102092:	4b08      	ldr	r3, [pc, #32]	; (1020b4 <AES_Set_SCA_Mask+0x24>)
  102094:	4798      	blx	r3
  102096:	2400      	movs	r4, #0
  102098:	4605      	mov	r5, r0
  10209a:	f7ff ffef 	bl	10207c <AES_Enable_SCA_Mask>
  10209e:	4e06      	ldr	r6, [pc, #24]	; (1020b8 <AES_Set_SCA_Mask+0x28>)
  1020a0:	47b0      	blx	r6
  1020a2:	f504 7360 	add.w	r3, r4, #896	; 0x380
  1020a6:	3401      	adds	r4, #1
  1020a8:	2c04      	cmp	r4, #4
  1020aa:	f845 0023 	str.w	r0, [r5, r3, lsl #2]
  1020ae:	d1f7      	bne.n	1020a0 <AES_Set_SCA_Mask+0x10>
  1020b0:	bd70      	pop	{r4, r5, r6, pc}
  1020b2:	bf00      	nop
  1020b4:	00102009 	.word	0x00102009
  1020b8:	0010805d 	.word	0x0010805d

001020bc <AES_DMA_Init>:
  1020bc:	b508      	push	{r3, lr}
  1020be:	4b09      	ldr	r3, [pc, #36]	; (1020e4 <AES_DMA_Init+0x28>)
  1020c0:	4798      	blx	r3
  1020c2:	f644 0301 	movw	r3, #18433	; 0x4801
  1020c6:	f240 1201 	movw	r2, #257	; 0x101
  1020ca:	6183      	str	r3, [r0, #24]
  1020cc:	f8d0 3318 	ldr.w	r3, [r0, #792]	; 0x318
  1020d0:	4313      	orrs	r3, r2
  1020d2:	f8c0 3318 	str.w	r3, [r0, #792]	; 0x318
  1020d6:	f8d0 3310 	ldr.w	r3, [r0, #784]	; 0x310
  1020da:	4313      	orrs	r3, r2
  1020dc:	f8c0 3310 	str.w	r3, [r0, #784]	; 0x310
  1020e0:	bd08      	pop	{r3, pc}
  1020e2:	bf00      	nop
  1020e4:	00102049 	.word	0x00102049

001020e8 <AES_StructInit>:
  1020e8:	2300      	movs	r3, #0
  1020ea:	2201      	movs	r2, #1
  1020ec:	6103      	str	r3, [r0, #16]
  1020ee:	e9c0 3200 	strd	r3, r2, [r0]
  1020f2:	e9c0 2302 	strd	r2, r3, [r0, #8]
  1020f6:	4770      	bx	lr

001020f8 <AES_Init>:
  1020f8:	b538      	push	{r3, r4, r5, lr}
  1020fa:	4604      	mov	r4, r0
  1020fc:	4b16      	ldr	r3, [pc, #88]	; (102158 <AES_Init+0x60>)
  1020fe:	4798      	blx	r3
  102100:	6822      	ldr	r2, [r4, #0]
  102102:	4605      	mov	r5, r0
  102104:	2a08      	cmp	r2, #8
  102106:	d903      	bls.n	102110 <AES_Init+0x18>
  102108:	217a      	movs	r1, #122	; 0x7a
  10210a:	4814      	ldr	r0, [pc, #80]	; (10215c <AES_Init+0x64>)
  10210c:	f003 f992 	bl	105434 <io_assert_failed>
  102110:	6863      	ldr	r3, [r4, #4]
  102112:	2b01      	cmp	r3, #1
  102114:	d901      	bls.n	10211a <AES_Init+0x22>
  102116:	217b      	movs	r1, #123	; 0x7b
  102118:	e7f7      	b.n	10210a <AES_Init+0x12>
  10211a:	68a1      	ldr	r1, [r4, #8]
  10211c:	ea43 0342 	orr.w	r3, r3, r2, lsl #1
  102120:	f043 0280 	orr.w	r2, r3, #128	; 0x80
  102124:	2901      	cmp	r1, #1
  102126:	bf08      	it	eq
  102128:	4613      	moveq	r3, r2
  10212a:	6922      	ldr	r2, [r4, #16]
  10212c:	2ac0      	cmp	r2, #192	; 0xc0
  10212e:	d007      	beq.n	102140 <AES_Init+0x48>
  102130:	f5b2 7f80 	cmp.w	r2, #256	; 0x100
  102134:	d00d      	beq.n	102152 <AES_Init+0x5a>
  102136:	2a80      	cmp	r2, #128	; 0x80
  102138:	d004      	beq.n	102144 <AES_Init+0x4c>
  10213a:	f04f 30ff 	mov.w	r0, #4294967295	; 0xffffffff
  10213e:	bd38      	pop	{r3, r4, r5, pc}
  102140:	f043 0320 	orr.w	r3, r3, #32
  102144:	672b      	str	r3, [r5, #112]	; 0x70
  102146:	f7ff ffa3 	bl	102090 <AES_Set_SCA_Mask>
  10214a:	68e3      	ldr	r3, [r4, #12]
  10214c:	2000      	movs	r0, #0
  10214e:	676b      	str	r3, [r5, #116]	; 0x74
  102150:	e7f5      	b.n	10213e <AES_Init+0x46>
  102152:	f043 0340 	orr.w	r3, r3, #64	; 0x40
  102156:	e7f5      	b.n	102144 <AES_Init+0x4c>
  102158:	00102009 	.word	0x00102009
  10215c:	0010c0f4 	.word	0x0010c0f4

00102160 <AES_Cmd>:
  102160:	b510      	push	{r4, lr}
  102162:	4b06      	ldr	r3, [pc, #24]	; (10217c <AES_Cmd+0x1c>)
  102164:	4604      	mov	r4, r0
  102166:	4798      	blx	r3
  102168:	6f03      	ldr	r3, [r0, #112]	; 0x70
  10216a:	2c01      	cmp	r4, #1
  10216c:	bf0c      	ite	eq
  10216e:	f443 7380 	orreq.w	r3, r3, #256	; 0x100
  102172:	f423 7380 	bicne.w	r3, r3, #256	; 0x100
  102176:	6703      	str	r3, [r0, #112]	; 0x70
  102178:	bd10      	pop	{r4, pc}
  10217a:	bf00      	nop
  10217c:	00102009 	.word	0x00102009

00102180 <AES_GetIv>:
  102180:	b510      	push	{r4, lr}
  102182:	4b06      	ldr	r3, [pc, #24]	; (10219c <AES_GetIv+0x1c>)
  102184:	4604      	mov	r4, r0
  102186:	4798      	blx	r3
  102188:	6e03      	ldr	r3, [r0, #96]	; 0x60
  10218a:	6023      	str	r3, [r4, #0]
  10218c:	6e43      	ldr	r3, [r0, #100]	; 0x64
  10218e:	6063      	str	r3, [r4, #4]
  102190:	6e83      	ldr	r3, [r0, #104]	; 0x68
  102192:	60a3      	str	r3, [r4, #8]
  102194:	6ec3      	ldr	r3, [r0, #108]	; 0x6c
  102196:	60e3      	str	r3, [r4, #12]
  102198:	bd10      	pop	{r4, pc}
  10219a:	bf00      	nop
  10219c:	00102009 	.word	0x00102009

001021a0 <AES_SetIv>:
  1021a0:	b510      	push	{r4, lr}
  1021a2:	4604      	mov	r4, r0
  1021a4:	4b05      	ldr	r3, [pc, #20]	; (1021bc <AES_SetIv+0x1c>)
  1021a6:	4798      	blx	r3
  1021a8:	6823      	ldr	r3, [r4, #0]
  1021aa:	6603      	str	r3, [r0, #96]	; 0x60
  1021ac:	6863      	ldr	r3, [r4, #4]
  1021ae:	6643      	str	r3, [r0, #100]	; 0x64
  1021b0:	68a3      	ldr	r3, [r4, #8]
  1021b2:	6683      	str	r3, [r0, #104]	; 0x68
  1021b4:	68e3      	ldr	r3, [r4, #12]
  1021b6:	66c3      	str	r3, [r0, #108]	; 0x6c
  1021b8:	bd10      	pop	{r4, pc}
  1021ba:	bf00      	nop
  1021bc:	00102009 	.word	0x00102009

001021c0 <AES_GetTag>:
  1021c0:	b530      	push	{r4, r5, lr}
  1021c2:	4b10      	ldr	r3, [pc, #64]	; (102204 <AES_GetTag+0x44>)
  1021c4:	b085      	sub	sp, #20
  1021c6:	460c      	mov	r4, r1
  1021c8:	4605      	mov	r5, r0
  1021ca:	4798      	blx	r3
  1021cc:	f8d0 3080 	ldr.w	r3, [r0, #128]	; 0x80
  1021d0:	2c10      	cmp	r4, #16
  1021d2:	9300      	str	r3, [sp, #0]
  1021d4:	f8d0 3084 	ldr.w	r3, [r0, #132]	; 0x84
  1021d8:	bf28      	it	cs
  1021da:	2410      	movcs	r4, #16
  1021dc:	9301      	str	r3, [sp, #4]
  1021de:	f8d0 3088 	ldr.w	r3, [r0, #136]	; 0x88
  1021e2:	1c61      	adds	r1, r4, #1
  1021e4:	9302      	str	r3, [sp, #8]
  1021e6:	f8d0 308c 	ldr.w	r3, [r0, #140]	; 0x8c
  1021ea:	4628      	mov	r0, r5
  1021ec:	9303      	str	r3, [sp, #12]
  1021ee:	466b      	mov	r3, sp
  1021f0:	3901      	subs	r1, #1
  1021f2:	d101      	bne.n	1021f8 <AES_GetTag+0x38>
  1021f4:	b005      	add	sp, #20
  1021f6:	bd30      	pop	{r4, r5, pc}
  1021f8:	f813 2b01 	ldrb.w	r2, [r3], #1
  1021fc:	f800 2b01 	strb.w	r2, [r0], #1
  102200:	e7f6      	b.n	1021f0 <AES_GetTag+0x30>
  102202:	bf00      	nop
  102204:	00102009 	.word	0x00102009

00102208 <AES_InitTag>:
  102208:	b508      	push	{r3, lr}
  10220a:	4b06      	ldr	r3, [pc, #24]	; (102224 <AES_InitTag+0x1c>)
  10220c:	4798      	blx	r3
  10220e:	2300      	movs	r3, #0
  102210:	f8c0 3080 	str.w	r3, [r0, #128]	; 0x80
  102214:	f8c0 3084 	str.w	r3, [r0, #132]	; 0x84
  102218:	f8c0 3088 	str.w	r3, [r0, #136]	; 0x88
  10221c:	f8c0 308c 	str.w	r3, [r0, #140]	; 0x8c
  102220:	bd08      	pop	{r3, pc}
  102222:	bf00      	nop
  102224:	00102009 	.word	0x00102009

00102228 <AES_ProcessDma>:
  102228:	e92d 4ff7 	stmdb	sp!, {r0, r1, r2, r4, r5, r6, r7, r8, r9, sl, fp, lr}
  10222c:	4bb8      	ldr	r3, [pc, #736]	; (102510 <AES_ProcessDma+0x2e8>)
  10222e:	4616      	mov	r6, r2
  102230:	460f      	mov	r7, r1
  102232:	4680      	mov	r8, r0
  102234:	4798      	blx	r3
  102236:	4bb7      	ldr	r3, [pc, #732]	; (102514 <AES_ProcessDma+0x2ec>)
  102238:	4604      	mov	r4, r0
  10223a:	4798      	blx	r3
  10223c:	4ab6      	ldr	r2, [pc, #728]	; (102518 <AES_ProcessDma+0x2f0>)
  10223e:	6f03      	ldr	r3, [r0, #112]	; 0x70
  102240:	4605      	mov	r5, r0
  102242:	f3c3 0943 	ubfx	r9, r3, #1, #4
  102246:	6953      	ldr	r3, [r2, #20]
  102248:	03d8      	lsls	r0, r3, #15
  10224a:	d52b      	bpl.n	1022a4 <AES_ProcessDma+0x7c>
  10224c:	f1b8 3fff 	cmp.w	r8, #4294967295	; 0xffffffff
  102250:	4643      	mov	r3, r8
  102252:	f040 80b7 	bne.w	1023c4 <AES_ProcessDma+0x19c>
  102256:	1c79      	adds	r1, r7, #1
  102258:	f040 80d8 	bne.w	10240c <AES_ProcessDma+0x1e4>
  10225c:	2300      	movs	r3, #0
  10225e:	f8c2 3084 	str.w	r3, [r2, #132]	; 0x84
  102262:	f3bf 8f4f 	dsb	sy
  102266:	f643 7ce0 	movw	ip, #16352	; 0x3fe0
  10226a:	f8d2 3080 	ldr.w	r3, [r2, #128]	; 0x80
  10226e:	f3c3 00c9 	ubfx	r0, r3, #3, #10
  102272:	f3c3 334e 	ubfx	r3, r3, #13, #15
  102276:	015b      	lsls	r3, r3, #5
  102278:	f100 0e01 	add.w	lr, r0, #1
  10227c:	4601      	mov	r1, r0
  10227e:	f04e e001 	dls	lr, lr
  102282:	ea03 0b0c 	and.w	fp, r3, ip
  102286:	ea4b 7a81 	orr.w	sl, fp, r1, lsl #30
  10228a:	f8c2 a274 	str.w	sl, [r2, #628]	; 0x274
  10228e:	3901      	subs	r1, #1
  102290:	f00f c807 	le	lr, 102286 <AES_ProcessDma+0x5e>
  102294:	3b20      	subs	r3, #32
  102296:	f113 0f20 	cmn.w	r3, #32
  10229a:	d1ed      	bne.n	102278 <AES_ProcessDma+0x50>
  10229c:	f3bf 8f4f 	dsb	sy
  1022a0:	f3bf 8f6f 	isb	sy
  1022a4:	b376      	cbz	r6, 102304 <AES_ProcessDma+0xdc>
  1022a6:	4a9c      	ldr	r2, [pc, #624]	; (102518 <AES_ProcessDma+0x2f0>)
  1022a8:	6953      	ldr	r3, [r2, #20]
  1022aa:	03db      	lsls	r3, r3, #15
  1022ac:	d52a      	bpl.n	102304 <AES_ProcessDma+0xdc>
  1022ae:	1c70      	adds	r0, r6, #1
  1022b0:	4633      	mov	r3, r6
  1022b2:	f040 80ad 	bne.w	102410 <AES_ProcessDma+0x1e8>
  1022b6:	1c79      	adds	r1, r7, #1
  1022b8:	f040 80ce 	bne.w	102458 <AES_ProcessDma+0x230>
  1022bc:	2300      	movs	r3, #0
  1022be:	f8c2 3084 	str.w	r3, [r2, #132]	; 0x84
  1022c2:	f3bf 8f4f 	dsb	sy
  1022c6:	f643 7ce0 	movw	ip, #16352	; 0x3fe0
  1022ca:	f8d2 3080 	ldr.w	r3, [r2, #128]	; 0x80
  1022ce:	f3c3 00c9 	ubfx	r0, r3, #3, #10
  1022d2:	f3c3 334e 	ubfx	r3, r3, #13, #15
  1022d6:	015b      	lsls	r3, r3, #5
  1022d8:	f100 0e01 	add.w	lr, r0, #1
  1022dc:	4601      	mov	r1, r0
  1022de:	f04e e001 	dls	lr, lr
  1022e2:	ea03 0b0c 	and.w	fp, r3, ip
  1022e6:	ea4b 7a81 	orr.w	sl, fp, r1, lsl #30
  1022ea:	f8c2 a274 	str.w	sl, [r2, #628]	; 0x274
  1022ee:	3901      	subs	r1, #1
  1022f0:	f00f c807 	le	lr, 1022e6 <AES_ProcessDma+0xbe>
  1022f4:	3b20      	subs	r3, #32
  1022f6:	f113 0f20 	cmn.w	r3, #32
  1022fa:	d1ed      	bne.n	1022d8 <AES_ProcessDma+0xb0>
  1022fc:	f3bf 8f4f 	dsb	sy
  102300:	f3bf 8f6f 	isb	sy
  102304:	4b85      	ldr	r3, [pc, #532]	; (10251c <AES_ProcessDma+0x2f4>)
  102306:	e843 f200 	tt	r2, r3
  10230a:	0252      	lsls	r2, r2, #9
  10230c:	bf48      	it	mi
  10230e:	6c62      	ldrmi	r2, [r4, #68]	; 0x44
  102310:	46ba      	mov	sl, r7
  102312:	bf44      	itt	mi
  102314:	f022 0208 	bicmi.w	r2, r2, #8
  102318:	6462      	strmi	r2, [r4, #68]	; 0x44
  10231a:	2001      	movs	r0, #1
  10231c:	4632      	mov	r2, r6
  10231e:	f1ba 0f00 	cmp.w	sl, #0
  102322:	f040 809b 	bne.w	10245c <AES_ProcessDma+0x234>
  102326:	b36e      	cbz	r6, 102384 <AES_ProcessDma+0x15c>
  102328:	497b      	ldr	r1, [pc, #492]	; (102518 <AES_ProcessDma+0x2f0>)
  10232a:	694a      	ldr	r2, [r1, #20]
  10232c:	03d2      	lsls	r2, r2, #15
  10232e:	d529      	bpl.n	102384 <AES_ProcessDma+0x15c>
  102330:	1c70      	adds	r0, r6, #1
  102332:	4632      	mov	r2, r6
  102334:	f040 80fa 	bne.w	10252c <AES_ProcessDma+0x304>
  102338:	1c7a      	adds	r2, r7, #1
  10233a:	f040 8119 	bne.w	102570 <AES_ProcessDma+0x348>
  10233e:	f8c1 a084 	str.w	sl, [r1, #132]	; 0x84
  102342:	f3bf 8f4f 	dsb	sy
  102346:	f643 77e0 	movw	r7, #16352	; 0x3fe0
  10234a:	f8d1 2080 	ldr.w	r2, [r1, #128]	; 0x80
  10234e:	f3c2 06c9 	ubfx	r6, r2, #3, #10
  102352:	f3c2 324e 	ubfx	r2, r2, #13, #15
  102356:	0152      	lsls	r2, r2, #5
  102358:	f106 0e01 	add.w	lr, r6, #1
  10235c:	4630      	mov	r0, r6
  10235e:	f04e e001 	dls	lr, lr
  102362:	ea02 0807 	and.w	r8, r2, r7
  102366:	ea48 7c80 	orr.w	ip, r8, r0, lsl #30
  10236a:	f8c1 c260 	str.w	ip, [r1, #608]	; 0x260
  10236e:	3801      	subs	r0, #1
  102370:	f00f c807 	le	lr, 102366 <AES_ProcessDma+0x13e>
  102374:	3a20      	subs	r2, #32
  102376:	f112 0f20 	cmn.w	r2, #32
  10237a:	d1ed      	bne.n	102358 <AES_ProcessDma+0x130>
  10237c:	f3bf 8f4f 	dsb	sy
  102380:	f3bf 8f6f 	isb	sy
  102384:	2000      	movs	r0, #0
  102386:	f8d4 2338 	ldr.w	r2, [r4, #824]	; 0x338
  10238a:	f1b9 0f07 	cmp.w	r9, #7
  10238e:	f042 0201 	orr.w	r2, r2, #1
  102392:	f8c4 2338 	str.w	r2, [r4, #824]	; 0x338
  102396:	f8d4 2340 	ldr.w	r2, [r4, #832]	; 0x340
  10239a:	f042 0201 	orr.w	r2, r2, #1
  10239e:	f8c4 2340 	str.w	r2, [r4, #832]	; 0x340
  1023a2:	f040 80e7 	bne.w	102574 <AES_ProcessDma+0x34c>
  1023a6:	6f2a      	ldr	r2, [r5, #112]	; 0x70
  1023a8:	f422 3200 	bic.w	r2, r2, #131072	; 0x20000
  1023ac:	672a      	str	r2, [r5, #112]	; 0x70
  1023ae:	e843 f300 	tt	r3, r3
  1023b2:	025b      	lsls	r3, r3, #9
  1023b4:	bf42      	ittt	mi
  1023b6:	6c63      	ldrmi	r3, [r4, #68]	; 0x44
  1023b8:	f043 0308 	orrmi.w	r3, r3, #8
  1023bc:	6463      	strmi	r3, [r4, #68]	; 0x44
  1023be:	b003      	add	sp, #12
  1023c0:	e8bd 8ff0 	ldmia.w	sp!, {r4, r5, r6, r7, r8, r9, sl, fp, pc}
  1023c4:	f018 011f 	ands.w	r1, r8, #31
  1023c8:	463a      	mov	r2, r7
  1023ca:	d002      	beq.n	1023d2 <AES_ProcessDma+0x1aa>
  1023cc:	f028 031f 	bic.w	r3, r8, #31
  1023d0:	187a      	adds	r2, r7, r1
  1023d2:	2a00      	cmp	r2, #0
  1023d4:	f77f af66 	ble.w	1022a4 <AES_ProcessDma+0x7c>
  1023d8:	f003 011f 	and.w	r1, r3, #31
  1023dc:	4411      	add	r1, r2
  1023de:	f3bf 8f4f 	dsb	sy
  1023e2:	43da      	mvns	r2, r3
  1023e4:	eb03 0c01 	add.w	ip, r3, r1
  1023e8:	4462      	add	r2, ip
  1023ea:	3920      	subs	r1, #32
  1023ec:	0952      	lsrs	r2, r2, #5
  1023ee:	3120      	adds	r1, #32
  1023f0:	f102 0e01 	add.w	lr, r2, #1
  1023f4:	bfd8      	it	le
  1023f6:	f04f 0e01 	movle.w	lr, #1
  1023fa:	f04e e001 	dls	lr, lr
  1023fe:	4846      	ldr	r0, [pc, #280]	; (102518 <AES_ProcessDma+0x2f0>)
  102400:	f8c0 3270 	str.w	r3, [r0, #624]	; 0x270
  102404:	3320      	adds	r3, #32
  102406:	f00f c805 	le	lr, 102400 <AES_ProcessDma+0x1d8>
  10240a:	e747      	b.n	10229c <AES_ProcessDma+0x74>
  10240c:	211f      	movs	r1, #31
  10240e:	e7dd      	b.n	1023cc <AES_ProcessDma+0x1a4>
  102410:	f016 011f 	ands.w	r1, r6, #31
  102414:	463a      	mov	r2, r7
  102416:	d002      	beq.n	10241e <AES_ProcessDma+0x1f6>
  102418:	f026 031f 	bic.w	r3, r6, #31
  10241c:	187a      	adds	r2, r7, r1
  10241e:	2a00      	cmp	r2, #0
  102420:	f77f af70 	ble.w	102304 <AES_ProcessDma+0xdc>
  102424:	f003 011f 	and.w	r1, r3, #31
  102428:	4411      	add	r1, r2
  10242a:	f3bf 8f4f 	dsb	sy
  10242e:	43da      	mvns	r2, r3
  102430:	eb03 0c01 	add.w	ip, r3, r1
  102434:	4462      	add	r2, ip
  102436:	3920      	subs	r1, #32
  102438:	0952      	lsrs	r2, r2, #5
  10243a:	3120      	adds	r1, #32
  10243c:	f102 0e01 	add.w	lr, r2, #1
  102440:	bfd8      	it	le
  102442:	f04f 0e01 	movle.w	lr, #1
  102446:	f04e e001 	dls	lr, lr
  10244a:	4833      	ldr	r0, [pc, #204]	; (102518 <AES_ProcessDma+0x2f0>)
  10244c:	f8c0 3270 	str.w	r3, [r0, #624]	; 0x270
  102450:	3320      	adds	r3, #32
  102452:	f00f c805 	le	lr, 10244c <AES_ProcessDma+0x224>
  102456:	e751      	b.n	1022fc <AES_ProcessDma+0xd4>
  102458:	211f      	movs	r1, #31
  10245a:	e7dd      	b.n	102418 <AES_ProcessDma+0x1f0>
  10245c:	f06f 4160 	mvn.w	r1, #3758096384	; 0xe0000000
  102460:	458a      	cmp	sl, r1
  102462:	d331      	bcc.n	1024c8 <AES_ProcessDma+0x2a0>
  102464:	f1b9 0f07 	cmp.w	r9, #7
  102468:	d127      	bne.n	1024ba <AES_ProcessDma+0x292>
  10246a:	6f29      	ldr	r1, [r5, #112]	; 0x70
  10246c:	f421 3100 	bic.w	r1, r1, #131072	; 0x20000
  102470:	6729      	str	r1, [r5, #112]	; 0x70
  102472:	f8df b0ac 	ldr.w	fp, [pc, #172]	; 102520 <AES_ProcessDma+0x2f8>
  102476:	b128      	cbz	r0, 102484 <AES_ProcessDma+0x25c>
  102478:	2001      	movs	r0, #1
  10247a:	492a      	ldr	r1, [pc, #168]	; (102524 <AES_ProcessDma+0x2fc>)
  10247c:	9201      	str	r2, [sp, #4]
  10247e:	4788      	blx	r1
  102480:	4b26      	ldr	r3, [pc, #152]	; (10251c <AES_ProcessDma+0x2f4>)
  102482:	9a01      	ldr	r2, [sp, #4]
  102484:	f8c4 b01c 	str.w	fp, [r4, #28]
  102488:	f8c4 8000 	str.w	r8, [r4]
  10248c:	60a2      	str	r2, [r4, #8]
  10248e:	f8d4 13a0 	ldr.w	r1, [r4, #928]	; 0x3a0
  102492:	f441 7180 	orr.w	r1, r1, #256	; 0x100
  102496:	f041 0101 	orr.w	r1, r1, #1
  10249a:	f8c4 13a0 	str.w	r1, [r4, #928]	; 0x3a0
  10249e:	4922      	ldr	r1, [pc, #136]	; (102528 <AES_ProcessDma+0x300>)
  1024a0:	f8d4 02e8 	ldr.w	r0, [r4, #744]	; 0x2e8
  1024a4:	07c0      	lsls	r0, r0, #31
  1024a6:	d420      	bmi.n	1024ea <AES_ProcessDma+0x2c2>
  1024a8:	f8d4 0360 	ldr.w	r0, [r4, #864]	; 0x360
  1024ac:	06c0      	lsls	r0, r0, #27
  1024ae:	d401      	bmi.n	1024b4 <AES_ProcessDma+0x28c>
  1024b0:	3901      	subs	r1, #1
  1024b2:	d1f5      	bne.n	1024a0 <AES_ProcessDma+0x278>
  1024b4:	f06f 0010 	mvn.w	r0, #16
  1024b8:	e765      	b.n	102386 <AES_ProcessDma+0x15e>
  1024ba:	f1b9 0f06 	cmp.w	r9, #6
  1024be:	d1d8      	bne.n	102472 <AES_ProcessDma+0x24a>
  1024c0:	6f29      	ldr	r1, [r5, #112]	; 0x70
  1024c2:	f421 3180 	bic.w	r1, r1, #65536	; 0x10000
  1024c6:	e7d3      	b.n	102470 <AES_ProcessDma+0x248>
  1024c8:	f1b9 0f07 	cmp.w	r9, #7
  1024cc:	d104      	bne.n	1024d8 <AES_ProcessDma+0x2b0>
  1024ce:	6f29      	ldr	r1, [r5, #112]	; 0x70
  1024d0:	f441 3100 	orr.w	r1, r1, #131072	; 0x20000
  1024d4:	6729      	str	r1, [r5, #112]	; 0x70
  1024d6:	e002      	b.n	1024de <AES_ProcessDma+0x2b6>
  1024d8:	f1b9 0f06 	cmp.w	r9, #6
  1024dc:	d001      	beq.n	1024e2 <AES_ProcessDma+0x2ba>
  1024de:	46d3      	mov	fp, sl
  1024e0:	e7c9      	b.n	102476 <AES_ProcessDma+0x24e>
  1024e2:	6f29      	ldr	r1, [r5, #112]	; 0x70
  1024e4:	f441 3180 	orr.w	r1, r1, #65536	; 0x10000
  1024e8:	e7f4      	b.n	1024d4 <AES_ProcessDma+0x2ac>
  1024ea:	f8d4 1338 	ldr.w	r1, [r4, #824]	; 0x338
  1024ee:	2000      	movs	r0, #0
  1024f0:	f041 0101 	orr.w	r1, r1, #1
  1024f4:	f8c4 1338 	str.w	r1, [r4, #824]	; 0x338
  1024f8:	f8d4 1340 	ldr.w	r1, [r4, #832]	; 0x340
  1024fc:	44d8      	add	r8, fp
  1024fe:	f041 0101 	orr.w	r1, r1, #1
  102502:	f8c4 1340 	str.w	r1, [r4, #832]	; 0x340
  102506:	445a      	add	r2, fp
  102508:	ebaa 0a0b 	sub.w	sl, sl, fp
  10250c:	e707      	b.n	10231e <AES_ProcessDma+0xf6>
  10250e:	bf00      	nop
  102510:	00102049 	.word	0x00102049
  102514:	00102009 	.word	0x00102009
  102518:	e000ed00 	.word	0xe000ed00
  10251c:	0010a1e9 	.word	0x0010a1e9
  102520:	1ffffffe 	.word	0x1ffffffe
  102524:	00102161 	.word	0x00102161
  102528:	00989680 	.word	0x00989680
  10252c:	f016 011f 	ands.w	r1, r6, #31
  102530:	d002      	beq.n	102538 <AES_ProcessDma+0x310>
  102532:	f026 021f 	bic.w	r2, r6, #31
  102536:	440f      	add	r7, r1
  102538:	2f00      	cmp	r7, #0
  10253a:	f77f af23 	ble.w	102384 <AES_ProcessDma+0x15c>
  10253e:	f002 001f 	and.w	r0, r2, #31
  102542:	4438      	add	r0, r7
  102544:	f3bf 8f4f 	dsb	sy
  102548:	43d1      	mvns	r1, r2
  10254a:	1817      	adds	r7, r2, r0
  10254c:	4439      	add	r1, r7
  10254e:	3820      	subs	r0, #32
  102550:	0949      	lsrs	r1, r1, #5
  102552:	3020      	adds	r0, #32
  102554:	f101 0e01 	add.w	lr, r1, #1
  102558:	bfd8      	it	le
  10255a:	f04f 0e01 	movle.w	lr, #1
  10255e:	f04e e001 	dls	lr, lr
  102562:	4e08      	ldr	r6, [pc, #32]	; (102584 <AES_ProcessDma+0x35c>)
  102564:	f8c6 225c 	str.w	r2, [r6, #604]	; 0x25c
  102568:	3220      	adds	r2, #32
  10256a:	f00f c805 	le	lr, 102564 <AES_ProcessDma+0x33c>
  10256e:	e705      	b.n	10237c <AES_ProcessDma+0x154>
  102570:	211f      	movs	r1, #31
  102572:	e7de      	b.n	102532 <AES_ProcessDma+0x30a>
  102574:	f1b9 0f06 	cmp.w	r9, #6
  102578:	f47f af19 	bne.w	1023ae <AES_ProcessDma+0x186>
  10257c:	6f2a      	ldr	r2, [r5, #112]	; 0x70
  10257e:	f422 3280 	bic.w	r2, r2, #65536	; 0x10000
  102582:	e713      	b.n	1023ac <AES_ProcessDma+0x184>
  102584:	e000ed00 	.word	0xe000ed00

00102588 <AES_GCM_Set_Iv>:
  102588:	b5f0      	push	{r4, r5, r6, r7, lr}
  10258a:	4b3b      	ldr	r3, [pc, #236]	; (102678 <AES_GCM_Set_Iv+0xf0>)
  10258c:	460d      	mov	r5, r1
  10258e:	b089      	sub	sp, #36	; 0x24
  102590:	4606      	mov	r6, r0
  102592:	4798      	blx	r3
  102594:	2d0c      	cmp	r5, #12
  102596:	4604      	mov	r4, r0
  102598:	d10b      	bne.n	1025b2 <AES_GCM_Set_Iv+0x2a>
  10259a:	6833      	ldr	r3, [r6, #0]
  10259c:	6603      	str	r3, [r0, #96]	; 0x60
  10259e:	6873      	ldr	r3, [r6, #4]
  1025a0:	6643      	str	r3, [r0, #100]	; 0x64
  1025a2:	68b3      	ldr	r3, [r6, #8]
  1025a4:	6683      	str	r3, [r0, #104]	; 0x68
  1025a6:	f04f 7380 	mov.w	r3, #16777216	; 0x1000000
  1025aa:	66c3      	str	r3, [r0, #108]	; 0x6c
  1025ac:	2000      	movs	r0, #0
  1025ae:	b009      	add	sp, #36	; 0x24
  1025b0:	bdf0      	pop	{r4, r5, r6, r7, pc}
  1025b2:	2d0f      	cmp	r5, #15
  1025b4:	d823      	bhi.n	1025fe <AES_GCM_Set_Iv+0x76>
  1025b6:	f015 010f 	ands.w	r1, r5, #15
  1025ba:	ea4f 03c5 	mov.w	r3, r5, lsl #3
  1025be:	d02f      	beq.n	102620 <AES_GCM_Set_Iv+0x98>
  1025c0:	2020      	movs	r0, #32
  1025c2:	1e4f      	subs	r7, r1, #1
  1025c4:	4287      	cmp	r7, r0
  1025c6:	f1c1 0221 	rsb	r2, r1, #33	; 0x21
  1025ca:	bf28      	it	cs
  1025cc:	2201      	movcs	r2, #1
  1025ce:	461f      	mov	r7, r3
  1025d0:	3801      	subs	r0, #1
  1025d2:	b10b      	cbz	r3, 1025d8 <AES_GCM_Set_Iv+0x50>
  1025d4:	b2df      	uxtb	r7, r3
  1025d6:	0a1b      	lsrs	r3, r3, #8
  1025d8:	3a01      	subs	r2, #1
  1025da:	f80d 7000 	strb.w	r7, [sp, r0]
  1025de:	d1f6      	bne.n	1025ce <AES_GCM_Set_Iv+0x46>
  1025e0:	466a      	mov	r2, sp
  1025e2:	2300      	movs	r3, #0
  1025e4:	f041 e001 	dls	lr, r1
  1025e8:	f025 050f 	bic.w	r5, r5, #15
  1025ec:	18f1      	adds	r1, r6, r3
  1025ee:	5d49      	ldrb	r1, [r1, r5]
  1025f0:	3301      	adds	r3, #1
  1025f2:	f802 1b01 	strb.w	r1, [r2], #1
  1025f6:	f00f c807 	le	lr, 1025ec <AES_GCM_Set_Iv+0x64>
  1025fa:	2104      	movs	r1, #4
  1025fc:	e01c      	b.n	102638 <AES_GCM_Set_Iv+0xb0>
  1025fe:	6f03      	ldr	r3, [r0, #112]	; 0x70
  102600:	2200      	movs	r2, #0
  102602:	f423 7307 	bic.w	r3, r3, #540	; 0x21c
  102606:	f023 0302 	bic.w	r3, r3, #2
  10260a:	f043 038b 	orr.w	r3, r3, #139	; 0x8b
  10260e:	6703      	str	r3, [r0, #112]	; 0x70
  102610:	f025 010f 	bic.w	r1, r5, #15
  102614:	4630      	mov	r0, r6
  102616:	4b19      	ldr	r3, [pc, #100]	; (10267c <AES_GCM_Set_Iv+0xf4>)
  102618:	4798      	blx	r3
  10261a:	2800      	cmp	r0, #0
  10261c:	d0cb      	beq.n	1025b6 <AES_GCM_Set_Iv+0x2e>
  10261e:	e7c6      	b.n	1025ae <AES_GCM_Set_Iv+0x26>
  102620:	2210      	movs	r2, #16
  102622:	4611      	mov	r1, r2
  102624:	4618      	mov	r0, r3
  102626:	3a01      	subs	r2, #1
  102628:	b10b      	cbz	r3, 10262e <AES_GCM_Set_Iv+0xa6>
  10262a:	b2d8      	uxtb	r0, r3
  10262c:	0a1b      	lsrs	r3, r3, #8
  10262e:	3901      	subs	r1, #1
  102630:	f80d 0002 	strb.w	r0, [sp, r2]
  102634:	d1f6      	bne.n	102624 <AES_GCM_Set_Iv+0x9c>
  102636:	2102      	movs	r1, #2
  102638:	6f23      	ldr	r3, [r4, #112]	; 0x70
  10263a:	2200      	movs	r2, #0
  10263c:	f423 7307 	bic.w	r3, r3, #540	; 0x21c
  102640:	f023 0302 	bic.w	r3, r3, #2
  102644:	f043 038b 	orr.w	r3, r3, #139	; 0x8b
  102648:	6723      	str	r3, [r4, #112]	; 0x70
  10264a:	4668      	mov	r0, sp
  10264c:	4b0b      	ldr	r3, [pc, #44]	; (10267c <AES_GCM_Set_Iv+0xf4>)
  10264e:	00c9      	lsls	r1, r1, #3
  102650:	4798      	blx	r3
  102652:	2800      	cmp	r0, #0
  102654:	d1ab      	bne.n	1025ae <AES_GCM_Set_Iv+0x26>
  102656:	f04f 0e04 	mov.w	lr, #4
  10265a:	4602      	mov	r2, r0
  10265c:	f04e e001 	dls	lr, lr
  102660:	eb04 0380 	add.w	r3, r4, r0, lsl #2
  102664:	f8d3 1080 	ldr.w	r1, [r3, #128]	; 0x80
  102668:	3001      	adds	r0, #1
  10266a:	6619      	str	r1, [r3, #96]	; 0x60
  10266c:	f8c3 2080 	str.w	r2, [r3, #128]	; 0x80
  102670:	f00f c00b 	le	lr, 102660 <AES_GCM_Set_Iv+0xd8>
  102674:	e79a      	b.n	1025ac <AES_GCM_Set_Iv+0x24>
  102676:	bf00      	nop
  102678:	00102009 	.word	0x00102009
  10267c:	00102229 	.word	0x00102229

00102680 <AES_lock_mutex>:
  102680:	b5f8      	push	{r3, r4, r5, r6, r7, lr}
  102682:	4b0f      	ldr	r3, [pc, #60]	; (1026c0 <AES_lock_mutex+0x40>)
  102684:	4798      	blx	r3
  102686:	4f0f      	ldr	r7, [pc, #60]	; (1026c4 <AES_lock_mutex+0x44>)
  102688:	4c0f      	ldr	r4, [pc, #60]	; (1026c8 <AES_lock_mutex+0x48>)
  10268a:	683b      	ldr	r3, [r7, #0]
  10268c:	4605      	mov	r5, r0
  10268e:	2b00      	cmp	r3, #0
  102690:	bf18      	it	ne
  102692:	f44f 747a 	movne.w	r4, #1000	; 0x3e8
  102696:	3401      	adds	r4, #1
  102698:	2600      	movs	r6, #0
  10269a:	f8d5 3d00 	ldr.w	r3, [r5, #3328]	; 0xd00
  10269e:	079b      	lsls	r3, r3, #30
  1026a0:	d00d      	beq.n	1026be <AES_lock_mutex+0x3e>
  1026a2:	683b      	ldr	r3, [r7, #0]
  1026a4:	b10b      	cbz	r3, 1026aa <AES_lock_mutex+0x2a>
  1026a6:	2001      	movs	r0, #1
  1026a8:	4798      	blx	r3
  1026aa:	3601      	adds	r6, #1
  1026ac:	42a6      	cmp	r6, r4
  1026ae:	d1f4      	bne.n	10269a <AES_lock_mutex+0x1a>
  1026b0:	2245      	movs	r2, #69	; 0x45
  1026b2:	2002      	movs	r0, #2
  1026b4:	4b05      	ldr	r3, [pc, #20]	; (1026cc <AES_lock_mutex+0x4c>)
  1026b6:	4906      	ldr	r1, [pc, #24]	; (1026d0 <AES_lock_mutex+0x50>)
  1026b8:	f007 fe1c 	bl	10a2f4 <rtk_log_write>
  1026bc:	e7ec      	b.n	102698 <AES_lock_mutex+0x18>
  1026be:	bdf8      	pop	{r3, r4, r5, r6, r7, pc}
  1026c0:	00102009 	.word	0x00102009
  1026c4:	200014b8 	.word	0x200014b8
  1026c8:	000f4240 	.word	0x000f4240
  1026cc:	0010c131 	.word	0x0010c131
  1026d0:	0010c155 	.word	0x0010c155

001026d4 <AES_unlock_mutex>:
  1026d4:	b508      	push	{r3, lr}
  1026d6:	4b03      	ldr	r3, [pc, #12]	; (1026e4 <AES_unlock_mutex+0x10>)
  1026d8:	4798      	blx	r3
  1026da:	2300      	movs	r3, #0
  1026dc:	f8c0 3d00 	str.w	r3, [r0, #3328]	; 0xd00
  1026e0:	bd08      	pop	{r3, pc}
  1026e2:	bf00      	nop
  1026e4:	00102009 	.word	0x00102009

001026e8 <AES_set_swap_setting>:
  1026e8:	b570      	push	{r4, r5, r6, lr}
  1026ea:	4b07      	ldr	r3, [pc, #28]	; (102708 <AES_set_swap_setting+0x20>)
  1026ec:	4605      	mov	r5, r0
  1026ee:	4798      	blx	r3
  1026f0:	4604      	mov	r4, r0
  1026f2:	4b06      	ldr	r3, [pc, #24]	; (10270c <AES_set_swap_setting+0x24>)
  1026f4:	4798      	blx	r3
  1026f6:	f8d4 60a0 	ldr.w	r6, [r4, #160]	; 0xa0
  1026fa:	4b05      	ldr	r3, [pc, #20]	; (102710 <AES_set_swap_setting+0x28>)
  1026fc:	f8c4 50a0 	str.w	r5, [r4, #160]	; 0xa0
  102700:	4798      	blx	r3
  102702:	4630      	mov	r0, r6
  102704:	bd70      	pop	{r4, r5, r6, pc}
  102706:	bf00      	nop
  102708:	00102009 	.word	0x00102009
  10270c:	00102681 	.word	0x00102681
  102710:	001026d5 	.word	0x001026d5

00102714 <AES_get_swap_setting>:
  102714:	b510      	push	{r4, lr}
  102716:	4b05      	ldr	r3, [pc, #20]	; (10272c <AES_get_swap_setting+0x18>)
  102718:	4798      	blx	r3
  10271a:	4604      	mov	r4, r0
  10271c:	4b04      	ldr	r3, [pc, #16]	; (102730 <AES_get_swap_setting+0x1c>)
  10271e:	4798      	blx	r3
  102720:	f8d4 40a0 	ldr.w	r4, [r4, #160]	; 0xa0
  102724:	4b03      	ldr	r3, [pc, #12]	; (102734 <AES_get_swap_setting+0x20>)
  102726:	4798      	blx	r3
  102728:	4620      	mov	r0, r4
  10272a:	bd10      	pop	{r4, pc}
  10272c:	00102009 	.word	0x00102009
  102730:	00102681 	.word	0x00102681
  102734:	001026d5 	.word	0x001026d5

00102738 <AES_load_key>:
  102738:	b570      	push	{r4, r5, r6, lr}
  10273a:	4b3a      	ldr	r3, [pc, #232]	; (102824 <AES_load_key+0xec>)
  10273c:	4605      	mov	r5, r0
  10273e:	460c      	mov	r4, r1
  102740:	4616      	mov	r6, r2
  102742:	4798      	blx	r3
  102744:	2d05      	cmp	r5, #5
  102746:	4601      	mov	r1, r0
  102748:	d90c      	bls.n	102764 <AES_load_key+0x2c>
  10274a:	2d21      	cmp	r5, #33	; 0x21
  10274c:	d055      	beq.n	1027fa <AES_load_key+0xc2>
  10274e:	2d22      	cmp	r5, #34	; 0x22
  102750:	d043      	beq.n	1027da <AES_load_key+0xa2>
  102752:	2d23      	cmp	r5, #35	; 0x23
  102754:	d01a      	beq.n	10278c <AES_load_key+0x54>
  102756:	2d24      	cmp	r5, #36	; 0x24
  102758:	d018      	beq.n	10278c <AES_load_key+0x54>
  10275a:	f44f 71ef 	mov.w	r1, #478	; 0x1de
  10275e:	4832      	ldr	r0, [pc, #200]	; (102828 <AES_load_key+0xf0>)
  102760:	f002 fe68 	bl	105434 <io_assert_failed>
  102764:	2c80      	cmp	r4, #128	; 0x80
  102766:	4a31      	ldr	r2, [pc, #196]	; (10282c <AES_load_key+0xf4>)
  102768:	4b31      	ldr	r3, [pc, #196]	; (102830 <AES_load_key+0xf8>)
  10276a:	d107      	bne.n	10277c <AES_load_key+0x44>
  10276c:	f832 2015 	ldrh.w	r2, [r2, r5, lsl #1]
  102770:	e843 f300 	tt	r3, r3
  102774:	0258      	lsls	r0, r3, #9
  102776:	d410      	bmi.n	10279a <AES_load_key+0x62>
  102778:	4613      	mov	r3, r2
  10277a:	e04b      	b.n	102814 <AES_load_key+0xdc>
  10277c:	2cc0      	cmp	r4, #192	; 0xc0
  10277e:	d0f5      	beq.n	10276c <AES_load_key+0x34>
  102780:	f5b4 7f80 	cmp.w	r4, #256	; 0x100
  102784:	d0f2      	beq.n	10276c <AES_load_key+0x34>
  102786:	f240 11df 	movw	r1, #479	; 0x1df
  10278a:	e7e8      	b.n	10275e <AES_load_key+0x26>
  10278c:	2c80      	cmp	r4, #128	; 0x80
  10278e:	d004      	beq.n	10279a <AES_load_key+0x62>
  102790:	2cc0      	cmp	r4, #192	; 0xc0
  102792:	d002      	beq.n	10279a <AES_load_key+0x62>
  102794:	f5b4 7f80 	cmp.w	r4, #256	; 0x100
  102798:	d1f5      	bne.n	102786 <AES_load_key+0x4e>
  10279a:	b11e      	cbz	r6, 1027a4 <AES_load_key+0x6c>
  10279c:	680b      	ldr	r3, [r1, #0]
  10279e:	f443 7380 	orr.w	r3, r3, #256	; 0x100
  1027a2:	600b      	str	r3, [r1, #0]
  1027a4:	680b      	ldr	r3, [r1, #0]
  1027a6:	f005 053f 	and.w	r5, r5, #63	; 0x3f
  1027aa:	f023 033f 	bic.w	r3, r3, #63	; 0x3f
  1027ae:	600b      	str	r3, [r1, #0]
  1027b0:	680b      	ldr	r3, [r1, #0]
  1027b2:	431d      	orrs	r5, r3
  1027b4:	600d      	str	r5, [r1, #0]
  1027b6:	684b      	ldr	r3, [r1, #4]
  1027b8:	f043 0301 	orr.w	r3, r3, #1
  1027bc:	604b      	str	r3, [r1, #4]
  1027be:	4b1d      	ldr	r3, [pc, #116]	; (102834 <AES_load_key+0xfc>)
  1027c0:	684a      	ldr	r2, [r1, #4]
  1027c2:	07d2      	lsls	r2, r2, #31
  1027c4:	d42c      	bmi.n	102820 <AES_load_key+0xe8>
  1027c6:	3b01      	subs	r3, #1
  1027c8:	d1fa      	bne.n	1027c0 <AES_load_key+0x88>
  1027ca:	f06f 000f 	mvn.w	r0, #15
  1027ce:	b11e      	cbz	r6, 1027d8 <AES_load_key+0xa0>
  1027d0:	680b      	ldr	r3, [r1, #0]
  1027d2:	f423 7380 	bic.w	r3, r3, #256	; 0x100
  1027d6:	600b      	str	r3, [r1, #0]
  1027d8:	bd70      	pop	{r4, r5, r6, pc}
  1027da:	2c80      	cmp	r4, #128	; 0x80
  1027dc:	4b14      	ldr	r3, [pc, #80]	; (102830 <AES_load_key+0xf8>)
  1027de:	d106      	bne.n	1027ee <AES_load_key+0xb6>
  1027e0:	e843 f300 	tt	r3, r3
  1027e4:	025c      	lsls	r4, r3, #9
  1027e6:	d4d8      	bmi.n	10279a <AES_load_key+0x62>
  1027e8:	f44f 7380 	mov.w	r3, #256	; 0x100
  1027ec:	e012      	b.n	102814 <AES_load_key+0xdc>
  1027ee:	2cc0      	cmp	r4, #192	; 0xc0
  1027f0:	d0f6      	beq.n	1027e0 <AES_load_key+0xa8>
  1027f2:	f5b4 7f80 	cmp.w	r4, #256	; 0x100
  1027f6:	d0f3      	beq.n	1027e0 <AES_load_key+0xa8>
  1027f8:	e7c5      	b.n	102786 <AES_load_key+0x4e>
  1027fa:	2c80      	cmp	r4, #128	; 0x80
  1027fc:	4b0c      	ldr	r3, [pc, #48]	; (102830 <AES_load_key+0xf8>)
  1027fe:	d004      	beq.n	10280a <AES_load_key+0xd2>
  102800:	2cc0      	cmp	r4, #192	; 0xc0
  102802:	d002      	beq.n	10280a <AES_load_key+0xd2>
  102804:	f5b4 7f80 	cmp.w	r4, #256	; 0x100
  102808:	d1bd      	bne.n	102786 <AES_load_key+0x4e>
  10280a:	e843 f300 	tt	r3, r3
  10280e:	025b      	lsls	r3, r3, #9
  102810:	d4c3      	bmi.n	10279a <AES_load_key+0x62>
  102812:	2380      	movs	r3, #128	; 0x80
  102814:	684a      	ldr	r2, [r1, #4]
  102816:	421a      	tst	r2, r3
  102818:	d1bf      	bne.n	10279a <AES_load_key+0x62>
  10281a:	f240 11ed 	movw	r1, #493	; 0x1ed
  10281e:	e79e      	b.n	10275e <AES_load_key+0x26>
  102820:	2000      	movs	r0, #0
  102822:	e7d4      	b.n	1027ce <AES_load_key+0x96>
  102824:	00102029 	.word	0x00102029
  102828:	0010c0f4 	.word	0x0010c0f4
  10282c:	0010c182 	.word	0x0010c182
  102830:	0010a1e9 	.word	0x0010a1e9
  102834:	000186a0 	.word	0x000186a0

00102838 <crypto_aes_set_sw_key>:
  102838:	b5f8      	push	{r3, r4, r5, r6, r7, lr}
  10283a:	4604      	mov	r4, r0
  10283c:	4b5e      	ldr	r3, [pc, #376]	; (1029b8 <crypto_aes_set_sw_key+0x180>)
  10283e:	460f      	mov	r7, r1
  102840:	4616      	mov	r6, r2
  102842:	4798      	blx	r3
  102844:	2c05      	cmp	r4, #5
  102846:	4605      	mov	r5, r0
  102848:	d90a      	bls.n	102860 <crypto_aes_set_sw_key+0x28>
  10284a:	f1a4 0321 	sub.w	r3, r4, #33	; 0x21
  10284e:	2b02      	cmp	r3, #2
  102850:	d926      	bls.n	1028a0 <crypto_aes_set_sw_key+0x68>
  102852:	2c24      	cmp	r4, #36	; 0x24
  102854:	d00d      	beq.n	102872 <crypto_aes_set_sw_key+0x3a>
  102856:	f240 2111 	movw	r1, #529	; 0x211
  10285a:	4858      	ldr	r0, [pc, #352]	; (1029bc <crypto_aes_set_sw_key+0x184>)
  10285c:	f002 fdea 	bl	105434 <io_assert_failed>
  102860:	2f80      	cmp	r7, #128	; 0x80
  102862:	d11f      	bne.n	1028a4 <crypto_aes_set_sw_key+0x6c>
  102864:	4b56      	ldr	r3, [pc, #344]	; (1029c0 <crypto_aes_set_sw_key+0x188>)
  102866:	4798      	blx	r3
  102868:	4b56      	ldr	r3, [pc, #344]	; (1029c4 <crypto_aes_set_sw_key+0x18c>)
  10286a:	4798      	blx	r3
  10286c:	f06f 0006 	mvn.w	r0, #6
  102870:	e06e      	b.n	102950 <crypto_aes_set_sw_key+0x118>
  102872:	2f80      	cmp	r7, #128	; 0x80
  102874:	d116      	bne.n	1028a4 <crypto_aes_set_sw_key+0x6c>
  102876:	4b54      	ldr	r3, [pc, #336]	; (1029c8 <crypto_aes_set_sw_key+0x190>)
  102878:	e843 f300 	tt	r3, r3
  10287c:	f413 0f80 	tst.w	r3, #4194304	; 0x400000
  102880:	4b4f      	ldr	r3, [pc, #316]	; (1029c0 <crypto_aes_set_sw_key+0x188>)
  102882:	d003      	beq.n	10288c <crypto_aes_set_sw_key+0x54>
  102884:	4798      	blx	r3
  102886:	2204      	movs	r2, #4
  102888:	4613      	mov	r3, r2
  10288a:	e04b      	b.n	102924 <crypto_aes_set_sw_key+0xec>
  10288c:	4798      	blx	r3
  10288e:	2204      	movs	r2, #4
  102890:	4613      	mov	r3, r2
  102892:	2000      	movs	r0, #0
  102894:	4283      	cmp	r3, r0
  102896:	f103 0101 	add.w	r1, r3, #1
  10289a:	bf08      	it	eq
  10289c:	2101      	moveq	r1, #1
  10289e:	e085      	b.n	1029ac <crypto_aes_set_sw_key+0x174>
  1028a0:	2f80      	cmp	r7, #128	; 0x80
  1028a2:	d023      	beq.n	1028ec <crypto_aes_set_sw_key+0xb4>
  1028a4:	2fc0      	cmp	r7, #192	; 0xc0
  1028a6:	d02b      	beq.n	102900 <crypto_aes_set_sw_key+0xc8>
  1028a8:	f5b7 7f80 	cmp.w	r7, #256	; 0x100
  1028ac:	f040 8081 	bne.w	1029b2 <crypto_aes_set_sw_key+0x17a>
  1028b0:	4b45      	ldr	r3, [pc, #276]	; (1029c8 <crypto_aes_set_sw_key+0x190>)
  1028b2:	e843 f300 	tt	r3, r3
  1028b6:	0259      	lsls	r1, r3, #9
  1028b8:	f3c3 5780 	ubfx	r7, r3, #22, #1
  1028bc:	d52a      	bpl.n	102914 <crypto_aes_set_sw_key+0xdc>
  1028be:	4b40      	ldr	r3, [pc, #256]	; (1029c0 <crypto_aes_set_sw_key+0x188>)
  1028c0:	4798      	blx	r3
  1028c2:	2308      	movs	r3, #8
  1028c4:	2200      	movs	r2, #0
  1028c6:	2c21      	cmp	r4, #33	; 0x21
  1028c8:	d145      	bne.n	102956 <crypto_aes_set_sw_key+0x11e>
  1028ca:	2100      	movs	r1, #0
  1028cc:	f043 e001 	dls	lr, r3
  1028d0:	f856 3021 	ldr.w	r3, [r6, r1, lsl #2]
  1028d4:	ba18      	rev	r0, r3
  1028d6:	1853      	adds	r3, r2, r1
  1028d8:	3304      	adds	r3, #4
  1028da:	f845 0023 	str.w	r0, [r5, r3, lsl #2]
  1028de:	3101      	adds	r1, #1
  1028e0:	f00f c00b 	le	lr, 1028d0 <crypto_aes_set_sw_key+0x98>
  1028e4:	4b37      	ldr	r3, [pc, #220]	; (1029c4 <crypto_aes_set_sw_key+0x18c>)
  1028e6:	4798      	blx	r3
  1028e8:	2000      	movs	r0, #0
  1028ea:	e031      	b.n	102950 <crypto_aes_set_sw_key+0x118>
  1028ec:	4b36      	ldr	r3, [pc, #216]	; (1029c8 <crypto_aes_set_sw_key+0x190>)
  1028ee:	e843 f300 	tt	r3, r3
  1028f2:	025a      	lsls	r2, r3, #9
  1028f4:	d528      	bpl.n	102948 <crypto_aes_set_sw_key+0x110>
  1028f6:	4b32      	ldr	r3, [pc, #200]	; (1029c0 <crypto_aes_set_sw_key+0x188>)
  1028f8:	4798      	blx	r3
  1028fa:	2304      	movs	r3, #4
  1028fc:	461a      	mov	r2, r3
  1028fe:	e7e2      	b.n	1028c6 <crypto_aes_set_sw_key+0x8e>
  102900:	4b31      	ldr	r3, [pc, #196]	; (1029c8 <crypto_aes_set_sw_key+0x190>)
  102902:	e843 f300 	tt	r3, r3
  102906:	025b      	lsls	r3, r3, #9
  102908:	d515      	bpl.n	102936 <crypto_aes_set_sw_key+0xfe>
  10290a:	4b2d      	ldr	r3, [pc, #180]	; (1029c0 <crypto_aes_set_sw_key+0x188>)
  10290c:	4798      	blx	r3
  10290e:	2306      	movs	r3, #6
  102910:	2202      	movs	r2, #2
  102912:	e7d8      	b.n	1028c6 <crypto_aes_set_sw_key+0x8e>
  102914:	f1a4 0321 	sub.w	r3, r4, #33	; 0x21
  102918:	2b01      	cmp	r3, #1
  10291a:	d917      	bls.n	10294c <crypto_aes_set_sw_key+0x114>
  10291c:	4b28      	ldr	r3, [pc, #160]	; (1029c0 <crypto_aes_set_sw_key+0x188>)
  10291e:	4798      	blx	r3
  102920:	463a      	mov	r2, r7
  102922:	2308      	movs	r3, #8
  102924:	2c23      	cmp	r4, #35	; 0x23
  102926:	d135      	bne.n	102994 <crypto_aes_set_sw_key+0x15c>
  102928:	2000      	movs	r0, #0
  10292a:	4283      	cmp	r3, r0
  10292c:	f103 0101 	add.w	r1, r3, #1
  102930:	bf08      	it	eq
  102932:	2101      	moveq	r1, #1
  102934:	e02b      	b.n	10298e <crypto_aes_set_sw_key+0x156>
  102936:	f1a4 0321 	sub.w	r3, r4, #33	; 0x21
  10293a:	2b01      	cmp	r3, #1
  10293c:	d906      	bls.n	10294c <crypto_aes_set_sw_key+0x114>
  10293e:	4b20      	ldr	r3, [pc, #128]	; (1029c0 <crypto_aes_set_sw_key+0x188>)
  102940:	4798      	blx	r3
  102942:	2202      	movs	r2, #2
  102944:	2306      	movs	r3, #6
  102946:	e7ed      	b.n	102924 <crypto_aes_set_sw_key+0xec>
  102948:	2c23      	cmp	r4, #35	; 0x23
  10294a:	d002      	beq.n	102952 <crypto_aes_set_sw_key+0x11a>
  10294c:	f06f 000d 	mvn.w	r0, #13
  102950:	bdf8      	pop	{r3, r4, r5, r6, r7, pc}
  102952:	4b1b      	ldr	r3, [pc, #108]	; (1029c0 <crypto_aes_set_sw_key+0x188>)
  102954:	e796      	b.n	102884 <crypto_aes_set_sw_key+0x4c>
  102956:	2c22      	cmp	r4, #34	; 0x22
  102958:	f04f 0000 	mov.w	r0, #0
  10295c:	d1e2      	bne.n	102924 <crypto_aes_set_sw_key+0xec>
  10295e:	4283      	cmp	r3, r0
  102960:	f103 0101 	add.w	r1, r3, #1
  102964:	bf08      	it	eq
  102966:	2101      	moveq	r1, #1
  102968:	3901      	subs	r1, #1
  10296a:	d0bb      	beq.n	1028e4 <crypto_aes_set_sw_key+0xac>
  10296c:	f856 3020 	ldr.w	r3, [r6, r0, lsl #2]
  102970:	ba1c      	rev	r4, r3
  102972:	1813      	adds	r3, r2, r0
  102974:	330c      	adds	r3, #12
  102976:	f845 4023 	str.w	r4, [r5, r3, lsl #2]
  10297a:	3001      	adds	r0, #1
  10297c:	e7f4      	b.n	102968 <crypto_aes_set_sw_key+0x130>
  10297e:	f856 3020 	ldr.w	r3, [r6, r0, lsl #2]
  102982:	ba1c      	rev	r4, r3
  102984:	1813      	adds	r3, r2, r0
  102986:	3314      	adds	r3, #20
  102988:	f845 4023 	str.w	r4, [r5, r3, lsl #2]
  10298c:	3001      	adds	r0, #1
  10298e:	3901      	subs	r1, #1
  102990:	d1f5      	bne.n	10297e <crypto_aes_set_sw_key+0x146>
  102992:	e7a7      	b.n	1028e4 <crypto_aes_set_sw_key+0xac>
  102994:	2c24      	cmp	r4, #36	; 0x24
  102996:	f43f af7c 	beq.w	102892 <crypto_aes_set_sw_key+0x5a>
  10299a:	e765      	b.n	102868 <crypto_aes_set_sw_key+0x30>
  10299c:	f856 3020 	ldr.w	r3, [r6, r0, lsl #2]
  1029a0:	ba1c      	rev	r4, r3
  1029a2:	1813      	adds	r3, r2, r0
  1029a4:	331c      	adds	r3, #28
  1029a6:	f845 4023 	str.w	r4, [r5, r3, lsl #2]
  1029aa:	3001      	adds	r0, #1
  1029ac:	3901      	subs	r1, #1
  1029ae:	d1f5      	bne.n	10299c <crypto_aes_set_sw_key+0x164>
  1029b0:	e798      	b.n	1028e4 <crypto_aes_set_sw_key+0xac>
  1029b2:	f06f 000e 	mvn.w	r0, #14
  1029b6:	e7cb      	b.n	102950 <crypto_aes_set_sw_key+0x118>
  1029b8:	00102029 	.word	0x00102029
  1029bc:	0010c0f4 	.word	0x0010c0f4
  1029c0:	00102681 	.word	0x00102681
  1029c4:	001026d5 	.word	0x001026d5
  1029c8:	0010a1e9 	.word	0x0010a1e9

001029cc <crypto_aes_share_secure_key>:
  1029cc:	b5f8      	push	{r3, r4, r5, r6, r7, lr}
  1029ce:	4b19      	ldr	r3, [pc, #100]	; (102a34 <crypto_aes_share_secure_key+0x68>)
  1029d0:	4604      	mov	r4, r0
  1029d2:	460f      	mov	r7, r1
  1029d4:	4798      	blx	r3
  1029d6:	4b18      	ldr	r3, [pc, #96]	; (102a38 <crypto_aes_share_secure_key+0x6c>)
  1029d8:	e843 f300 	tt	r3, r3
  1029dc:	025b      	lsls	r3, r3, #9
  1029de:	4605      	mov	r5, r0
  1029e0:	d525      	bpl.n	102a2e <crypto_aes_share_secure_key+0x62>
  1029e2:	2c05      	cmp	r4, #5
  1029e4:	d90a      	bls.n	1029fc <crypto_aes_share_secure_key+0x30>
  1029e6:	2c21      	cmp	r4, #33	; 0x21
  1029e8:	d01a      	beq.n	102a20 <crypto_aes_share_secure_key+0x54>
  1029ea:	2c22      	cmp	r4, #34	; 0x22
  1029ec:	f44f 7680 	mov.w	r6, #256	; 0x100
  1029f0:	d00c      	beq.n	102a0c <crypto_aes_share_secure_key+0x40>
  1029f2:	f240 2145 	movw	r1, #581	; 0x245
  1029f6:	4811      	ldr	r0, [pc, #68]	; (102a3c <crypto_aes_share_secure_key+0x70>)
  1029f8:	f002 fd1c 	bl	105434 <io_assert_failed>
  1029fc:	b194      	cbz	r4, 102a24 <crypto_aes_share_secure_key+0x58>
  1029fe:	3c01      	subs	r4, #1
  102a00:	b2e4      	uxtb	r4, r4
  102a02:	4b0f      	ldr	r3, [pc, #60]	; (102a40 <crypto_aes_share_secure_key+0x74>)
  102a04:	eb03 0344 	add.w	r3, r3, r4, lsl #1
  102a08:	f8b3 6044 	ldrh.w	r6, [r3, #68]	; 0x44
  102a0c:	4b0d      	ldr	r3, [pc, #52]	; (102a44 <crypto_aes_share_secure_key+0x78>)
  102a0e:	4798      	blx	r3
  102a10:	686b      	ldr	r3, [r5, #4]
  102a12:	b14f      	cbz	r7, 102a28 <crypto_aes_share_secure_key+0x5c>
  102a14:	4333      	orrs	r3, r6
  102a16:	606b      	str	r3, [r5, #4]
  102a18:	4b0b      	ldr	r3, [pc, #44]	; (102a48 <crypto_aes_share_secure_key+0x7c>)
  102a1a:	4798      	blx	r3
  102a1c:	2000      	movs	r0, #0
  102a1e:	bdf8      	pop	{r3, r4, r5, r6, r7, pc}
  102a20:	2420      	movs	r4, #32
  102a22:	e7ee      	b.n	102a02 <crypto_aes_share_secure_key+0x36>
  102a24:	2602      	movs	r6, #2
  102a26:	e7f1      	b.n	102a0c <crypto_aes_share_secure_key+0x40>
  102a28:	ea23 0306 	bic.w	r3, r3, r6
  102a2c:	e7f3      	b.n	102a16 <crypto_aes_share_secure_key+0x4a>
  102a2e:	f06f 000d 	mvn.w	r0, #13
  102a32:	e7f4      	b.n	102a1e <crypto_aes_share_secure_key+0x52>
  102a34:	00102029 	.word	0x00102029
  102a38:	0010a1e9 	.word	0x0010a1e9
  102a3c:	0010c0f4 	.word	0x0010c0f4
  102a40:	0010c182 	.word	0x0010c182
  102a44:	00102681 	.word	0x00102681
  102a48:	001026d5 	.word	0x001026d5

00102a4c <crypto_aes_slave_start>:
  102a4c:	e92d 4ff0 	stmdb	sp!, {r4, r5, r6, r7, r8, r9, sl, fp, lr}
  102a50:	461d      	mov	r5, r3
  102a52:	b089      	sub	sp, #36	; 0x24
  102a54:	4b47      	ldr	r3, [pc, #284]	; (102b74 <crypto_aes_slave_start+0x128>)
  102a56:	9c12      	ldr	r4, [sp, #72]	; 0x48
  102a58:	9201      	str	r2, [sp, #4]
  102a5a:	4682      	mov	sl, r0
  102a5c:	e9dd 7b14 	ldrd	r7, fp, [sp, #80]	; 0x50
  102a60:	4689      	mov	r9, r1
  102a62:	9e16      	ldr	r6, [sp, #88]	; 0x58
  102a64:	4798      	blx	r3
  102a66:	4a44      	ldr	r2, [pc, #272]	; (102b78 <crypto_aes_slave_start+0x12c>)
  102a68:	4680      	mov	r8, r0
  102a6a:	4790      	blx	r2
  102a6c:	b12c      	cbz	r4, 102a7a <crypto_aes_slave_start+0x2e>
  102a6e:	f1bb 0f00 	cmp.w	fp, #0
  102a72:	d002      	beq.n	102a7a <crypto_aes_slave_start+0x2e>
  102a74:	4658      	mov	r0, fp
  102a76:	4a41      	ldr	r2, [pc, #260]	; (102b7c <crypto_aes_slave_start+0x130>)
  102a78:	4790      	blx	r2
  102a7a:	4a41      	ldr	r2, [pc, #260]	; (102b80 <crypto_aes_slave_start+0x134>)
  102a7c:	a803      	add	r0, sp, #12
  102a7e:	4790      	blx	r2
  102a80:	2200      	movs	r2, #0
  102a82:	9204      	str	r2, [sp, #16]
  102a84:	f89d 204c 	ldrb.w	r2, [sp, #76]	; 0x4c
  102a88:	a803      	add	r0, sp, #12
  102a8a:	9205      	str	r2, [sp, #20]
  102a8c:	2280      	movs	r2, #128	; 0x80
  102a8e:	e9cd 2506 	strd	r2, r5, [sp, #24]
  102a92:	4a3c      	ldr	r2, [pc, #240]	; (102b84 <crypto_aes_slave_start+0x138>)
  102a94:	9403      	str	r4, [sp, #12]
  102a96:	4790      	blx	r2
  102a98:	4683      	mov	fp, r0
  102a9a:	bba8      	cbnz	r0, 102b08 <crypto_aes_slave_start+0xbc>
  102a9c:	4602      	mov	r2, r0
  102a9e:	4629      	mov	r1, r5
  102aa0:	4650      	mov	r0, sl
  102aa2:	f7ff fe49 	bl	102738 <AES_load_key>
  102aa6:	4683      	mov	fp, r0
  102aa8:	bb70      	cbnz	r0, 102b08 <crypto_aes_slave_start+0xbc>
  102aaa:	2c08      	cmp	r4, #8
  102aac:	d106      	bne.n	102abc <crypto_aes_slave_start+0x70>
  102aae:	2201      	movs	r2, #1
  102ab0:	4629      	mov	r1, r5
  102ab2:	4648      	mov	r0, r9
  102ab4:	f7ff fe40 	bl	102738 <AES_load_key>
  102ab8:	2800      	cmp	r0, #0
  102aba:	d158      	bne.n	102b6e <crypto_aes_slave_start+0x122>
  102abc:	683a      	ldr	r2, [r7, #0]
  102abe:	9b01      	ldr	r3, [sp, #4]
  102ac0:	f8c8 2000 	str.w	r2, [r8]
  102ac4:	687a      	ldr	r2, [r7, #4]
  102ac6:	f8c8 2004 	str.w	r2, [r8, #4]
  102aca:	68ba      	ldr	r2, [r7, #8]
  102acc:	f8c8 2008 	str.w	r2, [r8, #8]
  102ad0:	68fa      	ldr	r2, [r7, #12]
  102ad2:	f8c8 200c 	str.w	r2, [r8, #12]
  102ad6:	b353      	cbz	r3, 102b2e <crypto_aes_slave_start+0xe2>
  102ad8:	2c07      	cmp	r4, #7
  102ada:	d121      	bne.n	102b20 <crypto_aes_slave_start+0xd4>
  102adc:	f8d8 2070 	ldr.w	r2, [r8, #112]	; 0x70
  102ae0:	f442 3200 	orr.w	r2, r2, #131072	; 0x20000
  102ae4:	f8c8 2070 	str.w	r2, [r8, #112]	; 0x70
  102ae8:	4a27      	ldr	r2, [pc, #156]	; (102b88 <crypto_aes_slave_start+0x13c>)
  102aea:	2001      	movs	r0, #1
  102aec:	4790      	blx	r2
  102aee:	f242 7210 	movw	r2, #10000	; 0x2710
  102af2:	f8d8 1ef0 	ldr.w	r1, [r8, #3824]	; 0xef0
  102af6:	07cb      	lsls	r3, r1, #31
  102af8:	d42c      	bmi.n	102b54 <crypto_aes_slave_start+0x108>
  102afa:	f8d8 1ef0 	ldr.w	r1, [r8, #3824]	; 0xef0
  102afe:	f011 0f0e 	tst.w	r1, #14
  102b02:	d022      	beq.n	102b4a <crypto_aes_slave_start+0xfe>
  102b04:	f8d8 bef0 	ldr.w	fp, [r8, #3824]	; 0xef0
  102b08:	f8d8 2efc 	ldr.w	r2, [r8, #3836]	; 0xefc
  102b0c:	4b1f      	ldr	r3, [pc, #124]	; (102b8c <crypto_aes_slave_start+0x140>)
  102b0e:	f002 0201 	and.w	r2, r2, #1
  102b12:	f8c8 2efc 	str.w	r2, [r8, #3836]	; 0xefc
  102b16:	4798      	blx	r3
  102b18:	4658      	mov	r0, fp
  102b1a:	b009      	add	sp, #36	; 0x24
  102b1c:	e8bd 8ff0 	ldmia.w	sp!, {r4, r5, r6, r7, r8, r9, sl, fp, pc}
  102b20:	2c06      	cmp	r4, #6
  102b22:	d1e1      	bne.n	102ae8 <crypto_aes_slave_start+0x9c>
  102b24:	f8d8 2070 	ldr.w	r2, [r8, #112]	; 0x70
  102b28:	f442 3280 	orr.w	r2, r2, #65536	; 0x10000
  102b2c:	e7da      	b.n	102ae4 <crypto_aes_slave_start+0x98>
  102b2e:	2c07      	cmp	r4, #7
  102b30:	d104      	bne.n	102b3c <crypto_aes_slave_start+0xf0>
  102b32:	f8d8 2070 	ldr.w	r2, [r8, #112]	; 0x70
  102b36:	f422 3200 	bic.w	r2, r2, #131072	; 0x20000
  102b3a:	e7d3      	b.n	102ae4 <crypto_aes_slave_start+0x98>
  102b3c:	2c06      	cmp	r4, #6
  102b3e:	d1d3      	bne.n	102ae8 <crypto_aes_slave_start+0x9c>
  102b40:	f8d8 2070 	ldr.w	r2, [r8, #112]	; 0x70
  102b44:	f422 3280 	bic.w	r2, r2, #65536	; 0x10000
  102b48:	e7cc      	b.n	102ae4 <crypto_aes_slave_start+0x98>
  102b4a:	3a01      	subs	r2, #1
  102b4c:	d1d1      	bne.n	102af2 <crypto_aes_slave_start+0xa6>
  102b4e:	f06f 0b14 	mvn.w	fp, #20
  102b52:	e7d9      	b.n	102b08 <crypto_aes_slave_start+0xbc>
  102b54:	f8d8 2010 	ldr.w	r2, [r8, #16]
  102b58:	6032      	str	r2, [r6, #0]
  102b5a:	f8d8 2014 	ldr.w	r2, [r8, #20]
  102b5e:	6072      	str	r2, [r6, #4]
  102b60:	f8d8 2018 	ldr.w	r2, [r8, #24]
  102b64:	60b2      	str	r2, [r6, #8]
  102b66:	f8d8 201c 	ldr.w	r2, [r8, #28]
  102b6a:	60f2      	str	r2, [r6, #12]
  102b6c:	e7cc      	b.n	102b08 <crypto_aes_slave_start+0xbc>
  102b6e:	4683      	mov	fp, r0
  102b70:	e7ca      	b.n	102b08 <crypto_aes_slave_start+0xbc>
  102b72:	bf00      	nop
  102b74:	00102009 	.word	0x00102009
  102b78:	00102681 	.word	0x00102681
  102b7c:	001021a1 	.word	0x001021a1
  102b80:	001020e9 	.word	0x001020e9
  102b84:	001020f9 	.word	0x001020f9
  102b88:	00102161 	.word	0x00102161
  102b8c:	001026d5 	.word	0x001026d5

00102b90 <crypto_aes_ecb_slave>:
  102b90:	b510      	push	{r4, lr}
  102b92:	b086      	sub	sp, #24
  102b94:	4614      	mov	r4, r2
  102b96:	9a08      	ldr	r2, [sp, #32]
  102b98:	9204      	str	r2, [sp, #16]
  102b9a:	2200      	movs	r2, #0
  102b9c:	e9cd 3202 	strd	r3, r2, [sp, #8]
  102ba0:	e9cd 2400 	strd	r2, r4, [sp]
  102ba4:	460b      	mov	r3, r1
  102ba6:	4611      	mov	r1, r2
  102ba8:	f7ff ff50 	bl	102a4c <crypto_aes_slave_start>
  102bac:	b006      	add	sp, #24
  102bae:	bd10      	pop	{r4, pc}

00102bb0 <crypto_aes_ctr_slave>:
  102bb0:	b510      	push	{r4, lr}
  102bb2:	b086      	sub	sp, #24
  102bb4:	9c09      	ldr	r4, [sp, #36]	; 0x24
  102bb6:	9201      	str	r2, [sp, #4]
  102bb8:	9404      	str	r4, [sp, #16]
  102bba:	9c08      	ldr	r4, [sp, #32]
  102bbc:	2200      	movs	r2, #0
  102bbe:	e9cd 3402 	strd	r3, r4, [sp, #8]
  102bc2:	2304      	movs	r3, #4
  102bc4:	9300      	str	r3, [sp, #0]
  102bc6:	460b      	mov	r3, r1
  102bc8:	4611      	mov	r1, r2
  102bca:	f7ff ff3f 	bl	102a4c <crypto_aes_slave_start>
  102bce:	b006      	add	sp, #24
  102bd0:	bd10      	pop	{r4, pc}

00102bd2 <crypto_aes_start>:
  102bd2:	e92d 4ff0 	stmdb	sp!, {r4, r5, r6, r7, r8, r9, sl, fp, lr}
  102bd6:	461d      	mov	r5, r3
  102bd8:	b087      	sub	sp, #28
  102bda:	f8dd 9050 	ldr.w	r9, [sp, #80]	; 0x50
  102bde:	4683      	mov	fp, r0
  102be0:	e9dd 8712 	ldrd	r8, r7, [sp, #72]	; 0x48
  102be4:	f019 0f1f 	tst.w	r9, #31
  102be8:	bf0c      	ite	eq
  102bea:	2001      	moveq	r0, #1
  102bec:	2000      	movne	r0, #0
  102bee:	4b27      	ldr	r3, [pc, #156]	; (102c8c <crypto_aes_start+0xba>)
  102bf0:	468a      	mov	sl, r1
  102bf2:	4616      	mov	r6, r2
  102bf4:	4798      	blx	r3
  102bf6:	f018 0f1f 	tst.w	r8, #31
  102bfa:	bf0c      	ite	eq
  102bfc:	2001      	moveq	r0, #1
  102bfe:	2000      	movne	r0, #0
  102c00:	4b23      	ldr	r3, [pc, #140]	; (102c90 <crypto_aes_start+0xbe>)
  102c02:	4798      	blx	r3
  102c04:	4b23      	ldr	r3, [pc, #140]	; (102c94 <crypto_aes_start+0xc2>)
  102c06:	4798      	blx	r3
  102c08:	4b23      	ldr	r3, [pc, #140]	; (102c98 <crypto_aes_start+0xc6>)
  102c0a:	4798      	blx	r3
  102c0c:	b11d      	cbz	r5, 102c16 <crypto_aes_start+0x44>
  102c0e:	b117      	cbz	r7, 102c16 <crypto_aes_start+0x44>
  102c10:	4638      	mov	r0, r7
  102c12:	4b22      	ldr	r3, [pc, #136]	; (102c9c <crypto_aes_start+0xca>)
  102c14:	4798      	blx	r3
  102c16:	4b22      	ldr	r3, [pc, #136]	; (102ca0 <crypto_aes_start+0xce>)
  102c18:	a801      	add	r0, sp, #4
  102c1a:	4798      	blx	r3
  102c1c:	f89d 3040 	ldrb.w	r3, [sp, #64]	; 0x40
  102c20:	a801      	add	r0, sp, #4
  102c22:	9303      	str	r3, [sp, #12]
  102c24:	ea4f 03c8 	mov.w	r3, r8, lsl #3
  102c28:	e9cd 3604 	strd	r3, r6, [sp, #16]
  102c2c:	4b1d      	ldr	r3, [pc, #116]	; (102ca4 <crypto_aes_start+0xd2>)
  102c2e:	9501      	str	r5, [sp, #4]
  102c30:	4798      	blx	r3
  102c32:	4604      	mov	r4, r0
  102c34:	b9a8      	cbnz	r0, 102c62 <crypto_aes_start+0x90>
  102c36:	4602      	mov	r2, r0
  102c38:	4631      	mov	r1, r6
  102c3a:	4658      	mov	r0, fp
  102c3c:	f7ff fd7c 	bl	102738 <AES_load_key>
  102c40:	4604      	mov	r4, r0
  102c42:	b970      	cbnz	r0, 102c62 <crypto_aes_start+0x90>
  102c44:	2d08      	cmp	r5, #8
  102c46:	d112      	bne.n	102c6e <crypto_aes_start+0x9c>
  102c48:	2201      	movs	r2, #1
  102c4a:	4631      	mov	r1, r6
  102c4c:	4650      	mov	r0, sl
  102c4e:	f7ff fd73 	bl	102738 <AES_load_key>
  102c52:	b9c8      	cbnz	r0, 102c88 <crypto_aes_start+0xb6>
  102c54:	464a      	mov	r2, r9
  102c56:	4641      	mov	r1, r8
  102c58:	9811      	ldr	r0, [sp, #68]	; 0x44
  102c5a:	4b13      	ldr	r3, [pc, #76]	; (102ca8 <crypto_aes_start+0xd6>)
  102c5c:	4798      	blx	r3
  102c5e:	b998      	cbnz	r0, 102c88 <crypto_aes_start+0xb6>
  102c60:	b977      	cbnz	r7, 102c80 <crypto_aes_start+0xae>
  102c62:	4b12      	ldr	r3, [pc, #72]	; (102cac <crypto_aes_start+0xda>)
  102c64:	4798      	blx	r3
  102c66:	4620      	mov	r0, r4
  102c68:	b007      	add	sp, #28
  102c6a:	e8bd 8ff0 	ldmia.w	sp!, {r4, r5, r6, r7, r8, r9, sl, fp, pc}
  102c6e:	464a      	mov	r2, r9
  102c70:	4641      	mov	r1, r8
  102c72:	9811      	ldr	r0, [sp, #68]	; 0x44
  102c74:	4b0c      	ldr	r3, [pc, #48]	; (102ca8 <crypto_aes_start+0xd6>)
  102c76:	4798      	blx	r3
  102c78:	b930      	cbnz	r0, 102c88 <crypto_aes_start+0xb6>
  102c7a:	2d00      	cmp	r5, #0
  102c7c:	d0f1      	beq.n	102c62 <crypto_aes_start+0x90>
  102c7e:	e7ef      	b.n	102c60 <crypto_aes_start+0x8e>
  102c80:	4638      	mov	r0, r7
  102c82:	4b0b      	ldr	r3, [pc, #44]	; (102cb0 <crypto_aes_start+0xde>)
  102c84:	4798      	blx	r3
  102c86:	e7ec      	b.n	102c62 <crypto_aes_start+0x90>
  102c88:	4604      	mov	r4, r0
  102c8a:	e7ea      	b.n	102c62 <crypto_aes_start+0x90>
  102c8c:	00103ee1 	.word	0x00103ee1
  102c90:	00103f11 	.word	0x00103f11
  102c94:	00102681 	.word	0x00102681
  102c98:	001020bd 	.word	0x001020bd
  102c9c:	001021a1 	.word	0x001021a1
  102ca0:	001020e9 	.word	0x001020e9
  102ca4:	001020f9 	.word	0x001020f9
  102ca8:	00102229 	.word	0x00102229
  102cac:	001026d5 	.word	0x001026d5
  102cb0:	00102181 	.word	0x00102181

00102cb4 <crypto_aes_ecb>:
  102cb4:	b570      	push	{r4, r5, r6, lr}
  102cb6:	b086      	sub	sp, #24
  102cb8:	9d0a      	ldr	r5, [sp, #40]	; 0x28
  102cba:	461c      	mov	r4, r3
  102cbc:	f015 030f 	ands.w	r3, r5, #15
  102cc0:	d10b      	bne.n	102cda <crypto_aes_ecb+0x26>
  102cc2:	9e0b      	ldr	r6, [sp, #44]	; 0x2c
  102cc4:	9200      	str	r2, [sp, #0]
  102cc6:	e9cd 3603 	strd	r3, r6, [sp, #12]
  102cca:	460a      	mov	r2, r1
  102ccc:	e9cd 4501 	strd	r4, r5, [sp, #4]
  102cd0:	4619      	mov	r1, r3
  102cd2:	f7ff ff7e 	bl	102bd2 <crypto_aes_start>
  102cd6:	b006      	add	sp, #24
  102cd8:	bd70      	pop	{r4, r5, r6, pc}
  102cda:	f06f 0011 	mvn.w	r0, #17
  102cde:	e7fa      	b.n	102cd6 <crypto_aes_ecb+0x22>

00102ce0 <crypto_aes_cbc>:
  102ce0:	b570      	push	{r4, r5, r6, lr}
  102ce2:	b086      	sub	sp, #24
  102ce4:	9d0a      	ldr	r5, [sp, #40]	; 0x28
  102ce6:	460c      	mov	r4, r1
  102ce8:	f015 010f 	ands.w	r1, r5, #15
  102cec:	d10c      	bne.n	102d08 <crypto_aes_cbc+0x28>
  102cee:	9e0c      	ldr	r6, [sp, #48]	; 0x30
  102cf0:	e9cd 2300 	strd	r2, r3, [sp]
  102cf4:	9604      	str	r6, [sp, #16]
  102cf6:	9e0b      	ldr	r6, [sp, #44]	; 0x2c
  102cf8:	2301      	movs	r3, #1
  102cfa:	4622      	mov	r2, r4
  102cfc:	e9cd 5602 	strd	r5, r6, [sp, #8]
  102d00:	f7ff ff67 	bl	102bd2 <crypto_aes_start>
  102d04:	b006      	add	sp, #24
  102d06:	bd70      	pop	{r4, r5, r6, pc}
  102d08:	f06f 0011 	mvn.w	r0, #17
  102d0c:	e7fa      	b.n	102d04 <crypto_aes_cbc+0x24>

00102d0e <crypto_aes_cfb>:
  102d0e:	b510      	push	{r4, lr}
  102d10:	b086      	sub	sp, #24
  102d12:	9c0a      	ldr	r4, [sp, #40]	; 0x28
  102d14:	9200      	str	r2, [sp, #0]
  102d16:	9404      	str	r4, [sp, #16]
  102d18:	9c09      	ldr	r4, [sp, #36]	; 0x24
  102d1a:	460a      	mov	r2, r1
  102d1c:	9403      	str	r4, [sp, #12]
  102d1e:	9c08      	ldr	r4, [sp, #32]
  102d20:	2100      	movs	r1, #0
  102d22:	e9cd 3401 	strd	r3, r4, [sp, #4]
  102d26:	2302      	movs	r3, #2
  102d28:	f7ff ff53 	bl	102bd2 <crypto_aes_start>
  102d2c:	b006      	add	sp, #24
  102d2e:	bd10      	pop	{r4, pc}

00102d30 <crypto_aes_ofb>:
  102d30:	b510      	push	{r4, lr}
  102d32:	b086      	sub	sp, #24
  102d34:	9c0a      	ldr	r4, [sp, #40]	; 0x28
  102d36:	9200      	str	r2, [sp, #0]
  102d38:	9404      	str	r4, [sp, #16]
  102d3a:	9c09      	ldr	r4, [sp, #36]	; 0x24
  102d3c:	460a      	mov	r2, r1
  102d3e:	9403      	str	r4, [sp, #12]
  102d40:	9c08      	ldr	r4, [sp, #32]
  102d42:	2100      	movs	r1, #0
  102d44:	e9cd 3401 	strd	r3, r4, [sp, #4]
  102d48:	2303      	movs	r3, #3
  102d4a:	f7ff ff42 	bl	102bd2 <crypto_aes_start>
  102d4e:	b006      	add	sp, #24
  102d50:	bd10      	pop	{r4, pc}

00102d52 <crypto_aes_ctr>:
  102d52:	b510      	push	{r4, lr}
  102d54:	b086      	sub	sp, #24
  102d56:	9c0a      	ldr	r4, [sp, #40]	; 0x28
  102d58:	9200      	str	r2, [sp, #0]
  102d5a:	9404      	str	r4, [sp, #16]
  102d5c:	9c09      	ldr	r4, [sp, #36]	; 0x24
  102d5e:	460a      	mov	r2, r1
  102d60:	9403      	str	r4, [sp, #12]
  102d62:	9c08      	ldr	r4, [sp, #32]
  102d64:	2100      	movs	r1, #0
  102d66:	e9cd 3401 	strd	r3, r4, [sp, #4]
  102d6a:	2304      	movs	r3, #4
  102d6c:	f7ff ff31 	bl	102bd2 <crypto_aes_start>
  102d70:	b006      	add	sp, #24
  102d72:	bd10      	pop	{r4, pc}

00102d74 <crypto_aes_xts>:
  102d74:	b510      	push	{r4, lr}
  102d76:	2ac0      	cmp	r2, #192	; 0xc0
  102d78:	b086      	sub	sp, #24
  102d7a:	d109      	bne.n	102d90 <crypto_aes_xts+0x1c>
  102d7c:	2002      	movs	r0, #2
  102d7e:	2245      	movs	r2, #69	; 0x45
  102d80:	4b0a      	ldr	r3, [pc, #40]	; (102dac <crypto_aes_xts+0x38>)
  102d82:	490b      	ldr	r1, [pc, #44]	; (102db0 <crypto_aes_xts+0x3c>)
  102d84:	f007 fab6 	bl	10a2f4 <rtk_log_write>
  102d88:	f04f 30ff 	mov.w	r0, #4294967295	; 0xffffffff
  102d8c:	b006      	add	sp, #24
  102d8e:	bd10      	pop	{r4, pc}
  102d90:	9c0b      	ldr	r4, [sp, #44]	; 0x2c
  102d92:	9404      	str	r4, [sp, #16]
  102d94:	9c0a      	ldr	r4, [sp, #40]	; 0x28
  102d96:	9403      	str	r4, [sp, #12]
  102d98:	9c09      	ldr	r4, [sp, #36]	; 0x24
  102d9a:	9402      	str	r4, [sp, #8]
  102d9c:	9c08      	ldr	r4, [sp, #32]
  102d9e:	e9cd 3400 	strd	r3, r4, [sp]
  102da2:	2308      	movs	r3, #8
  102da4:	f7ff ff15 	bl	102bd2 <crypto_aes_start>
  102da8:	e7f0      	b.n	102d8c <crypto_aes_xts+0x18>
  102daa:	bf00      	nop
  102dac:	0010c208 	.word	0x0010c208
  102db0:	0010c159 	.word	0x0010c159

00102db4 <crypto_cmac>:
  102db4:	e92d 41f0 	stmdb	sp!, {r4, r5, r6, r7, r8, lr}
  102db8:	461d      	mov	r5, r3
  102dba:	b086      	sub	sp, #24
  102dbc:	4b17      	ldr	r3, [pc, #92]	; (102e1c <crypto_cmac+0x68>)
  102dbe:	460e      	mov	r6, r1
  102dc0:	4617      	mov	r7, r2
  102dc2:	4680      	mov	r8, r0
  102dc4:	4798      	blx	r3
  102dc6:	f7ff fa1f 	bl	102208 <AES_InitTag>
  102dca:	4b15      	ldr	r3, [pc, #84]	; (102e20 <crypto_cmac+0x6c>)
  102dcc:	4798      	blx	r3
  102dce:	4b15      	ldr	r3, [pc, #84]	; (102e24 <crypto_cmac+0x70>)
  102dd0:	a801      	add	r0, sp, #4
  102dd2:	4798      	blx	r3
  102dd4:	2307      	movs	r3, #7
  102dd6:	9301      	str	r3, [sp, #4]
  102dd8:	2301      	movs	r3, #1
  102dda:	9303      	str	r3, [sp, #12]
  102ddc:	00eb      	lsls	r3, r5, #3
  102dde:	e9cd 3604 	strd	r3, r6, [sp, #16]
  102de2:	a801      	add	r0, sp, #4
  102de4:	4b10      	ldr	r3, [pc, #64]	; (102e28 <crypto_cmac+0x74>)
  102de6:	4798      	blx	r3
  102de8:	4604      	mov	r4, r0
  102dea:	b988      	cbnz	r0, 102e10 <crypto_cmac+0x5c>
  102dec:	4602      	mov	r2, r0
  102dee:	4631      	mov	r1, r6
  102df0:	4640      	mov	r0, r8
  102df2:	f7ff fca1 	bl	102738 <AES_load_key>
  102df6:	4604      	mov	r4, r0
  102df8:	b950      	cbnz	r0, 102e10 <crypto_cmac+0x5c>
  102dfa:	4602      	mov	r2, r0
  102dfc:	4629      	mov	r1, r5
  102dfe:	4638      	mov	r0, r7
  102e00:	4b0a      	ldr	r3, [pc, #40]	; (102e2c <crypto_cmac+0x78>)
  102e02:	4798      	blx	r3
  102e04:	4604      	mov	r4, r0
  102e06:	b918      	cbnz	r0, 102e10 <crypto_cmac+0x5c>
  102e08:	2110      	movs	r1, #16
  102e0a:	980c      	ldr	r0, [sp, #48]	; 0x30
  102e0c:	4b08      	ldr	r3, [pc, #32]	; (102e30 <crypto_cmac+0x7c>)
  102e0e:	4798      	blx	r3
  102e10:	4b08      	ldr	r3, [pc, #32]	; (102e34 <crypto_cmac+0x80>)
  102e12:	4798      	blx	r3
  102e14:	4620      	mov	r0, r4
  102e16:	b006      	add	sp, #24
  102e18:	e8bd 81f0 	ldmia.w	sp!, {r4, r5, r6, r7, r8, pc}
  102e1c:	00102681 	.word	0x00102681
  102e20:	001020bd 	.word	0x001020bd
  102e24:	001020e9 	.word	0x001020e9
  102e28:	001020f9 	.word	0x001020f9
  102e2c:	00102229 	.word	0x00102229
  102e30:	001021c1 	.word	0x001021c1
  102e34:	001026d5 	.word	0x001026d5

00102e38 <crypto_gcm_encrypt_and_tag>:
  102e38:	e92d 4ff8 	stmdb	sp!, {r3, r4, r5, r6, r7, r8, r9, sl, fp, lr}
  102e3c:	461e      	mov	r6, r3
  102e3e:	4b6d      	ldr	r3, [pc, #436]	; (102ff4 <crypto_gcm_encrypt_and_tag+0x1bc>)
  102e40:	4688      	mov	r8, r1
  102e42:	4691      	mov	r9, r2
  102e44:	f8dd b02c 	ldr.w	fp, [sp, #44]	; 0x2c
  102e48:	4605      	mov	r5, r0
  102e4a:	f8dd a034 	ldr.w	sl, [sp, #52]	; 0x34
  102e4e:	4798      	blx	r3
  102e50:	9b0f      	ldr	r3, [sp, #60]	; 0x3c
  102e52:	4604      	mov	r4, r0
  102e54:	f013 0f1f 	tst.w	r3, #31
  102e58:	bf0c      	ite	eq
  102e5a:	2001      	moveq	r0, #1
  102e5c:	2000      	movne	r0, #0
  102e5e:	4b66      	ldr	r3, [pc, #408]	; (102ff8 <crypto_gcm_encrypt_and_tag+0x1c0>)
  102e60:	4798      	blx	r3
  102e62:	f016 0f1f 	tst.w	r6, #31
  102e66:	bf0c      	ite	eq
  102e68:	2001      	moveq	r0, #1
  102e6a:	2000      	movne	r0, #0
  102e6c:	4b63      	ldr	r3, [pc, #396]	; (102ffc <crypto_gcm_encrypt_and_tag+0x1c4>)
  102e6e:	4798      	blx	r3
  102e70:	f1bb 0f00 	cmp.w	fp, #0
  102e74:	f000 80b7 	beq.w	102fe6 <crypto_gcm_encrypt_and_tag+0x1ae>
  102e78:	9b10      	ldr	r3, [sp, #64]	; 0x40
  102e7a:	3b04      	subs	r3, #4
  102e7c:	2b0c      	cmp	r3, #12
  102e7e:	f200 80b5 	bhi.w	102fec <crypto_gcm_encrypt_and_tag+0x1b4>
  102e82:	2700      	movs	r7, #0
  102e84:	4b5e      	ldr	r3, [pc, #376]	; (103000 <crypto_gcm_encrypt_and_tag+0x1c8>)
  102e86:	4798      	blx	r3
  102e88:	f7ff f9be 	bl	102208 <AES_InitTag>
  102e8c:	67a7      	str	r7, [r4, #120]	; 0x78
  102e8e:	4a5d      	ldr	r2, [pc, #372]	; (103004 <crypto_gcm_encrypt_and_tag+0x1cc>)
  102e90:	67e7      	str	r7, [r4, #124]	; 0x7c
  102e92:	6767      	str	r7, [r4, #116]	; 0x74
  102e94:	4790      	blx	r2
  102e96:	f1b8 0fc0 	cmp.w	r8, #192	; 0xc0
  102e9a:	6727      	str	r7, [r4, #112]	; 0x70
  102e9c:	d02d      	beq.n	102efa <crypto_gcm_encrypt_and_tag+0xc2>
  102e9e:	f5b8 7f80 	cmp.w	r8, #256	; 0x100
  102ea2:	d02e      	beq.n	102f02 <crypto_gcm_encrypt_and_tag+0xca>
  102ea4:	f1b8 0f80 	cmp.w	r8, #128	; 0x80
  102ea8:	f040 809a 	bne.w	102fe0 <crypto_gcm_encrypt_and_tag+0x1a8>
  102eac:	6f23      	ldr	r3, [r4, #112]	; 0x70
  102eae:	4628      	mov	r0, r5
  102eb0:	2200      	movs	r2, #0
  102eb2:	4641      	mov	r1, r8
  102eb4:	6723      	str	r3, [r4, #112]	; 0x70
  102eb6:	f7ff fc3f 	bl	102738 <AES_load_key>
  102eba:	4605      	mov	r5, r0
  102ebc:	2800      	cmp	r0, #0
  102ebe:	d140      	bne.n	102f42 <crypto_gcm_encrypt_and_tag+0x10a>
  102ec0:	4659      	mov	r1, fp
  102ec2:	980a      	ldr	r0, [sp, #40]	; 0x28
  102ec4:	f7ff fb60 	bl	102588 <AES_GCM_Set_Iv>
  102ec8:	f7ff f8e2 	bl	102090 <AES_Set_SCA_Mask>
  102ecc:	f1ba 0f00 	cmp.w	sl, #0
  102ed0:	d01b      	beq.n	102f0a <crypto_gcm_encrypt_and_tag+0xd2>
  102ed2:	ea4f 03ca 	mov.w	r3, sl, lsl #3
  102ed6:	67e3      	str	r3, [r4, #124]	; 0x7c
  102ed8:	6f23      	ldr	r3, [r4, #112]	; 0x70
  102eda:	462a      	mov	r2, r5
  102edc:	f423 7307 	bic.w	r3, r3, #540	; 0x21c
  102ee0:	f023 0302 	bic.w	r3, r3, #2
  102ee4:	f043 038b 	orr.w	r3, r3, #139	; 0x8b
  102ee8:	6723      	str	r3, [r4, #112]	; 0x70
  102eea:	4651      	mov	r1, sl
  102eec:	980c      	ldr	r0, [sp, #48]	; 0x30
  102eee:	4b46      	ldr	r3, [pc, #280]	; (103008 <crypto_gcm_encrypt_and_tag+0x1d0>)
  102ef0:	4798      	blx	r3
  102ef2:	2800      	cmp	r0, #0
  102ef4:	d039      	beq.n	102f6a <crypto_gcm_encrypt_and_tag+0x132>
  102ef6:	4605      	mov	r5, r0
  102ef8:	e023      	b.n	102f42 <crypto_gcm_encrypt_and_tag+0x10a>
  102efa:	6f23      	ldr	r3, [r4, #112]	; 0x70
  102efc:	f043 0320 	orr.w	r3, r3, #32
  102f00:	e7d5      	b.n	102eae <crypto_gcm_encrypt_and_tag+0x76>
  102f02:	6f23      	ldr	r3, [r4, #112]	; 0x70
  102f04:	f043 0340 	orr.w	r3, r3, #64	; 0x40
  102f08:	e7d1      	b.n	102eae <crypto_gcm_encrypt_and_tag+0x76>
  102f0a:	f1bb 0f0c 	cmp.w	fp, #12
  102f0e:	d12c      	bne.n	102f6a <crypto_gcm_encrypt_and_tag+0x132>
  102f10:	6f23      	ldr	r3, [r4, #112]	; 0x70
  102f12:	2001      	movs	r0, #1
  102f14:	f023 031f 	bic.w	r3, r3, #31
  102f18:	f043 0380 	orr.w	r3, r3, #128	; 0x80
  102f1c:	6723      	str	r3, [r4, #112]	; 0x70
  102f1e:	f8c4 5ef4 	str.w	r5, [r4, #3828]	; 0xef4
  102f22:	4b3a      	ldr	r3, [pc, #232]	; (10300c <crypto_gcm_encrypt_and_tag+0x1d4>)
  102f24:	6025      	str	r5, [r4, #0]
  102f26:	6065      	str	r5, [r4, #4]
  102f28:	60a5      	str	r5, [r4, #8]
  102f2a:	60e5      	str	r5, [r4, #12]
  102f2c:	4798      	blx	r3
  102f2e:	f242 7310 	movw	r3, #10000	; 0x2710
  102f32:	f8d4 2ef8 	ldr.w	r2, [r4, #3832]	; 0xef8
  102f36:	07d1      	lsls	r1, r2, #31
  102f38:	d408      	bmi.n	102f4c <crypto_gcm_encrypt_and_tag+0x114>
  102f3a:	3b01      	subs	r3, #1
  102f3c:	d1f9      	bne.n	102f32 <crypto_gcm_encrypt_and_tag+0xfa>
  102f3e:	f06f 0514 	mvn.w	r5, #20
  102f42:	4b33      	ldr	r3, [pc, #204]	; (103010 <crypto_gcm_encrypt_and_tag+0x1d8>)
  102f44:	4798      	blx	r3
  102f46:	4628      	mov	r0, r5
  102f48:	e8bd 8ff8 	ldmia.w	sp!, {r3, r4, r5, r6, r7, r8, r9, sl, fp, pc}
  102f4c:	2301      	movs	r3, #1
  102f4e:	f8c4 3efc 	str.w	r3, [r4, #3836]	; 0xefc
  102f52:	6923      	ldr	r3, [r4, #16]
  102f54:	f8c4 3090 	str.w	r3, [r4, #144]	; 0x90
  102f58:	6963      	ldr	r3, [r4, #20]
  102f5a:	f8c4 3094 	str.w	r3, [r4, #148]	; 0x94
  102f5e:	69a3      	ldr	r3, [r4, #24]
  102f60:	f8c4 3098 	str.w	r3, [r4, #152]	; 0x98
  102f64:	69e3      	ldr	r3, [r4, #28]
  102f66:	f8c4 309c 	str.w	r3, [r4, #156]	; 0x9c
  102f6a:	b1de      	cbz	r6, 102fa4 <crypto_gcm_encrypt_and_tag+0x16c>
  102f6c:	00f3      	lsls	r3, r6, #3
  102f6e:	6763      	str	r3, [r4, #116]	; 0x74
  102f70:	6f23      	ldr	r3, [r4, #112]	; 0x70
  102f72:	f1b9 0f00 	cmp.w	r9, #0
  102f76:	f023 021e 	bic.w	r2, r3, #30
  102f7a:	f042 028d 	orr.w	r2, r2, #141	; 0x8d
  102f7e:	f023 039e 	bic.w	r3, r3, #158	; 0x9e
  102f82:	f043 030d 	orr.w	r3, r3, #13
  102f86:	bf18      	it	ne
  102f88:	4613      	movne	r3, r2
  102f8a:	4631      	mov	r1, r6
  102f8c:	6723      	str	r3, [r4, #112]	; 0x70
  102f8e:	9a0f      	ldr	r2, [sp, #60]	; 0x3c
  102f90:	980e      	ldr	r0, [sp, #56]	; 0x38
  102f92:	4b1d      	ldr	r3, [pc, #116]	; (103008 <crypto_gcm_encrypt_and_tag+0x1d0>)
  102f94:	4798      	blx	r3
  102f96:	2800      	cmp	r0, #0
  102f98:	d1ad      	bne.n	102ef6 <crypto_gcm_encrypt_and_tag+0xbe>
  102f9a:	e9dd 1010 	ldrd	r1, r0, [sp, #64]	; 0x40
  102f9e:	4b1d      	ldr	r3, [pc, #116]	; (103014 <crypto_gcm_encrypt_and_tag+0x1dc>)
  102fa0:	4798      	blx	r3
  102fa2:	e7ce      	b.n	102f42 <crypto_gcm_encrypt_and_tag+0x10a>
  102fa4:	6f23      	ldr	r3, [r4, #112]	; 0x70
  102fa6:	2001      	movs	r0, #1
  102fa8:	f023 031f 	bic.w	r3, r3, #31
  102fac:	f443 3380 	orr.w	r3, r3, #65536	; 0x10000
  102fb0:	f043 030c 	orr.w	r3, r3, #12
  102fb4:	6723      	str	r3, [r4, #112]	; 0x70
  102fb6:	f8c4 6ef4 	str.w	r6, [r4, #3828]	; 0xef4
  102fba:	4b14      	ldr	r3, [pc, #80]	; (10300c <crypto_gcm_encrypt_and_tag+0x1d4>)
  102fbc:	6026      	str	r6, [r4, #0]
  102fbe:	6066      	str	r6, [r4, #4]
  102fc0:	60a6      	str	r6, [r4, #8]
  102fc2:	60e6      	str	r6, [r4, #12]
  102fc4:	4798      	blx	r3
  102fc6:	f242 7310 	movw	r3, #10000	; 0x2710
  102fca:	f8d4 2ef8 	ldr.w	r2, [r4, #3832]	; 0xef8
  102fce:	07d2      	lsls	r2, r2, #31
  102fd0:	d402      	bmi.n	102fd8 <crypto_gcm_encrypt_and_tag+0x1a0>
  102fd2:	3b01      	subs	r3, #1
  102fd4:	d1f9      	bne.n	102fca <crypto_gcm_encrypt_and_tag+0x192>
  102fd6:	e7b2      	b.n	102f3e <crypto_gcm_encrypt_and_tag+0x106>
  102fd8:	2301      	movs	r3, #1
  102fda:	f8c4 3efc 	str.w	r3, [r4, #3836]	; 0xefc
  102fde:	e7dc      	b.n	102f9a <crypto_gcm_encrypt_and_tag+0x162>
  102fe0:	f06f 050e 	mvn.w	r5, #14
  102fe4:	e7ad      	b.n	102f42 <crypto_gcm_encrypt_and_tag+0x10a>
  102fe6:	f06f 0508 	mvn.w	r5, #8
  102fea:	e7ac      	b.n	102f46 <crypto_gcm_encrypt_and_tag+0x10e>
  102fec:	f06f 0512 	mvn.w	r5, #18
  102ff0:	e7a9      	b.n	102f46 <crypto_gcm_encrypt_and_tag+0x10e>
  102ff2:	bf00      	nop
  102ff4:	00102009 	.word	0x00102009
  102ff8:	00103ee1 	.word	0x00103ee1
  102ffc:	00103f11 	.word	0x00103f11
  103000:	00102681 	.word	0x00102681
  103004:	001020bd 	.word	0x001020bd
  103008:	00102229 	.word	0x00102229
  10300c:	00102161 	.word	0x00102161
  103010:	001026d5 	.word	0x001026d5
  103014:	001021c1 	.word	0x001021c1

00103018 <crypto_gcm_auth_decrypt>:
  103018:	e92d 41f0 	stmdb	sp!, {r4, r5, r6, r7, r8, lr}
  10301c:	4615      	mov	r5, r2
  10301e:	2200      	movs	r2, #0
  103020:	b08c      	sub	sp, #48	; 0x30
  103022:	e9dd 6716 	ldrd	r6, r7, [sp, #88]	; 0x58
  103026:	1f3c      	subs	r4, r7, #4
  103028:	2c0c      	cmp	r4, #12
  10302a:	e9cd 2208 	strd	r2, r2, [sp, #32]
  10302e:	e9cd 220a 	strd	r2, r2, [sp, #40]	; 0x28
  103032:	d851      	bhi.n	1030d8 <crypto_gcm_auth_decrypt+0xc0>
  103034:	9c15      	ldr	r4, [sp, #84]	; 0x54
  103036:	f10d 0820 	add.w	r8, sp, #32
  10303a:	9404      	str	r4, [sp, #16]
  10303c:	9c14      	ldr	r4, [sp, #80]	; 0x50
  10303e:	e9cd 7806 	strd	r7, r8, [sp, #24]
  103042:	9403      	str	r4, [sp, #12]
  103044:	9c13      	ldr	r4, [sp, #76]	; 0x4c
  103046:	9605      	str	r6, [sp, #20]
  103048:	9402      	str	r4, [sp, #8]
  10304a:	9c12      	ldr	r4, [sp, #72]	; 0x48
  10304c:	e9cd 3400 	strd	r3, r4, [sp]
  103050:	4c34      	ldr	r4, [pc, #208]	; (103124 <crypto_gcm_auth_decrypt+0x10c>)
  103052:	462b      	mov	r3, r5
  103054:	47a0      	blx	r4
  103056:	4604      	mov	r4, r0
  103058:	b940      	cbnz	r0, 10306c <crypto_gcm_auth_decrypt+0x54>
  10305a:	463a      	mov	r2, r7
  10305c:	4641      	mov	r1, r8
  10305e:	9818      	ldr	r0, [sp, #96]	; 0x60
  103060:	4b31      	ldr	r3, [pc, #196]	; (103128 <crypto_gcm_auth_decrypt+0x110>)
  103062:	4798      	blx	r3
  103064:	4604      	mov	r4, r0
  103066:	b398      	cbz	r0, 1030d0 <crypto_gcm_auth_decrypt+0xb8>
  103068:	f06f 0413 	mvn.w	r4, #19
  10306c:	462a      	mov	r2, r5
  10306e:	4b2f      	ldr	r3, [pc, #188]	; (10312c <crypto_gcm_auth_decrypt+0x114>)
  103070:	2100      	movs	r1, #0
  103072:	4630      	mov	r0, r6
  103074:	4798      	blx	r3
  103076:	4a2e      	ldr	r2, [pc, #184]	; (103130 <crypto_gcm_auth_decrypt+0x118>)
  103078:	6953      	ldr	r3, [r2, #20]
  10307a:	03df      	lsls	r7, r3, #15
  10307c:	d528      	bpl.n	1030d0 <crypto_gcm_auth_decrypt+0xb8>
  10307e:	1c70      	adds	r0, r6, #1
  103080:	4631      	mov	r1, r6
  103082:	d12c      	bne.n	1030de <crypto_gcm_auth_decrypt+0xc6>
  103084:	1c6b      	adds	r3, r5, #1
  103086:	d14b      	bne.n	103120 <crypto_gcm_auth_decrypt+0x108>
  103088:	2300      	movs	r3, #0
  10308a:	f8c2 3084 	str.w	r3, [r2, #132]	; 0x84
  10308e:	f3bf 8f4f 	dsb	sy
  103092:	f643 75e0 	movw	r5, #16352	; 0x3fe0
  103096:	f8d2 3080 	ldr.w	r3, [r2, #128]	; 0x80
  10309a:	f3c3 00c9 	ubfx	r0, r3, #3, #10
  10309e:	f3c3 334e 	ubfx	r3, r3, #13, #15
  1030a2:	015b      	lsls	r3, r3, #5
  1030a4:	f100 0e01 	add.w	lr, r0, #1
  1030a8:	4601      	mov	r1, r0
  1030aa:	f04e e001 	dls	lr, lr
  1030ae:	ea03 0705 	and.w	r7, r3, r5
  1030b2:	ea47 7681 	orr.w	r6, r7, r1, lsl #30
  1030b6:	f8c2 6274 	str.w	r6, [r2, #628]	; 0x274
  1030ba:	3901      	subs	r1, #1
  1030bc:	f00f c807 	le	lr, 1030b2 <crypto_gcm_auth_decrypt+0x9a>
  1030c0:	3b20      	subs	r3, #32
  1030c2:	f113 0f20 	cmn.w	r3, #32
  1030c6:	d1ed      	bne.n	1030a4 <crypto_gcm_auth_decrypt+0x8c>
  1030c8:	f3bf 8f4f 	dsb	sy
  1030cc:	f3bf 8f6f 	isb	sy
  1030d0:	4620      	mov	r0, r4
  1030d2:	b00c      	add	sp, #48	; 0x30
  1030d4:	e8bd 81f0 	ldmia.w	sp!, {r4, r5, r6, r7, r8, pc}
  1030d8:	f06f 0412 	mvn.w	r4, #18
  1030dc:	e7c6      	b.n	10306c <crypto_gcm_auth_decrypt+0x54>
  1030de:	f016 031f 	ands.w	r3, r6, #31
  1030e2:	d002      	beq.n	1030ea <crypto_gcm_auth_decrypt+0xd2>
  1030e4:	f026 011f 	bic.w	r1, r6, #31
  1030e8:	441d      	add	r5, r3
  1030ea:	2d00      	cmp	r5, #0
  1030ec:	ddf0      	ble.n	1030d0 <crypto_gcm_auth_decrypt+0xb8>
  1030ee:	f001 021f 	and.w	r2, r1, #31
  1030f2:	442a      	add	r2, r5
  1030f4:	f3bf 8f4f 	dsb	sy
  1030f8:	43cb      	mvns	r3, r1
  1030fa:	188d      	adds	r5, r1, r2
  1030fc:	442b      	add	r3, r5
  1030fe:	3a20      	subs	r2, #32
  103100:	095b      	lsrs	r3, r3, #5
  103102:	3220      	adds	r2, #32
  103104:	f103 0e01 	add.w	lr, r3, #1
  103108:	bfd8      	it	le
  10310a:	f04f 0e01 	movle.w	lr, #1
  10310e:	f04e e001 	dls	lr, lr
  103112:	4807      	ldr	r0, [pc, #28]	; (103130 <crypto_gcm_auth_decrypt+0x118>)
  103114:	f8c0 1270 	str.w	r1, [r0, #624]	; 0x270
  103118:	3120      	adds	r1, #32
  10311a:	f00f c805 	le	lr, 103114 <crypto_gcm_auth_decrypt+0xfc>
  10311e:	e7d3      	b.n	1030c8 <crypto_gcm_auth_decrypt+0xb0>
  103120:	231f      	movs	r3, #31
  103122:	e7df      	b.n	1030e4 <crypto_gcm_auth_decrypt+0xcc>
  103124:	00102e39 	.word	0x00102e39
  103128:	001012f9 	.word	0x001012f9
  10312c:	001014f9 	.word	0x001014f9
  103130:	e000ed00 	.word	0xe000ed00

00103134 <SHA2_Get_SHA_Addr>:
  103134:	4b04      	ldr	r3, [pc, #16]	; (103148 <SHA2_Get_SHA_Addr+0x14>)
  103136:	e843 f300 	tt	r3, r3
  10313a:	f413 0f80 	tst.w	r3, #4194304	; 0x400000
  10313e:	4b03      	ldr	r3, [pc, #12]	; (10314c <SHA2_Get_SHA_Addr+0x18>)
  103140:	4803      	ldr	r0, [pc, #12]	; (103150 <SHA2_Get_SHA_Addr+0x1c>)
  103142:	bf18      	it	ne
  103144:	4618      	movne	r0, r3
  103146:	4770      	bx	lr
  103148:	0010a1e9 	.word	0x0010a1e9
  10314c:	50124000 	.word	0x50124000
  103150:	40124000 	.word	0x40124000

00103154 <SHA2_get_km_hmac_addr>:
  103154:	4b04      	ldr	r3, [pc, #16]	; (103168 <SHA2_get_km_hmac_addr+0x14>)
  103156:	e843 f300 	tt	r3, r3
  10315a:	f413 0f80 	tst.w	r3, #4194304	; 0x400000
  10315e:	4b03      	ldr	r3, [pc, #12]	; (10316c <SHA2_get_km_hmac_addr+0x18>)
  103160:	4803      	ldr	r0, [pc, #12]	; (103170 <SHA2_get_km_hmac_addr+0x1c>)
  103162:	bf18      	it	ne
  103164:	4618      	movne	r0, r3
  103166:	4770      	bx	lr
  103168:	0010a1e9 	.word	0x0010a1e9
  10316c:	50814000 	.word	0x50814000
  103170:	40814000 	.word	0x40814000

00103174 <SHA2_Get_DMA_Addr>:
  103174:	4b04      	ldr	r3, [pc, #16]	; (103188 <SHA2_Get_DMA_Addr+0x14>)
  103176:	e843 f300 	tt	r3, r3
  10317a:	f413 0f80 	tst.w	r3, #4194304	; 0x400000
  10317e:	4b03      	ldr	r3, [pc, #12]	; (10318c <SHA2_Get_DMA_Addr+0x18>)
  103180:	4803      	ldr	r0, [pc, #12]	; (103190 <SHA2_Get_DMA_Addr+0x1c>)
  103182:	bf18      	it	ne
  103184:	4618      	movne	r0, r3
  103186:	4770      	bx	lr
  103188:	0010a1e9 	.word	0x0010a1e9
  10318c:	50125000 	.word	0x50125000
  103190:	40125000 	.word	0x40125000

00103194 <SHA2_Restore>:
  103194:	b538      	push	{r3, r4, r5, lr}
  103196:	4b23      	ldr	r3, [pc, #140]	; (103224 <SHA2_Restore+0x90>)
  103198:	4604      	mov	r4, r0
  10319a:	4798      	blx	r3
  10319c:	4b22      	ldr	r3, [pc, #136]	; (103228 <SHA2_Restore+0x94>)
  10319e:	4605      	mov	r5, r0
  1031a0:	4798      	blx	r3
  1031a2:	4602      	mov	r2, r0
  1031a4:	b91c      	cbnz	r4, 1031ae <SHA2_Restore+0x1a>
  1031a6:	2144      	movs	r1, #68	; 0x44
  1031a8:	4820      	ldr	r0, [pc, #128]	; (10322c <SHA2_Restore+0x98>)
  1031aa:	f002 f943 	bl	105434 <io_assert_failed>
  1031ae:	f8d4 30f0 	ldr.w	r3, [r4, #240]	; 0xf0
  1031b2:	672b      	str	r3, [r5, #112]	; 0x70
  1031b4:	f8d4 30e4 	ldr.w	r3, [r4, #228]	; 0xe4
  1031b8:	f8c0 308c 	str.w	r3, [r0, #140]	; 0x8c
  1031bc:	6801      	ldr	r1, [r0, #0]
  1031be:	6823      	ldr	r3, [r4, #0]
  1031c0:	f021 0103 	bic.w	r1, r1, #3
  1031c4:	f003 0303 	and.w	r3, r3, #3
  1031c8:	430b      	orrs	r3, r1
  1031ca:	6861      	ldr	r1, [r4, #4]
  1031cc:	2901      	cmp	r1, #1
  1031ce:	d123      	bne.n	103218 <SHA2_Restore+0x84>
  1031d0:	f8d4 10ec 	ldr.w	r1, [r4, #236]	; 0xec
  1031d4:	f423 7340 	bic.w	r3, r3, #768	; 0x300
  1031d8:	29c0      	cmp	r1, #192	; 0xc0
  1031da:	d017      	beq.n	10320c <SHA2_Restore+0x78>
  1031dc:	f5b1 7f80 	cmp.w	r1, #256	; 0x100
  1031e0:	d017      	beq.n	103212 <SHA2_Restore+0x7e>
  1031e2:	2980      	cmp	r1, #128	; 0x80
  1031e4:	d11b      	bne.n	10321e <SHA2_Restore+0x8a>
  1031e6:	f043 0310 	orr.w	r3, r3, #16
  1031ea:	f04f 0e10 	mov.w	lr, #16
  1031ee:	6013      	str	r3, [r2, #0]
  1031f0:	f04e e001 	dls	lr, lr
  1031f4:	2300      	movs	r3, #0
  1031f6:	3410      	adds	r4, #16
  1031f8:	f854 0f04 	ldr.w	r0, [r4, #4]!
  1031fc:	1d19      	adds	r1, r3, #4
  1031fe:	f842 0021 	str.w	r0, [r2, r1, lsl #2]
  103202:	3301      	adds	r3, #1
  103204:	f00f c009 	le	lr, 1031f8 <SHA2_Restore+0x64>
  103208:	2000      	movs	r0, #0
  10320a:	bd38      	pop	{r3, r4, r5, pc}
  10320c:	f443 7388 	orr.w	r3, r3, #272	; 0x110
  103210:	e7eb      	b.n	1031ea <SHA2_Restore+0x56>
  103212:	f443 7304 	orr.w	r3, r3, #528	; 0x210
  103216:	e7e8      	b.n	1031ea <SHA2_Restore+0x56>
  103218:	f023 0310 	bic.w	r3, r3, #16
  10321c:	e7e5      	b.n	1031ea <SHA2_Restore+0x56>
  10321e:	f04f 30ff 	mov.w	r0, #4294967295	; 0xffffffff
  103222:	e7f2      	b.n	10320a <SHA2_Restore+0x76>
  103224:	00103175 	.word	0x00103175
  103228:	00103135 	.word	0x00103135
  10322c:	0010c217 	.word	0x0010c217

00103230 <SHA2_Save>:
  103230:	b538      	push	{r3, r4, r5, lr}
  103232:	4b10      	ldr	r3, [pc, #64]	; (103274 <SHA2_Save+0x44>)
  103234:	4604      	mov	r4, r0
  103236:	4798      	blx	r3
  103238:	4b0f      	ldr	r3, [pc, #60]	; (103278 <SHA2_Save+0x48>)
  10323a:	4605      	mov	r5, r0
  10323c:	4798      	blx	r3
  10323e:	b91c      	cbnz	r4, 103248 <SHA2_Save+0x18>
  103240:	2177      	movs	r1, #119	; 0x77
  103242:	480e      	ldr	r0, [pc, #56]	; (10327c <SHA2_Save+0x4c>)
  103244:	f002 f8f6 	bl	105434 <io_assert_failed>
  103248:	f04f 0e10 	mov.w	lr, #16
  10324c:	6f2b      	ldr	r3, [r5, #112]	; 0x70
  10324e:	f04e e001 	dls	lr, lr
  103252:	f8c4 30f0 	str.w	r3, [r4, #240]	; 0xf0
  103256:	f8d0 308c 	ldr.w	r3, [r0, #140]	; 0x8c
  10325a:	3410      	adds	r4, #16
  10325c:	f8c4 30d4 	str.w	r3, [r4, #212]	; 0xd4
  103260:	2300      	movs	r3, #0
  103262:	1d1a      	adds	r2, r3, #4
  103264:	f850 2022 	ldr.w	r2, [r0, r2, lsl #2]
  103268:	3301      	adds	r3, #1
  10326a:	f844 2f04 	str.w	r2, [r4, #4]!
  10326e:	f00f c009 	le	lr, 103262 <SHA2_Save+0x32>
  103272:	bd38      	pop	{r3, r4, r5, pc}
  103274:	00103175 	.word	0x00103175
  103278:	00103135 	.word	0x00103135
  10327c:	0010c217 	.word	0x0010c217

00103280 <SHA2_Get_Final_Digest>:
  103280:	b538      	push	{r3, r4, r5, lr}
  103282:	4b43      	ldr	r3, [pc, #268]	; (103390 <SHA2_Get_Final_Digest+0x110>)
  103284:	4605      	mov	r5, r0
  103286:	460c      	mov	r4, r1
  103288:	4798      	blx	r3
  10328a:	4603      	mov	r3, r0
  10328c:	b91d      	cbnz	r5, 103296 <SHA2_Get_Final_Digest+0x16>
  10328e:	2188      	movs	r1, #136	; 0x88
  103290:	4840      	ldr	r0, [pc, #256]	; (103394 <SHA2_Get_Final_Digest+0x114>)
  103292:	f002 f8cf 	bl	105434 <io_assert_failed>
  103296:	b90c      	cbnz	r4, 10329c <SHA2_Get_Final_Digest+0x1c>
  103298:	2189      	movs	r1, #137	; 0x89
  10329a:	e7f9      	b.n	103290 <SHA2_Get_Final_Digest+0x10>
  10329c:	682a      	ldr	r2, [r5, #0]
  10329e:	2a03      	cmp	r2, #3
  1032a0:	d873      	bhi.n	10338a <SHA2_Get_Final_Digest+0x10a>
  1032a2:	e8df f002 	tbb	[pc, r2]
  1032a6:	2102      	.short	0x2102
  1032a8:	573c      	.short	0x573c
  1032aa:	f1c2 0e0c 	rsb	lr, r2, #12
  1032ae:	ea4f 0e5e 	mov.w	lr, lr, lsr #1
  1032b2:	f10e 0e01 	add.w	lr, lr, #1
  1032b6:	4621      	mov	r1, r4
  1032b8:	f04e e001 	dls	lr, lr
  1032bc:	eb03 0082 	add.w	r0, r3, r2, lsl #2
  1032c0:	6904      	ldr	r4, [r0, #16]
  1032c2:	3202      	adds	r2, #2
  1032c4:	0e24      	lsrs	r4, r4, #24
  1032c6:	700c      	strb	r4, [r1, #0]
  1032c8:	6904      	ldr	r4, [r0, #16]
  1032ca:	3104      	adds	r1, #4
  1032cc:	0c24      	lsrs	r4, r4, #16
  1032ce:	f801 4c03 	strb.w	r4, [r1, #-3]
  1032d2:	6904      	ldr	r4, [r0, #16]
  1032d4:	0a24      	lsrs	r4, r4, #8
  1032d6:	f801 4c02 	strb.w	r4, [r1, #-2]
  1032da:	6900      	ldr	r0, [r0, #16]
  1032dc:	f801 0c01 	strb.w	r0, [r1, #-1]
  1032e0:	f00f c015 	le	lr, 1032bc <SHA2_Get_Final_Digest+0x3c>
  1032e4:	2000      	movs	r0, #0
  1032e6:	bd38      	pop	{r3, r4, r5, pc}
  1032e8:	f04f 0e08 	mov.w	lr, #8
  1032ec:	4621      	mov	r1, r4
  1032ee:	2000      	movs	r0, #0
  1032f0:	f04e e001 	dls	lr, lr
  1032f4:	eb03 0280 	add.w	r2, r3, r0, lsl #2
  1032f8:	6914      	ldr	r4, [r2, #16]
  1032fa:	3002      	adds	r0, #2
  1032fc:	0e24      	lsrs	r4, r4, #24
  1032fe:	700c      	strb	r4, [r1, #0]
  103300:	6914      	ldr	r4, [r2, #16]
  103302:	3104      	adds	r1, #4
  103304:	0c24      	lsrs	r4, r4, #16
  103306:	f801 4c03 	strb.w	r4, [r1, #-3]
  10330a:	6914      	ldr	r4, [r2, #16]
  10330c:	0a24      	lsrs	r4, r4, #8
  10330e:	f801 4c02 	strb.w	r4, [r1, #-2]
  103312:	6912      	ldr	r2, [r2, #16]
  103314:	f801 2c01 	strb.w	r2, [r1, #-1]
  103318:	f00f c015 	le	lr, 1032f4 <SHA2_Get_Final_Digest+0x74>
  10331c:	e7e2      	b.n	1032e4 <SHA2_Get_Final_Digest+0x64>
  10331e:	f04f 0e0c 	mov.w	lr, #12
  103322:	4621      	mov	r1, r4
  103324:	2000      	movs	r0, #0
  103326:	f04e e001 	dls	lr, lr
  10332a:	eb03 0280 	add.w	r2, r3, r0, lsl #2
  10332e:	6914      	ldr	r4, [r2, #16]
  103330:	3001      	adds	r0, #1
  103332:	0e24      	lsrs	r4, r4, #24
  103334:	700c      	strb	r4, [r1, #0]
  103336:	6914      	ldr	r4, [r2, #16]
  103338:	3104      	adds	r1, #4
  10333a:	0c24      	lsrs	r4, r4, #16
  10333c:	f801 4c03 	strb.w	r4, [r1, #-3]
  103340:	6914      	ldr	r4, [r2, #16]
  103342:	0a24      	lsrs	r4, r4, #8
  103344:	f801 4c02 	strb.w	r4, [r1, #-2]
  103348:	6912      	ldr	r2, [r2, #16]
  10334a:	f801 2c01 	strb.w	r2, [r1, #-1]
  10334e:	f00f c015 	le	lr, 10332a <SHA2_Get_Final_Digest+0xaa>
  103352:	e7c7      	b.n	1032e4 <SHA2_Get_Final_Digest+0x64>
  103354:	f04f 0e10 	mov.w	lr, #16
  103358:	4621      	mov	r1, r4
  10335a:	2000      	movs	r0, #0
  10335c:	f04e e001 	dls	lr, lr
  103360:	eb03 0280 	add.w	r2, r3, r0, lsl #2
  103364:	6914      	ldr	r4, [r2, #16]
  103366:	3001      	adds	r0, #1
  103368:	0e24      	lsrs	r4, r4, #24
  10336a:	700c      	strb	r4, [r1, #0]
  10336c:	6914      	ldr	r4, [r2, #16]
  10336e:	3104      	adds	r1, #4
  103370:	0c24      	lsrs	r4, r4, #16
  103372:	f801 4c03 	strb.w	r4, [r1, #-3]
  103376:	6914      	ldr	r4, [r2, #16]
  103378:	0a24      	lsrs	r4, r4, #8
  10337a:	f801 4c02 	strb.w	r4, [r1, #-2]
  10337e:	6912      	ldr	r2, [r2, #16]
  103380:	f801 2c01 	strb.w	r2, [r1, #-1]
  103384:	f00f c015 	le	lr, 103360 <SHA2_Get_Final_Digest+0xe0>
  103388:	e7ac      	b.n	1032e4 <SHA2_Get_Final_Digest+0x64>
  10338a:	f04f 30ff 	mov.w	r0, #4294967295	; 0xffffffff
  10338e:	e7aa      	b.n	1032e6 <SHA2_Get_Final_Digest+0x66>
  103390:	00103135 	.word	0x00103135
  103394:	0010c217 	.word	0x0010c217

00103398 <SHA_StructInit>:
  103398:	2300      	movs	r3, #0
  10339a:	2201      	movs	r2, #1
  10339c:	60c3      	str	r3, [r0, #12]
  10339e:	e9c0 2301 	strd	r2, r3, [r0, #4]
  1033a2:	6003      	str	r3, [r0, #0]
  1033a4:	4770      	bx	lr

001033a6 <SHA2_Init>:
  1033a6:	b570      	push	{r4, r5, r6, lr}
  1033a8:	4605      	mov	r5, r0
  1033aa:	4b28      	ldr	r3, [pc, #160]	; (10344c <SHA2_Init+0xa6>)
  1033ac:	460c      	mov	r4, r1
  1033ae:	4798      	blx	r3
  1033b0:	6829      	ldr	r1, [r5, #0]
  1033b2:	2901      	cmp	r1, #1
  1033b4:	d903      	bls.n	1033be <SHA2_Init+0x18>
  1033b6:	21b7      	movs	r1, #183	; 0xb7
  1033b8:	4825      	ldr	r0, [pc, #148]	; (103450 <SHA2_Init+0xaa>)
  1033ba:	f002 f83b 	bl	105434 <io_assert_failed>
  1033be:	68aa      	ldr	r2, [r5, #8]
  1033c0:	2a01      	cmp	r2, #1
  1033c2:	d901      	bls.n	1033c8 <SHA2_Init+0x22>
  1033c4:	21b8      	movs	r1, #184	; 0xb8
  1033c6:	e7f7      	b.n	1033b8 <SHA2_Init+0x12>
  1033c8:	6803      	ldr	r3, [r0, #0]
  1033ca:	2901      	cmp	r1, #1
  1033cc:	f023 0377 	bic.w	r3, r3, #119	; 0x77
  1033d0:	f043 0640 	orr.w	r6, r3, #64	; 0x40
  1033d4:	bf08      	it	eq
  1033d6:	4633      	moveq	r3, r6
  1033d8:	686e      	ldr	r6, [r5, #4]
  1033da:	f043 0120 	orr.w	r1, r3, #32
  1033de:	2e01      	cmp	r6, #1
  1033e0:	bf08      	it	eq
  1033e2:	460b      	moveq	r3, r1
  1033e4:	2a01      	cmp	r2, #1
  1033e6:	f043 0104 	orr.w	r1, r3, #4
  1033ea:	bf08      	it	eq
  1033ec:	460b      	moveq	r3, r1
  1033ee:	68e9      	ldr	r1, [r5, #12]
  1033f0:	f043 0210 	orr.w	r2, r3, #16
  1033f4:	2901      	cmp	r1, #1
  1033f6:	bf08      	it	eq
  1033f8:	4613      	moveq	r3, r2
  1033fa:	6822      	ldr	r2, [r4, #0]
  1033fc:	2a03      	cmp	r2, #3
  1033fe:	d822      	bhi.n	103446 <SHA2_Init+0xa0>
  103400:	e8df f002 	tbb	[pc, r2]
  103404:	1711021d 	.word	0x1711021d
  103408:	2540      	movs	r5, #64	; 0x40
  10340a:	2108      	movs	r1, #8
  10340c:	2220      	movs	r2, #32
  10340e:	f043 0301 	orr.w	r3, r3, #1
  103412:	e9c4 5102 	strd	r5, r1, [r4, #8]
  103416:	6122      	str	r2, [r4, #16]
  103418:	6003      	str	r3, [r0, #0]
  10341a:	f8d4 30e4 	ldr.w	r3, [r4, #228]	; 0xe4
  10341e:	f8c0 308c 	str.w	r3, [r0, #140]	; 0x8c
  103422:	2000      	movs	r0, #0
  103424:	bd70      	pop	{r4, r5, r6, pc}
  103426:	2580      	movs	r5, #128	; 0x80
  103428:	2110      	movs	r1, #16
  10342a:	2230      	movs	r2, #48	; 0x30
  10342c:	f043 0302 	orr.w	r3, r3, #2
  103430:	e7ef      	b.n	103412 <SHA2_Init+0x6c>
  103432:	2580      	movs	r5, #128	; 0x80
  103434:	2110      	movs	r1, #16
  103436:	2240      	movs	r2, #64	; 0x40
  103438:	f043 0303 	orr.w	r3, r3, #3
  10343c:	e7e9      	b.n	103412 <SHA2_Init+0x6c>
  10343e:	2540      	movs	r5, #64	; 0x40
  103440:	2108      	movs	r1, #8
  103442:	221c      	movs	r2, #28
  103444:	e7e5      	b.n	103412 <SHA2_Init+0x6c>
  103446:	f04f 30ff 	mov.w	r0, #4294967295	; 0xffffffff
  10344a:	e7eb      	b.n	103424 <SHA2_Init+0x7e>
  10344c:	00103135 	.word	0x00103135
  103450:	0010c217 	.word	0x0010c217

00103454 <SHA2_DMA_Init>:
  103454:	b510      	push	{r4, lr}
  103456:	4b10      	ldr	r3, [pc, #64]	; (103498 <SHA2_DMA_Init+0x44>)
  103458:	4604      	mov	r4, r0
  10345a:	4798      	blx	r3
  10345c:	2300      	movs	r3, #0
  10345e:	6603      	str	r3, [r0, #96]	; 0x60
  103460:	6823      	ldr	r3, [r4, #0]
  103462:	2b01      	cmp	r3, #1
  103464:	d915      	bls.n	103492 <SHA2_DMA_Init+0x3e>
  103466:	3b02      	subs	r3, #2
  103468:	2b02      	cmp	r3, #2
  10346a:	bf34      	ite	cc
  10346c:	2303      	movcc	r3, #3
  10346e:	2300      	movcs	r3, #0
  103470:	f240 2202 	movw	r2, #514	; 0x202
  103474:	039b      	lsls	r3, r3, #14
  103476:	f043 0301 	orr.w	r3, r3, #1
  10347a:	6703      	str	r3, [r0, #112]	; 0x70
  10347c:	f8d0 3310 	ldr.w	r3, [r0, #784]	; 0x310
  103480:	4313      	orrs	r3, r2
  103482:	f8c0 3310 	str.w	r3, [r0, #784]	; 0x310
  103486:	f8d0 3318 	ldr.w	r3, [r0, #792]	; 0x318
  10348a:	4313      	orrs	r3, r2
  10348c:	f8c0 3318 	str.w	r3, [r0, #792]	; 0x318
  103490:	bd10      	pop	{r4, pc}
  103492:	2302      	movs	r3, #2
  103494:	e7ec      	b.n	103470 <SHA2_DMA_Init+0x1c>
  103496:	bf00      	nop
  103498:	00103175 	.word	0x00103175

0010349c <SHA2_SlaveEnd>:
  10349c:	b508      	push	{r3, lr}
  10349e:	4b0d      	ldr	r3, [pc, #52]	; (1034d4 <SHA2_SlaveEnd+0x38>)
  1034a0:	4798      	blx	r3
  1034a2:	6802      	ldr	r2, [r0, #0]
  1034a4:	4603      	mov	r3, r0
  1034a6:	f042 0240 	orr.w	r2, r2, #64	; 0x40
  1034aa:	6002      	str	r2, [r0, #0]
  1034ac:	6882      	ldr	r2, [r0, #8]
  1034ae:	f042 0204 	orr.w	r2, r2, #4
  1034b2:	6082      	str	r2, [r0, #8]
  1034b4:	f242 7210 	movw	r2, #10000	; 0x2710
  1034b8:	6858      	ldr	r0, [r3, #4]
  1034ba:	f010 5080 	ands.w	r0, r0, #268435456	; 0x10000000
  1034be:	d003      	beq.n	1034c8 <SHA2_SlaveEnd+0x2c>
  1034c0:	3a01      	subs	r2, #1
  1034c2:	d1f9      	bne.n	1034b8 <SHA2_SlaveEnd+0x1c>
  1034c4:	f06f 0014 	mvn.w	r0, #20
  1034c8:	681a      	ldr	r2, [r3, #0]
  1034ca:	f022 0240 	bic.w	r2, r2, #64	; 0x40
  1034ce:	601a      	str	r2, [r3, #0]
  1034d0:	bd08      	pop	{r3, pc}
  1034d2:	bf00      	nop
  1034d4:	00103135 	.word	0x00103135

001034d8 <SHA2_DmaStart>:
  1034d8:	e92d 47f0 	stmdb	sp!, {r4, r5, r6, r7, r8, r9, sl, lr}
  1034dc:	4b9e      	ldr	r3, [pc, #632]	; (103758 <SHA2_DmaStart+0x280>)
  1034de:	460c      	mov	r4, r1
  1034e0:	4615      	mov	r5, r2
  1034e2:	4606      	mov	r6, r0
  1034e4:	4798      	blx	r3
  1034e6:	499d      	ldr	r1, [pc, #628]	; (10375c <SHA2_DmaStart+0x284>)
  1034e8:	4603      	mov	r3, r0
  1034ea:	694a      	ldr	r2, [r1, #20]
  1034ec:	03d7      	lsls	r7, r2, #15
  1034ee:	d528      	bpl.n	103542 <SHA2_DmaStart+0x6a>
  1034f0:	1c70      	adds	r0, r6, #1
  1034f2:	d179      	bne.n	1035e8 <SHA2_DmaStart+0x110>
  1034f4:	1c6a      	adds	r2, r5, #1
  1034f6:	f040 8099 	bne.w	10362c <SHA2_DmaStart+0x154>
  1034fa:	2200      	movs	r2, #0
  1034fc:	f8c1 2084 	str.w	r2, [r1, #132]	; 0x84
  103500:	f3bf 8f4f 	dsb	sy
  103504:	f643 7ce0 	movw	ip, #16352	; 0x3fe0
  103508:	f8d1 2080 	ldr.w	r2, [r1, #128]	; 0x80
  10350c:	f3c2 07c9 	ubfx	r7, r2, #3, #10
  103510:	f3c2 324e 	ubfx	r2, r2, #13, #15
  103514:	0152      	lsls	r2, r2, #5
  103516:	f107 0e01 	add.w	lr, r7, #1
  10351a:	4638      	mov	r0, r7
  10351c:	f04e e001 	dls	lr, lr
  103520:	ea02 090c 	and.w	r9, r2, ip
  103524:	ea49 7880 	orr.w	r8, r9, r0, lsl #30
  103528:	f8c1 8274 	str.w	r8, [r1, #628]	; 0x274
  10352c:	3801      	subs	r0, #1
  10352e:	f00f c807 	le	lr, 103524 <SHA2_DmaStart+0x4c>
  103532:	3a20      	subs	r2, #32
  103534:	f112 0f20 	cmn.w	r2, #32
  103538:	d1ed      	bne.n	103516 <SHA2_DmaStart+0x3e>
  10353a:	f3bf 8f4f 	dsb	sy
  10353e:	f3bf 8f6f 	isb	sy
  103542:	4622      	mov	r2, r4
  103544:	b364      	cbz	r4, 1035a0 <SHA2_DmaStart+0xc8>
  103546:	4885      	ldr	r0, [pc, #532]	; (10375c <SHA2_DmaStart+0x284>)
  103548:	6941      	ldr	r1, [r0, #20]
  10354a:	03cf      	lsls	r7, r1, #15
  10354c:	d528      	bpl.n	1035a0 <SHA2_DmaStart+0xc8>
  10354e:	1c61      	adds	r1, r4, #1
  103550:	d171      	bne.n	103636 <SHA2_DmaStart+0x15e>
  103552:	1c6f      	adds	r7, r5, #1
  103554:	f040 8092 	bne.w	10367c <SHA2_DmaStart+0x1a4>
  103558:	2100      	movs	r1, #0
  10355a:	f8c0 1084 	str.w	r1, [r0, #132]	; 0x84
  10355e:	f3bf 8f4f 	dsb	sy
  103562:	f643 78e0 	movw	r8, #16352	; 0x3fe0
  103566:	f8d0 1080 	ldr.w	r1, [r0, #128]	; 0x80
  10356a:	f3c1 0cc9 	ubfx	ip, r1, #3, #10
  10356e:	f3c1 314e 	ubfx	r1, r1, #13, #15
  103572:	0149      	lsls	r1, r1, #5
  103574:	f10c 0e01 	add.w	lr, ip, #1
  103578:	4667      	mov	r7, ip
  10357a:	f04e e001 	dls	lr, lr
  10357e:	ea01 0a08 	and.w	sl, r1, r8
  103582:	ea4a 7987 	orr.w	r9, sl, r7, lsl #30
  103586:	f8c0 9274 	str.w	r9, [r0, #628]	; 0x274
  10358a:	3f01      	subs	r7, #1
  10358c:	f00f c807 	le	lr, 103582 <SHA2_DmaStart+0xaa>
  103590:	3920      	subs	r1, #32
  103592:	f111 0f20 	cmn.w	r1, #32
  103596:	d1ed      	bne.n	103574 <SHA2_DmaStart+0x9c>
  103598:	f3bf 8f4f 	dsb	sy
  10359c:	f3bf 8f6f 	isb	sy
  1035a0:	659e      	str	r6, [r3, #88]	; 0x58
  1035a2:	661c      	str	r4, [r3, #96]	; 0x60
  1035a4:	4e6e      	ldr	r6, [pc, #440]	; (103760 <SHA2_DmaStart+0x288>)
  1035a6:	675d      	str	r5, [r3, #116]	; 0x74
  1035a8:	e846 f100 	tt	r1, r6
  1035ac:	0249      	lsls	r1, r1, #9
  1035ae:	bf42      	ittt	mi
  1035b0:	f8d3 109c 	ldrmi.w	r1, [r3, #156]	; 0x9c
  1035b4:	f021 0108 	bicmi.w	r1, r1, #8
  1035b8:	f8c3 109c 	strmi.w	r1, [r3, #156]	; 0x9c
  1035bc:	f8d3 13a0 	ldr.w	r1, [r3, #928]	; 0x3a0
  1035c0:	f441 7100 	orr.w	r1, r1, #512	; 0x200
  1035c4:	f041 0102 	orr.w	r1, r1, #2
  1035c8:	f8c3 13a0 	str.w	r1, [r3, #928]	; 0x3a0
  1035cc:	4965      	ldr	r1, [pc, #404]	; (103764 <SHA2_DmaStart+0x28c>)
  1035ce:	f8d3 02e8 	ldr.w	r0, [r3, #744]	; 0x2e8
  1035d2:	0787      	lsls	r7, r0, #30
  1035d4:	d457      	bmi.n	103686 <SHA2_DmaStart+0x1ae>
  1035d6:	f8d3 0360 	ldr.w	r0, [r3, #864]	; 0x360
  1035da:	06c0      	lsls	r0, r0, #27
  1035dc:	d401      	bmi.n	1035e2 <SHA2_DmaStart+0x10a>
  1035de:	3901      	subs	r1, #1
  1035e0:	d1f5      	bne.n	1035ce <SHA2_DmaStart+0xf6>
  1035e2:	f06f 0010 	mvn.w	r0, #16
  1035e6:	e07c      	b.n	1036e2 <SHA2_DmaStart+0x20a>
  1035e8:	f016 011f 	ands.w	r1, r6, #31
  1035ec:	d020      	beq.n	103630 <SHA2_DmaStart+0x158>
  1035ee:	f026 021f 	bic.w	r2, r6, #31
  1035f2:	4429      	add	r1, r5
  1035f4:	2900      	cmp	r1, #0
  1035f6:	dda4      	ble.n	103542 <SHA2_DmaStart+0x6a>
  1035f8:	f002 001f 	and.w	r0, r2, #31
  1035fc:	4408      	add	r0, r1
  1035fe:	f3bf 8f4f 	dsb	sy
  103602:	43d1      	mvns	r1, r2
  103604:	eb02 0c00 	add.w	ip, r2, r0
  103608:	4461      	add	r1, ip
  10360a:	3820      	subs	r0, #32
  10360c:	0949      	lsrs	r1, r1, #5
  10360e:	3020      	adds	r0, #32
  103610:	f101 0e01 	add.w	lr, r1, #1
  103614:	bfd8      	it	le
  103616:	f04f 0e01 	movle.w	lr, #1
  10361a:	f04e e001 	dls	lr, lr
  10361e:	4f4f      	ldr	r7, [pc, #316]	; (10375c <SHA2_DmaStart+0x284>)
  103620:	f8c7 2270 	str.w	r2, [r7, #624]	; 0x270
  103624:	3220      	adds	r2, #32
  103626:	f00f c805 	le	lr, 103620 <SHA2_DmaStart+0x148>
  10362a:	e786      	b.n	10353a <SHA2_DmaStart+0x62>
  10362c:	211f      	movs	r1, #31
  10362e:	e7de      	b.n	1035ee <SHA2_DmaStart+0x116>
  103630:	4629      	mov	r1, r5
  103632:	4632      	mov	r2, r6
  103634:	e7de      	b.n	1035f4 <SHA2_DmaStart+0x11c>
  103636:	f014 001f 	ands.w	r0, r4, #31
  10363a:	d021      	beq.n	103680 <SHA2_DmaStart+0x1a8>
  10363c:	f024 011f 	bic.w	r1, r4, #31
  103640:	4428      	add	r0, r5
  103642:	2800      	cmp	r0, #0
  103644:	ddac      	ble.n	1035a0 <SHA2_DmaStart+0xc8>
  103646:	f001 071f 	and.w	r7, r1, #31
  10364a:	4407      	add	r7, r0
  10364c:	f3bf 8f4f 	dsb	sy
  103650:	43c8      	mvns	r0, r1
  103652:	eb01 0e07 	add.w	lr, r1, r7
  103656:	4470      	add	r0, lr
  103658:	3f20      	subs	r7, #32
  10365a:	0940      	lsrs	r0, r0, #5
  10365c:	3720      	adds	r7, #32
  10365e:	f100 0e01 	add.w	lr, r0, #1
  103662:	bfd8      	it	le
  103664:	f04f 0e01 	movle.w	lr, #1
  103668:	f04e e001 	dls	lr, lr
  10366c:	f8df c0ec 	ldr.w	ip, [pc, #236]	; 10375c <SHA2_DmaStart+0x284>
  103670:	f8cc 1270 	str.w	r1, [ip, #624]	; 0x270
  103674:	3120      	adds	r1, #32
  103676:	f00f c805 	le	lr, 103670 <SHA2_DmaStart+0x198>
  10367a:	e78d      	b.n	103598 <SHA2_DmaStart+0xc0>
  10367c:	201f      	movs	r0, #31
  10367e:	e7dd      	b.n	10363c <SHA2_DmaStart+0x164>
  103680:	4628      	mov	r0, r5
  103682:	4621      	mov	r1, r4
  103684:	e7dd      	b.n	103642 <SHA2_DmaStart+0x16a>
  103686:	b35c      	cbz	r4, 1036e0 <SHA2_DmaStart+0x208>
  103688:	4834      	ldr	r0, [pc, #208]	; (10375c <SHA2_DmaStart+0x284>)
  10368a:	6941      	ldr	r1, [r0, #20]
  10368c:	03c9      	lsls	r1, r1, #15
  10368e:	d527      	bpl.n	1036e0 <SHA2_DmaStart+0x208>
  103690:	1c67      	adds	r7, r4, #1
  103692:	d13e      	bne.n	103712 <SHA2_DmaStart+0x23a>
  103694:	1c69      	adds	r1, r5, #1
  103696:	d15d      	bne.n	103754 <SHA2_DmaStart+0x27c>
  103698:	2200      	movs	r2, #0
  10369a:	f8c0 2084 	str.w	r2, [r0, #132]	; 0x84
  10369e:	f3bf 8f4f 	dsb	sy
  1036a2:	f643 75e0 	movw	r5, #16352	; 0x3fe0
  1036a6:	f8d0 2080 	ldr.w	r2, [r0, #128]	; 0x80
  1036aa:	f3c2 04c9 	ubfx	r4, r2, #3, #10
  1036ae:	f3c2 324e 	ubfx	r2, r2, #13, #15
  1036b2:	0152      	lsls	r2, r2, #5
  1036b4:	f104 0e01 	add.w	lr, r4, #1
  1036b8:	4621      	mov	r1, r4
  1036ba:	f04e e001 	dls	lr, lr
  1036be:	ea02 0c05 	and.w	ip, r2, r5
  1036c2:	ea4c 7781 	orr.w	r7, ip, r1, lsl #30
  1036c6:	f8c0 7260 	str.w	r7, [r0, #608]	; 0x260
  1036ca:	3901      	subs	r1, #1
  1036cc:	f00f c807 	le	lr, 1036c2 <SHA2_DmaStart+0x1ea>
  1036d0:	3a20      	subs	r2, #32
  1036d2:	f112 0f20 	cmn.w	r2, #32
  1036d6:	d1ed      	bne.n	1036b4 <SHA2_DmaStart+0x1dc>
  1036d8:	f3bf 8f4f 	dsb	sy
  1036dc:	f3bf 8f6f 	isb	sy
  1036e0:	2000      	movs	r0, #0
  1036e2:	f8d3 2338 	ldr.w	r2, [r3, #824]	; 0x338
  1036e6:	f042 0202 	orr.w	r2, r2, #2
  1036ea:	f8c3 2338 	str.w	r2, [r3, #824]	; 0x338
  1036ee:	f8d3 2340 	ldr.w	r2, [r3, #832]	; 0x340
  1036f2:	f042 0202 	orr.w	r2, r2, #2
  1036f6:	f8c3 2340 	str.w	r2, [r3, #832]	; 0x340
  1036fa:	e846 f600 	tt	r6, r6
  1036fe:	0272      	lsls	r2, r6, #9
  103700:	bf42      	ittt	mi
  103702:	f8d3 209c 	ldrmi.w	r2, [r3, #156]	; 0x9c
  103706:	f042 0208 	orrmi.w	r2, r2, #8
  10370a:	f8c3 209c 	strmi.w	r2, [r3, #156]	; 0x9c
  10370e:	e8bd 87f0 	ldmia.w	sp!, {r4, r5, r6, r7, r8, r9, sl, pc}
  103712:	f014 011f 	ands.w	r1, r4, #31
  103716:	d002      	beq.n	10371e <SHA2_DmaStart+0x246>
  103718:	f024 021f 	bic.w	r2, r4, #31
  10371c:	440d      	add	r5, r1
  10371e:	2d00      	cmp	r5, #0
  103720:	ddde      	ble.n	1036e0 <SHA2_DmaStart+0x208>
  103722:	f002 001f 	and.w	r0, r2, #31
  103726:	4428      	add	r0, r5
  103728:	f3bf 8f4f 	dsb	sy
  10372c:	43d1      	mvns	r1, r2
  10372e:	1815      	adds	r5, r2, r0
  103730:	4429      	add	r1, r5
  103732:	3820      	subs	r0, #32
  103734:	0949      	lsrs	r1, r1, #5
  103736:	3020      	adds	r0, #32
  103738:	f101 0e01 	add.w	lr, r1, #1
  10373c:	bfd8      	it	le
  10373e:	f04f 0e01 	movle.w	lr, #1
  103742:	f04e e001 	dls	lr, lr
  103746:	4c05      	ldr	r4, [pc, #20]	; (10375c <SHA2_DmaStart+0x284>)
  103748:	f8c4 225c 	str.w	r2, [r4, #604]	; 0x25c
  10374c:	3220      	adds	r2, #32
  10374e:	f00f c805 	le	lr, 103748 <SHA2_DmaStart+0x270>
  103752:	e7c1      	b.n	1036d8 <SHA2_DmaStart+0x200>
  103754:	211f      	movs	r1, #31
  103756:	e7df      	b.n	103718 <SHA2_DmaStart+0x240>
  103758:	00103175 	.word	0x00103175
  10375c:	e000ed00 	.word	0xe000ed00
  103760:	0010a1e9 	.word	0x0010a1e9
  103764:	000f4240 	.word	0x000f4240

00103768 <SHA2_ProcessDma>:
  103768:	e92d 41f0 	stmdb	sp!, {r4, r5, r6, r7, r8, lr}
  10376c:	4680      	mov	r8, r0
  10376e:	461d      	mov	r5, r3
  103770:	4b17      	ldr	r3, [pc, #92]	; (1037d0 <SHA2_ProcessDma+0x68>)
  103772:	460c      	mov	r4, r1
  103774:	4617      	mov	r7, r2
  103776:	4798      	blx	r3
  103778:	f8d8 3000 	ldr.w	r3, [r8]
  10377c:	4e15      	ldr	r6, [pc, #84]	; (1037d4 <SHA2_ProcessDma+0x6c>)
  10377e:	3b02      	subs	r3, #2
  103780:	2b02      	cmp	r3, #2
  103782:	4b15      	ldr	r3, [pc, #84]	; (1037d8 <SHA2_ProcessDma+0x70>)
  103784:	bf28      	it	cs
  103786:	461e      	movcs	r6, r3
  103788:	b1f5      	cbz	r5, 1037c8 <SHA2_ProcessDma+0x60>
  10378a:	f898 30e9 	ldrb.w	r3, [r8, #233]	; 0xe9
  10378e:	2b01      	cmp	r3, #1
  103790:	d106      	bne.n	1037a0 <SHA2_ProcessDma+0x38>
  103792:	6883      	ldr	r3, [r0, #8]
  103794:	f043 0301 	orr.w	r3, r3, #1
  103798:	6083      	str	r3, [r0, #8]
  10379a:	2300      	movs	r3, #0
  10379c:	f888 30e9 	strb.w	r3, [r8, #233]	; 0xe9
  1037a0:	42b5      	cmp	r5, r6
  1037a2:	d806      	bhi.n	1037b2 <SHA2_ProcessDma+0x4a>
  1037a4:	462a      	mov	r2, r5
  1037a6:	4639      	mov	r1, r7
  1037a8:	4620      	mov	r0, r4
  1037aa:	f7ff fe95 	bl	1034d8 <SHA2_DmaStart>
  1037ae:	e8bd 81f0 	ldmia.w	sp!, {r4, r5, r6, r7, r8, pc}
  1037b2:	4632      	mov	r2, r6
  1037b4:	4639      	mov	r1, r7
  1037b6:	4620      	mov	r0, r4
  1037b8:	f7ff fe8e 	bl	1034d8 <SHA2_DmaStart>
  1037bc:	2800      	cmp	r0, #0
  1037be:	d1f6      	bne.n	1037ae <SHA2_ProcessDma+0x46>
  1037c0:	4437      	add	r7, r6
  1037c2:	1bad      	subs	r5, r5, r6
  1037c4:	4434      	add	r4, r6
  1037c6:	e7eb      	b.n	1037a0 <SHA2_ProcessDma+0x38>
  1037c8:	f04f 30ff 	mov.w	r0, #4294967295	; 0xffffffff
  1037cc:	e7ef      	b.n	1037ae <SHA2_ProcessDma+0x46>
  1037ce:	bf00      	nop
  1037d0:	00103135 	.word	0x00103135
  1037d4:	1fffff80 	.word	0x1fffff80
  1037d8:	1fffffc0 	.word	0x1fffffc0

001037dc <SHA2_lock_mutex>:
  1037dc:	b5f8      	push	{r3, r4, r5, r6, r7, lr}
  1037de:	4b0f      	ldr	r3, [pc, #60]	; (10381c <SHA2_lock_mutex+0x40>)
  1037e0:	4798      	blx	r3
  1037e2:	4f0f      	ldr	r7, [pc, #60]	; (103820 <SHA2_lock_mutex+0x44>)
  1037e4:	4c0f      	ldr	r4, [pc, #60]	; (103824 <SHA2_lock_mutex+0x48>)
  1037e6:	683b      	ldr	r3, [r7, #0]
  1037e8:	4605      	mov	r5, r0
  1037ea:	2b00      	cmp	r3, #0
  1037ec:	bf18      	it	ne
  1037ee:	f44f 747a 	movne.w	r4, #1000	; 0x3e8
  1037f2:	3401      	adds	r4, #1
  1037f4:	2600      	movs	r6, #0
  1037f6:	f8d5 3d00 	ldr.w	r3, [r5, #3328]	; 0xd00
  1037fa:	079b      	lsls	r3, r3, #30
  1037fc:	d00d      	beq.n	10381a <SHA2_lock_mutex+0x3e>
  1037fe:	683b      	ldr	r3, [r7, #0]
  103800:	b10b      	cbz	r3, 103806 <SHA2_lock_mutex+0x2a>
  103802:	2001      	movs	r0, #1
  103804:	4798      	blx	r3
  103806:	3601      	adds	r6, #1
  103808:	42a6      	cmp	r6, r4
  10380a:	d1f4      	bne.n	1037f6 <SHA2_lock_mutex+0x1a>
  10380c:	2245      	movs	r2, #69	; 0x45
  10380e:	2002      	movs	r0, #2
  103810:	4b05      	ldr	r3, [pc, #20]	; (103828 <SHA2_lock_mutex+0x4c>)
  103812:	4906      	ldr	r1, [pc, #24]	; (10382c <SHA2_lock_mutex+0x50>)
  103814:	f006 fd6e 	bl	10a2f4 <rtk_log_write>
  103818:	e7ec      	b.n	1037f4 <SHA2_lock_mutex+0x18>
  10381a:	bdf8      	pop	{r3, r4, r5, r6, r7, pc}
  10381c:	00103135 	.word	0x00103135
  103820:	200014b8 	.word	0x200014b8
  103824:	000f4240 	.word	0x000f4240
  103828:	0010c254 	.word	0x0010c254
  10382c:	0010c278 	.word	0x0010c278

00103830 <SHA2_unlock_mutex>:
  103830:	b508      	push	{r3, lr}
  103832:	4b03      	ldr	r3, [pc, #12]	; (103840 <SHA2_unlock_mutex+0x10>)
  103834:	4798      	blx	r3
  103836:	2300      	movs	r3, #0
  103838:	f8c0 3d00 	str.w	r3, [r0, #3328]	; 0xd00
  10383c:	bd08      	pop	{r3, pc}
  10383e:	bf00      	nop
  103840:	00103135 	.word	0x00103135

00103844 <SHA2_set_swap_setting>:
  103844:	b570      	push	{r4, r5, r6, lr}
  103846:	4b09      	ldr	r3, [pc, #36]	; (10386c <SHA2_set_swap_setting+0x28>)
  103848:	4604      	mov	r4, r0
  10384a:	4798      	blx	r3
  10384c:	4605      	mov	r5, r0
  10384e:	4b08      	ldr	r3, [pc, #32]	; (103870 <SHA2_set_swap_setting+0x2c>)
  103850:	4798      	blx	r3
  103852:	682e      	ldr	r6, [r5, #0]
  103854:	f404 5440 	and.w	r4, r4, #12288	; 0x3000
  103858:	f426 5340 	bic.w	r3, r6, #12288	; 0x3000
  10385c:	431c      	orrs	r4, r3
  10385e:	602c      	str	r4, [r5, #0]
  103860:	4b04      	ldr	r3, [pc, #16]	; (103874 <SHA2_set_swap_setting+0x30>)
  103862:	4798      	blx	r3
  103864:	f406 5040 	and.w	r0, r6, #12288	; 0x3000
  103868:	bd70      	pop	{r4, r5, r6, pc}
  10386a:	bf00      	nop
  10386c:	00103135 	.word	0x00103135
  103870:	001037dd 	.word	0x001037dd
  103874:	00103831 	.word	0x00103831

00103878 <SHA2_get_swap_setting>:
  103878:	b510      	push	{r4, lr}
  10387a:	4b05      	ldr	r3, [pc, #20]	; (103890 <SHA2_get_swap_setting+0x18>)
  10387c:	4798      	blx	r3
  10387e:	4604      	mov	r4, r0
  103880:	4b04      	ldr	r3, [pc, #16]	; (103894 <SHA2_get_swap_setting+0x1c>)
  103882:	4798      	blx	r3
  103884:	6824      	ldr	r4, [r4, #0]
  103886:	4b04      	ldr	r3, [pc, #16]	; (103898 <SHA2_get_swap_setting+0x20>)
  103888:	4798      	blx	r3
  10388a:	f404 5040 	and.w	r0, r4, #12288	; 0x3000
  10388e:	bd10      	pop	{r4, pc}
  103890:	00103135 	.word	0x00103135
  103894:	001037dd 	.word	0x001037dd
  103898:	00103831 	.word	0x00103831

0010389c <SHA2_hmac_load_key>:
  10389c:	b538      	push	{r3, r4, r5, lr}
  10389e:	4605      	mov	r5, r0
  1038a0:	4b25      	ldr	r3, [pc, #148]	; (103938 <SHA2_hmac_load_key+0x9c>)
  1038a2:	460c      	mov	r4, r1
  1038a4:	4798      	blx	r3
  1038a6:	2d03      	cmp	r5, #3
  1038a8:	4602      	mov	r2, r0
  1038aa:	d908      	bls.n	1038be <SHA2_hmac_load_key+0x22>
  1038ac:	2d21      	cmp	r5, #33	; 0x21
  1038ae:	d025      	beq.n	1038fc <SHA2_hmac_load_key+0x60>
  1038b0:	2d22      	cmp	r5, #34	; 0x22
  1038b2:	d00e      	beq.n	1038d2 <SHA2_hmac_load_key+0x36>
  1038b4:	f240 11cf 	movw	r1, #463	; 0x1cf
  1038b8:	4820      	ldr	r0, [pc, #128]	; (10393c <SHA2_hmac_load_key+0xa0>)
  1038ba:	f001 fdbb 	bl	105434 <io_assert_failed>
  1038be:	f024 0340 	bic.w	r3, r4, #64	; 0x40
  1038c2:	2b80      	cmp	r3, #128	; 0x80
  1038c4:	d02d      	beq.n	103922 <SHA2_hmac_load_key+0x86>
  1038c6:	f5b4 7f80 	cmp.w	r4, #256	; 0x100
  1038ca:	d02a      	beq.n	103922 <SHA2_hmac_load_key+0x86>
  1038cc:	f44f 71e8 	mov.w	r1, #464	; 0x1d0
  1038d0:	e7f2      	b.n	1038b8 <SHA2_hmac_load_key+0x1c>
  1038d2:	2c80      	cmp	r4, #128	; 0x80
  1038d4:	d004      	beq.n	1038e0 <SHA2_hmac_load_key+0x44>
  1038d6:	2cc0      	cmp	r4, #192	; 0xc0
  1038d8:	d002      	beq.n	1038e0 <SHA2_hmac_load_key+0x44>
  1038da:	f5b4 7f80 	cmp.w	r4, #256	; 0x100
  1038de:	d1f5      	bne.n	1038cc <SHA2_hmac_load_key+0x30>
  1038e0:	6015      	str	r5, [r2, #0]
  1038e2:	6853      	ldr	r3, [r2, #4]
  1038e4:	f043 0301 	orr.w	r3, r3, #1
  1038e8:	6053      	str	r3, [r2, #4]
  1038ea:	4b15      	ldr	r3, [pc, #84]	; (103940 <SHA2_hmac_load_key+0xa4>)
  1038ec:	6851      	ldr	r1, [r2, #4]
  1038ee:	07c9      	lsls	r1, r1, #31
  1038f0:	d420      	bmi.n	103934 <SHA2_hmac_load_key+0x98>
  1038f2:	3b01      	subs	r3, #1
  1038f4:	d1fa      	bne.n	1038ec <SHA2_hmac_load_key+0x50>
  1038f6:	f06f 000f 	mvn.w	r0, #15
  1038fa:	bd38      	pop	{r3, r4, r5, pc}
  1038fc:	2c80      	cmp	r4, #128	; 0x80
  1038fe:	4b11      	ldr	r3, [pc, #68]	; (103944 <SHA2_hmac_load_key+0xa8>)
  103900:	d004      	beq.n	10390c <SHA2_hmac_load_key+0x70>
  103902:	2cc0      	cmp	r4, #192	; 0xc0
  103904:	d002      	beq.n	10390c <SHA2_hmac_load_key+0x70>
  103906:	f5b4 7f80 	cmp.w	r4, #256	; 0x100
  10390a:	d1df      	bne.n	1038cc <SHA2_hmac_load_key+0x30>
  10390c:	e843 f300 	tt	r3, r3
  103910:	025c      	lsls	r4, r3, #9
  103912:	d4e5      	bmi.n	1038e0 <SHA2_hmac_load_key+0x44>
  103914:	2320      	movs	r3, #32
  103916:	6851      	ldr	r1, [r2, #4]
  103918:	4219      	tst	r1, r3
  10391a:	d1e1      	bne.n	1038e0 <SHA2_hmac_load_key+0x44>
  10391c:	f240 11db 	movw	r1, #475	; 0x1db
  103920:	e7ca      	b.n	1038b8 <SHA2_hmac_load_key+0x1c>
  103922:	4b09      	ldr	r3, [pc, #36]	; (103948 <SHA2_hmac_load_key+0xac>)
  103924:	5d59      	ldrb	r1, [r3, r5]
  103926:	4b07      	ldr	r3, [pc, #28]	; (103944 <SHA2_hmac_load_key+0xa8>)
  103928:	e843 f300 	tt	r3, r3
  10392c:	0258      	lsls	r0, r3, #9
  10392e:	d4d7      	bmi.n	1038e0 <SHA2_hmac_load_key+0x44>
  103930:	460b      	mov	r3, r1
  103932:	e7f0      	b.n	103916 <SHA2_hmac_load_key+0x7a>
  103934:	2000      	movs	r0, #0
  103936:	e7e0      	b.n	1038fa <SHA2_hmac_load_key+0x5e>
  103938:	00103155 	.word	0x00103155
  10393c:	0010c217 	.word	0x0010c217
  103940:	000186a0 	.word	0x000186a0
  103944:	0010a1e9 	.word	0x0010a1e9
  103948:	0010c27c 	.word	0x0010c27c

0010394c <crypto_sha2_init>:
  10394c:	b530      	push	{r4, r5, lr}
  10394e:	2903      	cmp	r1, #3
  103950:	4604      	mov	r4, r0
  103952:	460d      	mov	r5, r1
  103954:	b085      	sub	sp, #20
  103956:	d904      	bls.n	103962 <crypto_sha2_init+0x16>
  103958:	f240 11f7 	movw	r1, #503	; 0x1f7
  10395c:	4815      	ldr	r0, [pc, #84]	; (1039b4 <crypto_sha2_init+0x68>)
  10395e:	f001 fd69 	bl	105434 <io_assert_failed>
  103962:	b910      	cbnz	r0, 10396a <crypto_sha2_init+0x1e>
  103964:	f44f 71fc 	mov.w	r1, #504	; 0x1f8
  103968:	e7f8      	b.n	10395c <crypto_sha2_init+0x10>
  10396a:	4b13      	ldr	r3, [pc, #76]	; (1039b8 <crypto_sha2_init+0x6c>)
  10396c:	4798      	blx	r3
  10396e:	f44f 7280 	mov.w	r2, #256	; 0x100
  103972:	2100      	movs	r1, #0
  103974:	4b11      	ldr	r3, [pc, #68]	; (1039bc <crypto_sha2_init+0x70>)
  103976:	4620      	mov	r0, r4
  103978:	4798      	blx	r3
  10397a:	2300      	movs	r3, #0
  10397c:	f8c4 30e4 	str.w	r3, [r4, #228]	; 0xe4
  103980:	f44f 7380 	mov.w	r3, #256	; 0x100
  103984:	4668      	mov	r0, sp
  103986:	6025      	str	r5, [r4, #0]
  103988:	f8a4 30e8 	strh.w	r3, [r4, #232]	; 0xe8
  10398c:	f7ff fd04 	bl	103398 <SHA_StructInit>
  103990:	4621      	mov	r1, r4
  103992:	4668      	mov	r0, sp
  103994:	4b0a      	ldr	r3, [pc, #40]	; (1039c0 <crypto_sha2_init+0x74>)
  103996:	4798      	blx	r3
  103998:	4605      	mov	r5, r0
  10399a:	b928      	cbnz	r0, 1039a8 <crypto_sha2_init+0x5c>
  10399c:	4620      	mov	r0, r4
  10399e:	4b09      	ldr	r3, [pc, #36]	; (1039c4 <crypto_sha2_init+0x78>)
  1039a0:	4798      	blx	r3
  1039a2:	4620      	mov	r0, r4
  1039a4:	4b08      	ldr	r3, [pc, #32]	; (1039c8 <crypto_sha2_init+0x7c>)
  1039a6:	4798      	blx	r3
  1039a8:	4b08      	ldr	r3, [pc, #32]	; (1039cc <crypto_sha2_init+0x80>)
  1039aa:	4798      	blx	r3
  1039ac:	4628      	mov	r0, r5
  1039ae:	b005      	add	sp, #20
  1039b0:	bd30      	pop	{r4, r5, pc}
  1039b2:	bf00      	nop
  1039b4:	0010c217 	.word	0x0010c217
  1039b8:	001037dd 	.word	0x001037dd
  1039bc:	001014f9 	.word	0x001014f9
  1039c0:	001033a7 	.word	0x001033a7
  1039c4:	00103455 	.word	0x00103455
  1039c8:	00103231 	.word	0x00103231
  1039cc:	00103831 	.word	0x00103831

001039d0 <crypto_sha2_update>:
  1039d0:	e92d 47f0 	stmdb	sp!, {r4, r5, r6, r7, r8, r9, sl, lr}
  1039d4:	461d      	mov	r5, r3
  1039d6:	4b5c      	ldr	r3, [pc, #368]	; (103b48 <crypto_sha2_update+0x178>)
  1039d8:	4604      	mov	r4, r0
  1039da:	460e      	mov	r6, r1
  1039dc:	4692      	mov	sl, r2
  1039de:	4798      	blx	r3
  1039e0:	f8d4 80e0 	ldr.w	r8, [r4, #224]	; 0xe0
  1039e4:	4681      	mov	r9, r0
  1039e6:	b924      	cbnz	r4, 1039f2 <crypto_sha2_update+0x22>
  1039e8:	f44f 7107 	mov.w	r1, #540	; 0x21c
  1039ec:	4857      	ldr	r0, [pc, #348]	; (103b4c <crypto_sha2_update+0x17c>)
  1039ee:	f001 fd21 	bl	105434 <io_assert_failed>
  1039f2:	b105      	cbz	r5, 1039f6 <crypto_sha2_update+0x26>
  1039f4:	b916      	cbnz	r6, 1039fc <crypto_sha2_update+0x2c>
  1039f6:	f240 211d 	movw	r1, #541	; 0x21d
  1039fa:	e7f7      	b.n	1039ec <crypto_sha2_update+0x1c>
  1039fc:	f1ba 0f00 	cmp.w	sl, #0
  103a00:	d10b      	bne.n	103a1a <crypto_sha2_update+0x4a>
  103a02:	4b53      	ldr	r3, [pc, #332]	; (103b50 <crypto_sha2_update+0x180>)
  103a04:	4798      	blx	r3
  103a06:	4620      	mov	r0, r4
  103a08:	4b52      	ldr	r3, [pc, #328]	; (103b54 <crypto_sha2_update+0x184>)
  103a0a:	4798      	blx	r3
  103a0c:	4607      	mov	r7, r0
  103a0e:	b1f8      	cbz	r0, 103a50 <crypto_sha2_update+0x80>
  103a10:	4b51      	ldr	r3, [pc, #324]	; (103b58 <crypto_sha2_update+0x188>)
  103a12:	4798      	blx	r3
  103a14:	4638      	mov	r0, r7
  103a16:	e8bd 87f0 	ldmia.w	sp!, {r4, r5, r6, r7, r8, r9, sl, pc}
  103a1a:	f01a 0f1f 	tst.w	sl, #31
  103a1e:	bf0c      	ite	eq
  103a20:	2001      	moveq	r0, #1
  103a22:	2000      	movne	r0, #0
  103a24:	4b4d      	ldr	r3, [pc, #308]	; (103b5c <crypto_sha2_update+0x18c>)
  103a26:	4798      	blx	r3
  103a28:	f015 0f1f 	tst.w	r5, #31
  103a2c:	4b4c      	ldr	r3, [pc, #304]	; (103b60 <crypto_sha2_update+0x190>)
  103a2e:	bf0c      	ite	eq
  103a30:	2001      	moveq	r0, #1
  103a32:	2000      	movne	r0, #0
  103a34:	4798      	blx	r3
  103a36:	68a2      	ldr	r2, [r4, #8]
  103a38:	fbb5 f3f2 	udiv	r3, r5, r2
  103a3c:	fb02 5313 	mls	r3, r2, r3, r5
  103a40:	b91b      	cbnz	r3, 103a4a <crypto_sha2_update+0x7a>
  103a42:	f8d4 30e0 	ldr.w	r3, [r4, #224]	; 0xe0
  103a46:	2b00      	cmp	r3, #0
  103a48:	d0db      	beq.n	103a02 <crypto_sha2_update+0x32>
  103a4a:	f06f 0711 	mvn.w	r7, #17
  103a4e:	e7e1      	b.n	103a14 <crypto_sha2_update+0x44>
  103a50:	6863      	ldr	r3, [r4, #4]
  103a52:	2b01      	cmp	r3, #1
  103a54:	d022      	beq.n	103a9c <crypto_sha2_update+0xcc>
  103a56:	f8d9 308c 	ldr.w	r3, [r9, #140]	; 0x8c
  103a5a:	442b      	add	r3, r5
  103a5c:	f8c9 308c 	str.w	r3, [r9, #140]	; 0x8c
  103a60:	f1ba 0f00 	cmp.w	sl, #0
  103a64:	d124      	bne.n	103ab0 <crypto_sha2_update+0xe0>
  103a66:	f8d9 3000 	ldr.w	r3, [r9]
  103a6a:	f023 0304 	bic.w	r3, r3, #4
  103a6e:	f8c9 3000 	str.w	r3, [r9]
  103a72:	f884 a0e8 	strb.w	sl, [r4, #232]	; 0xe8
  103a76:	f8d4 a008 	ldr.w	sl, [r4, #8]
  103a7a:	ebaa 0908 	sub.w	r9, sl, r8
  103a7e:	454d      	cmp	r5, r9
  103a80:	da2b      	bge.n	103ada <crypto_sha2_update+0x10a>
  103a82:	f108 0060 	add.w	r0, r8, #96	; 0x60
  103a86:	4b37      	ldr	r3, [pc, #220]	; (103b64 <crypto_sha2_update+0x194>)
  103a88:	462a      	mov	r2, r5
  103a8a:	4631      	mov	r1, r6
  103a8c:	4420      	add	r0, r4
  103a8e:	4798      	blx	r3
  103a90:	f8d4 30e0 	ldr.w	r3, [r4, #224]	; 0xe0
  103a94:	442b      	add	r3, r5
  103a96:	f8c4 30e0 	str.w	r3, [r4, #224]	; 0xe0
  103a9a:	e01a      	b.n	103ad2 <crypto_sha2_update+0x102>
  103a9c:	f8d4 10ec 	ldr.w	r1, [r4, #236]	; 0xec
  103aa0:	f894 00ea 	ldrb.w	r0, [r4, #234]	; 0xea
  103aa4:	f7ff fefa 	bl	10389c <SHA2_hmac_load_key>
  103aa8:	2800      	cmp	r0, #0
  103aaa:	d0d4      	beq.n	103a56 <crypto_sha2_update+0x86>
  103aac:	4607      	mov	r7, r0
  103aae:	e7af      	b.n	103a10 <crypto_sha2_update+0x40>
  103ab0:	f8d9 3000 	ldr.w	r3, [r9]
  103ab4:	4652      	mov	r2, sl
  103ab6:	f043 0304 	orr.w	r3, r3, #4
  103aba:	f8c9 3000 	str.w	r3, [r9]
  103abe:	2301      	movs	r3, #1
  103ac0:	4631      	mov	r1, r6
  103ac2:	f884 30e8 	strb.w	r3, [r4, #232]	; 0xe8
  103ac6:	4620      	mov	r0, r4
  103ac8:	462b      	mov	r3, r5
  103aca:	4d27      	ldr	r5, [pc, #156]	; (103b68 <crypto_sha2_update+0x198>)
  103acc:	47a8      	blx	r5
  103ace:	2800      	cmp	r0, #0
  103ad0:	d1ec      	bne.n	103aac <crypto_sha2_update+0xdc>
  103ad2:	4620      	mov	r0, r4
  103ad4:	4b25      	ldr	r3, [pc, #148]	; (103b6c <crypto_sha2_update+0x19c>)
  103ad6:	4798      	blx	r3
  103ad8:	e79a      	b.n	103a10 <crypto_sha2_update+0x40>
  103ada:	f1b9 0f00 	cmp.w	r9, #0
  103ade:	d00a      	beq.n	103af6 <crypto_sha2_update+0x126>
  103ae0:	f108 0060 	add.w	r0, r8, #96	; 0x60
  103ae4:	4631      	mov	r1, r6
  103ae6:	464a      	mov	r2, r9
  103ae8:	4b1e      	ldr	r3, [pc, #120]	; (103b64 <crypto_sha2_update+0x194>)
  103aea:	4420      	add	r0, r4
  103aec:	4798      	blx	r3
  103aee:	44a8      	add	r8, r5
  103af0:	eba8 050a 	sub.w	r5, r8, sl
  103af4:	444e      	add	r6, r9
  103af6:	f104 0960 	add.w	r9, r4, #96	; 0x60
  103afa:	2200      	movs	r2, #0
  103afc:	4649      	mov	r1, r9
  103afe:	4620      	mov	r0, r4
  103b00:	68a3      	ldr	r3, [r4, #8]
  103b02:	f8df a064 	ldr.w	sl, [pc, #100]	; 103b68 <crypto_sha2_update+0x198>
  103b06:	47d0      	blx	sl
  103b08:	4602      	mov	r2, r0
  103b0a:	b9d8      	cbnz	r0, 103b44 <crypto_sha2_update+0x174>
  103b0c:	68a3      	ldr	r3, [r4, #8]
  103b0e:	f8c4 00e0 	str.w	r0, [r4, #224]	; 0xe0
  103b12:	3b01      	subs	r3, #1
  103b14:	ea03 0805 	and.w	r8, r3, r5
  103b18:	45a8      	cmp	r8, r5
  103b1a:	d208      	bcs.n	103b2e <crypto_sha2_update+0x15e>
  103b1c:	eba5 0508 	sub.w	r5, r5, r8
  103b20:	462b      	mov	r3, r5
  103b22:	4631      	mov	r1, r6
  103b24:	4620      	mov	r0, r4
  103b26:	47d0      	blx	sl
  103b28:	2800      	cmp	r0, #0
  103b2a:	d1bf      	bne.n	103aac <crypto_sha2_update+0xdc>
  103b2c:	442e      	add	r6, r5
  103b2e:	f1b8 0f00 	cmp.w	r8, #0
  103b32:	dd04      	ble.n	103b3e <crypto_sha2_update+0x16e>
  103b34:	4642      	mov	r2, r8
  103b36:	4631      	mov	r1, r6
  103b38:	4648      	mov	r0, r9
  103b3a:	4b0a      	ldr	r3, [pc, #40]	; (103b64 <crypto_sha2_update+0x194>)
  103b3c:	4798      	blx	r3
  103b3e:	f8c4 80e0 	str.w	r8, [r4, #224]	; 0xe0
  103b42:	e7c6      	b.n	103ad2 <crypto_sha2_update+0x102>
  103b44:	4607      	mov	r7, r0
  103b46:	e763      	b.n	103a10 <crypto_sha2_update+0x40>
  103b48:	00103135 	.word	0x00103135
  103b4c:	0010c217 	.word	0x0010c217
  103b50:	001037dd 	.word	0x001037dd
  103b54:	00103195 	.word	0x00103195
  103b58:	00103831 	.word	0x00103831
  103b5c:	00103ee1 	.word	0x00103ee1
  103b60:	00103f11 	.word	0x00103f11
  103b64:	00101365 	.word	0x00101365
  103b68:	00103769 	.word	0x00103769
  103b6c:	00103231 	.word	0x00103231

00103b70 <crypto_sha2_final>:
  103b70:	b5f8      	push	{r3, r4, r5, r6, r7, lr}
  103b72:	4b2a      	ldr	r3, [pc, #168]	; (103c1c <crypto_sha2_final+0xac>)
  103b74:	4605      	mov	r5, r0
  103b76:	460f      	mov	r7, r1
  103b78:	4798      	blx	r3
  103b7a:	4606      	mov	r6, r0
  103b7c:	b925      	cbnz	r5, 103b88 <crypto_sha2_final+0x18>
  103b7e:	f240 217f 	movw	r1, #639	; 0x27f
  103b82:	4827      	ldr	r0, [pc, #156]	; (103c20 <crypto_sha2_final+0xb0>)
  103b84:	f001 fc56 	bl	105434 <io_assert_failed>
  103b88:	b917      	cbnz	r7, 103b90 <crypto_sha2_final+0x20>
  103b8a:	f44f 7120 	mov.w	r1, #640	; 0x280
  103b8e:	e7f8      	b.n	103b82 <crypto_sha2_final+0x12>
  103b90:	4b24      	ldr	r3, [pc, #144]	; (103c24 <crypto_sha2_final+0xb4>)
  103b92:	4798      	blx	r3
  103b94:	4628      	mov	r0, r5
  103b96:	4b24      	ldr	r3, [pc, #144]	; (103c28 <crypto_sha2_final+0xb8>)
  103b98:	4798      	blx	r3
  103b9a:	4604      	mov	r4, r0
  103b9c:	bb00      	cbnz	r0, 103be0 <crypto_sha2_final+0x70>
  103b9e:	f895 30e9 	ldrb.w	r3, [r5, #233]	; 0xe9
  103ba2:	2b01      	cmp	r3, #1
  103ba4:	bf02      	ittt	eq
  103ba6:	68b3      	ldreq	r3, [r6, #8]
  103ba8:	f043 0301 	orreq.w	r3, r3, #1
  103bac:	60b3      	streq	r3, [r6, #8]
  103bae:	686b      	ldr	r3, [r5, #4]
  103bb0:	bf08      	it	eq
  103bb2:	f885 00e9 	strbeq.w	r0, [r5, #233]	; 0xe9
  103bb6:	2b01      	cmp	r3, #1
  103bb8:	d009      	beq.n	103bce <crypto_sha2_final+0x5e>
  103bba:	68b3      	ldr	r3, [r6, #8]
  103bbc:	f043 0302 	orr.w	r3, r3, #2
  103bc0:	60b3      	str	r3, [r6, #8]
  103bc2:	f8d5 30e0 	ldr.w	r3, [r5, #224]	; 0xe0
  103bc6:	b99b      	cbnz	r3, 103bf0 <crypto_sha2_final+0x80>
  103bc8:	f7ff fc68 	bl	10349c <SHA2_SlaveEnd>
  103bcc:	e01c      	b.n	103c08 <crypto_sha2_final+0x98>
  103bce:	f8d5 10ec 	ldr.w	r1, [r5, #236]	; 0xec
  103bd2:	f895 00ea 	ldrb.w	r0, [r5, #234]	; 0xea
  103bd6:	f7ff fe61 	bl	10389c <SHA2_hmac_load_key>
  103bda:	4604      	mov	r4, r0
  103bdc:	2800      	cmp	r0, #0
  103bde:	d0ec      	beq.n	103bba <crypto_sha2_final+0x4a>
  103be0:	68b3      	ldr	r3, [r6, #8]
  103be2:	f023 0302 	bic.w	r3, r3, #2
  103be6:	60b3      	str	r3, [r6, #8]
  103be8:	4b10      	ldr	r3, [pc, #64]	; (103c2c <crypto_sha2_final+0xbc>)
  103bea:	4798      	blx	r3
  103bec:	4620      	mov	r0, r4
  103bee:	bdf8      	pop	{r3, r4, r5, r6, r7, pc}
  103bf0:	6833      	ldr	r3, [r6, #0]
  103bf2:	2200      	movs	r2, #0
  103bf4:	f023 0304 	bic.w	r3, r3, #4
  103bf8:	6033      	str	r3, [r6, #0]
  103bfa:	4628      	mov	r0, r5
  103bfc:	f8d5 30e0 	ldr.w	r3, [r5, #224]	; 0xe0
  103c00:	4c0b      	ldr	r4, [pc, #44]	; (103c30 <crypto_sha2_final+0xc0>)
  103c02:	f105 0160 	add.w	r1, r5, #96	; 0x60
  103c06:	47a0      	blx	r4
  103c08:	4604      	mov	r4, r0
  103c0a:	2800      	cmp	r0, #0
  103c0c:	d1e8      	bne.n	103be0 <crypto_sha2_final+0x70>
  103c0e:	4639      	mov	r1, r7
  103c10:	4628      	mov	r0, r5
  103c12:	4b08      	ldr	r3, [pc, #32]	; (103c34 <crypto_sha2_final+0xc4>)
  103c14:	4798      	blx	r3
  103c16:	4604      	mov	r4, r0
  103c18:	e7e2      	b.n	103be0 <crypto_sha2_final+0x70>
  103c1a:	bf00      	nop
  103c1c:	00103135 	.word	0x00103135
  103c20:	0010c217 	.word	0x0010c217
  103c24:	001037dd 	.word	0x001037dd
  103c28:	00103195 	.word	0x00103195
  103c2c:	00103831 	.word	0x00103831
  103c30:	00103769 	.word	0x00103769
  103c34:	00103281 	.word	0x00103281

00103c38 <crypto_hmac_sha2_set_sw_key>:
  103c38:	b5f8      	push	{r3, r4, r5, r6, r7, lr}
  103c3a:	4606      	mov	r6, r0
  103c3c:	4b3e      	ldr	r3, [pc, #248]	; (103d38 <crypto_hmac_sha2_set_sw_key+0x100>)
  103c3e:	460f      	mov	r7, r1
  103c40:	4615      	mov	r5, r2
  103c42:	4798      	blx	r3
  103c44:	2e03      	cmp	r6, #3
  103c46:	4604      	mov	r4, r0
  103c48:	d908      	bls.n	103c5c <crypto_hmac_sha2_set_sw_key+0x24>
  103c4a:	2e21      	cmp	r6, #33	; 0x21
  103c4c:	d024      	beq.n	103c98 <crypto_hmac_sha2_set_sw_key+0x60>
  103c4e:	2e22      	cmp	r6, #34	; 0x22
  103c50:	d00b      	beq.n	103c6a <crypto_hmac_sha2_set_sw_key+0x32>
  103c52:	f240 21b1 	movw	r1, #689	; 0x2b1
  103c56:	4839      	ldr	r0, [pc, #228]	; (103d3c <crypto_hmac_sha2_set_sw_key+0x104>)
  103c58:	f001 fbec 	bl	105434 <io_assert_failed>
  103c5c:	2f80      	cmp	r7, #128	; 0x80
  103c5e:	d11d      	bne.n	103c9c <crypto_hmac_sha2_set_sw_key+0x64>
  103c60:	4b37      	ldr	r3, [pc, #220]	; (103d40 <crypto_hmac_sha2_set_sw_key+0x108>)
  103c62:	4798      	blx	r3
  103c64:	f06f 0406 	mvn.w	r4, #6
  103c68:	e046      	b.n	103cf8 <crypto_hmac_sha2_set_sw_key+0xc0>
  103c6a:	2f80      	cmp	r7, #128	; 0x80
  103c6c:	d116      	bne.n	103c9c <crypto_hmac_sha2_set_sw_key+0x64>
  103c6e:	4b34      	ldr	r3, [pc, #208]	; (103d40 <crypto_hmac_sha2_set_sw_key+0x108>)
  103c70:	4798      	blx	r3
  103c72:	2304      	movs	r3, #4
  103c74:	461a      	mov	r2, r3
  103c76:	2000      	movs	r0, #0
  103c78:	4282      	cmp	r2, r0
  103c7a:	f102 0101 	add.w	r1, r2, #1
  103c7e:	bf08      	it	eq
  103c80:	2101      	moveq	r1, #1
  103c82:	3901      	subs	r1, #1
  103c84:	d037      	beq.n	103cf6 <crypto_hmac_sha2_set_sw_key+0xbe>
  103c86:	f855 2020 	ldr.w	r2, [r5, r0, lsl #2]
  103c8a:	ba16      	rev	r6, r2
  103c8c:	181a      	adds	r2, r3, r0
  103c8e:	320c      	adds	r2, #12
  103c90:	f844 6022 	str.w	r6, [r4, r2, lsl #2]
  103c94:	3001      	adds	r0, #1
  103c96:	e7f4      	b.n	103c82 <crypto_hmac_sha2_set_sw_key+0x4a>
  103c98:	2f80      	cmp	r7, #128	; 0x80
  103c9a:	d012      	beq.n	103cc2 <crypto_hmac_sha2_set_sw_key+0x8a>
  103c9c:	2fc0      	cmp	r7, #192	; 0xc0
  103c9e:	d02e      	beq.n	103cfe <crypto_hmac_sha2_set_sw_key+0xc6>
  103ca0:	f5b7 7f80 	cmp.w	r7, #256	; 0x100
  103ca4:	d145      	bne.n	103d32 <crypto_hmac_sha2_set_sw_key+0xfa>
  103ca6:	4b27      	ldr	r3, [pc, #156]	; (103d44 <crypto_hmac_sha2_set_sw_key+0x10c>)
  103ca8:	e843 f300 	tt	r3, r3
  103cac:	0259      	lsls	r1, r3, #9
  103cae:	f3c3 5780 	ubfx	r7, r3, #22, #1
  103cb2:	d52e      	bpl.n	103d12 <crypto_hmac_sha2_set_sw_key+0xda>
  103cb4:	4b22      	ldr	r3, [pc, #136]	; (103d40 <crypto_hmac_sha2_set_sw_key+0x108>)
  103cb6:	4798      	blx	r3
  103cb8:	2208      	movs	r2, #8
  103cba:	2300      	movs	r3, #0
  103cbc:	2e21      	cmp	r6, #33	; 0x21
  103cbe:	d00d      	beq.n	103cdc <crypto_hmac_sha2_set_sw_key+0xa4>
  103cc0:	e02d      	b.n	103d1e <crypto_hmac_sha2_set_sw_key+0xe6>
  103cc2:	4b20      	ldr	r3, [pc, #128]	; (103d44 <crypto_hmac_sha2_set_sw_key+0x10c>)
  103cc4:	e843 f300 	tt	r3, r3
  103cc8:	025a      	lsls	r2, r3, #9
  103cca:	d403      	bmi.n	103cd4 <crypto_hmac_sha2_set_sw_key+0x9c>
  103ccc:	f06f 040d 	mvn.w	r4, #13
  103cd0:	4620      	mov	r0, r4
  103cd2:	bdf8      	pop	{r3, r4, r5, r6, r7, pc}
  103cd4:	4b1a      	ldr	r3, [pc, #104]	; (103d40 <crypto_hmac_sha2_set_sw_key+0x108>)
  103cd6:	4798      	blx	r3
  103cd8:	2204      	movs	r2, #4
  103cda:	4613      	mov	r3, r2
  103cdc:	2100      	movs	r1, #0
  103cde:	f042 e001 	dls	lr, r2
  103ce2:	f855 2021 	ldr.w	r2, [r5, r1, lsl #2]
  103ce6:	ba10      	rev	r0, r2
  103ce8:	185a      	adds	r2, r3, r1
  103cea:	3204      	adds	r2, #4
  103cec:	f844 0022 	str.w	r0, [r4, r2, lsl #2]
  103cf0:	3101      	adds	r1, #1
  103cf2:	f00f c00b 	le	lr, 103ce2 <crypto_hmac_sha2_set_sw_key+0xaa>
  103cf6:	2400      	movs	r4, #0
  103cf8:	4b13      	ldr	r3, [pc, #76]	; (103d48 <crypto_hmac_sha2_set_sw_key+0x110>)
  103cfa:	4798      	blx	r3
  103cfc:	e7e8      	b.n	103cd0 <crypto_hmac_sha2_set_sw_key+0x98>
  103cfe:	4b11      	ldr	r3, [pc, #68]	; (103d44 <crypto_hmac_sha2_set_sw_key+0x10c>)
  103d00:	e843 f300 	tt	r3, r3
  103d04:	025b      	lsls	r3, r3, #9
  103d06:	d50d      	bpl.n	103d24 <crypto_hmac_sha2_set_sw_key+0xec>
  103d08:	4b0d      	ldr	r3, [pc, #52]	; (103d40 <crypto_hmac_sha2_set_sw_key+0x108>)
  103d0a:	4798      	blx	r3
  103d0c:	2206      	movs	r2, #6
  103d0e:	2302      	movs	r3, #2
  103d10:	e7d4      	b.n	103cbc <crypto_hmac_sha2_set_sw_key+0x84>
  103d12:	2e21      	cmp	r6, #33	; 0x21
  103d14:	d0da      	beq.n	103ccc <crypto_hmac_sha2_set_sw_key+0x94>
  103d16:	4b0a      	ldr	r3, [pc, #40]	; (103d40 <crypto_hmac_sha2_set_sw_key+0x108>)
  103d18:	4798      	blx	r3
  103d1a:	463b      	mov	r3, r7
  103d1c:	2208      	movs	r2, #8
  103d1e:	2e22      	cmp	r6, #34	; 0x22
  103d20:	d1a0      	bne.n	103c64 <crypto_hmac_sha2_set_sw_key+0x2c>
  103d22:	e7a8      	b.n	103c76 <crypto_hmac_sha2_set_sw_key+0x3e>
  103d24:	2e21      	cmp	r6, #33	; 0x21
  103d26:	d0d1      	beq.n	103ccc <crypto_hmac_sha2_set_sw_key+0x94>
  103d28:	4b05      	ldr	r3, [pc, #20]	; (103d40 <crypto_hmac_sha2_set_sw_key+0x108>)
  103d2a:	4798      	blx	r3
  103d2c:	2302      	movs	r3, #2
  103d2e:	2206      	movs	r2, #6
  103d30:	e7f5      	b.n	103d1e <crypto_hmac_sha2_set_sw_key+0xe6>
  103d32:	f06f 040e 	mvn.w	r4, #14
  103d36:	e7cb      	b.n	103cd0 <crypto_hmac_sha2_set_sw_key+0x98>
  103d38:	00103155 	.word	0x00103155
  103d3c:	0010c217 	.word	0x0010c217
  103d40:	001037dd 	.word	0x001037dd
  103d44:	0010a1e9 	.word	0x0010a1e9
  103d48:	00103831 	.word	0x00103831

00103d4c <crypto_hmac_sha2_share_secure_key>:
  103d4c:	b5f8      	push	{r3, r4, r5, r6, r7, lr}
  103d4e:	4b16      	ldr	r3, [pc, #88]	; (103da8 <crypto_hmac_sha2_share_secure_key+0x5c>)
  103d50:	4604      	mov	r4, r0
  103d52:	460f      	mov	r7, r1
  103d54:	4798      	blx	r3
  103d56:	4b15      	ldr	r3, [pc, #84]	; (103dac <crypto_hmac_sha2_share_secure_key+0x60>)
  103d58:	e843 f300 	tt	r3, r3
  103d5c:	025b      	lsls	r3, r3, #9
  103d5e:	4605      	mov	r5, r0
  103d60:	d51f      	bpl.n	103da2 <crypto_hmac_sha2_share_secure_key+0x56>
  103d62:	2c03      	cmp	r4, #3
  103d64:	d908      	bls.n	103d78 <crypto_hmac_sha2_share_secure_key+0x2c>
  103d66:	2c21      	cmp	r4, #33	; 0x21
  103d68:	f04f 0620 	mov.w	r6, #32
  103d6c:	d00a      	beq.n	103d84 <crypto_hmac_sha2_share_secure_key+0x38>
  103d6e:	f240 21de 	movw	r1, #734	; 0x2de
  103d72:	480f      	ldr	r0, [pc, #60]	; (103db0 <crypto_hmac_sha2_share_secure_key+0x64>)
  103d74:	f001 fb5e 	bl	105434 <io_assert_failed>
  103d78:	b174      	cbz	r4, 103d98 <crypto_hmac_sha2_share_secure_key+0x4c>
  103d7a:	4b0e      	ldr	r3, [pc, #56]	; (103db4 <crypto_hmac_sha2_share_secure_key+0x68>)
  103d7c:	3c01      	subs	r4, #1
  103d7e:	b2e4      	uxtb	r4, r4
  103d80:	4423      	add	r3, r4
  103d82:	791e      	ldrb	r6, [r3, #4]
  103d84:	4b0c      	ldr	r3, [pc, #48]	; (103db8 <crypto_hmac_sha2_share_secure_key+0x6c>)
  103d86:	4798      	blx	r3
  103d88:	686b      	ldr	r3, [r5, #4]
  103d8a:	b13f      	cbz	r7, 103d9c <crypto_hmac_sha2_share_secure_key+0x50>
  103d8c:	4333      	orrs	r3, r6
  103d8e:	606b      	str	r3, [r5, #4]
  103d90:	4b0a      	ldr	r3, [pc, #40]	; (103dbc <crypto_hmac_sha2_share_secure_key+0x70>)
  103d92:	4798      	blx	r3
  103d94:	2000      	movs	r0, #0
  103d96:	bdf8      	pop	{r3, r4, r5, r6, r7, pc}
  103d98:	2602      	movs	r6, #2
  103d9a:	e7f3      	b.n	103d84 <crypto_hmac_sha2_share_secure_key+0x38>
  103d9c:	ea23 0306 	bic.w	r3, r3, r6
  103da0:	e7f5      	b.n	103d8e <crypto_hmac_sha2_share_secure_key+0x42>
  103da2:	f06f 000d 	mvn.w	r0, #13
  103da6:	e7f6      	b.n	103d96 <crypto_hmac_sha2_share_secure_key+0x4a>
  103da8:	00103155 	.word	0x00103155
  103dac:	0010a1e9 	.word	0x0010a1e9
  103db0:	0010c217 	.word	0x0010c217
  103db4:	0010c27c 	.word	0x0010c27c
  103db8:	001037dd 	.word	0x001037dd
  103dbc:	00103831 	.word	0x00103831

00103dc0 <crypto_hmac_sha2_init>:
  103dc0:	b5f0      	push	{r4, r5, r6, r7, lr}
  103dc2:	2903      	cmp	r1, #3
  103dc4:	4604      	mov	r4, r0
  103dc6:	460f      	mov	r7, r1
  103dc8:	4615      	mov	r5, r2
  103dca:	461e      	mov	r6, r3
  103dcc:	b085      	sub	sp, #20
  103dce:	d904      	bls.n	103dda <crypto_hmac_sha2_init+0x1a>
  103dd0:	f240 21f5 	movw	r1, #757	; 0x2f5
  103dd4:	4823      	ldr	r0, [pc, #140]	; (103e64 <crypto_hmac_sha2_init+0xa4>)
  103dd6:	f001 fb2d 	bl	105434 <io_assert_failed>
  103dda:	f023 0340 	bic.w	r3, r3, #64	; 0x40
  103dde:	2b80      	cmp	r3, #128	; 0x80
  103de0:	d005      	beq.n	103dee <crypto_hmac_sha2_init+0x2e>
  103de2:	f5b6 7f80 	cmp.w	r6, #256	; 0x100
  103de6:	d002      	beq.n	103dee <crypto_hmac_sha2_init+0x2e>
  103de8:	f240 21f6 	movw	r1, #758	; 0x2f6
  103dec:	e7f2      	b.n	103dd4 <crypto_hmac_sha2_init+0x14>
  103dee:	2d03      	cmp	r5, #3
  103df0:	d906      	bls.n	103e00 <crypto_hmac_sha2_init+0x40>
  103df2:	f1a5 0321 	sub.w	r3, r5, #33	; 0x21
  103df6:	2b01      	cmp	r3, #1
  103df8:	d902      	bls.n	103e00 <crypto_hmac_sha2_init+0x40>
  103dfa:	f240 21f7 	movw	r1, #759	; 0x2f7
  103dfe:	e7e9      	b.n	103dd4 <crypto_hmac_sha2_init+0x14>
  103e00:	b914      	cbnz	r4, 103e08 <crypto_hmac_sha2_init+0x48>
  103e02:	f44f 713e 	mov.w	r1, #760	; 0x2f8
  103e06:	e7e5      	b.n	103dd4 <crypto_hmac_sha2_init+0x14>
  103e08:	4b17      	ldr	r3, [pc, #92]	; (103e68 <crypto_hmac_sha2_init+0xa8>)
  103e0a:	4798      	blx	r3
  103e0c:	2100      	movs	r1, #0
  103e0e:	f44f 7280 	mov.w	r2, #256	; 0x100
  103e12:	4b16      	ldr	r3, [pc, #88]	; (103e6c <crypto_hmac_sha2_init+0xac>)
  103e14:	4620      	mov	r0, r4
  103e16:	4798      	blx	r3
  103e18:	1ebb      	subs	r3, r7, #2
  103e1a:	2b02      	cmp	r3, #2
  103e1c:	bf34      	ite	cc
  103e1e:	2380      	movcc	r3, #128	; 0x80
  103e20:	2340      	movcs	r3, #64	; 0x40
  103e22:	6027      	str	r7, [r4, #0]
  103e24:	f8c4 30e4 	str.w	r3, [r4, #228]	; 0xe4
  103e28:	2701      	movs	r7, #1
  103e2a:	f44f 7380 	mov.w	r3, #256	; 0x100
  103e2e:	4668      	mov	r0, sp
  103e30:	f8a4 30e8 	strh.w	r3, [r4, #232]	; 0xe8
  103e34:	6067      	str	r7, [r4, #4]
  103e36:	f8c4 60ec 	str.w	r6, [r4, #236]	; 0xec
  103e3a:	f884 50ea 	strb.w	r5, [r4, #234]	; 0xea
  103e3e:	f7ff faab 	bl	103398 <SHA_StructInit>
  103e42:	4621      	mov	r1, r4
  103e44:	4668      	mov	r0, sp
  103e46:	4b0a      	ldr	r3, [pc, #40]	; (103e70 <crypto_hmac_sha2_init+0xb0>)
  103e48:	9703      	str	r7, [sp, #12]
  103e4a:	4798      	blx	r3
  103e4c:	b928      	cbnz	r0, 103e5a <crypto_hmac_sha2_init+0x9a>
  103e4e:	4620      	mov	r0, r4
  103e50:	4b08      	ldr	r3, [pc, #32]	; (103e74 <crypto_hmac_sha2_init+0xb4>)
  103e52:	4798      	blx	r3
  103e54:	4620      	mov	r0, r4
  103e56:	4b08      	ldr	r3, [pc, #32]	; (103e78 <crypto_hmac_sha2_init+0xb8>)
  103e58:	4798      	blx	r3
  103e5a:	4b08      	ldr	r3, [pc, #32]	; (103e7c <crypto_hmac_sha2_init+0xbc>)
  103e5c:	4798      	blx	r3
  103e5e:	2000      	movs	r0, #0
  103e60:	b005      	add	sp, #20
  103e62:	bdf0      	pop	{r4, r5, r6, r7, pc}
  103e64:	0010c217 	.word	0x0010c217
  103e68:	001037dd 	.word	0x001037dd
  103e6c:	001014f9 	.word	0x001014f9
  103e70:	001033a7 	.word	0x001033a7
  103e74:	00103455 	.word	0x00103455
  103e78:	00103231 	.word	0x00103231
  103e7c:	00103831 	.word	0x00103831

00103e80 <crypto_hmac_sha2_update>:
  103e80:	b510      	push	{r4, lr}
  103e82:	4c01      	ldr	r4, [pc, #4]	; (103e88 <crypto_hmac_sha2_update+0x8>)
  103e84:	47a0      	blx	r4
  103e86:	bd10      	pop	{r4, pc}
  103e88:	001039d1 	.word	0x001039d1

00103e8c <crypto_hmac_sha2_final>:
  103e8c:	b508      	push	{r3, lr}
  103e8e:	4b01      	ldr	r3, [pc, #4]	; (103e94 <crypto_hmac_sha2_final+0x8>)
  103e90:	4798      	blx	r3
  103e92:	bd08      	pop	{r3, pc}
  103e94:	00103b71 	.word	0x00103b71

00103e98 <CRYPTO_Init>:
  103e98:	f44f 7180 	mov.w	r1, #256	; 0x100
  103e9c:	2201      	movs	r2, #1
  103e9e:	4608      	mov	r0, r1
  103ea0:	b510      	push	{r4, lr}
  103ea2:	4b0a      	ldr	r3, [pc, #40]	; (103ecc <CRYPTO_Init+0x34>)
  103ea4:	4798      	blx	r3
  103ea6:	4b0a      	ldr	r3, [pc, #40]	; (103ed0 <CRYPTO_Init+0x38>)
  103ea8:	e843 f300 	tt	r3, r3
  103eac:	025b      	lsls	r3, r3, #9
  103eae:	bf44      	itt	mi
  103eb0:	2201      	movmi	r2, #1
  103eb2:	4b08      	ldrmi	r3, [pc, #32]	; (103ed4 <CRYPTO_Init+0x3c>)
  103eb4:	f44f 5080 	mov.w	r0, #4096	; 0x1000
  103eb8:	bf48      	it	mi
  103eba:	f8c3 2398 	strmi.w	r2, [r3, #920]	; 0x398
  103ebe:	4b06      	ldr	r3, [pc, #24]	; (103ed8 <CRYPTO_Init+0x40>)
  103ec0:	4798      	blx	r3
  103ec2:	e8bd 4010 	ldmia.w	sp!, {r4, lr}
  103ec6:	2002      	movs	r0, #2
  103ec8:	4b04      	ldr	r3, [pc, #16]	; (103edc <CRYPTO_Init+0x44>)
  103eca:	4718      	bx	r3
  103ecc:	00107509 	.word	0x00107509
  103ed0:	0010a1e9 	.word	0x0010a1e9
  103ed4:	50125000 	.word	0x50125000
  103ed8:	00103845 	.word	0x00103845
  103edc:	001026e9 	.word	0x001026e9

00103ee0 <CRYPTO_Addr_Not_Alined_Warning>:
  103ee0:	b510      	push	{r4, lr}
  103ee2:	b968      	cbnz	r0, 103f00 <CRYPTO_Addr_Not_Alined_Warning+0x20>
  103ee4:	2257      	movs	r2, #87	; 0x57
  103ee6:	2003      	movs	r0, #3
  103ee8:	4b06      	ldr	r3, [pc, #24]	; (103f04 <CRYPTO_Addr_Not_Alined_Warning+0x24>)
  103eea:	4907      	ldr	r1, [pc, #28]	; (103f08 <CRYPTO_Addr_Not_Alined_Warning+0x28>)
  103eec:	f006 fa02 	bl	10a2f4 <rtk_log_write>
  103ef0:	e8bd 4010 	ldmia.w	sp!, {r4, lr}
  103ef4:	2257      	movs	r2, #87	; 0x57
  103ef6:	2003      	movs	r0, #3
  103ef8:	4b04      	ldr	r3, [pc, #16]	; (103f0c <CRYPTO_Addr_Not_Alined_Warning+0x2c>)
  103efa:	4903      	ldr	r1, [pc, #12]	; (103f08 <CRYPTO_Addr_Not_Alined_Warning+0x28>)
  103efc:	f006 b9fa 	b.w	10a2f4 <rtk_log_write>
  103f00:	bd10      	pop	{r4, pc}
  103f02:	bf00      	nop
  103f04:	0010c283 	.word	0x0010c283
  103f08:	0010c2c8 	.word	0x0010c2c8
  103f0c:	0010c2cf 	.word	0x0010c2cf

00103f10 <CRYPTO_Length_Not_Alined_Warning>:
  103f10:	b510      	push	{r4, lr}
  103f12:	b968      	cbnz	r0, 103f30 <CRYPTO_Length_Not_Alined_Warning+0x20>
  103f14:	2257      	movs	r2, #87	; 0x57
  103f16:	2003      	movs	r0, #3
  103f18:	4b06      	ldr	r3, [pc, #24]	; (103f34 <CRYPTO_Length_Not_Alined_Warning+0x24>)
  103f1a:	4907      	ldr	r1, [pc, #28]	; (103f38 <CRYPTO_Length_Not_Alined_Warning+0x28>)
  103f1c:	f006 f9ea 	bl	10a2f4 <rtk_log_write>
  103f20:	e8bd 4010 	ldmia.w	sp!, {r4, lr}
  103f24:	2257      	movs	r2, #87	; 0x57
  103f26:	2003      	movs	r0, #3
  103f28:	4b04      	ldr	r3, [pc, #16]	; (103f3c <CRYPTO_Length_Not_Alined_Warning+0x2c>)
  103f2a:	4903      	ldr	r1, [pc, #12]	; (103f38 <CRYPTO_Length_Not_Alined_Warning+0x28>)
  103f2c:	f006 b9e2 	b.w	10a2f4 <rtk_log_write>
  103f30:	bd10      	pop	{r4, pc}
  103f32:	bf00      	nop
  103f34:	0010c34c 	.word	0x0010c34c
  103f38:	0010c2c8 	.word	0x0010c2c8
  103f3c:	0010c38c 	.word	0x0010c38c

00103f40 <pke_ecp_group_init_in_rom>:
  103f40:	b538      	push	{r3, r4, r5, lr}
  103f42:	460d      	mov	r5, r1
  103f44:	2230      	movs	r2, #48	; 0x30
  103f46:	2100      	movs	r1, #0
  103f48:	4bb1      	ldr	r3, [pc, #708]	; (104210 <pke_ecp_group_init_in_rom+0x2d0>)
  103f4a:	4604      	mov	r4, r0
  103f4c:	4798      	blx	r3
  103f4e:	1e69      	subs	r1, r5, #1
  103f50:	290d      	cmp	r1, #13
  103f52:	f200 81b9 	bhi.w	1042c8 <pke_ecp_group_init_in_rom+0x388>
  103f56:	e8df f011 	tbh	[pc, r1, lsl #1]
  103f5a:	000e      	.short	0x000e
  103f5c:	004c002d 	.word	0x004c002d
  103f60:	01b7006d 	.word	0x01b7006d
  103f64:	00ae008d 	.word	0x00ae008d
  103f68:	00ee00ce 	.word	0x00ee00ce
  103f6c:	01210102 	.word	0x01210102
  103f70:	0183013d 	.word	0x0183013d
  103f74:	0197      	.short	0x0197
  103f76:	21c0      	movs	r1, #192	; 0xc0
  103f78:	2301      	movs	r3, #1
  103f7a:	4aa6      	ldr	r2, [pc, #664]	; (104214 <pke_ecp_group_init_in_rom+0x2d4>)
  103f7c:	7023      	strb	r3, [r4, #0]
  103f7e:	e9c4 1201 	strd	r1, r2, [r4, #4]
  103f82:	f04f 3218 	mov.w	r2, #404232216	; 0x18181818
  103f86:	7423      	strb	r3, [r4, #16]
  103f88:	4ba3      	ldr	r3, [pc, #652]	; (104218 <pke_ecp_group_init_in_rom+0x2d8>)
  103f8a:	60e2      	str	r2, [r4, #12]
  103f8c:	f103 0218 	add.w	r2, r3, #24
  103f90:	61a2      	str	r2, [r4, #24]
  103f92:	f103 0230 	add.w	r2, r3, #48	; 0x30
  103f96:	61e2      	str	r2, [r4, #28]
  103f98:	f103 0248 	add.w	r2, r3, #72	; 0x48
  103f9c:	6222      	str	r2, [r4, #32]
  103f9e:	f103 0260 	add.w	r2, r3, #96	; 0x60
  103fa2:	6262      	str	r2, [r4, #36]	; 0x24
  103fa4:	f103 0278 	add.w	r2, r3, #120	; 0x78
  103fa8:	6163      	str	r3, [r4, #20]
  103faa:	62a2      	str	r2, [r4, #40]	; 0x28
  103fac:	3b0d      	subs	r3, #13
  103fae:	2000      	movs	r0, #0
  103fb0:	62e3      	str	r3, [r4, #44]	; 0x2c
  103fb2:	bd38      	pop	{r3, r4, r5, pc}
  103fb4:	2302      	movs	r3, #2
  103fb6:	f04f 0ce0 	mov.w	ip, #224	; 0xe0
  103fba:	7023      	strb	r3, [r4, #0]
  103fbc:	4b97      	ldr	r3, [pc, #604]	; (10421c <pke_ecp_group_init_in_rom+0x2dc>)
  103fbe:	e9c4 c301 	strd	ip, r3, [r4, #4]
  103fc2:	f04f 331c 	mov.w	r3, #471604252	; 0x1c1c1c1c
  103fc6:	60e3      	str	r3, [r4, #12]
  103fc8:	2301      	movs	r3, #1
  103fca:	7423      	strb	r3, [r4, #16]
  103fcc:	4b94      	ldr	r3, [pc, #592]	; (104220 <pke_ecp_group_init_in_rom+0x2e0>)
  103fce:	f103 021c 	add.w	r2, r3, #28
  103fd2:	61a2      	str	r2, [r4, #24]
  103fd4:	f103 0238 	add.w	r2, r3, #56	; 0x38
  103fd8:	61e2      	str	r2, [r4, #28]
  103fda:	f103 0254 	add.w	r2, r3, #84	; 0x54
  103fde:	6222      	str	r2, [r4, #32]
  103fe0:	f103 0270 	add.w	r2, r3, #112	; 0x70
  103fe4:	6262      	str	r2, [r4, #36]	; 0x24
  103fe6:	f103 028c 	add.w	r2, r3, #140	; 0x8c
  103fea:	6163      	str	r3, [r4, #20]
  103fec:	62a2      	str	r2, [r4, #40]	; 0x28
  103fee:	3b9c      	subs	r3, #156	; 0x9c
  103ff0:	e7dd      	b.n	103fae <pke_ecp_group_init_in_rom+0x6e>
  103ff2:	2303      	movs	r3, #3
  103ff4:	f44f 7080 	mov.w	r0, #256	; 0x100
  103ff8:	7023      	strb	r3, [r4, #0]
  103ffa:	4b8a      	ldr	r3, [pc, #552]	; (104224 <pke_ecp_group_init_in_rom+0x2e4>)
  103ffc:	f46f 75a1 	mvn.w	r5, #322	; 0x142
  104000:	e9c4 0301 	strd	r0, r3, [r4, #4]
  104004:	f04f 3320 	mov.w	r3, #538976288	; 0x20202020
  104008:	60e3      	str	r3, [r4, #12]
  10400a:	2301      	movs	r3, #1
  10400c:	7423      	strb	r3, [r4, #16]
  10400e:	4b86      	ldr	r3, [pc, #536]	; (104228 <pke_ecp_group_init_in_rom+0x2e8>)
  104010:	f103 0220 	add.w	r2, r3, #32
  104014:	61a2      	str	r2, [r4, #24]
  104016:	f103 0240 	add.w	r2, r3, #64	; 0x40
  10401a:	61e2      	str	r2, [r4, #28]
  10401c:	f103 0260 	add.w	r2, r3, #96	; 0x60
  104020:	6222      	str	r2, [r4, #32]
  104022:	f103 0280 	add.w	r2, r3, #128	; 0x80
  104026:	6262      	str	r2, [r4, #36]	; 0x24
  104028:	f103 02a0 	add.w	r2, r3, #160	; 0xa0
  10402c:	6163      	str	r3, [r4, #20]
  10402e:	62a2      	str	r2, [r4, #40]	; 0x28
  104030:	442b      	add	r3, r5
  104032:	e7bc      	b.n	103fae <pke_ecp_group_init_in_rom+0x6e>
  104034:	2304      	movs	r3, #4
  104036:	f44f 71c0 	mov.w	r1, #384	; 0x180
  10403a:	7023      	strb	r3, [r4, #0]
  10403c:	4b7b      	ldr	r3, [pc, #492]	; (10422c <pke_ecp_group_init_in_rom+0x2ec>)
  10403e:	e9c4 1301 	strd	r1, r3, [r4, #4]
  104042:	f04f 3330 	mov.w	r3, #808464432	; 0x30303030
  104046:	60e3      	str	r3, [r4, #12]
  104048:	2301      	movs	r3, #1
  10404a:	7423      	strb	r3, [r4, #16]
  10404c:	4b78      	ldr	r3, [pc, #480]	; (104230 <pke_ecp_group_init_in_rom+0x2f0>)
  10404e:	f103 0230 	add.w	r2, r3, #48	; 0x30
  104052:	61a2      	str	r2, [r4, #24]
  104054:	f103 0260 	add.w	r2, r3, #96	; 0x60
  104058:	61e2      	str	r2, [r4, #28]
  10405a:	f103 0290 	add.w	r2, r3, #144	; 0x90
  10405e:	6222      	str	r2, [r4, #32]
  104060:	f103 02c0 	add.w	r2, r3, #192	; 0xc0
  104064:	6262      	str	r2, [r4, #36]	; 0x24
  104066:	f103 02f0 	add.w	r2, r3, #240	; 0xf0
  10406a:	6163      	str	r3, [r4, #20]
  10406c:	62a2      	str	r2, [r4, #40]	; 0x28
  10406e:	f2a3 2302 	subw	r3, r3, #514	; 0x202
  104072:	e79c      	b.n	103fae <pke_ecp_group_init_in_rom+0x6e>
  104074:	2306      	movs	r3, #6
  104076:	f44f 7c80 	mov.w	ip, #256	; 0x100
  10407a:	7023      	strb	r3, [r4, #0]
  10407c:	4b69      	ldr	r3, [pc, #420]	; (104224 <pke_ecp_group_init_in_rom+0x2e4>)
  10407e:	e9c4 c301 	strd	ip, r3, [r4, #4]
  104082:	f04f 3320 	mov.w	r3, #538976288	; 0x20202020
  104086:	60e3      	str	r3, [r4, #12]
  104088:	2301      	movs	r3, #1
  10408a:	7423      	strb	r3, [r4, #16]
  10408c:	4b69      	ldr	r3, [pc, #420]	; (104234 <pke_ecp_group_init_in_rom+0x2f4>)
  10408e:	f103 0220 	add.w	r2, r3, #32
  104092:	61a2      	str	r2, [r4, #24]
  104094:	f103 0240 	add.w	r2, r3, #64	; 0x40
  104098:	61e2      	str	r2, [r4, #28]
  10409a:	f103 0260 	add.w	r2, r3, #96	; 0x60
  10409e:	6222      	str	r2, [r4, #32]
  1040a0:	f103 0280 	add.w	r2, r3, #128	; 0x80
  1040a4:	6262      	str	r2, [r4, #36]	; 0x24
  1040a6:	f103 02a0 	add.w	r2, r3, #160	; 0xa0
  1040aa:	62a2      	str	r2, [r4, #40]	; 0x28
  1040ac:	f46f 7248 	mvn.w	r2, #800	; 0x320
  1040b0:	6163      	str	r3, [r4, #20]
  1040b2:	4413      	add	r3, r2
  1040b4:	e77b      	b.n	103fae <pke_ecp_group_init_in_rom+0x6e>
  1040b6:	2307      	movs	r3, #7
  1040b8:	f44f 75c0 	mov.w	r5, #384	; 0x180
  1040bc:	7023      	strb	r3, [r4, #0]
  1040be:	4b5b      	ldr	r3, [pc, #364]	; (10422c <pke_ecp_group_init_in_rom+0x2ec>)
  1040c0:	e9c4 5301 	strd	r5, r3, [r4, #4]
  1040c4:	f04f 3330 	mov.w	r3, #808464432	; 0x30303030
  1040c8:	60e3      	str	r3, [r4, #12]
  1040ca:	2301      	movs	r3, #1
  1040cc:	7423      	strb	r3, [r4, #16]
  1040ce:	4b5a      	ldr	r3, [pc, #360]	; (104238 <pke_ecp_group_init_in_rom+0x2f8>)
  1040d0:	f103 0230 	add.w	r2, r3, #48	; 0x30
  1040d4:	61a2      	str	r2, [r4, #24]
  1040d6:	f103 0260 	add.w	r2, r3, #96	; 0x60
  1040da:	61e2      	str	r2, [r4, #28]
  1040dc:	f103 0290 	add.w	r2, r3, #144	; 0x90
  1040e0:	6222      	str	r2, [r4, #32]
  1040e2:	f103 02c0 	add.w	r2, r3, #192	; 0xc0
  1040e6:	6262      	str	r2, [r4, #36]	; 0x24
  1040e8:	f103 02f0 	add.w	r2, r3, #240	; 0xf0
  1040ec:	6163      	str	r3, [r4, #20]
  1040ee:	62a2      	str	r2, [r4, #40]	; 0x28
  1040f0:	f5a3 7378 	sub.w	r3, r3, #992	; 0x3e0
  1040f4:	e75b      	b.n	103fae <pke_ecp_group_init_in_rom+0x6e>
  1040f6:	2308      	movs	r3, #8
  1040f8:	f44f 7000 	mov.w	r0, #512	; 0x200
  1040fc:	7023      	strb	r3, [r4, #0]
  1040fe:	4b4f      	ldr	r3, [pc, #316]	; (10423c <pke_ecp_group_init_in_rom+0x2fc>)
  104100:	e9c4 0301 	strd	r0, r3, [r4, #4]
  104104:	f04f 3340 	mov.w	r3, #1077952576	; 0x40404040
  104108:	60e3      	str	r3, [r4, #12]
  10410a:	2301      	movs	r3, #1
  10410c:	7423      	strb	r3, [r4, #16]
  10410e:	4b4c      	ldr	r3, [pc, #304]	; (104240 <pke_ecp_group_init_in_rom+0x300>)
  104110:	f103 0240 	add.w	r2, r3, #64	; 0x40
  104114:	61a2      	str	r2, [r4, #24]
  104116:	f103 0280 	add.w	r2, r3, #128	; 0x80
  10411a:	61e2      	str	r2, [r4, #28]
  10411c:	f103 02c0 	add.w	r2, r3, #192	; 0xc0
  104120:	6222      	str	r2, [r4, #32]
  104122:	f503 7280 	add.w	r2, r3, #256	; 0x100
  104126:	6262      	str	r2, [r4, #36]	; 0x24
  104128:	f503 72a0 	add.w	r2, r3, #320	; 0x140
  10412c:	6163      	str	r3, [r4, #20]
  10412e:	62a2      	str	r2, [r4, #40]	; 0x28
  104130:	f2a3 43ff 	subw	r3, r3, #1279	; 0x4ff
  104134:	e73b      	b.n	103fae <pke_ecp_group_init_in_rom+0x6e>
  104136:	2309      	movs	r3, #9
  104138:	f44f 7180 	mov.w	r1, #256	; 0x100
  10413c:	7023      	strb	r3, [r4, #0]
  10413e:	4b41      	ldr	r3, [pc, #260]	; (104244 <pke_ecp_group_init_in_rom+0x304>)
  104140:	e9c4 1301 	strd	r1, r3, [r4, #4]
  104144:	2320      	movs	r3, #32
  104146:	7323      	strb	r3, [r4, #12]
  104148:	2301      	movs	r3, #1
  10414a:	7423      	strb	r3, [r4, #16]
  10414c:	4b3e      	ldr	r3, [pc, #248]	; (104248 <pke_ecp_group_init_in_rom+0x308>)
  10414e:	1cda      	adds	r2, r3, #3
  104150:	61a2      	str	r2, [r4, #24]
  104152:	1d1a      	adds	r2, r3, #4
  104154:	6163      	str	r3, [r4, #20]
  104156:	61e2      	str	r2, [r4, #28]
  104158:	f2a3 637e 	subw	r3, r3, #1662	; 0x67e
  10415c:	e727      	b.n	103fae <pke_ecp_group_init_in_rom+0x6e>
  10415e:	230a      	movs	r3, #10
  104160:	f04f 0cc0 	mov.w	ip, #192	; 0xc0
  104164:	7023      	strb	r3, [r4, #0]
  104166:	4b39      	ldr	r3, [pc, #228]	; (10424c <pke_ecp_group_init_in_rom+0x30c>)
  104168:	e9c4 c301 	strd	ip, r3, [r4, #4]
  10416c:	f04f 3318 	mov.w	r3, #404232216	; 0x18181818
  104170:	60e3      	str	r3, [r4, #12]
  104172:	2301      	movs	r3, #1
  104174:	7423      	strb	r3, [r4, #16]
  104176:	4b36      	ldr	r3, [pc, #216]	; (104250 <pke_ecp_group_init_in_rom+0x310>)
  104178:	1c5a      	adds	r2, r3, #1
  10417a:	61a2      	str	r2, [r4, #24]
  10417c:	1c9a      	adds	r2, r3, #2
  10417e:	61e2      	str	r2, [r4, #28]
  104180:	f103 021a 	add.w	r2, r3, #26
  104184:	6222      	str	r2, [r4, #32]
  104186:	f103 0232 	add.w	r2, r3, #50	; 0x32
  10418a:	6262      	str	r2, [r4, #36]	; 0x24
  10418c:	f103 024a 	add.w	r2, r3, #74	; 0x4a
  104190:	62a2      	str	r2, [r4, #40]	; 0x28
  104192:	f46f 62d4 	mvn.w	r2, #1696	; 0x6a0
  104196:	6163      	str	r3, [r4, #20]
  104198:	4413      	add	r3, r2
  10419a:	e708      	b.n	103fae <pke_ecp_group_init_in_rom+0x6e>
  10419c:	230b      	movs	r3, #11
  10419e:	25e1      	movs	r5, #225	; 0xe1
  1041a0:	7023      	strb	r3, [r4, #0]
  1041a2:	4b2a      	ldr	r3, [pc, #168]	; (10424c <pke_ecp_group_init_in_rom+0x30c>)
  1041a4:	e9c4 5301 	strd	r5, r3, [r4, #4]
  1041a8:	4b2a      	ldr	r3, [pc, #168]	; (104254 <pke_ecp_group_init_in_rom+0x314>)
  1041aa:	60e3      	str	r3, [r4, #12]
  1041ac:	2301      	movs	r3, #1
  1041ae:	7423      	strb	r3, [r4, #16]
  1041b0:	4b29      	ldr	r3, [pc, #164]	; (104258 <pke_ecp_group_init_in_rom+0x318>)
  1041b2:	1c5a      	adds	r2, r3, #1
  1041b4:	61a2      	str	r2, [r4, #24]
  1041b6:	1c9a      	adds	r2, r3, #2
  1041b8:	61e2      	str	r2, [r4, #28]
  1041ba:	f103 021e 	add.w	r2, r3, #30
  1041be:	6222      	str	r2, [r4, #32]
  1041c0:	f103 023b 	add.w	r2, r3, #59	; 0x3b
  1041c4:	6262      	str	r2, [r4, #36]	; 0x24
  1041c6:	f103 0257 	add.w	r2, r3, #87	; 0x57
  1041ca:	6163      	str	r3, [r4, #20]
  1041cc:	62a2      	str	r2, [r4, #40]	; 0x28
  1041ce:	f2a3 7302 	subw	r3, r3, #1794	; 0x702
  1041d2:	e6ec      	b.n	103fae <pke_ecp_group_init_in_rom+0x6e>
  1041d4:	230c      	movs	r3, #12
  1041d6:	f44f 7080 	mov.w	r0, #256	; 0x100
  1041da:	7023      	strb	r3, [r4, #0]
  1041dc:	4b1b      	ldr	r3, [pc, #108]	; (10424c <pke_ecp_group_init_in_rom+0x30c>)
  1041de:	e9c4 0301 	strd	r0, r3, [r4, #4]
  1041e2:	f04f 3320 	mov.w	r3, #538976288	; 0x20202020
  1041e6:	60e3      	str	r3, [r4, #12]
  1041e8:	2301      	movs	r3, #1
  1041ea:	7423      	strb	r3, [r4, #16]
  1041ec:	4b1b      	ldr	r3, [pc, #108]	; (10425c <pke_ecp_group_init_in_rom+0x31c>)
  1041ee:	1c5a      	adds	r2, r3, #1
  1041f0:	61a2      	str	r2, [r4, #24]
  1041f2:	1c9a      	adds	r2, r3, #2
  1041f4:	61e2      	str	r2, [r4, #28]
  1041f6:	f103 0222 	add.w	r2, r3, #34	; 0x22
  1041fa:	6222      	str	r2, [r4, #32]
  1041fc:	f103 0242 	add.w	r2, r3, #66	; 0x42
  104200:	6262      	str	r2, [r4, #36]	; 0x24
  104202:	f103 0262 	add.w	r2, r3, #98	; 0x62
  104206:	6163      	str	r3, [r4, #20]
  104208:	62a2      	str	r2, [r4, #40]	; 0x28
  10420a:	f2a3 7374 	subw	r3, r3, #1908	; 0x774
  10420e:	e6ce      	b.n	103fae <pke_ecp_group_init_in_rom+0x6e>
  104210:	001014f9 	.word	0x001014f9
  104214:	18180000 	.word	0x18180000
  104218:	0010c472 	.word	0x0010c472
  10421c:	1c1c0000 	.word	0x1c1c0000
  104220:	0010c502 	.word	0x0010c502
