
/home/weiqiang_sun/S_SDK_Repo/S_SDK_Repo_RTOS_Master_Temporary/amebagreen2_gcc_project/project_km4tz/asdk/image/target_rom_wifi.axf:     file format elf32-littlearm


Disassembly of section .rom_wifi.text:

00114000 <gf_mulx>:
  114000:	b508      	push	{r3, lr}
  114002:	f04f 0e0f 	mov.w	lr, #15
  114006:	f890 c000 	ldrb.w	ip, [r0]
  11400a:	f04e e001 	dls	lr, lr
  11400e:	4601      	mov	r1, r0
  114010:	4662      	mov	r2, ip
  114012:	0053      	lsls	r3, r2, #1
  114014:	784a      	ldrb	r2, [r1, #1]
  114016:	ea43 13d2 	orr.w	r3, r3, r2, lsr #7
  11401a:	f801 3b01 	strb.w	r3, [r1], #1
  11401e:	f00f c009 	le	lr, 114012 <gf_mulx+0x12>
  114022:	7bc3      	ldrb	r3, [r0, #15]
  114024:	f01c 0f80 	tst.w	ip, #128	; 0x80
  114028:	ea4f 0343 	mov.w	r3, r3, lsl #1
  11402c:	b2db      	uxtb	r3, r3
  11402e:	bf18      	it	ne
  114030:	f083 0387 	eorne.w	r3, r3, #135	; 0x87
  114034:	73c3      	strb	r3, [r0, #15]
  114036:	bd08      	pop	{r3, pc}

00114038 <aes_set_key>:
  114038:	e92d 4ff0 	stmdb	sp!, {r4, r5, r6, r7, r8, r9, sl, fp, lr}
  11403c:	2ac0      	cmp	r2, #192	; 0xc0
  11403e:	b083      	sub	sp, #12
  114040:	d00a      	beq.n	114058 <aes_set_key+0x20>
  114042:	f5b2 7f80 	cmp.w	r2, #256	; 0x100
  114046:	f000 80ea 	beq.w	11421e <aes_set_key+0x1e6>
  11404a:	2a80      	cmp	r2, #128	; 0x80
  11404c:	f000 80e4 	beq.w	114218 <aes_set_key+0x1e0>
  114050:	2001      	movs	r0, #1
  114052:	b003      	add	sp, #12
  114054:	e8bd 8ff0 	ldmia.w	sp!, {r4, r5, r6, r7, r8, r9, sl, fp, pc}
  114058:	4605      	mov	r5, r0
  11405a:	230c      	movs	r3, #12
  11405c:	ea4f 1e62 	mov.w	lr, r2, asr #5
  114060:	f1be 0f01 	cmp.w	lr, #1
  114064:	bfb8      	it	lt
  114066:	f04f 0e01 	movlt.w	lr, #1
  11406a:	f04e e001 	dls	lr, lr
  11406e:	f8c0 3200 	str.w	r3, [r0, #512]	; 0x200
  114072:	1f04      	subs	r4, r0, #4
  114074:	784b      	ldrb	r3, [r1, #1]
  114076:	f891 c000 	ldrb.w	ip, [r1]
  11407a:	78cf      	ldrb	r7, [r1, #3]
  11407c:	041b      	lsls	r3, r3, #16
  11407e:	788e      	ldrb	r6, [r1, #2]
  114080:	ea43 630c 	orr.w	r3, r3, ip, lsl #24
  114084:	433b      	orrs	r3, r7
  114086:	ea43 2306 	orr.w	r3, r3, r6, lsl #8
  11408a:	f844 3f04 	str.w	r3, [r4, #4]!
  11408e:	3104      	adds	r1, #4
  114090:	f00f c011 	le	lr, 114074 <aes_set_key+0x3c>
  114094:	2ac0      	cmp	r2, #192	; 0xc0
  114096:	6801      	ldr	r1, [r0, #0]
  114098:	f000 80c4 	beq.w	114224 <aes_set_key+0x1ec>
  11409c:	f5b2 7f80 	cmp.w	r2, #256	; 0x100
  1140a0:	f000 8106 	beq.w	1142b0 <aes_set_key+0x278>
  1140a4:	2a80      	cmp	r2, #128	; 0x80
  1140a6:	f000 816e 	beq.w	114386 <aes_set_key+0x34e>
  1140aa:	f8c0 1100 	str.w	r1, [r0, #256]	; 0x100
  1140ae:	686a      	ldr	r2, [r5, #4]
  1140b0:	f8d0 3200 	ldr.w	r3, [r0, #512]	; 0x200
  1140b4:	f8c0 2104 	str.w	r2, [r0, #260]	; 0x104
  1140b8:	68aa      	ldr	r2, [r5, #8]
  1140ba:	2b01      	cmp	r3, #1
  1140bc:	f8c0 2108 	str.w	r2, [r0, #264]	; 0x108
  1140c0:	68ea      	ldr	r2, [r5, #12]
  1140c2:	f105 0410 	add.w	r4, r5, #16
  1140c6:	f8c0 210c 	str.w	r2, [r0, #268]	; 0x10c
  1140ca:	f340 8193 	ble.w	1143f4 <aes_set_key+0x3bc>
  1140ce:	2601      	movs	r6, #1
  1140d0:	4bca      	ldr	r3, [pc, #808]	; (1143fc <aes_set_key+0x3c4>)
  1140d2:	4dcb      	ldr	r5, [pc, #812]	; (114400 <aes_set_key+0x3c8>)
  1140d4:	f500 7190 	add.w	r1, r0, #288	; 0x120
  1140d8:	f854 2c20 	ldr.w	r2, [r4, #-32]
  1140dc:	3601      	adds	r6, #1
  1140de:	0e17      	lsrs	r7, r2, #24
  1140e0:	fa5f fe82 	uxtb.w	lr, r2
  1140e4:	f3c2 4c07 	ubfx	ip, r2, #16, #8
  1140e8:	eb03 0787 	add.w	r7, r3, r7, lsl #2
  1140ec:	eb03 0e8e 	add.w	lr, r3, lr, lsl #2
  1140f0:	f8d7 7428 	ldr.w	r7, [r7, #1064]	; 0x428
  1140f4:	f8de e828 	ldr.w	lr, [lr, #2088]	; 0x828
  1140f8:	eb03 0c8c 	add.w	ip, r3, ip, lsl #2
  1140fc:	f3c2 2207 	ubfx	r2, r2, #8, #8
  114100:	f8dc 8c28 	ldr.w	r8, [ip, #3112]	; 0xc28
  114104:	eb05 0282 	add.w	r2, r5, r2, lsl #2
  114108:	f852 ccd0 	ldr.w	ip, [r2, #-208]
  11410c:	ea87 020e 	eor.w	r2, r7, lr
  114110:	ea82 0208 	eor.w	r2, r2, r8
  114114:	ea82 020c 	eor.w	r2, r2, ip
  114118:	f841 2c10 	str.w	r2, [r1, #-16]
  11411c:	f854 2c1c 	ldr.w	r2, [r4, #-28]
  114120:	460f      	mov	r7, r1
  114122:	ea4f 6c12 	mov.w	ip, r2, lsr #24
  114126:	fa5f f882 	uxtb.w	r8, r2
  11412a:	f3c2 4e07 	ubfx	lr, r2, #16, #8
  11412e:	eb03 0c8c 	add.w	ip, r3, ip, lsl #2
  114132:	eb03 0888 	add.w	r8, r3, r8, lsl #2
  114136:	f8dc c428 	ldr.w	ip, [ip, #1064]	; 0x428
  11413a:	f8d8 8828 	ldr.w	r8, [r8, #2088]	; 0x828
  11413e:	eb03 0e8e 	add.w	lr, r3, lr, lsl #2
  114142:	f3c2 2207 	ubfx	r2, r2, #8, #8
  114146:	f8de 9c28 	ldr.w	r9, [lr, #3112]	; 0xc28
  11414a:	eb05 0282 	add.w	r2, r5, r2, lsl #2
  11414e:	f852 ecd0 	ldr.w	lr, [r2, #-208]
  114152:	ea8c 0208 	eor.w	r2, ip, r8
  114156:	ea82 0209 	eor.w	r2, r2, r9
  11415a:	ea82 020e 	eor.w	r2, r2, lr
  11415e:	f841 2c0c 	str.w	r2, [r1, #-12]
  114162:	f854 2c18 	ldr.w	r2, [r4, #-24]
  114166:	3110      	adds	r1, #16
  114168:	ea4f 6c12 	mov.w	ip, r2, lsr #24
  11416c:	fa5f f882 	uxtb.w	r8, r2
  114170:	f3c2 4e07 	ubfx	lr, r2, #16, #8
  114174:	eb03 0c8c 	add.w	ip, r3, ip, lsl #2
  114178:	eb03 0888 	add.w	r8, r3, r8, lsl #2
  11417c:	f8dc c428 	ldr.w	ip, [ip, #1064]	; 0x428
  114180:	f8d8 8828 	ldr.w	r8, [r8, #2088]	; 0x828
  114184:	eb03 0e8e 	add.w	lr, r3, lr, lsl #2
  114188:	f3c2 2207 	ubfx	r2, r2, #8, #8
  11418c:	f8de 9c28 	ldr.w	r9, [lr, #3112]	; 0xc28
  114190:	eb05 0282 	add.w	r2, r5, r2, lsl #2
  114194:	f852 ecd0 	ldr.w	lr, [r2, #-208]
  114198:	ea8c 0208 	eor.w	r2, ip, r8
  11419c:	ea82 0209 	eor.w	r2, r2, r9
  1141a0:	ea82 020e 	eor.w	r2, r2, lr
  1141a4:	f841 2c18 	str.w	r2, [r1, #-24]
  1141a8:	f854 2c14 	ldr.w	r2, [r4, #-20]
  1141ac:	3c10      	subs	r4, #16
  1141ae:	ea4f 6c12 	mov.w	ip, r2, lsr #24
  1141b2:	fa5f f882 	uxtb.w	r8, r2
  1141b6:	f3c2 4e07 	ubfx	lr, r2, #16, #8
  1141ba:	eb03 0c8c 	add.w	ip, r3, ip, lsl #2
  1141be:	eb03 0888 	add.w	r8, r3, r8, lsl #2
  1141c2:	eb03 0e8e 	add.w	lr, r3, lr, lsl #2
  1141c6:	f8dc c428 	ldr.w	ip, [ip, #1064]	; 0x428
  1141ca:	f8d8 8828 	ldr.w	r8, [r8, #2088]	; 0x828
  1141ce:	f3c2 2207 	ubfx	r2, r2, #8, #8
  1141d2:	f8de 9c28 	ldr.w	r9, [lr, #3112]	; 0xc28
  1141d6:	eb05 0282 	add.w	r2, r5, r2, lsl #2
  1141da:	f852 ecd0 	ldr.w	lr, [r2, #-208]
  1141de:	ea8c 0208 	eor.w	r2, ip, r8
  1141e2:	ea82 0209 	eor.w	r2, r2, r9
  1141e6:	ea82 020e 	eor.w	r2, r2, lr
  1141ea:	f841 2c14 	str.w	r2, [r1, #-20]
  1141ee:	f8d0 2200 	ldr.w	r2, [r0, #512]	; 0x200
  1141f2:	42b2      	cmp	r2, r6
  1141f4:	f73f af70 	bgt.w	1140d8 <aes_set_key+0xa0>
  1141f8:	2000      	movs	r0, #0
  1141fa:	f854 3c20 	ldr.w	r3, [r4, #-32]
  1141fe:	603b      	str	r3, [r7, #0]
  114200:	f854 3c1c 	ldr.w	r3, [r4, #-28]
  114204:	607b      	str	r3, [r7, #4]
  114206:	f854 3c18 	ldr.w	r3, [r4, #-24]
  11420a:	60bb      	str	r3, [r7, #8]
  11420c:	f854 3c14 	ldr.w	r3, [r4, #-20]
  114210:	60fb      	str	r3, [r7, #12]
  114212:	b003      	add	sp, #12
  114214:	e8bd 8ff0 	ldmia.w	sp!, {r4, r5, r6, r7, r8, r9, sl, fp, pc}
  114218:	4605      	mov	r5, r0
  11421a:	230a      	movs	r3, #10
  11421c:	e71e      	b.n	11405c <aes_set_key+0x24>
  11421e:	4605      	mov	r5, r0
  114220:	230e      	movs	r3, #14
  114222:	e71b      	b.n	11405c <aes_set_key+0x24>
  114224:	f8df a1dc 	ldr.w	sl, [pc, #476]	; 114404 <aes_set_key+0x3cc>
  114228:	4604      	mov	r4, r0
  11422a:	e9d0 c803 	ldrd	ip, r8, [r0, #12]
  11422e:	f10a 0304 	add.w	r3, sl, #4
  114232:	461a      	mov	r2, r3
  114234:	f04f 0e08 	mov.w	lr, #8
  114238:	4663      	mov	r3, ip
  11423a:	6887      	ldr	r7, [r0, #8]
  11423c:	6846      	ldr	r6, [r0, #4]
  11423e:	6945      	ldr	r5, [r0, #20]
  114240:	f04e e001 	dls	lr, lr
  114244:	4640      	mov	r0, r8
  114246:	4694      	mov	ip, r2
  114248:	46a0      	mov	r8, r4
  11424a:	0e2a      	lsrs	r2, r5, #24
  11424c:	fa5f f985 	uxtb.w	r9, r5
  114250:	eb0c 0282 	add.w	r2, ip, r2, lsl #2
  114254:	f85a bf04 	ldr.w	fp, [sl, #4]!
  114258:	6a92      	ldr	r2, [r2, #40]	; 0x28
  11425a:	eb0c 0989 	add.w	r9, ip, r9, lsl #2
  11425e:	f8d9 9028 	ldr.w	r9, [r9, #40]	; 0x28
  114262:	ea82 020b 	eor.w	r2, r2, fp
  114266:	ea82 2209 	eor.w	r2, r2, r9, lsl #8
  11426a:	f3c5 4907 	ubfx	r9, r5, #16, #8
  11426e:	eb0c 0989 	add.w	r9, ip, r9, lsl #2
  114272:	f8d9 9028 	ldr.w	r9, [r9, #40]	; 0x28
  114276:	ea82 6209 	eor.w	r2, r2, r9, lsl #24
  11427a:	f3c5 2907 	ubfx	r9, r5, #8, #8
  11427e:	eb0c 0989 	add.w	r9, ip, r9, lsl #2
  114282:	f8d9 9028 	ldr.w	r9, [r9, #40]	; 0x28
  114286:	ea82 4209 	eor.w	r2, r2, r9, lsl #16
  11428a:	4051      	eors	r1, r2
  11428c:	404e      	eors	r6, r1
  11428e:	4077      	eors	r7, r6
  114290:	407b      	eors	r3, r7
  114292:	4058      	eors	r0, r3
  114294:	4045      	eors	r5, r0
  114296:	e9c4 1606 	strd	r1, r6, [r4, #24]
  11429a:	e9c4 7308 	strd	r7, r3, [r4, #32]
  11429e:	e9c4 050a 	strd	r0, r5, [r4, #40]	; 0x28
  1142a2:	3418      	adds	r4, #24
  1142a4:	f00f c82f 	le	lr, 11424a <aes_set_key+0x212>
  1142a8:	4640      	mov	r0, r8
  1142aa:	f108 05c0 	add.w	r5, r8, #192	; 0xc0
  1142ae:	e6fc      	b.n	1140aa <aes_set_key+0x72>
  1142b0:	f04f 0e07 	mov.w	lr, #7
  1142b4:	e9d0 8905 	ldrd	r8, r9, [r0, #20]
  1142b8:	e9d0 7602 	ldrd	r7, r6, [r0, #8]
  1142bc:	4c51      	ldr	r4, [pc, #324]	; (114404 <aes_set_key+0x3cc>)
  1142be:	f8d0 b004 	ldr.w	fp, [r0, #4]
  1142c2:	4602      	mov	r2, r0
  1142c4:	f8cd b000 	str.w	fp, [sp]
  1142c8:	f04e e001 	dls	lr, lr
  1142cc:	46a3      	mov	fp, r4
  1142ce:	f8d0 c010 	ldr.w	ip, [r0, #16]
  1142d2:	69c5      	ldr	r5, [r0, #28]
  1142d4:	1d23      	adds	r3, r4, #4
  1142d6:	9001      	str	r0, [sp, #4]
  1142d8:	0e28      	lsrs	r0, r5, #24
  1142da:	fa5f fa85 	uxtb.w	sl, r5
  1142de:	eb03 0080 	add.w	r0, r3, r0, lsl #2
  1142e2:	f85b 4f04 	ldr.w	r4, [fp, #4]!
  1142e6:	6a80      	ldr	r0, [r0, #40]	; 0x28
  1142e8:	eb03 0a8a 	add.w	sl, r3, sl, lsl #2
  1142ec:	f8da a028 	ldr.w	sl, [sl, #40]	; 0x28
  1142f0:	4060      	eors	r0, r4
  1142f2:	ea80 200a 	eor.w	r0, r0, sl, lsl #8
  1142f6:	f3c5 4a07 	ubfx	sl, r5, #16, #8
  1142fa:	eb03 0a8a 	add.w	sl, r3, sl, lsl #2
  1142fe:	f8da a028 	ldr.w	sl, [sl, #40]	; 0x28
  114302:	ea80 600a 	eor.w	r0, r0, sl, lsl #24
  114306:	f3c5 2a07 	ubfx	sl, r5, #8, #8
  11430a:	eb03 0a8a 	add.w	sl, r3, sl, lsl #2
  11430e:	f8da a028 	ldr.w	sl, [sl, #40]	; 0x28
  114312:	ea80 400a 	eor.w	r0, r0, sl, lsl #16
  114316:	4041      	eors	r1, r0
  114318:	9800      	ldr	r0, [sp, #0]
  11431a:	4048      	eors	r0, r1
  11431c:	4047      	eors	r7, r0
  11431e:	407e      	eors	r6, r7
  114320:	e9c2 1008 	strd	r1, r0, [r2, #32]
  114324:	9000      	str	r0, [sp, #0]
  114326:	0e30      	lsrs	r0, r6, #24
  114328:	eb03 0080 	add.w	r0, r3, r0, lsl #2
  11432c:	f8d0 a028 	ldr.w	sl, [r0, #40]	; 0x28
  114330:	b2f0      	uxtb	r0, r6
  114332:	eb03 0080 	add.w	r0, r3, r0, lsl #2
  114336:	6a80      	ldr	r0, [r0, #40]	; 0x28
  114338:	e9c2 760a 	strd	r7, r6, [r2, #40]	; 0x28
  11433c:	ea80 600a 	eor.w	r0, r0, sl, lsl #24
  114340:	f3c6 4a07 	ubfx	sl, r6, #16, #8
  114344:	eb03 0a8a 	add.w	sl, r3, sl, lsl #2
  114348:	f8da a028 	ldr.w	sl, [sl, #40]	; 0x28
  11434c:	ea80 400a 	eor.w	r0, r0, sl, lsl #16
  114350:	f3c6 2a07 	ubfx	sl, r6, #8, #8
  114354:	eb03 0a8a 	add.w	sl, r3, sl, lsl #2
  114358:	f8da a028 	ldr.w	sl, [sl, #40]	; 0x28
  11435c:	ea80 200a 	eor.w	r0, r0, sl, lsl #8
  114360:	ea8c 0c00 	eor.w	ip, ip, r0
  114364:	ea88 080c 	eor.w	r8, r8, ip
  114368:	ea89 0908 	eor.w	r9, r9, r8
  11436c:	ea85 0509 	eor.w	r5, r5, r9
  114370:	e9c2 c80c 	strd	ip, r8, [r2, #48]	; 0x30
  114374:	e9c2 950e 	strd	r9, r5, [r2, #56]	; 0x38
  114378:	3220      	adds	r2, #32
  11437a:	f00f c853 	le	lr, 1142d8 <aes_set_key+0x2a0>
  11437e:	9801      	ldr	r0, [sp, #4]
  114380:	f100 05e0 	add.w	r5, r0, #224	; 0xe0
  114384:	e691      	b.n	1140aa <aes_set_key+0x72>
  114386:	f04f 0e0a 	mov.w	lr, #10
  11438a:	e9d0 6701 	ldrd	r6, r7, [r0, #4]
  11438e:	4b1b      	ldr	r3, [pc, #108]	; (1143fc <aes_set_key+0x3c4>)
  114390:	4605      	mov	r5, r0
  114392:	469c      	mov	ip, r3
  114394:	f04e e001 	dls	lr, lr
  114398:	68c4      	ldr	r4, [r0, #12]
  11439a:	b2e2      	uxtb	r2, r4
  11439c:	eb03 0282 	add.w	r2, r3, r2, lsl #2
  1143a0:	f8d2 8028 	ldr.w	r8, [r2, #40]	; 0x28
  1143a4:	0e22      	lsrs	r2, r4, #24
  1143a6:	eb03 0282 	add.w	r2, r3, r2, lsl #2
  1143aa:	6a92      	ldr	r2, [r2, #40]	; 0x28
  1143ac:	ea82 2208 	eor.w	r2, r2, r8, lsl #8
  1143b0:	f3c4 4807 	ubfx	r8, r4, #16, #8
  1143b4:	eb03 0888 	add.w	r8, r3, r8, lsl #2
  1143b8:	f8d8 8028 	ldr.w	r8, [r8, #40]	; 0x28
  1143bc:	ea82 6208 	eor.w	r2, r2, r8, lsl #24
  1143c0:	f3c4 2807 	ubfx	r8, r4, #8, #8
  1143c4:	eb03 0888 	add.w	r8, r3, r8, lsl #2
  1143c8:	f8d8 8028 	ldr.w	r8, [r8, #40]	; 0x28
  1143cc:	ea82 4208 	eor.w	r2, r2, r8, lsl #16
  1143d0:	f85c 8b04 	ldr.w	r8, [ip], #4
  1143d4:	ea82 0208 	eor.w	r2, r2, r8
  1143d8:	4051      	eors	r1, r2
  1143da:	404e      	eors	r6, r1
  1143dc:	4077      	eors	r7, r6
  1143de:	407c      	eors	r4, r7
  1143e0:	e9c5 1604 	strd	r1, r6, [r5, #16]
  1143e4:	e9c5 7406 	strd	r7, r4, [r5, #24]
  1143e8:	3510      	adds	r5, #16
  1143ea:	f00f c02b 	le	lr, 11439a <aes_set_key+0x362>
  1143ee:	f100 05a0 	add.w	r5, r0, #160	; 0xa0
  1143f2:	e65a      	b.n	1140aa <aes_set_key+0x72>
  1143f4:	f500 7788 	add.w	r7, r0, #272	; 0x110
  1143f8:	e6fe      	b.n	1141f8 <aes_set_key+0x1c0>
  1143fa:	bf00      	nop
  1143fc:	00138ed4 	.word	0x00138ed4
  114400:	00139fcc 	.word	0x00139fcc
  114404:	00138ed0 	.word	0x00138ed0

00114408 <aes_encrypt>:
  114408:	e92d 4ff0 	stmdb	sp!, {r4, r5, r6, r7, r8, r9, sl, fp, lr}
  11440c:	b095      	sub	sp, #84	; 0x54
  11440e:	680f      	ldr	r7, [r1, #0]
  114410:	9207      	str	r2, [sp, #28]
  114412:	6802      	ldr	r2, [r0, #0]
  114414:	f8d1 e004 	ldr.w	lr, [r1, #4]
  114418:	ba3f      	rev	r7, r7
  11441a:	4057      	eors	r7, r2
  11441c:	6842      	ldr	r2, [r0, #4]
  11441e:	f8d1 c008 	ldr.w	ip, [r1, #8]
  114422:	fa9e fe8e 	rev.w	lr, lr
  114426:	ea8e 0e02 	eor.w	lr, lr, r2
  11442a:	6882      	ldr	r2, [r0, #8]
  11442c:	68ce      	ldr	r6, [r1, #12]
  11442e:	fa9c fc8c 	rev.w	ip, ip
  114432:	ea8c 0c02 	eor.w	ip, ip, r2
  114436:	68c2      	ldr	r2, [r0, #12]
  114438:	ba36      	rev	r6, r6
  11443a:	4bee      	ldr	r3, [pc, #952]	; (1147f4 <aes_encrypt+0x3ec>)
  11443c:	4056      	eors	r6, r2
  11443e:	b2f1      	uxtb	r1, r6
  114440:	0e3a      	lsrs	r2, r7, #24
  114442:	eb03 0282 	add.w	r2, r3, r2, lsl #2
  114446:	eb03 0181 	add.w	r1, r3, r1, lsl #2
  11444a:	f8d1 1730 	ldr.w	r1, [r1, #1840]	; 0x730
  11444e:	f8d2 2330 	ldr.w	r2, [r2, #816]	; 0x330
  114452:	fa5f f88c 	uxtb.w	r8, ip
  114456:	404a      	eors	r2, r1
  114458:	ea4f 611e 	mov.w	r1, lr, lsr #24
  11445c:	eb03 0181 	add.w	r1, r3, r1, lsl #2
  114460:	f8d1 5330 	ldr.w	r5, [r1, #816]	; 0x330
  114464:	b2f9      	uxtb	r1, r7
  114466:	eb03 0181 	add.w	r1, r3, r1, lsl #2
  11446a:	f8d1 1730 	ldr.w	r1, [r1, #1840]	; 0x730
  11446e:	eb03 0888 	add.w	r8, r3, r8, lsl #2
  114472:	404d      	eors	r5, r1
  114474:	ea4f 611c 	mov.w	r1, ip, lsr #24
  114478:	eb03 0181 	add.w	r1, r3, r1, lsl #2
  11447c:	f8d1 4330 	ldr.w	r4, [r1, #816]	; 0x330
  114480:	fa5f f18e 	uxtb.w	r1, lr
  114484:	eb03 0181 	add.w	r1, r3, r1, lsl #2
  114488:	f8d1 1730 	ldr.w	r1, [r1, #1840]	; 0x730
  11448c:	404c      	eors	r4, r1
  11448e:	0e31      	lsrs	r1, r6, #24
  114490:	eb03 0181 	add.w	r1, r3, r1, lsl #2
  114494:	f8d1 9330 	ldr.w	r9, [r1, #816]	; 0x330
  114498:	f8d8 1730 	ldr.w	r1, [r8, #1840]	; 0x730
  11449c:	f3ce 4807 	ubfx	r8, lr, #16, #8
  1144a0:	f3ce 2e07 	ubfx	lr, lr, #8, #8
  1144a4:	ea89 0101 	eor.w	r1, r9, r1
  1144a8:	eb03 0e8e 	add.w	lr, r3, lr, lsl #2
  1144ac:	9101      	str	r1, [sp, #4]
  1144ae:	f8de 1f30 	ldr.w	r1, [lr, #3888]	; 0xf30
  1144b2:	f3cc 4e07 	ubfx	lr, ip, #16, #8
  1144b6:	9102      	str	r1, [sp, #8]
  1144b8:	f3cc 2c07 	ubfx	ip, ip, #8, #8
  1144bc:	6901      	ldr	r1, [r0, #16]
  1144be:	eb03 0c8c 	add.w	ip, r3, ip, lsl #2
  1144c2:	f8dc af30 	ldr.w	sl, [ip, #3888]	; 0xf30
  1144c6:	404a      	eors	r2, r1
  1144c8:	f3c6 4c07 	ubfx	ip, r6, #16, #8
  1144cc:	6941      	ldr	r1, [r0, #20]
  1144ce:	f3c6 2607 	ubfx	r6, r6, #8, #8
  1144d2:	eb03 0888 	add.w	r8, r3, r8, lsl #2
  1144d6:	eb03 0686 	add.w	r6, r3, r6, lsl #2
  1144da:	f8d8 bb30 	ldr.w	fp, [r8, #2864]	; 0xb30
  1144de:	eb03 0e8e 	add.w	lr, r3, lr, lsl #2
  1144e2:	f8d6 8f30 	ldr.w	r8, [r6, #3888]	; 0xf30
  1144e6:	eb03 0c8c 	add.w	ip, r3, ip, lsl #2
  1144ea:	f3c7 4607 	ubfx	r6, r7, #16, #8
  1144ee:	404d      	eors	r5, r1
  1144f0:	f3c7 2707 	ubfx	r7, r7, #8, #8
  1144f4:	6981      	ldr	r1, [r0, #24]
  1144f6:	f8de 9b30 	ldr.w	r9, [lr, #2864]	; 0xb30
  1144fa:	eb03 0787 	add.w	r7, r3, r7, lsl #2
  1144fe:	f8dc eb30 	ldr.w	lr, [ip, #2864]	; 0xb30
  114502:	f8d7 7f30 	ldr.w	r7, [r7, #3888]	; 0xf30
  114506:	404c      	eors	r4, r1
  114508:	ea84 040e 	eor.w	r4, r4, lr
  11450c:	eb03 0686 	add.w	r6, r3, r6, lsl #2
  114510:	407c      	eors	r4, r7
  114512:	f8d6 6b30 	ldr.w	r6, [r6, #2864]	; 0xb30
  114516:	69c7      	ldr	r7, [r0, #28]
  114518:	9901      	ldr	r1, [sp, #4]
  11451a:	ea82 020b 	eor.w	r2, r2, fp
  11451e:	4079      	eors	r1, r7
  114520:	4071      	eors	r1, r6
  114522:	9e02      	ldr	r6, [sp, #8]
  114524:	ea82 020a 	eor.w	r2, r2, sl
  114528:	4071      	eors	r1, r6
  11452a:	b2cf      	uxtb	r7, r1
  11452c:	0e16      	lsrs	r6, r2, #24
  11452e:	eb03 0686 	add.w	r6, r3, r6, lsl #2
  114532:	eb03 0787 	add.w	r7, r3, r7, lsl #2
  114536:	f8d7 7730 	ldr.w	r7, [r7, #1840]	; 0x730
  11453a:	f8d6 6330 	ldr.w	r6, [r6, #816]	; 0x330
  11453e:	ea85 0509 	eor.w	r5, r5, r9
  114542:	ea85 0508 	eor.w	r5, r5, r8
  114546:	407e      	eors	r6, r7
  114548:	f3c5 4707 	ubfx	r7, r5, #16, #8
  11454c:	eb03 0787 	add.w	r7, r3, r7, lsl #2
  114550:	f8d7 7b30 	ldr.w	r7, [r7, #2864]	; 0xb30
  114554:	fa5f fa85 	uxtb.w	sl, r5
  114558:	ea4f 6e15 	mov.w	lr, r5, lsr #24
  11455c:	f3c5 2507 	ubfx	r5, r5, #8, #8
  114560:	9701      	str	r7, [sp, #4]
  114562:	eb03 0985 	add.w	r9, r3, r5, lsl #2
  114566:	f3c4 2807 	ubfx	r8, r4, #8, #8
  11456a:	fa5f fc82 	uxtb.w	ip, r2
  11456e:	0e27      	lsrs	r7, r4, #24
  114570:	b2e5      	uxtb	r5, r4
  114572:	f3c4 4407 	ubfx	r4, r4, #16, #8
  114576:	eb03 0484 	add.w	r4, r3, r4, lsl #2
  11457a:	eb03 0e8e 	add.w	lr, r3, lr, lsl #2
  11457e:	eb03 0c8c 	add.w	ip, r3, ip, lsl #2
  114582:	f8dc c730 	ldr.w	ip, [ip, #1840]	; 0x730
  114586:	9402      	str	r4, [sp, #8]
  114588:	f8de e330 	ldr.w	lr, [lr, #816]	; 0x330
  11458c:	6a04      	ldr	r4, [r0, #32]
  11458e:	eb03 0b8a 	add.w	fp, r3, sl, lsl #2
  114592:	eb03 0787 	add.w	r7, r3, r7, lsl #2
  114596:	ea4f 6a11 	mov.w	sl, r1, lsr #24
  11459a:	4066      	eors	r6, r4
  11459c:	ea8e 0e0c 	eor.w	lr, lr, ip
  1145a0:	9c01      	ldr	r4, [sp, #4]
  1145a2:	f8d7 c330 	ldr.w	ip, [r7, #816]	; 0x330
  1145a6:	f8db 7730 	ldr.w	r7, [fp, #1840]	; 0x730
  1145aa:	eb03 0a8a 	add.w	sl, r3, sl, lsl #2
  1145ae:	eb03 0585 	add.w	r5, r3, r5, lsl #2
  1145b2:	f8d5 5730 	ldr.w	r5, [r5, #1840]	; 0x730
  1145b6:	4066      	eors	r6, r4
  1145b8:	ea8c 0c07 	eor.w	ip, ip, r7
  1145bc:	9c02      	ldr	r4, [sp, #8]
  1145be:	f8da 7330 	ldr.w	r7, [sl, #816]	; 0x330
  1145c2:	eb03 0888 	add.w	r8, r3, r8, lsl #2
  1145c6:	f8d8 8f30 	ldr.w	r8, [r8, #3888]	; 0xf30
  1145ca:	406f      	eors	r7, r5
  1145cc:	f8d4 5b30 	ldr.w	r5, [r4, #2864]	; 0xb30
  1145d0:	f3c1 4407 	ubfx	r4, r1, #16, #8
  1145d4:	f3c1 2107 	ubfx	r1, r1, #8, #8
  1145d8:	ea86 0608 	eor.w	r6, r6, r8
  1145dc:	eb03 0181 	add.w	r1, r3, r1, lsl #2
  1145e0:	f8d9 8f30 	ldr.w	r8, [r9, #3888]	; 0xf30
  1145e4:	f3c2 4907 	ubfx	r9, r2, #16, #8
  1145e8:	f8d1 af30 	ldr.w	sl, [r1, #3888]	; 0xf30
  1145ec:	f3c2 2107 	ubfx	r1, r2, #8, #8
  1145f0:	eb03 0289 	add.w	r2, r3, r9, lsl #2
  1145f4:	f8d0 9024 	ldr.w	r9, [r0, #36]	; 0x24
  1145f8:	eb03 0484 	add.w	r4, r3, r4, lsl #2
  1145fc:	ea8e 0e09 	eor.w	lr, lr, r9
  114600:	ea8e 0505 	eor.w	r5, lr, r5
  114604:	f8d0 e028 	ldr.w	lr, [r0, #40]	; 0x28
  114608:	f8d4 4b30 	ldr.w	r4, [r4, #2864]	; 0xb30
  11460c:	eb03 0181 	add.w	r1, r3, r1, lsl #2
  114610:	f8d1 1f30 	ldr.w	r1, [r1, #3888]	; 0xf30
  114614:	ea8c 0c0e 	eor.w	ip, ip, lr
  114618:	ea8c 0404 	eor.w	r4, ip, r4
  11461c:	404c      	eors	r4, r1
  11461e:	6ac1      	ldr	r1, [r0, #44]	; 0x2c
  114620:	f8d2 2b30 	ldr.w	r2, [r2, #2864]	; 0xb30
  114624:	404f      	eors	r7, r1
  114626:	407a      	eors	r2, r7
  114628:	ea82 0208 	eor.w	r2, r2, r8
  11462c:	0e31      	lsrs	r1, r6, #24
  11462e:	b2d7      	uxtb	r7, r2
  114630:	eb03 0181 	add.w	r1, r3, r1, lsl #2
  114634:	eb03 0787 	add.w	r7, r3, r7, lsl #2
  114638:	f8d7 7730 	ldr.w	r7, [r7, #1840]	; 0x730
  11463c:	f8d1 1330 	ldr.w	r1, [r1, #816]	; 0x330
  114640:	ea85 050a 	eor.w	r5, r5, sl
  114644:	4079      	eors	r1, r7
  114646:	f3c5 4707 	ubfx	r7, r5, #16, #8
  11464a:	eb03 0787 	add.w	r7, r3, r7, lsl #2
  11464e:	f8d7 9b30 	ldr.w	r9, [r7, #2864]	; 0xb30
  114652:	f3c4 2707 	ubfx	r7, r4, #8, #8
  114656:	eb03 0787 	add.w	r7, r3, r7, lsl #2
  11465a:	f8d7 8f30 	ldr.w	r8, [r7, #3888]	; 0xf30
  11465e:	fa5f fc86 	uxtb.w	ip, r6
  114662:	0e2f      	lsrs	r7, r5, #24
  114664:	eb03 0787 	add.w	r7, r3, r7, lsl #2
  114668:	eb03 0c8c 	add.w	ip, r3, ip, lsl #2
  11466c:	f8d7 e330 	ldr.w	lr, [r7, #816]	; 0x330
  114670:	f8dc 7730 	ldr.w	r7, [ip, #1840]	; 0x730
  114674:	f3c4 4c07 	ubfx	ip, r4, #16, #8
  114678:	eb03 0c8c 	add.w	ip, r3, ip, lsl #2
  11467c:	f8dc ab30 	ldr.w	sl, [ip, #2864]	; 0xb30
  114680:	f3c2 2c07 	ubfx	ip, r2, #8, #8
  114684:	eb03 0c8c 	add.w	ip, r3, ip, lsl #2
  114688:	f8dc bf30 	ldr.w	fp, [ip, #3888]	; 0xf30
  11468c:	ea4f 6c14 	mov.w	ip, r4, lsr #24
  114690:	eb03 0c8c 	add.w	ip, r3, ip, lsl #2
  114694:	b2e4      	uxtb	r4, r4
  114696:	ea8e 0707 	eor.w	r7, lr, r7
  11469a:	eb03 0e84 	add.w	lr, r3, r4, lsl #2
  11469e:	f8dc 4330 	ldr.w	r4, [ip, #816]	; 0x330
  1146a2:	fa5f fc85 	uxtb.w	ip, r5
  1146a6:	eb03 0c8c 	add.w	ip, r3, ip, lsl #2
  1146aa:	f8dc c730 	ldr.w	ip, [ip, #1840]	; 0x730
  1146ae:	f3c5 2507 	ubfx	r5, r5, #8, #8
  1146b2:	ea84 040c 	eor.w	r4, r4, ip
  1146b6:	f3c2 4c07 	ubfx	ip, r2, #16, #8
  1146ba:	0e12      	lsrs	r2, r2, #24
  1146bc:	eb03 0282 	add.w	r2, r3, r2, lsl #2
  1146c0:	f8d2 2330 	ldr.w	r2, [r2, #816]	; 0x330
  1146c4:	eb03 0c8c 	add.w	ip, r3, ip, lsl #2
  1146c8:	9202      	str	r2, [sp, #8]
  1146ca:	6b02      	ldr	r2, [r0, #48]	; 0x30
  1146cc:	f8dc cb30 	ldr.w	ip, [ip, #2864]	; 0xb30
  1146d0:	4051      	eors	r1, r2
  1146d2:	ea81 0109 	eor.w	r1, r1, r9
  1146d6:	6b42      	ldr	r2, [r0, #52]	; 0x34
  1146d8:	ea81 0108 	eor.w	r1, r1, r8
  1146dc:	f8cd c004 	str.w	ip, [sp, #4]
  1146e0:	f8d0 8038 	ldr.w	r8, [r0, #56]	; 0x38
  1146e4:	4057      	eors	r7, r2
  1146e6:	9a01      	ldr	r2, [sp, #4]
  1146e8:	ea84 0808 	eor.w	r8, r4, r8
  1146ec:	ea88 0802 	eor.w	r8, r8, r2
  1146f0:	f8de 4730 	ldr.w	r4, [lr, #1840]	; 0x730
  1146f4:	9a02      	ldr	r2, [sp, #8]
  1146f6:	f3c6 2c07 	ubfx	ip, r6, #8, #8
  1146fa:	f3c6 4607 	ubfx	r6, r6, #16, #8
  1146fe:	4062      	eors	r2, r4
  114700:	eb03 0686 	add.w	r6, r3, r6, lsl #2
  114704:	6bc4      	ldr	r4, [r0, #60]	; 0x3c
  114706:	f8d6 6b30 	ldr.w	r6, [r6, #2864]	; 0xb30
  11470a:	eb03 0585 	add.w	r5, r3, r5, lsl #2
  11470e:	f8d5 5f30 	ldr.w	r5, [r5, #3888]	; 0xf30
  114712:	4062      	eors	r2, r4
  114714:	4072      	eors	r2, r6
  114716:	0e0c      	lsrs	r4, r1, #24
  114718:	406a      	eors	r2, r5
  11471a:	eb03 0484 	add.w	r4, r3, r4, lsl #2
  11471e:	f8d4 5330 	ldr.w	r5, [r4, #816]	; 0x330
  114722:	b2d4      	uxtb	r4, r2
  114724:	eb03 0c8c 	add.w	ip, r3, ip, lsl #2
  114728:	eb03 0484 	add.w	r4, r3, r4, lsl #2
  11472c:	f8dc cf30 	ldr.w	ip, [ip, #3888]	; 0xf30
  114730:	f8d4 4730 	ldr.w	r4, [r4, #1840]	; 0x730
  114734:	ea87 070a 	eor.w	r7, r7, sl
  114738:	ea87 070b 	eor.w	r7, r7, fp
  11473c:	ea88 080c 	eor.w	r8, r8, ip
  114740:	ea85 0c04 	eor.w	ip, r5, r4
  114744:	0e3c      	lsrs	r4, r7, #24
  114746:	eb03 0484 	add.w	r4, r3, r4, lsl #2
  11474a:	f8d4 5330 	ldr.w	r5, [r4, #816]	; 0x330
  11474e:	b2cc      	uxtb	r4, r1
  114750:	eb03 0484 	add.w	r4, r3, r4, lsl #2
  114754:	f8d4 4730 	ldr.w	r4, [r4, #1840]	; 0x730
  114758:	b2fe      	uxtb	r6, r7
  11475a:	4065      	eors	r5, r4
  11475c:	ea4f 6418 	mov.w	r4, r8, lsr #24
  114760:	eb03 0484 	add.w	r4, r3, r4, lsl #2
  114764:	eb03 0686 	add.w	r6, r3, r6, lsl #2
  114768:	f8d6 6730 	ldr.w	r6, [r6, #1840]	; 0x730
  11476c:	f8d4 4330 	ldr.w	r4, [r4, #816]	; 0x330
  114770:	4074      	eors	r4, r6
  114772:	0e16      	lsrs	r6, r2, #24
  114774:	eb03 0686 	add.w	r6, r3, r6, lsl #2
  114778:	f8d6 e330 	ldr.w	lr, [r6, #816]	; 0x330
  11477c:	fa5f f688 	uxtb.w	r6, r8
  114780:	eb03 0686 	add.w	r6, r3, r6, lsl #2
  114784:	f8d6 6730 	ldr.w	r6, [r6, #1840]	; 0x730
  114788:	ea8e 0e06 	eor.w	lr, lr, r6
  11478c:	f3c7 4607 	ubfx	r6, r7, #16, #8
  114790:	f3c7 2707 	ubfx	r7, r7, #8, #8
  114794:	eb03 0686 	add.w	r6, r3, r6, lsl #2
  114798:	eb03 0787 	add.w	r7, r3, r7, lsl #2
  11479c:	f8d6 bb30 	ldr.w	fp, [r6, #2864]	; 0xb30
  1147a0:	f8d7 6f30 	ldr.w	r6, [r7, #3888]	; 0xf30
  1147a4:	9601      	str	r6, [sp, #4]
  1147a6:	f3c8 4607 	ubfx	r6, r8, #16, #8
  1147aa:	eb03 0686 	add.w	r6, r3, r6, lsl #2
  1147ae:	f8d6 9b30 	ldr.w	r9, [r6, #2864]	; 0xb30
  1147b2:	f3c8 2807 	ubfx	r8, r8, #8, #8
  1147b6:	f3c2 4607 	ubfx	r6, r2, #16, #8
  1147ba:	f3c2 2207 	ubfx	r2, r2, #8, #8
  1147be:	eb03 0888 	add.w	r8, r3, r8, lsl #2
  1147c2:	eb03 0686 	add.w	r6, r3, r6, lsl #2
  1147c6:	eb03 0282 	add.w	r2, r3, r2, lsl #2
  1147ca:	f8d6 7b30 	ldr.w	r7, [r6, #2864]	; 0xb30
  1147ce:	f8d8 af30 	ldr.w	sl, [r8, #3888]	; 0xf30
  1147d2:	f8d2 8f30 	ldr.w	r8, [r2, #3888]	; 0xf30
  1147d6:	f3c1 4207 	ubfx	r2, r1, #16, #8
  1147da:	f3c1 2107 	ubfx	r1, r1, #8, #8
  1147de:	eb03 0181 	add.w	r1, r3, r1, lsl #2
  1147e2:	f8d1 6f30 	ldr.w	r6, [r1, #3888]	; 0xf30
  1147e6:	6c01      	ldr	r1, [r0, #64]	; 0x40
  1147e8:	eb03 0282 	add.w	r2, r3, r2, lsl #2
  1147ec:	ea8c 0c01 	eor.w	ip, ip, r1
  1147f0:	e002      	b.n	1147f8 <aes_encrypt+0x3f0>
  1147f2:	bf00      	nop
  1147f4:	00139fcc 	.word	0x00139fcc
  1147f8:	6c41      	ldr	r1, [r0, #68]	; 0x44
  1147fa:	f8d2 2b30 	ldr.w	r2, [r2, #2864]	; 0xb30
  1147fe:	404d      	eors	r5, r1
  114800:	6c81      	ldr	r1, [r0, #72]	; 0x48
  114802:	ea8c 0c0b 	eor.w	ip, ip, fp
  114806:	404c      	eors	r4, r1
  114808:	6cc1      	ldr	r1, [r0, #76]	; 0x4c
  11480a:	407c      	eors	r4, r7
  11480c:	4074      	eors	r4, r6
  11480e:	ea8e 0e01 	eor.w	lr, lr, r1
  114812:	9e01      	ldr	r6, [sp, #4]
  114814:	ea8e 0e02 	eor.w	lr, lr, r2
  114818:	ea8c 0c0a 	eor.w	ip, ip, sl
  11481c:	ea8e 0e06 	eor.w	lr, lr, r6
  114820:	ea4f 621c 	mov.w	r2, ip, lsr #24
  114824:	fa5f f18e 	uxtb.w	r1, lr
  114828:	eb03 0282 	add.w	r2, r3, r2, lsl #2
  11482c:	eb03 0181 	add.w	r1, r3, r1, lsl #2
  114830:	f8d1 1730 	ldr.w	r1, [r1, #1840]	; 0x730
  114834:	f8d2 2330 	ldr.w	r2, [r2, #816]	; 0x330
  114838:	ea85 0509 	eor.w	r5, r5, r9
  11483c:	ea85 0508 	eor.w	r5, r5, r8
  114840:	404a      	eors	r2, r1
  114842:	f3c5 4107 	ubfx	r1, r5, #16, #8
  114846:	eb03 0181 	add.w	r1, r3, r1, lsl #2
  11484a:	f8d1 ab30 	ldr.w	sl, [r1, #2864]	; 0xb30
  11484e:	f3c4 2107 	ubfx	r1, r4, #8, #8
  114852:	eb03 0181 	add.w	r1, r3, r1, lsl #2
  114856:	f8d1 9f30 	ldr.w	r9, [r1, #3888]	; 0xf30
  11485a:	fa5f f68c 	uxtb.w	r6, ip
  11485e:	0e29      	lsrs	r1, r5, #24
  114860:	eb03 0181 	add.w	r1, r3, r1, lsl #2
  114864:	eb03 0686 	add.w	r6, r3, r6, lsl #2
  114868:	f8d6 6730 	ldr.w	r6, [r6, #1840]	; 0x730
  11486c:	f8d1 1330 	ldr.w	r1, [r1, #816]	; 0x330
  114870:	f3c4 4807 	ubfx	r8, r4, #16, #8
  114874:	4071      	eors	r1, r6
  114876:	0e27      	lsrs	r7, r4, #24
  114878:	b2e4      	uxtb	r4, r4
  11487a:	9101      	str	r1, [sp, #4]
  11487c:	b2ee      	uxtb	r6, r5
  11487e:	eb03 0184 	add.w	r1, r3, r4, lsl #2
  114882:	9102      	str	r1, [sp, #8]
  114884:	f3c5 2507 	ubfx	r5, r5, #8, #8
  114888:	6d01      	ldr	r1, [r0, #80]	; 0x50
  11488a:	eb03 0787 	add.w	r7, r3, r7, lsl #2
  11488e:	eb03 0686 	add.w	r6, r3, r6, lsl #2
  114892:	f8d6 6730 	ldr.w	r6, [r6, #1840]	; 0x730
  114896:	eb03 0b85 	add.w	fp, r3, r5, lsl #2
  11489a:	f8d7 7330 	ldr.w	r7, [r7, #816]	; 0x330
  11489e:	ea4f 651e 	mov.w	r5, lr, lsr #24
  1148a2:	9c01      	ldr	r4, [sp, #4]
  1148a4:	eb03 0585 	add.w	r5, r3, r5, lsl #2
  1148a8:	404a      	eors	r2, r1
  1148aa:	eb03 0888 	add.w	r8, r3, r8, lsl #2
  1148ae:	6d41      	ldr	r1, [r0, #84]	; 0x54
  1148b0:	f8d8 8b30 	ldr.w	r8, [r8, #2864]	; 0xb30
  1148b4:	4077      	eors	r7, r6
  1148b6:	f8d5 6330 	ldr.w	r6, [r5, #816]	; 0x330
  1148ba:	f3ce 4507 	ubfx	r5, lr, #16, #8
  1148be:	f3ce 2e07 	ubfx	lr, lr, #8, #8
  1148c2:	404c      	eors	r4, r1
  1148c4:	eb03 0585 	add.w	r5, r3, r5, lsl #2
  1148c8:	eb03 0e8e 	add.w	lr, r3, lr, lsl #2
  1148cc:	ea84 0108 	eor.w	r1, r4, r8
  1148d0:	f8d5 8b30 	ldr.w	r8, [r5, #2864]	; 0xb30
  1148d4:	f8de 5f30 	ldr.w	r5, [lr, #3888]	; 0xf30
  1148d8:	ea82 020a 	eor.w	r2, r2, sl
  1148dc:	ea81 0e05 	eor.w	lr, r1, r5
  1148e0:	f3cc 4107 	ubfx	r1, ip, #16, #8
  1148e4:	eb03 0181 	add.w	r1, r3, r1, lsl #2
  1148e8:	ea82 0209 	eor.w	r2, r2, r9
  1148ec:	f3cc 2c07 	ubfx	ip, ip, #8, #8
  1148f0:	f8d1 9b30 	ldr.w	r9, [r1, #2864]	; 0xb30
  1148f4:	6d81      	ldr	r1, [r0, #88]	; 0x58
  1148f6:	9c02      	ldr	r4, [sp, #8]
  1148f8:	eb03 0c8c 	add.w	ip, r3, ip, lsl #2
  1148fc:	f8dc 5f30 	ldr.w	r5, [ip, #3888]	; 0xf30
  114900:	404f      	eors	r7, r1
  114902:	f8d4 4730 	ldr.w	r4, [r4, #1840]	; 0x730
  114906:	ea87 0708 	eor.w	r7, r7, r8
  11490a:	406f      	eors	r7, r5
  11490c:	6dc5      	ldr	r5, [r0, #92]	; 0x5c
  11490e:	4074      	eors	r4, r6
  114910:	406c      	eors	r4, r5
  114912:	f8db 6f30 	ldr.w	r6, [fp, #3888]	; 0xf30
  114916:	ea89 0104 	eor.w	r1, r9, r4
  11491a:	4071      	eors	r1, r6
  11491c:	0e14      	lsrs	r4, r2, #24
  11491e:	b2cd      	uxtb	r5, r1
  114920:	eb03 0484 	add.w	r4, r3, r4, lsl #2
  114924:	eb03 0585 	add.w	r5, r3, r5, lsl #2
  114928:	f8d4 4330 	ldr.w	r4, [r4, #816]	; 0x330
  11492c:	f8d5 5730 	ldr.w	r5, [r5, #1840]	; 0x730
  114930:	fa5f fc8e 	uxtb.w	ip, lr
  114934:	406c      	eors	r4, r5
  114936:	ea4f 651e 	mov.w	r5, lr, lsr #24
  11493a:	eb03 0585 	add.w	r5, r3, r5, lsl #2
  11493e:	f8d5 6330 	ldr.w	r6, [r5, #816]	; 0x330
  114942:	b2d5      	uxtb	r5, r2
  114944:	eb03 0585 	add.w	r5, r3, r5, lsl #2
  114948:	f8d5 5730 	ldr.w	r5, [r5, #1840]	; 0x730
  11494c:	eb03 0c8c 	add.w	ip, r3, ip, lsl #2
  114950:	406e      	eors	r6, r5
  114952:	0e3d      	lsrs	r5, r7, #24
  114954:	eb03 0585 	add.w	r5, r3, r5, lsl #2
  114958:	f8d5 8330 	ldr.w	r8, [r5, #816]	; 0x330
  11495c:	f8dc 5730 	ldr.w	r5, [ip, #1840]	; 0x730
  114960:	ea4f 6c11 	mov.w	ip, r1, lsr #24
  114964:	eb03 0c8c 	add.w	ip, r3, ip, lsl #2
  114968:	ea88 0505 	eor.w	r5, r8, r5
  11496c:	f8dc 8330 	ldr.w	r8, [ip, #816]	; 0x330
  114970:	fa5f fc87 	uxtb.w	ip, r7
  114974:	eb03 0c8c 	add.w	ip, r3, ip, lsl #2
  114978:	f8dc b730 	ldr.w	fp, [ip, #1840]	; 0x730
  11497c:	f3ce 4c07 	ubfx	ip, lr, #16, #8
  114980:	f3ce 2e07 	ubfx	lr, lr, #8, #8
  114984:	eb03 0c8c 	add.w	ip, r3, ip, lsl #2
  114988:	eb03 0e8e 	add.w	lr, r3, lr, lsl #2
  11498c:	f8dc ab30 	ldr.w	sl, [ip, #2864]	; 0xb30
  114990:	f8de cf30 	ldr.w	ip, [lr, #3888]	; 0xf30
  114994:	ea88 0b0b 	eor.w	fp, r8, fp
  114998:	f8cd c004 	str.w	ip, [sp, #4]
  11499c:	f3c7 4c07 	ubfx	ip, r7, #16, #8
  1149a0:	f3c7 2707 	ubfx	r7, r7, #8, #8
  1149a4:	eb03 0787 	add.w	r7, r3, r7, lsl #2
  1149a8:	f8d7 9f30 	ldr.w	r9, [r7, #3888]	; 0xf30
  1149ac:	f3c1 4707 	ubfx	r7, r1, #16, #8
  1149b0:	f3c1 2107 	ubfx	r1, r1, #8, #8
  1149b4:	eb03 0181 	add.w	r1, r3, r1, lsl #2
  1149b8:	f8d1 ef30 	ldr.w	lr, [r1, #3888]	; 0xf30
  1149bc:	f3c2 4107 	ubfx	r1, r2, #16, #8
  1149c0:	f3c2 2207 	ubfx	r2, r2, #8, #8
  1149c4:	eb03 0c8c 	add.w	ip, r3, ip, lsl #2
  1149c8:	eb03 0282 	add.w	r2, r3, r2, lsl #2
  1149cc:	f8dc 8b30 	ldr.w	r8, [ip, #2864]	; 0xb30
  1149d0:	f8d2 cf30 	ldr.w	ip, [r2, #3888]	; 0xf30
  1149d4:	6e02      	ldr	r2, [r0, #96]	; 0x60
  1149d6:	eb03 0787 	add.w	r7, r3, r7, lsl #2
  1149da:	4054      	eors	r4, r2
  1149dc:	6e42      	ldr	r2, [r0, #100]	; 0x64
  1149de:	f8d7 7b30 	ldr.w	r7, [r7, #2864]	; 0xb30
  1149e2:	4056      	eors	r6, r2
  1149e4:	6e82      	ldr	r2, [r0, #104]	; 0x68
  1149e6:	eb03 0181 	add.w	r1, r3, r1, lsl #2
  1149ea:	4055      	eors	r5, r2
  1149ec:	6ec2      	ldr	r2, [r0, #108]	; 0x6c
  1149ee:	f8d1 1b30 	ldr.w	r1, [r1, #2864]	; 0xb30
  1149f2:	407d      	eors	r5, r7
  1149f4:	ea85 050c 	eor.w	r5, r5, ip
  1149f8:	ea8b 0c02 	eor.w	ip, fp, r2
  1149fc:	9a01      	ldr	r2, [sp, #4]
  1149fe:	ea84 040a 	eor.w	r4, r4, sl
  114a02:	ea8c 0c01 	eor.w	ip, ip, r1
  114a06:	ea8c 0c02 	eor.w	ip, ip, r2
  114a0a:	ea84 0409 	eor.w	r4, r4, r9
  114a0e:	0e22      	lsrs	r2, r4, #24
  114a10:	fa5f f18c 	uxtb.w	r1, ip
  114a14:	eb03 0282 	add.w	r2, r3, r2, lsl #2
  114a18:	eb03 0181 	add.w	r1, r3, r1, lsl #2
  114a1c:	f8d1 1730 	ldr.w	r1, [r1, #1840]	; 0x730
  114a20:	f8d2 2330 	ldr.w	r2, [r2, #816]	; 0x330
  114a24:	ea86 0608 	eor.w	r6, r6, r8
  114a28:	ea86 060e 	eor.w	r6, r6, lr
  114a2c:	404a      	eors	r2, r1
  114a2e:	b2e7      	uxtb	r7, r4
  114a30:	0e31      	lsrs	r1, r6, #24
  114a32:	eb03 0181 	add.w	r1, r3, r1, lsl #2
  114a36:	eb03 0787 	add.w	r7, r3, r7, lsl #2
  114a3a:	f8d7 7730 	ldr.w	r7, [r7, #1840]	; 0x730
  114a3e:	f8d1 1330 	ldr.w	r1, [r1, #816]	; 0x330
  114a42:	fa5f fe86 	uxtb.w	lr, r6
  114a46:	4079      	eors	r1, r7
  114a48:	0e2f      	lsrs	r7, r5, #24
  114a4a:	eb03 0787 	add.w	r7, r3, r7, lsl #2
  114a4e:	eb03 0e8e 	add.w	lr, r3, lr, lsl #2
  114a52:	f8d7 8330 	ldr.w	r8, [r7, #816]	; 0x330
  114a56:	f8de 7730 	ldr.w	r7, [lr, #1840]	; 0x730
  114a5a:	ea4f 6e1c 	mov.w	lr, ip, lsr #24
  114a5e:	eb03 0e8e 	add.w	lr, r3, lr, lsl #2
  114a62:	ea88 0707 	eor.w	r7, r8, r7
  114a66:	f8de 8330 	ldr.w	r8, [lr, #816]	; 0x330
  114a6a:	fa5f fe85 	uxtb.w	lr, r5
  114a6e:	eb03 0e8e 	add.w	lr, r3, lr, lsl #2
  114a72:	f8de b730 	ldr.w	fp, [lr, #1840]	; 0x730
  114a76:	f3c6 4e07 	ubfx	lr, r6, #16, #8
  114a7a:	f3c6 2607 	ubfx	r6, r6, #8, #8
  114a7e:	eb03 0686 	add.w	r6, r3, r6, lsl #2
  114a82:	f8d6 6f30 	ldr.w	r6, [r6, #3888]	; 0xf30
  114a86:	eb03 0e8e 	add.w	lr, r3, lr, lsl #2
  114a8a:	f8de ab30 	ldr.w	sl, [lr, #2864]	; 0xb30
  114a8e:	9602      	str	r6, [sp, #8]
  114a90:	f3c5 4607 	ubfx	r6, r5, #16, #8
  114a94:	f3c5 2507 	ubfx	r5, r5, #8, #8
  114a98:	eb03 0585 	add.w	r5, r3, r5, lsl #2
  114a9c:	f8d5 9f30 	ldr.w	r9, [r5, #3888]	; 0xf30
  114aa0:	f3cc 2507 	ubfx	r5, ip, #8, #8
  114aa4:	eb03 0585 	add.w	r5, r3, r5, lsl #2
  114aa8:	f8d5 ef30 	ldr.w	lr, [r5, #3888]	; 0xf30
  114aac:	f3c4 4507 	ubfx	r5, r4, #16, #8
  114ab0:	f3c4 2407 	ubfx	r4, r4, #8, #8
  114ab4:	eb03 0484 	add.w	r4, r3, r4, lsl #2
  114ab8:	f8d4 4f30 	ldr.w	r4, [r4, #3888]	; 0xf30
  114abc:	eb03 0686 	add.w	r6, r3, r6, lsl #2
  114ac0:	9401      	str	r4, [sp, #4]
  114ac2:	6f04      	ldr	r4, [r0, #112]	; 0x70
  114ac4:	ea88 0b0b 	eor.w	fp, r8, fp
  114ac8:	4062      	eors	r2, r4
  114aca:	6f44      	ldr	r4, [r0, #116]	; 0x74
  114acc:	f8d6 8b30 	ldr.w	r8, [r6, #2864]	; 0xb30
  114ad0:	f3cc 4607 	ubfx	r6, ip, #16, #8
  114ad4:	4061      	eors	r1, r4
  114ad6:	eb03 0686 	add.w	r6, r3, r6, lsl #2
  114ada:	6f84      	ldr	r4, [r0, #120]	; 0x78
  114adc:	f8d6 6b30 	ldr.w	r6, [r6, #2864]	; 0xb30
  114ae0:	4067      	eors	r7, r4
  114ae2:	9c01      	ldr	r4, [sp, #4]
  114ae4:	ea87 0c06 	eor.w	ip, r7, r6
  114ae8:	ea8c 0c04 	eor.w	ip, ip, r4
  114aec:	eb03 0585 	add.w	r5, r3, r5, lsl #2
  114af0:	6fc4      	ldr	r4, [r0, #124]	; 0x7c
  114af2:	f8d5 5b30 	ldr.w	r5, [r5, #2864]	; 0xb30
  114af6:	ea8b 0704 	eor.w	r7, fp, r4
  114afa:	ea82 020a 	eor.w	r2, r2, sl
  114afe:	9c02      	ldr	r4, [sp, #8]
  114b00:	ea82 0209 	eor.w	r2, r2, r9
  114b04:	406f      	eors	r7, r5
  114b06:	4067      	eors	r7, r4
  114b08:	0e14      	lsrs	r4, r2, #24
  114b0a:	eb03 0484 	add.w	r4, r3, r4, lsl #2
  114b0e:	f8d4 6330 	ldr.w	r6, [r4, #816]	; 0x330
  114b12:	b2fc      	uxtb	r4, r7
  114b14:	eb03 0484 	add.w	r4, r3, r4, lsl #2
  114b18:	f8d4 4730 	ldr.w	r4, [r4, #1840]	; 0x730
  114b1c:	ea81 0108 	eor.w	r1, r1, r8
  114b20:	ea81 010e 	eor.w	r1, r1, lr
  114b24:	4066      	eors	r6, r4
  114b26:	f3c1 4407 	ubfx	r4, r1, #16, #8
  114b2a:	eb03 0484 	add.w	r4, r3, r4, lsl #2
  114b2e:	f8d4 9b30 	ldr.w	r9, [r4, #2864]	; 0xb30
  114b32:	f3cc 2407 	ubfx	r4, ip, #8, #8
  114b36:	eb03 0484 	add.w	r4, r3, r4, lsl #2
  114b3a:	f8d4 8f30 	ldr.w	r8, [r4, #3888]	; 0xf30
  114b3e:	0e0c      	lsrs	r4, r1, #24
  114b40:	eb03 0484 	add.w	r4, r3, r4, lsl #2
  114b44:	f8d4 5330 	ldr.w	r5, [r4, #816]	; 0x330
  114b48:	b2d4      	uxtb	r4, r2
  114b4a:	eb03 0484 	add.w	r4, r3, r4, lsl #2
  114b4e:	f8d4 4730 	ldr.w	r4, [r4, #1840]	; 0x730
  114b52:	4065      	eors	r5, r4
  114b54:	f3cc 4407 	ubfx	r4, ip, #16, #8
  114b58:	eb03 0484 	add.w	r4, r3, r4, lsl #2
  114b5c:	f8d4 eb30 	ldr.w	lr, [r4, #2864]	; 0xb30
  114b60:	f3c7 2407 	ubfx	r4, r7, #8, #8
  114b64:	eb03 0484 	add.w	r4, r3, r4, lsl #2
  114b68:	f8d4 af30 	ldr.w	sl, [r4, #3888]	; 0xf30
  114b6c:	ea4f 641c 	mov.w	r4, ip, lsr #24
  114b70:	fa5f fc8c 	uxtb.w	ip, ip
  114b74:	eb03 0b8c 	add.w	fp, r3, ip, lsl #2
  114b78:	fa5f fc81 	uxtb.w	ip, r1
  114b7c:	f3c1 2107 	ubfx	r1, r1, #8, #8
  114b80:	eb03 0181 	add.w	r1, r3, r1, lsl #2
  114b84:	9101      	str	r1, [sp, #4]
  114b86:	eb03 0484 	add.w	r4, r3, r4, lsl #2
  114b8a:	f8d0 1080 	ldr.w	r1, [r0, #128]	; 0x80
  114b8e:	eb03 0c8c 	add.w	ip, r3, ip, lsl #2
  114b92:	f8dc c730 	ldr.w	ip, [ip, #1840]	; 0x730
  114b96:	f8d4 4330 	ldr.w	r4, [r4, #816]	; 0x330
  114b9a:	404e      	eors	r6, r1
  114b9c:	f8d0 1084 	ldr.w	r1, [r0, #132]	; 0x84
  114ba0:	ea84 040c 	eor.w	r4, r4, ip
  114ba4:	ea4f 6c17 	mov.w	ip, r7, lsr #24
  114ba8:	f3c7 4707 	ubfx	r7, r7, #16, #8
  114bac:	404d      	eors	r5, r1
  114bae:	eb03 0c8c 	add.w	ip, r3, ip, lsl #2
  114bb2:	f8d0 1088 	ldr.w	r1, [r0, #136]	; 0x88
  114bb6:	eb03 0787 	add.w	r7, r3, r7, lsl #2
  114bba:	f8dc c330 	ldr.w	ip, [ip, #816]	; 0x330
  114bbe:	f8d7 7b30 	ldr.w	r7, [r7, #2864]	; 0xb30
  114bc2:	ea85 0e0e 	eor.w	lr, r5, lr
  114bc6:	f8db 5730 	ldr.w	r5, [fp, #1840]	; 0x730
  114bca:	404c      	eors	r4, r1
  114bcc:	ea8c 0505 	eor.w	r5, ip, r5
  114bd0:	9901      	ldr	r1, [sp, #4]
  114bd2:	ea84 0c07 	eor.w	ip, r4, r7
  114bd6:	f3c2 4407 	ubfx	r4, r2, #16, #8
  114bda:	f3c2 2207 	ubfx	r2, r2, #8, #8
  114bde:	eb03 0484 	add.w	r4, r3, r4, lsl #2
  114be2:	eb03 0282 	add.w	r2, r3, r2, lsl #2
  114be6:	f8d1 1f30 	ldr.w	r1, [r1, #3888]	; 0xf30
  114bea:	f8d4 4b30 	ldr.w	r4, [r4, #2864]	; 0xb30
  114bee:	f8d2 2f30 	ldr.w	r2, [r2, #3888]	; 0xf30
  114bf2:	ea86 0609 	eor.w	r6, r6, r9
  114bf6:	ea8c 0c02 	eor.w	ip, ip, r2
  114bfa:	f8d0 208c 	ldr.w	r2, [r0, #140]	; 0x8c
  114bfe:	ea86 0608 	eor.w	r6, r6, r8
  114c02:	ea85 0702 	eor.w	r7, r5, r2
  114c06:	4067      	eors	r7, r4
  114c08:	404f      	eors	r7, r1
  114c0a:	0e32      	lsrs	r2, r6, #24
  114c0c:	b2f9      	uxtb	r1, r7
  114c0e:	eb03 0282 	add.w	r2, r3, r2, lsl #2
  114c12:	eb03 0181 	add.w	r1, r3, r1, lsl #2
  114c16:	f8d1 1730 	ldr.w	r1, [r1, #1840]	; 0x730
  114c1a:	f8d2 2330 	ldr.w	r2, [r2, #816]	; 0x330
  114c1e:	ea8e 0e0a 	eor.w	lr, lr, sl
  114c22:	404a      	eors	r2, r1
  114c24:	ea4f 611e 	mov.w	r1, lr, lsr #24
  114c28:	eb03 0181 	add.w	r1, r3, r1, lsl #2
  114c2c:	f8d1 5330 	ldr.w	r5, [r1, #816]	; 0x330
  114c30:	b2f1      	uxtb	r1, r6
  114c32:	eb03 0181 	add.w	r1, r3, r1, lsl #2
  114c36:	f8d1 1730 	ldr.w	r1, [r1, #1840]	; 0x730
  114c3a:	fa5f f88c 	uxtb.w	r8, ip
  114c3e:	404d      	eors	r5, r1
  114c40:	ea4f 611c 	mov.w	r1, ip, lsr #24
  114c44:	eb03 0181 	add.w	r1, r3, r1, lsl #2
  114c48:	f8d1 4330 	ldr.w	r4, [r1, #816]	; 0x330
  114c4c:	fa5f f18e 	uxtb.w	r1, lr
  114c50:	eb03 0181 	add.w	r1, r3, r1, lsl #2
  114c54:	f8d1 1730 	ldr.w	r1, [r1, #1840]	; 0x730
  114c58:	eb03 0888 	add.w	r8, r3, r8, lsl #2
  114c5c:	404c      	eors	r4, r1
  114c5e:	0e39      	lsrs	r1, r7, #24
  114c60:	eb03 0181 	add.w	r1, r3, r1, lsl #2
  114c64:	f8d1 9330 	ldr.w	r9, [r1, #816]	; 0x330
  114c68:	f8d8 1730 	ldr.w	r1, [r8, #1840]	; 0x730
  114c6c:	f3ce 4807 	ubfx	r8, lr, #16, #8
  114c70:	f3ce 2e07 	ubfx	lr, lr, #8, #8
  114c74:	ea89 0101 	eor.w	r1, r9, r1
  114c78:	eb03 0e8e 	add.w	lr, r3, lr, lsl #2
  114c7c:	9101      	str	r1, [sp, #4]
  114c7e:	f8de 1f30 	ldr.w	r1, [lr, #3888]	; 0xf30
  114c82:	f3cc 4e07 	ubfx	lr, ip, #16, #8
  114c86:	9102      	str	r1, [sp, #8]
  114c88:	f3cc 2c07 	ubfx	ip, ip, #8, #8
  114c8c:	f8d0 1090 	ldr.w	r1, [r0, #144]	; 0x90
  114c90:	eb03 0c8c 	add.w	ip, r3, ip, lsl #2
  114c94:	f8dc af30 	ldr.w	sl, [ip, #3888]	; 0xf30
  114c98:	eb03 0e8e 	add.w	lr, r3, lr, lsl #2
  114c9c:	f3c7 4c07 	ubfx	ip, r7, #16, #8
  114ca0:	404a      	eors	r2, r1
  114ca2:	f3c7 2707 	ubfx	r7, r7, #8, #8
  114ca6:	f8d0 1094 	ldr.w	r1, [r0, #148]	; 0x94
  114caa:	f8de 9b30 	ldr.w	r9, [lr, #2864]	; 0xb30
  114cae:	eb03 0888 	add.w	r8, r3, r8, lsl #2
  114cb2:	eb03 0787 	add.w	r7, r3, r7, lsl #2
  114cb6:	f8d8 bb30 	ldr.w	fp, [r8, #2864]	; 0xb30
  114cba:	404d      	eors	r5, r1
  114cbc:	f8d7 8f30 	ldr.w	r8, [r7, #3888]	; 0xf30
  114cc0:	ea85 0509 	eor.w	r5, r5, r9
  114cc4:	eb03 0c8c 	add.w	ip, r3, ip, lsl #2
  114cc8:	f3c6 2707 	ubfx	r7, r6, #8, #8
  114ccc:	ea85 0808 	eor.w	r8, r5, r8
  114cd0:	f8d0 5098 	ldr.w	r5, [r0, #152]	; 0x98
  114cd4:	f8dc eb30 	ldr.w	lr, [ip, #2864]	; 0xb30
  114cd8:	eb03 0787 	add.w	r7, r3, r7, lsl #2
  114cdc:	f8d7 7f30 	ldr.w	r7, [r7, #3888]	; 0xf30
  114ce0:	406c      	eors	r4, r5
  114ce2:	f3c6 4c07 	ubfx	ip, r6, #16, #8
  114ce6:	ea84 040e 	eor.w	r4, r4, lr
  114cea:	f8d0 509c 	ldr.w	r5, [r0, #156]	; 0x9c
  114cee:	eb03 0c8c 	add.w	ip, r3, ip, lsl #2
  114cf2:	407c      	eors	r4, r7
  114cf4:	9f01      	ldr	r7, [sp, #4]
  114cf6:	f8dc 6b30 	ldr.w	r6, [ip, #2864]	; 0xb30
  114cfa:	406f      	eors	r7, r5
  114cfc:	4077      	eors	r7, r6
  114cfe:	f8d0 6200 	ldr.w	r6, [r0, #512]	; 0x200
  114d02:	9902      	ldr	r1, [sp, #8]
  114d04:	ea82 020b 	eor.w	r2, r2, fp
  114d08:	2e0a      	cmp	r6, #10
  114d0a:	ea82 020a 	eor.w	r2, r2, sl
  114d0e:	ea87 0701 	eor.w	r7, r7, r1
  114d12:	9608      	str	r6, [sp, #32]
  114d14:	e9d0 1528 	ldrd	r1, r5, [r0, #160]	; 0xa0
  114d18:	e9d0 ae2a 	ldrd	sl, lr, [r0, #168]	; 0xa8
  114d1c:	f300 80a8 	bgt.w	114e70 <aes_encrypt+0xa68>
  114d20:	3090      	adds	r0, #144	; 0x90
  114d22:	0e13      	lsrs	r3, r2, #24
  114d24:	9302      	str	r3, [sp, #8]
  114d26:	ea4f 6318 	mov.w	r3, r8, lsr #24
  114d2a:	9303      	str	r3, [sp, #12]
  114d2c:	0a3b      	lsrs	r3, r7, #8
  114d2e:	9306      	str	r3, [sp, #24]
  114d30:	0e23      	lsrs	r3, r4, #24
  114d32:	9304      	str	r3, [sp, #16]
  114d34:	b2e3      	uxtb	r3, r4
  114d36:	9301      	str	r3, [sp, #4]
  114d38:	0e3b      	lsrs	r3, r7, #24
  114d3a:	fa5f fa87 	uxtb.w	sl, r7
  114d3e:	ea4f 2c14 	mov.w	ip, r4, lsr #8
  114d42:	ea4f 4e14 	mov.w	lr, r4, lsr #16
  114d46:	0c3d      	lsrs	r5, r7, #16
  114d48:	ea4f 4918 	mov.w	r9, r8, lsr #16
  114d4c:	b2d1      	uxtb	r1, r2
  114d4e:	fa5f f688 	uxtb.w	r6, r8
  114d52:	ea4f 2b18 	mov.w	fp, r8, lsr #8
  114d56:	9305      	str	r3, [sp, #20]
  114d58:	0a14      	lsrs	r4, r2, #8
  114d5a:	0c17      	lsrs	r7, r2, #16
  114d5c:	4b43      	ldr	r3, [pc, #268]	; (114e6c <aes_encrypt+0xa64>)
  114d5e:	b2fa      	uxtb	r2, r7
  114d60:	eb03 0881 	add.w	r8, r3, r1, lsl #2
  114d64:	9901      	ldr	r1, [sp, #4]
  114d66:	eb03 0a8a 	add.w	sl, r3, sl, lsl #2
  114d6a:	eb03 0181 	add.w	r1, r3, r1, lsl #2
  114d6e:	6a89      	ldr	r1, [r1, #40]	; 0x28
  114d70:	f8da a028 	ldr.w	sl, [sl, #40]	; 0x28
  114d74:	9109      	str	r1, [sp, #36]	; 0x24
  114d76:	9902      	ldr	r1, [sp, #8]
  114d78:	f8cd a004 	str.w	sl, [sp, #4]
  114d7c:	f8d8 8028 	ldr.w	r8, [r8, #40]	; 0x28
  114d80:	eb03 0a81 	add.w	sl, r3, r1, lsl #2
  114d84:	9903      	ldr	r1, [sp, #12]
  114d86:	eb03 0686 	add.w	r6, r3, r6, lsl #2
  114d8a:	f89d 7018 	ldrb.w	r7, [sp, #24]
  114d8e:	6ab6      	ldr	r6, [r6, #40]	; 0x28
  114d90:	f8cd 8018 	str.w	r8, [sp, #24]
  114d94:	eb03 0881 	add.w	r8, r3, r1, lsl #2
  114d98:	9904      	ldr	r1, [sp, #16]
  114d9a:	9608      	str	r6, [sp, #32]
  114d9c:	eb03 0681 	add.w	r6, r3, r1, lsl #2
  114da0:	9905      	ldr	r1, [sp, #20]
  114da2:	fa5f fb8b 	uxtb.w	fp, fp
  114da6:	fa5f f989 	uxtb.w	r9, r9
  114daa:	fa5f fe8e 	uxtb.w	lr, lr
  114dae:	b2ed      	uxtb	r5, r5
  114db0:	fa5f fc8c 	uxtb.w	ip, ip
  114db4:	b2e4      	uxtb	r4, r4
  114db6:	eb03 0c8c 	add.w	ip, r3, ip, lsl #2
  114dba:	eb03 0787 	add.w	r7, r3, r7, lsl #2
  114dbe:	eb03 0181 	add.w	r1, r3, r1, lsl #2
  114dc2:	eb03 0989 	add.w	r9, r3, r9, lsl #2
  114dc6:	eb03 0e8e 	add.w	lr, r3, lr, lsl #2
  114dca:	eb03 0585 	add.w	r5, r3, r5, lsl #2
  114dce:	eb03 0282 	add.w	r2, r3, r2, lsl #2
  114dd2:	eb03 0484 	add.w	r4, r3, r4, lsl #2
  114dd6:	eb03 038b 	add.w	r3, r3, fp, lsl #2
  114dda:	6a9b      	ldr	r3, [r3, #40]	; 0x28
  114ddc:	f8dc b028 	ldr.w	fp, [ip, #40]	; 0x28
  114de0:	9302      	str	r3, [sp, #8]
  114de2:	f8d7 c028 	ldr.w	ip, [r7, #40]	; 0x28
  114de6:	9b01      	ldr	r3, [sp, #4]
  114de8:	6907      	ldr	r7, [r0, #16]
  114dea:	f8da a028 	ldr.w	sl, [sl, #40]	; 0x28
  114dee:	f8d9 9028 	ldr.w	r9, [r9, #40]	; 0x28
  114df2:	405f      	eors	r7, r3
  114df4:	ea87 670a 	eor.w	r7, r7, sl, lsl #24
  114df8:	ea87 4709 	eor.w	r7, r7, r9, lsl #16
  114dfc:	ea87 270b 	eor.w	r7, r7, fp, lsl #8
  114e00:	9b06      	ldr	r3, [sp, #24]
  114e02:	fa97 f987 	rev.w	r9, r7
  114e06:	6947      	ldr	r7, [r0, #20]
  114e08:	f8d8 8028 	ldr.w	r8, [r8, #40]	; 0x28
  114e0c:	f8de e028 	ldr.w	lr, [lr, #40]	; 0x28
  114e10:	405f      	eors	r7, r3
  114e12:	ea87 6708 	eor.w	r7, r7, r8, lsl #24
  114e16:	ea87 470e 	eor.w	r7, r7, lr, lsl #16
  114e1a:	6ab6      	ldr	r6, [r6, #40]	; 0x28
  114e1c:	6a89      	ldr	r1, [r1, #40]	; 0x28
  114e1e:	6aad      	ldr	r5, [r5, #40]	; 0x28
  114e20:	6a92      	ldr	r2, [r2, #40]	; 0x28
  114e22:	6aa4      	ldr	r4, [r4, #40]	; 0x28
  114e24:	ea87 270c 	eor.w	r7, r7, ip, lsl #8
  114e28:	f8dd c020 	ldr.w	ip, [sp, #32]
  114e2c:	f8d0 e018 	ldr.w	lr, [r0, #24]
  114e30:	69c0      	ldr	r0, [r0, #28]
  114e32:	9b09      	ldr	r3, [sp, #36]	; 0x24
  114e34:	ea8c 0c0e 	eor.w	ip, ip, lr
  114e38:	4058      	eors	r0, r3
  114e3a:	ea8c 6606 	eor.w	r6, ip, r6, lsl #24
  114e3e:	9b02      	ldr	r3, [sp, #8]
  114e40:	ea80 6101 	eor.w	r1, r0, r1, lsl #24
  114e44:	ea86 4505 	eor.w	r5, r6, r5, lsl #16
  114e48:	ea81 4202 	eor.w	r2, r1, r2, lsl #16
  114e4c:	ea85 2404 	eor.w	r4, r5, r4, lsl #8
  114e50:	ea82 2303 	eor.w	r3, r2, r3, lsl #8
  114e54:	9d07      	ldr	r5, [sp, #28]
  114e56:	ba3f      	rev	r7, r7
  114e58:	ba22      	rev	r2, r4
  114e5a:	ba1b      	rev	r3, r3
  114e5c:	f8c5 9000 	str.w	r9, [r5]
  114e60:	606f      	str	r7, [r5, #4]
  114e62:	60aa      	str	r2, [r5, #8]
  114e64:	60eb      	str	r3, [r5, #12]
  114e66:	b015      	add	sp, #84	; 0x54
  114e68:	e8bd 8ff0 	ldmia.w	sp!, {r4, r5, r6, r7, r8, r9, sl, fp, pc}
  114e6c:	00138ed4 	.word	0x00138ed4
  114e70:	0e16      	lsrs	r6, r2, #24
  114e72:	fa5f fc87 	uxtb.w	ip, r7
  114e76:	eb03 0686 	add.w	r6, r3, r6, lsl #2
  114e7a:	eb03 0c8c 	add.w	ip, r3, ip, lsl #2
  114e7e:	f8dc c730 	ldr.w	ip, [ip, #1840]	; 0x730
  114e82:	f8d6 6330 	ldr.w	r6, [r6, #816]	; 0x330
  114e86:	ea86 060c 	eor.w	r6, r6, ip
  114e8a:	404e      	eors	r6, r1
  114e8c:	fa5f fc82 	uxtb.w	ip, r2
  114e90:	ea4f 6118 	mov.w	r1, r8, lsr #24
  114e94:	eb03 0181 	add.w	r1, r3, r1, lsl #2
  114e98:	eb03 0c8c 	add.w	ip, r3, ip, lsl #2
  114e9c:	f8dc c730 	ldr.w	ip, [ip, #1840]	; 0x730
  114ea0:	f8d1 1330 	ldr.w	r1, [r1, #816]	; 0x330
  114ea4:	ea81 010c 	eor.w	r1, r1, ip
  114ea8:	4069      	eors	r1, r5
  114eaa:	fa5f fc88 	uxtb.w	ip, r8
  114eae:	0e25      	lsrs	r5, r4, #24
  114eb0:	eb03 0585 	add.w	r5, r3, r5, lsl #2
  114eb4:	eb03 0c8c 	add.w	ip, r3, ip, lsl #2
  114eb8:	f8d5 5330 	ldr.w	r5, [r5, #816]	; 0x330
  114ebc:	f8dc c730 	ldr.w	ip, [ip, #1840]	; 0x730
  114ec0:	ea85 0c0c 	eor.w	ip, r5, ip
  114ec4:	ea8c 0c0a 	eor.w	ip, ip, sl
  114ec8:	0e3d      	lsrs	r5, r7, #24
  114eca:	fa5f fa84 	uxtb.w	sl, r4
  114ece:	eb03 0585 	add.w	r5, r3, r5, lsl #2
  114ed2:	eb03 0a8a 	add.w	sl, r3, sl, lsl #2
  114ed6:	f8da a730 	ldr.w	sl, [sl, #1840]	; 0x730
  114eda:	f8d5 5330 	ldr.w	r5, [r5, #816]	; 0x330
  114ede:	ea85 050a 	eor.w	r5, r5, sl
  114ee2:	ea85 050e 	eor.w	r5, r5, lr
  114ee6:	f3c8 4e07 	ubfx	lr, r8, #16, #8
  114eea:	eb03 0e8e 	add.w	lr, r3, lr, lsl #2
  114eee:	f8de eb30 	ldr.w	lr, [lr, #2864]	; 0xb30
  114ef2:	f3c8 2807 	ubfx	r8, r8, #8, #8
  114ef6:	eb03 0888 	add.w	r8, r3, r8, lsl #2
  114efa:	ea86 060e 	eor.w	r6, r6, lr
  114efe:	f8d8 ef30 	ldr.w	lr, [r8, #3888]	; 0xf30
  114f02:	f3c4 4807 	ubfx	r8, r4, #16, #8
  114f06:	f3c4 2407 	ubfx	r4, r4, #8, #8
  114f0a:	eb03 0484 	add.w	r4, r3, r4, lsl #2
  114f0e:	f8d4 4f30 	ldr.w	r4, [r4, #3888]	; 0xf30
  114f12:	eb03 0888 	add.w	r8, r3, r8, lsl #2
  114f16:	4066      	eors	r6, r4
  114f18:	f3c7 2407 	ubfx	r4, r7, #8, #8
  114f1c:	f8d8 8b30 	ldr.w	r8, [r8, #2864]	; 0xb30
  114f20:	eb03 0484 	add.w	r4, r3, r4, lsl #2
  114f24:	f8d4 4f30 	ldr.w	r4, [r4, #3888]	; 0xf30
  114f28:	ea81 0108 	eor.w	r1, r1, r8
  114f2c:	4061      	eors	r1, r4
  114f2e:	f3c2 4407 	ubfx	r4, r2, #16, #8
  114f32:	f3c7 4807 	ubfx	r8, r7, #16, #8
  114f36:	eb03 0484 	add.w	r4, r3, r4, lsl #2
  114f3a:	f8d4 4b30 	ldr.w	r4, [r4, #2864]	; 0xb30
  114f3e:	eb03 0788 	add.w	r7, r3, r8, lsl #2
  114f42:	f3c2 2207 	ubfx	r2, r2, #8, #8
  114f46:	f8d7 7b30 	ldr.w	r7, [r7, #2864]	; 0xb30
  114f4a:	eb03 0282 	add.w	r2, r3, r2, lsl #2
  114f4e:	f8d2 2f30 	ldr.w	r2, [r2, #3888]	; 0xf30
  114f52:	4065      	eors	r5, r4
  114f54:	ea85 050e 	eor.w	r5, r5, lr
  114f58:	ea8c 0707 	eor.w	r7, ip, r7
  114f5c:	4057      	eors	r7, r2
  114f5e:	b2ec      	uxtb	r4, r5
  114f60:	0e32      	lsrs	r2, r6, #24
  114f62:	eb03 0282 	add.w	r2, r3, r2, lsl #2
  114f66:	eb03 0484 	add.w	r4, r3, r4, lsl #2
  114f6a:	f8d4 4730 	ldr.w	r4, [r4, #1840]	; 0x730
  114f6e:	f8d2 2330 	ldr.w	r2, [r2, #816]	; 0x330
  114f72:	4062      	eors	r2, r4
  114f74:	f3c1 4407 	ubfx	r4, r1, #16, #8
  114f78:	eb03 0484 	add.w	r4, r3, r4, lsl #2
  114f7c:	f8d4 ab30 	ldr.w	sl, [r4, #2864]	; 0xb30
  114f80:	f3c7 2407 	ubfx	r4, r7, #8, #8
  114f84:	eb03 0484 	add.w	r4, r3, r4, lsl #2
  114f88:	f8d4 8f30 	ldr.w	r8, [r4, #3888]	; 0xf30
  114f8c:	0e0c      	lsrs	r4, r1, #24
  114f8e:	eb03 0484 	add.w	r4, r3, r4, lsl #2
  114f92:	f8d4 c330 	ldr.w	ip, [r4, #816]	; 0x330
  114f96:	b2f4      	uxtb	r4, r6
  114f98:	eb03 0484 	add.w	r4, r3, r4, lsl #2
  114f9c:	f8d4 4730 	ldr.w	r4, [r4, #1840]	; 0x730
  114fa0:	ea8c 0c04 	eor.w	ip, ip, r4
  114fa4:	f3c7 4407 	ubfx	r4, r7, #16, #8
  114fa8:	eb03 0484 	add.w	r4, r3, r4, lsl #2
  114fac:	f8d4 9b30 	ldr.w	r9, [r4, #2864]	; 0xb30
  114fb0:	f3c5 2407 	ubfx	r4, r5, #8, #8
  114fb4:	eb03 0484 	add.w	r4, r3, r4, lsl #2
  114fb8:	f8d4 4f30 	ldr.w	r4, [r4, #3888]	; 0xf30
  114fbc:	9401      	str	r4, [sp, #4]
  114fbe:	0e3c      	lsrs	r4, r7, #24
  114fc0:	b2ff      	uxtb	r7, r7
  114fc2:	eb03 0b87 	add.w	fp, r3, r7, lsl #2
  114fc6:	b2cf      	uxtb	r7, r1
  114fc8:	eb03 0484 	add.w	r4, r3, r4, lsl #2
  114fcc:	eb03 0787 	add.w	r7, r3, r7, lsl #2
  114fd0:	f8d7 7730 	ldr.w	r7, [r7, #1840]	; 0x730
  114fd4:	f8d4 4330 	ldr.w	r4, [r4, #816]	; 0x330
  114fd8:	f3c1 2107 	ubfx	r1, r1, #8, #8
  114fdc:	eb03 0181 	add.w	r1, r3, r1, lsl #2
  114fe0:	407c      	eors	r4, r7
  114fe2:	9102      	str	r1, [sp, #8]
  114fe4:	f3c5 4707 	ubfx	r7, r5, #16, #8
  114fe8:	f8d0 10b0 	ldr.w	r1, [r0, #176]	; 0xb0
  114fec:	0e2d      	lsrs	r5, r5, #24
  114fee:	eb03 0787 	add.w	r7, r3, r7, lsl #2
  114ff2:	eb03 0585 	add.w	r5, r3, r5, lsl #2
  114ff6:	f8d7 eb30 	ldr.w	lr, [r7, #2864]	; 0xb30
  114ffa:	404a      	eors	r2, r1
  114ffc:	f8d5 7330 	ldr.w	r7, [r5, #816]	; 0x330
  115000:	f3c6 2507 	ubfx	r5, r6, #8, #8
  115004:	ea82 020a 	eor.w	r2, r2, sl
  115008:	eb03 0585 	add.w	r5, r3, r5, lsl #2
  11500c:	ea82 0208 	eor.w	r2, r2, r8
  115010:	f8d5 5f30 	ldr.w	r5, [r5, #3888]	; 0xf30
  115014:	f8d0 80b4 	ldr.w	r8, [r0, #180]	; 0xb4
  115018:	9901      	ldr	r1, [sp, #4]
  11501a:	ea8c 0808 	eor.w	r8, ip, r8
  11501e:	ea88 0809 	eor.w	r8, r8, r9
  115022:	ea88 0801 	eor.w	r8, r8, r1
  115026:	f8d0 10b8 	ldr.w	r1, [r0, #184]	; 0xb8
  11502a:	f3c6 4607 	ubfx	r6, r6, #16, #8
  11502e:	404c      	eors	r4, r1
  115030:	ea84 040e 	eor.w	r4, r4, lr
  115034:	406c      	eors	r4, r5
  115036:	9902      	ldr	r1, [sp, #8]
  115038:	f8db 5730 	ldr.w	r5, [fp, #1840]	; 0x730
  11503c:	eb03 0686 	add.w	r6, r3, r6, lsl #2
  115040:	406f      	eors	r7, r5
  115042:	f8d1 5f30 	ldr.w	r5, [r1, #3888]	; 0xf30
  115046:	f8d0 10bc 	ldr.w	r1, [r0, #188]	; 0xbc
  11504a:	f8d6 6b30 	ldr.w	r6, [r6, #2864]	; 0xb30
  11504e:	404f      	eors	r7, r1
  115050:	f8d0 10c0 	ldr.w	r1, [r0, #192]	; 0xc0
  115054:	4077      	eors	r7, r6
  115056:	9109      	str	r1, [sp, #36]	; 0x24
  115058:	f8d0 10c4 	ldr.w	r1, [r0, #196]	; 0xc4
  11505c:	406f      	eors	r7, r5
  11505e:	910c      	str	r1, [sp, #48]	; 0x30
  115060:	f8d0 10c8 	ldr.w	r1, [r0, #200]	; 0xc8
  115064:	0e25      	lsrs	r5, r4, #24
  115066:	910f      	str	r1, [sp, #60]	; 0x3c
  115068:	f8d0 10cc 	ldr.w	r1, [r0, #204]	; 0xcc
  11506c:	ea4f 2c14 	mov.w	ip, r4, lsr #8
  115070:	9112      	str	r1, [sp, #72]	; 0x48
  115072:	0e11      	lsrs	r1, r2, #24
  115074:	9102      	str	r1, [sp, #8]
  115076:	f3c8 4107 	ubfx	r1, r8, #16, #8
  11507a:	910a      	str	r1, [sp, #40]	; 0x28
  11507c:	f3c4 2107 	ubfx	r1, r4, #8, #8
  115080:	910b      	str	r1, [sp, #44]	; 0x2c
  115082:	ea4f 6118 	mov.w	r1, r8, lsr #24
  115086:	9103      	str	r1, [sp, #12]
  115088:	ea4f 4e14 	mov.w	lr, r4, lsr #16
  11508c:	f3c4 4107 	ubfx	r1, r4, #16, #8
  115090:	b2e4      	uxtb	r4, r4
  115092:	910d      	str	r1, [sp, #52]	; 0x34
  115094:	9401      	str	r4, [sp, #4]
  115096:	0a39      	lsrs	r1, r7, #8
  115098:	f3c7 4407 	ubfx	r4, r7, #16, #8
  11509c:	9106      	str	r1, [sp, #24]
  11509e:	9410      	str	r4, [sp, #64]	; 0x40
  1150a0:	f3c7 2107 	ubfx	r1, r7, #8, #8
  1150a4:	0e3c      	lsrs	r4, r7, #24
  1150a6:	f3c2 2607 	ubfx	r6, r2, #8, #8
  1150aa:	fa5f fa87 	uxtb.w	sl, r7
  1150ae:	910e      	str	r1, [sp, #56]	; 0x38
  1150b0:	9504      	str	r5, [sp, #16]
  1150b2:	b2d1      	uxtb	r1, r2
  1150b4:	0c3d      	lsrs	r5, r7, #16
  1150b6:	9405      	str	r4, [sp, #20]
  1150b8:	0c17      	lsrs	r7, r2, #16
  1150ba:	0a14      	lsrs	r4, r2, #8
  1150bc:	f3c2 4207 	ubfx	r2, r2, #16, #8
  1150c0:	9213      	str	r2, [sp, #76]	; 0x4c
  1150c2:	9a08      	ldr	r2, [sp, #32]
  1150c4:	ea4f 4918 	mov.w	r9, r8, lsr #16
  1150c8:	2a0c      	cmp	r2, #12
  1150ca:	9611      	str	r6, [sp, #68]	; 0x44
  1150cc:	ea4f 2b18 	mov.w	fp, r8, lsr #8
  1150d0:	fa5f f688 	uxtb.w	r6, r8
  1150d4:	f3c8 2807 	ubfx	r8, r8, #8, #8
  1150d8:	f340 80d8 	ble.w	11528c <aes_encrypt+0xe84>
  1150dc:	9a02      	ldr	r2, [sp, #8]
  1150de:	eb03 058a 	add.w	r5, r3, sl, lsl #2
  1150e2:	eb03 0482 	add.w	r4, r3, r2, lsl #2
  1150e6:	9a03      	ldr	r2, [sp, #12]
  1150e8:	f8d5 5730 	ldr.w	r5, [r5, #1840]	; 0x730
  1150ec:	eb03 0782 	add.w	r7, r3, r2, lsl #2
  1150f0:	9a04      	ldr	r2, [sp, #16]
  1150f2:	f8d4 4330 	ldr.w	r4, [r4, #816]	; 0x330
  1150f6:	eb03 0c82 	add.w	ip, r3, r2, lsl #2
  1150fa:	9a05      	ldr	r2, [sp, #20]
  1150fc:	eb03 0181 	add.w	r1, r3, r1, lsl #2
  115100:	eb03 0e82 	add.w	lr, r3, r2, lsl #2
  115104:	9a01      	ldr	r2, [sp, #4]
  115106:	f8d1 1730 	ldr.w	r1, [r1, #1840]	; 0x730
  11510a:	eb03 0982 	add.w	r9, r3, r2, lsl #2
  11510e:	9a09      	ldr	r2, [sp, #36]	; 0x24
  115110:	406c      	eors	r4, r5
  115112:	f8d7 5330 	ldr.w	r5, [r7, #816]	; 0x330
  115116:	eb03 0686 	add.w	r6, r3, r6, lsl #2
  11511a:	4054      	eors	r4, r2
  11511c:	9a0c      	ldr	r2, [sp, #48]	; 0x30
  11511e:	f8d6 6730 	ldr.w	r6, [r6, #1840]	; 0x730
  115122:	404d      	eors	r5, r1
  115124:	f8dc 1330 	ldr.w	r1, [ip, #816]	; 0x330
  115128:	4055      	eors	r5, r2
  11512a:	9a0f      	ldr	r2, [sp, #60]	; 0x3c
  11512c:	f8d9 7730 	ldr.w	r7, [r9, #1840]	; 0x730
  115130:	4071      	eors	r1, r6
  115132:	f8de 6330 	ldr.w	r6, [lr, #816]	; 0x330
  115136:	4051      	eors	r1, r2
  115138:	9a12      	ldr	r2, [sp, #72]	; 0x48
  11513a:	407e      	eors	r6, r7
  11513c:	4056      	eors	r6, r2
  11513e:	9a0a      	ldr	r2, [sp, #40]	; 0x28
  115140:	30d0      	adds	r0, #208	; 0xd0
  115142:	eb03 0782 	add.w	r7, r3, r2, lsl #2
  115146:	9a0d      	ldr	r2, [sp, #52]	; 0x34
  115148:	f8d7 7b30 	ldr.w	r7, [r7, #2864]	; 0xb30
  11514c:	eb03 0c82 	add.w	ip, r3, r2, lsl #2
  115150:	9a10      	ldr	r2, [sp, #64]	; 0x40
  115152:	407c      	eors	r4, r7
  115154:	f8dc 7b30 	ldr.w	r7, [ip, #2864]	; 0xb30
  115158:	eb03 0e82 	add.w	lr, r3, r2, lsl #2
  11515c:	9a13      	ldr	r2, [sp, #76]	; 0x4c
  11515e:	ea85 0c07 	eor.w	ip, r5, r7
  115162:	f8de 7b30 	ldr.w	r7, [lr, #2864]	; 0xb30
  115166:	eb03 0282 	add.w	r2, r3, r2, lsl #2
  11516a:	9d0e      	ldr	r5, [sp, #56]	; 0x38
  11516c:	404f      	eors	r7, r1
  11516e:	f8d2 1b30 	ldr.w	r1, [r2, #2864]	; 0xb30
  115172:	9a0b      	ldr	r2, [sp, #44]	; 0x2c
  115174:	4071      	eors	r1, r6
  115176:	eb03 0685 	add.w	r6, r3, r5, lsl #2
  11517a:	9d11      	ldr	r5, [sp, #68]	; 0x44
  11517c:	eb03 0282 	add.w	r2, r3, r2, lsl #2
  115180:	eb03 0985 	add.w	r9, r3, r5, lsl #2
  115184:	f8d2 5f30 	ldr.w	r5, [r2, #3888]	; 0xf30
  115188:	f8d9 2f30 	ldr.w	r2, [r9, #3888]	; 0xf30
  11518c:	eb03 0e88 	add.w	lr, r3, r8, lsl #2
  115190:	4057      	eors	r7, r2
  115192:	f8de 2f30 	ldr.w	r2, [lr, #3888]	; 0xf30
  115196:	4065      	eors	r5, r4
  115198:	4051      	eors	r1, r2
  11519a:	b2cc      	uxtb	r4, r1
  11519c:	0e2a      	lsrs	r2, r5, #24
  11519e:	f8d6 6f30 	ldr.w	r6, [r6, #3888]	; 0xf30
  1151a2:	eb03 0282 	add.w	r2, r3, r2, lsl #2
  1151a6:	eb03 0484 	add.w	r4, r3, r4, lsl #2
  1151aa:	f8d2 2330 	ldr.w	r2, [r2, #816]	; 0x330
  1151ae:	f8d4 4730 	ldr.w	r4, [r4, #1840]	; 0x730
  1151b2:	ea8c 0606 	eor.w	r6, ip, r6
  1151b6:	4062      	eors	r2, r4
  1151b8:	f3c6 4407 	ubfx	r4, r6, #16, #8
  1151bc:	eb03 0484 	add.w	r4, r3, r4, lsl #2
  1151c0:	f8d4 ab30 	ldr.w	sl, [r4, #2864]	; 0xb30
  1151c4:	f3c7 2407 	ubfx	r4, r7, #8, #8
  1151c8:	eb03 0484 	add.w	r4, r3, r4, lsl #2
  1151cc:	f8d4 9f30 	ldr.w	r9, [r4, #3888]	; 0xf30
  1151d0:	0e34      	lsrs	r4, r6, #24
  1151d2:	eb03 0484 	add.w	r4, r3, r4, lsl #2
  1151d6:	f8d4 8330 	ldr.w	r8, [r4, #816]	; 0x330
  1151da:	b2ec      	uxtb	r4, r5
  1151dc:	eb03 0484 	add.w	r4, r3, r4, lsl #2
  1151e0:	f8d4 4730 	ldr.w	r4, [r4, #1840]	; 0x730
  1151e4:	ea88 0804 	eor.w	r8, r8, r4
  1151e8:	f3c7 4407 	ubfx	r4, r7, #16, #8
  1151ec:	eb03 0484 	add.w	r4, r3, r4, lsl #2
  1151f0:	f8d4 eb30 	ldr.w	lr, [r4, #2864]	; 0xb30
  1151f4:	f3c1 2407 	ubfx	r4, r1, #8, #8
  1151f8:	eb03 0484 	add.w	r4, r3, r4, lsl #2
  1151fc:	f8d4 bf30 	ldr.w	fp, [r4, #3888]	; 0xf30
  115200:	0e3c      	lsrs	r4, r7, #24
  115202:	b2ff      	uxtb	r7, r7
  115204:	eb03 0c87 	add.w	ip, r3, r7, lsl #2
  115208:	b2f7      	uxtb	r7, r6
  11520a:	eb03 0484 	add.w	r4, r3, r4, lsl #2
  11520e:	eb03 0787 	add.w	r7, r3, r7, lsl #2
  115212:	f8d7 7730 	ldr.w	r7, [r7, #1840]	; 0x730
  115216:	f8d4 4330 	ldr.w	r4, [r4, #816]	; 0x330
  11521a:	f3c6 2607 	ubfx	r6, r6, #8, #8
  11521e:	407c      	eors	r4, r7
  115220:	f3c1 4707 	ubfx	r7, r1, #16, #8
  115224:	eb03 0787 	add.w	r7, r3, r7, lsl #2
  115228:	f8d7 7b30 	ldr.w	r7, [r7, #2864]	; 0xb30
  11522c:	0e09      	lsrs	r1, r1, #24
  11522e:	9701      	str	r7, [sp, #4]
  115230:	f3c5 2707 	ubfx	r7, r5, #8, #8
  115234:	f3c5 4507 	ubfx	r5, r5, #16, #8
  115238:	eb03 0686 	add.w	r6, r3, r6, lsl #2
  11523c:	eb03 0181 	add.w	r1, r3, r1, lsl #2
  115240:	eb03 0787 	add.w	r7, r3, r7, lsl #2
  115244:	eb03 0385 	add.w	r3, r3, r5, lsl #2
  115248:	6805      	ldr	r5, [r0, #0]
  11524a:	f8d7 7f30 	ldr.w	r7, [r7, #3888]	; 0xf30
  11524e:	406a      	eors	r2, r5
  115250:	6845      	ldr	r5, [r0, #4]
  115252:	f8d1 1330 	ldr.w	r1, [r1, #816]	; 0x330
  115256:	ea88 0805 	eor.w	r8, r8, r5
  11525a:	6885      	ldr	r5, [r0, #8]
  11525c:	ea82 020a 	eor.w	r2, r2, sl
  115260:	406c      	eors	r4, r5
  115262:	9d01      	ldr	r5, [sp, #4]
  115264:	ea88 080e 	eor.w	r8, r8, lr
  115268:	406c      	eors	r4, r5
  11526a:	407c      	eors	r4, r7
  11526c:	f8dc 7730 	ldr.w	r7, [ip, #1840]	; 0x730
  115270:	f8d3 5b30 	ldr.w	r5, [r3, #2864]	; 0xb30
  115274:	404f      	eors	r7, r1
  115276:	68c1      	ldr	r1, [r0, #12]
  115278:	f8d6 3f30 	ldr.w	r3, [r6, #3888]	; 0xf30
  11527c:	404f      	eors	r7, r1
  11527e:	406f      	eors	r7, r5
  115280:	ea82 0209 	eor.w	r2, r2, r9
  115284:	ea88 080b 	eor.w	r8, r8, fp
  115288:	405f      	eors	r7, r3
  11528a:	e54a      	b.n	114d22 <aes_encrypt+0x91a>
  11528c:	30b0      	adds	r0, #176	; 0xb0
  11528e:	e565      	b.n	114d5c <aes_encrypt+0x954>

00115290 <aes_decrypt>:
  115290:	e92d 4ff0 	stmdb	sp!, {r4, r5, r6, r7, r8, r9, sl, fp, lr}
  115294:	b095      	sub	sp, #84	; 0x54
  115296:	680e      	ldr	r6, [r1, #0]
  115298:	9207      	str	r2, [sp, #28]
  11529a:	f8d0 2100 	ldr.w	r2, [r0, #256]	; 0x100
  11529e:	684c      	ldr	r4, [r1, #4]
  1152a0:	ba36      	rev	r6, r6
  1152a2:	4056      	eors	r6, r2
  1152a4:	f8d0 2104 	ldr.w	r2, [r0, #260]	; 0x104
  1152a8:	f8d1 9008 	ldr.w	r9, [r1, #8]
  1152ac:	ba24      	rev	r4, r4
  1152ae:	4054      	eors	r4, r2
  1152b0:	f8d0 2108 	ldr.w	r2, [r0, #264]	; 0x108
  1152b4:	68cd      	ldr	r5, [r1, #12]
  1152b6:	fa99 f989 	rev.w	r9, r9
  1152ba:	ea89 0902 	eor.w	r9, r9, r2
  1152be:	f8d0 210c 	ldr.w	r2, [r0, #268]	; 0x10c
  1152c2:	4bf1      	ldr	r3, [pc, #964]	; (115688 <aes_decrypt+0x3f8>)
  1152c4:	ba2d      	rev	r5, r5
  1152c6:	4055      	eors	r5, r2
  1152c8:	0e32      	lsrs	r2, r6, #24
  1152ca:	eb03 0282 	add.w	r2, r3, r2, lsl #2
  1152ce:	f8d2 1238 	ldr.w	r1, [r2, #568]	; 0x238
  1152d2:	b2e2      	uxtb	r2, r4
  1152d4:	eb03 0282 	add.w	r2, r3, r2, lsl #2
  1152d8:	f8d2 2638 	ldr.w	r2, [r2, #1592]	; 0x638
  1152dc:	fa5f f789 	uxtb.w	r7, r9
  1152e0:	4051      	eors	r1, r2
  1152e2:	0e22      	lsrs	r2, r4, #24
  1152e4:	eb03 0282 	add.w	r2, r3, r2, lsl #2
  1152e8:	eb03 0787 	add.w	r7, r3, r7, lsl #2
  1152ec:	f8d7 7638 	ldr.w	r7, [r7, #1592]	; 0x638
  1152f0:	f8d2 2238 	ldr.w	r2, [r2, #568]	; 0x238
  1152f4:	407a      	eors	r2, r7
  1152f6:	ea4f 6719 	mov.w	r7, r9, lsr #24
  1152fa:	eb03 0787 	add.w	r7, r3, r7, lsl #2
  1152fe:	f8d7 e238 	ldr.w	lr, [r7, #568]	; 0x238
  115302:	b2ef      	uxtb	r7, r5
  115304:	eb03 0787 	add.w	r7, r3, r7, lsl #2
  115308:	f8d7 7638 	ldr.w	r7, [r7, #1592]	; 0x638
  11530c:	9201      	str	r2, [sp, #4]
  11530e:	ea8e 0e07 	eor.w	lr, lr, r7
  115312:	0e2f      	lsrs	r7, r5, #24
  115314:	eb03 0787 	add.w	r7, r3, r7, lsl #2
  115318:	f8d7 c238 	ldr.w	ip, [r7, #568]	; 0x238
  11531c:	b2f7      	uxtb	r7, r6
  11531e:	eb03 0787 	add.w	r7, r3, r7, lsl #2
  115322:	f8d7 7638 	ldr.w	r7, [r7, #1592]	; 0x638
  115326:	ea8c 0c07 	eor.w	ip, ip, r7
  11532a:	f3c5 4707 	ubfx	r7, r5, #16, #8
  11532e:	f3c5 2507 	ubfx	r5, r5, #8, #8
  115332:	eb03 0787 	add.w	r7, r3, r7, lsl #2
  115336:	eb03 0585 	add.w	r5, r3, r5, lsl #2
  11533a:	f8d7 aa38 	ldr.w	sl, [r7, #2616]	; 0xa38
  11533e:	f8d5 7e38 	ldr.w	r7, [r5, #3640]	; 0xe38
  115342:	f3c6 4507 	ubfx	r5, r6, #16, #8
  115346:	f3c6 2607 	ubfx	r6, r6, #8, #8
  11534a:	eb03 0585 	add.w	r5, r3, r5, lsl #2
  11534e:	eb03 0686 	add.w	r6, r3, r6, lsl #2
  115352:	f8d5 8a38 	ldr.w	r8, [r5, #2616]	; 0xa38
  115356:	f8d6 5e38 	ldr.w	r5, [r6, #3640]	; 0xe38
  11535a:	f3c4 4607 	ubfx	r6, r4, #16, #8
  11535e:	f3c4 2407 	ubfx	r4, r4, #8, #8
  115362:	eb03 0484 	add.w	r4, r3, r4, lsl #2
  115366:	f8d4 be38 	ldr.w	fp, [r4, #3640]	; 0xe38
  11536a:	f3c9 4407 	ubfx	r4, r9, #16, #8
  11536e:	eb03 0484 	add.w	r4, r3, r4, lsl #2
  115372:	f8d4 2a38 	ldr.w	r2, [r4, #2616]	; 0xa38
  115376:	9c01      	ldr	r4, [sp, #4]
  115378:	9202      	str	r2, [sp, #8]
  11537a:	f8d0 2110 	ldr.w	r2, [r0, #272]	; 0x110
  11537e:	eb03 0686 	add.w	r6, r3, r6, lsl #2
  115382:	4051      	eors	r1, r2
  115384:	f8d0 2114 	ldr.w	r2, [r0, #276]	; 0x114
  115388:	f8d6 6a38 	ldr.w	r6, [r6, #2616]	; 0xa38
  11538c:	4054      	eors	r4, r2
  11538e:	ea84 0208 	eor.w	r2, r4, r8
  115392:	407a      	eors	r2, r7
  115394:	f8d0 7118 	ldr.w	r7, [r0, #280]	; 0x118
  115398:	f3c9 2907 	ubfx	r9, r9, #8, #8
  11539c:	ea8e 0e07 	eor.w	lr, lr, r7
  1153a0:	ea8e 0e06 	eor.w	lr, lr, r6
  1153a4:	eb03 0989 	add.w	r9, r3, r9, lsl #2
  1153a8:	ea8e 0e05 	eor.w	lr, lr, r5
  1153ac:	f8d9 9e38 	ldr.w	r9, [r9, #3640]	; 0xe38
  1153b0:	f8d0 511c 	ldr.w	r5, [r0, #284]	; 0x11c
  1153b4:	ea81 010a 	eor.w	r1, r1, sl
  1153b8:	9c02      	ldr	r4, [sp, #8]
  1153ba:	ea81 0109 	eor.w	r1, r1, r9
  1153be:	ea8c 0505 	eor.w	r5, ip, r5
  1153c2:	4065      	eors	r5, r4
  1153c4:	b2d6      	uxtb	r6, r2
  1153c6:	0e0c      	lsrs	r4, r1, #24
  1153c8:	eb03 0484 	add.w	r4, r3, r4, lsl #2
  1153cc:	eb03 0686 	add.w	r6, r3, r6, lsl #2
  1153d0:	f8d6 6638 	ldr.w	r6, [r6, #1592]	; 0x638
  1153d4:	f8d4 4238 	ldr.w	r4, [r4, #568]	; 0x238
  1153d8:	ea85 050b 	eor.w	r5, r5, fp
  1153dc:	4074      	eors	r4, r6
  1153de:	f3c5 4607 	ubfx	r6, r5, #16, #8
  1153e2:	eb03 0686 	add.w	r6, r3, r6, lsl #2
  1153e6:	f3ce 2b07 	ubfx	fp, lr, #8, #8
  1153ea:	fa5f f98e 	uxtb.w	r9, lr
  1153ee:	ea4f 681e 	mov.w	r8, lr, lsr #24
  1153f2:	f3ce 4e07 	ubfx	lr, lr, #16, #8
  1153f6:	f8d6 7a38 	ldr.w	r7, [r6, #2616]	; 0xa38
  1153fa:	eb03 068e 	add.w	r6, r3, lr, lsl #2
  1153fe:	9603      	str	r6, [sp, #12]
  115400:	ea4f 6e15 	mov.w	lr, r5, lsr #24
  115404:	b2ee      	uxtb	r6, r5
  115406:	f3c5 2507 	ubfx	r5, r5, #8, #8
  11540a:	eb03 0585 	add.w	r5, r3, r5, lsl #2
  11540e:	9501      	str	r5, [sp, #4]
  115410:	f8d0 5120 	ldr.w	r5, [r0, #288]	; 0x120
  115414:	eb03 0b8b 	add.w	fp, r3, fp, lsl #2
  115418:	406c      	eors	r4, r5
  11541a:	ea4f 6a12 	mov.w	sl, r2, lsr #24
  11541e:	407c      	eors	r4, r7
  115420:	f8db 7e38 	ldr.w	r7, [fp, #3640]	; 0xe38
  115424:	eb03 0c86 	add.w	ip, r3, r6, lsl #2
  115428:	eb03 0a8a 	add.w	sl, r3, sl, lsl #2
  11542c:	eb03 0989 	add.w	r9, r3, r9, lsl #2
  115430:	407c      	eors	r4, r7
  115432:	f8cd c008 	str.w	ip, [sp, #8]
  115436:	f8da 7238 	ldr.w	r7, [sl, #568]	; 0x238
  11543a:	f8d9 c638 	ldr.w	ip, [r9, #1592]	; 0x638
  11543e:	b2ce      	uxtb	r6, r1
  115440:	ea87 0c0c 	eor.w	ip, r7, ip
  115444:	9f02      	ldr	r7, [sp, #8]
  115446:	eb03 0888 	add.w	r8, r3, r8, lsl #2
  11544a:	eb03 0e8e 	add.w	lr, r3, lr, lsl #2
  11544e:	eb03 0686 	add.w	r6, r3, r6, lsl #2
  115452:	f8d8 8238 	ldr.w	r8, [r8, #568]	; 0x238
  115456:	f8de e238 	ldr.w	lr, [lr, #568]	; 0x238
  11545a:	9d03      	ldr	r5, [sp, #12]
  11545c:	f8d7 7638 	ldr.w	r7, [r7, #1592]	; 0x638
  115460:	f8d6 6638 	ldr.w	r6, [r6, #1592]	; 0x638
  115464:	ea88 0707 	eor.w	r7, r8, r7
  115468:	ea8e 0606 	eor.w	r6, lr, r6
  11546c:	f3c1 4807 	ubfx	r8, r1, #16, #8
  115470:	f8d5 ea38 	ldr.w	lr, [r5, #2616]	; 0xa38
  115474:	9d01      	ldr	r5, [sp, #4]
  115476:	eb03 0888 	add.w	r8, r3, r8, lsl #2
  11547a:	f8d5 ae38 	ldr.w	sl, [r5, #3640]	; 0xe38
  11547e:	f3c1 2507 	ubfx	r5, r1, #8, #8
  115482:	f8d8 1a38 	ldr.w	r1, [r8, #2616]	; 0xa38
  115486:	f3c2 4807 	ubfx	r8, r2, #16, #8
  11548a:	f3c2 2207 	ubfx	r2, r2, #8, #8
  11548e:	eb03 0888 	add.w	r8, r3, r8, lsl #2
  115492:	eb03 0282 	add.w	r2, r3, r2, lsl #2
  115496:	f8d8 9a38 	ldr.w	r9, [r8, #2616]	; 0xa38
  11549a:	f8d2 8e38 	ldr.w	r8, [r2, #3640]	; 0xe38
  11549e:	f8d0 2124 	ldr.w	r2, [r0, #292]	; 0x124
  1154a2:	eb03 0585 	add.w	r5, r3, r5, lsl #2
  1154a6:	ea8c 0c02 	eor.w	ip, ip, r2
  1154aa:	f8d0 2128 	ldr.w	r2, [r0, #296]	; 0x128
  1154ae:	f8d5 5e38 	ldr.w	r5, [r5, #3640]	; 0xe38
  1154b2:	4057      	eors	r7, r2
  1154b4:	f8d0 212c 	ldr.w	r2, [r0, #300]	; 0x12c
  1154b8:	ea8c 0101 	eor.w	r1, ip, r1
  1154bc:	4072      	eors	r2, r6
  1154be:	0e26      	lsrs	r6, r4, #24
  1154c0:	ea81 010a 	eor.w	r1, r1, sl
  1154c4:	ea87 0709 	eor.w	r7, r7, r9
  1154c8:	eb03 0686 	add.w	r6, r3, r6, lsl #2
  1154cc:	407d      	eors	r5, r7
  1154ce:	f8d6 7238 	ldr.w	r7, [r6, #568]	; 0x238
  1154d2:	b2ce      	uxtb	r6, r1
  1154d4:	eb03 0686 	add.w	r6, r3, r6, lsl #2
  1154d8:	f8d6 6638 	ldr.w	r6, [r6, #1592]	; 0x638
  1154dc:	ea82 020e 	eor.w	r2, r2, lr
  1154e0:	ea82 0208 	eor.w	r2, r2, r8
  1154e4:	ea87 0c06 	eor.w	ip, r7, r6
  1154e8:	f3c2 4607 	ubfx	r6, r2, #16, #8
  1154ec:	eb03 0686 	add.w	r6, r3, r6, lsl #2
  1154f0:	f8d6 aa38 	ldr.w	sl, [r6, #2616]	; 0xa38
  1154f4:	f3c5 2607 	ubfx	r6, r5, #8, #8
  1154f8:	eb03 0686 	add.w	r6, r3, r6, lsl #2
  1154fc:	f8d6 9e38 	ldr.w	r9, [r6, #3640]	; 0xe38
  115500:	b2ef      	uxtb	r7, r5
  115502:	0e0e      	lsrs	r6, r1, #24
  115504:	eb03 0686 	add.w	r6, r3, r6, lsl #2
  115508:	eb03 0787 	add.w	r7, r3, r7, lsl #2
  11550c:	f8d6 6238 	ldr.w	r6, [r6, #568]	; 0x238
  115510:	f8d7 7638 	ldr.w	r7, [r7, #1592]	; 0x638
  115514:	407e      	eors	r6, r7
  115516:	f3c4 4707 	ubfx	r7, r4, #16, #8
  11551a:	eb03 0787 	add.w	r7, r3, r7, lsl #2
  11551e:	f8d7 ba38 	ldr.w	fp, [r7, #2616]	; 0xa38
  115522:	f3c2 2707 	ubfx	r7, r2, #8, #8
  115526:	eb03 0787 	add.w	r7, r3, r7, lsl #2
  11552a:	f8d7 7e38 	ldr.w	r7, [r7, #3640]	; 0xe38
  11552e:	9701      	str	r7, [sp, #4]
  115530:	0e2f      	lsrs	r7, r5, #24
  115532:	f3c5 4507 	ubfx	r5, r5, #16, #8
  115536:	eb03 0885 	add.w	r8, r3, r5, lsl #2
  11553a:	b2d5      	uxtb	r5, r2
  11553c:	0e12      	lsrs	r2, r2, #24
  11553e:	eb03 0282 	add.w	r2, r3, r2, lsl #2
  115542:	f8d2 2238 	ldr.w	r2, [r2, #568]	; 0x238
  115546:	eb03 0787 	add.w	r7, r3, r7, lsl #2
  11554a:	9202      	str	r2, [sp, #8]
  11554c:	f8d0 2130 	ldr.w	r2, [r0, #304]	; 0x130
  115550:	eb03 0585 	add.w	r5, r3, r5, lsl #2
  115554:	f8d5 5638 	ldr.w	r5, [r5, #1592]	; 0x638
  115558:	f8d7 7238 	ldr.w	r7, [r7, #568]	; 0x238
  11555c:	ea8c 0c02 	eor.w	ip, ip, r2
  115560:	f8d0 2134 	ldr.w	r2, [r0, #308]	; 0x134
  115564:	406f      	eors	r7, r5
  115566:	4056      	eors	r6, r2
  115568:	f3c1 4507 	ubfx	r5, r1, #16, #8
  11556c:	9a01      	ldr	r2, [sp, #4]
  11556e:	eb03 0585 	add.w	r5, r3, r5, lsl #2
  115572:	ea86 060b 	eor.w	r6, r6, fp
  115576:	4056      	eors	r6, r2
  115578:	f8d5 ea38 	ldr.w	lr, [r5, #2616]	; 0xa38
  11557c:	f8d0 2138 	ldr.w	r2, [r0, #312]	; 0x138
  115580:	f3c4 2507 	ubfx	r5, r4, #8, #8
  115584:	b2e4      	uxtb	r4, r4
  115586:	eb03 0484 	add.w	r4, r3, r4, lsl #2
  11558a:	f8d4 4638 	ldr.w	r4, [r4, #1592]	; 0x638
  11558e:	4057      	eors	r7, r2
  115590:	9a02      	ldr	r2, [sp, #8]
  115592:	ea8c 0c0a 	eor.w	ip, ip, sl
  115596:	ea87 070e 	eor.w	r7, r7, lr
  11559a:	f3c1 2107 	ubfx	r1, r1, #8, #8
  11559e:	ea82 0e04 	eor.w	lr, r2, r4
  1155a2:	f8d0 213c 	ldr.w	r2, [r0, #316]	; 0x13c
  1155a6:	ea8c 0c09 	eor.w	ip, ip, r9
  1155aa:	f8d8 4a38 	ldr.w	r4, [r8, #2616]	; 0xa38
  1155ae:	eb03 0181 	add.w	r1, r3, r1, lsl #2
  1155b2:	f8d1 1e38 	ldr.w	r1, [r1, #3640]	; 0xe38
  1155b6:	ea8e 0e02 	eor.w	lr, lr, r2
  1155ba:	ea4f 621c 	mov.w	r2, ip, lsr #24
  1155be:	ea8e 0e04 	eor.w	lr, lr, r4
  1155c2:	eb03 0282 	add.w	r2, r3, r2, lsl #2
  1155c6:	ea8e 0e01 	eor.w	lr, lr, r1
  1155ca:	eb03 0585 	add.w	r5, r3, r5, lsl #2
  1155ce:	f8d2 1238 	ldr.w	r1, [r2, #568]	; 0x238
  1155d2:	b2f2      	uxtb	r2, r6
  1155d4:	f8d5 5e38 	ldr.w	r5, [r5, #3640]	; 0xe38
  1155d8:	eb03 0282 	add.w	r2, r3, r2, lsl #2
  1155dc:	f8d2 2638 	ldr.w	r2, [r2, #1592]	; 0x638
  1155e0:	406f      	eors	r7, r5
  1155e2:	4051      	eors	r1, r2
  1155e4:	b2fc      	uxtb	r4, r7
  1155e6:	0e32      	lsrs	r2, r6, #24
  1155e8:	eb03 0282 	add.w	r2, r3, r2, lsl #2
  1155ec:	eb03 0484 	add.w	r4, r3, r4, lsl #2
  1155f0:	f8d4 4638 	ldr.w	r4, [r4, #1592]	; 0x638
  1155f4:	f8d2 2238 	ldr.w	r2, [r2, #568]	; 0x238
  1155f8:	fa5f f88c 	uxtb.w	r8, ip
  1155fc:	4062      	eors	r2, r4
  1155fe:	0e3c      	lsrs	r4, r7, #24
  115600:	eb03 0484 	add.w	r4, r3, r4, lsl #2
  115604:	f8d4 5238 	ldr.w	r5, [r4, #568]	; 0x238
  115608:	fa5f f48e 	uxtb.w	r4, lr
  11560c:	eb03 0484 	add.w	r4, r3, r4, lsl #2
  115610:	f8d4 4638 	ldr.w	r4, [r4, #1592]	; 0x638
  115614:	eb03 0888 	add.w	r8, r3, r8, lsl #2
  115618:	4065      	eors	r5, r4
  11561a:	ea4f 641e 	mov.w	r4, lr, lsr #24
  11561e:	eb03 0484 	add.w	r4, r3, r4, lsl #2
  115622:	f8d4 9238 	ldr.w	r9, [r4, #568]	; 0x238
  115626:	f8d8 4638 	ldr.w	r4, [r8, #1592]	; 0x638
  11562a:	f3ce 4807 	ubfx	r8, lr, #16, #8
  11562e:	f3ce 2e07 	ubfx	lr, lr, #8, #8
  115632:	eb03 0888 	add.w	r8, r3, r8, lsl #2
  115636:	eb03 0e8e 	add.w	lr, r3, lr, lsl #2
  11563a:	f8d8 ba38 	ldr.w	fp, [r8, #2616]	; 0xa38
  11563e:	f8de 8e38 	ldr.w	r8, [lr, #3640]	; 0xe38
  115642:	f3cc 4e07 	ubfx	lr, ip, #16, #8
  115646:	eb03 0e8e 	add.w	lr, r3, lr, lsl #2
  11564a:	ea89 0404 	eor.w	r4, r9, r4
  11564e:	f3cc 2c07 	ubfx	ip, ip, #8, #8
  115652:	f8de 9a38 	ldr.w	r9, [lr, #2616]	; 0xa38
  115656:	f3c6 4e07 	ubfx	lr, r6, #16, #8
  11565a:	f3c6 2607 	ubfx	r6, r6, #8, #8
  11565e:	eb03 0686 	add.w	r6, r3, r6, lsl #2
  115662:	eb03 0c8c 	add.w	ip, r3, ip, lsl #2
  115666:	9201      	str	r2, [sp, #4]
  115668:	f8dc ce38 	ldr.w	ip, [ip, #3640]	; 0xe38
  11566c:	f8d6 ae38 	ldr.w	sl, [r6, #3640]	; 0xe38
  115670:	f8d0 2140 	ldr.w	r2, [r0, #320]	; 0x140
  115674:	f3c7 4607 	ubfx	r6, r7, #16, #8
  115678:	f3c7 2707 	ubfx	r7, r7, #8, #8
  11567c:	eb03 0787 	add.w	r7, r3, r7, lsl #2
  115680:	f8d7 7e38 	ldr.w	r7, [r7, #3640]	; 0xe38
  115684:	e002      	b.n	11568c <aes_decrypt+0x3fc>
  115686:	bf00      	nop
  115688:	0013b0c4 	.word	0x0013b0c4
  11568c:	4051      	eors	r1, r2
  11568e:	ea81 010b 	eor.w	r1, r1, fp
  115692:	4079      	eors	r1, r7
  115694:	9a01      	ldr	r2, [sp, #4]
  115696:	f8d0 7144 	ldr.w	r7, [r0, #324]	; 0x144
  11569a:	eb03 0686 	add.w	r6, r3, r6, lsl #2
  11569e:	407a      	eors	r2, r7
  1156a0:	f8d0 7148 	ldr.w	r7, [r0, #328]	; 0x148
  1156a4:	f8d6 6a38 	ldr.w	r6, [r6, #2616]	; 0xa38
  1156a8:	407d      	eors	r5, r7
  1156aa:	f8d0 714c 	ldr.w	r7, [r0, #332]	; 0x14c
  1156ae:	ea82 0209 	eor.w	r2, r2, r9
  1156b2:	407c      	eors	r4, r7
  1156b4:	4074      	eors	r4, r6
  1156b6:	4656      	mov	r6, sl
  1156b8:	4074      	eors	r4, r6
  1156ba:	0e0e      	lsrs	r6, r1, #24
  1156bc:	ea82 0208 	eor.w	r2, r2, r8
  1156c0:	eb03 0686 	add.w	r6, r3, r6, lsl #2
  1156c4:	f8d6 7238 	ldr.w	r7, [r6, #568]	; 0x238
  1156c8:	eb03 0e8e 	add.w	lr, r3, lr, lsl #2
  1156cc:	b2d6      	uxtb	r6, r2
  1156ce:	f8de ea38 	ldr.w	lr, [lr, #2616]	; 0xa38
  1156d2:	eb03 0686 	add.w	r6, r3, r6, lsl #2
  1156d6:	f8d6 6638 	ldr.w	r6, [r6, #1592]	; 0x638
  1156da:	ea85 050e 	eor.w	r5, r5, lr
  1156de:	ea85 050c 	eor.w	r5, r5, ip
  1156e2:	ea87 0c06 	eor.w	ip, r7, r6
  1156e6:	f3c4 4607 	ubfx	r6, r4, #16, #8
  1156ea:	eb03 0686 	add.w	r6, r3, r6, lsl #2
  1156ee:	f8d6 6a38 	ldr.w	r6, [r6, #2616]	; 0xa38
  1156f2:	ea4f 6e15 	mov.w	lr, r5, lsr #24
  1156f6:	9601      	str	r6, [sp, #4]
  1156f8:	f3c5 2607 	ubfx	r6, r5, #8, #8
  1156fc:	eb03 0686 	add.w	r6, r3, r6, lsl #2
  115700:	f8d6 7e38 	ldr.w	r7, [r6, #3640]	; 0xe38
  115704:	0e16      	lsrs	r6, r2, #24
  115706:	9702      	str	r7, [sp, #8]
  115708:	b2ef      	uxtb	r7, r5
  11570a:	f3c5 4507 	ubfx	r5, r5, #16, #8
  11570e:	eb03 0985 	add.w	r9, r3, r5, lsl #2
  115712:	b2e5      	uxtb	r5, r4
  115714:	eb03 0a85 	add.w	sl, r3, r5, lsl #2
  115718:	f8d0 5150 	ldr.w	r5, [r0, #336]	; 0x150
  11571c:	eb03 0686 	add.w	r6, r3, r6, lsl #2
  115720:	ea8c 0c05 	eor.w	ip, ip, r5
  115724:	9d01      	ldr	r5, [sp, #4]
  115726:	eb03 0787 	add.w	r7, r3, r7, lsl #2
  11572a:	f8d7 7638 	ldr.w	r7, [r7, #1592]	; 0x638
  11572e:	f8d6 6238 	ldr.w	r6, [r6, #568]	; 0x238
  115732:	ea8c 0c05 	eor.w	ip, ip, r5
  115736:	9d02      	ldr	r5, [sp, #8]
  115738:	407e      	eors	r6, r7
  11573a:	ea8c 0c05 	eor.w	ip, ip, r5
  11573e:	f3c1 4707 	ubfx	r7, r1, #16, #8
  115742:	f8d0 5154 	ldr.w	r5, [r0, #340]	; 0x154
  115746:	eb03 0787 	add.w	r7, r3, r7, lsl #2
  11574a:	ea4f 6814 	mov.w	r8, r4, lsr #24
  11574e:	406e      	eors	r6, r5
  115750:	f3c4 2407 	ubfx	r4, r4, #8, #8
  115754:	f8d7 5a38 	ldr.w	r5, [r7, #2616]	; 0xa38
  115758:	eb03 0b8e 	add.w	fp, r3, lr, lsl #2
  11575c:	eb03 0484 	add.w	r4, r3, r4, lsl #2
  115760:	f8db 7238 	ldr.w	r7, [fp, #568]	; 0x238
  115764:	f8d4 4e38 	ldr.w	r4, [r4, #3640]	; 0xe38
  115768:	fa5f fe81 	uxtb.w	lr, r1
  11576c:	406e      	eors	r6, r5
  11576e:	f3c1 2107 	ubfx	r1, r1, #8, #8
  115772:	f8da 5638 	ldr.w	r5, [sl, #1592]	; 0x638
  115776:	eb03 0e8e 	add.w	lr, r3, lr, lsl #2
  11577a:	eb03 0181 	add.w	r1, r3, r1, lsl #2
  11577e:	eb03 0888 	add.w	r8, r3, r8, lsl #2
  115782:	4066      	eors	r6, r4
  115784:	f8d8 8238 	ldr.w	r8, [r8, #568]	; 0x238
  115788:	f8d1 4e38 	ldr.w	r4, [r1, #3640]	; 0xe38
  11578c:	406f      	eors	r7, r5
  11578e:	f3c2 4107 	ubfx	r1, r2, #16, #8
  115792:	f8de 5638 	ldr.w	r5, [lr, #1592]	; 0x638
  115796:	f3c2 2207 	ubfx	r2, r2, #8, #8
  11579a:	eb03 0181 	add.w	r1, r3, r1, lsl #2
  11579e:	eb03 0282 	add.w	r2, r3, r2, lsl #2
  1157a2:	f8d9 ea38 	ldr.w	lr, [r9, #2616]	; 0xa38
  1157a6:	ea88 0505 	eor.w	r5, r8, r5
  1157aa:	f8d1 8a38 	ldr.w	r8, [r1, #2616]	; 0xa38
  1157ae:	f8d2 1e38 	ldr.w	r1, [r2, #3640]	; 0xe38
  1157b2:	f8d0 2158 	ldr.w	r2, [r0, #344]	; 0x158
  1157b6:	4057      	eors	r7, r2
  1157b8:	f8d0 215c 	ldr.w	r2, [r0, #348]	; 0x15c
  1157bc:	ea87 0708 	eor.w	r7, r7, r8
  1157c0:	4055      	eors	r5, r2
  1157c2:	ea4f 621c 	mov.w	r2, ip, lsr #24
  1157c6:	eb03 0282 	add.w	r2, r3, r2, lsl #2
  1157ca:	4067      	eors	r7, r4
  1157cc:	f8d2 4238 	ldr.w	r4, [r2, #568]	; 0x238
  1157d0:	b2f2      	uxtb	r2, r6
  1157d2:	eb03 0282 	add.w	r2, r3, r2, lsl #2
  1157d6:	f8d2 2638 	ldr.w	r2, [r2, #1592]	; 0x638
  1157da:	ea85 0e0e 	eor.w	lr, r5, lr
  1157de:	4054      	eors	r4, r2
  1157e0:	0e32      	lsrs	r2, r6, #24
  1157e2:	eb03 0282 	add.w	r2, r3, r2, lsl #2
  1157e6:	ea8e 0e01 	eor.w	lr, lr, r1
  1157ea:	f8d2 1238 	ldr.w	r1, [r2, #568]	; 0x238
  1157ee:	b2fa      	uxtb	r2, r7
  1157f0:	eb03 0282 	add.w	r2, r3, r2, lsl #2
  1157f4:	f8d2 2638 	ldr.w	r2, [r2, #1592]	; 0x638
  1157f8:	fa5f f58e 	uxtb.w	r5, lr
  1157fc:	4051      	eors	r1, r2
  1157fe:	0e3a      	lsrs	r2, r7, #24
  115800:	eb03 0282 	add.w	r2, r3, r2, lsl #2
  115804:	eb03 0585 	add.w	r5, r3, r5, lsl #2
  115808:	f8d5 5638 	ldr.w	r5, [r5, #1592]	; 0x638
  11580c:	f8d2 2238 	ldr.w	r2, [r2, #568]	; 0x238
  115810:	fa5f f88c 	uxtb.w	r8, ip
  115814:	406a      	eors	r2, r5
  115816:	ea4f 651e 	mov.w	r5, lr, lsr #24
  11581a:	eb03 0585 	add.w	r5, r3, r5, lsl #2
  11581e:	eb03 0888 	add.w	r8, r3, r8, lsl #2
  115822:	f8d5 9238 	ldr.w	r9, [r5, #568]	; 0x238
  115826:	f8d8 5638 	ldr.w	r5, [r8, #1592]	; 0x638
  11582a:	f3ce 4807 	ubfx	r8, lr, #16, #8
  11582e:	f3ce 2e07 	ubfx	lr, lr, #8, #8
  115832:	eb03 0888 	add.w	r8, r3, r8, lsl #2
  115836:	eb03 0e8e 	add.w	lr, r3, lr, lsl #2
  11583a:	f8d8 ba38 	ldr.w	fp, [r8, #2616]	; 0xa38
  11583e:	f8de 8e38 	ldr.w	r8, [lr, #3640]	; 0xe38
  115842:	f3cc 4e07 	ubfx	lr, ip, #16, #8
  115846:	eb03 0e8e 	add.w	lr, r3, lr, lsl #2
  11584a:	ea89 0505 	eor.w	r5, r9, r5
  11584e:	f8de 9a38 	ldr.w	r9, [lr, #2616]	; 0xa38
  115852:	f3c6 4e07 	ubfx	lr, r6, #16, #8
  115856:	f3c6 2607 	ubfx	r6, r6, #8, #8
  11585a:	eb03 0686 	add.w	r6, r3, r6, lsl #2
  11585e:	f8d6 ae38 	ldr.w	sl, [r6, #3640]	; 0xe38
  115862:	9201      	str	r2, [sp, #4]
  115864:	f3c7 4607 	ubfx	r6, r7, #16, #8
  115868:	f8d0 2160 	ldr.w	r2, [r0, #352]	; 0x160
  11586c:	f3c7 2707 	ubfx	r7, r7, #8, #8
  115870:	eb03 0787 	add.w	r7, r3, r7, lsl #2
  115874:	f8d7 7e38 	ldr.w	r7, [r7, #3640]	; 0xe38
  115878:	4054      	eors	r4, r2
  11587a:	ea84 040b 	eor.w	r4, r4, fp
  11587e:	407c      	eors	r4, r7
  115880:	f8d0 7164 	ldr.w	r7, [r0, #356]	; 0x164
  115884:	9a01      	ldr	r2, [sp, #4]
  115886:	4079      	eors	r1, r7
  115888:	f8d0 7168 	ldr.w	r7, [r0, #360]	; 0x168
  11588c:	eb03 0686 	add.w	r6, r3, r6, lsl #2
  115890:	407a      	eors	r2, r7
  115892:	f8d0 716c 	ldr.w	r7, [r0, #364]	; 0x16c
  115896:	f8d6 6a38 	ldr.w	r6, [r6, #2616]	; 0xa38
  11589a:	407d      	eors	r5, r7
  11589c:	4075      	eors	r5, r6
  11589e:	4656      	mov	r6, sl
  1158a0:	ea81 0109 	eor.w	r1, r1, r9
  1158a4:	4075      	eors	r5, r6
  1158a6:	0e26      	lsrs	r6, r4, #24
  1158a8:	ea81 0108 	eor.w	r1, r1, r8
  1158ac:	eb03 0686 	add.w	r6, r3, r6, lsl #2
  1158b0:	f3cc 2c07 	ubfx	ip, ip, #8, #8
  1158b4:	eb03 0e8e 	add.w	lr, r3, lr, lsl #2
  1158b8:	f8de ea38 	ldr.w	lr, [lr, #2616]	; 0xa38
  1158bc:	f8d6 7238 	ldr.w	r7, [r6, #568]	; 0x238
  1158c0:	eb03 0c8c 	add.w	ip, r3, ip, lsl #2
  1158c4:	b2ce      	uxtb	r6, r1
  1158c6:	f8dc ce38 	ldr.w	ip, [ip, #3640]	; 0xe38
  1158ca:	eb03 0686 	add.w	r6, r3, r6, lsl #2
  1158ce:	f8d6 6638 	ldr.w	r6, [r6, #1592]	; 0x638
  1158d2:	ea82 020e 	eor.w	r2, r2, lr
  1158d6:	ea82 020c 	eor.w	r2, r2, ip
  1158da:	4077      	eors	r7, r6
  1158dc:	fa5f fc82 	uxtb.w	ip, r2
  1158e0:	0e0e      	lsrs	r6, r1, #24
  1158e2:	eb03 0686 	add.w	r6, r3, r6, lsl #2
  1158e6:	eb03 0c8c 	add.w	ip, r3, ip, lsl #2
  1158ea:	f8d6 e238 	ldr.w	lr, [r6, #568]	; 0x238
  1158ee:	f8dc 6638 	ldr.w	r6, [ip, #1592]	; 0x638
  1158f2:	ea4f 6c12 	mov.w	ip, r2, lsr #24
  1158f6:	eb03 0c8c 	add.w	ip, r3, ip, lsl #2
  1158fa:	ea8e 0606 	eor.w	r6, lr, r6
  1158fe:	f8dc e238 	ldr.w	lr, [ip, #568]	; 0x238
  115902:	fa5f fc85 	uxtb.w	ip, r5
  115906:	eb03 0c8c 	add.w	ip, r3, ip, lsl #2
  11590a:	f8dc c638 	ldr.w	ip, [ip, #1592]	; 0x638
  11590e:	fa5f f884 	uxtb.w	r8, r4
  115912:	ea8e 0e0c 	eor.w	lr, lr, ip
  115916:	ea4f 6c15 	mov.w	ip, r5, lsr #24
  11591a:	eb03 0c8c 	add.w	ip, r3, ip, lsl #2
  11591e:	eb03 0888 	add.w	r8, r3, r8, lsl #2
  115922:	f8d8 8638 	ldr.w	r8, [r8, #1592]	; 0x638
  115926:	f8dc c238 	ldr.w	ip, [ip, #568]	; 0x238
  11592a:	f3c1 4b07 	ubfx	fp, r1, #16, #8
  11592e:	ea8c 0c08 	eor.w	ip, ip, r8
  115932:	f3c1 2a07 	ubfx	sl, r1, #8, #8
  115936:	f3c5 4807 	ubfx	r8, r5, #16, #8
  11593a:	eb03 0888 	add.w	r8, r3, r8, lsl #2
  11593e:	eb03 0b8b 	add.w	fp, r3, fp, lsl #2
  115942:	eb03 0a8a 	add.w	sl, r3, sl, lsl #2
  115946:	f8d8 9a38 	ldr.w	r9, [r8, #2616]	; 0xa38
  11594a:	f8db 1a38 	ldr.w	r1, [fp, #2616]	; 0xa38
  11594e:	f8da be38 	ldr.w	fp, [sl, #3640]	; 0xe38
  115952:	f3c2 4a07 	ubfx	sl, r2, #16, #8
  115956:	f3c2 2207 	ubfx	r2, r2, #8, #8
  11595a:	eb03 0282 	add.w	r2, r3, r2, lsl #2
  11595e:	f8d2 2e38 	ldr.w	r2, [r2, #3640]	; 0xe38
  115962:	f3c4 4807 	ubfx	r8, r4, #16, #8
  115966:	9201      	str	r2, [sp, #4]
  115968:	f8d0 2170 	ldr.w	r2, [r0, #368]	; 0x170
  11596c:	f3c4 2407 	ubfx	r4, r4, #8, #8
  115970:	4057      	eors	r7, r2
  115972:	9a01      	ldr	r2, [sp, #4]
  115974:	ea87 0709 	eor.w	r7, r7, r9
  115978:	ea87 0902 	eor.w	r9, r7, r2
  11597c:	f8d0 2174 	ldr.w	r2, [r0, #372]	; 0x174
  115980:	eb03 0484 	add.w	r4, r3, r4, lsl #2
  115984:	4056      	eors	r6, r2
  115986:	f8d0 2178 	ldr.w	r2, [r0, #376]	; 0x178
  11598a:	f8d4 4e38 	ldr.w	r4, [r4, #3640]	; 0xe38
  11598e:	ea8e 0e02 	eor.w	lr, lr, r2
  115992:	ea8e 0101 	eor.w	r1, lr, r1
  115996:	4061      	eors	r1, r4
  115998:	465c      	mov	r4, fp
  11599a:	f8d0 217c 	ldr.w	r2, [r0, #380]	; 0x17c
  11599e:	eb03 0a8a 	add.w	sl, r3, sl, lsl #2
  1159a2:	f8da aa38 	ldr.w	sl, [sl, #2616]	; 0xa38
  1159a6:	f3c5 2507 	ubfx	r5, r5, #8, #8
  1159aa:	eb03 0888 	add.w	r8, r3, r8, lsl #2
  1159ae:	f8d8 8a38 	ldr.w	r8, [r8, #2616]	; 0xa38
  1159b2:	ea8c 0202 	eor.w	r2, ip, r2
  1159b6:	eb03 0585 	add.w	r5, r3, r5, lsl #2
  1159ba:	f8d5 5e38 	ldr.w	r5, [r5, #3640]	; 0xe38
  1159be:	ea82 020a 	eor.w	r2, r2, sl
  1159c2:	4062      	eors	r2, r4
  1159c4:	ea86 0608 	eor.w	r6, r6, r8
  1159c8:	ea4f 6419 	mov.w	r4, r9, lsr #24
  1159cc:	406e      	eors	r6, r5
  1159ce:	eb03 0484 	add.w	r4, r3, r4, lsl #2
  1159d2:	f8d4 5238 	ldr.w	r5, [r4, #568]	; 0x238
  1159d6:	b2f4      	uxtb	r4, r6
  1159d8:	eb03 0484 	add.w	r4, r3, r4, lsl #2
  1159dc:	f8d4 4638 	ldr.w	r4, [r4, #1592]	; 0x638
  1159e0:	ea85 0804 	eor.w	r8, r5, r4
  1159e4:	f3c2 4407 	ubfx	r4, r2, #16, #8
  1159e8:	eb03 0484 	add.w	r4, r3, r4, lsl #2
  1159ec:	f8d4 ea38 	ldr.w	lr, [r4, #2616]	; 0xa38
  1159f0:	f3c1 2407 	ubfx	r4, r1, #8, #8
  1159f4:	eb03 0484 	add.w	r4, r3, r4, lsl #2
  1159f8:	f8d4 ce38 	ldr.w	ip, [r4, #3640]	; 0xe38
  1159fc:	b2cd      	uxtb	r5, r1
  1159fe:	0e34      	lsrs	r4, r6, #24
  115a00:	eb03 0484 	add.w	r4, r3, r4, lsl #2
  115a04:	eb03 0585 	add.w	r5, r3, r5, lsl #2
  115a08:	f8d5 5638 	ldr.w	r5, [r5, #1592]	; 0x638
  115a0c:	f8d4 4238 	ldr.w	r4, [r4, #568]	; 0x238
  115a10:	406c      	eors	r4, r5
  115a12:	f3c9 4507 	ubfx	r5, r9, #16, #8
  115a16:	eb03 0585 	add.w	r5, r3, r5, lsl #2
  115a1a:	f8d5 ba38 	ldr.w	fp, [r5, #2616]	; 0xa38
  115a1e:	f3c2 2507 	ubfx	r5, r2, #8, #8
  115a22:	eb03 0585 	add.w	r5, r3, r5, lsl #2
  115a26:	f8d5 5e38 	ldr.w	r5, [r5, #3640]	; 0xe38
  115a2a:	9501      	str	r5, [sp, #4]
  115a2c:	0e0d      	lsrs	r5, r1, #24
  115a2e:	f3c1 4107 	ubfx	r1, r1, #16, #8
  115a32:	eb03 0a81 	add.w	sl, r3, r1, lsl #2
  115a36:	b2d1      	uxtb	r1, r2
  115a38:	eb03 0585 	add.w	r5, r3, r5, lsl #2
  115a3c:	eb03 0181 	add.w	r1, r3, r1, lsl #2
  115a40:	f8d5 7238 	ldr.w	r7, [r5, #568]	; 0x238
  115a44:	f8d1 1638 	ldr.w	r1, [r1, #1592]	; 0x638
  115a48:	fa5f f589 	uxtb.w	r5, r9
  115a4c:	404f      	eors	r7, r1
  115a4e:	f8d0 1180 	ldr.w	r1, [r0, #384]	; 0x180
  115a52:	0e12      	lsrs	r2, r2, #24
  115a54:	ea88 0801 	eor.w	r8, r8, r1
  115a58:	f8d0 1184 	ldr.w	r1, [r0, #388]	; 0x184
  115a5c:	ea88 080e 	eor.w	r8, r8, lr
  115a60:	ea84 0e01 	eor.w	lr, r4, r1
  115a64:	9901      	ldr	r1, [sp, #4]
  115a66:	ea8e 0e0b 	eor.w	lr, lr, fp
  115a6a:	ea8e 0e01 	eor.w	lr, lr, r1
  115a6e:	f8d0 1188 	ldr.w	r1, [r0, #392]	; 0x188
  115a72:	eb03 0585 	add.w	r5, r3, r5, lsl #2
  115a76:	eb03 0282 	add.w	r2, r3, r2, lsl #2
  115a7a:	f8d2 2238 	ldr.w	r2, [r2, #568]	; 0x238
  115a7e:	404f      	eors	r7, r1
  115a80:	f8d5 1638 	ldr.w	r1, [r5, #1592]	; 0x638
  115a84:	f3c9 2907 	ubfx	r9, r9, #8, #8
  115a88:	404a      	eors	r2, r1
  115a8a:	f3c6 4107 	ubfx	r1, r6, #16, #8
  115a8e:	eb03 0989 	add.w	r9, r3, r9, lsl #2
  115a92:	eb03 0181 	add.w	r1, r3, r1, lsl #2
  115a96:	f8da 4a38 	ldr.w	r4, [sl, #2616]	; 0xa38
  115a9a:	f8d9 5e38 	ldr.w	r5, [r9, #3640]	; 0xe38
  115a9e:	f8d1 1a38 	ldr.w	r1, [r1, #2616]	; 0xa38
  115aa2:	f3c6 2607 	ubfx	r6, r6, #8, #8
  115aa6:	404f      	eors	r7, r1
  115aa8:	f8d0 118c 	ldr.w	r1, [r0, #396]	; 0x18c
  115aac:	ea88 0c0c 	eor.w	ip, r8, ip
  115ab0:	eb03 0686 	add.w	r6, r3, r6, lsl #2
  115ab4:	406f      	eors	r7, r5
  115ab6:	f8d6 5e38 	ldr.w	r5, [r6, #3640]	; 0xe38
  115aba:	ea82 0601 	eor.w	r6, r2, r1
  115abe:	ea4f 621c 	mov.w	r2, ip, lsr #24
  115ac2:	fa5f f18e 	uxtb.w	r1, lr
  115ac6:	eb03 0282 	add.w	r2, r3, r2, lsl #2
  115aca:	eb03 0181 	add.w	r1, r3, r1, lsl #2
  115ace:	f8d1 1638 	ldr.w	r1, [r1, #1592]	; 0x638
  115ad2:	f8d2 2238 	ldr.w	r2, [r2, #568]	; 0x238
  115ad6:	4066      	eors	r6, r4
  115ad8:	404a      	eors	r2, r1
  115ada:	ea4f 611e 	mov.w	r1, lr, lsr #24
  115ade:	eb03 0181 	add.w	r1, r3, r1, lsl #2
  115ae2:	406e      	eors	r6, r5
  115ae4:	f8d1 5238 	ldr.w	r5, [r1, #568]	; 0x238
  115ae8:	b2f9      	uxtb	r1, r7
  115aea:	eb03 0181 	add.w	r1, r3, r1, lsl #2
  115aee:	f8d1 1638 	ldr.w	r1, [r1, #1592]	; 0x638
  115af2:	fa5f f88c 	uxtb.w	r8, ip
  115af6:	404d      	eors	r5, r1
  115af8:	0e39      	lsrs	r1, r7, #24
  115afa:	eb03 0181 	add.w	r1, r3, r1, lsl #2
  115afe:	f8d1 4238 	ldr.w	r4, [r1, #568]	; 0x238
  115b02:	b2f1      	uxtb	r1, r6
  115b04:	eb03 0181 	add.w	r1, r3, r1, lsl #2
  115b08:	f8d1 1638 	ldr.w	r1, [r1, #1592]	; 0x638
  115b0c:	eb03 0888 	add.w	r8, r3, r8, lsl #2
  115b10:	404c      	eors	r4, r1
  115b12:	0e31      	lsrs	r1, r6, #24
  115b14:	eb03 0181 	add.w	r1, r3, r1, lsl #2
  115b18:	f8d1 9238 	ldr.w	r9, [r1, #568]	; 0x238
  115b1c:	f8d8 1638 	ldr.w	r1, [r8, #1592]	; 0x638
  115b20:	f3c6 4807 	ubfx	r8, r6, #16, #8
  115b24:	f3c6 2607 	ubfx	r6, r6, #8, #8
  115b28:	eb03 0888 	add.w	r8, r3, r8, lsl #2
  115b2c:	eb03 0686 	add.w	r6, r3, r6, lsl #2
  115b30:	f8d8 ba38 	ldr.w	fp, [r8, #2616]	; 0xa38
  115b34:	f8d6 8e38 	ldr.w	r8, [r6, #3640]	; 0xe38
  115b38:	f3cc 4607 	ubfx	r6, ip, #16, #8
  115b3c:	eb03 0686 	add.w	r6, r3, r6, lsl #2
  115b40:	ea89 0101 	eor.w	r1, r9, r1
  115b44:	f3ce 4a07 	ubfx	sl, lr, #16, #8
  115b48:	f8d6 9a38 	ldr.w	r9, [r6, #2616]	; 0xa38
  115b4c:	f3ce 2607 	ubfx	r6, lr, #8, #8
  115b50:	eb03 0a8a 	add.w	sl, r3, sl, lsl #2
  115b54:	eb03 0686 	add.w	r6, r3, r6, lsl #2
  115b58:	f8da ea38 	ldr.w	lr, [sl, #2616]	; 0xa38
  115b5c:	9101      	str	r1, [sp, #4]
  115b5e:	f8d6 ae38 	ldr.w	sl, [r6, #3640]	; 0xe38
  115b62:	f8d0 1190 	ldr.w	r1, [r0, #400]	; 0x190
  115b66:	f3c7 4607 	ubfx	r6, r7, #16, #8
  115b6a:	f3c7 2707 	ubfx	r7, r7, #8, #8
  115b6e:	eb03 0787 	add.w	r7, r3, r7, lsl #2
  115b72:	f8d7 7e38 	ldr.w	r7, [r7, #3640]	; 0xe38
  115b76:	404a      	eors	r2, r1
  115b78:	ea82 020b 	eor.w	r2, r2, fp
  115b7c:	407a      	eors	r2, r7
  115b7e:	f8d0 7194 	ldr.w	r7, [r0, #404]	; 0x194
  115b82:	f3cc 2c07 	ubfx	ip, ip, #8, #8
  115b86:	407d      	eors	r5, r7
  115b88:	f8d0 7198 	ldr.w	r7, [r0, #408]	; 0x198
  115b8c:	eb03 0c8c 	add.w	ip, r3, ip, lsl #2
  115b90:	407c      	eors	r4, r7
  115b92:	f8dc ce38 	ldr.w	ip, [ip, #3640]	; 0xe38
  115b96:	ea84 040e 	eor.w	r4, r4, lr
  115b9a:	ea84 0c0c 	eor.w	ip, r4, ip
  115b9e:	4654      	mov	r4, sl
  115ba0:	f8d0 719c 	ldr.w	r7, [r0, #412]	; 0x19c
  115ba4:	9901      	ldr	r1, [sp, #4]
  115ba6:	eb03 0686 	add.w	r6, r3, r6, lsl #2
  115baa:	f8d6 6a38 	ldr.w	r6, [r6, #2616]	; 0xa38
  115bae:	4079      	eors	r1, r7
  115bb0:	f8d0 7200 	ldr.w	r7, [r0, #512]	; 0x200
  115bb4:	ea85 0509 	eor.w	r5, r5, r9
  115bb8:	4071      	eors	r1, r6
  115bba:	2f0a      	cmp	r7, #10
  115bbc:	ea85 0508 	eor.w	r5, r5, r8
  115bc0:	ea81 0104 	eor.w	r1, r1, r4
  115bc4:	9708      	str	r7, [sp, #32]
  115bc6:	e9d0 6468 	ldrd	r6, r4, [r0, #416]	; 0x1a0
  115bca:	e9d0 986a 	ldrd	r9, r8, [r0, #424]	; 0x1a8
  115bce:	f300 80b9 	bgt.w	115d44 <aes_decrypt+0xab4>
  115bd2:	f500 70c8 	add.w	r0, r0, #400	; 0x190
  115bd6:	0e13      	lsrs	r3, r2, #24
  115bd8:	9302      	str	r3, [sp, #8]
  115bda:	ea4f 231c 	mov.w	r3, ip, lsr #8
  115bde:	9306      	str	r3, [sp, #24]
  115be0:	0e2b      	lsrs	r3, r5, #24
  115be2:	9303      	str	r3, [sp, #12]
  115be4:	fa5f f38c 	uxtb.w	r3, ip
  115be8:	9301      	str	r3, [sp, #4]
  115bea:	ea4f 631c 	mov.w	r3, ip, lsr #24
  115bee:	9304      	str	r3, [sp, #16]
  115bf0:	0a13      	lsrs	r3, r2, #8
  115bf2:	ea4f 4e11 	mov.w	lr, r1, lsr #16
  115bf6:	0c17      	lsrs	r7, r2, #16
  115bf8:	ea4f 2b11 	mov.w	fp, r1, lsr #8
  115bfc:	b2ce      	uxtb	r6, r1
  115bfe:	ea4f 6a11 	mov.w	sl, r1, lsr #24
  115c02:	fa5f f885 	uxtb.w	r8, r5
  115c06:	ea4f 441c 	mov.w	r4, ip, lsr #16
  115c0a:	ea4f 4915 	mov.w	r9, r5, lsr #16
  115c0e:	0a29      	lsrs	r1, r5, #8
  115c10:	9305      	str	r3, [sp, #20]
  115c12:	b2d2      	uxtb	r2, r2
  115c14:	f89d 3014 	ldrb.w	r3, [sp, #20]
  115c18:	fa5f f589 	uxtb.w	r5, r9
  115c1c:	9308      	str	r3, [sp, #32]
  115c1e:	4b48      	ldr	r3, [pc, #288]	; (115d40 <aes_decrypt+0xab0>)
  115c20:	fa5f f981 	uxtb.w	r9, r1
  115c24:	eb03 0282 	add.w	r2, r3, r2, lsl #2
  115c28:	f8d2 2140 	ldr.w	r2, [r2, #320]	; 0x140
  115c2c:	eb03 0888 	add.w	r8, r3, r8, lsl #2
  115c30:	f8d8 8140 	ldr.w	r8, [r8, #320]	; 0x140
  115c34:	9209      	str	r2, [sp, #36]	; 0x24
  115c36:	9a02      	ldr	r2, [sp, #8]
  115c38:	9901      	ldr	r1, [sp, #4]
  115c3a:	eb03 0686 	add.w	r6, r3, r6, lsl #2
  115c3e:	f8cd 8004 	str.w	r8, [sp, #4]
  115c42:	f8d6 6140 	ldr.w	r6, [r6, #320]	; 0x140
  115c46:	eb03 0882 	add.w	r8, r3, r2, lsl #2
  115c4a:	9a03      	ldr	r2, [sp, #12]
  115c4c:	eb03 0181 	add.w	r1, r3, r1, lsl #2
  115c50:	f89d c018 	ldrb.w	ip, [sp, #24]
  115c54:	f8d1 1140 	ldr.w	r1, [r1, #320]	; 0x140
  115c58:	9606      	str	r6, [sp, #24]
  115c5a:	eb03 0682 	add.w	r6, r3, r2, lsl #2
  115c5e:	9a04      	ldr	r2, [sp, #16]
  115c60:	fa5f fe8e 	uxtb.w	lr, lr
  115c64:	9105      	str	r1, [sp, #20]
  115c66:	b2e4      	uxtb	r4, r4
  115c68:	eb03 0182 	add.w	r1, r3, r2, lsl #2
  115c6c:	eb03 0e8e 	add.w	lr, r3, lr, lsl #2
  115c70:	eb03 028a 	add.w	r2, r3, sl, lsl #2
  115c74:	f8de e140 	ldr.w	lr, [lr, #320]	; 0x140
  115c78:	f8d8 a140 	ldr.w	sl, [r8, #320]	; 0x140
  115c7c:	b2ff      	uxtb	r7, r7
  115c7e:	f8d6 8140 	ldr.w	r8, [r6, #320]	; 0x140
  115c82:	f8d1 6140 	ldr.w	r6, [r1, #320]	; 0x140
  115c86:	f8d2 1140 	ldr.w	r1, [r2, #320]	; 0x140
  115c8a:	eb03 0284 	add.w	r2, r3, r4, lsl #2
  115c8e:	9c08      	ldr	r4, [sp, #32]
  115c90:	eb03 0787 	add.w	r7, r3, r7, lsl #2
  115c94:	fa5f fb8b 	uxtb.w	fp, fp
  115c98:	f8cd e008 	str.w	lr, [sp, #8]
  115c9c:	eb03 0c8c 	add.w	ip, r3, ip, lsl #2
  115ca0:	f8d7 e140 	ldr.w	lr, [r7, #320]	; 0x140
  115ca4:	eb03 0585 	add.w	r5, r3, r5, lsl #2
  115ca8:	eb03 078b 	add.w	r7, r3, fp, lsl #2
  115cac:	eb03 0484 	add.w	r4, r3, r4, lsl #2
  115cb0:	eb03 0389 	add.w	r3, r3, r9, lsl #2
  115cb4:	f8d3 3140 	ldr.w	r3, [r3, #320]	; 0x140
  115cb8:	f8dc b140 	ldr.w	fp, [ip, #320]	; 0x140
  115cbc:	9303      	str	r3, [sp, #12]
  115cbe:	f8d7 c140 	ldr.w	ip, [r7, #320]	; 0x140
  115cc2:	9b01      	ldr	r3, [sp, #4]
  115cc4:	6907      	ldr	r7, [r0, #16]
  115cc6:	f8d5 5140 	ldr.w	r5, [r5, #320]	; 0x140
  115cca:	f8d2 2140 	ldr.w	r2, [r2, #320]	; 0x140
  115cce:	f8d4 4140 	ldr.w	r4, [r4, #320]	; 0x140
  115cd2:	405f      	eors	r7, r3
  115cd4:	f8dd 9008 	ldr.w	r9, [sp, #8]
  115cd8:	ea87 670a 	eor.w	r7, r7, sl, lsl #24
  115cdc:	ea87 4709 	eor.w	r7, r7, r9, lsl #16
  115ce0:	ea87 270b 	eor.w	r7, r7, fp, lsl #8
  115ce4:	9b05      	ldr	r3, [sp, #20]
  115ce6:	fa97 f987 	rev.w	r9, r7
  115cea:	6947      	ldr	r7, [r0, #20]
  115cec:	405f      	eors	r7, r3
  115cee:	ea87 6708 	eor.w	r7, r7, r8, lsl #24
  115cf2:	ea87 470e 	eor.w	r7, r7, lr, lsl #16
  115cf6:	9b09      	ldr	r3, [sp, #36]	; 0x24
  115cf8:	f8d0 e018 	ldr.w	lr, [r0, #24]
  115cfc:	ea87 270c 	eor.w	r7, r7, ip, lsl #8
  115d00:	69c0      	ldr	r0, [r0, #28]
  115d02:	f8dd c018 	ldr.w	ip, [sp, #24]
  115d06:	4058      	eors	r0, r3
  115d08:	ea8c 0c0e 	eor.w	ip, ip, lr
  115d0c:	9b03      	ldr	r3, [sp, #12]
  115d0e:	ea8c 6606 	eor.w	r6, ip, r6, lsl #24
  115d12:	ea80 6101 	eor.w	r1, r0, r1, lsl #24
  115d16:	ea86 4505 	eor.w	r5, r6, r5, lsl #16
  115d1a:	ea81 4202 	eor.w	r2, r1, r2, lsl #16
  115d1e:	ea85 2404 	eor.w	r4, r5, r4, lsl #8
  115d22:	ea82 2303 	eor.w	r3, r2, r3, lsl #8
  115d26:	9d07      	ldr	r5, [sp, #28]
  115d28:	ba3f      	rev	r7, r7
  115d2a:	ba22      	rev	r2, r4
  115d2c:	ba1b      	rev	r3, r3
  115d2e:	f8c5 9000 	str.w	r9, [r5]
  115d32:	606f      	str	r7, [r5, #4]
  115d34:	60aa      	str	r2, [r5, #8]
  115d36:	60eb      	str	r3, [r5, #12]
  115d38:	b015      	add	sp, #84	; 0x54
  115d3a:	e8bd 8ff0 	ldmia.w	sp!, {r4, r5, r6, r7, r8, r9, sl, fp, pc}
  115d3e:	bf00      	nop
  115d40:	0013c1bc 	.word	0x0013c1bc
  115d44:	0e17      	lsrs	r7, r2, #24
  115d46:	fa5f fe85 	uxtb.w	lr, r5
  115d4a:	eb03 0787 	add.w	r7, r3, r7, lsl #2
  115d4e:	eb03 0e8e 	add.w	lr, r3, lr, lsl #2
  115d52:	f8de e638 	ldr.w	lr, [lr, #1592]	; 0x638
  115d56:	f8d7 7238 	ldr.w	r7, [r7, #568]	; 0x238
  115d5a:	ea87 070e 	eor.w	r7, r7, lr
  115d5e:	4077      	eors	r7, r6
  115d60:	fa5f fe8c 	uxtb.w	lr, ip
  115d64:	0e2e      	lsrs	r6, r5, #24
  115d66:	eb03 0686 	add.w	r6, r3, r6, lsl #2
  115d6a:	eb03 0e8e 	add.w	lr, r3, lr, lsl #2
  115d6e:	f8de e638 	ldr.w	lr, [lr, #1592]	; 0x638
  115d72:	f8d6 6238 	ldr.w	r6, [r6, #568]	; 0x238
  115d76:	ea86 060e 	eor.w	r6, r6, lr
  115d7a:	4066      	eors	r6, r4
  115d7c:	fa5f fe81 	uxtb.w	lr, r1
  115d80:	ea4f 641c 	mov.w	r4, ip, lsr #24
  115d84:	eb03 0484 	add.w	r4, r3, r4, lsl #2
  115d88:	eb03 0e8e 	add.w	lr, r3, lr, lsl #2
  115d8c:	f8d4 4238 	ldr.w	r4, [r4, #568]	; 0x238
  115d90:	f8de e638 	ldr.w	lr, [lr, #1592]	; 0x638
  115d94:	ea84 0e0e 	eor.w	lr, r4, lr
  115d98:	ea8e 0e09 	eor.w	lr, lr, r9
  115d9c:	0e0c      	lsrs	r4, r1, #24
  115d9e:	fa5f f982 	uxtb.w	r9, r2
  115da2:	eb03 0484 	add.w	r4, r3, r4, lsl #2
  115da6:	eb03 0989 	add.w	r9, r3, r9, lsl #2
  115daa:	f8d9 9638 	ldr.w	r9, [r9, #1592]	; 0x638
  115dae:	f8d4 4238 	ldr.w	r4, [r4, #568]	; 0x238
  115db2:	ea84 0409 	eor.w	r4, r4, r9
  115db6:	ea84 0408 	eor.w	r4, r4, r8
  115dba:	f3c1 4807 	ubfx	r8, r1, #16, #8
  115dbe:	eb03 0888 	add.w	r8, r3, r8, lsl #2
  115dc2:	f8d8 8a38 	ldr.w	r8, [r8, #2616]	; 0xa38
  115dc6:	f3c1 2107 	ubfx	r1, r1, #8, #8
  115dca:	ea87 0708 	eor.w	r7, r7, r8
  115dce:	f3c2 4807 	ubfx	r8, r2, #16, #8
  115dd2:	eb03 0888 	add.w	r8, r3, r8, lsl #2
  115dd6:	f8d8 8a38 	ldr.w	r8, [r8, #2616]	; 0xa38
  115dda:	eb03 0181 	add.w	r1, r3, r1, lsl #2
  115dde:	f8d1 1e38 	ldr.w	r1, [r1, #3640]	; 0xe38
  115de2:	f3c2 2207 	ubfx	r2, r2, #8, #8
  115de6:	ea86 0608 	eor.w	r6, r6, r8
  115dea:	eb03 0282 	add.w	r2, r3, r2, lsl #2
  115dee:	404e      	eors	r6, r1
  115df0:	f8d2 1e38 	ldr.w	r1, [r2, #3640]	; 0xe38
  115df4:	f3c5 4207 	ubfx	r2, r5, #16, #8
  115df8:	eb03 0282 	add.w	r2, r3, r2, lsl #2
  115dfc:	f8d2 2a38 	ldr.w	r2, [r2, #2616]	; 0xa38
  115e00:	f3c5 2507 	ubfx	r5, r5, #8, #8
  115e04:	ea8e 0e02 	eor.w	lr, lr, r2
  115e08:	f3cc 4207 	ubfx	r2, ip, #16, #8
  115e0c:	f3cc 2c07 	ubfx	ip, ip, #8, #8
  115e10:	eb03 0282 	add.w	r2, r3, r2, lsl #2
  115e14:	eb03 0c8c 	add.w	ip, r3, ip, lsl #2
  115e18:	ea8e 0e01 	eor.w	lr, lr, r1
  115e1c:	f8d2 1a38 	ldr.w	r1, [r2, #2616]	; 0xa38
  115e20:	f8dc 2e38 	ldr.w	r2, [ip, #3640]	; 0xe38
  115e24:	4061      	eors	r1, r4
  115e26:	4057      	eors	r7, r2
  115e28:	0e3a      	lsrs	r2, r7, #24
  115e2a:	b2f4      	uxtb	r4, r6
  115e2c:	eb03 0585 	add.w	r5, r3, r5, lsl #2
  115e30:	f8d5 5e38 	ldr.w	r5, [r5, #3640]	; 0xe38
  115e34:	eb03 0282 	add.w	r2, r3, r2, lsl #2
  115e38:	eb03 0484 	add.w	r4, r3, r4, lsl #2
  115e3c:	f8d4 4638 	ldr.w	r4, [r4, #1592]	; 0x638
  115e40:	f8d2 2238 	ldr.w	r2, [r2, #568]	; 0x238
  115e44:	4069      	eors	r1, r5
  115e46:	4062      	eors	r2, r4
  115e48:	f3c1 4407 	ubfx	r4, r1, #16, #8
  115e4c:	eb03 0484 	add.w	r4, r3, r4, lsl #2
  115e50:	f8d4 aa38 	ldr.w	sl, [r4, #2616]	; 0xa38
  115e54:	f3ce 2407 	ubfx	r4, lr, #8, #8
  115e58:	eb03 0484 	add.w	r4, r3, r4, lsl #2
  115e5c:	f8d4 4e38 	ldr.w	r4, [r4, #3640]	; 0xe38
  115e60:	9401      	str	r4, [sp, #4]
  115e62:	0e34      	lsrs	r4, r6, #24
  115e64:	eb03 0484 	add.w	r4, r3, r4, lsl #2
  115e68:	f8d4 5238 	ldr.w	r5, [r4, #568]	; 0x238
  115e6c:	fa5f f48e 	uxtb.w	r4, lr
  115e70:	eb03 0484 	add.w	r4, r3, r4, lsl #2
  115e74:	f8d4 4638 	ldr.w	r4, [r4, #1592]	; 0x638
  115e78:	ea85 0b04 	eor.w	fp, r5, r4
  115e7c:	f3c7 4407 	ubfx	r4, r7, #16, #8
  115e80:	eb03 0484 	add.w	r4, r3, r4, lsl #2
  115e84:	f8d4 5a38 	ldr.w	r5, [r4, #2616]	; 0xa38
  115e88:	f3c1 2407 	ubfx	r4, r1, #8, #8
  115e8c:	eb03 0484 	add.w	r4, r3, r4, lsl #2
  115e90:	9502      	str	r5, [sp, #8]
  115e92:	f8d4 5e38 	ldr.w	r5, [r4, #3640]	; 0xe38
  115e96:	ea4f 641e 	mov.w	r4, lr, lsr #24
  115e9a:	eb03 0484 	add.w	r4, r3, r4, lsl #2
  115e9e:	f8d4 c238 	ldr.w	ip, [r4, #568]	; 0x238
  115ea2:	b2cc      	uxtb	r4, r1
  115ea4:	eb03 0484 	add.w	r4, r3, r4, lsl #2
  115ea8:	f8d4 4638 	ldr.w	r4, [r4, #1592]	; 0x638
  115eac:	0e09      	lsrs	r1, r1, #24
  115eae:	ea8c 0c04 	eor.w	ip, ip, r4
  115eb2:	f3c6 4407 	ubfx	r4, r6, #16, #8
  115eb6:	eb03 0484 	add.w	r4, r3, r4, lsl #2
  115eba:	eb03 0181 	add.w	r1, r3, r1, lsl #2
  115ebe:	f8d4 8a38 	ldr.w	r8, [r4, #2616]	; 0xa38
  115ec2:	f8d1 1238 	ldr.w	r1, [r1, #568]	; 0x238
  115ec6:	f3c7 2407 	ubfx	r4, r7, #8, #8
  115eca:	eb03 0484 	add.w	r4, r3, r4, lsl #2
  115ece:	f8d4 4e38 	ldr.w	r4, [r4, #3640]	; 0xe38
  115ed2:	9103      	str	r1, [sp, #12]
  115ed4:	f8d0 11b0 	ldr.w	r1, [r0, #432]	; 0x1b0
  115ed8:	f3ce 4e07 	ubfx	lr, lr, #16, #8
  115edc:	404a      	eors	r2, r1
  115ede:	9901      	ldr	r1, [sp, #4]
  115ee0:	eb03 098e 	add.w	r9, r3, lr, lsl #2
  115ee4:	ea82 020a 	eor.w	r2, r2, sl
  115ee8:	f8d0 e1b4 	ldr.w	lr, [r0, #436]	; 0x1b4
  115eec:	404a      	eors	r2, r1
  115eee:	9902      	ldr	r1, [sp, #8]
  115ef0:	ea8b 0b0e 	eor.w	fp, fp, lr
  115ef4:	ea8b 0b01 	eor.w	fp, fp, r1
  115ef8:	f8d0 11b8 	ldr.w	r1, [r0, #440]	; 0x1b8
  115efc:	b2ff      	uxtb	r7, r7
  115efe:	ea8c 0c01 	eor.w	ip, ip, r1
  115f02:	eb03 0787 	add.w	r7, r3, r7, lsl #2
  115f06:	ea8c 0c08 	eor.w	ip, ip, r8
  115f0a:	ea8c 0c04 	eor.w	ip, ip, r4
  115f0e:	9903      	ldr	r1, [sp, #12]
  115f10:	f8d7 4638 	ldr.w	r4, [r7, #1592]	; 0x638
  115f14:	f3c6 2607 	ubfx	r6, r6, #8, #8
  115f18:	4061      	eors	r1, r4
  115f1a:	f8d0 41bc 	ldr.w	r4, [r0, #444]	; 0x1bc
  115f1e:	f8d9 7a38 	ldr.w	r7, [r9, #2616]	; 0xa38
  115f22:	4061      	eors	r1, r4
  115f24:	f8d0 41c0 	ldr.w	r4, [r0, #448]	; 0x1c0
  115f28:	eb03 0686 	add.w	r6, r3, r6, lsl #2
  115f2c:	9409      	str	r4, [sp, #36]	; 0x24
  115f2e:	f8d0 41c4 	ldr.w	r4, [r0, #452]	; 0x1c4
  115f32:	f8d6 6e38 	ldr.w	r6, [r6, #3640]	; 0xe38
  115f36:	940c      	str	r4, [sp, #48]	; 0x30
  115f38:	f8d0 41c8 	ldr.w	r4, [r0, #456]	; 0x1c8
  115f3c:	4079      	eors	r1, r7
  115f3e:	940f      	str	r4, [sp, #60]	; 0x3c
  115f40:	f8d0 41cc 	ldr.w	r4, [r0, #460]	; 0x1cc
  115f44:	4071      	eors	r1, r6
  115f46:	9412      	str	r4, [sp, #72]	; 0x48
  115f48:	0e14      	lsrs	r4, r2, #24
  115f4a:	9402      	str	r4, [sp, #8]
  115f4c:	f3c1 4407 	ubfx	r4, r1, #16, #8
  115f50:	940a      	str	r4, [sp, #40]	; 0x28
  115f52:	ea4f 241c 	mov.w	r4, ip, lsr #8
  115f56:	ea8b 0505 	eor.w	r5, fp, r5
  115f5a:	9406      	str	r4, [sp, #24]
  115f5c:	f3cc 2407 	ubfx	r4, ip, #8, #8
  115f60:	940b      	str	r4, [sp, #44]	; 0x2c
  115f62:	0e2c      	lsrs	r4, r5, #24
  115f64:	9403      	str	r4, [sp, #12]
  115f66:	f3c2 4407 	ubfx	r4, r2, #16, #8
  115f6a:	940d      	str	r4, [sp, #52]	; 0x34
  115f6c:	f3c1 2407 	ubfx	r4, r1, #8, #8
  115f70:	940e      	str	r4, [sp, #56]	; 0x38
  115f72:	fa5f f48c 	uxtb.w	r4, ip
  115f76:	9401      	str	r4, [sp, #4]
  115f78:	ea4f 641c 	mov.w	r4, ip, lsr #24
  115f7c:	ea4f 4e11 	mov.w	lr, r1, lsr #16
  115f80:	fa5f f885 	uxtb.w	r8, r5
  115f84:	ea4f 2b11 	mov.w	fp, r1, lsr #8
  115f88:	9404      	str	r4, [sp, #16]
  115f8a:	ea4f 4915 	mov.w	r9, r5, lsr #16
  115f8e:	f3c5 4407 	ubfx	r4, r5, #16, #8
  115f92:	b2ce      	uxtb	r6, r1
  115f94:	ea4f 6a11 	mov.w	sl, r1, lsr #24
  115f98:	0a29      	lsrs	r1, r5, #8
  115f9a:	f3c5 2507 	ubfx	r5, r5, #8, #8
  115f9e:	9513      	str	r5, [sp, #76]	; 0x4c
  115fa0:	9d08      	ldr	r5, [sp, #32]
  115fa2:	9410      	str	r4, [sp, #64]	; 0x40
  115fa4:	0a14      	lsrs	r4, r2, #8
  115fa6:	9405      	str	r4, [sp, #20]
  115fa8:	2d0c      	cmp	r5, #12
  115faa:	f3c2 2407 	ubfx	r4, r2, #8, #8
  115fae:	ea4f 4712 	mov.w	r7, r2, lsr #16
  115fb2:	9411      	str	r4, [sp, #68]	; 0x44
  115fb4:	b2d2      	uxtb	r2, r2
  115fb6:	ea4f 441c 	mov.w	r4, ip, lsr #16
  115fba:	f3cc 4c07 	ubfx	ip, ip, #16, #8
  115fbe:	f340 80db 	ble.w	116178 <aes_decrypt+0xee8>
  115fc2:	9902      	ldr	r1, [sp, #8]
  115fc4:	9d03      	ldr	r5, [sp, #12]
  115fc6:	eb03 0488 	add.w	r4, r3, r8, lsl #2
  115fca:	eb03 0181 	add.w	r1, r3, r1, lsl #2
  115fce:	f8d4 4638 	ldr.w	r4, [r4, #1592]	; 0x638
  115fd2:	f8d1 1238 	ldr.w	r1, [r1, #568]	; 0x238
  115fd6:	eb03 0785 	add.w	r7, r3, r5, lsl #2
  115fda:	9d01      	ldr	r5, [sp, #4]
  115fdc:	4061      	eors	r1, r4
  115fde:	9c09      	ldr	r4, [sp, #36]	; 0x24
  115fe0:	eb03 0885 	add.w	r8, r3, r5, lsl #2
  115fe4:	9d04      	ldr	r5, [sp, #16]
  115fe6:	4061      	eors	r1, r4
  115fe8:	f8d7 4238 	ldr.w	r4, [r7, #568]	; 0x238
  115fec:	f8d8 7638 	ldr.w	r7, [r8, #1592]	; 0x638
  115ff0:	eb03 0985 	add.w	r9, r3, r5, lsl #2
  115ff4:	eb03 0686 	add.w	r6, r3, r6, lsl #2
  115ff8:	f8d6 6638 	ldr.w	r6, [r6, #1592]	; 0x638
  115ffc:	407c      	eors	r4, r7
  115ffe:	f8d9 7238 	ldr.w	r7, [r9, #568]	; 0x238
  116002:	eb03 0a8a 	add.w	sl, r3, sl, lsl #2
  116006:	eb03 0282 	add.w	r2, r3, r2, lsl #2
  11600a:	f8d2 2638 	ldr.w	r2, [r2, #1592]	; 0x638
  11600e:	4077      	eors	r7, r6
  116010:	f8da 6238 	ldr.w	r6, [sl, #568]	; 0x238
  116014:	9d0c      	ldr	r5, [sp, #48]	; 0x30
  116016:	4056      	eors	r6, r2
  116018:	9a12      	ldr	r2, [sp, #72]	; 0x48
  11601a:	406c      	eors	r4, r5
  11601c:	9d0f      	ldr	r5, [sp, #60]	; 0x3c
  11601e:	4056      	eors	r6, r2
  116020:	9a0a      	ldr	r2, [sp, #40]	; 0x28
  116022:	406f      	eors	r7, r5
  116024:	9d0d      	ldr	r5, [sp, #52]	; 0x34
  116026:	eb03 0282 	add.w	r2, r3, r2, lsl #2
  11602a:	eb03 0885 	add.w	r8, r3, r5, lsl #2
  11602e:	f8d2 2a38 	ldr.w	r2, [r2, #2616]	; 0xa38
  116032:	9d10      	ldr	r5, [sp, #64]	; 0x40
  116034:	eb03 0c8c 	add.w	ip, r3, ip, lsl #2
  116038:	eb03 0985 	add.w	r9, r3, r5, lsl #2
  11603c:	ea81 0e02 	eor.w	lr, r1, r2
  116040:	9d0b      	ldr	r5, [sp, #44]	; 0x2c
  116042:	f8dc 1a38 	ldr.w	r1, [ip, #2616]	; 0xa38
  116046:	f8d8 2a38 	ldr.w	r2, [r8, #2616]	; 0xa38
  11604a:	4071      	eors	r1, r6
  11604c:	eb03 0685 	add.w	r6, r3, r5, lsl #2
  116050:	9d0e      	ldr	r5, [sp, #56]	; 0x38
  116052:	f8d6 6e38 	ldr.w	r6, [r6, #3640]	; 0xe38
  116056:	eb03 0c85 	add.w	ip, r3, r5, lsl #2
  11605a:	4062      	eors	r2, r4
  11605c:	9d11      	ldr	r5, [sp, #68]	; 0x44
  11605e:	f8d9 4a38 	ldr.w	r4, [r9, #2616]	; 0xa38
  116062:	ea8e 0e06 	eor.w	lr, lr, r6
  116066:	f8dc 6e38 	ldr.w	r6, [ip, #3640]	; 0xe38
  11606a:	407c      	eors	r4, r7
  11606c:	eb03 0785 	add.w	r7, r3, r5, lsl #2
  116070:	9d13      	ldr	r5, [sp, #76]	; 0x4c
  116072:	4056      	eors	r6, r2
  116074:	f8d7 2e38 	ldr.w	r2, [r7, #3640]	; 0xe38
  116078:	eb03 0585 	add.w	r5, r3, r5, lsl #2
  11607c:	4054      	eors	r4, r2
  11607e:	f8d5 2e38 	ldr.w	r2, [r5, #3640]	; 0xe38
  116082:	b2f5      	uxtb	r5, r6
  116084:	4051      	eors	r1, r2
  116086:	ea4f 621e 	mov.w	r2, lr, lsr #24
  11608a:	eb03 0282 	add.w	r2, r3, r2, lsl #2
  11608e:	eb03 0585 	add.w	r5, r3, r5, lsl #2
  116092:	f8d2 2238 	ldr.w	r2, [r2, #568]	; 0x238
  116096:	f8d5 5638 	ldr.w	r5, [r5, #1592]	; 0x638
  11609a:	b2e7      	uxtb	r7, r4
  11609c:	406a      	eors	r2, r5
  11609e:	f3c1 4507 	ubfx	r5, r1, #16, #8
  1160a2:	eb03 0585 	add.w	r5, r3, r5, lsl #2
  1160a6:	f8d5 aa38 	ldr.w	sl, [r5, #2616]	; 0xa38
  1160aa:	f3c4 2507 	ubfx	r5, r4, #8, #8
  1160ae:	eb03 0585 	add.w	r5, r3, r5, lsl #2
  1160b2:	f8d5 9e38 	ldr.w	r9, [r5, #3640]	; 0xe38
  1160b6:	0e35      	lsrs	r5, r6, #24
  1160b8:	eb03 0585 	add.w	r5, r3, r5, lsl #2
  1160bc:	eb03 0787 	add.w	r7, r3, r7, lsl #2
  1160c0:	f8d7 7638 	ldr.w	r7, [r7, #1592]	; 0x638
  1160c4:	f8d5 5238 	ldr.w	r5, [r5, #568]	; 0x238
  1160c8:	f500 70e8 	add.w	r0, r0, #464	; 0x1d0
  1160cc:	407d      	eors	r5, r7
  1160ce:	f3ce 4707 	ubfx	r7, lr, #16, #8
  1160d2:	eb03 0787 	add.w	r7, r3, r7, lsl #2
  1160d6:	f8d7 7a38 	ldr.w	r7, [r7, #2616]	; 0xa38
  1160da:	9701      	str	r7, [sp, #4]
  1160dc:	f3c1 2707 	ubfx	r7, r1, #8, #8
  1160e0:	eb03 0787 	add.w	r7, r3, r7, lsl #2
  1160e4:	f8d7 be38 	ldr.w	fp, [r7, #3640]	; 0xe38
  1160e8:	0e27      	lsrs	r7, r4, #24
  1160ea:	f3c4 4407 	ubfx	r4, r4, #16, #8
  1160ee:	eb03 0884 	add.w	r8, r3, r4, lsl #2
  1160f2:	b2cc      	uxtb	r4, r1
  1160f4:	eb03 0787 	add.w	r7, r3, r7, lsl #2
  1160f8:	eb03 0484 	add.w	r4, r3, r4, lsl #2
  1160fc:	f8d7 7238 	ldr.w	r7, [r7, #568]	; 0x238
  116100:	f8d4 4638 	ldr.w	r4, [r4, #1592]	; 0x638
  116104:	0e09      	lsrs	r1, r1, #24
  116106:	ea87 0c04 	eor.w	ip, r7, r4
  11610a:	f3c6 4407 	ubfx	r4, r6, #16, #8
  11610e:	eb03 0484 	add.w	r4, r3, r4, lsl #2
  116112:	f8d4 7a38 	ldr.w	r7, [r4, #2616]	; 0xa38
  116116:	f3c6 2607 	ubfx	r6, r6, #8, #8
  11611a:	f3ce 2407 	ubfx	r4, lr, #8, #8
  11611e:	fa5f fe8e 	uxtb.w	lr, lr
  116122:	eb03 0181 	add.w	r1, r3, r1, lsl #2
  116126:	eb03 0686 	add.w	r6, r3, r6, lsl #2
  11612a:	eb03 0484 	add.w	r4, r3, r4, lsl #2
  11612e:	eb03 0e8e 	add.w	lr, r3, lr, lsl #2
  116132:	6803      	ldr	r3, [r0, #0]
  116134:	f8d4 4e38 	ldr.w	r4, [r4, #3640]	; 0xe38
  116138:	405a      	eors	r2, r3
  11613a:	6843      	ldr	r3, [r0, #4]
  11613c:	f8d1 1238 	ldr.w	r1, [r1, #568]	; 0x238
  116140:	405d      	eors	r5, r3
  116142:	9b01      	ldr	r3, [sp, #4]
  116144:	ea82 020a 	eor.w	r2, r2, sl
  116148:	405d      	eors	r5, r3
  11614a:	6883      	ldr	r3, [r0, #8]
  11614c:	ea82 0209 	eor.w	r2, r2, r9
  116150:	ea8c 0c03 	eor.w	ip, ip, r3
  116154:	ea8c 0c07 	eor.w	ip, ip, r7
  116158:	f8de 3638 	ldr.w	r3, [lr, #1592]	; 0x638
  11615c:	ea8c 0c04 	eor.w	ip, ip, r4
  116160:	68c4      	ldr	r4, [r0, #12]
  116162:	4059      	eors	r1, r3
  116164:	f8d8 7a38 	ldr.w	r7, [r8, #2616]	; 0xa38
  116168:	f8d6 3e38 	ldr.w	r3, [r6, #3640]	; 0xe38
  11616c:	4061      	eors	r1, r4
  11616e:	4079      	eors	r1, r7
  116170:	ea85 050b 	eor.w	r5, r5, fp
  116174:	4059      	eors	r1, r3
  116176:	e52e      	b.n	115bd6 <aes_decrypt+0x946>
  116178:	f500 70d8 	add.w	r0, r0, #432	; 0x1b0
  11617c:	e54a      	b.n	115c14 <aes_decrypt+0x984>
  11617e:	bf00      	nop

00116180 <AES_WRAP>:
  116180:	e92d 4ff0 	stmdb	sp!, {r4, r5, r6, r7, r8, r9, sl, fp, lr}
  116184:	460d      	mov	r5, r1
  116186:	b08d      	sub	sp, #52	; 0x34
  116188:	9b18      	ldr	r3, [sp, #96]	; 0x60
  11618a:	9c19      	ldr	r4, [sp, #100]	; 0x64
  11618c:	9309      	str	r3, [sp, #36]	; 0x24
  11618e:	4b64      	ldr	r3, [pc, #400]	; (116320 <AES_WRAP+0x1a0>)
  116190:	2d00      	cmp	r5, #0
  116192:	681b      	ldr	r3, [r3, #0]
  116194:	4606      	mov	r6, r0
  116196:	f04f 0101 	mov.w	r1, #1
  11619a:	f44f 704d 	mov.w	r0, #820	; 0x334
  11619e:	681b      	ldr	r3, [r3, #0]
  1161a0:	f105 0a07 	add.w	sl, r5, #7
  1161a4:	4617      	mov	r7, r2
  1161a6:	bfa8      	it	ge
  1161a8:	46aa      	movge	sl, r5
  1161aa:	f8dd 8058 	ldr.w	r8, [sp, #88]	; 0x58
  1161ae:	940a      	str	r4, [sp, #40]	; 0x28
  1161b0:	4798      	blx	r3
  1161b2:	2800      	cmp	r0, #0
  1161b4:	f000 80aa 	beq.w	11630c <AES_WRAP+0x18c>
  1161b8:	4604      	mov	r4, r0
  1161ba:	f500 7398 	add.w	r3, r0, #304	; 0x130
  1161be:	4641      	mov	r1, r8
  1161c0:	2280      	movs	r2, #128	; 0x80
  1161c2:	4618      	mov	r0, r3
  1161c4:	9301      	str	r3, [sp, #4]
  1161c6:	f7fd ff37 	bl	114038 <aes_set_key>
  1161ca:	4639      	mov	r1, r7
  1161cc:	2208      	movs	r2, #8
  1161ce:	4620      	mov	r0, r4
  1161d0:	4f54      	ldr	r7, [pc, #336]	; (116324 <AES_WRAP+0x1a4>)
  1161d2:	47b8      	blx	r7
  1161d4:	2d07      	cmp	r5, #7
  1161d6:	ea4f 0aea 	mov.w	sl, sl, asr #3
  1161da:	dd0e      	ble.n	1161fa <AES_WRAP+0x7a>
  1161dc:	f04f 0900 	mov.w	r9, #0
  1161e0:	f104 0810 	add.w	r8, r4, #16
  1161e4:	2208      	movs	r2, #8
  1161e6:	4631      	mov	r1, r6
  1161e8:	4640      	mov	r0, r8
  1161ea:	f109 0901 	add.w	r9, r9, #1
  1161ee:	4416      	add	r6, r2
  1161f0:	47b8      	blx	r7
  1161f2:	45ca      	cmp	sl, r9
  1161f4:	f108 0808 	add.w	r8, r8, #8
  1161f8:	dcf4      	bgt.n	1161e4 <AES_WRAP+0x64>
  1161fa:	2006      	movs	r0, #6
  1161fc:	2100      	movs	r1, #0
  1161fe:	4603      	mov	r3, r0
  116200:	2d07      	cmp	r5, #7
  116202:	dd7b      	ble.n	1162fc <AES_WRAP+0x17c>
  116204:	f104 0310 	add.w	r3, r4, #16
  116208:	9308      	str	r3, [sp, #32]
  11620a:	f504 738c 	add.w	r3, r4, #280	; 0x118
  11620e:	9302      	str	r3, [sp, #8]
  116210:	f504 7390 	add.w	r3, r4, #288	; 0x120
  116214:	9303      	str	r3, [sp, #12]
  116216:	f104 0308 	add.w	r3, r4, #8
  11621a:	9304      	str	r3, [sp, #16]
  11621c:	f204 132f 	addw	r3, r4, #303	; 0x12f
  116220:	f504 7888 	add.w	r8, r4, #272	; 0x110
  116224:	f204 1b27 	addw	fp, r4, #295	; 0x127
  116228:	9305      	str	r3, [sp, #20]
  11622a:	950b      	str	r5, [sp, #44]	; 0x2c
  11622c:	2500      	movs	r5, #0
  11622e:	fb0a f901 	mul.w	r9, sl, r1
  116232:	e9cd 1006 	strd	r1, r0, [sp, #24]
  116236:	fa4f f989 	sxtb.w	r9, r9
  11623a:	9e08      	ldr	r6, [sp, #32]
  11623c:	f109 0901 	add.w	r9, r9, #1
  116240:	2208      	movs	r2, #8
  116242:	4621      	mov	r1, r4
  116244:	4640      	mov	r0, r8
  116246:	47b8      	blx	r7
  116248:	2208      	movs	r2, #8
  11624a:	4631      	mov	r1, r6
  11624c:	9802      	ldr	r0, [sp, #8]
  11624e:	47b8      	blx	r7
  116250:	4641      	mov	r1, r8
  116252:	9a03      	ldr	r2, [sp, #12]
  116254:	9801      	ldr	r0, [sp, #4]
  116256:	f7fe f8d7 	bl	114408 <aes_encrypt>
  11625a:	2208      	movs	r2, #8
  11625c:	2100      	movs	r1, #0
  11625e:	4b32      	ldr	r3, [pc, #200]	; (116328 <AES_WRAP+0x1a8>)
  116260:	9804      	ldr	r0, [sp, #16]
  116262:	4798      	blx	r3
  116264:	9b05      	ldr	r3, [sp, #20]
  116266:	4659      	mov	r1, fp
  116268:	eba3 0e0b 	sub.w	lr, r3, fp
  11626c:	f04e e001 	dls	lr, lr
  116270:	7be0      	ldrb	r0, [r4, #15]
  116272:	eb09 0205 	add.w	r2, r9, r5
  116276:	4302      	orrs	r2, r0
  116278:	73e2      	strb	r2, [r4, #15]
  11627a:	68a0      	ldr	r0, [r4, #8]
  11627c:	f8d4 2120 	ldr.w	r2, [r4, #288]	; 0x120
  116280:	4042      	eors	r2, r0
  116282:	6022      	str	r2, [r4, #0]
  116284:	f8d4 0124 	ldr.w	r0, [r4, #292]	; 0x124
  116288:	68e2      	ldr	r2, [r4, #12]
  11628a:	4042      	eors	r2, r0
  11628c:	6062      	str	r2, [r4, #4]
  11628e:	1e72      	subs	r2, r6, #1
  116290:	f811 3f01 	ldrb.w	r3, [r1, #1]!
  116294:	f802 3f01 	strb.w	r3, [r2, #1]!
  116298:	f00f c007 	le	lr, 116290 <AES_WRAP+0x110>
  11629c:	3501      	adds	r5, #1
  11629e:	45aa      	cmp	sl, r5
  1162a0:	f106 0608 	add.w	r6, r6, #8
  1162a4:	dccc      	bgt.n	116240 <AES_WRAP+0xc0>
  1162a6:	e9dd 1006 	ldrd	r1, r0, [sp, #24]
  1162aa:	3801      	subs	r0, #1
  1162ac:	f101 0101 	add.w	r1, r1, #1
  1162b0:	d1bc      	bne.n	11622c <AES_WRAP+0xac>
  1162b2:	9d0b      	ldr	r5, [sp, #44]	; 0x2c
  1162b4:	2208      	movs	r2, #8
  1162b6:	4621      	mov	r1, r4
  1162b8:	9809      	ldr	r0, [sp, #36]	; 0x24
  1162ba:	47b8      	blx	r7
  1162bc:	2d07      	cmp	r5, #7
  1162be:	dd11      	ble.n	1162e4 <AES_WRAP+0x164>
  1162c0:	f04f 0900 	mov.w	r9, #0
  1162c4:	9e09      	ldr	r6, [sp, #36]	; 0x24
  1162c6:	f104 0810 	add.w	r8, r4, #16
  1162ca:	3608      	adds	r6, #8
  1162cc:	4641      	mov	r1, r8
  1162ce:	4630      	mov	r0, r6
  1162d0:	2208      	movs	r2, #8
  1162d2:	f109 0901 	add.w	r9, r9, #1
  1162d6:	47b8      	blx	r7
  1162d8:	45d1      	cmp	r9, sl
  1162da:	f106 0608 	add.w	r6, r6, #8
  1162de:	f108 0808 	add.w	r8, r8, #8
  1162e2:	dbf3      	blt.n	1162cc <AES_WRAP+0x14c>
  1162e4:	4620      	mov	r0, r4
  1162e6:	9a0a      	ldr	r2, [sp, #40]	; 0x28
  1162e8:	f105 0308 	add.w	r3, r5, #8
  1162ec:	8013      	strh	r3, [r2, #0]
  1162ee:	4b0c      	ldr	r3, [pc, #48]	; (116320 <AES_WRAP+0x1a0>)
  1162f0:	681b      	ldr	r3, [r3, #0]
  1162f2:	685b      	ldr	r3, [r3, #4]
  1162f4:	b00d      	add	sp, #52	; 0x34
  1162f6:	e8bd 4ff0 	ldmia.w	sp!, {r4, r5, r6, r7, r8, r9, sl, fp, lr}
  1162fa:	4718      	bx	r3
  1162fc:	3b01      	subs	r3, #1
  1162fe:	f101 0101 	add.w	r1, r1, #1
  116302:	f100 30ff 	add.w	r0, r0, #4294967295	; 0xffffffff
  116306:	f47f af7b 	bne.w	116200 <AES_WRAP+0x80>
  11630a:	e7d3      	b.n	1162b4 <AES_WRAP+0x134>
  11630c:	2249      	movs	r2, #73	; 0x49
  11630e:	2004      	movs	r0, #4
  116310:	4b06      	ldr	r3, [pc, #24]	; (11632c <AES_WRAP+0x1ac>)
  116312:	4907      	ldr	r1, [pc, #28]	; (116330 <AES_WRAP+0x1b0>)
  116314:	b00d      	add	sp, #52	; 0x34
  116316:	e8bd 4ff0 	ldmia.w	sp!, {r4, r5, r6, r7, r8, r9, sl, fp, lr}
  11631a:	f7f3 bfeb 	b.w	10a2f4 <DiagPrintf+0x10b>
  11631e:	bf00      	nop
  116320:	200014c4 	.word	0x200014c4
  116324:	00101365 	.word	0x00101365
  116328:	001014f9 	.word	0x001014f9
  11632c:	00138e8c 	.word	0x00138e8c
  116330:	00138eac 	.word	0x00138eac

00116334 <AES_UnWRAP>:
  116334:	e92d 4ff0 	stmdb	sp!, {r4, r5, r6, r7, r8, r9, sl, fp, lr}
  116338:	460c      	mov	r4, r1
  11633a:	2c00      	cmp	r4, #0
  11633c:	f104 0b07 	add.w	fp, r4, #7
  116340:	bfa8      	it	ge
  116342:	46a3      	movge	fp, r4
  116344:	4681      	mov	r9, r0
  116346:	f2ad 4da4 	subw	sp, sp, #1188	; 0x4a4
  11634a:	4611      	mov	r1, r2
  11634c:	a813      	add	r0, sp, #76	; 0x4c
  11634e:	00da      	lsls	r2, r3, #3
  116350:	ea4f 0beb 	mov.w	fp, fp, asr #3
  116354:	f8dd 74c8 	ldr.w	r7, [sp, #1224]	; 0x4c8
  116358:	4e4f      	ldr	r6, [pc, #316]	; (116498 <AES_UnWRAP+0x164>)
  11635a:	f7fd fe6d 	bl	114038 <aes_set_key>
  11635e:	f10b 3aff 	add.w	sl, fp, #4294967295	; 0xffffffff
  116362:	2208      	movs	r2, #8
  116364:	4649      	mov	r1, r9
  116366:	a807      	add	r0, sp, #28
  116368:	47b0      	blx	r6
  11636a:	f1ba 0f00 	cmp.w	sl, #0
  11636e:	ac94      	add	r4, sp, #592	; 0x250
  116370:	dd0d      	ble.n	11638e <AES_UnWRAP+0x5a>
  116372:	46a0      	mov	r8, r4
  116374:	f109 0508 	add.w	r5, r9, #8
  116378:	eb09 09cb 	add.w	r9, r9, fp, lsl #3
  11637c:	2208      	movs	r2, #8
  11637e:	4629      	mov	r1, r5
  116380:	4640      	mov	r0, r8
  116382:	4415      	add	r5, r2
  116384:	47b0      	blx	r6
  116386:	454d      	cmp	r5, r9
  116388:	f108 0808 	add.w	r8, r8, #8
  11638c:	d1f6      	bne.n	11637c <AES_UnWRAP+0x48>
  11638e:	f1ab 0202 	sub.w	r2, fp, #2
  116392:	eb04 03c2 	add.w	r3, r4, r2, lsl #3
  116396:	00d5      	lsls	r5, r2, #3
  116398:	f04f 0c06 	mov.w	ip, #6
  11639c:	e9cd 3503 	strd	r3, r5, [sp, #12]
  1163a0:	4613      	mov	r3, r2
  1163a2:	eb0a 0b8a 	add.w	fp, sl, sl, lsl #2
  1163a6:	4652      	mov	r2, sl
  1163a8:	46e2      	mov	sl, ip
  1163aa:	469c      	mov	ip, r3
  1163ac:	f8df 90ec 	ldr.w	r9, [pc, #236]	; 11649c <AES_UnWRAP+0x168>
  1163b0:	4659      	mov	r1, fp
  1163b2:	f8cd 74c8 	str.w	r7, [sp, #1224]	; 0x4c8
  1163b6:	fa5f fb8b 	uxtb.w	fp, fp
  1163ba:	9405      	str	r4, [sp, #20]
  1163bc:	f1bc 0f00 	cmp.w	ip, #0
  1163c0:	db44      	blt.n	11644c <AES_UnWRAP+0x118>
  1163c2:	f10b 0701 	add.w	r7, fp, #1
  1163c6:	e9cd b200 	strd	fp, r2, [sp]
  1163ca:	4664      	mov	r4, ip
  1163cc:	468b      	mov	fp, r1
  1163ce:	9d03      	ldr	r5, [sp, #12]
  1163d0:	b2ff      	uxtb	r7, r7
  1163d2:	f101 0801 	add.w	r8, r1, #1
  1163d6:	f8cd c008 	str.w	ip, [sp, #8]
  1163da:	2208      	movs	r2, #8
  1163dc:	2100      	movs	r1, #0
  1163de:	a809      	add	r0, sp, #36	; 0x24
  1163e0:	47c8      	blx	r9
  1163e2:	2200      	movs	r2, #0
  1163e4:	eb08 0104 	add.w	r1, r8, r4
  1163e8:	1608      	asrs	r0, r1, #24
  1163ea:	f360 0207 	bfi	r2, r0, #0, #8
  1163ee:	1408      	asrs	r0, r1, #16
  1163f0:	f360 220f 	bfi	r2, r0, #8, #8
  1163f4:	1209      	asrs	r1, r1, #8
  1163f6:	1938      	adds	r0, r7, r4
  1163f8:	f361 4217 	bfi	r2, r1, #16, #8
  1163fc:	990a      	ldr	r1, [sp, #40]	; 0x28
  1163fe:	f360 621f 	bfi	r2, r0, #24, #8
  116402:	430a      	orrs	r2, r1
  116404:	9807      	ldr	r0, [sp, #28]
  116406:	9909      	ldr	r1, [sp, #36]	; 0x24
  116408:	920a      	str	r2, [sp, #40]	; 0x28
  11640a:	4041      	eors	r1, r0
  11640c:	910f      	str	r1, [sp, #60]	; 0x3c
  11640e:	9908      	ldr	r1, [sp, #32]
  116410:	a811      	add	r0, sp, #68	; 0x44
  116412:	404a      	eors	r2, r1
  116414:	9210      	str	r2, [sp, #64]	; 0x40
  116416:	4629      	mov	r1, r5
  116418:	2208      	movs	r2, #8
  11641a:	47b0      	blx	r6
  11641c:	aa0b      	add	r2, sp, #44	; 0x2c
  11641e:	a90f      	add	r1, sp, #60	; 0x3c
  116420:	a813      	add	r0, sp, #76	; 0x4c
  116422:	f7fe ff35 	bl	115290 <aes_decrypt>
  116426:	2208      	movs	r2, #8
  116428:	a90b      	add	r1, sp, #44	; 0x2c
  11642a:	a807      	add	r0, sp, #28
  11642c:	47b0      	blx	r6
  11642e:	9a0e      	ldr	r2, [sp, #56]	; 0x38
  116430:	3c01      	subs	r4, #1
  116432:	606a      	str	r2, [r5, #4]
  116434:	9a0d      	ldr	r2, [sp, #52]	; 0x34
  116436:	1c63      	adds	r3, r4, #1
  116438:	602a      	str	r2, [r5, #0]
  11643a:	f1a5 0508 	sub.w	r5, r5, #8
  11643e:	d1cc      	bne.n	1163da <AES_UnWRAP+0xa6>
  116440:	4659      	mov	r1, fp
  116442:	9a01      	ldr	r2, [sp, #4]
  116444:	f8dd b000 	ldr.w	fp, [sp]
  116448:	f8dd c008 	ldr.w	ip, [sp, #8]
  11644c:	ebab 0b02 	sub.w	fp, fp, r2
  116450:	f1ba 0a01 	subs.w	sl, sl, #1
  116454:	fa5f fb8b 	uxtb.w	fp, fp
  116458:	eba1 0102 	sub.w	r1, r1, r2
  11645c:	d1ae      	bne.n	1163bc <AES_UnWRAP+0x88>
  11645e:	4692      	mov	sl, r2
  116460:	f8dd 74c8 	ldr.w	r7, [sp, #1224]	; 0x4c8
  116464:	2208      	movs	r2, #8
  116466:	4638      	mov	r0, r7
  116468:	a907      	add	r1, sp, #28
  11646a:	9d04      	ldr	r5, [sp, #16]
  11646c:	9c05      	ldr	r4, [sp, #20]
  11646e:	47b0      	blx	r6
  116470:	f1ba 0f00 	cmp.w	sl, #0
  116474:	dd0c      	ble.n	116490 <AES_UnWRAP+0x15c>
  116476:	3510      	adds	r5, #16
  116478:	f107 0808 	add.w	r8, r7, #8
  11647c:	442f      	add	r7, r5
  11647e:	2208      	movs	r2, #8
  116480:	4621      	mov	r1, r4
  116482:	4640      	mov	r0, r8
  116484:	4490      	add	r8, r2
  116486:	47b0      	blx	r6
  116488:	4547      	cmp	r7, r8
  11648a:	f104 0408 	add.w	r4, r4, #8
  11648e:	d1f6      	bne.n	11647e <AES_UnWRAP+0x14a>
  116490:	f20d 4da4 	addw	sp, sp, #1188	; 0x4a4
  116494:	e8bd 8ff0 	ldmia.w	sp!, {r4, r5, r6, r7, r8, r9, sl, fp, pc}
  116498:	00101365 	.word	0x00101365
  11649c:	001014f9 	.word	0x001014f9

001164a0 <wifi_rom_omac1_aes_128_vector>:
  1164a0:	e92d 4ff0 	stmdb	sp!, {r4, r5, r6, r7, r8, r9, sl, fp, lr}
  1164a4:	460c      	mov	r4, r1
  1164a6:	4977      	ldr	r1, [pc, #476]	; (116684 <wifi_rom_omac1_aes_128_vector+0x1e4>)
  1164a8:	4605      	mov	r5, r0
  1164aa:	6809      	ldr	r1, [r1, #0]
  1164ac:	b085      	sub	sp, #20
  1164ae:	680e      	ldr	r6, [r1, #0]
  1164b0:	f44f 7009 	mov.w	r0, #548	; 0x224
  1164b4:	2101      	movs	r1, #1
  1164b6:	4690      	mov	r8, r2
  1164b8:	461f      	mov	r7, r3
  1164ba:	47b0      	blx	r6
  1164bc:	2800      	cmp	r0, #0
  1164be:	f000 80d8 	beq.w	116672 <wifi_rom_omac1_aes_128_vector+0x1d2>
  1164c2:	4682      	mov	sl, r0
  1164c4:	f100 0320 	add.w	r3, r0, #32
  1164c8:	4629      	mov	r1, r5
  1164ca:	2280      	movs	r2, #128	; 0x80
  1164cc:	4618      	mov	r0, r3
  1164ce:	9301      	str	r3, [sp, #4]
  1164d0:	f7fd fdb2 	bl	114038 <aes_set_key>
  1164d4:	2210      	movs	r2, #16
  1164d6:	2100      	movs	r1, #0
  1164d8:	4650      	mov	r0, sl
  1164da:	4b6b      	ldr	r3, [pc, #428]	; (116688 <wifi_rom_omac1_aes_128_vector+0x1e8>)
  1164dc:	4798      	blx	r3
  1164de:	f10a 0b10 	add.w	fp, sl, #16
  1164e2:	2c00      	cmp	r4, #0
  1164e4:	f000 80b5 	beq.w	116652 <wifi_rom_omac1_aes_128_vector+0x1b2>
  1164e8:	ea4f 0e84 	mov.w	lr, r4, lsl #2
  1164ec:	f1ae 0e04 	sub.w	lr, lr, #4
  1164f0:	ea4f 0e9e 	mov.w	lr, lr, lsr #2
  1164f4:	f10e 0e01 	add.w	lr, lr, #1
  1164f8:	f04e e001 	dls	lr, lr
  1164fc:	f04f 0900 	mov.w	r9, #0
  116500:	1f3b      	subs	r3, r7, #4
  116502:	f853 2f04 	ldr.w	r2, [r3, #4]!
  116506:	4491      	add	r9, r2
  116508:	f00f c805 	le	lr, 116502 <wifi_rom_omac1_aes_128_vector+0x62>
  11650c:	f8d8 4000 	ldr.w	r4, [r8]
  116510:	683d      	ldr	r5, [r7, #0]
  116512:	f1b9 0f0f 	cmp.w	r9, #15
  116516:	4425      	add	r5, r4
  116518:	f240 8087 	bls.w	11662a <wifi_rom_omac1_aes_128_vector+0x18a>
  11651c:	f10a 020f 	add.w	r2, sl, #15
  116520:	f10a 33ff 	add.w	r3, sl, #4294967295	; 0xffffffff
  116524:	e9cd 2b02 	strd	r2, fp, [sp, #8]
  116528:	2600      	movs	r6, #0
  11652a:	46d3      	mov	fp, sl
  11652c:	469a      	mov	sl, r3
  11652e:	46d4      	mov	ip, sl
  116530:	9b02      	ldr	r3, [sp, #8]
  116532:	eba3 010a 	sub.w	r1, r3, sl
  116536:	f814 2b01 	ldrb.w	r2, [r4], #1
  11653a:	f81c 3f01 	ldrb.w	r3, [ip, #1]!
  11653e:	42ac      	cmp	r4, r5
  116540:	ea83 0302 	eor.w	r3, r3, r2
  116544:	f88c 3000 	strb.w	r3, [ip]
  116548:	d305      	bcc.n	116556 <wifi_rom_omac1_aes_128_vector+0xb6>
  11654a:	3601      	adds	r6, #1
  11654c:	f858 4026 	ldr.w	r4, [r8, r6, lsl #2]
  116550:	f857 5026 	ldr.w	r5, [r7, r6, lsl #2]
  116554:	4425      	add	r5, r4
  116556:	3901      	subs	r1, #1
  116558:	d1ed      	bne.n	116536 <wifi_rom_omac1_aes_128_vector+0x96>
  11655a:	f1b9 0f10 	cmp.w	r9, #16
  11655e:	d038      	beq.n	1165d2 <wifi_rom_omac1_aes_128_vector+0x132>
  116560:	465a      	mov	r2, fp
  116562:	4659      	mov	r1, fp
  116564:	9801      	ldr	r0, [sp, #4]
  116566:	f1a9 0910 	sub.w	r9, r9, #16
  11656a:	f7fd ff4d 	bl	114408 <aes_encrypt>
  11656e:	f1b9 0f0f 	cmp.w	r9, #15
  116572:	d8dc      	bhi.n	11652e <wifi_rom_omac1_aes_128_vector+0x8e>
  116574:	4653      	mov	r3, sl
  116576:	46da      	mov	sl, fp
  116578:	f8dd b00c 	ldr.w	fp, [sp, #12]
  11657c:	2210      	movs	r2, #16
  11657e:	2100      	movs	r1, #0
  116580:	9302      	str	r3, [sp, #8]
  116582:	4658      	mov	r0, fp
  116584:	4b40      	ldr	r3, [pc, #256]	; (116688 <wifi_rom_omac1_aes_128_vector+0x1e8>)
  116586:	4798      	blx	r3
  116588:	465a      	mov	r2, fp
  11658a:	4659      	mov	r1, fp
  11658c:	9801      	ldr	r0, [sp, #4]
  11658e:	f7fd ff3b 	bl	114408 <aes_encrypt>
  116592:	4658      	mov	r0, fp
  116594:	f7fd fd34 	bl	114000 <gf_mulx>
  116598:	9b02      	ldr	r3, [sp, #8]
  11659a:	4649      	mov	r1, r9
  11659c:	f814 0b01 	ldrb.w	r0, [r4], #1
  1165a0:	f813 2f01 	ldrb.w	r2, [r3, #1]!
  1165a4:	42ac      	cmp	r4, r5
  1165a6:	ea82 0200 	eor.w	r2, r2, r0
  1165aa:	701a      	strb	r2, [r3, #0]
  1165ac:	d305      	bcc.n	1165ba <wifi_rom_omac1_aes_128_vector+0x11a>
  1165ae:	3601      	adds	r6, #1
  1165b0:	f858 4026 	ldr.w	r4, [r8, r6, lsl #2]
  1165b4:	f857 5026 	ldr.w	r5, [r7, r6, lsl #2]
  1165b8:	4425      	add	r5, r4
  1165ba:	3901      	subs	r1, #1
  1165bc:	d1ee      	bne.n	11659c <wifi_rom_omac1_aes_128_vector+0xfc>
  1165be:	f81a 3009 	ldrb.w	r3, [sl, r9]
  1165c2:	4658      	mov	r0, fp
  1165c4:	f083 0380 	eor.w	r3, r3, #128	; 0x80
  1165c8:	f80a 3009 	strb.w	r3, [sl, r9]
  1165cc:	f7fd fd18 	bl	114000 <gf_mulx>
  1165d0:	e00f      	b.n	1165f2 <wifi_rom_omac1_aes_128_vector+0x152>
  1165d2:	46da      	mov	sl, fp
  1165d4:	f8dd b00c 	ldr.w	fp, [sp, #12]
  1165d8:	464a      	mov	r2, r9
  1165da:	2100      	movs	r1, #0
  1165dc:	4b2a      	ldr	r3, [pc, #168]	; (116688 <wifi_rom_omac1_aes_128_vector+0x1e8>)
  1165de:	4658      	mov	r0, fp
  1165e0:	4798      	blx	r3
  1165e2:	9801      	ldr	r0, [sp, #4]
  1165e4:	465a      	mov	r2, fp
  1165e6:	4659      	mov	r1, fp
  1165e8:	f7fd ff0e 	bl	114408 <aes_encrypt>
  1165ec:	4658      	mov	r0, fp
  1165ee:	f7fd fd07 	bl	114000 <gf_mulx>
  1165f2:	f04f 0e04 	mov.w	lr, #4
  1165f6:	f04e e001 	dls	lr, lr
  1165fa:	f10a 030c 	add.w	r3, sl, #12
  1165fe:	f853 2f04 	ldr.w	r2, [r3, #4]!
  116602:	f853 1c10 	ldr.w	r1, [r3, #-16]
  116606:	404a      	eors	r2, r1
  116608:	601a      	str	r2, [r3, #0]
  11660a:	f00f c009 	le	lr, 1165fe <wifi_rom_omac1_aes_128_vector+0x15e>
  11660e:	4659      	mov	r1, fp
  116610:	9a0e      	ldr	r2, [sp, #56]	; 0x38
  116612:	9801      	ldr	r0, [sp, #4]
  116614:	f7fd fef8 	bl	114408 <aes_encrypt>
  116618:	4b1a      	ldr	r3, [pc, #104]	; (116684 <wifi_rom_omac1_aes_128_vector+0x1e4>)
  11661a:	4650      	mov	r0, sl
  11661c:	681b      	ldr	r3, [r3, #0]
  11661e:	685b      	ldr	r3, [r3, #4]
  116620:	4798      	blx	r3
  116622:	2000      	movs	r0, #0
  116624:	b005      	add	sp, #20
  116626:	e8bd 8ff0 	ldmia.w	sp!, {r4, r5, r6, r7, r8, r9, sl, fp, pc}
  11662a:	2210      	movs	r2, #16
  11662c:	2100      	movs	r1, #0
  11662e:	4b16      	ldr	r3, [pc, #88]	; (116688 <wifi_rom_omac1_aes_128_vector+0x1e8>)
  116630:	4658      	mov	r0, fp
  116632:	4798      	blx	r3
  116634:	9801      	ldr	r0, [sp, #4]
  116636:	465a      	mov	r2, fp
  116638:	4659      	mov	r1, fp
  11663a:	f7fd fee5 	bl	114408 <aes_encrypt>
  11663e:	4658      	mov	r0, fp
  116640:	f7fd fcde 	bl	114000 <gf_mulx>
  116644:	f1b9 0f00 	cmp.w	r9, #0
  116648:	d010      	beq.n	11666c <wifi_rom_omac1_aes_128_vector+0x1cc>
  11664a:	2600      	movs	r6, #0
  11664c:	f10a 33ff 	add.w	r3, sl, #4294967295	; 0xffffffff
  116650:	e7a3      	b.n	11659a <wifi_rom_omac1_aes_128_vector+0xfa>
  116652:	4621      	mov	r1, r4
  116654:	2210      	movs	r2, #16
  116656:	4b0c      	ldr	r3, [pc, #48]	; (116688 <wifi_rom_omac1_aes_128_vector+0x1e8>)
  116658:	4658      	mov	r0, fp
  11665a:	4798      	blx	r3
  11665c:	9801      	ldr	r0, [sp, #4]
  11665e:	465a      	mov	r2, fp
  116660:	4659      	mov	r1, fp
  116662:	f7fd fed1 	bl	114408 <aes_encrypt>
  116666:	4658      	mov	r0, fp
  116668:	f7fd fcca 	bl	114000 <gf_mulx>
  11666c:	f04f 0900 	mov.w	r9, #0
  116670:	e7a5      	b.n	1165be <wifi_rom_omac1_aes_128_vector+0x11e>
  116672:	2004      	movs	r0, #4
  116674:	2249      	movs	r2, #73	; 0x49
  116676:	4b05      	ldr	r3, [pc, #20]	; (11668c <wifi_rom_omac1_aes_128_vector+0x1ec>)
  116678:	4905      	ldr	r1, [pc, #20]	; (116690 <wifi_rom_omac1_aes_128_vector+0x1f0>)
  11667a:	f7f3 fe3b 	bl	10a2f4 <DiagPrintf+0x10b>
  11667e:	f04f 30ff 	mov.w	r0, #4294967295	; 0xffffffff
  116682:	e7cf      	b.n	116624 <wifi_rom_omac1_aes_128_vector+0x184>
  116684:	200014c4 	.word	0x200014c4
  116688:	001014f9 	.word	0x001014f9
  11668c:	00138eb0 	.word	0x00138eb0
  116690:	00138eac 	.word	0x00138eac

00116694 <crc32_get>:
  116694:	2900      	cmp	r1, #0
  116696:	dd11      	ble.n	1166bc <crc32_get+0x28>
  116698:	f04f 32ff 	mov.w	r2, #4294967295	; 0xffffffff
  11669c:	b508      	push	{r3, lr}
  11669e:	f041 e001 	dls	lr, r1
  1166a2:	4907      	ldr	r1, [pc, #28]	; (1166c0 <crc32_get+0x2c>)
  1166a4:	f810 3b01 	ldrb.w	r3, [r0], #1
  1166a8:	4053      	eors	r3, r2
  1166aa:	b2db      	uxtb	r3, r3
  1166ac:	f851 3023 	ldr.w	r3, [r1, r3, lsl #2]
  1166b0:	ea83 2212 	eor.w	r2, r3, r2, lsr #8
  1166b4:	f00f c00b 	le	lr, 1166a4 <crc32_get+0x10>
  1166b8:	43d0      	mvns	r0, r2
  1166ba:	bd08      	pop	{r3, pc}
  1166bc:	2000      	movs	r0, #0
  1166be:	4770      	bx	lr
  1166c0:	0013c6fc 	.word	0x0013c6fc

001166c4 <arc4_byte>:
  1166c4:	4602      	mov	r2, r0
  1166c6:	b418      	push	{r3, r4}
  1166c8:	f852 1b08 	ldr.w	r1, [r2], #8
  1166cc:	6844      	ldr	r4, [r0, #4]
  1166ce:	3101      	adds	r1, #1
  1166d0:	b2c9      	uxtb	r1, r1
  1166d2:	5c53      	ldrb	r3, [r2, r1]
  1166d4:	441c      	add	r4, r3
  1166d6:	b2e4      	uxtb	r4, r4
  1166d8:	f812 c004 	ldrb.w	ip, [r2, r4]
  1166dc:	e9c0 1400 	strd	r1, r4, [r0]
  1166e0:	5513      	strb	r3, [r2, r4]
  1166e2:	4463      	add	r3, ip
  1166e4:	f802 c001 	strb.w	ip, [r2, r1]
  1166e8:	b2db      	uxtb	r3, r3
  1166ea:	5cd0      	ldrb	r0, [r2, r3]
  1166ec:	bc18      	pop	{r3, r4}
  1166ee:	4770      	bx	lr

001166f0 <rt_arc4_init>:
  1166f0:	b570      	push	{r4, r5, r6, lr}
  1166f2:	f04f 0c00 	mov.w	ip, #0
  1166f6:	f44f 7e80 	mov.w	lr, #256	; 0x100
  1166fa:	460c      	mov	r4, r1
  1166fc:	4615      	mov	r5, r2
  1166fe:	4601      	mov	r1, r0
  116700:	1dc2      	adds	r2, r0, #7
  116702:	f04e e001 	dls	lr, lr
  116706:	4663      	mov	r3, ip
  116708:	4616      	mov	r6, r2
  11670a:	f841 cb08 	str.w	ip, [r1], #8
  11670e:	f8c0 c004 	str.w	ip, [r0, #4]
  116712:	f806 3f01 	strb.w	r3, [r6, #1]!
  116716:	3301      	adds	r3, #1
  116718:	f00f c805 	le	lr, 116712 <rt_arc4_init+0x22>
  11671c:	2300      	movs	r3, #0
  11671e:	f200 1007 	addw	r0, r0, #263	; 0x107
  116722:	eba0 0e02 	sub.w	lr, r0, r2
  116726:	4618      	mov	r0, r3
  116728:	f814 c000 	ldrb.w	ip, [r4, r0]
  11672c:	f812 6f01 	ldrb.w	r6, [r2, #1]!
  116730:	3001      	adds	r0, #1
  116732:	44b4      	add	ip, r6
  116734:	4463      	add	r3, ip
  116736:	b2db      	uxtb	r3, r3
  116738:	f811 c003 	ldrb.w	ip, [r1, r3]
  11673c:	4285      	cmp	r5, r0
  11673e:	bf98      	it	ls
  116740:	2000      	movls	r0, #0
  116742:	f1be 0e01 	subs.w	lr, lr, #1
  116746:	54ce      	strb	r6, [r1, r3]
  116748:	f882 c000 	strb.w	ip, [r2]
  11674c:	d1ec      	bne.n	116728 <rt_arc4_init+0x38>
  11674e:	bd70      	pop	{r4, r5, r6, pc}

00116750 <rt_arc4_crypt>:
  116750:	b32b      	cbz	r3, 11679e <rt_arc4_crypt+0x4e>
  116752:	e92d 41f0 	stmdb	sp!, {r4, r5, r6, r7, r8, lr}
  116756:	f043 e001 	dls	lr, r3
  11675a:	f100 0c08 	add.w	ip, r0, #8
  11675e:	1e4e      	subs	r6, r1, #1
  116760:	1e55      	subs	r5, r2, #1
  116762:	e9d0 3200 	ldrd	r3, r2, [r0]
  116766:	3301      	adds	r3, #1
  116768:	b2db      	uxtb	r3, r3
  11676a:	f81c 7003 	ldrb.w	r7, [ip, r3]
  11676e:	f815 1f01 	ldrb.w	r1, [r5, #1]!
  116772:	443a      	add	r2, r7
  116774:	b2d2      	uxtb	r2, r2
  116776:	f81c 8002 	ldrb.w	r8, [ip, r2]
  11677a:	6003      	str	r3, [r0, #0]
  11677c:	eb07 0408 	add.w	r4, r7, r8
  116780:	6042      	str	r2, [r0, #4]
  116782:	b2e4      	uxtb	r4, r4
  116784:	f80c 7002 	strb.w	r7, [ip, r2]
  116788:	f80c 8003 	strb.w	r8, [ip, r3]
  11678c:	f81c 3004 	ldrb.w	r3, [ip, r4]
  116790:	404b      	eors	r3, r1
  116792:	f806 3f01 	strb.w	r3, [r6, #1]!
  116796:	f00f c01d 	le	lr, 116762 <rt_arc4_crypt+0x12>
  11679a:	e8bd 81f0 	ldmia.w	sp!, {r4, r5, r6, r7, r8, pc}
  11679e:	4770      	bx	lr

001167a0 <md5_encode>:
  1167a0:	f04f 0c01 	mov.w	ip, #1
  1167a4:	b508      	push	{r3, lr}
  1167a6:	1e53      	subs	r3, r2, #1
  1167a8:	3203      	adds	r2, #3
  1167aa:	089b      	lsrs	r3, r3, #2
  1167ac:	2a03      	cmp	r2, #3
  1167ae:	eb03 0e0c 	add.w	lr, r3, ip
  1167b2:	bf98      	it	ls
  1167b4:	46e6      	movls	lr, ip
  1167b6:	f04e e001 	dls	lr, lr
  1167ba:	3904      	subs	r1, #4
  1167bc:	f851 3f04 	ldr.w	r3, [r1, #4]!
  1167c0:	3004      	adds	r0, #4
  1167c2:	f800 3c04 	strb.w	r3, [r0, #-4]
  1167c6:	680b      	ldr	r3, [r1, #0]
  1167c8:	0a1b      	lsrs	r3, r3, #8
  1167ca:	f800 3c03 	strb.w	r3, [r0, #-3]
  1167ce:	884b      	ldrh	r3, [r1, #2]
  1167d0:	f800 3c02 	strb.w	r3, [r0, #-2]
  1167d4:	78cb      	ldrb	r3, [r1, #3]
  1167d6:	f800 3c01 	strb.w	r3, [r0, #-1]
  1167da:	f00f c811 	le	lr, 1167bc <md5_encode+0x1c>
  1167de:	bd08      	pop	{r3, pc}

001167e0 <md5_transform>:
  1167e0:	e92d 4ff0 	stmdb	sp!, {r4, r5, r6, r7, r8, r9, sl, fp, lr}
  1167e4:	e9d0 4601 	ldrd	r4, r6, [r0, #4]
  1167e8:	f04f 0e10 	mov.w	lr, #16
  1167ec:	f04e e001 	dls	lr, lr
  1167f0:	6803      	ldr	r3, [r0, #0]
  1167f2:	b093      	sub	sp, #76	; 0x4c
  1167f4:	68c7      	ldr	r7, [r0, #12]
  1167f6:	aa01      	add	r2, sp, #4
  1167f8:	9301      	str	r3, [sp, #4]
  1167fa:	788b      	ldrb	r3, [r1, #2]
  1167fc:	f891 8001 	ldrb.w	r8, [r1, #1]
  116800:	f891 c000 	ldrb.w	ip, [r1]
  116804:	041b      	lsls	r3, r3, #16
  116806:	78cd      	ldrb	r5, [r1, #3]
  116808:	ea43 2308 	orr.w	r3, r3, r8, lsl #8
  11680c:	ea43 030c 	orr.w	r3, r3, ip
  116810:	ea43 6305 	orr.w	r3, r3, r5, lsl #24
  116814:	f842 3f04 	str.w	r3, [r2, #4]!
  116818:	3104      	adds	r1, #4
  11681a:	f00f c013 	le	lr, 1167fa <md5_transform+0x1a>
  11681e:	9b02      	ldr	r3, [sp, #8]
  116820:	4af6      	ldr	r2, [pc, #984]	; (116bfc <md5_transform+0x41c>)
  116822:	9d03      	ldr	r5, [sp, #12]
  116824:	441a      	add	r2, r3
  116826:	9b01      	ldr	r3, [sp, #4]
  116828:	49f5      	ldr	r1, [pc, #980]	; (116c00 <md5_transform+0x420>)
  11682a:	441a      	add	r2, r3
  11682c:	ea86 0307 	eor.w	r3, r6, r7
  116830:	4023      	ands	r3, r4
  116832:	407b      	eors	r3, r7
  116834:	4413      	add	r3, r2
  116836:	eb04 6373 	add.w	r3, r4, r3, ror #25
  11683a:	ea84 0206 	eor.w	r2, r4, r6
  11683e:	4429      	add	r1, r5
  116840:	401a      	ands	r2, r3
  116842:	4439      	add	r1, r7
  116844:	4072      	eors	r2, r6
  116846:	9d04      	ldr	r5, [sp, #16]
  116848:	440a      	add	r2, r1
  11684a:	49ee      	ldr	r1, [pc, #952]	; (116c04 <md5_transform+0x424>)
  11684c:	eb03 5232 	add.w	r2, r3, r2, ror #20
  116850:	4429      	add	r1, r5
  116852:	ea84 0503 	eor.w	r5, r4, r3
  116856:	4015      	ands	r5, r2
  116858:	4431      	add	r1, r6
  11685a:	4065      	eors	r5, r4
  11685c:	f8dd c014 	ldr.w	ip, [sp, #20]
  116860:	440d      	add	r5, r1
  116862:	49e9      	ldr	r1, [pc, #932]	; (116c08 <md5_transform+0x428>)
  116864:	eb02 35f5 	add.w	r5, r2, r5, ror #15
  116868:	4461      	add	r1, ip
  11686a:	eb01 0c04 	add.w	ip, r1, r4
  11686e:	ea83 0102 	eor.w	r1, r3, r2
  116872:	4029      	ands	r1, r5
  116874:	4059      	eors	r1, r3
  116876:	f8dd e018 	ldr.w	lr, [sp, #24]
  11687a:	4461      	add	r1, ip
  11687c:	f8df c38c 	ldr.w	ip, [pc, #908]	; 116c0c <md5_transform+0x42c>
  116880:	eb05 21b1 	add.w	r1, r5, r1, ror #10
  116884:	44f4      	add	ip, lr
  116886:	449c      	add	ip, r3
  116888:	ea82 0305 	eor.w	r3, r2, r5
  11688c:	400b      	ands	r3, r1
  11688e:	4053      	eors	r3, r2
  116890:	f8dd e01c 	ldr.w	lr, [sp, #28]
  116894:	4463      	add	r3, ip
  116896:	f8df c378 	ldr.w	ip, [pc, #888]	; 116c10 <md5_transform+0x430>
  11689a:	eb01 6373 	add.w	r3, r1, r3, ror #25
  11689e:	44f4      	add	ip, lr
  1168a0:	4494      	add	ip, r2
  1168a2:	ea85 0201 	eor.w	r2, r5, r1
  1168a6:	401a      	ands	r2, r3
  1168a8:	406a      	eors	r2, r5
  1168aa:	f8dd e020 	ldr.w	lr, [sp, #32]
  1168ae:	4462      	add	r2, ip
  1168b0:	f8df c360 	ldr.w	ip, [pc, #864]	; 116c14 <md5_transform+0x434>
  1168b4:	eb03 5232 	add.w	r2, r3, r2, ror #20
  1168b8:	44f4      	add	ip, lr
  1168ba:	ea81 0e03 	eor.w	lr, r1, r3
  1168be:	ea0e 0e02 	and.w	lr, lr, r2
  1168c2:	4465      	add	r5, ip
  1168c4:	ea8e 0e01 	eor.w	lr, lr, r1
  1168c8:	f8dd c024 	ldr.w	ip, [sp, #36]	; 0x24
  1168cc:	44ae      	add	lr, r5
  1168ce:	4dd2      	ldr	r5, [pc, #840]	; (116c18 <md5_transform+0x438>)
  1168d0:	eb02 3efe 	add.w	lr, r2, lr, ror #15
  1168d4:	4465      	add	r5, ip
  1168d6:	440d      	add	r5, r1
  1168d8:	ea83 0102 	eor.w	r1, r3, r2
  1168dc:	ea01 010e 	and.w	r1, r1, lr
  1168e0:	4059      	eors	r1, r3
  1168e2:	f8dd c028 	ldr.w	ip, [sp, #40]	; 0x28
  1168e6:	4429      	add	r1, r5
  1168e8:	4dcc      	ldr	r5, [pc, #816]	; (116c1c <md5_transform+0x43c>)
  1168ea:	eb0e 21b1 	add.w	r1, lr, r1, ror #10
  1168ee:	4465      	add	r5, ip
  1168f0:	441d      	add	r5, r3
  1168f2:	ea82 030e 	eor.w	r3, r2, lr
  1168f6:	400b      	ands	r3, r1
  1168f8:	4053      	eors	r3, r2
  1168fa:	f8dd c02c 	ldr.w	ip, [sp, #44]	; 0x2c
  1168fe:	442b      	add	r3, r5
  116900:	4dc7      	ldr	r5, [pc, #796]	; (116c20 <md5_transform+0x440>)
  116902:	eb01 6373 	add.w	r3, r1, r3, ror #25
  116906:	4465      	add	r5, ip
  116908:	4415      	add	r5, r2
  11690a:	ea8e 0201 	eor.w	r2, lr, r1
  11690e:	401a      	ands	r2, r3
  116910:	ea82 020e 	eor.w	r2, r2, lr
  116914:	442a      	add	r2, r5
  116916:	9d0c      	ldr	r5, [sp, #48]	; 0x30
  116918:	eb03 5232 	add.w	r2, r3, r2, ror #20
  11691c:	ea81 0c03 	eor.w	ip, r1, r3
  116920:	f5a5 4824 	sub.w	r8, r5, #41984	; 0xa400
  116924:	ea0c 0c02 	and.w	ip, ip, r2
  116928:	f1a8 084f 	sub.w	r8, r8, #79	; 0x4f
  11692c:	44f0      	add	r8, lr
  11692e:	ea8c 0c01 	eor.w	ip, ip, r1
  116932:	44c4      	add	ip, r8
  116934:	f8df e2ec 	ldr.w	lr, [pc, #748]	; 116c24 <md5_transform+0x444>
  116938:	f8dd 8034 	ldr.w	r8, [sp, #52]	; 0x34
  11693c:	eb02 3cfc 	add.w	ip, r2, ip, ror #15
  116940:	44c6      	add	lr, r8
  116942:	448e      	add	lr, r1
  116944:	ea83 0102 	eor.w	r1, r3, r2
  116948:	ea01 010c 	and.w	r1, r1, ip
  11694c:	4059      	eors	r1, r3
  11694e:	f8dd 9038 	ldr.w	r9, [sp, #56]	; 0x38
  116952:	4471      	add	r1, lr
  116954:	f8df e2d0 	ldr.w	lr, [pc, #720]	; 116c28 <md5_transform+0x448>
  116958:	eb0c 21b1 	add.w	r1, ip, r1, ror #10
  11695c:	44ce      	add	lr, r9
  11695e:	449e      	add	lr, r3
  116960:	ea82 030c 	eor.w	r3, r2, ip
  116964:	400b      	ands	r3, r1
  116966:	4053      	eors	r3, r2
  116968:	f8dd 803c 	ldr.w	r8, [sp, #60]	; 0x3c
  11696c:	4473      	add	r3, lr
  11696e:	f8df e2bc 	ldr.w	lr, [pc, #700]	; 116c2c <md5_transform+0x44c>
  116972:	eb01 6373 	add.w	r3, r1, r3, ror #25
  116976:	44c6      	add	lr, r8
  116978:	4496      	add	lr, r2
  11697a:	ea8c 0201 	eor.w	r2, ip, r1
  11697e:	401a      	ands	r2, r3
  116980:	ea82 020c 	eor.w	r2, r2, ip
  116984:	f8dd a040 	ldr.w	sl, [sp, #64]	; 0x40
  116988:	4472      	add	r2, lr
  11698a:	f8df e2a4 	ldr.w	lr, [pc, #676]	; 116c30 <md5_transform+0x450>
  11698e:	eb03 5232 	add.w	r2, r3, r2, ror #20
  116992:	44d6      	add	lr, sl
  116994:	44e6      	add	lr, ip
  116996:	ea81 0c03 	eor.w	ip, r1, r3
  11699a:	ea0c 0c02 	and.w	ip, ip, r2
  11699e:	ea8c 0c01 	eor.w	ip, ip, r1
  1169a2:	f8dd 8044 	ldr.w	r8, [sp, #68]	; 0x44
  1169a6:	44f4      	add	ip, lr
  1169a8:	f8df e288 	ldr.w	lr, [pc, #648]	; 116c34 <md5_transform+0x454>
  1169ac:	eb02 3cfc 	add.w	ip, r2, ip, ror #15
  1169b0:	44c6      	add	lr, r8
  1169b2:	448e      	add	lr, r1
  1169b4:	ea83 0102 	eor.w	r1, r3, r2
  1169b8:	ea01 010c 	and.w	r1, r1, ip
  1169bc:	4059      	eors	r1, r3
  1169be:	f8dd b00c 	ldr.w	fp, [sp, #12]
  1169c2:	4471      	add	r1, lr
  1169c4:	f8df e270 	ldr.w	lr, [pc, #624]	; 116c38 <md5_transform+0x458>
  1169c8:	eb0c 21b1 	add.w	r1, ip, r1, ror #10
  1169cc:	44de      	add	lr, fp
  1169ce:	449e      	add	lr, r3
  1169d0:	ea8c 0301 	eor.w	r3, ip, r1
  1169d4:	4013      	ands	r3, r2
  1169d6:	ea83 030c 	eor.w	r3, r3, ip
  1169da:	f8dd b020 	ldr.w	fp, [sp, #32]
  1169de:	4473      	add	r3, lr
  1169e0:	f8df e258 	ldr.w	lr, [pc, #600]	; 116c3c <md5_transform+0x45c>
  1169e4:	eb01 63f3 	add.w	r3, r1, r3, ror #27
  1169e8:	44de      	add	lr, fp
  1169ea:	4496      	add	lr, r2
  1169ec:	ea81 0203 	eor.w	r2, r1, r3
  1169f0:	ea02 020c 	and.w	r2, r2, ip
  1169f4:	404a      	eors	r2, r1
  1169f6:	f8dd b034 	ldr.w	fp, [sp, #52]	; 0x34
  1169fa:	4472      	add	r2, lr
  1169fc:	f8df e240 	ldr.w	lr, [pc, #576]	; 116c40 <md5_transform+0x460>
  116a00:	eb03 52f2 	add.w	r2, r3, r2, ror #23
  116a04:	44de      	add	lr, fp
  116a06:	44e6      	add	lr, ip
  116a08:	ea83 0c02 	eor.w	ip, r3, r2
  116a0c:	ea0c 0c01 	and.w	ip, ip, r1
  116a10:	ea8c 0c03 	eor.w	ip, ip, r3
  116a14:	f8dd b008 	ldr.w	fp, [sp, #8]
  116a18:	44f4      	add	ip, lr
  116a1a:	f8df e228 	ldr.w	lr, [pc, #552]	; 116c44 <md5_transform+0x464>
  116a1e:	eb02 4cbc 	add.w	ip, r2, ip, ror #18
  116a22:	44de      	add	lr, fp
  116a24:	448e      	add	lr, r1
  116a26:	ea82 010c 	eor.w	r1, r2, ip
  116a2a:	4019      	ands	r1, r3
  116a2c:	4051      	eors	r1, r2
  116a2e:	f8dd b01c 	ldr.w	fp, [sp, #28]
  116a32:	4471      	add	r1, lr
  116a34:	f8df e210 	ldr.w	lr, [pc, #528]	; 116c48 <md5_transform+0x468>
  116a38:	eb0c 3131 	add.w	r1, ip, r1, ror #12
  116a3c:	44de      	add	lr, fp
  116a3e:	449e      	add	lr, r3
  116a40:	ea8c 0301 	eor.w	r3, ip, r1
  116a44:	4013      	ands	r3, r2
  116a46:	ea83 030c 	eor.w	r3, r3, ip
  116a4a:	4473      	add	r3, lr
  116a4c:	f8df e1fc 	ldr.w	lr, [pc, #508]	; 116c4c <md5_transform+0x46c>
  116a50:	eb01 63f3 	add.w	r3, r1, r3, ror #27
  116a54:	44ae      	add	lr, r5
  116a56:	4496      	add	lr, r2
  116a58:	ea81 0203 	eor.w	r2, r1, r3
  116a5c:	ea02 020c 	and.w	r2, r2, ip
  116a60:	404a      	eors	r2, r1
  116a62:	4472      	add	r2, lr
  116a64:	f8df e1e8 	ldr.w	lr, [pc, #488]	; 116c50 <md5_transform+0x470>
  116a68:	eb03 52f2 	add.w	r2, r3, r2, ror #23
  116a6c:	44c6      	add	lr, r8
  116a6e:	44e6      	add	lr, ip
  116a70:	ea83 0c02 	eor.w	ip, r3, r2
  116a74:	ea0c 0c01 	and.w	ip, ip, r1
  116a78:	ea8c 0c03 	eor.w	ip, ip, r3
  116a7c:	f8dd b018 	ldr.w	fp, [sp, #24]
  116a80:	44f4      	add	ip, lr
  116a82:	f8df e1d0 	ldr.w	lr, [pc, #464]	; 116c54 <md5_transform+0x474>
  116a86:	eb02 4cbc 	add.w	ip, r2, ip, ror #18
  116a8a:	44de      	add	lr, fp
  116a8c:	448e      	add	lr, r1
  116a8e:	ea82 010c 	eor.w	r1, r2, ip
  116a92:	4019      	ands	r1, r3
  116a94:	4051      	eors	r1, r2
  116a96:	f8dd b02c 	ldr.w	fp, [sp, #44]	; 0x2c
  116a9a:	4471      	add	r1, lr
  116a9c:	f8df e1b8 	ldr.w	lr, [pc, #440]	; 116c58 <md5_transform+0x478>
  116aa0:	eb0c 3131 	add.w	r1, ip, r1, ror #12
  116aa4:	44de      	add	lr, fp
  116aa6:	449e      	add	lr, r3
  116aa8:	ea8c 0301 	eor.w	r3, ip, r1
  116aac:	4013      	ands	r3, r2
  116aae:	ea83 030c 	eor.w	r3, r3, ip
  116ab2:	4473      	add	r3, lr
  116ab4:	f8df e1a4 	ldr.w	lr, [pc, #420]	; 116c5c <md5_transform+0x47c>
  116ab8:	eb01 63f3 	add.w	r3, r1, r3, ror #27
  116abc:	44d6      	add	lr, sl
  116abe:	4496      	add	lr, r2
  116ac0:	ea81 0203 	eor.w	r2, r1, r3
  116ac4:	ea02 020c 	and.w	r2, r2, ip
  116ac8:	404a      	eors	r2, r1
  116aca:	f8dd b014 	ldr.w	fp, [sp, #20]
  116ace:	4472      	add	r2, lr
  116ad0:	f8df e18c 	ldr.w	lr, [pc, #396]	; 116c60 <md5_transform+0x480>
  116ad4:	eb03 52f2 	add.w	r2, r3, r2, ror #23
  116ad8:	44de      	add	lr, fp
  116ada:	44e6      	add	lr, ip
  116adc:	ea83 0c02 	eor.w	ip, r3, r2
  116ae0:	ea0c 0c01 	and.w	ip, ip, r1
  116ae4:	ea8c 0c03 	eor.w	ip, ip, r3
  116ae8:	f8dd b028 	ldr.w	fp, [sp, #40]	; 0x28
  116aec:	44f4      	add	ip, lr
  116aee:	f8df e174 	ldr.w	lr, [pc, #372]	; 116c64 <md5_transform+0x484>
  116af2:	eb02 4cbc 	add.w	ip, r2, ip, ror #18
  116af6:	44de      	add	lr, fp
  116af8:	448e      	add	lr, r1
  116afa:	ea82 010c 	eor.w	r1, r2, ip
  116afe:	4019      	ands	r1, r3
  116b00:	4051      	eors	r1, r2
  116b02:	f8dd b03c 	ldr.w	fp, [sp, #60]	; 0x3c
  116b06:	4471      	add	r1, lr
  116b08:	f8df e15c 	ldr.w	lr, [pc, #348]	; 116c68 <md5_transform+0x488>
  116b0c:	eb0c 3131 	add.w	r1, ip, r1, ror #12
  116b10:	44de      	add	lr, fp
  116b12:	449e      	add	lr, r3
  116b14:	ea8c 0301 	eor.w	r3, ip, r1
  116b18:	4013      	ands	r3, r2
  116b1a:	ea83 030c 	eor.w	r3, r3, ip
  116b1e:	f8dd b010 	ldr.w	fp, [sp, #16]
  116b22:	4473      	add	r3, lr
  116b24:	f8df e144 	ldr.w	lr, [pc, #324]	; 116c6c <md5_transform+0x48c>
  116b28:	eb01 63f3 	add.w	r3, r1, r3, ror #27
  116b2c:	44de      	add	lr, fp
  116b2e:	4496      	add	lr, r2
  116b30:	ea81 0203 	eor.w	r2, r1, r3
  116b34:	ea02 020c 	and.w	r2, r2, ip
  116b38:	404a      	eors	r2, r1
  116b3a:	f8dd b024 	ldr.w	fp, [sp, #36]	; 0x24
  116b3e:	4472      	add	r2, lr
  116b40:	f8df e12c 	ldr.w	lr, [pc, #300]	; 116c70 <md5_transform+0x490>
  116b44:	eb03 52f2 	add.w	r2, r3, r2, ror #23
  116b48:	44de      	add	lr, fp
  116b4a:	44e6      	add	lr, ip
  116b4c:	ea83 0c02 	eor.w	ip, r3, r2
  116b50:	ea0c 0c01 	and.w	ip, ip, r1
  116b54:	ea8c 0c03 	eor.w	ip, ip, r3
  116b58:	f8df b118 	ldr.w	fp, [pc, #280]	; 116c74 <md5_transform+0x494>
  116b5c:	44f4      	add	ip, lr
  116b5e:	eb02 4cbc 	add.w	ip, r2, ip, ror #18
  116b62:	44cb      	add	fp, r9
  116b64:	448b      	add	fp, r1
  116b66:	ea82 010c 	eor.w	r1, r2, ip
  116b6a:	ea03 0e01 	and.w	lr, r3, r1
  116b6e:	ea8e 0e02 	eor.w	lr, lr, r2
  116b72:	44de      	add	lr, fp
  116b74:	f8dd b01c 	ldr.w	fp, [sp, #28]
  116b78:	eb0c 3e3e 	add.w	lr, ip, lr, ror #12
  116b7c:	f5ab 2bb8 	sub.w	fp, fp, #376832	; 0x5c000
  116b80:	f2ab 6bbe 	subw	fp, fp, #1726	; 0x6be
  116b84:	449b      	add	fp, r3
  116b86:	ea8e 0101 	eor.w	r1, lr, r1
  116b8a:	4459      	add	r1, fp
  116b8c:	4b3a      	ldr	r3, [pc, #232]	; (116c78 <md5_transform+0x498>)
  116b8e:	f8dd b028 	ldr.w	fp, [sp, #40]	; 0x28
  116b92:	eb0e 7131 	add.w	r1, lr, r1, ror #28
  116b96:	445b      	add	r3, fp
  116b98:	441a      	add	r2, r3
  116b9a:	ea8c 030e 	eor.w	r3, ip, lr
  116b9e:	404b      	eors	r3, r1
  116ba0:	f8dd b034 	ldr.w	fp, [sp, #52]	; 0x34
  116ba4:	4413      	add	r3, r2
  116ba6:	4a35      	ldr	r2, [pc, #212]	; (116c7c <md5_transform+0x49c>)
  116ba8:	eb01 5373 	add.w	r3, r1, r3, ror #21
  116bac:	445a      	add	r2, fp
  116bae:	4462      	add	r2, ip
  116bb0:	ea8e 0c01 	eor.w	ip, lr, r1
  116bb4:	ea8c 0c03 	eor.w	ip, ip, r3
  116bb8:	4494      	add	ip, r2
  116bba:	4a31      	ldr	r2, [pc, #196]	; (116c80 <md5_transform+0x4a0>)
  116bbc:	eb03 4c3c 	add.w	ip, r3, ip, ror #16
  116bc0:	4452      	add	r2, sl
  116bc2:	4496      	add	lr, r2
  116bc4:	ea81 0203 	eor.w	r2, r1, r3
  116bc8:	ea82 020c 	eor.w	r2, r2, ip
  116bcc:	f8dd b00c 	ldr.w	fp, [sp, #12]
  116bd0:	4472      	add	r2, lr
  116bd2:	f8df e0b0 	ldr.w	lr, [pc, #176]	; 116c84 <md5_transform+0x4a4>
  116bd6:	eb0c 2272 	add.w	r2, ip, r2, ror #9
  116bda:	44de      	add	lr, fp
  116bdc:	448e      	add	lr, r1
  116bde:	ea83 010c 	eor.w	r1, r3, ip
  116be2:	4051      	eors	r1, r2
  116be4:	f8dd b018 	ldr.w	fp, [sp, #24]
  116be8:	4471      	add	r1, lr
  116bea:	f8df e09c 	ldr.w	lr, [pc, #156]	; 116c88 <md5_transform+0x4a8>
  116bee:	eb02 7131 	add.w	r1, r2, r1, ror #28
  116bf2:	44de      	add	lr, fp
  116bf4:	4473      	add	r3, lr
  116bf6:	ea8c 0e02 	eor.w	lr, ip, r2
  116bfa:	e047      	b.n	116c8c <md5_transform+0x4ac>
  116bfc:	d76aa478 	.word	0xd76aa478
  116c00:	e8c7b756 	.word	0xe8c7b756
  116c04:	242070db 	.word	0x242070db
  116c08:	c1bdceee 	.word	0xc1bdceee
  116c0c:	f57c0faf 	.word	0xf57c0faf
  116c10:	4787c62a 	.word	0x4787c62a
  116c14:	a8304613 	.word	0xa8304613
  116c18:	fd469501 	.word	0xfd469501
  116c1c:	698098d8 	.word	0x698098d8
  116c20:	8b44f7af 	.word	0x8b44f7af
  116c24:	895cd7be 	.word	0x895cd7be
  116c28:	6b901122 	.word	0x6b901122
  116c2c:	fd987193 	.word	0xfd987193
  116c30:	a679438e 	.word	0xa679438e
  116c34:	49b40821 	.word	0x49b40821
  116c38:	f61e2562 	.word	0xf61e2562
  116c3c:	c040b340 	.word	0xc040b340
  116c40:	265e5a51 	.word	0x265e5a51
  116c44:	e9b6c7aa 	.word	0xe9b6c7aa
  116c48:	d62f105d 	.word	0xd62f105d
  116c4c:	02441453 	.word	0x02441453
  116c50:	d8a1e681 	.word	0xd8a1e681
  116c54:	e7d3fbc8 	.word	0xe7d3fbc8
  116c58:	21e1cde6 	.word	0x21e1cde6
  116c5c:	c33707d6 	.word	0xc33707d6
  116c60:	f4d50d87 	.word	0xf4d50d87
  116c64:	455a14ed 	.word	0x455a14ed
  116c68:	a9e3e905 	.word	0xa9e3e905
  116c6c:	fcefa3f8 	.word	0xfcefa3f8
  116c70:	676f02d9 	.word	0x676f02d9
  116c74:	8d2a4c8a 	.word	0x8d2a4c8a
  116c78:	8771f681 	.word	0x8771f681
  116c7c:	6d9d6122 	.word	0x6d9d6122
  116c80:	fde5380c 	.word	0xfde5380c
  116c84:	a4beea44 	.word	0xa4beea44
  116c88:	4bdecfa9 	.word	0x4bdecfa9
  116c8c:	ea8e 0e01 	eor.w	lr, lr, r1
  116c90:	f8dd b024 	ldr.w	fp, [sp, #36]	; 0x24
  116c94:	449e      	add	lr, r3
  116c96:	4b9c      	ldr	r3, [pc, #624]	; (116f08 <md5_transform+0x728>)
  116c98:	eb01 5e7e 	add.w	lr, r1, lr, ror #21
  116c9c:	445b      	add	r3, fp
  116c9e:	449c      	add	ip, r3
  116ca0:	ea82 0301 	eor.w	r3, r2, r1
  116ca4:	ea83 030e 	eor.w	r3, r3, lr
  116ca8:	4463      	add	r3, ip
  116caa:	f8df c260 	ldr.w	ip, [pc, #608]	; 116f0c <md5_transform+0x72c>
  116cae:	eb0e 4333 	add.w	r3, lr, r3, ror #16
  116cb2:	44ac      	add	ip, r5
  116cb4:	4494      	add	ip, r2
  116cb6:	ea81 020e 	eor.w	r2, r1, lr
  116cba:	405a      	eors	r2, r3
  116cbc:	f8dd b03c 	ldr.w	fp, [sp, #60]	; 0x3c
  116cc0:	4462      	add	r2, ip
  116cc2:	f8df c24c 	ldr.w	ip, [pc, #588]	; 116f10 <md5_transform+0x730>
  116cc6:	eb03 2272 	add.w	r2, r3, r2, ror #9
  116cca:	44dc      	add	ip, fp
  116ccc:	4461      	add	r1, ip
  116cce:	ea8e 0c03 	eor.w	ip, lr, r3
  116cd2:	ea8c 0c02 	eor.w	ip, ip, r2
  116cd6:	f8dd b008 	ldr.w	fp, [sp, #8]
  116cda:	448c      	add	ip, r1
  116cdc:	498d      	ldr	r1, [pc, #564]	; (116f14 <md5_transform+0x734>)
  116cde:	eb02 7c3c 	add.w	ip, r2, ip, ror #28
  116ce2:	4459      	add	r1, fp
  116ce4:	448e      	add	lr, r1
  116ce6:	ea83 0102 	eor.w	r1, r3, r2
  116cea:	ea81 010c 	eor.w	r1, r1, ip
  116cee:	f8dd b014 	ldr.w	fp, [sp, #20]
  116cf2:	4471      	add	r1, lr
  116cf4:	f8df e220 	ldr.w	lr, [pc, #544]	; 116f18 <md5_transform+0x738>
  116cf8:	eb0c 5171 	add.w	r1, ip, r1, ror #21
  116cfc:	44de      	add	lr, fp
  116cfe:	449e      	add	lr, r3
  116d00:	ea82 030c 	eor.w	r3, r2, ip
  116d04:	404b      	eors	r3, r1
  116d06:	f8dd b020 	ldr.w	fp, [sp, #32]
  116d0a:	4473      	add	r3, lr
  116d0c:	f8df e20c 	ldr.w	lr, [pc, #524]	; 116f1c <md5_transform+0x73c>
  116d10:	eb01 4333 	add.w	r3, r1, r3, ror #16
  116d14:	44de      	add	lr, fp
  116d16:	4472      	add	r2, lr
  116d18:	ea8c 0e01 	eor.w	lr, ip, r1
  116d1c:	ea8e 0e03 	eor.w	lr, lr, r3
  116d20:	f8dd b02c 	ldr.w	fp, [sp, #44]	; 0x2c
  116d24:	4496      	add	lr, r2
  116d26:	4a7e      	ldr	r2, [pc, #504]	; (116f20 <md5_transform+0x740>)
  116d28:	eb03 2e7e 	add.w	lr, r3, lr, ror #9
  116d2c:	445a      	add	r2, fp
  116d2e:	4494      	add	ip, r2
  116d30:	ea81 0203 	eor.w	r2, r1, r3
  116d34:	ea82 020e 	eor.w	r2, r2, lr
  116d38:	4462      	add	r2, ip
  116d3a:	f8df c1e8 	ldr.w	ip, [pc, #488]	; 116f24 <md5_transform+0x744>
  116d3e:	eb0e 7232 	add.w	r2, lr, r2, ror #28
  116d42:	44cc      	add	ip, r9
  116d44:	448c      	add	ip, r1
  116d46:	ea83 010e 	eor.w	r1, r3, lr
  116d4a:	4051      	eors	r1, r2
  116d4c:	4461      	add	r1, ip
  116d4e:	f8df c1d8 	ldr.w	ip, [pc, #472]	; 116f28 <md5_transform+0x748>
  116d52:	eb02 5171 	add.w	r1, r2, r1, ror #21
  116d56:	44c4      	add	ip, r8
  116d58:	4463      	add	r3, ip
  116d5a:	ea8e 0c02 	eor.w	ip, lr, r2
  116d5e:	ea8c 0c01 	eor.w	ip, ip, r1
  116d62:	f8dd b010 	ldr.w	fp, [sp, #16]
  116d66:	449c      	add	ip, r3
  116d68:	4b70      	ldr	r3, [pc, #448]	; (116f2c <md5_transform+0x74c>)
  116d6a:	eb01 4c3c 	add.w	ip, r1, ip, ror #16
  116d6e:	445b      	add	r3, fp
  116d70:	449e      	add	lr, r3
  116d72:	ea82 0301 	eor.w	r3, r2, r1
  116d76:	ea83 030c 	eor.w	r3, r3, ip
  116d7a:	f8dd b008 	ldr.w	fp, [sp, #8]
  116d7e:	4473      	add	r3, lr
  116d80:	f8df e1ac 	ldr.w	lr, [pc, #428]	; 116f30 <md5_transform+0x750>
  116d84:	eb0c 2373 	add.w	r3, ip, r3, ror #9
  116d88:	44de      	add	lr, fp
  116d8a:	4496      	add	lr, r2
  116d8c:	ea63 0201 	orn	r2, r3, r1
  116d90:	ea82 020c 	eor.w	r2, r2, ip
  116d94:	f8dd b024 	ldr.w	fp, [sp, #36]	; 0x24
  116d98:	4472      	add	r2, lr
  116d9a:	f8df e198 	ldr.w	lr, [pc, #408]	; 116f34 <md5_transform+0x754>
  116d9e:	eb03 62b2 	add.w	r2, r3, r2, ror #26
  116da2:	44de      	add	lr, fp
  116da4:	448e      	add	lr, r1
  116da6:	ea62 010c 	orn	r1, r2, ip
  116daa:	4059      	eors	r1, r3
  116dac:	4471      	add	r1, lr
  116dae:	f8df e188 	ldr.w	lr, [pc, #392]	; 116f38 <md5_transform+0x758>
  116db2:	eb02 51b1 	add.w	r1, r2, r1, ror #22
  116db6:	44d6      	add	lr, sl
  116db8:	44e6      	add	lr, ip
  116dba:	ea61 0c03 	orn	ip, r1, r3
  116dbe:	ea8c 0c02 	eor.w	ip, ip, r2
  116dc2:	f8dd a01c 	ldr.w	sl, [sp, #28]
  116dc6:	44f4      	add	ip, lr
  116dc8:	f8df e170 	ldr.w	lr, [pc, #368]	; 116f3c <md5_transform+0x75c>
  116dcc:	eb01 4c7c 	add.w	ip, r1, ip, ror #17
  116dd0:	44d6      	add	lr, sl
  116dd2:	449e      	add	lr, r3
  116dd4:	ea6c 0302 	orn	r3, ip, r2
  116dd8:	404b      	eors	r3, r1
  116dda:	4473      	add	r3, lr
  116ddc:	f8df e160 	ldr.w	lr, [pc, #352]	; 116f40 <md5_transform+0x760>
  116de0:	eb0c 23f3 	add.w	r3, ip, r3, ror #11
  116de4:	44ce      	add	lr, r9
  116de6:	4496      	add	lr, r2
  116de8:	ea63 0201 	orn	r2, r3, r1
  116dec:	ea82 020c 	eor.w	r2, r2, ip
  116df0:	f8dd 9014 	ldr.w	r9, [sp, #20]
  116df4:	4472      	add	r2, lr
  116df6:	f5a5 1580 	sub.w	r5, r5, #1048576	; 0x100000
  116dfa:	f8df e148 	ldr.w	lr, [pc, #328]	; 116f44 <md5_transform+0x764>
  116dfe:	eb03 62b2 	add.w	r2, r3, r2, ror #26
  116e02:	f6a5 3583 	subw	r5, r5, #2947	; 0xb83
  116e06:	4465      	add	r5, ip
  116e08:	44ce      	add	lr, r9
  116e0a:	ea62 0c0c 	orn	ip, r2, ip
  116e0e:	448e      	add	lr, r1
  116e10:	ea8c 0c03 	eor.w	ip, ip, r3
  116e14:	44f4      	add	ip, lr
  116e16:	eb02 5cbc 	add.w	ip, r2, ip, ror #22
  116e1a:	ea6c 0103 	orn	r1, ip, r3
  116e1e:	4051      	eors	r1, r2
  116e20:	f8dd e00c 	ldr.w	lr, [sp, #12]
  116e24:	4429      	add	r1, r5
  116e26:	4d48      	ldr	r5, [pc, #288]	; (116f48 <md5_transform+0x768>)
  116e28:	eb0c 4171 	add.w	r1, ip, r1, ror #17
  116e2c:	4475      	add	r5, lr
  116e2e:	441d      	add	r5, r3
  116e30:	ea61 0302 	orn	r3, r1, r2
  116e34:	ea83 030c 	eor.w	r3, r3, ip
  116e38:	f8dd e028 	ldr.w	lr, [sp, #40]	; 0x28
  116e3c:	442b      	add	r3, r5
  116e3e:	4d43      	ldr	r5, [pc, #268]	; (116f4c <md5_transform+0x76c>)
  116e40:	eb01 23f3 	add.w	r3, r1, r3, ror #11
  116e44:	4475      	add	r5, lr
  116e46:	4415      	add	r5, r2
  116e48:	ea63 020c 	orn	r2, r3, ip
  116e4c:	404a      	eors	r2, r1
  116e4e:	442a      	add	r2, r5
  116e50:	4d3f      	ldr	r5, [pc, #252]	; (116f50 <md5_transform+0x770>)
  116e52:	eb03 62b2 	add.w	r2, r3, r2, ror #26
  116e56:	4445      	add	r5, r8
  116e58:	4465      	add	r5, ip
  116e5a:	ea62 0c01 	orn	ip, r2, r1
  116e5e:	ea8c 0c03 	eor.w	ip, ip, r3
  116e62:	f8dd e020 	ldr.w	lr, [sp, #32]
  116e66:	4465      	add	r5, ip
  116e68:	f8df c0e8 	ldr.w	ip, [pc, #232]	; 116f54 <md5_transform+0x774>
  116e6c:	eb02 55b5 	add.w	r5, r2, r5, ror #22
  116e70:	44f4      	add	ip, lr
  116e72:	448c      	add	ip, r1
  116e74:	ea65 0103 	orn	r1, r5, r3
  116e78:	4051      	eors	r1, r2
  116e7a:	f8dd e03c 	ldr.w	lr, [sp, #60]	; 0x3c
  116e7e:	4461      	add	r1, ip
  116e80:	f8df c0d4 	ldr.w	ip, [pc, #212]	; 116f58 <md5_transform+0x778>
  116e84:	eb05 4171 	add.w	r1, r5, r1, ror #17
  116e88:	44f4      	add	ip, lr
  116e8a:	4463      	add	r3, ip
  116e8c:	ea61 0c02 	orn	ip, r1, r2
  116e90:	ea8c 0c05 	eor.w	ip, ip, r5
  116e94:	f8dd e018 	ldr.w	lr, [sp, #24]
  116e98:	449c      	add	ip, r3
  116e9a:	4b30      	ldr	r3, [pc, #192]	; (116f5c <md5_transform+0x77c>)
  116e9c:	eb01 2cfc 	add.w	ip, r1, ip, ror #11
  116ea0:	4473      	add	r3, lr
  116ea2:	441a      	add	r2, r3
  116ea4:	ea6c 0305 	orn	r3, ip, r5
  116ea8:	404b      	eors	r3, r1
  116eaa:	4413      	add	r3, r2
  116eac:	9a01      	ldr	r2, [sp, #4]
  116eae:	eb0c 63b3 	add.w	r3, ip, r3, ror #26
  116eb2:	441a      	add	r2, r3
  116eb4:	f8dd e034 	ldr.w	lr, [sp, #52]	; 0x34
  116eb8:	6002      	str	r2, [r0, #0]
  116eba:	4a29      	ldr	r2, [pc, #164]	; (116f60 <md5_transform+0x780>)
  116ebc:	4472      	add	r2, lr
  116ebe:	4415      	add	r5, r2
  116ec0:	ea63 0201 	orn	r2, r3, r1
  116ec4:	ea82 020c 	eor.w	r2, r2, ip
  116ec8:	442a      	add	r2, r5
  116eca:	eb03 52b2 	add.w	r2, r3, r2, ror #22
  116ece:	4417      	add	r7, r2
  116ed0:	60c7      	str	r7, [r0, #12]
  116ed2:	4d24      	ldr	r5, [pc, #144]	; (116f64 <md5_transform+0x784>)
  116ed4:	9f04      	ldr	r7, [sp, #16]
  116ed6:	443d      	add	r5, r7
  116ed8:	440d      	add	r5, r1
  116eda:	ea62 010c 	orn	r1, r2, ip
  116ede:	4059      	eors	r1, r3
  116ee0:	4429      	add	r1, r5
  116ee2:	eb02 4171 	add.w	r1, r2, r1, ror #17
  116ee6:	ea61 0303 	orn	r3, r1, r3
  116eea:	440e      	add	r6, r1
  116eec:	4053      	eors	r3, r2
  116eee:	440c      	add	r4, r1
  116ef0:	4a1d      	ldr	r2, [pc, #116]	; (116f68 <md5_transform+0x788>)
  116ef2:	990b      	ldr	r1, [sp, #44]	; 0x2c
  116ef4:	6086      	str	r6, [r0, #8]
  116ef6:	440a      	add	r2, r1
  116ef8:	4462      	add	r2, ip
  116efa:	4413      	add	r3, r2
  116efc:	eb04 24f3 	add.w	r4, r4, r3, ror #11
  116f00:	6044      	str	r4, [r0, #4]
  116f02:	b013      	add	sp, #76	; 0x4c
  116f04:	e8bd 8ff0 	ldmia.w	sp!, {r4, r5, r6, r7, r8, r9, sl, fp, pc}
  116f08:	f6bb4b60 	.word	0xf6bb4b60
  116f0c:	bebfbc70 	.word	0xbebfbc70
  116f10:	289b7ec6 	.word	0x289b7ec6
  116f14:	eaa127fa 	.word	0xeaa127fa
  116f18:	d4ef3085 	.word	0xd4ef3085
  116f1c:	04881d05 	.word	0x04881d05
  116f20:	d9d4d039 	.word	0xd9d4d039
  116f24:	e6db99e5 	.word	0xe6db99e5
  116f28:	1fa27cf8 	.word	0x1fa27cf8
  116f2c:	c4ac5665 	.word	0xc4ac5665
  116f30:	f4292244 	.word	0xf4292244
  116f34:	432aff97 	.word	0x432aff97
  116f38:	ab9423a7 	.word	0xab9423a7
  116f3c:	fc93a039 	.word	0xfc93a039
  116f40:	655b59c3 	.word	0x655b59c3
  116f44:	8f0ccc92 	.word	0x8f0ccc92
  116f48:	85845dd1 	.word	0x85845dd1
  116f4c:	6fa87e4f 	.word	0x6fa87e4f
  116f50:	fe2ce6e0 	.word	0xfe2ce6e0
  116f54:	a3014314 	.word	0xa3014314
  116f58:	4e0811a1 	.word	0x4e0811a1
  116f5c:	f7537e82 	.word	0xf7537e82
  116f60:	bd3af235 	.word	0xbd3af235
  116f64:	2ad7d2bb 	.word	0x2ad7d2bb
  116f68:	eb86d391 	.word	0xeb86d391

00116f6c <rt_md5_init>:
  116f6c:	2300      	movs	r3, #0
  116f6e:	b430      	push	{r4, r5}
  116f70:	4905      	ldr	r1, [pc, #20]	; (116f88 <rt_md5_init+0x1c>)
  116f72:	4c06      	ldr	r4, [pc, #24]	; (116f8c <rt_md5_init+0x20>)
  116f74:	4d06      	ldr	r5, [pc, #24]	; (116f90 <rt_md5_init+0x24>)
  116f76:	4a07      	ldr	r2, [pc, #28]	; (116f94 <rt_md5_init+0x28>)
  116f78:	e9c0 4100 	strd	r4, r1, [r0]
  116f7c:	60c5      	str	r5, [r0, #12]
  116f7e:	6103      	str	r3, [r0, #16]
  116f80:	6143      	str	r3, [r0, #20]
  116f82:	6082      	str	r2, [r0, #8]
  116f84:	bc30      	pop	{r4, r5}
  116f86:	4770      	bx	lr
  116f88:	efcdab89 	.word	0xefcdab89
  116f8c:	67452301 	.word	0x67452301
  116f90:	10325476 	.word	0x10325476
  116f94:	98badcfe 	.word	0x98badcfe

00116f98 <rt_md5_append>:
  116f98:	b5f8      	push	{r3, r4, r5, r6, r7, lr}
  116f9a:	4616      	mov	r6, r2
  116f9c:	6903      	ldr	r3, [r0, #16]
  116f9e:	6942      	ldr	r2, [r0, #20]
  116fa0:	f3c3 07c5 	ubfx	r7, r3, #3, #6
  116fa4:	460c      	mov	r4, r1
  116fa6:	00f1      	lsls	r1, r6, #3
  116fa8:	185b      	adds	r3, r3, r1
  116faa:	f1c7 0540 	rsb	r5, r7, #64	; 0x40
  116fae:	eb42 7256 	adc.w	r2, r2, r6, lsr #29
  116fb2:	42ae      	cmp	r6, r5
  116fb4:	6103      	str	r3, [r0, #16]
  116fb6:	6142      	str	r2, [r0, #20]
  116fb8:	d20f      	bcs.n	116fda <rt_md5_append+0x42>
  116fba:	2500      	movs	r5, #0
  116fbc:	3718      	adds	r7, #24
  116fbe:	19c3      	adds	r3, r0, r7
  116fc0:	b156      	cbz	r6, 116fd8 <rt_md5_append+0x40>
  116fc2:	f046 e001 	dls	lr, r6
  116fc6:	3d01      	subs	r5, #1
  116fc8:	1961      	adds	r1, r4, r5
  116fca:	3b01      	subs	r3, #1
  116fcc:	f811 2f01 	ldrb.w	r2, [r1, #1]!
  116fd0:	f803 2f01 	strb.w	r2, [r3, #1]!
  116fd4:	f00f c007 	le	lr, 116fcc <rt_md5_append+0x34>
  116fd8:	bdf8      	pop	{r3, r4, r5, r6, r7, pc}
  116fda:	f045 e001 	dls	lr, r5
  116fde:	f107 0317 	add.w	r3, r7, #23
  116fe2:	4403      	add	r3, r0
  116fe4:	1e62      	subs	r2, r4, #1
  116fe6:	f812 1f01 	ldrb.w	r1, [r2, #1]!
  116fea:	f803 1f01 	strb.w	r1, [r3, #1]!
  116fee:	f00f c007 	le	lr, 116fe6 <rt_md5_append+0x4e>
  116ff2:	f100 0118 	add.w	r1, r0, #24
  116ff6:	f7ff fbf3 	bl	1167e0 <md5_transform>
  116ffa:	f1c7 037f 	rsb	r3, r7, #127	; 0x7f
  116ffe:	429e      	cmp	r6, r3
  117000:	d90b      	bls.n	11701a <rt_md5_append+0x82>
  117002:	1961      	adds	r1, r4, r5
  117004:	f7ff fbec 	bl	1167e0 <md5_transform>
  117008:	462b      	mov	r3, r5
  11700a:	337f      	adds	r3, #127	; 0x7f
  11700c:	429e      	cmp	r6, r3
  11700e:	f105 0540 	add.w	r5, r5, #64	; 0x40
  117012:	d8f6      	bhi.n	117002 <rt_md5_append+0x6a>
  117014:	2718      	movs	r7, #24
  117016:	1b76      	subs	r6, r6, r5
  117018:	e7d1      	b.n	116fbe <rt_md5_append+0x26>
  11701a:	3f40      	subs	r7, #64	; 0x40
  11701c:	443e      	add	r6, r7
  11701e:	2718      	movs	r7, #24
  117020:	e7cd      	b.n	116fbe <rt_md5_append+0x26>
  117022:	bf00      	nop

00117024 <rt_md5_final>:
  117024:	b530      	push	{r4, r5, lr}
  117026:	460c      	mov	r4, r1
  117028:	4605      	mov	r5, r0
  11702a:	b083      	sub	sp, #12
  11702c:	2208      	movs	r2, #8
  11702e:	4668      	mov	r0, sp
  117030:	3110      	adds	r1, #16
  117032:	f7ff fbb5 	bl	1167a0 <md5_encode>
  117036:	6923      	ldr	r3, [r4, #16]
  117038:	4620      	mov	r0, r4
  11703a:	f3c3 03c5 	ubfx	r3, r3, #3, #6
  11703e:	2b37      	cmp	r3, #55	; 0x37
  117040:	f1c3 0238 	rsb	r2, r3, #56	; 0x38
  117044:	f1c3 0378 	rsb	r3, r3, #120	; 0x78
  117048:	bf88      	it	hi
  11704a:	461a      	movhi	r2, r3
  11704c:	490b      	ldr	r1, [pc, #44]	; (11707c <rt_md5_final+0x58>)
  11704e:	f7ff ffa3 	bl	116f98 <rt_md5_append>
  117052:	2208      	movs	r2, #8
  117054:	4669      	mov	r1, sp
  117056:	f7ff ff9f 	bl	116f98 <rt_md5_append>
  11705a:	4621      	mov	r1, r4
  11705c:	2210      	movs	r2, #16
  11705e:	4628      	mov	r0, r5
  117060:	f7ff fb9e 	bl	1167a0 <md5_encode>
  117064:	f04f 0e16 	mov.w	lr, #22
  117068:	4621      	mov	r1, r4
  11706a:	2300      	movs	r3, #0
  11706c:	f04e e001 	dls	lr, lr
  117070:	f841 3b04 	str.w	r3, [r1], #4
  117074:	f00f c005 	le	lr, 117070 <rt_md5_final+0x4c>
  117078:	b003      	add	sp, #12
  11707a:	bd30      	pop	{r4, r5, pc}
  11707c:	0013cafc 	.word	0x0013cafc

00117080 <rt_md5_hmac>:
  117080:	e92d 47f0 	stmdb	sp!, {r4, r5, r6, r7, r8, r9, sl, lr}
  117084:	2b40      	cmp	r3, #64	; 0x40
  117086:	b0b8      	sub	sp, #224	; 0xe0
  117088:	4606      	mov	r6, r0
  11708a:	460f      	mov	r7, r1
  11708c:	4692      	mov	sl, r2
  11708e:	9d40      	ldr	r5, [sp, #256]	; 0x100
  117090:	f300 80a0 	bgt.w	1171d4 <rt_md5_hmac+0x154>
  117094:	ac22      	add	r4, sp, #136	; 0x88
  117096:	f04f 0e41 	mov.w	lr, #65	; 0x41
  11709a:	f04f 0c00 	mov.w	ip, #0
  11709e:	4668      	mov	r0, sp
  1170a0:	f04e e001 	dls	lr, lr
  1170a4:	f10d 31ff 	add.w	r1, sp, #4294967295	; 0xffffffff
  1170a8:	f801 cf01 	strb.w	ip, [r1, #1]!
  1170ac:	f00f c005 	le	lr, 1170a8 <rt_md5_hmac+0x28>
  1170b0:	f04f 0e41 	mov.w	lr, #65	; 0x41
  1170b4:	2200      	movs	r2, #0
  1170b6:	f04e e001 	dls	lr, lr
  1170ba:	f10d 0c44 	add.w	ip, sp, #68	; 0x44
  1170be:	f10d 0143 	add.w	r1, sp, #67	; 0x43
  1170c2:	f801 2f01 	strb.w	r2, [r1, #1]!
  1170c6:	f00f c005 	le	lr, 1170c2 <rt_md5_hmac+0x42>
  1170ca:	b1ab      	cbz	r3, 1170f8 <rt_md5_hmac+0x78>
  1170cc:	f10a 31ff 	add.w	r1, sl, #4294967295	; 0xffffffff
  1170d0:	4688      	mov	r8, r1
  1170d2:	f043 e001 	dls	lr, r3
  1170d6:	18ca      	adds	r2, r1, r3
  1170d8:	f818 3f01 	ldrb.w	r3, [r8, #1]!
  1170dc:	f800 3b01 	strb.w	r3, [r0], #1
  1170e0:	f00f c007 	le	lr, 1170d8 <rt_md5_hmac+0x58>
  1170e4:	eba2 0e01 	sub.w	lr, r2, r1
  1170e8:	f04e e001 	dls	lr, lr
  1170ec:	f811 3f01 	ldrb.w	r3, [r1, #1]!
  1170f0:	f80c 3b01 	strb.w	r3, [ip], #1
  1170f4:	f00f c007 	le	lr, 1170ec <rt_md5_hmac+0x6c>
  1170f8:	f04f 0e10 	mov.w	lr, #16
  1170fc:	f1ad 0004 	sub.w	r0, sp, #4
  117100:	4602      	mov	r2, r0
  117102:	f04e e001 	dls	lr, lr
  117106:	a911      	add	r1, sp, #68	; 0x44
  117108:	f852 3f04 	ldr.w	r3, [r2, #4]!
  11710c:	f083 3336 	eor.w	r3, r3, #909522486	; 0x36363636
  117110:	6013      	str	r3, [r2, #0]
  117112:	680b      	ldr	r3, [r1, #0]
  117114:	f083 335c 	eor.w	r3, r3, #1549556828	; 0x5c5c5c5c
  117118:	f841 3b04 	str.w	r3, [r1], #4
  11711c:	f00f c00d 	le	lr, 117108 <rt_md5_hmac+0x88>
  117120:	f04f 0e10 	mov.w	lr, #16
  117124:	4b3c      	ldr	r3, [pc, #240]	; (117218 <rt_md5_hmac+0x198>)
  117126:	f44f 7200 	mov.w	r2, #512	; 0x200
  11712a:	9322      	str	r3, [sp, #136]	; 0x88
  11712c:	f103 3388 	add.w	r3, r3, #2290649224	; 0x88888888
  117130:	9323      	str	r3, [sp, #140]	; 0x8c
  117132:	f103 4329 	add.w	r3, r3, #2835349504	; 0xa9000000
  117136:	f5a3 1396 	sub.w	r3, r3, #1228800	; 0x12c000
  11713a:	f6a3 638b 	subw	r3, r3, #3723	; 0xe8b
  11713e:	9324      	str	r3, [sp, #144]	; 0x90
  117140:	f1a3 3388 	sub.w	r3, r3, #2290649224	; 0x88888888
  117144:	9325      	str	r3, [sp, #148]	; 0x94
  117146:	2300      	movs	r3, #0
  117148:	f04e e001 	dls	lr, lr
  11714c:	e9cd 2326 	strd	r2, r3, [sp, #152]	; 0x98
  117150:	a928      	add	r1, sp, #160	; 0xa0
  117152:	f850 3f04 	ldr.w	r3, [r0, #4]!
  117156:	f841 3b04 	str.w	r3, [r1], #4
  11715a:	f00f c007 	le	lr, 117152 <rt_md5_hmac+0xd2>
  11715e:	4620      	mov	r0, r4
  117160:	a928      	add	r1, sp, #160	; 0xa0
  117162:	f7ff fb3d 	bl	1167e0 <md5_transform>
  117166:	463a      	mov	r2, r7
  117168:	4631      	mov	r1, r6
  11716a:	f7ff ff15 	bl	116f98 <rt_md5_append>
  11716e:	4621      	mov	r1, r4
  117170:	4628      	mov	r0, r5
  117172:	f7ff ff57 	bl	117024 <rt_md5_final>
  117176:	f04f 0e10 	mov.w	lr, #16
  11717a:	f44f 7000 	mov.w	r0, #512	; 0x200
  11717e:	2100      	movs	r1, #0
  117180:	f04e e001 	dls	lr, lr
  117184:	4a24      	ldr	r2, [pc, #144]	; (117218 <rt_md5_hmac+0x198>)
  117186:	e9cd 0126 	strd	r0, r1, [sp, #152]	; 0x98
  11718a:	9222      	str	r2, [sp, #136]	; 0x88
  11718c:	f102 3288 	add.w	r2, r2, #2290649224	; 0x88888888
  117190:	9223      	str	r2, [sp, #140]	; 0x8c
  117192:	f102 4229 	add.w	r2, r2, #2835349504	; 0xa9000000
  117196:	f5a2 1296 	sub.w	r2, r2, #1228800	; 0x12c000
  11719a:	f6a2 628b 	subw	r2, r2, #3723	; 0xe8b
  11719e:	9224      	str	r2, [sp, #144]	; 0x90
  1171a0:	f1a2 3288 	sub.w	r2, r2, #2290649224	; 0x88888888
  1171a4:	9225      	str	r2, [sp, #148]	; 0x94
  1171a6:	ab10      	add	r3, sp, #64	; 0x40
  1171a8:	aa28      	add	r2, sp, #160	; 0xa0
  1171aa:	f853 1f04 	ldr.w	r1, [r3, #4]!
  1171ae:	f842 1b04 	str.w	r1, [r2], #4
  1171b2:	f00f c007 	le	lr, 1171aa <rt_md5_hmac+0x12a>
  1171b6:	4620      	mov	r0, r4
  1171b8:	a928      	add	r1, sp, #160	; 0xa0
  1171ba:	f7ff fb11 	bl	1167e0 <md5_transform>
  1171be:	2210      	movs	r2, #16
  1171c0:	4629      	mov	r1, r5
  1171c2:	f7ff fee9 	bl	116f98 <rt_md5_append>
  1171c6:	4621      	mov	r1, r4
  1171c8:	4628      	mov	r0, r5
  1171ca:	f7ff ff2b 	bl	117024 <rt_md5_final>
  1171ce:	b038      	add	sp, #224	; 0xe0
  1171d0:	e8bd 87f0 	ldmia.w	sp!, {r4, r5, r6, r7, r8, r9, sl, pc}
  1171d4:	f04f 0800 	mov.w	r8, #0
  1171d8:	f04f 0900 	mov.w	r9, #0
  1171dc:	461a      	mov	r2, r3
  1171de:	4b0e      	ldr	r3, [pc, #56]	; (117218 <rt_md5_hmac+0x198>)
  1171e0:	ac22      	add	r4, sp, #136	; 0x88
  1171e2:	9322      	str	r3, [sp, #136]	; 0x88
  1171e4:	f103 3388 	add.w	r3, r3, #2290649224	; 0x88888888
  1171e8:	9323      	str	r3, [sp, #140]	; 0x8c
  1171ea:	f103 4329 	add.w	r3, r3, #2835349504	; 0xa9000000
  1171ee:	f5a3 1396 	sub.w	r3, r3, #1228800	; 0x12c000
  1171f2:	f6a3 638b 	subw	r3, r3, #3723	; 0xe8b
  1171f6:	4651      	mov	r1, sl
  1171f8:	4620      	mov	r0, r4
  1171fa:	9324      	str	r3, [sp, #144]	; 0x90
  1171fc:	f1a3 3388 	sub.w	r3, r3, #2290649224	; 0x88888888
  117200:	9325      	str	r3, [sp, #148]	; 0x94
  117202:	e9cd 8926 	strd	r8, r9, [sp, #152]	; 0x98
  117206:	f7ff fec7 	bl	116f98 <rt_md5_append>
  11720a:	4621      	mov	r1, r4
  11720c:	4650      	mov	r0, sl
  11720e:	f7ff ff09 	bl	117024 <rt_md5_final>
  117212:	2310      	movs	r3, #16
  117214:	e73f      	b.n	117096 <rt_md5_hmac+0x16>
  117216:	bf00      	nop
  117218:	67452301 	.word	0x67452301

0011721c <RC4>:
  11721c:	e92d 47f0 	stmdb	sp!, {r4, r5, r6, r7, r8, r9, sl, lr}
  117220:	e9d0 c400 	ldrd	ip, r4, [r0]
  117224:	ea5f 08d1 	movs.w	r8, r1, lsr #3
  117228:	f100 0508 	add.w	r5, r0, #8
  11722c:	f000 80d6 	beq.w	1173dc <RC4+0x1c0>
  117230:	f048 e001 	dls	lr, r8
  117234:	f102 0708 	add.w	r7, r2, #8
  117238:	f103 0608 	add.w	r6, r3, #8
  11723c:	f10c 0c01 	add.w	ip, ip, #1
  117240:	fa5f fc8c 	uxtb.w	ip, ip
  117244:	f855 a02c 	ldr.w	sl, [r5, ip, lsl #2]
  117248:	3708      	adds	r7, #8
  11724a:	4454      	add	r4, sl
  11724c:	b2e4      	uxtb	r4, r4
  11724e:	f855 9024 	ldr.w	r9, [r5, r4, lsl #2]
  117252:	3608      	adds	r6, #8
  117254:	f845 902c 	str.w	r9, [r5, ip, lsl #2]
  117258:	44d1      	add	r9, sl
  11725a:	f845 a024 	str.w	sl, [r5, r4, lsl #2]
  11725e:	fa5f f989 	uxtb.w	r9, r9
  117262:	f817 ac10 	ldrb.w	sl, [r7, #-16]
  117266:	f855 9029 	ldr.w	r9, [r5, r9, lsl #2]
  11726a:	f10c 0c01 	add.w	ip, ip, #1
  11726e:	ea89 090a 	eor.w	r9, r9, sl
  117272:	f806 9c10 	strb.w	r9, [r6, #-16]
  117276:	fa5f fc8c 	uxtb.w	ip, ip
  11727a:	f855 a02c 	ldr.w	sl, [r5, ip, lsl #2]
  11727e:	4454      	add	r4, sl
  117280:	b2e4      	uxtb	r4, r4
  117282:	f855 9024 	ldr.w	r9, [r5, r4, lsl #2]
  117286:	f845 902c 	str.w	r9, [r5, ip, lsl #2]
  11728a:	44d1      	add	r9, sl
  11728c:	f845 a024 	str.w	sl, [r5, r4, lsl #2]
  117290:	fa5f f989 	uxtb.w	r9, r9
  117294:	f817 ac0f 	ldrb.w	sl, [r7, #-15]
  117298:	f855 9029 	ldr.w	r9, [r5, r9, lsl #2]
  11729c:	f10c 0c01 	add.w	ip, ip, #1
  1172a0:	ea89 090a 	eor.w	r9, r9, sl
  1172a4:	f806 9c0f 	strb.w	r9, [r6, #-15]
  1172a8:	fa5f fc8c 	uxtb.w	ip, ip
  1172ac:	f855 a02c 	ldr.w	sl, [r5, ip, lsl #2]
  1172b0:	4454      	add	r4, sl
  1172b2:	b2e4      	uxtb	r4, r4
  1172b4:	f855 9024 	ldr.w	r9, [r5, r4, lsl #2]
  1172b8:	f845 902c 	str.w	r9, [r5, ip, lsl #2]
  1172bc:	44d1      	add	r9, sl
  1172be:	f845 a024 	str.w	sl, [r5, r4, lsl #2]
  1172c2:	fa5f f989 	uxtb.w	r9, r9
  1172c6:	f817 ac0e 	ldrb.w	sl, [r7, #-14]
  1172ca:	f855 9029 	ldr.w	r9, [r5, r9, lsl #2]
  1172ce:	f10c 0c01 	add.w	ip, ip, #1
  1172d2:	ea89 090a 	eor.w	r9, r9, sl
  1172d6:	f806 9c0e 	strb.w	r9, [r6, #-14]
  1172da:	fa5f fc8c 	uxtb.w	ip, ip
  1172de:	f855 a02c 	ldr.w	sl, [r5, ip, lsl #2]
  1172e2:	4454      	add	r4, sl
  1172e4:	b2e4      	uxtb	r4, r4
  1172e6:	f855 9024 	ldr.w	r9, [r5, r4, lsl #2]
  1172ea:	f845 902c 	str.w	r9, [r5, ip, lsl #2]
  1172ee:	44d1      	add	r9, sl
  1172f0:	f845 a024 	str.w	sl, [r5, r4, lsl #2]
  1172f4:	fa5f f989 	uxtb.w	r9, r9
  1172f8:	f817 ac0d 	ldrb.w	sl, [r7, #-13]
  1172fc:	f855 9029 	ldr.w	r9, [r5, r9, lsl #2]
  117300:	f10c 0c01 	add.w	ip, ip, #1
  117304:	ea89 090a 	eor.w	r9, r9, sl
  117308:	f806 9c0d 	strb.w	r9, [r6, #-13]
  11730c:	fa5f fc8c 	uxtb.w	ip, ip
  117310:	f855 a02c 	ldr.w	sl, [r5, ip, lsl #2]
  117314:	4454      	add	r4, sl
  117316:	b2e4      	uxtb	r4, r4
  117318:	f855 9024 	ldr.w	r9, [r5, r4, lsl #2]
  11731c:	f845 902c 	str.w	r9, [r5, ip, lsl #2]
  117320:	44d1      	add	r9, sl
  117322:	f845 a024 	str.w	sl, [r5, r4, lsl #2]
  117326:	fa5f f989 	uxtb.w	r9, r9
  11732a:	f855 9029 	ldr.w	r9, [r5, r9, lsl #2]
  11732e:	f817 ac0c 	ldrb.w	sl, [r7, #-12]
  117332:	f10c 0c01 	add.w	ip, ip, #1
  117336:	ea89 090a 	eor.w	r9, r9, sl
  11733a:	f806 9c0c 	strb.w	r9, [r6, #-12]
  11733e:	fa5f fc8c 	uxtb.w	ip, ip
  117342:	f855 a02c 	ldr.w	sl, [r5, ip, lsl #2]
  117346:	4454      	add	r4, sl
  117348:	b2e4      	uxtb	r4, r4
  11734a:	f855 9024 	ldr.w	r9, [r5, r4, lsl #2]
  11734e:	f845 902c 	str.w	r9, [r5, ip, lsl #2]
  117352:	44d1      	add	r9, sl
  117354:	f845 a024 	str.w	sl, [r5, r4, lsl #2]
  117358:	fa5f f989 	uxtb.w	r9, r9
  11735c:	f817 ac0b 	ldrb.w	sl, [r7, #-11]
  117360:	f855 9029 	ldr.w	r9, [r5, r9, lsl #2]
  117364:	f10c 0c01 	add.w	ip, ip, #1
  117368:	ea89 090a 	eor.w	r9, r9, sl
  11736c:	f806 9c0b 	strb.w	r9, [r6, #-11]
  117370:	fa5f fc8c 	uxtb.w	ip, ip
  117374:	f855 a02c 	ldr.w	sl, [r5, ip, lsl #2]
  117378:	4454      	add	r4, sl
  11737a:	b2e4      	uxtb	r4, r4
  11737c:	f855 9024 	ldr.w	r9, [r5, r4, lsl #2]
  117380:	f845 902c 	str.w	r9, [r5, ip, lsl #2]
  117384:	44d1      	add	r9, sl
  117386:	f845 a024 	str.w	sl, [r5, r4, lsl #2]
  11738a:	fa5f f989 	uxtb.w	r9, r9
  11738e:	f817 ac0a 	ldrb.w	sl, [r7, #-10]
  117392:	f855 9029 	ldr.w	r9, [r5, r9, lsl #2]
  117396:	f10c 0c01 	add.w	ip, ip, #1
  11739a:	ea89 090a 	eor.w	r9, r9, sl
  11739e:	f806 9c0a 	strb.w	r9, [r6, #-10]
  1173a2:	fa5f fc8c 	uxtb.w	ip, ip
  1173a6:	f855 a02c 	ldr.w	sl, [r5, ip, lsl #2]
  1173aa:	4454      	add	r4, sl
  1173ac:	b2e4      	uxtb	r4, r4
  1173ae:	f855 9024 	ldr.w	r9, [r5, r4, lsl #2]
  1173b2:	f845 902c 	str.w	r9, [r5, ip, lsl #2]
  1173b6:	44d1      	add	r9, sl
  1173b8:	f845 a024 	str.w	sl, [r5, r4, lsl #2]
  1173bc:	fa5f f989 	uxtb.w	r9, r9
  1173c0:	f817 ac09 	ldrb.w	sl, [r7, #-9]
  1173c4:	f855 9029 	ldr.w	r9, [r5, r9, lsl #2]
  1173c8:	ea89 090a 	eor.w	r9, r9, sl
  1173cc:	f806 9c09 	strb.w	r9, [r6, #-9]
  1173d0:	f00f c0cd 	le	lr, 11723c <RC4+0x20>
  1173d4:	eb02 02c8 	add.w	r2, r2, r8, lsl #3
  1173d8:	eb03 03c8 	add.w	r3, r3, r8, lsl #3
  1173dc:	f011 0107 	ands.w	r1, r1, #7
  1173e0:	d103      	bne.n	1173ea <RC4+0x1ce>
  1173e2:	e9c0 c400 	strd	ip, r4, [r0]
  1173e6:	e8bd 87f0 	ldmia.w	sp!, {r4, r5, r6, r7, r8, r9, sl, pc}
  1173ea:	f10c 0c01 	add.w	ip, ip, #1
  1173ee:	fa5f fc8c 	uxtb.w	ip, ip
  1173f2:	f855 702c 	ldr.w	r7, [r5, ip, lsl #2]
  1173f6:	2901      	cmp	r1, #1
  1173f8:	443c      	add	r4, r7
  1173fa:	b2e4      	uxtb	r4, r4
  1173fc:	f855 e024 	ldr.w	lr, [r5, r4, lsl #2]
  117400:	eb07 060e 	add.w	r6, r7, lr
  117404:	f845 e02c 	str.w	lr, [r5, ip, lsl #2]
  117408:	b2f6      	uxtb	r6, r6
  11740a:	f845 7024 	str.w	r7, [r5, r4, lsl #2]
  11740e:	f855 6026 	ldr.w	r6, [r5, r6, lsl #2]
  117412:	7817      	ldrb	r7, [r2, #0]
  117414:	ea86 0607 	eor.w	r6, r6, r7
  117418:	701e      	strb	r6, [r3, #0]
  11741a:	d0e2      	beq.n	1173e2 <RC4+0x1c6>
  11741c:	f10c 0c01 	add.w	ip, ip, #1
  117420:	fa5f fc8c 	uxtb.w	ip, ip
  117424:	f855 702c 	ldr.w	r7, [r5, ip, lsl #2]
  117428:	2902      	cmp	r1, #2
  11742a:	443c      	add	r4, r7
  11742c:	b2e4      	uxtb	r4, r4
  11742e:	f855 e024 	ldr.w	lr, [r5, r4, lsl #2]
  117432:	eb07 060e 	add.w	r6, r7, lr
  117436:	f845 e02c 	str.w	lr, [r5, ip, lsl #2]
  11743a:	b2f6      	uxtb	r6, r6
  11743c:	f845 7024 	str.w	r7, [r5, r4, lsl #2]
  117440:	f855 6026 	ldr.w	r6, [r5, r6, lsl #2]
  117444:	7857      	ldrb	r7, [r2, #1]
  117446:	ea86 0607 	eor.w	r6, r6, r7
  11744a:	705e      	strb	r6, [r3, #1]
  11744c:	d0c9      	beq.n	1173e2 <RC4+0x1c6>
  11744e:	f10c 0c01 	add.w	ip, ip, #1
  117452:	fa5f fc8c 	uxtb.w	ip, ip
  117456:	f855 702c 	ldr.w	r7, [r5, ip, lsl #2]
  11745a:	2903      	cmp	r1, #3
  11745c:	443c      	add	r4, r7
  11745e:	b2e4      	uxtb	r4, r4
  117460:	f855 e024 	ldr.w	lr, [r5, r4, lsl #2]
  117464:	eb07 060e 	add.w	r6, r7, lr
  117468:	f845 e02c 	str.w	lr, [r5, ip, lsl #2]
  11746c:	b2f6      	uxtb	r6, r6
  11746e:	f845 7024 	str.w	r7, [r5, r4, lsl #2]
  117472:	f855 6026 	ldr.w	r6, [r5, r6, lsl #2]
  117476:	7897      	ldrb	r7, [r2, #2]
  117478:	ea86 0607 	eor.w	r6, r6, r7
  11747c:	709e      	strb	r6, [r3, #2]
  11747e:	d0b0      	beq.n	1173e2 <RC4+0x1c6>
  117480:	f10c 0c01 	add.w	ip, ip, #1
  117484:	fa5f fc8c 	uxtb.w	ip, ip
  117488:	f855 702c 	ldr.w	r7, [r5, ip, lsl #2]
  11748c:	2904      	cmp	r1, #4
  11748e:	443c      	add	r4, r7
  117490:	b2e4      	uxtb	r4, r4
  117492:	f855 e024 	ldr.w	lr, [r5, r4, lsl #2]
  117496:	eb07 060e 	add.w	r6, r7, lr
  11749a:	f845 e02c 	str.w	lr, [r5, ip, lsl #2]
  11749e:	b2f6      	uxtb	r6, r6
  1174a0:	f845 7024 	str.w	r7, [r5, r4, lsl #2]
  1174a4:	f855 6026 	ldr.w	r6, [r5, r6, lsl #2]
  1174a8:	78d7      	ldrb	r7, [r2, #3]
  1174aa:	ea86 0607 	eor.w	r6, r6, r7
  1174ae:	70de      	strb	r6, [r3, #3]
  1174b0:	d097      	beq.n	1173e2 <RC4+0x1c6>
  1174b2:	f10c 0c01 	add.w	ip, ip, #1
  1174b6:	fa5f fc8c 	uxtb.w	ip, ip
  1174ba:	f855 702c 	ldr.w	r7, [r5, ip, lsl #2]
  1174be:	2905      	cmp	r1, #5
  1174c0:	443c      	add	r4, r7
  1174c2:	b2e4      	uxtb	r4, r4
  1174c4:	f855 e024 	ldr.w	lr, [r5, r4, lsl #2]
  1174c8:	eb07 060e 	add.w	r6, r7, lr
  1174cc:	f845 e02c 	str.w	lr, [r5, ip, lsl #2]
  1174d0:	b2f6      	uxtb	r6, r6
  1174d2:	f845 7024 	str.w	r7, [r5, r4, lsl #2]
  1174d6:	f855 6026 	ldr.w	r6, [r5, r6, lsl #2]
  1174da:	7917      	ldrb	r7, [r2, #4]
  1174dc:	ea86 0607 	eor.w	r6, r6, r7
  1174e0:	711e      	strb	r6, [r3, #4]
  1174e2:	f43f af7e 	beq.w	1173e2 <RC4+0x1c6>
  1174e6:	f10c 0c01 	add.w	ip, ip, #1
  1174ea:	fa5f fc8c 	uxtb.w	ip, ip
  1174ee:	f855 702c 	ldr.w	r7, [r5, ip, lsl #2]
  1174f2:	2906      	cmp	r1, #6
  1174f4:	443c      	add	r4, r7
  1174f6:	b2e4      	uxtb	r4, r4
  1174f8:	f855 e024 	ldr.w	lr, [r5, r4, lsl #2]
  1174fc:	eb07 060e 	add.w	r6, r7, lr
  117500:	f845 e02c 	str.w	lr, [r5, ip, lsl #2]
  117504:	b2f6      	uxtb	r6, r6
  117506:	f845 7024 	str.w	r7, [r5, r4, lsl #2]
  11750a:	f855 6026 	ldr.w	r6, [r5, r6, lsl #2]
  11750e:	7957      	ldrb	r7, [r2, #5]
  117510:	ea86 0607 	eor.w	r6, r6, r7
  117514:	715e      	strb	r6, [r3, #5]
  117516:	f43f af64 	beq.w	1173e2 <RC4+0x1c6>
  11751a:	f10c 0c01 	add.w	ip, ip, #1
  11751e:	fa5f fc8c 	uxtb.w	ip, ip
  117522:	f855 602c 	ldr.w	r6, [r5, ip, lsl #2]
  117526:	4434      	add	r4, r6
  117528:	b2e4      	uxtb	r4, r4
  11752a:	f855 7024 	ldr.w	r7, [r5, r4, lsl #2]
  11752e:	19f1      	adds	r1, r6, r7
  117530:	f845 702c 	str.w	r7, [r5, ip, lsl #2]
  117534:	b2c9      	uxtb	r1, r1
  117536:	f845 6024 	str.w	r6, [r5, r4, lsl #2]
  11753a:	f855 1021 	ldr.w	r1, [r5, r1, lsl #2]
  11753e:	7992      	ldrb	r2, [r2, #6]
  117540:	404a      	eors	r2, r1
  117542:	719a      	strb	r2, [r3, #6]
  117544:	e9c0 c400 	strd	ip, r4, [r0]
  117548:	e8bd 87f0 	ldmia.w	sp!, {r4, r5, r6, r7, r8, r9, sl, pc}

0011754c <RC4_set_key>:
  11754c:	e92d 41f0 	stmdb	sp!, {r4, r5, r6, r7, r8, lr}
  117550:	f44f 7e80 	mov.w	lr, #256	; 0x100
  117554:	2300      	movs	r3, #0
  117556:	f04e e001 	dls	lr, lr
  11755a:	460c      	mov	r4, r1
  11755c:	1d05      	adds	r5, r0, #4
  11755e:	4611      	mov	r1, r2
  117560:	f100 0208 	add.w	r2, r0, #8
  117564:	f845 3f04 	str.w	r3, [r5, #4]!
  117568:	3301      	adds	r3, #1
  11756a:	f00f c805 	le	lr, 117564 <RC4_set_key+0x18>
  11756e:	f04f 0e00 	mov.w	lr, #0
  117572:	4684      	mov	ip, r0
  117574:	2540      	movs	r5, #64	; 0x40
  117576:	4673      	mov	r3, lr
  117578:	f8c0 e000 	str.w	lr, [r0]
  11757c:	f8c0 e004 	str.w	lr, [r0, #4]
  117580:	1c5e      	adds	r6, r3, #1
  117582:	42a6      	cmp	r6, r4
  117584:	5cc8      	ldrb	r0, [r1, r3]
  117586:	bf08      	it	eq
  117588:	2301      	moveq	r3, #1
  11758a:	f8dc 7008 	ldr.w	r7, [ip, #8]
  11758e:	bf18      	it	ne
  117590:	3302      	addne	r3, #2
  117592:	4438      	add	r0, r7
  117594:	4470      	add	r0, lr
  117596:	bf14      	ite	ne
  117598:	eb01 0e06 	addne.w	lr, r1, r6
  11759c:	468e      	moveq	lr, r1
  11759e:	42a3      	cmp	r3, r4
  1175a0:	eb01 0803 	add.w	r8, r1, r3
  1175a4:	bf04      	itt	eq
  1175a6:	2301      	moveq	r3, #1
  1175a8:	4688      	moveq	r8, r1
  1175aa:	b2c0      	uxtb	r0, r0
  1175ac:	f852 6020 	ldr.w	r6, [r2, r0, lsl #2]
  1175b0:	bf18      	it	ne
  1175b2:	3301      	addne	r3, #1
  1175b4:	429c      	cmp	r4, r3
  1175b6:	f8cc 6008 	str.w	r6, [ip, #8]
  1175ba:	f842 7020 	str.w	r7, [r2, r0, lsl #2]
  1175be:	eb01 0703 	add.w	r7, r1, r3
  1175c2:	bf04      	itt	eq
  1175c4:	460f      	moveq	r7, r1
  1175c6:	2301      	moveq	r3, #1
  1175c8:	f8dc 600c 	ldr.w	r6, [ip, #12]
  1175cc:	f89e e000 	ldrb.w	lr, [lr]
  1175d0:	4430      	add	r0, r6
  1175d2:	4486      	add	lr, r0
  1175d4:	fa5f fe8e 	uxtb.w	lr, lr
  1175d8:	f852 002e 	ldr.w	r0, [r2, lr, lsl #2]
  1175dc:	bf18      	it	ne
  1175de:	3301      	addne	r3, #1
  1175e0:	f8cc 000c 	str.w	r0, [ip, #12]
  1175e4:	f842 602e 	str.w	r6, [r2, lr, lsl #2]
  1175e8:	f8dc 6010 	ldr.w	r6, [ip, #16]
  1175ec:	f898 0000 	ldrb.w	r0, [r8]
  1175f0:	44b6      	add	lr, r6
  1175f2:	4470      	add	r0, lr
  1175f4:	b2c0      	uxtb	r0, r0
  1175f6:	f852 e020 	ldr.w	lr, [r2, r0, lsl #2]
  1175fa:	429c      	cmp	r4, r3
  1175fc:	f8cc e010 	str.w	lr, [ip, #16]
  117600:	f842 6020 	str.w	r6, [r2, r0, lsl #2]
  117604:	f8dc 6014 	ldr.w	r6, [ip, #20]
  117608:	f897 e000 	ldrb.w	lr, [r7]
  11760c:	4430      	add	r0, r6
  11760e:	4486      	add	lr, r0
  117610:	fa5f fe8e 	uxtb.w	lr, lr
  117614:	f852 002e 	ldr.w	r0, [r2, lr, lsl #2]
  117618:	bf08      	it	eq
  11761a:	2300      	moveq	r3, #0
  11761c:	3d01      	subs	r5, #1
  11761e:	f8cc 0014 	str.w	r0, [ip, #20]
  117622:	f842 602e 	str.w	r6, [r2, lr, lsl #2]
  117626:	f10c 0c10 	add.w	ip, ip, #16
  11762a:	d1a9      	bne.n	117580 <RC4_set_key+0x34>
  11762c:	e8bd 81f0 	ldmia.w	sp!, {r4, r5, r6, r7, r8, pc}

00117630 <dh_groups_get>:
  117630:	b418      	push	{r3, r4}
  117632:	220b      	movs	r2, #11
  117634:	2300      	movs	r3, #0
  117636:	4c07      	ldr	r4, [pc, #28]	; (117654 <dh_groups_get+0x24>)
  117638:	0159      	lsls	r1, r3, #5
  11763a:	f854 c001 	ldr.w	ip, [r4, r1]
  11763e:	3301      	adds	r3, #1
  117640:	4584      	cmp	ip, r0
  117642:	d004      	beq.n	11764e <dh_groups_get+0x1e>
  117644:	3a01      	subs	r2, #1
  117646:	d1f7      	bne.n	117638 <dh_groups_get+0x8>
  117648:	2000      	movs	r0, #0
  11764a:	bc18      	pop	{r3, r4}
  11764c:	4770      	bx	lr
  11764e:	1860      	adds	r0, r4, r1
  117650:	bc18      	pop	{r3, r4}
  117652:	4770      	bx	lr
  117654:	0013cb3c 	.word	0x0013cb3c

00117658 <wifi_rom_mpi_init>:
  117658:	2300      	movs	r3, #0
  11765a:	2201      	movs	r2, #1
  11765c:	6083      	str	r3, [r0, #8]
  11765e:	e9c0 2300 	strd	r2, r3, [r0]
  117662:	4770      	bx	lr

00117664 <wifi_rom_mpi_free>:
  117664:	b190      	cbz	r0, 11768c <wifi_rom_mpi_free+0x28>
  117666:	b510      	push	{r4, lr}
  117668:	4604      	mov	r4, r0
  11766a:	6880      	ldr	r0, [r0, #8]
  11766c:	b140      	cbz	r0, 117680 <wifi_rom_mpi_free+0x1c>
  11766e:	6861      	ldr	r1, [r4, #4]
  117670:	0089      	lsls	r1, r1, #2
  117672:	f005 f927 	bl	11c8c4 <wifi_rom_platform_zeroize>
  117676:	4b06      	ldr	r3, [pc, #24]	; (117690 <wifi_rom_mpi_free+0x2c>)
  117678:	68a0      	ldr	r0, [r4, #8]
  11767a:	681b      	ldr	r3, [r3, #0]
  11767c:	685b      	ldr	r3, [r3, #4]
  11767e:	4798      	blx	r3
  117680:	2300      	movs	r3, #0
  117682:	2201      	movs	r2, #1
  117684:	e9c4 2300 	strd	r2, r3, [r4]
  117688:	60a3      	str	r3, [r4, #8]
  11768a:	bd10      	pop	{r4, pc}
  11768c:	4770      	bx	lr
  11768e:	bf00      	nop
  117690:	200014c4 	.word	0x200014c4

00117694 <wifi_rom_mpi_grow>:
  117694:	b5f8      	push	{r3, r4, r5, r6, r7, lr}
  117696:	f242 7310 	movw	r3, #10000	; 0x2710
  11769a:	4299      	cmp	r1, r3
  11769c:	d81f      	bhi.n	1176de <wifi_rom_mpi_grow+0x4a>
  11769e:	6843      	ldr	r3, [r0, #4]
  1176a0:	460e      	mov	r6, r1
  1176a2:	428b      	cmp	r3, r1
  1176a4:	4604      	mov	r4, r0
  1176a6:	d218      	bcs.n	1176da <wifi_rom_mpi_grow+0x46>
  1176a8:	4f0e      	ldr	r7, [pc, #56]	; (1176e4 <wifi_rom_mpi_grow+0x50>)
  1176aa:	2104      	movs	r1, #4
  1176ac:	683b      	ldr	r3, [r7, #0]
  1176ae:	4630      	mov	r0, r6
  1176b0:	681b      	ldr	r3, [r3, #0]
  1176b2:	4798      	blx	r3
  1176b4:	4605      	mov	r5, r0
  1176b6:	b190      	cbz	r0, 1176de <wifi_rom_mpi_grow+0x4a>
  1176b8:	68a1      	ldr	r1, [r4, #8]
  1176ba:	b161      	cbz	r1, 1176d6 <wifi_rom_mpi_grow+0x42>
  1176bc:	6862      	ldr	r2, [r4, #4]
  1176be:	0092      	lsls	r2, r2, #2
  1176c0:	f7ea fc56 	bl	101f70 <__wrap_memset+0x7>
  1176c4:	6861      	ldr	r1, [r4, #4]
  1176c6:	68a0      	ldr	r0, [r4, #8]
  1176c8:	0089      	lsls	r1, r1, #2
  1176ca:	f005 f8fb 	bl	11c8c4 <wifi_rom_platform_zeroize>
  1176ce:	683b      	ldr	r3, [r7, #0]
  1176d0:	68a0      	ldr	r0, [r4, #8]
  1176d2:	685b      	ldr	r3, [r3, #4]
  1176d4:	4798      	blx	r3
  1176d6:	e9c4 6501 	strd	r6, r5, [r4, #4]
  1176da:	2000      	movs	r0, #0
  1176dc:	bdf8      	pop	{r3, r4, r5, r6, r7, pc}
  1176de:	f06f 000f 	mvn.w	r0, #15
  1176e2:	bdf8      	pop	{r3, r4, r5, r6, r7, pc}
  1176e4:	200014c4 	.word	0x200014c4

001176e8 <wifi_rom_mpi_shrink>:
  1176e8:	b5f8      	push	{r3, r4, r5, r6, r7, lr}
  1176ea:	f242 7310 	movw	r3, #10000	; 0x2710
  1176ee:	4299      	cmp	r1, r3
  1176f0:	d838      	bhi.n	117764 <wifi_rom_mpi_shrink+0x7c>
  1176f2:	6844      	ldr	r4, [r0, #4]
  1176f4:	468e      	mov	lr, r1
  1176f6:	428c      	cmp	r4, r1
  1176f8:	4605      	mov	r5, r0
  1176fa:	d92f      	bls.n	11775c <wifi_rom_mpi_shrink+0x74>
  1176fc:	1e62      	subs	r2, r4, #1
  1176fe:	d02b      	beq.n	117758 <wifi_rom_mpi_shrink+0x70>
  117700:	6883      	ldr	r3, [r0, #8]
  117702:	eb03 0c84 	add.w	ip, r3, r4, lsl #2
  117706:	4613      	mov	r3, r2
  117708:	e003      	b.n	117712 <wifi_rom_mpi_shrink+0x2a>
  11770a:	3b01      	subs	r3, #1
  11770c:	f102 32ff 	add.w	r2, r2, #4294967295	; 0xffffffff
  117710:	d022      	beq.n	117758 <wifi_rom_mpi_shrink+0x70>
  117712:	f85c 4d04 	ldr.w	r4, [ip, #-4]!
  117716:	2c00      	cmp	r4, #0
  117718:	d0f7      	beq.n	11770a <wifi_rom_mpi_shrink+0x22>
  11771a:	3201      	adds	r2, #1
  11771c:	4596      	cmp	lr, r2
  11771e:	4674      	mov	r4, lr
  117720:	bf38      	it	cc
  117722:	4614      	movcc	r4, r2
  117724:	4f11      	ldr	r7, [pc, #68]	; (11776c <wifi_rom_mpi_shrink+0x84>)
  117726:	2104      	movs	r1, #4
  117728:	683b      	ldr	r3, [r7, #0]
  11772a:	4620      	mov	r0, r4
  11772c:	681b      	ldr	r3, [r3, #0]
  11772e:	4798      	blx	r3
  117730:	4606      	mov	r6, r0
  117732:	b1b8      	cbz	r0, 117764 <wifi_rom_mpi_shrink+0x7c>
  117734:	68a9      	ldr	r1, [r5, #8]
  117736:	b159      	cbz	r1, 117750 <wifi_rom_mpi_shrink+0x68>
  117738:	00a2      	lsls	r2, r4, #2
  11773a:	f7ea fc19 	bl	101f70 <__wrap_memset+0x7>
  11773e:	6869      	ldr	r1, [r5, #4]
  117740:	68a8      	ldr	r0, [r5, #8]
  117742:	0089      	lsls	r1, r1, #2
  117744:	f005 f8be 	bl	11c8c4 <wifi_rom_platform_zeroize>
  117748:	683b      	ldr	r3, [r7, #0]
  11774a:	68a8      	ldr	r0, [r5, #8]
  11774c:	685b      	ldr	r3, [r3, #4]
  11774e:	4798      	blx	r3
  117750:	e9c5 4601 	strd	r4, r6, [r5, #4]
  117754:	2000      	movs	r0, #0
  117756:	bdf8      	pop	{r3, r4, r5, r6, r7, pc}
  117758:	2201      	movs	r2, #1
  11775a:	e7df      	b.n	11771c <wifi_rom_mpi_shrink+0x34>
  11775c:	e8bd 40f8 	ldmia.w	sp!, {r3, r4, r5, r6, r7, lr}
  117760:	f7ff bf98 	b.w	117694 <wifi_rom_mpi_grow>
  117764:	f06f 000f 	mvn.w	r0, #15
  117768:	bdf8      	pop	{r3, r4, r5, r6, r7, pc}
  11776a:	bf00      	nop
  11776c:	200014c4 	.word	0x200014c4

00117770 <wifi_rom_mpi_copy>:
  117770:	4288      	cmp	r0, r1
  117772:	d039      	beq.n	1177e8 <wifi_rom_mpi_copy+0x78>
  117774:	b5f8      	push	{r3, r4, r5, r6, r7, lr}
  117776:	684b      	ldr	r3, [r1, #4]
  117778:	460e      	mov	r6, r1
  11777a:	b393      	cbz	r3, 1177e2 <wifi_rom_mpi_copy+0x72>
  11777c:	1e5a      	subs	r2, r3, #1
  11777e:	4607      	mov	r7, r0
  117780:	d01f      	beq.n	1177c2 <wifi_rom_mpi_copy+0x52>
  117782:	688c      	ldr	r4, [r1, #8]
  117784:	eb04 0483 	add.w	r4, r4, r3, lsl #2
  117788:	4613      	mov	r3, r2
  11778a:	e003      	b.n	117794 <wifi_rom_mpi_copy+0x24>
  11778c:	3b01      	subs	r3, #1
  11778e:	f102 32ff 	add.w	r2, r2, #4294967295	; 0xffffffff
  117792:	d016      	beq.n	1177c2 <wifi_rom_mpi_copy+0x52>
  117794:	f854 5d04 	ldr.w	r5, [r4, #-4]!
  117798:	2d00      	cmp	r5, #0
  11779a:	d0f7      	beq.n	11778c <wifi_rom_mpi_copy+0x1c>
  11779c:	1c54      	adds	r4, r2, #1
  11779e:	687a      	ldr	r2, [r7, #4]
  1177a0:	6833      	ldr	r3, [r6, #0]
  1177a2:	42a2      	cmp	r2, r4
  1177a4:	603b      	str	r3, [r7, #0]
  1177a6:	d212      	bcs.n	1177ce <wifi_rom_mpi_copy+0x5e>
  1177a8:	4621      	mov	r1, r4
  1177aa:	4638      	mov	r0, r7
  1177ac:	f7ff ff72 	bl	117694 <wifi_rom_mpi_grow>
  1177b0:	b930      	cbnz	r0, 1177c0 <wifi_rom_mpi_copy+0x50>
  1177b2:	00a5      	lsls	r5, r4, #2
  1177b4:	462a      	mov	r2, r5
  1177b6:	68b1      	ldr	r1, [r6, #8]
  1177b8:	68b8      	ldr	r0, [r7, #8]
  1177ba:	f7ea fbd9 	bl	101f70 <__wrap_memset+0x7>
  1177be:	2000      	movs	r0, #0
  1177c0:	bdf8      	pop	{r3, r4, r5, r6, r7, pc}
  1177c2:	2401      	movs	r4, #1
  1177c4:	687a      	ldr	r2, [r7, #4]
  1177c6:	6833      	ldr	r3, [r6, #0]
  1177c8:	42a2      	cmp	r2, r4
  1177ca:	603b      	str	r3, [r7, #0]
  1177cc:	d3ec      	bcc.n	1177a8 <wifi_rom_mpi_copy+0x38>
  1177ce:	68b8      	ldr	r0, [r7, #8]
  1177d0:	1b12      	subs	r2, r2, r4
  1177d2:	2100      	movs	r1, #0
  1177d4:	0092      	lsls	r2, r2, #2
  1177d6:	eb00 0084 	add.w	r0, r0, r4, lsl #2
  1177da:	00a5      	lsls	r5, r4, #2
  1177dc:	f7ea fbc4 	bl	101f68 <_strlen+0x34b>
  1177e0:	e7e8      	b.n	1177b4 <wifi_rom_mpi_copy+0x44>
  1177e2:	f7ff ff3f 	bl	117664 <wifi_rom_mpi_free>
  1177e6:	e7ea      	b.n	1177be <wifi_rom_mpi_copy+0x4e>
  1177e8:	2000      	movs	r0, #0
  1177ea:	4770      	bx	lr

001177ec <wifi_rom_mpi_safe_cond_assign>:
  1177ec:	b5f8      	push	{r3, r4, r5, r6, r7, lr}
  1177ee:	460d      	mov	r5, r1
  1177f0:	6849      	ldr	r1, [r1, #4]
  1177f2:	4604      	mov	r4, r0
  1177f4:	4616      	mov	r6, r2
  1177f6:	f7ff ff4d 	bl	117694 <wifi_rom_mpi_grow>
  1177fa:	b100      	cbz	r0, 1177fe <wifi_rom_mpi_safe_cond_assign+0x12>
  1177fc:	bdf8      	pop	{r3, r4, r5, r6, r7, pc}
  1177fe:	4273      	negs	r3, r6
  117800:	ea46 0203 	orr.w	r2, r6, r3
  117804:	682b      	ldr	r3, [r5, #0]
  117806:	f3c2 11c0 	ubfx	r1, r2, #7, #1
  11780a:	fb01 f303 	mul.w	r3, r1, r3
  11780e:	6822      	ldr	r2, [r4, #0]
  117810:	f1c1 0c01 	rsb	ip, r1, #1
  117814:	fb02 330c 	mla	r3, r2, ip, r3
  117818:	6023      	str	r3, [r4, #0]
  11781a:	686b      	ldr	r3, [r5, #4]
  11781c:	68a2      	ldr	r2, [r4, #8]
  11781e:	68ae      	ldr	r6, [r5, #8]
  117820:	b1bb      	cbz	r3, 117852 <wifi_rom_mpi_safe_cond_assign+0x66>
  117822:	ea4f 0e83 	mov.w	lr, r3, lsl #2
  117826:	f1ae 0e04 	sub.w	lr, lr, #4
  11782a:	ea4f 0e9e 	mov.w	lr, lr, lsr #2
  11782e:	f10e 0e01 	add.w	lr, lr, #1
  117832:	f04e e001 	dls	lr, lr
  117836:	3a04      	subs	r2, #4
  117838:	3e04      	subs	r6, #4
  11783a:	f856 3f04 	ldr.w	r3, [r6, #4]!
  11783e:	f852 7f04 	ldr.w	r7, [r2, #4]!
  117842:	fb01 f303 	mul.w	r3, r1, r3
  117846:	fb07 330c 	mla	r3, r7, ip, r3
  11784a:	6013      	str	r3, [r2, #0]
  11784c:	f00f c80b 	le	lr, 11783a <wifi_rom_mpi_safe_cond_assign+0x4e>
  117850:	686b      	ldr	r3, [r5, #4]
  117852:	6862      	ldr	r2, [r4, #4]
  117854:	429a      	cmp	r2, r3
  117856:	d9d1      	bls.n	1177fc <wifi_rom_mpi_safe_cond_assign+0x10>
  117858:	68a1      	ldr	r1, [r4, #8]
  11785a:	f851 2023 	ldr.w	r2, [r1, r3, lsl #2]
  11785e:	fb0c f202 	mul.w	r2, ip, r2
  117862:	f841 2023 	str.w	r2, [r1, r3, lsl #2]
  117866:	6862      	ldr	r2, [r4, #4]
  117868:	3301      	adds	r3, #1
  11786a:	429a      	cmp	r2, r3
  11786c:	d8f4      	bhi.n	117858 <wifi_rom_mpi_safe_cond_assign+0x6c>
  11786e:	bdf8      	pop	{r3, r4, r5, r6, r7, pc}

00117870 <wifi_rom_mpi_lset>:
  117870:	b5f8      	push	{r3, r4, r5, r6, r7, lr}
  117872:	6842      	ldr	r2, [r0, #4]
  117874:	4604      	mov	r4, r0
  117876:	460e      	mov	r6, r1
  117878:	b19a      	cbz	r2, 1178a2 <wifi_rom_mpi_lset+0x32>
  11787a:	6885      	ldr	r5, [r0, #8]
  11787c:	0092      	lsls	r2, r2, #2
  11787e:	2100      	movs	r1, #0
  117880:	4628      	mov	r0, r5
  117882:	f7ea fb71 	bl	101f68 <_strlen+0x34b>
  117886:	2e00      	cmp	r6, #0
  117888:	bfac      	ite	ge
  11788a:	2301      	movge	r3, #1
  11788c:	f04f 33ff 	movlt.w	r3, #4294967295	; 0xffffffff
  117890:	68a2      	ldr	r2, [r4, #8]
  117892:	ea86 71e6 	eor.w	r1, r6, r6, asr #31
  117896:	eba1 71e6 	sub.w	r1, r1, r6, asr #31
  11789a:	6011      	str	r1, [r2, #0]
  11789c:	6023      	str	r3, [r4, #0]
  11789e:	2000      	movs	r0, #0
  1178a0:	bdf8      	pop	{r3, r4, r5, r6, r7, pc}
  1178a2:	4f0f      	ldr	r7, [pc, #60]	; (1178e0 <wifi_rom_mpi_lset+0x70>)
  1178a4:	2104      	movs	r1, #4
  1178a6:	683b      	ldr	r3, [r7, #0]
  1178a8:	2001      	movs	r0, #1
  1178aa:	681b      	ldr	r3, [r3, #0]
  1178ac:	4798      	blx	r3
  1178ae:	4605      	mov	r5, r0
  1178b0:	b198      	cbz	r0, 1178da <wifi_rom_mpi_lset+0x6a>
  1178b2:	68a1      	ldr	r1, [r4, #8]
  1178b4:	b161      	cbz	r1, 1178d0 <wifi_rom_mpi_lset+0x60>
  1178b6:	6862      	ldr	r2, [r4, #4]
  1178b8:	0092      	lsls	r2, r2, #2
  1178ba:	f7ea fb59 	bl	101f70 <__wrap_memset+0x7>
  1178be:	6861      	ldr	r1, [r4, #4]
  1178c0:	68a0      	ldr	r0, [r4, #8]
  1178c2:	0089      	lsls	r1, r1, #2
  1178c4:	f004 fffe 	bl	11c8c4 <wifi_rom_platform_zeroize>
  1178c8:	683b      	ldr	r3, [r7, #0]
  1178ca:	68a0      	ldr	r0, [r4, #8]
  1178cc:	685b      	ldr	r3, [r3, #4]
  1178ce:	4798      	blx	r3
  1178d0:	2301      	movs	r3, #1
  1178d2:	2204      	movs	r2, #4
  1178d4:	e9c4 3501 	strd	r3, r5, [r4, #4]
  1178d8:	e7d1      	b.n	11787e <wifi_rom_mpi_lset+0xe>
  1178da:	f06f 000f 	mvn.w	r0, #15
  1178de:	bdf8      	pop	{r3, r4, r5, r6, r7, pc}
  1178e0:	200014c4 	.word	0x200014c4

001178e4 <wifi_rom_mpi_get_bit>:
  1178e4:	6843      	ldr	r3, [r0, #4]
  1178e6:	ebb1 1f43 	cmp.w	r1, r3, lsl #5
  1178ea:	d209      	bcs.n	117900 <wifi_rom_mpi_get_bit+0x1c>
  1178ec:	6883      	ldr	r3, [r0, #8]
  1178ee:	094a      	lsrs	r2, r1, #5
  1178f0:	f853 0022 	ldr.w	r0, [r3, r2, lsl #2]
  1178f4:	f001 011f 	and.w	r1, r1, #31
  1178f8:	40c8      	lsrs	r0, r1
  1178fa:	f000 0001 	and.w	r0, r0, #1
  1178fe:	4770      	bx	lr
  117900:	2000      	movs	r0, #0
  117902:	4770      	bx	lr

00117904 <wifi_rom_mpi_set_bit>:
  117904:	2a01      	cmp	r2, #1
  117906:	d822      	bhi.n	11794e <wifi_rom_mpi_set_bit+0x4a>
  117908:	b5f8      	push	{r3, r4, r5, r6, r7, lr}
  11790a:	6843      	ldr	r3, [r0, #4]
  11790c:	460c      	mov	r4, r1
  11790e:	ebb1 1f43 	cmp.w	r1, r3, lsl #5
  117912:	4615      	mov	r5, r2
  117914:	4606      	mov	r6, r0
  117916:	ea4f 1751 	mov.w	r7, r1, lsr #5
  11791a:	d304      	bcc.n	117926 <wifi_rom_mpi_set_bit+0x22>
  11791c:	b1aa      	cbz	r2, 11794a <wifi_rom_mpi_set_bit+0x46>
  11791e:	1c79      	adds	r1, r7, #1
  117920:	f7ff feb8 	bl	117694 <wifi_rom_mpi_grow>
  117924:	b990      	cbnz	r0, 11794c <wifi_rom_mpi_set_bit+0x48>
  117926:	2201      	movs	r2, #1
  117928:	68b1      	ldr	r1, [r6, #8]
  11792a:	f004 041f 	and.w	r4, r4, #31
  11792e:	f851 3027 	ldr.w	r3, [r1, r7, lsl #2]
  117932:	40a2      	lsls	r2, r4
  117934:	ea23 0302 	bic.w	r3, r3, r2
  117938:	f841 3027 	str.w	r3, [r1, r7, lsl #2]
  11793c:	68b2      	ldr	r2, [r6, #8]
  11793e:	40a5      	lsls	r5, r4
  117940:	f852 3027 	ldr.w	r3, [r2, r7, lsl #2]
  117944:	432b      	orrs	r3, r5
  117946:	f842 3027 	str.w	r3, [r2, r7, lsl #2]
  11794a:	2000      	movs	r0, #0
  11794c:	bdf8      	pop	{r3, r4, r5, r6, r7, pc}
  11794e:	f06f 0003 	mvn.w	r0, #3
  117952:	4770      	bx	lr

00117954 <wifi_rom_mpi_lsb>:
  117954:	b570      	push	{r4, r5, r6, lr}
  117956:	6845      	ldr	r5, [r0, #4]
  117958:	b1d5      	cbz	r5, 117990 <wifi_rom_mpi_lsb+0x3c>
  11795a:	f04f 0c00 	mov.w	ip, #0
  11795e:	4666      	mov	r6, ip
  117960:	6883      	ldr	r3, [r0, #8]
  117962:	f1a3 0e04 	sub.w	lr, r3, #4
  117966:	f85e 4f04 	ldr.w	r4, [lr, #4]!
  11796a:	f014 0301 	ands.w	r3, r4, #1
  11796e:	d111      	bne.n	117994 <wifi_rom_mpi_lsb+0x40>
  117970:	2220      	movs	r2, #32
  117972:	3301      	adds	r3, #1
  117974:	3a01      	subs	r2, #1
  117976:	fa24 f103 	lsr.w	r1, r4, r3
  11797a:	eb03 000c 	add.w	r0, r3, ip
  11797e:	d002      	beq.n	117986 <wifi_rom_mpi_lsb+0x32>
  117980:	07c9      	lsls	r1, r1, #31
  117982:	d5f6      	bpl.n	117972 <wifi_rom_mpi_lsb+0x1e>
  117984:	bd70      	pop	{r4, r5, r6, pc}
  117986:	3601      	adds	r6, #1
  117988:	42ae      	cmp	r6, r5
  11798a:	d001      	beq.n	117990 <wifi_rom_mpi_lsb+0x3c>
  11798c:	4684      	mov	ip, r0
  11798e:	e7ea      	b.n	117966 <wifi_rom_mpi_lsb+0x12>
  117990:	2000      	movs	r0, #0
  117992:	bd70      	pop	{r4, r5, r6, pc}
  117994:	4660      	mov	r0, ip
  117996:	bd70      	pop	{r4, r5, r6, pc}

00117998 <wifi_rom_mpi_bitlen>:
  117998:	b418      	push	{r3, r4}
  11799a:	4603      	mov	r3, r0
  11799c:	6840      	ldr	r0, [r0, #4]
  11799e:	b308      	cbz	r0, 1179e4 <wifi_rom_mpi_bitlen+0x4c>
  1179a0:	1e42      	subs	r2, r0, #1
  1179a2:	689c      	ldr	r4, [r3, #8]
  1179a4:	d020      	beq.n	1179e8 <wifi_rom_mpi_bitlen+0x50>
  1179a6:	4613      	mov	r3, r2
  1179a8:	eb04 0080 	add.w	r0, r4, r0, lsl #2
  1179ac:	e003      	b.n	1179b6 <wifi_rom_mpi_bitlen+0x1e>
  1179ae:	3b01      	subs	r3, #1
  1179b0:	f102 32ff 	add.w	r2, r2, #4294967295	; 0xffffffff
  1179b4:	d018      	beq.n	1179e8 <wifi_rom_mpi_bitlen+0x50>
  1179b6:	f850 1d04 	ldr.w	r1, [r0, #-4]!
  1179ba:	2900      	cmp	r1, #0
  1179bc:	d0f7      	beq.n	1179ae <wifi_rom_mpi_bitlen+0x16>
  1179be:	3201      	adds	r2, #1
  1179c0:	0150      	lsls	r0, r2, #5
  1179c2:	2900      	cmp	r1, #0
  1179c4:	db0e      	blt.n	1179e4 <wifi_rom_mpi_bitlen+0x4c>
  1179c6:	f04f 0c00 	mov.w	ip, #0
  1179ca:	f04f 4200 	mov.w	r2, #2147483648	; 0x80000000
  1179ce:	2320      	movs	r3, #32
  1179d0:	3b01      	subs	r3, #1
  1179d2:	ea4f 0252 	mov.w	r2, r2, lsr #1
  1179d6:	f10c 0c01 	add.w	ip, ip, #1
  1179da:	d008      	beq.n	1179ee <wifi_rom_mpi_bitlen+0x56>
  1179dc:	420a      	tst	r2, r1
  1179de:	d0f7      	beq.n	1179d0 <wifi_rom_mpi_bitlen+0x38>
  1179e0:	eba0 000c 	sub.w	r0, r0, ip
  1179e4:	bc18      	pop	{r3, r4}
  1179e6:	4770      	bx	lr
  1179e8:	2020      	movs	r0, #32
  1179ea:	6821      	ldr	r1, [r4, #0]
  1179ec:	e7e9      	b.n	1179c2 <wifi_rom_mpi_bitlen+0x2a>
  1179ee:	3820      	subs	r0, #32
  1179f0:	bc18      	pop	{r3, r4}
  1179f2:	4770      	bx	lr

001179f4 <wifi_rom_mpi_size>:
  1179f4:	b508      	push	{r3, lr}
  1179f6:	f7ff ffcf 	bl	117998 <wifi_rom_mpi_bitlen>
  1179fa:	3007      	adds	r0, #7
  1179fc:	08c0      	lsrs	r0, r0, #3
  1179fe:	bd08      	pop	{r3, pc}

00117a00 <wifi_rom_mpi_read_binary>:
  117a00:	f012 0303 	ands.w	r3, r2, #3
  117a04:	e92d 41f0 	stmdb	sp!, {r4, r5, r6, r7, r8, lr}
  117a08:	bf18      	it	ne
  117a0a:	2301      	movne	r3, #1
  117a0c:	4616      	mov	r6, r2
  117a0e:	6842      	ldr	r2, [r0, #4]
  117a10:	eb03 0796 	add.w	r7, r3, r6, lsr #2
  117a14:	42ba      	cmp	r2, r7
  117a16:	4604      	mov	r4, r0
  117a18:	4688      	mov	r8, r1
  117a1a:	d00c      	beq.n	117a36 <wifi_rom_mpi_read_binary+0x36>
  117a1c:	f7ff fe22 	bl	117664 <wifi_rom_mpi_free>
  117a20:	2300      	movs	r3, #0
  117a22:	2201      	movs	r2, #1
  117a24:	4639      	mov	r1, r7
  117a26:	4620      	mov	r0, r4
  117a28:	e9c4 2300 	strd	r2, r3, [r4]
  117a2c:	60a3      	str	r3, [r4, #8]
  117a2e:	f7ff fe31 	bl	117694 <wifi_rom_mpi_grow>
  117a32:	4605      	mov	r5, r0
  117a34:	b928      	cbnz	r0, 117a42 <wifi_rom_mpi_read_binary+0x42>
  117a36:	2101      	movs	r1, #1
  117a38:	4620      	mov	r0, r4
  117a3a:	f7ff fe2b 	bl	117694 <wifi_rom_mpi_grow>
  117a3e:	4605      	mov	r5, r0
  117a40:	b110      	cbz	r0, 117a48 <wifi_rom_mpi_read_binary+0x48>
  117a42:	4628      	mov	r0, r5
  117a44:	e8bd 81f0 	ldmia.w	sp!, {r4, r5, r6, r7, r8, pc}
  117a48:	6862      	ldr	r2, [r4, #4]
  117a4a:	4601      	mov	r1, r0
  117a4c:	0092      	lsls	r2, r2, #2
  117a4e:	68a0      	ldr	r0, [r4, #8]
  117a50:	f7ea fa8a 	bl	101f68 <_strlen+0x34b>
  117a54:	2301      	movs	r3, #1
  117a56:	68a2      	ldr	r2, [r4, #8]
  117a58:	6015      	str	r5, [r2, #0]
  117a5a:	6023      	str	r3, [r4, #0]
  117a5c:	f1b8 0f00 	cmp.w	r8, #0
  117a60:	d0ef      	beq.n	117a42 <wifi_rom_mpi_read_binary+0x42>
  117a62:	68a0      	ldr	r0, [r4, #8]
  117a64:	ebc6 0387 	rsb	r3, r6, r7, lsl #2
  117a68:	4632      	mov	r2, r6
  117a6a:	4641      	mov	r1, r8
  117a6c:	4418      	add	r0, r3
  117a6e:	00be      	lsls	r6, r7, #2
  117a70:	f7ea fa7e 	bl	101f70 <__wrap_memset+0x7>
  117a74:	2f00      	cmp	r7, #0
  117a76:	d0e4      	beq.n	117a42 <wifi_rom_mpi_read_binary+0x42>
  117a78:	68a2      	ldr	r2, [r4, #8]
  117a7a:	1f33      	subs	r3, r6, #4
  117a7c:	18d3      	adds	r3, r2, r3
  117a7e:	d2e0      	bcs.n	117a42 <wifi_rom_mpi_read_binary+0x42>
  117a80:	6811      	ldr	r1, [r2, #0]
  117a82:	6818      	ldr	r0, [r3, #0]
  117a84:	ba09      	rev	r1, r1
  117a86:	ba00      	rev	r0, r0
  117a88:	f842 0b04 	str.w	r0, [r2], #4
  117a8c:	f843 1904 	str.w	r1, [r3], #-4
  117a90:	429a      	cmp	r2, r3
  117a92:	d9f5      	bls.n	117a80 <wifi_rom_mpi_read_binary+0x80>
  117a94:	4628      	mov	r0, r5
  117a96:	e8bd 81f0 	ldmia.w	sp!, {r4, r5, r6, r7, r8, pc}
  117a9a:	bf00      	nop

00117a9c <wifi_rom_mpi_write_binary>:
  117a9c:	b5f8      	push	{r3, r4, r5, r6, r7, lr}
  117a9e:	4604      	mov	r4, r0
  117aa0:	6866      	ldr	r6, [r4, #4]
  117aa2:	4608      	mov	r0, r1
  117aa4:	00b6      	lsls	r6, r6, #2
  117aa6:	4296      	cmp	r6, r2
  117aa8:	d332      	bcc.n	117b10 <wifi_rom_mpi_write_binary+0x74>
  117aaa:	d91a      	bls.n	117ae2 <wifi_rom_mpi_write_binary+0x46>
  117aac:	68a1      	ldr	r1, [r4, #8]
  117aae:	f022 0303 	bic.w	r3, r2, #3
  117ab2:	58cb      	ldr	r3, [r1, r3]
  117ab4:	f002 0503 	and.w	r5, r2, #3
  117ab8:	00ed      	lsls	r5, r5, #3
  117aba:	40eb      	lsrs	r3, r5
  117abc:	b2db      	uxtb	r3, r3
  117abe:	bb7b      	cbnz	r3, 117b20 <wifi_rom_mpi_write_binary+0x84>
  117ac0:	4694      	mov	ip, r2
  117ac2:	1ab6      	subs	r6, r6, r2
  117ac4:	e003      	b.n	117ace <wifi_rom_mpi_write_binary+0x32>
  117ac6:	59cb      	ldr	r3, [r1, r7]
  117ac8:	40eb      	lsrs	r3, r5
  117aca:	b2db      	uxtb	r3, r3
  117acc:	bb43      	cbnz	r3, 117b20 <wifi_rom_mpi_write_binary+0x84>
  117ace:	f10c 0c01 	add.w	ip, ip, #1
  117ad2:	f00c 0303 	and.w	r3, ip, #3
  117ad6:	3e01      	subs	r6, #1
  117ad8:	f02c 0703 	bic.w	r7, ip, #3
  117adc:	ea4f 05c3 	mov.w	r5, r3, lsl #3
  117ae0:	d1f1      	bne.n	117ac6 <wifi_rom_mpi_write_binary+0x2a>
  117ae2:	b19a      	cbz	r2, 117b0c <wifi_rom_mpi_write_binary+0x70>
  117ae4:	4402      	add	r2, r0
  117ae6:	eba2 0e00 	sub.w	lr, r2, r0
  117aea:	f04e e001 	dls	lr, lr
  117aee:	4610      	mov	r0, r2
  117af0:	1a13      	subs	r3, r2, r0
  117af2:	68a5      	ldr	r5, [r4, #8]
  117af4:	f023 0103 	bic.w	r1, r3, #3
  117af8:	5869      	ldr	r1, [r5, r1]
  117afa:	f003 0303 	and.w	r3, r3, #3
  117afe:	00db      	lsls	r3, r3, #3
  117b00:	fa21 f303 	lsr.w	r3, r1, r3
  117b04:	f800 3d01 	strb.w	r3, [r0, #-1]!
  117b08:	f00f c00f 	le	lr, 117af0 <wifi_rom_mpi_write_binary+0x54>
  117b0c:	2000      	movs	r0, #0
  117b0e:	bdf8      	pop	{r3, r4, r5, r6, r7, pc}
  117b10:	1b92      	subs	r2, r2, r6
  117b12:	188d      	adds	r5, r1, r2
  117b14:	2100      	movs	r1, #0
  117b16:	f7ea fa27 	bl	101f68 <_strlen+0x34b>
  117b1a:	4628      	mov	r0, r5
  117b1c:	4632      	mov	r2, r6
  117b1e:	e7e0      	b.n	117ae2 <wifi_rom_mpi_write_binary+0x46>
  117b20:	f06f 0007 	mvn.w	r0, #7
  117b24:	bdf8      	pop	{r3, r4, r5, r6, r7, pc}
  117b26:	bf00      	nop

00117b28 <wifi_rom_mpi_shift_l>:
  117b28:	b5f8      	push	{r3, r4, r5, r6, r7, lr}
  117b2a:	4605      	mov	r5, r0
  117b2c:	460f      	mov	r7, r1
  117b2e:	f7ff ff33 	bl	117998 <wifi_rom_mpi_bitlen>
  117b32:	686b      	ldr	r3, [r5, #4]
  117b34:	4438      	add	r0, r7
  117b36:	ebb0 1f43 	cmp.w	r0, r3, lsl #5
  117b3a:	ea4f 1457 	mov.w	r4, r7, lsr #5
  117b3e:	f007 061f 	and.w	r6, r7, #31
  117b42:	d843      	bhi.n	117bcc <wifi_rom_mpi_shift_l+0xa4>
  117b44:	2f1f      	cmp	r7, #31
  117b46:	d925      	bls.n	117b94 <wifi_rom_mpi_shift_l+0x6c>
  117b48:	686a      	ldr	r2, [r5, #4]
  117b4a:	4294      	cmp	r4, r2
  117b4c:	d24a      	bcs.n	117be4 <wifi_rom_mpi_shift_l+0xbc>
  117b4e:	eba2 0e04 	sub.w	lr, r2, r4
  117b52:	f04e e001 	dls	lr, lr
  117b56:	f102 4380 	add.w	r3, r2, #1073741824	; 0x40000000
  117b5a:	3b01      	subs	r3, #1
  117b5c:	f1c4 4780 	rsb	r7, r4, #1073741824	; 0x40000000
  117b60:	009b      	lsls	r3, r3, #2
  117b62:	00bf      	lsls	r7, r7, #2
  117b64:	68a9      	ldr	r1, [r5, #8]
  117b66:	3a01      	subs	r2, #1
  117b68:	19c8      	adds	r0, r1, r7
  117b6a:	58c0      	ldr	r0, [r0, r3]
  117b6c:	50c8      	str	r0, [r1, r3]
  117b6e:	3b04      	subs	r3, #4
  117b70:	f00f c009 	le	lr, 117b64 <wifi_rom_mpi_shift_l+0x3c>
  117b74:	f102 4280 	add.w	r2, r2, #1073741824	; 0x40000000
  117b78:	3a01      	subs	r2, #1
  117b7a:	0093      	lsls	r3, r2, #2
  117b7c:	f022 4240 	bic.w	r2, r2, #3221225472	; 0xc0000000
  117b80:	f102 0e01 	add.w	lr, r2, #1
  117b84:	f04e e001 	dls	lr, lr
  117b88:	2100      	movs	r1, #0
  117b8a:	68aa      	ldr	r2, [r5, #8]
  117b8c:	50d1      	str	r1, [r2, r3]
  117b8e:	3b04      	subs	r3, #4
  117b90:	f00f c805 	le	lr, 117b8a <wifi_rom_mpi_shift_l+0x62>
  117b94:	b1c6      	cbz	r6, 117bc8 <wifi_rom_mpi_shift_l+0xa0>
  117b96:	686b      	ldr	r3, [r5, #4]
  117b98:	429c      	cmp	r4, r3
  117b9a:	d215      	bcs.n	117bc8 <wifi_rom_mpi_shift_l+0xa0>
  117b9c:	2300      	movs	r3, #0
  117b9e:	f1c6 0720 	rsb	r7, r6, #32
  117ba2:	4618      	mov	r0, r3
  117ba4:	68aa      	ldr	r2, [r5, #8]
  117ba6:	f852 3024 	ldr.w	r3, [r2, r4, lsl #2]
  117baa:	fa03 f106 	lsl.w	r1, r3, r6
  117bae:	f842 1024 	str.w	r1, [r2, r4, lsl #2]
  117bb2:	68a9      	ldr	r1, [r5, #8]
  117bb4:	40fb      	lsrs	r3, r7
  117bb6:	f851 2024 	ldr.w	r2, [r1, r4, lsl #2]
  117bba:	4302      	orrs	r2, r0
  117bbc:	f841 2024 	str.w	r2, [r1, r4, lsl #2]
  117bc0:	686a      	ldr	r2, [r5, #4]
  117bc2:	3401      	adds	r4, #1
  117bc4:	42a2      	cmp	r2, r4
  117bc6:	d8ec      	bhi.n	117ba2 <wifi_rom_mpi_shift_l+0x7a>
  117bc8:	2000      	movs	r0, #0
  117bca:	bdf8      	pop	{r3, r4, r5, r6, r7, pc}
  117bcc:	f010 011f 	ands.w	r1, r0, #31
  117bd0:	bf18      	it	ne
  117bd2:	2101      	movne	r1, #1
  117bd4:	eb01 1150 	add.w	r1, r1, r0, lsr #5
  117bd8:	4628      	mov	r0, r5
  117bda:	f7ff fd5b 	bl	117694 <wifi_rom_mpi_grow>
  117bde:	2800      	cmp	r0, #0
  117be0:	d0b0      	beq.n	117b44 <wifi_rom_mpi_shift_l+0x1c>
  117be2:	bdf8      	pop	{r3, r4, r5, r6, r7, pc}
  117be4:	2a00      	cmp	r2, #0
  117be6:	d1c5      	bne.n	117b74 <wifi_rom_mpi_shift_l+0x4c>
  117be8:	e7ee      	b.n	117bc8 <wifi_rom_mpi_shift_l+0xa0>
  117bea:	bf00      	nop

00117bec <wifi_rom_mpi_shift_r>:
  117bec:	b570      	push	{r4, r5, r6, lr}
  117bee:	6842      	ldr	r2, [r0, #4]
  117bf0:	ea4f 1c51 	mov.w	ip, r1, lsr #5
  117bf4:	4562      	cmp	r2, ip
  117bf6:	4604      	mov	r4, r0
  117bf8:	d33b      	bcc.n	117c72 <wifi_rom_mpi_shift_r+0x86>
  117bfa:	f001 051f 	and.w	r5, r1, #31
  117bfe:	d037      	beq.n	117c70 <wifi_rom_mpi_shift_r+0x84>
  117c00:	291f      	cmp	r1, #31
  117c02:	d917      	bls.n	117c34 <wifi_rom_mpi_shift_r+0x48>
  117c04:	2300      	movs	r3, #0
  117c06:	ea4f 018c 	mov.w	r1, ip, lsl #2
  117c0a:	68a2      	ldr	r2, [r4, #8]
  117c0c:	5850      	ldr	r0, [r2, r1]
  117c0e:	3104      	adds	r1, #4
  117c10:	f842 0023 	str.w	r0, [r2, r3, lsl #2]
  117c14:	6862      	ldr	r2, [r4, #4]
  117c16:	3301      	adds	r3, #1
  117c18:	eba2 000c 	sub.w	r0, r2, ip
  117c1c:	4298      	cmp	r0, r3
  117c1e:	d8f4      	bhi.n	117c0a <wifi_rom_mpi_shift_r+0x1e>
  117c20:	429a      	cmp	r2, r3
  117c22:	d907      	bls.n	117c34 <wifi_rom_mpi_shift_r+0x48>
  117c24:	2100      	movs	r1, #0
  117c26:	68a2      	ldr	r2, [r4, #8]
  117c28:	f842 1023 	str.w	r1, [r2, r3, lsl #2]
  117c2c:	6862      	ldr	r2, [r4, #4]
  117c2e:	3301      	adds	r3, #1
  117c30:	429a      	cmp	r2, r3
  117c32:	d8f8      	bhi.n	117c26 <wifi_rom_mpi_shift_r+0x3a>
  117c34:	b1cd      	cbz	r5, 117c6a <wifi_rom_mpi_shift_r+0x7e>
  117c36:	b1c2      	cbz	r2, 117c6a <wifi_rom_mpi_shift_r+0x7e>
  117c38:	f042 e001 	dls	lr, r2
  117c3c:	1e53      	subs	r3, r2, #1
  117c3e:	2200      	movs	r2, #0
  117c40:	f1c5 0620 	rsb	r6, r5, #32
  117c44:	4694      	mov	ip, r2
  117c46:	68a1      	ldr	r1, [r4, #8]
  117c48:	f851 2023 	ldr.w	r2, [r1, r3, lsl #2]
  117c4c:	fa22 f005 	lsr.w	r0, r2, r5
  117c50:	f841 0023 	str.w	r0, [r1, r3, lsl #2]
  117c54:	68a0      	ldr	r0, [r4, #8]
  117c56:	40b2      	lsls	r2, r6
  117c58:	f850 1023 	ldr.w	r1, [r0, r3, lsl #2]
  117c5c:	ea41 010c 	orr.w	r1, r1, ip
  117c60:	f840 1023 	str.w	r1, [r0, r3, lsl #2]
  117c64:	3b01      	subs	r3, #1
  117c66:	f00f c813 	le	lr, 117c44 <wifi_rom_mpi_shift_r+0x58>
  117c6a:	2500      	movs	r5, #0
  117c6c:	4628      	mov	r0, r5
  117c6e:	bd70      	pop	{r4, r5, r6, pc}
  117c70:	b195      	cbz	r5, 117c98 <wifi_rom_mpi_shift_r+0xac>
  117c72:	2101      	movs	r1, #1
  117c74:	4620      	mov	r0, r4
  117c76:	f7ff fd0d 	bl	117694 <wifi_rom_mpi_grow>
  117c7a:	4605      	mov	r5, r0
  117c7c:	2800      	cmp	r0, #0
  117c7e:	d1f5      	bne.n	117c6c <wifi_rom_mpi_shift_r+0x80>
  117c80:	6862      	ldr	r2, [r4, #4]
  117c82:	4601      	mov	r1, r0
  117c84:	0092      	lsls	r2, r2, #2
  117c86:	68a0      	ldr	r0, [r4, #8]
  117c88:	f7ea f96e 	bl	101f68 <_strlen+0x34b>
  117c8c:	2301      	movs	r3, #1
  117c8e:	68a2      	ldr	r2, [r4, #8]
  117c90:	4628      	mov	r0, r5
  117c92:	6015      	str	r5, [r2, #0]
  117c94:	6023      	str	r3, [r4, #0]
  117c96:	bd70      	pop	{r4, r5, r6, pc}
  117c98:	291f      	cmp	r1, #31
  117c9a:	d9e6      	bls.n	117c6a <wifi_rom_mpi_shift_r+0x7e>
  117c9c:	462b      	mov	r3, r5
  117c9e:	e7c1      	b.n	117c24 <wifi_rom_mpi_shift_r+0x38>

00117ca0 <wifi_rom_mpi_cmp_abs>:
  117ca0:	b570      	push	{r4, r5, r6, lr}
  117ca2:	6844      	ldr	r4, [r0, #4]
  117ca4:	4686      	mov	lr, r0
  117ca6:	684a      	ldr	r2, [r1, #4]
  117ca8:	b304      	cbz	r4, 117cec <wifi_rom_mpi_cmp_abs+0x4c>
  117caa:	6883      	ldr	r3, [r0, #8]
  117cac:	eb03 0c84 	add.w	ip, r3, r4, lsl #2
  117cb0:	4623      	mov	r3, r4
  117cb2:	e003      	b.n	117cbc <wifi_rom_mpi_cmp_abs+0x1c>
  117cb4:	3b01      	subs	r3, #1
  117cb6:	f104 34ff 	add.w	r4, r4, #4294967295	; 0xffffffff
  117cba:	d017      	beq.n	117cec <wifi_rom_mpi_cmp_abs+0x4c>
  117cbc:	f85c 5d04 	ldr.w	r5, [ip, #-4]!
  117cc0:	2d00      	cmp	r5, #0
  117cc2:	d0f7      	beq.n	117cb4 <wifi_rom_mpi_cmp_abs+0x14>
  117cc4:	b36a      	cbz	r2, 117d22 <wifi_rom_mpi_cmp_abs+0x82>
  117cc6:	688e      	ldr	r6, [r1, #8]
  117cc8:	4613      	mov	r3, r2
  117cca:	eb06 0182 	add.w	r1, r6, r2, lsl #2
  117cce:	e003      	b.n	117cd8 <wifi_rom_mpi_cmp_abs+0x38>
  117cd0:	3b01      	subs	r3, #1
  117cd2:	f102 32ff 	add.w	r2, r2, #4294967295	; 0xffffffff
  117cd6:	d003      	beq.n	117ce0 <wifi_rom_mpi_cmp_abs+0x40>
  117cd8:	f851 5d04 	ldr.w	r5, [r1, #-4]!
  117cdc:	2d00      	cmp	r5, #0
  117cde:	d0f7      	beq.n	117cd0 <wifi_rom_mpi_cmp_abs+0x30>
  117ce0:	b144      	cbz	r4, 117cf4 <wifi_rom_mpi_cmp_abs+0x54>
  117ce2:	42a2      	cmp	r2, r4
  117ce4:	f04f 0001 	mov.w	r0, #1
  117ce8:	d209      	bcs.n	117cfe <wifi_rom_mpi_cmp_abs+0x5e>
  117cea:	bd70      	pop	{r4, r5, r6, pc}
  117cec:	2a00      	cmp	r2, #0
  117cee:	d1ea      	bne.n	117cc6 <wifi_rom_mpi_cmp_abs+0x26>
  117cf0:	4610      	mov	r0, r2
  117cf2:	bd70      	pop	{r4, r5, r6, pc}
  117cf4:	3a00      	subs	r2, #0
  117cf6:	bf18      	it	ne
  117cf8:	2201      	movne	r2, #1
  117cfa:	4250      	negs	r0, r2
  117cfc:	bd70      	pop	{r4, r5, r6, pc}
  117cfe:	d812      	bhi.n	117d26 <wifi_rom_mpi_cmp_abs+0x86>
  117d00:	f8de 1008 	ldr.w	r1, [lr, #8]
  117d04:	4623      	mov	r3, r4
  117d06:	eb06 0284 	add.w	r2, r6, r4, lsl #2
  117d0a:	eb01 0184 	add.w	r1, r1, r4, lsl #2
  117d0e:	e002      	b.n	117d16 <wifi_rom_mpi_cmp_abs+0x76>
  117d10:	d309      	bcc.n	117d26 <wifi_rom_mpi_cmp_abs+0x86>
  117d12:	3b01      	subs	r3, #1
  117d14:	d00a      	beq.n	117d2c <wifi_rom_mpi_cmp_abs+0x8c>
  117d16:	f851 4d04 	ldr.w	r4, [r1, #-4]!
  117d1a:	f852 0d04 	ldr.w	r0, [r2, #-4]!
  117d1e:	4284      	cmp	r4, r0
  117d20:	d9f6      	bls.n	117d10 <wifi_rom_mpi_cmp_abs+0x70>
  117d22:	2001      	movs	r0, #1
  117d24:	bd70      	pop	{r4, r5, r6, pc}
  117d26:	f04f 30ff 	mov.w	r0, #4294967295	; 0xffffffff
  117d2a:	bd70      	pop	{r4, r5, r6, pc}
  117d2c:	2000      	movs	r0, #0
  117d2e:	bd70      	pop	{r4, r5, r6, pc}

00117d30 <wifi_rom_mpi_cmp_mpi>:
  117d30:	b570      	push	{r4, r5, r6, lr}
  117d32:	6844      	ldr	r4, [r0, #4]
  117d34:	4686      	mov	lr, r0
  117d36:	6848      	ldr	r0, [r1, #4]
  117d38:	b304      	cbz	r4, 117d7c <wifi_rom_mpi_cmp_mpi+0x4c>
  117d3a:	f8de 3008 	ldr.w	r3, [lr, #8]
  117d3e:	eb03 0c84 	add.w	ip, r3, r4, lsl #2
  117d42:	4623      	mov	r3, r4
  117d44:	e003      	b.n	117d4e <wifi_rom_mpi_cmp_mpi+0x1e>
  117d46:	3b01      	subs	r3, #1
  117d48:	f104 34ff 	add.w	r4, r4, #4294967295	; 0xffffffff
  117d4c:	d016      	beq.n	117d7c <wifi_rom_mpi_cmp_mpi+0x4c>
  117d4e:	f85c 5d04 	ldr.w	r5, [ip, #-4]!
  117d52:	2d00      	cmp	r5, #0
  117d54:	d0f7      	beq.n	117d46 <wifi_rom_mpi_cmp_mpi+0x16>
  117d56:	b1a8      	cbz	r0, 117d84 <wifi_rom_mpi_cmp_mpi+0x54>
  117d58:	688e      	ldr	r6, [r1, #8]
  117d5a:	4603      	mov	r3, r0
  117d5c:	eb06 0c80 	add.w	ip, r6, r0, lsl #2
  117d60:	e003      	b.n	117d6a <wifi_rom_mpi_cmp_mpi+0x3a>
  117d62:	3b01      	subs	r3, #1
  117d64:	f100 30ff 	add.w	r0, r0, #4294967295	; 0xffffffff
  117d68:	d00b      	beq.n	117d82 <wifi_rom_mpi_cmp_mpi+0x52>
  117d6a:	f85c 5d04 	ldr.w	r5, [ip, #-4]!
  117d6e:	2d00      	cmp	r5, #0
  117d70:	d0f7      	beq.n	117d62 <wifi_rom_mpi_cmp_mpi+0x32>
  117d72:	b964      	cbnz	r4, 117d8e <wifi_rom_mpi_cmp_mpi+0x5e>
  117d74:	b108      	cbz	r0, 117d7a <wifi_rom_mpi_cmp_mpi+0x4a>
  117d76:	680b      	ldr	r3, [r1, #0]
  117d78:	4258      	negs	r0, r3
  117d7a:	bd70      	pop	{r4, r5, r6, pc}
  117d7c:	2800      	cmp	r0, #0
  117d7e:	d1eb      	bne.n	117d58 <wifi_rom_mpi_cmp_mpi+0x28>
  117d80:	bd70      	pop	{r4, r5, r6, pc}
  117d82:	b114      	cbz	r4, 117d8a <wifi_rom_mpi_cmp_mpi+0x5a>
  117d84:	f8de 0000 	ldr.w	r0, [lr]
  117d88:	bd70      	pop	{r4, r5, r6, pc}
  117d8a:	2000      	movs	r0, #0
  117d8c:	bd70      	pop	{r4, r5, r6, pc}
  117d8e:	42a0      	cmp	r0, r4
  117d90:	d3f8      	bcc.n	117d84 <wifi_rom_mpi_cmp_mpi+0x54>
  117d92:	680b      	ldr	r3, [r1, #0]
  117d94:	d8f0      	bhi.n	117d78 <wifi_rom_mpi_cmp_mpi+0x48>
  117d96:	f8de 0000 	ldr.w	r0, [lr]
  117d9a:	2800      	cmp	r0, #0
  117d9c:	dd13      	ble.n	117dc6 <wifi_rom_mpi_cmp_mpi+0x96>
  117d9e:	2b00      	cmp	r3, #0
  117da0:	db1a      	blt.n	117dd8 <wifi_rom_mpi_cmp_mpi+0xa8>
  117da2:	f8de 1008 	ldr.w	r1, [lr, #8]
  117da6:	4622      	mov	r2, r4
  117da8:	eb06 0384 	add.w	r3, r6, r4, lsl #2
  117dac:	eb01 0184 	add.w	r1, r1, r4, lsl #2
  117db0:	e002      	b.n	117db8 <wifi_rom_mpi_cmp_mpi+0x88>
  117db2:	d30f      	bcc.n	117dd4 <wifi_rom_mpi_cmp_mpi+0xa4>
  117db4:	3a01      	subs	r2, #1
  117db6:	d0e8      	beq.n	117d8a <wifi_rom_mpi_cmp_mpi+0x5a>
  117db8:	f851 5d04 	ldr.w	r5, [r1, #-4]!
  117dbc:	f853 4d04 	ldr.w	r4, [r3, #-4]!
  117dc0:	42a5      	cmp	r5, r4
  117dc2:	d9f6      	bls.n	117db2 <wifi_rom_mpi_cmp_mpi+0x82>
  117dc4:	bd70      	pop	{r4, r5, r6, pc}
  117dc6:	2b00      	cmp	r3, #0
  117dc8:	ddeb      	ble.n	117da2 <wifi_rom_mpi_cmp_mpi+0x72>
  117dca:	2800      	cmp	r0, #0
  117dcc:	d0e9      	beq.n	117da2 <wifi_rom_mpi_cmp_mpi+0x72>
  117dce:	f04f 30ff 	mov.w	r0, #4294967295	; 0xffffffff
  117dd2:	bd70      	pop	{r4, r5, r6, pc}
  117dd4:	4240      	negs	r0, r0
  117dd6:	bd70      	pop	{r4, r5, r6, pc}
  117dd8:	2001      	movs	r0, #1
  117dda:	bd70      	pop	{r4, r5, r6, pc}

00117ddc <wifi_rom_mpi_cmp_int>:
  117ddc:	460b      	mov	r3, r1
  117dde:	2201      	movs	r2, #1
  117de0:	b500      	push	{lr}
  117de2:	b085      	sub	sp, #20
  117de4:	2b00      	cmp	r3, #0
  117de6:	9202      	str	r2, [sp, #8]
  117de8:	ea83 72e3 	eor.w	r2, r3, r3, asr #31
  117dec:	eba2 72e3 	sub.w	r2, r2, r3, asr #31
  117df0:	bfac      	ite	ge
  117df2:	2301      	movge	r3, #1
  117df4:	f04f 33ff 	movlt.w	r3, #4294967295	; 0xffffffff
  117df8:	a901      	add	r1, sp, #4
  117dfa:	e9cd 2300 	strd	r2, r3, [sp]
  117dfe:	f8cd d00c 	str.w	sp, [sp, #12]
  117e02:	f7ff ff95 	bl	117d30 <wifi_rom_mpi_cmp_mpi>
  117e06:	b005      	add	sp, #20
  117e08:	f85d fb04 	ldr.w	pc, [sp], #4

00117e0c <wifi_rom_mpi_add_abs>:
  117e0c:	4290      	cmp	r0, r2
  117e0e:	b5f8      	push	{r3, r4, r5, r6, r7, lr}
  117e10:	4606      	mov	r6, r0
  117e12:	460f      	mov	r7, r1
  117e14:	d007      	beq.n	117e26 <wifi_rom_mpi_add_abs+0x1a>
  117e16:	4288      	cmp	r0, r1
  117e18:	4614      	mov	r4, r2
  117e1a:	d003      	beq.n	117e24 <wifi_rom_mpi_add_abs+0x18>
  117e1c:	f7ff fca8 	bl	117770 <wifi_rom_mpi_copy>
  117e20:	2800      	cmp	r0, #0
  117e22:	d150      	bne.n	117ec6 <wifi_rom_mpi_add_abs+0xba>
  117e24:	4627      	mov	r7, r4
  117e26:	2301      	movs	r3, #1
  117e28:	6033      	str	r3, [r6, #0]
  117e2a:	687d      	ldr	r5, [r7, #4]
  117e2c:	2d00      	cmp	r5, #0
  117e2e:	d051      	beq.n	117ed4 <wifi_rom_mpi_add_abs+0xc8>
  117e30:	68ba      	ldr	r2, [r7, #8]
  117e32:	462b      	mov	r3, r5
  117e34:	eb02 0285 	add.w	r2, r2, r5, lsl #2
  117e38:	e003      	b.n	117e42 <wifi_rom_mpi_add_abs+0x36>
  117e3a:	3b01      	subs	r3, #1
  117e3c:	f105 35ff 	add.w	r5, r5, #4294967295	; 0xffffffff
  117e40:	d042      	beq.n	117ec8 <wifi_rom_mpi_add_abs+0xbc>
  117e42:	f852 1d04 	ldr.w	r1, [r2, #-4]!
  117e46:	2900      	cmp	r1, #0
  117e48:	d0f7      	beq.n	117e3a <wifi_rom_mpi_add_abs+0x2e>
  117e4a:	4629      	mov	r1, r5
  117e4c:	4630      	mov	r0, r6
  117e4e:	f7ff fc21 	bl	117694 <wifi_rom_mpi_grow>
  117e52:	2800      	cmp	r0, #0
  117e54:	d137      	bne.n	117ec6 <wifi_rom_mpi_add_abs+0xba>
  117e56:	4604      	mov	r4, r0
  117e58:	68b0      	ldr	r0, [r6, #8]
  117e5a:	462a      	mov	r2, r5
  117e5c:	4601      	mov	r1, r0
  117e5e:	4625      	mov	r5, r4
  117e60:	68bb      	ldr	r3, [r7, #8]
  117e62:	f1a3 0c04 	sub.w	ip, r3, #4
  117e66:	680b      	ldr	r3, [r1, #0]
  117e68:	f85c 7f04 	ldr.w	r7, [ip, #4]!
  117e6c:	191b      	adds	r3, r3, r4
  117e6e:	bf2c      	ite	cs
  117e70:	2401      	movcs	r4, #1
  117e72:	2400      	movcc	r4, #0
  117e74:	19db      	adds	r3, r3, r7
  117e76:	f144 0400 	adc.w	r4, r4, #0
  117e7a:	3a01      	subs	r2, #1
  117e7c:	f841 3b04 	str.w	r3, [r1], #4
  117e80:	f105 0501 	add.w	r5, r5, #1
  117e84:	d1ef      	bne.n	117e66 <wifi_rom_mpi_add_abs+0x5a>
  117e86:	eb00 0285 	add.w	r2, r0, r5, lsl #2
  117e8a:	b93c      	cbnz	r4, 117e9c <wifi_rom_mpi_add_abs+0x90>
  117e8c:	e01a      	b.n	117ec4 <wifi_rom_mpi_add_abs+0xb8>
  117e8e:	6813      	ldr	r3, [r2, #0]
  117e90:	191b      	adds	r3, r3, r4
  117e92:	f842 3b04 	str.w	r3, [r2], #4
  117e96:	f04f 0401 	mov.w	r4, #1
  117e9a:	d313      	bcc.n	117ec4 <wifi_rom_mpi_add_abs+0xb8>
  117e9c:	462f      	mov	r7, r5
  117e9e:	6873      	ldr	r3, [r6, #4]
  117ea0:	3501      	adds	r5, #1
  117ea2:	42bb      	cmp	r3, r7
  117ea4:	d8f3      	bhi.n	117e8e <wifi_rom_mpi_add_abs+0x82>
  117ea6:	4629      	mov	r1, r5
  117ea8:	4630      	mov	r0, r6
  117eaa:	f7ff fbf3 	bl	117694 <wifi_rom_mpi_grow>
  117eae:	b950      	cbnz	r0, 117ec6 <wifi_rom_mpi_add_abs+0xba>
  117eb0:	68b2      	ldr	r2, [r6, #8]
  117eb2:	eb02 0287 	add.w	r2, r2, r7, lsl #2
  117eb6:	6813      	ldr	r3, [r2, #0]
  117eb8:	191b      	adds	r3, r3, r4
  117eba:	f842 3b04 	str.w	r3, [r2], #4
  117ebe:	f04f 0401 	mov.w	r4, #1
  117ec2:	d2eb      	bcs.n	117e9c <wifi_rom_mpi_add_abs+0x90>
  117ec4:	2000      	movs	r0, #0
  117ec6:	bdf8      	pop	{r3, r4, r5, r6, r7, pc}
  117ec8:	4630      	mov	r0, r6
  117eca:	f7ff fbe3 	bl	117694 <wifi_rom_mpi_grow>
  117ece:	2800      	cmp	r0, #0
  117ed0:	d0f8      	beq.n	117ec4 <wifi_rom_mpi_add_abs+0xb8>
  117ed2:	bdf8      	pop	{r3, r4, r5, r6, r7, pc}
  117ed4:	4629      	mov	r1, r5
  117ed6:	4630      	mov	r0, r6
  117ed8:	f7ff fbdc 	bl	117694 <wifi_rom_mpi_grow>
  117edc:	2800      	cmp	r0, #0
  117ede:	d0f1      	beq.n	117ec4 <wifi_rom_mpi_add_abs+0xb8>
  117ee0:	e7f1      	b.n	117ec6 <wifi_rom_mpi_add_abs+0xba>
  117ee2:	bf00      	nop

00117ee4 <wifi_rom_mpi_sub_abs>:
  117ee4:	e92d 41f0 	stmdb	sp!, {r4, r5, r6, r7, r8, lr}
  117ee8:	2301      	movs	r3, #1
  117eea:	2700      	movs	r7, #0
  117eec:	b084      	sub	sp, #16
  117eee:	4290      	cmp	r0, r2
  117ef0:	4606      	mov	r6, r0
  117ef2:	460d      	mov	r5, r1
  117ef4:	e9cd 7702 	strd	r7, r7, [sp, #8]
  117ef8:	9301      	str	r3, [sp, #4]
  117efa:	d061      	beq.n	117fc0 <wifi_rom_mpi_sub_abs+0xdc>
  117efc:	4614      	mov	r4, r2
  117efe:	42ae      	cmp	r6, r5
  117f00:	d006      	beq.n	117f10 <wifi_rom_mpi_sub_abs+0x2c>
  117f02:	4629      	mov	r1, r5
  117f04:	4630      	mov	r0, r6
  117f06:	f7ff fc33 	bl	117770 <wifi_rom_mpi_copy>
  117f0a:	4680      	mov	r8, r0
  117f0c:	2800      	cmp	r0, #0
  117f0e:	d148      	bne.n	117fa2 <wifi_rom_mpi_sub_abs+0xbe>
  117f10:	2301      	movs	r3, #1
  117f12:	6033      	str	r3, [r6, #0]
  117f14:	6861      	ldr	r1, [r4, #4]
  117f16:	2900      	cmp	r1, #0
  117f18:	d041      	beq.n	117f9e <wifi_rom_mpi_sub_abs+0xba>
  117f1a:	f8d4 c008 	ldr.w	ip, [r4, #8]
  117f1e:	460b      	mov	r3, r1
  117f20:	eb0c 0281 	add.w	r2, ip, r1, lsl #2
  117f24:	e003      	b.n	117f2e <wifi_rom_mpi_sub_abs+0x4a>
  117f26:	3b01      	subs	r3, #1
  117f28:	f101 31ff 	add.w	r1, r1, #4294967295	; 0xffffffff
  117f2c:	d037      	beq.n	117f9e <wifi_rom_mpi_sub_abs+0xba>
  117f2e:	f852 0d04 	ldr.w	r0, [r2, #-4]!
  117f32:	2800      	cmp	r0, #0
  117f34:	d0f7      	beq.n	117f26 <wifi_rom_mpi_sub_abs+0x42>
  117f36:	2200      	movs	r2, #0
  117f38:	4614      	mov	r4, r2
  117f3a:	f041 e001 	dls	lr, r1
  117f3e:	68b1      	ldr	r1, [r6, #8]
  117f40:	3904      	subs	r1, #4
  117f42:	f851 5f04 	ldr.w	r5, [r1, #4]!
  117f46:	3201      	adds	r2, #1
  117f48:	1b2b      	subs	r3, r5, r4
  117f4a:	600b      	str	r3, [r1, #0]
  117f4c:	f85c 0b04 	ldr.w	r0, [ip], #4
  117f50:	4283      	cmp	r3, r0
  117f52:	bf2c      	ite	cs
  117f54:	f04f 0800 	movcs.w	r8, #0
  117f58:	f04f 0801 	movcc.w	r8, #1
  117f5c:	1a1b      	subs	r3, r3, r0
  117f5e:	42a5      	cmp	r5, r4
  117f60:	ea58 9428 			; <UNDEFINED> instruction: 0xea589428
  117f64:	600b      	str	r3, [r1, #0]
  117f66:	f00f c015 	le	lr, 117f42 <wifi_rom_mpi_sub_abs+0x5e>
  117f6a:	b1c4      	cbz	r4, 117f9e <wifi_rom_mpi_sub_abs+0xba>
  117f6c:	6871      	ldr	r1, [r6, #4]
  117f6e:	f04f 34ff 	mov.w	r4, #4294967295	; 0xffffffff
  117f72:	428a      	cmp	r2, r1
  117f74:	d306      	bcc.n	117f84 <wifi_rom_mpi_sub_abs+0xa0>
  117f76:	e00a      	b.n	117f8e <wifi_rom_mpi_sub_abs+0xaa>
  117f78:	f843 4022 	str.w	r4, [r3, r2, lsl #2]
  117f7c:	6871      	ldr	r1, [r6, #4]
  117f7e:	3201      	adds	r2, #1
  117f80:	4291      	cmp	r1, r2
  117f82:	d904      	bls.n	117f8e <wifi_rom_mpi_sub_abs+0xaa>
  117f84:	68b3      	ldr	r3, [r6, #8]
  117f86:	f853 0022 	ldr.w	r0, [r3, r2, lsl #2]
  117f8a:	2800      	cmp	r0, #0
  117f8c:	d0f4      	beq.n	117f78 <wifi_rom_mpi_sub_abs+0x94>
  117f8e:	4291      	cmp	r1, r2
  117f90:	d021      	beq.n	117fd6 <wifi_rom_mpi_sub_abs+0xf2>
  117f92:	68b1      	ldr	r1, [r6, #8]
  117f94:	f851 3022 	ldr.w	r3, [r1, r2, lsl #2]
  117f98:	3b01      	subs	r3, #1
  117f9a:	f841 3022 	str.w	r3, [r1, r2, lsl #2]
  117f9e:	f04f 0800 	mov.w	r8, #0
  117fa2:	b14f      	cbz	r7, 117fb8 <wifi_rom_mpi_sub_abs+0xd4>
  117fa4:	9902      	ldr	r1, [sp, #8]
  117fa6:	4638      	mov	r0, r7
  117fa8:	0089      	lsls	r1, r1, #2
  117faa:	f004 fc8b 	bl	11c8c4 <wifi_rom_platform_zeroize>
  117fae:	4b0b      	ldr	r3, [pc, #44]	; (117fdc <wifi_rom_mpi_sub_abs+0xf8>)
  117fb0:	4638      	mov	r0, r7
  117fb2:	681b      	ldr	r3, [r3, #0]
  117fb4:	685b      	ldr	r3, [r3, #4]
  117fb6:	4798      	blx	r3
  117fb8:	4640      	mov	r0, r8
  117fba:	b004      	add	sp, #16
  117fbc:	e8bd 81f0 	ldmia.w	sp!, {r4, r5, r6, r7, r8, pc}
  117fc0:	4601      	mov	r1, r0
  117fc2:	a801      	add	r0, sp, #4
  117fc4:	f7ff fbd4 	bl	117770 <wifi_rom_mpi_copy>
  117fc8:	4680      	mov	r8, r0
  117fca:	b910      	cbnz	r0, 117fd2 <wifi_rom_mpi_sub_abs+0xee>
  117fcc:	9f03      	ldr	r7, [sp, #12]
  117fce:	ac01      	add	r4, sp, #4
  117fd0:	e795      	b.n	117efe <wifi_rom_mpi_sub_abs+0x1a>
  117fd2:	9f03      	ldr	r7, [sp, #12]
  117fd4:	e7e5      	b.n	117fa2 <wifi_rom_mpi_sub_abs+0xbe>
  117fd6:	f06f 0809 	mvn.w	r8, #9
  117fda:	e7e2      	b.n	117fa2 <wifi_rom_mpi_sub_abs+0xbe>
  117fdc:	200014c4 	.word	0x200014c4

00117fe0 <wifi_rom_mpi_add_mpi>:
  117fe0:	b5f8      	push	{r3, r4, r5, r6, r7, lr}
  117fe2:	680f      	ldr	r7, [r1, #0]
  117fe4:	6813      	ldr	r3, [r2, #0]
  117fe6:	4606      	mov	r6, r0
  117fe8:	fb07 f303 	mul.w	r3, r7, r3
  117fec:	2b00      	cmp	r3, #0
  117fee:	da19      	bge.n	118024 <wifi_rom_mpi_add_mpi+0x44>
  117ff0:	460d      	mov	r5, r1
  117ff2:	4611      	mov	r1, r2
  117ff4:	4628      	mov	r0, r5
  117ff6:	4614      	mov	r4, r2
  117ff8:	f7ff fe52 	bl	117ca0 <wifi_rom_mpi_cmp_abs>
  117ffc:	2800      	cmp	r0, #0
  117ffe:	db08      	blt.n	118012 <wifi_rom_mpi_add_mpi+0x32>
  118000:	4622      	mov	r2, r4
  118002:	4629      	mov	r1, r5
  118004:	4630      	mov	r0, r6
  118006:	f7ff ff6d 	bl	117ee4 <wifi_rom_mpi_sub_abs>
  11800a:	b908      	cbnz	r0, 118010 <wifi_rom_mpi_add_mpi+0x30>
  11800c:	2000      	movs	r0, #0
  11800e:	6037      	str	r7, [r6, #0]
  118010:	bdf8      	pop	{r3, r4, r5, r6, r7, pc}
  118012:	462a      	mov	r2, r5
  118014:	4621      	mov	r1, r4
  118016:	4630      	mov	r0, r6
  118018:	f7ff ff64 	bl	117ee4 <wifi_rom_mpi_sub_abs>
  11801c:	2800      	cmp	r0, #0
  11801e:	d1f7      	bne.n	118010 <wifi_rom_mpi_add_mpi+0x30>
  118020:	427f      	negs	r7, r7
  118022:	e7f3      	b.n	11800c <wifi_rom_mpi_add_mpi+0x2c>
  118024:	f7ff fef2 	bl	117e0c <wifi_rom_mpi_add_abs>
  118028:	2800      	cmp	r0, #0
  11802a:	d0ef      	beq.n	11800c <wifi_rom_mpi_add_mpi+0x2c>
  11802c:	bdf8      	pop	{r3, r4, r5, r6, r7, pc}
  11802e:	bf00      	nop

00118030 <wifi_rom_mpi_sub_mpi>:
  118030:	b5f8      	push	{r3, r4, r5, r6, r7, lr}
  118032:	680f      	ldr	r7, [r1, #0]
  118034:	6813      	ldr	r3, [r2, #0]
  118036:	4606      	mov	r6, r0
  118038:	fb07 f303 	mul.w	r3, r7, r3
  11803c:	2b00      	cmp	r3, #0
  11803e:	dd19      	ble.n	118074 <wifi_rom_mpi_sub_mpi+0x44>
  118040:	460d      	mov	r5, r1
  118042:	4611      	mov	r1, r2
  118044:	4628      	mov	r0, r5
  118046:	4614      	mov	r4, r2
  118048:	f7ff fe2a 	bl	117ca0 <wifi_rom_mpi_cmp_abs>
  11804c:	2800      	cmp	r0, #0
  11804e:	db08      	blt.n	118062 <wifi_rom_mpi_sub_mpi+0x32>
  118050:	4622      	mov	r2, r4
  118052:	4629      	mov	r1, r5
  118054:	4630      	mov	r0, r6
  118056:	f7ff ff45 	bl	117ee4 <wifi_rom_mpi_sub_abs>
  11805a:	b908      	cbnz	r0, 118060 <wifi_rom_mpi_sub_mpi+0x30>
  11805c:	2000      	movs	r0, #0
  11805e:	6037      	str	r7, [r6, #0]
  118060:	bdf8      	pop	{r3, r4, r5, r6, r7, pc}
  118062:	462a      	mov	r2, r5
  118064:	4621      	mov	r1, r4
  118066:	4630      	mov	r0, r6
  118068:	f7ff ff3c 	bl	117ee4 <wifi_rom_mpi_sub_abs>
  11806c:	2800      	cmp	r0, #0
  11806e:	d1f7      	bne.n	118060 <wifi_rom_mpi_sub_mpi+0x30>
  118070:	427f      	negs	r7, r7
  118072:	e7f3      	b.n	11805c <wifi_rom_mpi_sub_mpi+0x2c>
  118074:	f7ff feca 	bl	117e0c <wifi_rom_mpi_add_abs>
  118078:	2800      	cmp	r0, #0
  11807a:	d0ef      	beq.n	11805c <wifi_rom_mpi_sub_mpi+0x2c>
  11807c:	bdf8      	pop	{r3, r4, r5, r6, r7, pc}
  11807e:	bf00      	nop

00118080 <wifi_rom_mpi_add_int>:
  118080:	2301      	movs	r3, #1
  118082:	b570      	push	{r4, r5, r6, lr}
  118084:	b084      	sub	sp, #16
  118086:	9302      	str	r3, [sp, #8]
  118088:	ea82 73e2 	eor.w	r3, r2, r2, asr #31
  11808c:	eba3 73e2 	sub.w	r3, r3, r2, asr #31
  118090:	2a00      	cmp	r2, #0
  118092:	9300      	str	r3, [sp, #0]
  118094:	bfac      	ite	ge
  118096:	2301      	movge	r3, #1
  118098:	f04f 33ff 	movlt.w	r3, #4294967295	; 0xffffffff
  11809c:	680e      	ldr	r6, [r1, #0]
  11809e:	9301      	str	r3, [sp, #4]
  1180a0:	fb06 f303 	mul.w	r3, r6, r3
  1180a4:	2b00      	cmp	r3, #0
  1180a6:	4605      	mov	r5, r0
  1180a8:	f8cd d00c 	str.w	sp, [sp, #12]
  1180ac:	da19      	bge.n	1180e2 <wifi_rom_mpi_add_int+0x62>
  1180ae:	460c      	mov	r4, r1
  1180b0:	a901      	add	r1, sp, #4
  1180b2:	4620      	mov	r0, r4
  1180b4:	f7ff fdf4 	bl	117ca0 <wifi_rom_mpi_cmp_abs>
  1180b8:	2800      	cmp	r0, #0
  1180ba:	db09      	blt.n	1180d0 <wifi_rom_mpi_add_int+0x50>
  1180bc:	4621      	mov	r1, r4
  1180be:	4628      	mov	r0, r5
  1180c0:	aa01      	add	r2, sp, #4
  1180c2:	f7ff ff0f 	bl	117ee4 <wifi_rom_mpi_sub_abs>
  1180c6:	b908      	cbnz	r0, 1180cc <wifi_rom_mpi_add_int+0x4c>
  1180c8:	2000      	movs	r0, #0
  1180ca:	602e      	str	r6, [r5, #0]
  1180cc:	b004      	add	sp, #16
  1180ce:	bd70      	pop	{r4, r5, r6, pc}
  1180d0:	4622      	mov	r2, r4
  1180d2:	4628      	mov	r0, r5
  1180d4:	a901      	add	r1, sp, #4
  1180d6:	f7ff ff05 	bl	117ee4 <wifi_rom_mpi_sub_abs>
  1180da:	2800      	cmp	r0, #0
  1180dc:	d1f6      	bne.n	1180cc <wifi_rom_mpi_add_int+0x4c>
  1180de:	4276      	negs	r6, r6
  1180e0:	e7f2      	b.n	1180c8 <wifi_rom_mpi_add_int+0x48>
  1180e2:	aa01      	add	r2, sp, #4
  1180e4:	f7ff fe92 	bl	117e0c <wifi_rom_mpi_add_abs>
  1180e8:	2800      	cmp	r0, #0
  1180ea:	d0ed      	beq.n	1180c8 <wifi_rom_mpi_add_int+0x48>
  1180ec:	b004      	add	sp, #16
  1180ee:	bd70      	pop	{r4, r5, r6, pc}

001180f0 <wifi_rom_mpi_sub_int>:
  1180f0:	2301      	movs	r3, #1
  1180f2:	b570      	push	{r4, r5, r6, lr}
  1180f4:	b084      	sub	sp, #16
  1180f6:	9302      	str	r3, [sp, #8]
  1180f8:	ea82 73e2 	eor.w	r3, r2, r2, asr #31
  1180fc:	eba3 73e2 	sub.w	r3, r3, r2, asr #31
  118100:	2a00      	cmp	r2, #0
  118102:	9300      	str	r3, [sp, #0]
  118104:	bfac      	ite	ge
  118106:	2301      	movge	r3, #1
  118108:	f04f 33ff 	movlt.w	r3, #4294967295	; 0xffffffff
  11810c:	680e      	ldr	r6, [r1, #0]
  11810e:	9301      	str	r3, [sp, #4]
  118110:	fb06 f303 	mul.w	r3, r6, r3
  118114:	2b00      	cmp	r3, #0
  118116:	4605      	mov	r5, r0
  118118:	f8cd d00c 	str.w	sp, [sp, #12]
  11811c:	dd19      	ble.n	118152 <wifi_rom_mpi_sub_int+0x62>
  11811e:	460c      	mov	r4, r1
  118120:	a901      	add	r1, sp, #4
  118122:	4620      	mov	r0, r4
  118124:	f7ff fdbc 	bl	117ca0 <wifi_rom_mpi_cmp_abs>
  118128:	2800      	cmp	r0, #0
  11812a:	db09      	blt.n	118140 <wifi_rom_mpi_sub_int+0x50>
  11812c:	4621      	mov	r1, r4
  11812e:	4628      	mov	r0, r5
  118130:	aa01      	add	r2, sp, #4
  118132:	f7ff fed7 	bl	117ee4 <wifi_rom_mpi_sub_abs>
  118136:	b908      	cbnz	r0, 11813c <wifi_rom_mpi_sub_int+0x4c>
  118138:	2000      	movs	r0, #0
  11813a:	602e      	str	r6, [r5, #0]
  11813c:	b004      	add	sp, #16
  11813e:	bd70      	pop	{r4, r5, r6, pc}
  118140:	4622      	mov	r2, r4
  118142:	4628      	mov	r0, r5
  118144:	a901      	add	r1, sp, #4
  118146:	f7ff fecd 	bl	117ee4 <wifi_rom_mpi_sub_abs>
  11814a:	2800      	cmp	r0, #0
  11814c:	d1f6      	bne.n	11813c <wifi_rom_mpi_sub_int+0x4c>
  11814e:	4276      	negs	r6, r6
  118150:	e7f2      	b.n	118138 <wifi_rom_mpi_sub_int+0x48>
  118152:	aa01      	add	r2, sp, #4
  118154:	f7ff fe5a 	bl	117e0c <wifi_rom_mpi_add_abs>
  118158:	2800      	cmp	r0, #0
  11815a:	d0ed      	beq.n	118138 <wifi_rom_mpi_sub_int+0x48>
  11815c:	e7ee      	b.n	11813c <wifi_rom_mpi_sub_int+0x4c>
  11815e:	bf00      	nop

00118160 <wifi_rom_mpi_mul_hlp>:
  118160:	e92d 4ff0 	stmdb	sp!, {r4, r5, r6, r7, r8, r9, sl, fp, lr}
  118164:	280f      	cmp	r0, #15
  118166:	b085      	sub	sp, #20
  118168:	4691      	mov	r9, r2
  11816a:	469b      	mov	fp, r3
  11816c:	e9cd 1001 	strd	r1, r0, [sp, #4]
  118170:	f240 8414 	bls.w	11899c <wifi_rom_mpi_mul_hlp+0x83c>
  118174:	2400      	movs	r4, #0
  118176:	f1a0 0c10 	sub.w	ip, r0, #16
  11817a:	ea4f 1c1c 	mov.w	ip, ip, lsr #4
  11817e:	ea4f 451b 	mov.w	r5, fp, lsr #16
  118182:	f10c 0c01 	add.w	ip, ip, #1
  118186:	fa1f f28b 	uxth.w	r2, fp
  11818a:	f101 0740 	add.w	r7, r1, #64	; 0x40
  11818e:	f109 0340 	add.w	r3, r9, #64	; 0x40
  118192:	f857 1c40 	ldr.w	r1, [r7, #-64]
  118196:	3340      	adds	r3, #64	; 0x40
  118198:	fa1f fe81 	uxth.w	lr, r1
  11819c:	fb0e fa05 	mul.w	sl, lr, r5
  1181a0:	ea4f 4811 	mov.w	r8, r1, lsr #16
  1181a4:	fb02 f608 	mul.w	r6, r2, r8
  1181a8:	fb02 fe0e 	mul.w	lr, r2, lr
  1181ac:	ea4f 400a 	mov.w	r0, sl, lsl #16
  1181b0:	eb1e 0e00 	adds.w	lr, lr, r0
  1181b4:	ea4f 4016 	mov.w	r0, r6, lsr #16
  1181b8:	eb00 401a 	add.w	r0, r0, sl, lsr #16
  1181bc:	fb08 0005 	mla	r0, r8, r5, r0
  1181c0:	ea4f 4606 	mov.w	r6, r6, lsl #16
  1181c4:	f853 1c80 	ldr.w	r1, [r3, #-128]
  1181c8:	f140 0000 	adc.w	r0, r0, #0
  1181cc:	eb16 060e 	adds.w	r6, r6, lr
  1181d0:	f140 0000 	adc.w	r0, r0, #0
  1181d4:	1936      	adds	r6, r6, r4
  1181d6:	f140 0000 	adc.w	r0, r0, #0
  1181da:	1989      	adds	r1, r1, r6
  1181dc:	f843 1c80 	str.w	r1, [r3, #-128]
  1181e0:	f857 6c3c 	ldr.w	r6, [r7, #-60]
  1181e4:	f140 0000 	adc.w	r0, r0, #0
  1181e8:	ea4f 4816 	mov.w	r8, r6, lsr #16
  1181ec:	b2b6      	uxth	r6, r6
  1181ee:	fb06 fa05 	mul.w	sl, r6, r5
  1181f2:	fb02 fe08 	mul.w	lr, r2, r8
  1181f6:	fb02 f606 	mul.w	r6, r2, r6
  1181fa:	ea4f 440a 	mov.w	r4, sl, lsl #16
  1181fe:	1936      	adds	r6, r6, r4
  118200:	ea4f 441e 	mov.w	r4, lr, lsr #16
  118204:	eb04 441a 	add.w	r4, r4, sl, lsr #16
  118208:	fb08 4405 	mla	r4, r8, r5, r4
  11820c:	ea4f 4e0e 	mov.w	lr, lr, lsl #16
  118210:	f853 1c7c 	ldr.w	r1, [r3, #-124]
  118214:	f144 0400 	adc.w	r4, r4, #0
  118218:	eb1e 0e06 	adds.w	lr, lr, r6
  11821c:	f144 0400 	adc.w	r4, r4, #0
  118220:	eb10 000e 	adds.w	r0, r0, lr
  118224:	f144 0400 	adc.w	r4, r4, #0
  118228:	1809      	adds	r1, r1, r0
  11822a:	f843 1c7c 	str.w	r1, [r3, #-124]
  11822e:	f857 6c38 	ldr.w	r6, [r7, #-56]
  118232:	f144 0400 	adc.w	r4, r4, #0
  118236:	ea4f 4816 	mov.w	r8, r6, lsr #16
  11823a:	b2b6      	uxth	r6, r6
  11823c:	fb06 fa05 	mul.w	sl, r6, r5
  118240:	fb02 fe08 	mul.w	lr, r2, r8
  118244:	fb02 f606 	mul.w	r6, r2, r6
  118248:	ea4f 400a 	mov.w	r0, sl, lsl #16
  11824c:	1836      	adds	r6, r6, r0
  11824e:	ea4f 401e 	mov.w	r0, lr, lsr #16
  118252:	eb00 401a 	add.w	r0, r0, sl, lsr #16
  118256:	fb08 0005 	mla	r0, r8, r5, r0
  11825a:	ea4f 4e0e 	mov.w	lr, lr, lsl #16
  11825e:	f853 1c78 	ldr.w	r1, [r3, #-120]
  118262:	f140 0000 	adc.w	r0, r0, #0
  118266:	eb1e 0e06 	adds.w	lr, lr, r6
  11826a:	f140 0000 	adc.w	r0, r0, #0
  11826e:	eb14 040e 	adds.w	r4, r4, lr
  118272:	f140 0000 	adc.w	r0, r0, #0
  118276:	1909      	adds	r1, r1, r4
  118278:	f843 1c78 	str.w	r1, [r3, #-120]
  11827c:	f857 6c34 	ldr.w	r6, [r7, #-52]
  118280:	f140 0000 	adc.w	r0, r0, #0
  118284:	ea4f 4816 	mov.w	r8, r6, lsr #16
  118288:	b2b6      	uxth	r6, r6
  11828a:	fb06 fa05 	mul.w	sl, r6, r5
  11828e:	fb02 fe08 	mul.w	lr, r2, r8
  118292:	fb02 f606 	mul.w	r6, r2, r6
  118296:	ea4f 440a 	mov.w	r4, sl, lsl #16
  11829a:	1936      	adds	r6, r6, r4
  11829c:	ea4f 441e 	mov.w	r4, lr, lsr #16
  1182a0:	eb04 441a 	add.w	r4, r4, sl, lsr #16
  1182a4:	fb08 4405 	mla	r4, r8, r5, r4
  1182a8:	ea4f 4e0e 	mov.w	lr, lr, lsl #16
  1182ac:	f853 1c74 	ldr.w	r1, [r3, #-116]
  1182b0:	f144 0400 	adc.w	r4, r4, #0
  1182b4:	eb1e 0e06 	adds.w	lr, lr, r6
  1182b8:	f144 0400 	adc.w	r4, r4, #0
  1182bc:	eb10 000e 	adds.w	r0, r0, lr
  1182c0:	f144 0400 	adc.w	r4, r4, #0
  1182c4:	1809      	adds	r1, r1, r0
  1182c6:	f843 1c74 	str.w	r1, [r3, #-116]
  1182ca:	f857 6c30 	ldr.w	r6, [r7, #-48]
  1182ce:	f144 0400 	adc.w	r4, r4, #0
  1182d2:	ea4f 4816 	mov.w	r8, r6, lsr #16
  1182d6:	b2b6      	uxth	r6, r6
  1182d8:	fb06 fa05 	mul.w	sl, r6, r5
  1182dc:	fb02 fe08 	mul.w	lr, r2, r8
  1182e0:	fb02 f606 	mul.w	r6, r2, r6
  1182e4:	ea4f 400a 	mov.w	r0, sl, lsl #16
  1182e8:	1836      	adds	r6, r6, r0
  1182ea:	ea4f 401e 	mov.w	r0, lr, lsr #16
  1182ee:	eb00 401a 	add.w	r0, r0, sl, lsr #16
  1182f2:	fb08 0005 	mla	r0, r8, r5, r0
  1182f6:	ea4f 4e0e 	mov.w	lr, lr, lsl #16
  1182fa:	f853 1c70 	ldr.w	r1, [r3, #-112]
  1182fe:	f140 0000 	adc.w	r0, r0, #0
  118302:	eb1e 0e06 	adds.w	lr, lr, r6
  118306:	f140 0000 	adc.w	r0, r0, #0
  11830a:	eb14 040e 	adds.w	r4, r4, lr
  11830e:	f140 0000 	adc.w	r0, r0, #0
  118312:	1909      	adds	r1, r1, r4
  118314:	f843 1c70 	str.w	r1, [r3, #-112]
  118318:	f857 6c2c 	ldr.w	r6, [r7, #-44]
  11831c:	f140 0000 	adc.w	r0, r0, #0
  118320:	ea4f 4816 	mov.w	r8, r6, lsr #16
  118324:	b2b6      	uxth	r6, r6
  118326:	fb06 fa05 	mul.w	sl, r6, r5
  11832a:	fb02 fe08 	mul.w	lr, r2, r8
  11832e:	fb02 f606 	mul.w	r6, r2, r6
  118332:	ea4f 440a 	mov.w	r4, sl, lsl #16
  118336:	1936      	adds	r6, r6, r4
  118338:	ea4f 441e 	mov.w	r4, lr, lsr #16
  11833c:	eb04 441a 	add.w	r4, r4, sl, lsr #16
  118340:	fb08 4405 	mla	r4, r8, r5, r4
  118344:	ea4f 4e0e 	mov.w	lr, lr, lsl #16
  118348:	f853 1c6c 	ldr.w	r1, [r3, #-108]
  11834c:	f144 0400 	adc.w	r4, r4, #0
  118350:	eb1e 0e06 	adds.w	lr, lr, r6
  118354:	f144 0400 	adc.w	r4, r4, #0
  118358:	eb10 000e 	adds.w	r0, r0, lr
  11835c:	f144 0400 	adc.w	r4, r4, #0
  118360:	1809      	adds	r1, r1, r0
  118362:	f843 1c6c 	str.w	r1, [r3, #-108]
  118366:	f857 6c28 	ldr.w	r6, [r7, #-40]
  11836a:	f144 0400 	adc.w	r4, r4, #0
  11836e:	ea4f 4816 	mov.w	r8, r6, lsr #16
  118372:	b2b6      	uxth	r6, r6
  118374:	fb06 fa05 	mul.w	sl, r6, r5
  118378:	fb02 fe08 	mul.w	lr, r2, r8
  11837c:	fb02 f606 	mul.w	r6, r2, r6
  118380:	ea4f 400a 	mov.w	r0, sl, lsl #16
  118384:	1836      	adds	r6, r6, r0
  118386:	ea4f 401e 	mov.w	r0, lr, lsr #16
  11838a:	eb00 401a 	add.w	r0, r0, sl, lsr #16
  11838e:	fb08 0005 	mla	r0, r8, r5, r0
  118392:	ea4f 4e0e 	mov.w	lr, lr, lsl #16
  118396:	f853 1c68 	ldr.w	r1, [r3, #-104]
  11839a:	f140 0000 	adc.w	r0, r0, #0
  11839e:	eb1e 0e06 	adds.w	lr, lr, r6
  1183a2:	f140 0000 	adc.w	r0, r0, #0
  1183a6:	eb14 040e 	adds.w	r4, r4, lr
  1183aa:	f140 0000 	adc.w	r0, r0, #0
  1183ae:	1909      	adds	r1, r1, r4
  1183b0:	f843 1c68 	str.w	r1, [r3, #-104]
  1183b4:	f857 6c24 	ldr.w	r6, [r7, #-36]
  1183b8:	f140 0000 	adc.w	r0, r0, #0
  1183bc:	ea4f 4816 	mov.w	r8, r6, lsr #16
  1183c0:	b2b6      	uxth	r6, r6
  1183c2:	fb06 fa05 	mul.w	sl, r6, r5
  1183c6:	fb02 fe08 	mul.w	lr, r2, r8
  1183ca:	fb02 f606 	mul.w	r6, r2, r6
  1183ce:	ea4f 440a 	mov.w	r4, sl, lsl #16
  1183d2:	1936      	adds	r6, r6, r4
  1183d4:	ea4f 441e 	mov.w	r4, lr, lsr #16
  1183d8:	eb04 441a 	add.w	r4, r4, sl, lsr #16
  1183dc:	fb08 4405 	mla	r4, r8, r5, r4
  1183e0:	ea4f 4e0e 	mov.w	lr, lr, lsl #16
  1183e4:	f853 1c64 	ldr.w	r1, [r3, #-100]
  1183e8:	f144 0400 	adc.w	r4, r4, #0
  1183ec:	eb1e 0e06 	adds.w	lr, lr, r6
  1183f0:	f144 0400 	adc.w	r4, r4, #0
  1183f4:	eb10 000e 	adds.w	r0, r0, lr
  1183f8:	f144 0400 	adc.w	r4, r4, #0
  1183fc:	1809      	adds	r1, r1, r0
  1183fe:	f843 1c64 	str.w	r1, [r3, #-100]
  118402:	f857 6c20 	ldr.w	r6, [r7, #-32]
  118406:	f144 0400 	adc.w	r4, r4, #0
  11840a:	ea4f 4816 	mov.w	r8, r6, lsr #16
  11840e:	b2b6      	uxth	r6, r6
  118410:	fb06 fa05 	mul.w	sl, r6, r5
  118414:	fb02 fe08 	mul.w	lr, r2, r8
  118418:	fb02 f606 	mul.w	r6, r2, r6
  11841c:	ea4f 400a 	mov.w	r0, sl, lsl #16
  118420:	1836      	adds	r6, r6, r0
  118422:	ea4f 401e 	mov.w	r0, lr, lsr #16
  118426:	eb00 401a 	add.w	r0, r0, sl, lsr #16
  11842a:	fb08 0005 	mla	r0, r8, r5, r0
  11842e:	ea4f 4e0e 	mov.w	lr, lr, lsl #16
  118432:	f853 1c60 	ldr.w	r1, [r3, #-96]
  118436:	f140 0000 	adc.w	r0, r0, #0
  11843a:	eb1e 0e06 	adds.w	lr, lr, r6
  11843e:	f140 0000 	adc.w	r0, r0, #0
  118442:	eb14 040e 	adds.w	r4, r4, lr
  118446:	f140 0000 	adc.w	r0, r0, #0
  11844a:	1909      	adds	r1, r1, r4
  11844c:	f843 1c60 	str.w	r1, [r3, #-96]
  118450:	f857 6c1c 	ldr.w	r6, [r7, #-28]
  118454:	f140 0000 	adc.w	r0, r0, #0
  118458:	ea4f 4816 	mov.w	r8, r6, lsr #16
  11845c:	b2b6      	uxth	r6, r6
  11845e:	fb06 fa05 	mul.w	sl, r6, r5
  118462:	fb02 fe08 	mul.w	lr, r2, r8
  118466:	fb02 f606 	mul.w	r6, r2, r6
  11846a:	ea4f 440a 	mov.w	r4, sl, lsl #16
  11846e:	1936      	adds	r6, r6, r4
  118470:	ea4f 441e 	mov.w	r4, lr, lsr #16
  118474:	eb04 441a 	add.w	r4, r4, sl, lsr #16
  118478:	fb08 4405 	mla	r4, r8, r5, r4
  11847c:	ea4f 4e0e 	mov.w	lr, lr, lsl #16
  118480:	f853 1c5c 	ldr.w	r1, [r3, #-92]
  118484:	f144 0400 	adc.w	r4, r4, #0
  118488:	eb1e 0e06 	adds.w	lr, lr, r6
  11848c:	f144 0400 	adc.w	r4, r4, #0
  118490:	eb10 000e 	adds.w	r0, r0, lr
  118494:	f144 0400 	adc.w	r4, r4, #0
  118498:	1809      	adds	r1, r1, r0
  11849a:	f843 1c5c 	str.w	r1, [r3, #-92]
  11849e:	f857 6c18 	ldr.w	r6, [r7, #-24]
  1184a2:	f144 0400 	adc.w	r4, r4, #0
  1184a6:	ea4f 4816 	mov.w	r8, r6, lsr #16
  1184aa:	b2b6      	uxth	r6, r6
  1184ac:	fb06 fa05 	mul.w	sl, r6, r5
  1184b0:	fb02 fe08 	mul.w	lr, r2, r8
  1184b4:	fb02 f606 	mul.w	r6, r2, r6
  1184b8:	ea4f 400a 	mov.w	r0, sl, lsl #16
  1184bc:	1836      	adds	r6, r6, r0
  1184be:	ea4f 401e 	mov.w	r0, lr, lsr #16
  1184c2:	eb00 401a 	add.w	r0, r0, sl, lsr #16
  1184c6:	fb08 0005 	mla	r0, r8, r5, r0
  1184ca:	ea4f 4e0e 	mov.w	lr, lr, lsl #16
  1184ce:	f853 1c58 	ldr.w	r1, [r3, #-88]
  1184d2:	f140 0000 	adc.w	r0, r0, #0
  1184d6:	eb1e 0e06 	adds.w	lr, lr, r6
  1184da:	f140 0000 	adc.w	r0, r0, #0
  1184de:	eb14 040e 	adds.w	r4, r4, lr
  1184e2:	f140 0000 	adc.w	r0, r0, #0
  1184e6:	1909      	adds	r1, r1, r4
  1184e8:	f843 1c58 	str.w	r1, [r3, #-88]
  1184ec:	f857 6c14 	ldr.w	r6, [r7, #-20]
  1184f0:	f140 0000 	adc.w	r0, r0, #0
  1184f4:	ea4f 4816 	mov.w	r8, r6, lsr #16
  1184f8:	b2b6      	uxth	r6, r6
  1184fa:	fb06 fa05 	mul.w	sl, r6, r5
  1184fe:	fb02 fe08 	mul.w	lr, r2, r8
  118502:	fb02 f606 	mul.w	r6, r2, r6
  118506:	ea4f 440a 	mov.w	r4, sl, lsl #16
  11850a:	1936      	adds	r6, r6, r4
  11850c:	ea4f 441e 	mov.w	r4, lr, lsr #16
  118510:	eb04 441a 	add.w	r4, r4, sl, lsr #16
  118514:	fb08 4405 	mla	r4, r8, r5, r4
  118518:	ea4f 4e0e 	mov.w	lr, lr, lsl #16
  11851c:	f853 1c54 	ldr.w	r1, [r3, #-84]
  118520:	f144 0400 	adc.w	r4, r4, #0
  118524:	eb1e 0e06 	adds.w	lr, lr, r6
  118528:	f144 0400 	adc.w	r4, r4, #0
  11852c:	eb10 000e 	adds.w	r0, r0, lr
  118530:	f144 0400 	adc.w	r4, r4, #0
  118534:	1809      	adds	r1, r1, r0
  118536:	f843 1c54 	str.w	r1, [r3, #-84]
  11853a:	f857 6c10 	ldr.w	r6, [r7, #-16]
  11853e:	f144 0400 	adc.w	r4, r4, #0
  118542:	ea4f 4816 	mov.w	r8, r6, lsr #16
  118546:	b2b6      	uxth	r6, r6
  118548:	fb06 fa05 	mul.w	sl, r6, r5
  11854c:	fb02 fe08 	mul.w	lr, r2, r8
  118550:	fb02 f606 	mul.w	r6, r2, r6
  118554:	ea4f 410a 	mov.w	r1, sl, lsl #16
  118558:	1876      	adds	r6, r6, r1
  11855a:	ea4f 411e 	mov.w	r1, lr, lsr #16
  11855e:	eb01 411a 	add.w	r1, r1, sl, lsr #16
  118562:	fb08 1105 	mla	r1, r8, r5, r1
  118566:	ea4f 4e0e 	mov.w	lr, lr, lsl #16
  11856a:	f853 0c50 	ldr.w	r0, [r3, #-80]
  11856e:	f141 0100 	adc.w	r1, r1, #0
  118572:	eb1e 0e06 	adds.w	lr, lr, r6
  118576:	f141 0100 	adc.w	r1, r1, #0
  11857a:	eb14 040e 	adds.w	r4, r4, lr
  11857e:	f141 0100 	adc.w	r1, r1, #0
  118582:	1900      	adds	r0, r0, r4
  118584:	f843 0c50 	str.w	r0, [r3, #-80]
  118588:	f857 6c0c 	ldr.w	r6, [r7, #-12]
  11858c:	f141 0100 	adc.w	r1, r1, #0
  118590:	ea4f 4816 	mov.w	r8, r6, lsr #16
  118594:	b2b6      	uxth	r6, r6
  118596:	fb06 fa05 	mul.w	sl, r6, r5
  11859a:	fb02 fe08 	mul.w	lr, r2, r8
  11859e:	fb02 f606 	mul.w	r6, r2, r6
  1185a2:	ea4f 400a 	mov.w	r0, sl, lsl #16
  1185a6:	1836      	adds	r6, r6, r0
  1185a8:	ea4f 401e 	mov.w	r0, lr, lsr #16
  1185ac:	eb00 401a 	add.w	r0, r0, sl, lsr #16
  1185b0:	fb08 0005 	mla	r0, r8, r5, r0
  1185b4:	ea4f 4e0e 	mov.w	lr, lr, lsl #16
  1185b8:	f853 4c4c 	ldr.w	r4, [r3, #-76]
  1185bc:	f140 0000 	adc.w	r0, r0, #0
  1185c0:	eb1e 0e06 	adds.w	lr, lr, r6
  1185c4:	f140 0000 	adc.w	r0, r0, #0
  1185c8:	eb11 010e 	adds.w	r1, r1, lr
  1185cc:	f140 0000 	adc.w	r0, r0, #0
  1185d0:	1864      	adds	r4, r4, r1
  1185d2:	f843 4c4c 	str.w	r4, [r3, #-76]
  1185d6:	f857 6c08 	ldr.w	r6, [r7, #-8]
  1185da:	f140 0000 	adc.w	r0, r0, #0
  1185de:	ea4f 4816 	mov.w	r8, r6, lsr #16
  1185e2:	b2b6      	uxth	r6, r6
  1185e4:	fb06 fa05 	mul.w	sl, r6, r5
  1185e8:	fb02 fe08 	mul.w	lr, r2, r8
  1185ec:	fb02 f606 	mul.w	r6, r2, r6
  1185f0:	ea4f 410a 	mov.w	r1, sl, lsl #16
  1185f4:	1876      	adds	r6, r6, r1
  1185f6:	ea4f 411e 	mov.w	r1, lr, lsr #16
  1185fa:	eb01 411a 	add.w	r1, r1, sl, lsr #16
  1185fe:	fb08 1105 	mla	r1, r8, r5, r1
  118602:	ea4f 4e0e 	mov.w	lr, lr, lsl #16
  118606:	f853 4c48 	ldr.w	r4, [r3, #-72]
  11860a:	f141 0100 	adc.w	r1, r1, #0
  11860e:	eb1e 0e06 	adds.w	lr, lr, r6
  118612:	f141 0100 	adc.w	r1, r1, #0
  118616:	eb10 000e 	adds.w	r0, r0, lr
  11861a:	f141 0100 	adc.w	r1, r1, #0
  11861e:	1824      	adds	r4, r4, r0
  118620:	f843 4c48 	str.w	r4, [r3, #-72]
  118624:	f857 6c04 	ldr.w	r6, [r7, #-4]
  118628:	f141 0100 	adc.w	r1, r1, #0
  11862c:	ea4f 4816 	mov.w	r8, r6, lsr #16
  118630:	fb02 fe08 	mul.w	lr, r2, r8
  118634:	b2b6      	uxth	r6, r6
  118636:	fb06 fa05 	mul.w	sl, r6, r5
  11863a:	ea4f 441e 	mov.w	r4, lr, lsr #16
  11863e:	fb02 f606 	mul.w	r6, r2, r6
  118642:	eb04 441a 	add.w	r4, r4, sl, lsr #16
  118646:	fb08 4405 	mla	r4, r8, r5, r4
  11864a:	ea4f 400a 	mov.w	r0, sl, lsl #16
  11864e:	1836      	adds	r6, r6, r0
  118650:	ea4f 4e0e 	mov.w	lr, lr, lsl #16
  118654:	f853 0c44 	ldr.w	r0, [r3, #-68]
  118658:	f144 0400 	adc.w	r4, r4, #0
  11865c:	eb1e 0e06 	adds.w	lr, lr, r6
  118660:	f144 0400 	adc.w	r4, r4, #0
  118664:	eb11 010e 	adds.w	r1, r1, lr
  118668:	f144 0400 	adc.w	r4, r4, #0
  11866c:	1840      	adds	r0, r0, r1
  11866e:	f144 0400 	adc.w	r4, r4, #0
  118672:	f1bc 0c01 	subs.w	ip, ip, #1
  118676:	f843 0c44 	str.w	r0, [r3, #-68]
  11867a:	f107 0740 	add.w	r7, r7, #64	; 0x40
  11867e:	f47f ad88 	bne.w	118192 <wifi_rom_mpi_mul_hlp+0x32>
  118682:	9a02      	ldr	r2, [sp, #8]
  118684:	9901      	ldr	r1, [sp, #4]
  118686:	f1a2 0310 	sub.w	r3, r2, #16
  11868a:	091b      	lsrs	r3, r3, #4
  11868c:	3301      	adds	r3, #1
  11868e:	eb01 1183 	add.w	r1, r1, r3, lsl #6
  118692:	eb09 1983 	add.w	r9, r9, r3, lsl #6
  118696:	f002 030f 	and.w	r3, r2, #15
  11869a:	9101      	str	r1, [sp, #4]
  11869c:	9302      	str	r3, [sp, #8]
  11869e:	9a02      	ldr	r2, [sp, #8]
  1186a0:	464b      	mov	r3, r9
  1186a2:	2a07      	cmp	r2, #7
  1186a4:	f8d9 8000 	ldr.w	r8, [r9]
  1186a8:	f240 8139 	bls.w	11891e <wifi_rom_mpi_mul_hlp+0x7be>
  1186ac:	f8dd a004 	ldr.w	sl, [sp, #4]
  1186b0:	3a08      	subs	r2, #8
  1186b2:	f8da 7000 	ldr.w	r7, [sl]
  1186b6:	9202      	str	r2, [sp, #8]
  1186b8:	0c39      	lsrs	r1, r7, #16
  1186ba:	fa1f f28b 	uxth.w	r2, fp
  1186be:	ea4f 4c1b 	mov.w	ip, fp, lsr #16
  1186c2:	fb01 f502 	mul.w	r5, r1, r2
  1186c6:	b2bf      	uxth	r7, r7
  1186c8:	fb07 fe0c 	mul.w	lr, r7, ip
  1186cc:	0c2e      	lsrs	r6, r5, #16
  1186ce:	fb02 f707 	mul.w	r7, r2, r7
  1186d2:	eb06 461e 	add.w	r6, r6, lr, lsr #16
  1186d6:	fb01 660c 	mla	r6, r1, ip, r6
  1186da:	ea4f 4e0e 	mov.w	lr, lr, lsl #16
  1186de:	eb17 0e0e 	adds.w	lr, r7, lr
  1186e2:	ea4f 4505 	mov.w	r5, r5, lsl #16
  1186e6:	f146 0600 	adc.w	r6, r6, #0
  1186ea:	eb15 050e 	adds.w	r5, r5, lr
  1186ee:	f146 0600 	adc.w	r6, r6, #0
  1186f2:	192d      	adds	r5, r5, r4
  1186f4:	f146 0400 	adc.w	r4, r6, #0
  1186f8:	eb15 0508 	adds.w	r5, r5, r8
  1186fc:	f8c9 5000 	str.w	r5, [r9]
  118700:	f8da 7004 	ldr.w	r7, [sl, #4]
  118704:	f144 0400 	adc.w	r4, r4, #0
  118708:	ea4f 4817 	mov.w	r8, r7, lsr #16
  11870c:	fb08 f602 	mul.w	r6, r8, r2
  118710:	b2bf      	uxth	r7, r7
  118712:	fb07 fe0c 	mul.w	lr, r7, ip
  118716:	0c35      	lsrs	r5, r6, #16
  118718:	fb02 f707 	mul.w	r7, r2, r7
  11871c:	eb05 451e 	add.w	r5, r5, lr, lsr #16
  118720:	fb08 550c 	mla	r5, r8, ip, r5
  118724:	ea4f 4e0e 	mov.w	lr, lr, lsl #16
  118728:	eb17 0e0e 	adds.w	lr, r7, lr
  11872c:	ea4f 4606 	mov.w	r6, r6, lsl #16
  118730:	f8d9 1004 	ldr.w	r1, [r9, #4]
  118734:	f145 0500 	adc.w	r5, r5, #0
  118738:	eb16 060e 	adds.w	r6, r6, lr
  11873c:	f145 0500 	adc.w	r5, r5, #0
  118740:	19a4      	adds	r4, r4, r6
  118742:	f145 0500 	adc.w	r5, r5, #0
  118746:	190c      	adds	r4, r1, r4
  118748:	f8c9 4004 	str.w	r4, [r9, #4]
  11874c:	f8da 7008 	ldr.w	r7, [sl, #8]
  118750:	f8d9 1014 	ldr.w	r1, [r9, #20]
  118754:	ea4f 4817 	mov.w	r8, r7, lsr #16
  118758:	fb08 f602 	mul.w	r6, r8, r2
  11875c:	b2bf      	uxth	r7, r7
  11875e:	fb07 fe0c 	mul.w	lr, r7, ip
  118762:	ea4f 4416 	mov.w	r4, r6, lsr #16
  118766:	fb02 f707 	mul.w	r7, r2, r7
  11876a:	eb04 441e 	add.w	r4, r4, lr, lsr #16
  11876e:	fb08 440c 	mla	r4, r8, ip, r4
  118772:	ea4f 4e0e 	mov.w	lr, lr, lsl #16
  118776:	f145 0500 	adc.w	r5, r5, #0
  11877a:	0436      	lsls	r6, r6, #16
  11877c:	eb17 0e0e 	adds.w	lr, r7, lr
  118780:	9103      	str	r1, [sp, #12]
  118782:	f144 0400 	adc.w	r4, r4, #0
  118786:	f8d9 1008 	ldr.w	r1, [r9, #8]
  11878a:	eb16 060e 	adds.w	r6, r6, lr
  11878e:	f144 0400 	adc.w	r4, r4, #0
  118792:	19ad      	adds	r5, r5, r6
  118794:	f144 0400 	adc.w	r4, r4, #0
  118798:	194d      	adds	r5, r1, r5
  11879a:	f8c9 5008 	str.w	r5, [r9, #8]
  11879e:	f8da 600c 	ldr.w	r6, [sl, #12]
  1187a2:	f144 0400 	adc.w	r4, r4, #0
  1187a6:	ea4f 4a16 	mov.w	sl, r6, lsr #16
  1187aa:	fb0a f502 	mul.w	r5, sl, r2
  1187ae:	b2b6      	uxth	r6, r6
  1187b0:	fb06 f70c 	mul.w	r7, r6, ip
  1187b4:	ea4f 4e15 	mov.w	lr, r5, lsr #16
  1187b8:	fb02 f606 	mul.w	r6, r2, r6
  1187bc:	eb0e 4e17 	add.w	lr, lr, r7, lsr #16
  1187c0:	fb0a ee0c 	mla	lr, sl, ip, lr
  1187c4:	043f      	lsls	r7, r7, #16
  1187c6:	19f7      	adds	r7, r6, r7
  1187c8:	ea4f 4505 	mov.w	r5, r5, lsl #16
  1187cc:	f14e 0e00 	adc.w	lr, lr, #0
  1187d0:	19ed      	adds	r5, r5, r7
  1187d2:	f14e 0e00 	adc.w	lr, lr, #0
  1187d6:	1965      	adds	r5, r4, r5
  1187d8:	f8d9 400c 	ldr.w	r4, [r9, #12]
  1187dc:	f14e 0e00 	adc.w	lr, lr, #0
  1187e0:	1965      	adds	r5, r4, r5
  1187e2:	9c01      	ldr	r4, [sp, #4]
  1187e4:	f8c9 500c 	str.w	r5, [r9, #12]
  1187e8:	6927      	ldr	r7, [r4, #16]
  1187ea:	f14e 0500 	adc.w	r5, lr, #0
  1187ee:	ea4f 4a17 	mov.w	sl, r7, lsr #16
  1187f2:	fb0a f602 	mul.w	r6, sl, r2
  1187f6:	b2bf      	uxth	r7, r7
  1187f8:	fb07 fe0c 	mul.w	lr, r7, ip
  1187fc:	3420      	adds	r4, #32
  1187fe:	9401      	str	r4, [sp, #4]
  118800:	0c34      	lsrs	r4, r6, #16
  118802:	fb02 f707 	mul.w	r7, r2, r7
  118806:	eb04 441e 	add.w	r4, r4, lr, lsr #16
  11880a:	fb0a 440c 	mla	r4, sl, ip, r4
  11880e:	ea4f 4e0e 	mov.w	lr, lr, lsl #16
  118812:	eb17 0e0e 	adds.w	lr, r7, lr
  118816:	ea4f 4606 	mov.w	r6, r6, lsl #16
  11881a:	f8d9 0010 	ldr.w	r0, [r9, #16]
  11881e:	f144 0400 	adc.w	r4, r4, #0
