
/home/auto_jenkins_wlan5/IOT_ATS/repos/release-master/source/amebadplus_gcc_project/project_km4/asdk/image_mp/target_img2.axf:     file format elf32-littlearm


Disassembly of section .xip_image2.text:

0e000020 <ADC_StructInit>:
 e000020:	2203      	movs	r2, #3
 e000022:	2300      	movs	r3, #0
 e000024:	f44f 6c20 	mov.w	ip, #2560	; 0xa00
 e000028:	21ff      	movs	r1, #255	; 0xff
 e00002a:	8242      	strh	r2, [r0, #18]
 e00002c:	1c42      	adds	r2, r0, #1
 e00002e:	f8a0 c000 	strh.w	ip, [r0]
 e000032:	6183      	str	r3, [r0, #24]
 e000034:	7501      	strb	r1, [r0, #20]
 e000036:	f802 3f01 	strb.w	r3, [r2, #1]!
 e00003a:	3301      	adds	r3, #1
 e00003c:	2b0b      	cmp	r3, #11
 e00003e:	d1fa      	bne.n	e000036 <ADC_StructInit+0x16>
 e000040:	4770      	bx	lr
 e000042:	bf00      	nop

0e000044 <ADC_Init>:
 e000044:	e92d 43f0 	stmdb	sp!, {r4, r5, r6, r7, r8, r9, lr}
 e000048:	2307      	movs	r3, #7
 e00004a:	b083      	sub	sp, #12
 e00004c:	4f7a      	ldr	r7, [pc, #488]	; (e000238 <ADC_Init+0x1f4>)
 e00004e:	4604      	mov	r4, r0
 e000050:	4a7a      	ldr	r2, [pc, #488]	; (e00023c <ADC_Init+0x1f8>)
 e000052:	f88d 3007 	strb.w	r3, [sp, #7]
 e000056:	e847 f300 	tt	r3, r7
 e00005a:	f413 0f80 	tst.w	r3, #4194304	; 0x400000
 e00005e:	7803      	ldrb	r3, [r0, #0]
 e000060:	4e77      	ldr	r6, [pc, #476]	; (e000240 <ADC_Init+0x1fc>)
 e000062:	bf18      	it	ne
 e000064:	4616      	movne	r6, r2
 e000066:	2b03      	cmp	r3, #3
 e000068:	f200 80b6 	bhi.w	e0001d8 <ADC_Init+0x194>
 e00006c:	7ca3      	ldrb	r3, [r4, #18]
 e00006e:	2b06      	cmp	r3, #6
 e000070:	f200 80ba 	bhi.w	e0001e8 <ADC_Init+0x1a4>
 e000074:	7863      	ldrb	r3, [r4, #1]
 e000076:	2b0f      	cmp	r3, #15
 e000078:	f200 80be 	bhi.w	e0001f8 <ADC_Init+0x1b4>
 e00007c:	7823      	ldrb	r3, [r4, #0]
 e00007e:	2b01      	cmp	r3, #1
 e000080:	d017      	beq.n	e0000b2 <ADC_Init+0x6e>
 e000082:	f104 0801 	add.w	r8, r4, #1
 e000086:	f8df 91c4 	ldr.w	r9, [pc, #452]	; e00024c <ADC_Init+0x208>
 e00008a:	e004      	b.n	e000096 <ADC_Init+0x52>
 e00008c:	7863      	ldrb	r3, [r4, #1]
 e00008e:	1b2d      	subs	r5, r5, r4
 e000090:	3301      	adds	r3, #1
 e000092:	42ab      	cmp	r3, r5
 e000094:	dd0d      	ble.n	e0000b2 <ADC_Init+0x6e>
 e000096:	4645      	mov	r5, r8
 e000098:	f818 3f01 	ldrb.w	r3, [r8, #1]!
 e00009c:	2b0f      	cmp	r3, #15
 e00009e:	d1f5      	bne.n	e00008c <ADC_Init+0x48>
 e0000a0:	2149      	movs	r1, #73	; 0x49
 e0000a2:	4648      	mov	r0, r9
 e0000a4:	f007 f964 	bl	e007370 <io_assert_failed>
 e0000a8:	7863      	ldrb	r3, [r4, #1]
 e0000aa:	1b2d      	subs	r5, r5, r4
 e0000ac:	3301      	adds	r3, #1
 e0000ae:	42ab      	cmp	r3, r5
 e0000b0:	dcf1      	bgt.n	e000096 <ADC_Init+0x52>
 e0000b2:	e847 f300 	tt	r3, r7
 e0000b6:	4a62      	ldr	r2, [pc, #392]	; (e000240 <ADC_Init+0x1fc>)
 e0000b8:	f413 0f80 	tst.w	r3, #4194304	; 0x400000
 e0000bc:	495f      	ldr	r1, [pc, #380]	; (e00023c <ADC_Init+0x1f8>)
 e0000be:	f04f 0501 	mov.w	r5, #1
 e0000c2:	bf0c      	ite	eq
 e0000c4:	4610      	moveq	r0, r2
 e0000c6:	4608      	movne	r0, r1
 e0000c8:	6803      	ldr	r3, [r0, #0]
 e0000ca:	f423 7300 	bic.w	r3, r3, #512	; 0x200
 e0000ce:	6003      	str	r3, [r0, #0]
 e0000d0:	e847 f300 	tt	r3, r7
 e0000d4:	f413 0f80 	tst.w	r3, #4194304	; 0x400000
 e0000d8:	bf18      	it	ne
 e0000da:	460a      	movne	r2, r1
 e0000dc:	f8c2 50a4 	str.w	r5, [r2, #164]	; 0xa4
 e0000e0:	f8d2 30a0 	ldr.w	r3, [r2, #160]	; 0xa0
 e0000e4:	2b00      	cmp	r3, #0
 e0000e6:	d1fb      	bne.n	e0000e0 <ADC_Init+0x9c>
 e0000e8:	4d56      	ldr	r5, [pc, #344]	; (e000244 <ADC_Init+0x200>)
 e0000ea:	f8c2 30a4 	str.w	r3, [r2, #164]	; 0xa4
 e0000ee:	782b      	ldrb	r3, [r5, #0]
 e0000f0:	2b00      	cmp	r3, #0
 e0000f2:	f000 8086 	beq.w	e000202 <ADC_Init+0x1be>
 e0000f6:	2200      	movs	r2, #0
 e0000f8:	4b51      	ldr	r3, [pc, #324]	; (e000240 <ADC_Init+0x1fc>)
 e0000fa:	4d53      	ldr	r5, [pc, #332]	; (e000248 <ADC_Init+0x204>)
 e0000fc:	65b2      	str	r2, [r6, #88]	; 0x58
 e0000fe:	e847 f100 	tt	r1, r7
 e000102:	4a4e      	ldr	r2, [pc, #312]	; (e00023c <ADC_Init+0x1f8>)
 e000104:	f411 0f80 	tst.w	r1, #4194304	; 0x400000
 e000108:	f04f 0101 	mov.w	r1, #1
 e00010c:	bf0c      	ite	eq
 e00010e:	4618      	moveq	r0, r3
 e000110:	4610      	movne	r0, r2
 e000112:	6605      	str	r5, [r0, #96]	; 0x60
 e000114:	e847 f000 	tt	r0, r7
 e000118:	f410 0f80 	tst.w	r0, #4194304	; 0x400000
 e00011c:	bf18      	it	ne
 e00011e:	4613      	movne	r3, r2
 e000120:	f8c3 10a4 	str.w	r1, [r3, #164]	; 0xa4
 e000124:	f8d3 10a0 	ldr.w	r1, [r3, #160]	; 0xa0
 e000128:	2900      	cmp	r1, #0
 e00012a:	d1fb      	bne.n	e000124 <ADC_Init+0xe0>
 e00012c:	f8c3 10a4 	str.w	r1, [r3, #164]	; 0xa4
 e000130:	1ca5      	adds	r5, r4, #2
 e000132:	7ca3      	ldrb	r3, [r4, #18]
 e000134:	f003 0307 	and.w	r3, r3, #7
 e000138:	f8c6 30a8 	str.w	r3, [r6, #168]	; 0xa8
 e00013c:	7823      	ldrb	r3, [r4, #0]
 e00013e:	7862      	ldrb	r2, [r4, #1]
 e000140:	005b      	lsls	r3, r3, #1
 e000142:	6830      	ldr	r0, [r6, #0]
 e000144:	0112      	lsls	r2, r2, #4
 e000146:	f003 030e 	and.w	r3, r3, #14
 e00014a:	f020 00fe 	bic.w	r0, r0, #254	; 0xfe
 e00014e:	b2d2      	uxtb	r2, r2
 e000150:	4313      	orrs	r3, r2
 e000152:	4303      	orrs	r3, r0
 e000154:	4608      	mov	r0, r1
 e000156:	6033      	str	r3, [r6, #0]
 e000158:	69a3      	ldr	r3, [r4, #24]
 e00015a:	6073      	str	r3, [r6, #4]
 e00015c:	460b      	mov	r3, r1
 e00015e:	f894 c001 	ldrb.w	ip, [r4, #1]
 e000162:	f10c 0c01 	add.w	ip, ip, #1
 e000166:	f1bc 0f08 	cmp.w	ip, #8
 e00016a:	bfa8      	it	ge
 e00016c:	f04f 0c08 	movge.w	ip, #8
 e000170:	ea4f 0c8c 	mov.w	ip, ip, lsl #2
 e000174:	f815 2b01 	ldrb.w	r2, [r5], #1
 e000178:	409a      	lsls	r2, r3
 e00017a:	3304      	adds	r3, #4
 e00017c:	459c      	cmp	ip, r3
 e00017e:	ea40 0002 	orr.w	r0, r0, r2
 e000182:	d1f7      	bne.n	e000174 <ADC_Init+0x130>
 e000184:	63f0      	str	r0, [r6, #60]	; 0x3c
 e000186:	7863      	ldrb	r3, [r4, #1]
 e000188:	1c5a      	adds	r2, r3, #1
 e00018a:	2a08      	cmp	r2, #8
 e00018c:	dd0d      	ble.n	e0001aa <ADC_Init+0x166>
 e00018e:	1ce5      	adds	r5, r4, #3
 e000190:	f104 000a 	add.w	r0, r4, #10
 e000194:	2200      	movs	r2, #0
 e000196:	441d      	add	r5, r3
 e000198:	f810 3b01 	ldrb.w	r3, [r0], #1
 e00019c:	4093      	lsls	r3, r2
 e00019e:	4285      	cmp	r5, r0
 e0001a0:	f102 0204 	add.w	r2, r2, #4
 e0001a4:	ea41 0103 	orr.w	r1, r1, r3
 e0001a8:	d1f6      	bne.n	e000198 <ADC_Init+0x154>
 e0001aa:	6431      	str	r1, [r6, #64]	; 0x40
 e0001ac:	7d23      	ldrb	r3, [r4, #20]
 e0001ae:	2b0a      	cmp	r3, #10
 e0001b0:	d80d      	bhi.n	e0001ce <ADC_Init+0x18a>
 e0001b2:	e847 f700 	tt	r7, r7
 e0001b6:	4a21      	ldr	r2, [pc, #132]	; (e00023c <ADC_Init+0x1f8>)
 e0001b8:	f417 0f80 	tst.w	r7, #4194304	; 0x400000
 e0001bc:	4b20      	ldr	r3, [pc, #128]	; (e000240 <ADC_Init+0x1fc>)
 e0001be:	bf18      	it	ne
 e0001c0:	4613      	movne	r3, r2
 e0001c2:	6d9a      	ldr	r2, [r3, #88]	; 0x58
 e0001c4:	f042 0204 	orr.w	r2, r2, #4
 e0001c8:	659a      	str	r2, [r3, #88]	; 0x58
 e0001ca:	7d23      	ldrb	r3, [r4, #20]
 e0001cc:	6673      	str	r3, [r6, #100]	; 0x64
 e0001ce:	7ce3      	ldrb	r3, [r4, #19]
 e0001d0:	66b3      	str	r3, [r6, #104]	; 0x68
 e0001d2:	b003      	add	sp, #12
 e0001d4:	e8bd 83f0 	ldmia.w	sp!, {r4, r5, r6, r7, r8, r9, pc}
 e0001d8:	2142      	movs	r1, #66	; 0x42
 e0001da:	481c      	ldr	r0, [pc, #112]	; (e00024c <ADC_Init+0x208>)
 e0001dc:	f007 f8c8 	bl	e007370 <io_assert_failed>
 e0001e0:	7ca3      	ldrb	r3, [r4, #18]
 e0001e2:	2b06      	cmp	r3, #6
 e0001e4:	f67f af46 	bls.w	e000074 <ADC_Init+0x30>
 e0001e8:	2143      	movs	r1, #67	; 0x43
 e0001ea:	4818      	ldr	r0, [pc, #96]	; (e00024c <ADC_Init+0x208>)
 e0001ec:	f007 f8c0 	bl	e007370 <io_assert_failed>
 e0001f0:	7863      	ldrb	r3, [r4, #1]
 e0001f2:	2b0f      	cmp	r3, #15
 e0001f4:	f67f af42 	bls.w	e00007c <ADC_Init+0x38>
 e0001f8:	2144      	movs	r1, #68	; 0x44
 e0001fa:	4814      	ldr	r0, [pc, #80]	; (e00024c <ADC_Init+0x208>)
 e0001fc:	f007 f8b8 	bl	e007370 <io_assert_failed>
 e000200:	e73c      	b.n	e00007c <ADC_Init+0x38>
 e000202:	4b13      	ldr	r3, [pc, #76]	; (e000250 <ADC_Init+0x20c>)
 e000204:	f10d 0107 	add.w	r1, sp, #7
 e000208:	f240 70eb 	movw	r0, #2027	; 0x7eb
 e00020c:	4798      	blx	r3
 e00020e:	f89d 2007 	ldrb.w	r2, [sp, #7]
 e000212:	4b10      	ldr	r3, [pc, #64]	; (e000254 <ADC_Init+0x210>)
 e000214:	f002 0207 	and.w	r2, r2, #7
 e000218:	f88d 2007 	strb.w	r2, [sp, #7]
 e00021c:	2a03      	cmp	r2, #3
 e00021e:	6e5b      	ldr	r3, [r3, #100]	; 0x64
 e000220:	4a0c      	ldr	r2, [pc, #48]	; (e000254 <ADC_Init+0x210>)
 e000222:	f423 63e0 	bic.w	r3, r3, #1792	; 0x700
 e000226:	bf0c      	ite	eq
 e000228:	f443 7340 	orreq.w	r3, r3, #768	; 0x300
 e00022c:	f443 7300 	orrne.w	r3, r3, #512	; 0x200
 e000230:	6653      	str	r3, [r2, #100]	; 0x64
 e000232:	2301      	movs	r3, #1
 e000234:	702b      	strb	r3, [r5, #0]
 e000236:	e75e      	b.n	e0000f6 <ADC_Init+0xb2>
 e000238:	0e007009 	.word	0x0e007009
 e00023c:	51011000 	.word	0x51011000
 e000240:	41011000 	.word	0x41011000
 e000244:	2000b180 	.word	0x2000b180
 e000248:	0007ffff 	.word	0x0007ffff
 e00024c:	0e007a20 	.word	0x0e007a20
 e000250:	0e006a29 	.word	0x0e006a29
 e000254:	41008400 	.word	0x41008400

0e000258 <ADC_Cmd>:
 e000258:	b410      	push	{r4}
 e00025a:	4914      	ldr	r1, [pc, #80]	; (e0002ac <ADC_Cmd+0x54>)
 e00025c:	4a14      	ldr	r2, [pc, #80]	; (e0002b0 <ADC_Cmd+0x58>)
 e00025e:	e841 f300 	tt	r3, r1
 e000262:	4c14      	ldr	r4, [pc, #80]	; (e0002b4 <ADC_Cmd+0x5c>)
 e000264:	f413 0f80 	tst.w	r3, #4194304	; 0x400000
 e000268:	bf0c      	ite	eq
 e00026a:	4613      	moveq	r3, r2
 e00026c:	4623      	movne	r3, r4
 e00026e:	b130      	cbz	r0, e00027e <ADC_Cmd+0x26>
 e000270:	681a      	ldr	r2, [r3, #0]
 e000272:	f442 7200 	orr.w	r2, r2, #512	; 0x200
 e000276:	601a      	str	r2, [r3, #0]
 e000278:	f85d 4b04 	ldr.w	r4, [sp], #4
 e00027c:	4770      	bx	lr
 e00027e:	6818      	ldr	r0, [r3, #0]
 e000280:	f420 7000 	bic.w	r0, r0, #512	; 0x200
 e000284:	6018      	str	r0, [r3, #0]
 e000286:	2301      	movs	r3, #1
 e000288:	e841 f100 	tt	r1, r1
 e00028c:	f411 0f80 	tst.w	r1, #4194304	; 0x400000
 e000290:	bf18      	it	ne
 e000292:	4622      	movne	r2, r4
 e000294:	f8c2 30a4 	str.w	r3, [r2, #164]	; 0xa4
 e000298:	f8d2 30a0 	ldr.w	r3, [r2, #160]	; 0xa0
 e00029c:	2b00      	cmp	r3, #0
 e00029e:	d1fb      	bne.n	e000298 <ADC_Cmd+0x40>
 e0002a0:	f8c2 30a4 	str.w	r3, [r2, #164]	; 0xa4
 e0002a4:	f85d 4b04 	ldr.w	r4, [sp], #4
 e0002a8:	4770      	bx	lr
 e0002aa:	bf00      	nop
 e0002ac:	0e007009 	.word	0x0e007009
 e0002b0:	41011000 	.word	0x41011000
 e0002b4:	51011000 	.word	0x51011000

0e0002b8 <ADC_ReceiveBuf>:
 e0002b8:	e92d 4ff0 	stmdb	sp!, {r4, r5, r6, r7, r8, r9, sl, fp, lr}
 e0002bc:	4c35      	ldr	r4, [pc, #212]	; (e000394 <ADC_ReceiveBuf+0xdc>)
 e0002be:	460f      	mov	r7, r1
 e0002c0:	f8df 80d8 	ldr.w	r8, [pc, #216]	; e00039c <ADC_ReceiveBuf+0xe4>
 e0002c4:	2201      	movs	r2, #1
 e0002c6:	e848 f100 	tt	r1, r8
 e0002ca:	f411 0f80 	tst.w	r1, #4194304	; 0x400000
 e0002ce:	4b32      	ldr	r3, [pc, #200]	; (e000398 <ADC_ReceiveBuf+0xe0>)
 e0002d0:	b083      	sub	sp, #12
 e0002d2:	4683      	mov	fp, r0
 e0002d4:	bf18      	it	ne
 e0002d6:	4623      	movne	r3, r4
 e0002d8:	f8c3 20a4 	str.w	r2, [r3, #164]	; 0xa4
 e0002dc:	f8d3 60a0 	ldr.w	r6, [r3, #160]	; 0xa0
 e0002e0:	2e00      	cmp	r6, #0
 e0002e2:	d1fb      	bne.n	e0002dc <ADC_ReceiveBuf+0x24>
 e0002e4:	f8c3 60a4 	str.w	r6, [r3, #164]	; 0xa4
 e0002e8:	2101      	movs	r1, #1
 e0002ea:	e848 f300 	tt	r3, r8
 e0002ee:	4c2a      	ldr	r4, [pc, #168]	; (e000398 <ADC_ReceiveBuf+0xe0>)
 e0002f0:	f413 0f80 	tst.w	r3, #4194304	; 0x400000
 e0002f4:	4d27      	ldr	r5, [pc, #156]	; (e000394 <ADC_ReceiveBuf+0xdc>)
 e0002f6:	bf08      	it	eq
 e0002f8:	4622      	moveq	r2, r4
 e0002fa:	f8df 90a4 	ldr.w	r9, [pc, #164]	; e0003a0 <ADC_ReceiveBuf+0xe8>
 e0002fe:	bf18      	it	ne
 e000300:	462a      	movne	r2, r5
 e000302:	f8df a0a0 	ldr.w	sl, [pc, #160]	; e0003a4 <ADC_ReceiveBuf+0xec>
 e000306:	f8d2 30a8 	ldr.w	r3, [r2, #168]	; 0xa8
 e00030a:	6491      	str	r1, [r2, #72]	; 0x48
 e00030c:	aa02      	add	r2, sp, #8
 e00030e:	e899 0003 	ldmia.w	r9, {r0, r1}
 e000312:	fa52 f383 	uxtab	r3, r2, r3
 e000316:	f8ad 1004 	strh.w	r1, [sp, #4]
 e00031a:	0c09      	lsrs	r1, r1, #16
 e00031c:	9000      	str	r0, [sp, #0]
 e00031e:	f88d 1006 	strb.w	r1, [sp, #6]
 e000322:	f813 0c08 	ldrb.w	r0, [r3, #-8]
 e000326:	47d0      	blx	sl
 e000328:	b1af      	cbz	r7, e000356 <ADC_ReceiveBuf+0x9e>
 e00032a:	e848 f200 	tt	r2, r8
 e00032e:	f1ab 0104 	sub.w	r1, fp, #4
 e000332:	f3c2 5280 	ubfx	r2, r2, #22, #1
 e000336:	2a00      	cmp	r2, #0
 e000338:	bf0c      	ite	eq
 e00033a:	4623      	moveq	r3, r4
 e00033c:	462b      	movne	r3, r5
 e00033e:	6d5b      	ldr	r3, [r3, #84]	; 0x54
 e000340:	075b      	lsls	r3, r3, #29
 e000342:	d4f8      	bmi.n	e000336 <ADC_ReceiveBuf+0x7e>
 e000344:	f8d4 309c 	ldr.w	r3, [r4, #156]	; 0x9c
 e000348:	3601      	adds	r6, #1
 e00034a:	f3c3 0313 	ubfx	r3, r3, #0, #20
 e00034e:	42b7      	cmp	r7, r6
 e000350:	f841 3f04 	str.w	r3, [r1, #4]!
 e000354:	d1ef      	bne.n	e000336 <ADC_ReceiveBuf+0x7e>
 e000356:	e848 f800 	tt	r8, r8
 e00035a:	4a0e      	ldr	r2, [pc, #56]	; (e000394 <ADC_ReceiveBuf+0xdc>)
 e00035c:	f418 0f80 	tst.w	r8, #4194304	; 0x400000
 e000360:	4b0d      	ldr	r3, [pc, #52]	; (e000398 <ADC_ReceiveBuf+0xe0>)
 e000362:	f04f 0400 	mov.w	r4, #0
 e000366:	bf18      	it	ne
 e000368:	4613      	movne	r3, r2
 e00036a:	e899 0003 	ldmia.w	r9, {r0, r1}
 e00036e:	f8d3 20a8 	ldr.w	r2, [r3, #168]	; 0xa8
 e000372:	649c      	str	r4, [r3, #72]	; 0x48
 e000374:	ab02      	add	r3, sp, #8
 e000376:	9000      	str	r0, [sp, #0]
 e000378:	0c08      	lsrs	r0, r1, #16
 e00037a:	fa53 f282 	uxtab	r2, r3, r2
 e00037e:	f8ad 1004 	strh.w	r1, [sp, #4]
 e000382:	f88d 0006 	strb.w	r0, [sp, #6]
 e000386:	4653      	mov	r3, sl
 e000388:	f812 0c08 	ldrb.w	r0, [r2, #-8]
 e00038c:	b003      	add	sp, #12
 e00038e:	e8bd 4ff0 	ldmia.w	sp!, {r4, r5, r6, r7, r8, r9, sl, fp, lr}
 e000392:	4718      	bx	r3
 e000394:	51011000 	.word	0x51011000
 e000398:	41011000 	.word	0x41011000
 e00039c:	0e007009 	.word	0x0e007009
 e0003a0:	0e007a58 	.word	0x0e007a58
 e0003a4:	000094a5 	.word	0x000094a5

0e0003a8 <app_mpu_nocache_init>:
 e0003a8:	b510      	push	{r4, lr}
 e0003aa:	b086      	sub	sp, #24
 e0003ac:	f001 fc98 	bl	e001ce0 <mpu_entry_alloc>
 e0003b0:	4a10      	ldr	r2, [pc, #64]	; (e0003f4 <app_mpu_nocache_init+0x4c>)
 e0003b2:	4b11      	ldr	r3, [pc, #68]	; (e0003f8 <app_mpu_nocache_init+0x50>)
 e0003b4:	f44f 7100 	mov.w	r1, #512	; 0x200
 e0003b8:	9203      	str	r2, [sp, #12]
 e0003ba:	1a9b      	subs	r3, r3, r2
 e0003bc:	2b1f      	cmp	r3, #31
 e0003be:	e9cd 3104 	strd	r3, r1, [sp, #16]
 e0003c2:	a903      	add	r1, sp, #12
 e0003c4:	d810      	bhi.n	e0003e8 <app_mpu_nocache_init+0x40>
 e0003c6:	2400      	movs	r4, #0
 e0003c8:	9101      	str	r1, [sp, #4]
 e0003ca:	f001 fc89 	bl	e001ce0 <mpu_entry_alloc>
 e0003ce:	f44f 2200 	mov.w	r2, #524288	; 0x80000
 e0003d2:	f44f 7300 	mov.w	r3, #512	; 0x200
 e0003d6:	9901      	ldr	r1, [sp, #4]
 e0003d8:	e9cd 4203 	strd	r4, r2, [sp, #12]
 e0003dc:	9305      	str	r3, [sp, #20]
 e0003de:	f001 fc0f 	bl	e001c00 <mpu_region_cfg>
 e0003e2:	4620      	mov	r0, r4
 e0003e4:	b006      	add	sp, #24
 e0003e6:	bd10      	pop	{r4, pc}
 e0003e8:	9101      	str	r1, [sp, #4]
 e0003ea:	f001 fc09 	bl	e001c00 <mpu_region_cfg>
 e0003ee:	9901      	ldr	r1, [sp, #4]
 e0003f0:	e7e9      	b.n	e0003c6 <app_mpu_nocache_init+0x1e>
 e0003f2:	bf00      	nop
 e0003f4:	2000c100 	.word	0x2000c100
 e0003f8:	2000c100 	.word	0x2000c100

0e0003fc <_init>:
 e0003fc:	4770      	bx	lr
 e0003fe:	bf00      	nop

0e000400 <app_testmode_status>:
 e000400:	b510      	push	{r4, lr}
 e000402:	4b0f      	ldr	r3, [pc, #60]	; (e000440 <app_testmode_status+0x40>)
 e000404:	b082      	sub	sp, #8
 e000406:	4798      	blx	r3
 e000408:	b908      	cbnz	r0, e00040e <app_testmode_status+0xe>
 e00040a:	b002      	add	sp, #8
 e00040c:	bd10      	pop	{r4, pc}
 e00040e:	4b0d      	ldr	r3, [pc, #52]	; (e000444 <app_testmode_status+0x44>)
 e000410:	4798      	blx	r3
 e000412:	b140      	cbz	r0, e000426 <app_testmode_status+0x26>
 e000414:	4b0c      	ldr	r3, [pc, #48]	; (e000448 <app_testmode_status+0x48>)
 e000416:	2249      	movs	r2, #73	; 0x49
 e000418:	490c      	ldr	r1, [pc, #48]	; (e00044c <app_testmode_status+0x4c>)
 e00041a:	2004      	movs	r0, #4
 e00041c:	b002      	add	sp, #8
 e00041e:	e8bd 4010 	ldmia.w	sp!, {r4, lr}
 e000422:	f002 b80b 	b.w	e00243c <rtk_log_write>
 e000426:	4b0a      	ldr	r3, [pc, #40]	; (e000450 <app_testmode_status+0x50>)
 e000428:	4798      	blx	r3
 e00042a:	4604      	mov	r4, r0
 e00042c:	4b09      	ldr	r3, [pc, #36]	; (e000454 <app_testmode_status+0x54>)
 e00042e:	2249      	movs	r2, #73	; 0x49
 e000430:	4906      	ldr	r1, [pc, #24]	; (e00044c <app_testmode_status+0x4c>)
 e000432:	2004      	movs	r0, #4
 e000434:	9400      	str	r4, [sp, #0]
 e000436:	f002 f801 	bl	e00243c <rtk_log_write>
 e00043a:	b002      	add	sp, #8
 e00043c:	bd10      	pop	{r4, pc}
 e00043e:	bf00      	nop
 e000440:	0000c1cd 	.word	0x0000c1cd
 e000444:	0000c1dd 	.word	0x0000c1dd
 e000448:	0e007a60 	.word	0x0e007a60
 e00044c:	0e007a78 	.word	0x0e007a78
 e000450:	0000c1b5 	.word	0x0000c1b5
 e000454:	0e007a7c 	.word	0x0e007a7c

0e000458 <app_vdd1833_detect>:
 e000458:	f04f 4181 	mov.w	r1, #1082130432	; 0x40800000
 e00045c:	2201      	movs	r2, #1
 e00045e:	4b1e      	ldr	r3, [pc, #120]	; (e0004d8 <app_vdd1833_detect+0x80>)
 e000460:	4608      	mov	r0, r1
 e000462:	b530      	push	{r4, r5, lr}
 e000464:	b099      	sub	sp, #100	; 0x64
 e000466:	2501      	movs	r5, #1
 e000468:	4798      	blx	r3
 e00046a:	4b1c      	ldr	r3, [pc, #112]	; (e0004dc <app_vdd1833_detect+0x84>)
 e00046c:	a801      	add	r0, sp, #4
 e00046e:	4c1c      	ldr	r4, [pc, #112]	; (e0004e0 <app_vdd1833_detect+0x88>)
 e000470:	4798      	blx	r3
 e000472:	2209      	movs	r2, #9
 e000474:	4b1b      	ldr	r3, [pc, #108]	; (e0004e4 <app_vdd1833_detect+0x8c>)
 e000476:	a801      	add	r0, sp, #4
 e000478:	f88d 2006 	strb.w	r2, [sp, #6]
 e00047c:	f8ad 5004 	strh.w	r5, [sp, #4]
 e000480:	4798      	blx	r3
 e000482:	4628      	mov	r0, r5
 e000484:	47a0      	blx	r4
 e000486:	4b18      	ldr	r3, [pc, #96]	; (e0004e8 <app_vdd1833_detect+0x90>)
 e000488:	2110      	movs	r1, #16
 e00048a:	a808      	add	r0, sp, #32
 e00048c:	4798      	blx	r3
 e00048e:	2000      	movs	r0, #0
 e000490:	47a0      	blx	r4
 e000492:	ab07      	add	r3, sp, #28
 e000494:	a817      	add	r0, sp, #92	; 0x5c
 e000496:	2200      	movs	r2, #0
 e000498:	f853 1f04 	ldr.w	r1, [r3, #4]!
 e00049c:	4283      	cmp	r3, r0
 e00049e:	fa12 f281 	uxtah	r2, r2, r1
 e0004a2:	d1f9      	bne.n	e000498 <app_vdd1833_detect+0x40>
 e0004a4:	f640 33b8 	movw	r3, #3000	; 0xbb8
 e0004a8:	4910      	ldr	r1, [pc, #64]	; (e0004ec <app_vdd1833_detect+0x94>)
 e0004aa:	ebb3 1f12 	cmp.w	r3, r2, lsr #4
 e0004ae:	6f4c      	ldr	r4, [r1, #116]	; 0x74
 e0004b0:	d205      	bcs.n	e0004be <app_vdd1833_detect+0x66>
 e0004b2:	f044 4480 	orr.w	r4, r4, #1073741824	; 0x40000000
 e0004b6:	4b0d      	ldr	r3, [pc, #52]	; (e0004ec <app_vdd1833_detect+0x94>)
 e0004b8:	675c      	str	r4, [r3, #116]	; 0x74
 e0004ba:	b019      	add	sp, #100	; 0x64
 e0004bc:	bd30      	pop	{r4, r5, pc}
 e0004be:	4b0c      	ldr	r3, [pc, #48]	; (e0004f0 <app_vdd1833_detect+0x98>)
 e0004c0:	2249      	movs	r2, #73	; 0x49
 e0004c2:	490c      	ldr	r1, [pc, #48]	; (e0004f4 <app_vdd1833_detect+0x9c>)
 e0004c4:	2004      	movs	r0, #4
 e0004c6:	f001 ffb9 	bl	e00243c <rtk_log_write>
 e0004ca:	f024 4480 	bic.w	r4, r4, #1073741824	; 0x40000000
 e0004ce:	4b07      	ldr	r3, [pc, #28]	; (e0004ec <app_vdd1833_detect+0x94>)
 e0004d0:	675c      	str	r4, [r3, #116]	; 0x74
 e0004d2:	b019      	add	sp, #100	; 0x64
 e0004d4:	bd30      	pop	{r4, r5, pc}
 e0004d6:	bf00      	nop
 e0004d8:	0000bebd 	.word	0x0000bebd
 e0004dc:	0e000021 	.word	0x0e000021
 e0004e0:	0e000259 	.word	0x0e000259
 e0004e4:	0e000045 	.word	0x0e000045
 e0004e8:	0e0002b9 	.word	0x0e0002b9
 e0004ec:	41008000 	.word	0x41008000
 e0004f0:	0e007a94 	.word	0x0e007a94
 e0004f4:	0e007a78 	.word	0x0e007a78

0e0004f8 <app_start>:
 e0004f8:	b530      	push	{r4, r5, lr}
 e0004fa:	4b67      	ldr	r3, [pc, #412]	; (e000698 <app_start+0x1a0>)
 e0004fc:	b083      	sub	sp, #12
 e0004fe:	2249      	movs	r2, #73	; 0x49
 e000500:	4966      	ldr	r1, [pc, #408]	; (e00069c <app_start+0x1a4>)
 e000502:	2004      	movs	r0, #4
 e000504:	f001 ff9a 	bl	e00243c <rtk_log_write>
 e000508:	f3bf 8f4f 	dsb	sy
 e00050c:	f3bf 8f6f 	isb	sy
 e000510:	4963      	ldr	r1, [pc, #396]	; (e0006a0 <app_start+0x1a8>)
 e000512:	2300      	movs	r3, #0
 e000514:	f8c1 3250 	str.w	r3, [r1, #592]	; 0x250
 e000518:	f3bf 8f4f 	dsb	sy
 e00051c:	f3bf 8f6f 	isb	sy
 e000520:	694b      	ldr	r3, [r1, #20]
 e000522:	f443 3300 	orr.w	r3, r3, #131072	; 0x20000
 e000526:	614b      	str	r3, [r1, #20]
 e000528:	f3bf 8f4f 	dsb	sy
 e00052c:	f3bf 8f6f 	isb	sy
 e000530:	694b      	ldr	r3, [r1, #20]
 e000532:	f413 3380 	ands.w	r3, r3, #65536	; 0x10000
 e000536:	d126      	bne.n	e000586 <app_start+0x8e>
 e000538:	f8c1 3084 	str.w	r3, [r1, #132]	; 0x84
 e00053c:	f3bf 8f4f 	dsb	sy
 e000540:	f8d1 3080 	ldr.w	r3, [r1, #128]	; 0x80
 e000544:	f643 74e0 	movw	r4, #16352	; 0x3fe0
 e000548:	f3c3 3c4e 	ubfx	ip, r3, #13, #15
 e00054c:	f3c3 0ec9 	ubfx	lr, r3, #3, #10
 e000550:	ea4f 1c4c 	mov.w	ip, ip, lsl #5
 e000554:	ea0c 0004 	and.w	r0, ip, r4
 e000558:	4673      	mov	r3, lr
 e00055a:	ea40 7283 	orr.w	r2, r0, r3, lsl #30
 e00055e:	3b01      	subs	r3, #1
 e000560:	f8c1 2260 	str.w	r2, [r1, #608]	; 0x260
 e000564:	1c5a      	adds	r2, r3, #1
 e000566:	d1f8      	bne.n	e00055a <app_start+0x62>
 e000568:	f1ac 0c20 	sub.w	ip, ip, #32
 e00056c:	f11c 0f20 	cmn.w	ip, #32
 e000570:	d1f0      	bne.n	e000554 <app_start+0x5c>
 e000572:	f3bf 8f4f 	dsb	sy
 e000576:	694b      	ldr	r3, [r1, #20]
 e000578:	f443 3380 	orr.w	r3, r3, #65536	; 0x10000
 e00057c:	614b      	str	r3, [r1, #20]
 e00057e:	f3bf 8f4f 	dsb	sy
 e000582:	f3bf 8f6f 	isb	sy
 e000586:	4847      	ldr	r0, [pc, #284]	; (e0006a4 <app_start+0x1ac>)
 e000588:	2100      	movs	r1, #0
 e00058a:	4a47      	ldr	r2, [pc, #284]	; (e0006a8 <app_start+0x1b0>)
 e00058c:	4b47      	ldr	r3, [pc, #284]	; (e0006ac <app_start+0x1b4>)
 e00058e:	1a12      	subs	r2, r2, r0
 e000590:	4d43      	ldr	r5, [pc, #268]	; (e0006a0 <app_start+0x1a8>)
 e000592:	4798      	blx	r3
 e000594:	4c46      	ldr	r4, [pc, #280]	; (e0006b0 <app_start+0x1b8>)
 e000596:	4b47      	ldr	r3, [pc, #284]	; (e0006b4 <app_start+0x1bc>)
 e000598:	4847      	ldr	r0, [pc, #284]	; (e0006b8 <app_start+0x1c0>)
 e00059a:	4798      	blx	r3
 e00059c:	4847      	ldr	r0, [pc, #284]	; (e0006bc <app_start+0x1c4>)
 e00059e:	f000 ff3b 	bl	e001418 <Fault_Hanlder_Redirect>
 e0005a2:	68a9      	ldr	r1, [r5, #8]
 e0005a4:	68a2      	ldr	r2, [r4, #8]
 e0005a6:	2004      	movs	r0, #4
 e0005a8:	4b45      	ldr	r3, [pc, #276]	; (e0006c0 <app_start+0x1c8>)
 e0005aa:	e9cd 1200 	strd	r1, r2, [sp]
 e0005ae:	2249      	movs	r2, #73	; 0x49
 e0005b0:	493a      	ldr	r1, [pc, #232]	; (e00069c <app_start+0x1a4>)
 e0005b2:	f001 ff43 	bl	e00243c <rtk_log_write>
 e0005b6:	f002 fa95 	bl	e002ae4 <rtos_mem_init>
 e0005ba:	68a8      	ldr	r0, [r5, #8]
 e0005bc:	68a4      	ldr	r4, [r4, #8]
 e0005be:	2249      	movs	r2, #73	; 0x49
 e0005c0:	4b3f      	ldr	r3, [pc, #252]	; (e0006c0 <app_start+0x1c8>)
 e0005c2:	4936      	ldr	r1, [pc, #216]	; (e00069c <app_start+0x1a4>)
 e0005c4:	e9cd 0400 	strd	r0, r4, [sp]
 e0005c8:	2004      	movs	r0, #4
 e0005ca:	4c3e      	ldr	r4, [pc, #248]	; (e0006c4 <app_start+0x1cc>)
 e0005cc:	f001 ff36 	bl	e00243c <rtk_log_write>
 e0005d0:	f7ff ff16 	bl	e000400 <app_testmode_status>
 e0005d4:	47a0      	blx	r4
 e0005d6:	f410 3f40 	tst.w	r0, #196608	; 0x30000
 e0005da:	d137      	bne.n	e00064c <app_start+0x154>
 e0005dc:	47a0      	blx	r4
 e0005de:	47a0      	blx	r4
 e0005e0:	f410 2f40 	tst.w	r0, #786432	; 0xc0000
 e0005e4:	bf14      	ite	ne
 e0005e6:	2501      	movne	r5, #1
 e0005e8:	2500      	moveq	r5, #0
 e0005ea:	47a0      	blx	r4
 e0005ec:	f410 3f40 	tst.w	r0, #196608	; 0x30000
 e0005f0:	d103      	bne.n	e0005fa <app_start+0x102>
 e0005f2:	47a0      	blx	r4
 e0005f4:	f410 2f40 	tst.w	r0, #786432	; 0xc0000
 e0005f8:	d12f      	bne.n	e00065a <app_start+0x162>
 e0005fa:	47a0      	blx	r4
 e0005fc:	2d00      	cmp	r5, #0
 e0005fe:	d135      	bne.n	e00066c <app_start+0x174>
 e000600:	4c31      	ldr	r4, [pc, #196]	; (e0006c8 <app_start+0x1d0>)
 e000602:	2249      	movs	r2, #73	; 0x49
 e000604:	e844 f400 	tt	r4, r4
 e000608:	f3c4 5480 	ubfx	r4, r4, #22, #1
 e00060c:	4b2f      	ldr	r3, [pc, #188]	; (e0006cc <app_start+0x1d4>)
 e00060e:	4923      	ldr	r1, [pc, #140]	; (e00069c <app_start+0x1a4>)
 e000610:	2004      	movs	r0, #4
 e000612:	9400      	str	r4, [sp, #0]
 e000614:	f001 ff12 	bl	e00243c <rtk_log_write>
 e000618:	f000 f860 	bl	e0006dc <SystemCoreClockUpdate>
 e00061c:	f000 fa4e 	bl	e000abc <XTAL_INIT>
 e000620:	4b2b      	ldr	r3, [pc, #172]	; (e0006d0 <app_start+0x1d8>)
 e000622:	4798      	blx	r3
 e000624:	b328      	cbz	r0, e000672 <app_start+0x17a>
 e000626:	f007 f897 	bl	e007758 <__libc_init_array>
 e00062a:	f001 fac3 	bl	e001bb4 <mpu_init>
 e00062e:	f7ff febb 	bl	e0003a8 <app_mpu_nocache_init>
 e000632:	f7ff ff11 	bl	e000458 <app_vdd1833_detect>
 e000636:	f06f 017f 	mvn.w	r1, #127	; 0x7f
 e00063a:	4668      	mov	r0, sp
 e00063c:	ea00 0001 	and.w	r0, r0, r1
 e000640:	4685      	mov	sp, r0
 e000642:	b003      	add	sp, #12
 e000644:	e8bd 4030 	ldmia.w	sp!, {r4, r5, lr}
 e000648:	f002 b872 	b.w	e002730 <main>
 e00064c:	47a0      	blx	r4
 e00064e:	f410 2f40 	tst.w	r0, #786432	; 0xc0000
 e000652:	bf14      	ite	ne
 e000654:	2501      	movne	r5, #1
 e000656:	2500      	moveq	r5, #0
 e000658:	e7c7      	b.n	e0005ea <app_start+0xf2>
 e00065a:	47a0      	blx	r4
 e00065c:	f410 1f40 	tst.w	r0, #3145728	; 0x300000
 e000660:	f005 0501 	and.w	r5, r5, #1
 e000664:	bf08      	it	eq
 e000666:	2500      	moveq	r5, #0
 e000668:	2d00      	cmp	r5, #0
 e00066a:	d0c9      	beq.n	e000600 <app_start+0x108>
 e00066c:	4b19      	ldr	r3, [pc, #100]	; (e0006d4 <app_start+0x1dc>)
 e00066e:	4798      	blx	r3
 e000670:	e7c6      	b.n	e000600 <app_start+0x108>
 e000672:	f000 fa21 	bl	e000ab8 <OSC4M_Init>
 e000676:	f247 5030 	movw	r0, #30000	; 0x7530
 e00067a:	f000 f91f 	bl	e0008bc <OSC4M_Calibration>
 e00067e:	f001 fbef 	bl	e001e60 <BOOT_Reason>
 e000682:	0783      	lsls	r3, r0, #30
 e000684:	d4cf      	bmi.n	e000626 <app_start+0x12e>
 e000686:	4b14      	ldr	r3, [pc, #80]	; (e0006d8 <app_start+0x1e0>)
 e000688:	4798      	blx	r3
 e00068a:	2800      	cmp	r0, #0
 e00068c:	d1cb      	bne.n	e000626 <app_start+0x12e>
 e00068e:	f247 5030 	movw	r0, #30000	; 0x7530
 e000692:	f000 f84b 	bl	e00072c <OSC131K_Calibration>
 e000696:	e7c6      	b.n	e000626 <app_start+0x12e>
 e000698:	0e007aa4 	.word	0x0e007aa4
 e00069c:	0e007a78 	.word	0x0e007a78
 e0006a0:	e000ed00 	.word	0xe000ed00
 e0006a4:	2000b180 	.word	0x2000b180
 e0006a8:	2000c0e8 	.word	0x2000c0e8
 e0006ac:	00011de5 	.word	0x00011de5
 e0006b0:	e002ed00 	.word	0xe002ed00
 e0006b4:	0000d3c9 	.word	0x0000d3c9
 e0006b8:	20004000 	.word	0x20004000
 e0006bc:	0e0053e9 	.word	0x0e0053e9
 e0006c0:	0e007ab4 	.word	0x0e007ab4
 e0006c4:	0e006815 	.word	0x0e006815
 e0006c8:	0e0004f9 	.word	0x0e0004f9
 e0006cc:	0e007acc 	.word	0x0e007acc
 e0006d0:	0000c219 	.word	0x0000c219
 e0006d4:	0e000d75 	.word	0x0e000d75
 e0006d8:	0e001ea5 	.word	0x0e001ea5

0e0006dc <SystemCoreClockUpdate>:
 e0006dc:	b508      	push	{r3, lr}
 e0006de:	4b02      	ldr	r3, [pc, #8]	; (e0006e8 <SystemCoreClockUpdate+0xc>)
 e0006e0:	4798      	blx	r3
 e0006e2:	4b02      	ldr	r3, [pc, #8]	; (e0006ec <SystemCoreClockUpdate+0x10>)
 e0006e4:	6018      	str	r0, [r3, #0]
 e0006e6:	bd08      	pop	{r3, pc}
 e0006e8:	000093b5 	.word	0x000093b5
 e0006ec:	2000b020 	.word	0x2000b020

0e0006f0 <Systick_Cmd>:
 e0006f0:	f04f 22e0 	mov.w	r2, #3758153728	; 0xe000e000
 e0006f4:	6913      	ldr	r3, [r2, #16]
 e0006f6:	b128      	cbz	r0, e000704 <Systick_Cmd+0x14>
 e0006f8:	f043 0301 	orr.w	r3, r3, #1
 e0006fc:	6113      	str	r3, [r2, #16]
 e0006fe:	f3bf 8f4f 	dsb	sy
 e000702:	4770      	bx	lr
 e000704:	f023 0301 	bic.w	r3, r3, #1
 e000708:	6113      	str	r3, [r2, #16]
 e00070a:	f3bf 8f4f 	dsb	sy
 e00070e:	4770      	bx	lr

0e000710 <CPU_InInterrupt>:
 e000710:	f3ef 8005 	mrs	r0, IPSR
 e000714:	3800      	subs	r0, #0
 e000716:	bf18      	it	ne
 e000718:	2001      	movne	r0, #1
 e00071a:	4770      	bx	lr

0e00071c <irq_disable_save>:
 e00071c:	f3ef 8010 	mrs	r0, PRIMASK
 e000720:	b672      	cpsid	i
 e000722:	4770      	bx	lr

0e000724 <irq_enable_restore>:
 e000724:	f380 8810 	msr	PRIMASK, r0
 e000728:	4770      	bx	lr
 e00072a:	bf00      	nop

0e00072c <OSC131K_Calibration>:
 e00072c:	e92d 4ff0 	stmdb	sp!, {r4, r5, r6, r7, r8, r9, sl, fp, lr}
 e000730:	4957      	ldr	r1, [pc, #348]	; (e000890 <OSC131K_Calibration+0x164>)
 e000732:	b087      	sub	sp, #28
 e000734:	9005      	str	r0, [sp, #20]
 e000736:	6f0b      	ldr	r3, [r1, #112]	; 0x70
 e000738:	055a      	lsls	r2, r3, #21
 e00073a:	d5fc      	bpl.n	e000736 <OSC131K_Calibration+0xa>
 e00073c:	694b      	ldr	r3, [r1, #20]
 e00073e:	4a54      	ldr	r2, [pc, #336]	; (e000890 <OSC131K_Calibration+0x164>)
 e000740:	f023 033f 	bic.w	r3, r3, #63	; 0x3f
 e000744:	614b      	str	r3, [r1, #20]
 e000746:	6913      	ldr	r3, [r2, #16]
 e000748:	07db      	lsls	r3, r3, #31
 e00074a:	d5fc      	bpl.n	e000746 <OSC131K_Calibration+0x1a>
 e00074c:	6953      	ldr	r3, [r2, #20]
 e00074e:	f04f 0b04 	mov.w	fp, #4
 e000752:	2600      	movs	r6, #0
 e000754:	f04f 35ff 	mov.w	r5, #4294967295	; 0xffffffff
 e000758:	f043 0320 	orr.w	r3, r3, #32
 e00075c:	f04f 0a20 	mov.w	sl, #32
 e000760:	4f4c      	ldr	r7, [pc, #304]	; (e000894 <OSC131K_Calibration+0x168>)
 e000762:	4c4d      	ldr	r4, [pc, #308]	; (e000898 <OSC131K_Calibration+0x16c>)
 e000764:	f8df 8144 	ldr.w	r8, [pc, #324]	; e0008ac <OSC131K_Calibration+0x180>
 e000768:	f8df 9124 	ldr.w	r9, [pc, #292]	; e000890 <OSC131K_Calibration+0x164>
 e00076c:	6153      	str	r3, [r2, #20]
 e00076e:	2001      	movs	r0, #1
 e000770:	47b8      	blx	r7
 e000772:	f8d4 3288 	ldr.w	r3, [r4, #648]	; 0x288
 e000776:	f423 3340 	bic.w	r3, r3, #196608	; 0x30000
 e00077a:	ea43 0308 	orr.w	r3, r3, r8
 e00077e:	f8c4 3288 	str.w	r3, [r4, #648]	; 0x288
 e000782:	f8d4 3288 	ldr.w	r3, [r4, #648]	; 0x288
 e000786:	2b00      	cmp	r3, #0
 e000788:	dbfb      	blt.n	e000782 <OSC131K_Calibration+0x56>
 e00078a:	f8d4 3288 	ldr.w	r3, [r4, #648]	; 0x288
 e00078e:	f640 1188 	movw	r1, #2440	; 0x988
 e000792:	b29b      	uxth	r3, r3
 e000794:	428b      	cmp	r3, r1
 e000796:	d821      	bhi.n	e0007dc <OSC131K_Calibration+0xb0>
 e000798:	f640 1189 	movw	r1, #2441	; 0x989
 e00079c:	4650      	mov	r0, sl
 e00079e:	1ac9      	subs	r1, r1, r3
 e0007a0:	42a9      	cmp	r1, r5
 e0007a2:	d204      	bcs.n	e0007ae <OSC131K_Calibration+0x82>
 e0007a4:	f8d9 6014 	ldr.w	r6, [r9, #20]
 e0007a8:	460d      	mov	r5, r1
 e0007aa:	f006 063f 	and.w	r6, r6, #63	; 0x3f
 e0007ae:	f1bb 3fff 	cmp.w	fp, #4294967295	; 0xffffffff
 e0007b2:	d017      	beq.n	e0007e4 <OSC131K_Calibration+0xb8>
 e0007b4:	f04f 0a01 	mov.w	sl, #1
 e0007b8:	f8d9 3014 	ldr.w	r3, [r9, #20]
 e0007bc:	fa0a fa0b 	lsl.w	sl, sl, fp
 e0007c0:	ea4a 0303 	orr.w	r3, sl, r3
 e0007c4:	f8c9 3014 	str.w	r3, [r9, #20]
 e0007c8:	b128      	cbz	r0, e0007d6 <OSC131K_Calibration+0xaa>
 e0007ca:	f8d9 3014 	ldr.w	r3, [r9, #20]
 e0007ce:	ea23 0000 	bic.w	r0, r3, r0
 e0007d2:	f8c9 0014 	str.w	r0, [r9, #20]
 e0007d6:	f10b 3bff 	add.w	fp, fp, #4294967295	; 0xffffffff
 e0007da:	e7c8      	b.n	e00076e <OSC131K_Calibration+0x42>
 e0007dc:	f6a3 1189 	subw	r1, r3, #2441	; 0x989
 e0007e0:	2000      	movs	r0, #0
 e0007e2:	e7dd      	b.n	e0007a0 <OSC131K_Calibration+0x74>
 e0007e4:	42a9      	cmp	r1, r5
 e0007e6:	d819      	bhi.n	e00081c <OSC131K_Calibration+0xf0>
 e0007e8:	4c2c      	ldr	r4, [pc, #176]	; (e00089c <OSC131K_Calibration+0x170>)
 e0007ea:	f640 1089 	movw	r0, #2441	; 0x989
 e0007ee:	4a2c      	ldr	r2, [pc, #176]	; (e0008a0 <OSC131K_Calibration+0x174>)
 e0007f0:	fb01 f404 	mul.w	r4, r1, r4
 e0007f4:	9d05      	ldr	r5, [sp, #20]
 e0007f6:	9100      	str	r1, [sp, #0]
 e0007f8:	fba2 2404 	umull	r2, r4, r2, r4
 e0007fc:	4b29      	ldr	r3, [pc, #164]	; (e0008a4 <OSC131K_Calibration+0x178>)
 e0007fe:	9001      	str	r0, [sp, #4]
 e000800:	2249      	movs	r2, #73	; 0x49
 e000802:	0ae4      	lsrs	r4, r4, #11
 e000804:	4928      	ldr	r1, [pc, #160]	; (e0008a8 <OSC131K_Calibration+0x17c>)
 e000806:	2004      	movs	r0, #4
 e000808:	9503      	str	r5, [sp, #12]
 e00080a:	9402      	str	r4, [sp, #8]
 e00080c:	f001 fe16 	bl	e00243c <rtk_log_write>
 e000810:	42ac      	cmp	r4, r5
 e000812:	d225      	bcs.n	e000860 <OSC131K_Calibration+0x134>
 e000814:	2001      	movs	r0, #1
 e000816:	b007      	add	sp, #28
 e000818:	e8bd 8ff0 	ldmia.w	sp!, {r4, r5, r6, r7, r8, r9, sl, fp, pc}
 e00081c:	4b1c      	ldr	r3, [pc, #112]	; (e000890 <OSC131K_Calibration+0x164>)
 e00081e:	2001      	movs	r0, #1
 e000820:	695a      	ldr	r2, [r3, #20]
 e000822:	f022 023f 	bic.w	r2, r2, #63	; 0x3f
 e000826:	615a      	str	r2, [r3, #20]
 e000828:	695a      	ldr	r2, [r3, #20]
 e00082a:	4316      	orrs	r6, r2
 e00082c:	615e      	str	r6, [r3, #20]
 e00082e:	47b8      	blx	r7
 e000830:	4a19      	ldr	r2, [pc, #100]	; (e000898 <OSC131K_Calibration+0x16c>)
 e000832:	4b1e      	ldr	r3, [pc, #120]	; (e0008ac <OSC131K_Calibration+0x180>)
 e000834:	f8d2 1288 	ldr.w	r1, [r2, #648]	; 0x288
 e000838:	f421 3140 	bic.w	r1, r1, #196608	; 0x30000
 e00083c:	430b      	orrs	r3, r1
 e00083e:	f8c2 3288 	str.w	r3, [r2, #648]	; 0x288
 e000842:	f8d2 3288 	ldr.w	r3, [r2, #648]	; 0x288
 e000846:	2b00      	cmp	r3, #0
 e000848:	dbfb      	blt.n	e000842 <OSC131K_Calibration+0x116>
 e00084a:	f8d2 3288 	ldr.w	r3, [r2, #648]	; 0x288
 e00084e:	f640 1288 	movw	r2, #2440	; 0x988
 e000852:	b29b      	uxth	r3, r3
 e000854:	4293      	cmp	r3, r2
 e000856:	d818      	bhi.n	e00088a <OSC131K_Calibration+0x15e>
 e000858:	f640 1189 	movw	r1, #2441	; 0x989
 e00085c:	1ac9      	subs	r1, r1, r3
 e00085e:	e7c3      	b.n	e0007e8 <OSC131K_Calibration+0xbc>
 e000860:	9805      	ldr	r0, [sp, #20]
 e000862:	2245      	movs	r2, #69	; 0x45
 e000864:	4b12      	ldr	r3, [pc, #72]	; (e0008b0 <OSC131K_Calibration+0x184>)
 e000866:	4910      	ldr	r1, [pc, #64]	; (e0008a8 <OSC131K_Calibration+0x17c>)
 e000868:	e9cd 4000 	strd	r4, r0, [sp]
 e00086c:	2002      	movs	r0, #2
 e00086e:	f001 fde5 	bl	e00243c <rtk_log_write>
 e000872:	4b10      	ldr	r3, [pc, #64]	; (e0008b4 <OSC131K_Calibration+0x188>)
 e000874:	4798      	blx	r3
 e000876:	2800      	cmp	r0, #0
 e000878:	d0cc      	beq.n	e000814 <OSC131K_Calibration+0xe8>
 e00087a:	21b7      	movs	r1, #183	; 0xb7
 e00087c:	480e      	ldr	r0, [pc, #56]	; (e0008b8 <OSC131K_Calibration+0x18c>)
 e00087e:	f006 fd77 	bl	e007370 <io_assert_failed>
 e000882:	2001      	movs	r0, #1
 e000884:	b007      	add	sp, #28
 e000886:	e8bd 8ff0 	ldmia.w	sp!, {r4, r5, r6, r7, r8, r9, sl, fp, pc}
 e00088a:	f6a3 1189 	subw	r1, r3, #2441	; 0x989
 e00088e:	e7ab      	b.n	e0007e8 <OSC131K_Calibration+0xbc>
 e000890:	41008100 	.word	0x41008100
 e000894:	0000951d 	.word	0x0000951d
 e000898:	41008000 	.word	0x41008000
 e00089c:	000f4240 	.word	0x000f4240
 e0008a0:	d6c8bb19 	.word	0xd6c8bb19
 e0008a4:	0e007ae4 	.word	0x0e007ae4
 e0008a8:	0e007b20 	.word	0x0e007b20
 e0008ac:	80020000 	.word	0x80020000
 e0008b0:	0e007b24 	.word	0x0e007b24
 e0008b4:	0000c15d 	.word	0x0000c15d
 e0008b8:	0e007b5c 	.word	0x0e007b5c

0e0008bc <OSC4M_Calibration>:
 e0008bc:	e92d 4ff0 	stmdb	sp!, {r4, r5, r6, r7, r8, r9, sl, fp, lr}
 e0008c0:	f8df a1e8 	ldr.w	sl, [pc, #488]	; e000aac <OSC4M_Calibration+0x1f0>
 e0008c4:	b085      	sub	sp, #20
 e0008c6:	f44f 69a0 	mov.w	r9, #1280	; 0x500
 e0008ca:	2600      	movs	r6, #0
 e0008cc:	f8da 3004 	ldr.w	r3, [sl, #4]
 e0008d0:	4680      	mov	r8, r0
 e0008d2:	f04f 35ff 	mov.w	r5, #4294967295	; 0xffffffff
 e0008d6:	4f6f      	ldr	r7, [pc, #444]	; (e000a94 <OSC4M_Calibration+0x1d8>)
 e0008d8:	f043 0301 	orr.w	r3, r3, #1
 e0008dc:	4c6e      	ldr	r4, [pc, #440]	; (e000a98 <OSC4M_Calibration+0x1dc>)
 e0008de:	f8ca 3004 	str.w	r3, [sl, #4]
 e0008e2:	f8da 300c 	ldr.w	r3, [sl, #12]
 e0008e6:	b2db      	uxtb	r3, r3
 e0008e8:	f8ca 300c 	str.w	r3, [sl, #12]
 e0008ec:	f8da 300c 	ldr.w	r3, [sl, #12]
 e0008f0:	2002      	movs	r0, #2
 e0008f2:	f423 437f 	bic.w	r3, r3, #65280	; 0xff00
 e0008f6:	ea43 0309 	orr.w	r3, r3, r9
 e0008fa:	ea43 1309 	orr.w	r3, r3, r9, lsl #4
 e0008fe:	f8ca 300c 	str.w	r3, [sl, #12]
 e000902:	47b8      	blx	r7
 e000904:	f8d4 3288 	ldr.w	r3, [r4, #648]	; 0x288
 e000908:	f423 3340 	bic.w	r3, r3, #196608	; 0x30000
 e00090c:	f043 4300 	orr.w	r3, r3, #2147483648	; 0x80000000
 e000910:	f8c4 3288 	str.w	r3, [r4, #648]	; 0x288
 e000914:	f8d4 3288 	ldr.w	r3, [r4, #648]	; 0x288
 e000918:	2b00      	cmp	r3, #0
 e00091a:	dbfb      	blt.n	e000914 <OSC4M_Calibration+0x58>
 e00091c:	f8d4 3288 	ldr.w	r3, [r4, #648]	; 0x288
 e000920:	b29b      	uxth	r3, r3
 e000922:	f5b3 7fa0 	cmp.w	r3, #320	; 0x140
 e000926:	d25a      	bcs.n	e0009de <OSC4M_Calibration+0x122>
 e000928:	f5c3 73a0 	rsb	r3, r3, #320	; 0x140
 e00092c:	42ab      	cmp	r3, r5
 e00092e:	d203      	bcs.n	e000938 <OSC4M_Calibration+0x7c>
 e000930:	f8da 600c 	ldr.w	r6, [sl, #12]
 e000934:	461d      	mov	r5, r3
 e000936:	b2b6      	uxth	r6, r6
 e000938:	f509 7980 	add.w	r9, r9, #256	; 0x100
 e00093c:	f5b9 6f20 	cmp.w	r9, #2560	; 0xa00
 e000940:	d1d4      	bne.n	e0008ec <OSC4M_Calibration+0x30>
 e000942:	42ab      	cmp	r3, r5
 e000944:	d86a      	bhi.n	e000a1c <OSC4M_Calibration+0x160>
 e000946:	f8df a164 	ldr.w	sl, [pc, #356]	; e000aac <OSC4M_Calibration+0x1f0>
 e00094a:	f04f 0980 	mov.w	r9, #128	; 0x80
 e00094e:	f04f 0b06 	mov.w	fp, #6
 e000952:	4c51      	ldr	r4, [pc, #324]	; (e000a98 <OSC4M_Calibration+0x1dc>)
 e000954:	f8da 300c 	ldr.w	r3, [sl, #12]
 e000958:	f403 437f 	and.w	r3, r3, #65280	; 0xff00
 e00095c:	f8ca 300c 	str.w	r3, [sl, #12]
 e000960:	f8da 300c 	ldr.w	r3, [sl, #12]
 e000964:	ea43 0309 	orr.w	r3, r3, r9
 e000968:	f8ca 300c 	str.w	r3, [sl, #12]
 e00096c:	2002      	movs	r0, #2
 e00096e:	47b8      	blx	r7
 e000970:	f8d4 3288 	ldr.w	r3, [r4, #648]	; 0x288
 e000974:	f423 3340 	bic.w	r3, r3, #196608	; 0x30000
 e000978:	f043 4300 	orr.w	r3, r3, #2147483648	; 0x80000000
 e00097c:	f8c4 3288 	str.w	r3, [r4, #648]	; 0x288
 e000980:	f8d4 3288 	ldr.w	r3, [r4, #648]	; 0x288
 e000984:	2b00      	cmp	r3, #0
 e000986:	dbfb      	blt.n	e000980 <OSC4M_Calibration+0xc4>
 e000988:	f8d4 3288 	ldr.w	r3, [r4, #648]	; 0x288
 e00098c:	b29b      	uxth	r3, r3
 e00098e:	f5b3 7fa0 	cmp.w	r3, #320	; 0x140
 e000992:	d21f      	bcs.n	e0009d4 <OSC4M_Calibration+0x118>
 e000994:	f5c3 72a0 	rsb	r2, r3, #320	; 0x140
 e000998:	2100      	movs	r1, #0
 e00099a:	42aa      	cmp	r2, r5
 e00099c:	d203      	bcs.n	e0009a6 <OSC4M_Calibration+0xea>
 e00099e:	f8da 600c 	ldr.w	r6, [sl, #12]
 e0009a2:	4615      	mov	r5, r2
 e0009a4:	b2f6      	uxtb	r6, r6
 e0009a6:	f1bb 3fff 	cmp.w	fp, #4294967295	; 0xffffffff
 e0009aa:	d01c      	beq.n	e0009e6 <OSC4M_Calibration+0x12a>
 e0009ac:	f04f 0901 	mov.w	r9, #1
 e0009b0:	f8da 300c 	ldr.w	r3, [sl, #12]
 e0009b4:	fa09 f90b 	lsl.w	r9, r9, fp
 e0009b8:	ea49 0303 	orr.w	r3, r9, r3
 e0009bc:	f8ca 300c 	str.w	r3, [sl, #12]
 e0009c0:	b129      	cbz	r1, e0009ce <OSC4M_Calibration+0x112>
 e0009c2:	f8da 300c 	ldr.w	r3, [sl, #12]
 e0009c6:	ea23 0101 	bic.w	r1, r3, r1
 e0009ca:	f8ca 100c 	str.w	r1, [sl, #12]
 e0009ce:	f10b 3bff 	add.w	fp, fp, #4294967295	; 0xffffffff
 e0009d2:	e7cb      	b.n	e00096c <OSC4M_Calibration+0xb0>
 e0009d4:	d05b      	beq.n	e000a8e <OSC4M_Calibration+0x1d2>
 e0009d6:	f5a3 72a0 	sub.w	r2, r3, #320	; 0x140
 e0009da:	4649      	mov	r1, r9
 e0009dc:	e7dd      	b.n	e00099a <OSC4M_Calibration+0xde>
 e0009de:	d056      	beq.n	e000a8e <OSC4M_Calibration+0x1d2>
 e0009e0:	f5a3 73a0 	sub.w	r3, r3, #320	; 0x140
 e0009e4:	e7a2      	b.n	e00092c <OSC4M_Calibration+0x70>
 e0009e6:	42aa      	cmp	r2, r5
 e0009e8:	d81f      	bhi.n	e000a2a <OSC4M_Calibration+0x16e>
 e0009ea:	4c2c      	ldr	r4, [pc, #176]	; (e000a9c <OSC4M_Calibration+0x1e0>)
 e0009ec:	4b2c      	ldr	r3, [pc, #176]	; (e000aa0 <OSC4M_Calibration+0x1e4>)
 e0009ee:	fb02 f404 	mul.w	r4, r2, r4
 e0009f2:	fba3 3404 	umull	r3, r4, r3, r4
 e0009f6:	0a24      	lsrs	r4, r4, #8
 e0009f8:	f44f 71a0 	mov.w	r1, #320	; 0x140
 e0009fc:	4b29      	ldr	r3, [pc, #164]	; (e000aa4 <OSC4M_Calibration+0x1e8>)
 e0009fe:	2004      	movs	r0, #4
 e000a00:	e9cd 2100 	strd	r2, r1, [sp]
 e000a04:	e9cd 4802 	strd	r4, r8, [sp, #8]
 e000a08:	2249      	movs	r2, #73	; 0x49
 e000a0a:	4927      	ldr	r1, [pc, #156]	; (e000aa8 <OSC4M_Calibration+0x1ec>)
 e000a0c:	f001 fd16 	bl	e00243c <rtk_log_write>
 e000a10:	4544      	cmp	r4, r8
 e000a12:	d22a      	bcs.n	e000a6a <OSC4M_Calibration+0x1ae>
 e000a14:	2001      	movs	r0, #1
 e000a16:	b005      	add	sp, #20
 e000a18:	e8bd 8ff0 	ldmia.w	sp!, {r4, r5, r6, r7, r8, r9, sl, fp, pc}
 e000a1c:	4a23      	ldr	r2, [pc, #140]	; (e000aac <OSC4M_Calibration+0x1f0>)
 e000a1e:	68d3      	ldr	r3, [r2, #12]
 e000a20:	f423 437f 	bic.w	r3, r3, #65280	; 0xff00
 e000a24:	4333      	orrs	r3, r6
 e000a26:	60d3      	str	r3, [r2, #12]
 e000a28:	e78d      	b.n	e000946 <OSC4M_Calibration+0x8a>
 e000a2a:	4a20      	ldr	r2, [pc, #128]	; (e000aac <OSC4M_Calibration+0x1f0>)
 e000a2c:	2002      	movs	r0, #2
 e000a2e:	68d3      	ldr	r3, [r2, #12]
 e000a30:	f023 03ff 	bic.w	r3, r3, #255	; 0xff
 e000a34:	431e      	orrs	r6, r3
 e000a36:	60d6      	str	r6, [r2, #12]
 e000a38:	47b8      	blx	r7
 e000a3a:	4a17      	ldr	r2, [pc, #92]	; (e000a98 <OSC4M_Calibration+0x1dc>)
 e000a3c:	f8d2 3288 	ldr.w	r3, [r2, #648]	; 0x288
 e000a40:	f423 3340 	bic.w	r3, r3, #196608	; 0x30000
 e000a44:	f043 4300 	orr.w	r3, r3, #2147483648	; 0x80000000
 e000a48:	f8c2 3288 	str.w	r3, [r2, #648]	; 0x288
 e000a4c:	f8d2 3288 	ldr.w	r3, [r2, #648]	; 0x288
 e000a50:	2b00      	cmp	r3, #0
 e000a52:	dbfb      	blt.n	e000a4c <OSC4M_Calibration+0x190>
 e000a54:	f8d2 3288 	ldr.w	r3, [r2, #648]	; 0x288
 e000a58:	b29b      	uxth	r3, r3
 e000a5a:	f5b3 7fa0 	cmp.w	r3, #320	; 0x140
 e000a5e:	bf34      	ite	cc
 e000a60:	f5c3 72a0 	rsbcc	r2, r3, #320	; 0x140
 e000a64:	f5a3 72a0 	subcs.w	r2, r3, #320	; 0x140
 e000a68:	e7bf      	b.n	e0009ea <OSC4M_Calibration+0x12e>
 e000a6a:	4b11      	ldr	r3, [pc, #68]	; (e000ab0 <OSC4M_Calibration+0x1f4>)
 e000a6c:	2257      	movs	r2, #87	; 0x57
 e000a6e:	490e      	ldr	r1, [pc, #56]	; (e000aa8 <OSC4M_Calibration+0x1ec>)
 e000a70:	2003      	movs	r0, #3
 e000a72:	f8cd 8004 	str.w	r8, [sp, #4]
 e000a76:	9400      	str	r4, [sp, #0]
 e000a78:	f001 fce0 	bl	e00243c <rtk_log_write>
 e000a7c:	f44f 71b5 	mov.w	r1, #362	; 0x16a
 e000a80:	480c      	ldr	r0, [pc, #48]	; (e000ab4 <OSC4M_Calibration+0x1f8>)
 e000a82:	f006 fc75 	bl	e007370 <io_assert_failed>
 e000a86:	2001      	movs	r0, #1
 e000a88:	b005      	add	sp, #20
 e000a8a:	e8bd 8ff0 	ldmia.w	sp!, {r4, r5, r6, r7, r8, r9, sl, fp, pc}
 e000a8e:	2400      	movs	r4, #0
 e000a90:	4622      	mov	r2, r4
 e000a92:	e7b1      	b.n	e0009f8 <OSC4M_Calibration+0x13c>
 e000a94:	000094a5 	.word	0x000094a5
 e000a98:	41008000 	.word	0x41008000
 e000a9c:	000f4240 	.word	0x000f4240
 e000aa0:	cccccccd 	.word	0xcccccccd
 e000aa4:	0e007b94 	.word	0x0e007b94
 e000aa8:	0e007b20 	.word	0x0e007b20
 e000aac:	41008100 	.word	0x41008100
 e000ab0:	0e007bcc 	.word	0x0e007bcc
 e000ab4:	0e007b5c 	.word	0x0e007b5c

0e000ab8 <OSC4M_Init>:
 e000ab8:	4770      	bx	lr
 e000aba:	bf00      	nop

0e000abc <XTAL_INIT>:
 e000abc:	4b08      	ldr	r3, [pc, #32]	; (e000ae0 <XTAL_INIT+0x24>)
 e000abe:	4909      	ldr	r1, [pc, #36]	; (e000ae4 <XTAL_INIT+0x28>)
 e000ac0:	4a09      	ldr	r2, [pc, #36]	; (e000ae8 <XTAL_INIT+0x2c>)
 e000ac2:	480a      	ldr	r0, [pc, #40]	; (e000aec <XTAL_INIT+0x30>)
 e000ac4:	b410      	push	{r4}
 e000ac6:	6059      	str	r1, [r3, #4]
 e000ac8:	f640 34e9 	movw	r4, #3049	; 0xbe9
 e000acc:	609a      	str	r2, [r3, #8]
 e000ace:	2168      	movs	r1, #104	; 0x68
 e000ad0:	2206      	movs	r2, #6
 e000ad2:	60dc      	str	r4, [r3, #12]
 e000ad4:	6118      	str	r0, [r3, #16]
 e000ad6:	6159      	str	r1, [r3, #20]
 e000ad8:	619a      	str	r2, [r3, #24]
 e000ada:	f85d 4b04 	ldr.w	r4, [sp], #4
 e000ade:	4770      	bx	lr
 e000ae0:	41008400 	.word	0x41008400
 e000ae4:	008103ff 	.word	0x008103ff
 e000ae8:	fc3b9e80 	.word	0xfc3b9e80
 e000aec:	cc0e0190 	.word	0xcc0e0190

0e000af0 <DATA_FLASH_PLLInit_ClockDiv>:
 e000af0:	2200      	movs	r2, #0
 e000af2:	f44f 5100 	mov.w	r1, #8192	; 0x2000
 e000af6:	b570      	push	{r4, r5, r6, lr}
 e000af8:	4c16      	ldr	r4, [pc, #88]	; (e000b54 <DATA_FLASH_PLLInit_ClockDiv+0x64>)
 e000afa:	4605      	mov	r5, r0
 e000afc:	4e16      	ldr	r6, [pc, #88]	; (e000b58 <DATA_FLASH_PLLInit_ClockDiv+0x68>)
 e000afe:	4610      	mov	r0, r2
 e000b00:	47b0      	blx	r6
 e000b02:	f8d4 324c 	ldr.w	r3, [r4, #588]	; 0x24c
 e000b06:	2001      	movs	r0, #1
 e000b08:	022d      	lsls	r5, r5, #8
 e000b0a:	f423 5300 	bic.w	r3, r3, #8192	; 0x2000
 e000b0e:	f405 6570 	and.w	r5, r5, #3840	; 0xf00
 e000b12:	f8c4 324c 	str.w	r3, [r4, #588]	; 0x24c
 e000b16:	4b11      	ldr	r3, [pc, #68]	; (e000b5c <DATA_FLASH_PLLInit_ClockDiv+0x6c>)
 e000b18:	4798      	blx	r3
 e000b1a:	f8d4 224c 	ldr.w	r2, [r4, #588]	; 0x24c
 e000b1e:	230a      	movs	r3, #10
 e000b20:	f422 6270 	bic.w	r2, r2, #3840	; 0xf00
 e000b24:	4315      	orrs	r5, r2
 e000b26:	f8c4 524c 	str.w	r5, [r4, #588]	; 0x24c
 e000b2a:	f8d4 224c 	ldr.w	r2, [r4, #588]	; 0x24c
 e000b2e:	f442 5200 	orr.w	r2, r2, #8192	; 0x2000
 e000b32:	f8c4 224c 	str.w	r2, [r4, #588]	; 0x24c
 e000b36:	e001      	b.n	e000b3c <DATA_FLASH_PLLInit_ClockDiv+0x4c>
 e000b38:	07d2      	lsls	r2, r2, #31
 e000b3a:	d403      	bmi.n	e000b44 <DATA_FLASH_PLLInit_ClockDiv+0x54>
 e000b3c:	3b01      	subs	r3, #1
 e000b3e:	f8d4 224c 	ldr.w	r2, [r4, #588]	; 0x24c
 e000b42:	d1f9      	bne.n	e000b38 <DATA_FLASH_PLLInit_ClockDiv+0x48>
 e000b44:	2000      	movs	r0, #0
 e000b46:	2201      	movs	r2, #1
 e000b48:	f44f 5100 	mov.w	r1, #8192	; 0x2000
 e000b4c:	47b0      	blx	r6
 e000b4e:	2001      	movs	r0, #1
 e000b50:	bd70      	pop	{r4, r5, r6, pc}
 e000b52:	bf00      	nop
 e000b54:	41008000 	.word	0x41008000
 e000b58:	0000bebd 	.word	0x0000bebd
 e000b5c:	0000c001 	.word	0x0000c001

0e000b60 <DATA_FLASH_Read_DataIsRight>:
 e000b60:	4b16      	ldr	r3, [pc, #88]	; (e000bbc <DATA_FLASH_Read_DataIsRight+0x5c>)
 e000b62:	b510      	push	{r4, lr}
 e000b64:	695a      	ldr	r2, [r3, #20]
 e000b66:	b084      	sub	sp, #16
 e000b68:	03d2      	lsls	r2, r2, #15
 e000b6a:	d509      	bpl.n	e000b80 <DATA_FLASH_Read_DataIsRight+0x20>
 e000b6c:	f3bf 8f4f 	dsb	sy
 e000b70:	f04f 42c0 	mov.w	r2, #1610612736	; 0x60000000
 e000b74:	f8c3 225c 	str.w	r2, [r3, #604]	; 0x25c
 e000b78:	f3bf 8f4f 	dsb	sy
 e000b7c:	f3bf 8f6f 	isb	sy
 e000b80:	f04f 43c0 	mov.w	r3, #1610612736	; 0x60000000
 e000b84:	4a0e      	ldr	r2, [pc, #56]	; (e000bc0 <DATA_FLASH_Read_DataIsRight+0x60>)
 e000b86:	6818      	ldr	r0, [r3, #0]
 e000b88:	79d2      	ldrb	r2, [r2, #7]
 e000b8a:	9002      	str	r0, [sp, #8]
 e000b8c:	685c      	ldr	r4, [r3, #4]
 e000b8e:	9403      	str	r4, [sp, #12]
 e000b90:	b952      	cbnz	r2, e000ba8 <DATA_FLASH_Read_DataIsRight+0x48>
 e000b92:	2208      	movs	r2, #8
 e000b94:	490b      	ldr	r1, [pc, #44]	; (e000bc4 <DATA_FLASH_Read_DataIsRight+0x64>)
 e000b96:	4b0c      	ldr	r3, [pc, #48]	; (e000bc8 <DATA_FLASH_Read_DataIsRight+0x68>)
 e000b98:	eb0d 0002 	add.w	r0, sp, r2
 e000b9c:	4798      	blx	r3
 e000b9e:	fab0 f080 	clz	r0, r0
 e000ba2:	0940      	lsrs	r0, r0, #5
 e000ba4:	b004      	add	sp, #16
 e000ba6:	bd10      	pop	{r4, pc}
 e000ba8:	e9cd 0400 	strd	r0, r4, [sp]
 e000bac:	4b07      	ldr	r3, [pc, #28]	; (e000bcc <DATA_FLASH_Read_DataIsRight+0x6c>)
 e000bae:	2249      	movs	r2, #73	; 0x49
 e000bb0:	4907      	ldr	r1, [pc, #28]	; (e000bd0 <DATA_FLASH_Read_DataIsRight+0x70>)
 e000bb2:	2004      	movs	r0, #4
 e000bb4:	f001 fc42 	bl	e00243c <rtk_log_write>
 e000bb8:	e7eb      	b.n	e000b92 <DATA_FLASH_Read_DataIsRight+0x32>
 e000bba:	bf00      	nop
 e000bbc:	e000ed00 	.word	0xe000ed00
 e000bc0:	2000b188 	.word	0x2000b188
 e000bc4:	0004484c 	.word	0x0004484c
 e000bc8:	00011bbd 	.word	0x00011bbd
 e000bcc:	0e007c04 	.word	0x0e007c04
 e000bd0:	0e007c24 	.word	0x0e007c24

0e000bd4 <data_flash_handshake_highspeed>:
 e000bd4:	b5f0      	push	{r4, r5, r6, r7, lr}
 e000bd6:	4c25      	ldr	r4, [pc, #148]	; (e000c6c <data_flash_handshake_highspeed+0x98>)
 e000bd8:	b083      	sub	sp, #12
 e000bda:	4b25      	ldr	r3, [pc, #148]	; (e000c70 <data_flash_handshake_highspeed+0x9c>)
 e000bdc:	4607      	mov	r7, r0
 e000bde:	4798      	blx	r3
 e000be0:	f8d4 324c 	ldr.w	r3, [r4, #588]	; 0x24c
 e000be4:	4e23      	ldr	r6, [pc, #140]	; (e000c74 <data_flash_handshake_highspeed+0xa0>)
 e000be6:	f423 13f0 	bic.w	r3, r3, #1966080	; 0x1e0000
 e000bea:	4a23      	ldr	r2, [pc, #140]	; (e000c78 <data_flash_handshake_highspeed+0xa4>)
 e000bec:	f443 23c0 	orr.w	r3, r3, #393216	; 0x60000
 e000bf0:	f8c4 324c 	str.w	r3, [r4, #588]	; 0x24c
 e000bf4:	f8d4 324c 	ldr.w	r3, [r4, #588]	; 0x24c
 e000bf8:	f443 3380 	orr.w	r3, r3, #65536	; 0x10000
 e000bfc:	f8c4 324c 	str.w	r3, [r4, #588]	; 0x24c
 e000c00:	f8d6 3110 	ldr.w	r3, [r6, #272]	; 0x110
 e000c04:	f443 3380 	orr.w	r3, r3, #65536	; 0x10000
 e000c08:	f8c6 3110 	str.w	r3, [r6, #272]	; 0x110
 e000c0c:	4790      	blx	r2
 e000c0e:	b160      	cbz	r0, e000c2a <data_flash_handshake_highspeed+0x56>
 e000c10:	2501      	movs	r5, #1
 e000c12:	491a      	ldr	r1, [pc, #104]	; (e000c7c <data_flash_handshake_highspeed+0xa8>)
 e000c14:	4b1a      	ldr	r3, [pc, #104]	; (e000c80 <data_flash_handshake_highspeed+0xac>)
 e000c16:	2249      	movs	r2, #73	; 0x49
 e000c18:	2004      	movs	r0, #4
 e000c1a:	e9cd 7100 	strd	r7, r1, [sp]
 e000c1e:	4919      	ldr	r1, [pc, #100]	; (e000c84 <data_flash_handshake_highspeed+0xb0>)
 e000c20:	f001 fc0c 	bl	e00243c <rtk_log_write>
 e000c24:	4628      	mov	r0, r5
 e000c26:	b003      	add	sp, #12
 e000c28:	bdf0      	pop	{r4, r5, r6, r7, pc}
 e000c2a:	f8d4 324c 	ldr.w	r3, [r4, #588]	; 0x24c
 e000c2e:	4605      	mov	r5, r0
 e000c30:	f423 13f0 	bic.w	r3, r3, #1966080	; 0x1e0000
 e000c34:	f443 23c0 	orr.w	r3, r3, #393216	; 0x60000
 e000c38:	f8c4 324c 	str.w	r3, [r4, #588]	; 0x24c
 e000c3c:	f8d4 324c 	ldr.w	r3, [r4, #588]	; 0x24c
 e000c40:	f423 3380 	bic.w	r3, r3, #65536	; 0x10000
 e000c44:	f8c4 324c 	str.w	r3, [r4, #588]	; 0x24c
 e000c48:	f8d6 3110 	ldr.w	r3, [r6, #272]	; 0x110
 e000c4c:	f423 3380 	bic.w	r3, r3, #65536	; 0x10000
 e000c50:	f8c6 3110 	str.w	r3, [r6, #272]	; 0x110
 e000c54:	4b0c      	ldr	r3, [pc, #48]	; (e000c88 <data_flash_handshake_highspeed+0xb4>)
 e000c56:	4798      	blx	r3
 e000c58:	f8d6 3140 	ldr.w	r3, [r6, #320]	; 0x140
 e000c5c:	490b      	ldr	r1, [pc, #44]	; (e000c8c <data_flash_handshake_highspeed+0xb8>)
 e000c5e:	f023 030f 	bic.w	r3, r3, #15
 e000c62:	f043 0301 	orr.w	r3, r3, #1
 e000c66:	f8c6 3140 	str.w	r3, [r6, #320]	; 0x140
 e000c6a:	e7d3      	b.n	e000c14 <data_flash_handshake_highspeed+0x40>
 e000c6c:	41008000 	.word	0x41008000
 e000c70:	0e000af1 	.word	0x0e000af1
 e000c74:	40127000 	.word	0x40127000
 e000c78:	0e000b61 	.word	0x0e000b61
 e000c7c:	0e007c38 	.word	0x0e007c38
 e000c80:	0e007c3c 	.word	0x0e007c3c
 e000c84:	0e007c24 	.word	0x0e007c24
 e000c88:	0000c001 	.word	0x0000c001
 e000c8c:	0e007c30 	.word	0x0e007c30

0e000c90 <data_flash_rx_mode_switch>:
 e000c90:	e92d 43f0 	stmdb	sp!, {r4, r5, r6, r7, r8, r9, lr}
 e000c94:	2300      	movs	r3, #0
 e000c96:	b089      	sub	sp, #36	; 0x24
 e000c98:	f8df e0d0 	ldr.w	lr, [pc, #208]	; e000d6c <data_flash_rx_mode_switch+0xdc>
 e000c9c:	4604      	mov	r4, r0
 e000c9e:	f10d 0c0c 	add.w	ip, sp, #12
 e000ca2:	f88d 300b 	strb.w	r3, [sp, #11]
 e000ca6:	4d2a      	ldr	r5, [pc, #168]	; (e000d50 <data_flash_rx_mode_switch+0xc0>)
 e000ca8:	4e2a      	ldr	r6, [pc, #168]	; (e000d54 <data_flash_rx_mode_switch+0xc4>)
 e000caa:	f8df 90c4 	ldr.w	r9, [pc, #196]	; e000d70 <data_flash_rx_mode_switch+0xe0>
 e000cae:	f105 084e 	add.w	r8, r5, #78	; 0x4e
 e000cb2:	4f29      	ldr	r7, [pc, #164]	; (e000d58 <data_flash_rx_mode_switch+0xc8>)
 e000cb4:	e8be 000f 	ldmia.w	lr!, {r0, r1, r2, r3}
 e000cb8:	e8ac 000f 	stmia.w	ip!, {r0, r1, r2, r3}
 e000cbc:	f8de 3000 	ldr.w	r3, [lr]
 e000cc0:	f8cc 3000 	str.w	r3, [ip]
 e000cc4:	e006      	b.n	e000cd4 <data_flash_rx_mode_switch+0x44>
 e000cc6:	b2e0      	uxtb	r0, r4
 e000cc8:	47b0      	blx	r6
 e000cca:	4b24      	ldr	r3, [pc, #144]	; (e000d5c <data_flash_rx_mode_switch+0xcc>)
 e000ccc:	b334      	cbz	r4, e000d1c <data_flash_rx_mode_switch+0x8c>
 e000cce:	4798      	blx	r3
 e000cd0:	bb70      	cbnz	r0, e000d30 <data_flash_rx_mode_switch+0xa0>
 e000cd2:	3c01      	subs	r4, #1
 e000cd4:	2c02      	cmp	r4, #2
 e000cd6:	bf18      	it	ne
 e000cd8:	2c04      	cmpne	r4, #4
 e000cda:	682b      	ldr	r3, [r5, #0]
 e000cdc:	bf0c      	ite	eq
 e000cde:	2201      	moveq	r2, #1
 e000ce0:	2200      	movne	r2, #0
 e000ce2:	2b03      	cmp	r3, #3
 e000ce4:	f885 2055 	strb.w	r2, [r5, #85]	; 0x55
 e000ce8:	d1ed      	bne.n	e000cc6 <data_flash_rx_mode_switch+0x36>
 e000cea:	2101      	movs	r1, #1
 e000cec:	2085      	movs	r0, #133	; 0x85
 e000cee:	f10d 020b 	add.w	r2, sp, #11
 e000cf2:	47c8      	blx	r9
 e000cf4:	f89d 300b 	ldrb.w	r3, [sp, #11]
 e000cf8:	f814 0008 	ldrb.w	r0, [r4, r8]
 e000cfc:	f10d 020b 	add.w	r2, sp, #11
 e000d00:	f003 030f 	and.w	r3, r3, #15
 e000d04:	2101      	movs	r1, #1
 e000d06:	ea43 1300 	orr.w	r3, r3, r0, lsl #4
 e000d0a:	2081      	movs	r0, #129	; 0x81
 e000d0c:	f88d 300b 	strb.w	r3, [sp, #11]
 e000d10:	47b8      	blx	r7
 e000d12:	b2e0      	uxtb	r0, r4
 e000d14:	47b0      	blx	r6
 e000d16:	4b11      	ldr	r3, [pc, #68]	; (e000d5c <data_flash_rx_mode_switch+0xcc>)
 e000d18:	2c00      	cmp	r4, #0
 e000d1a:	d1d8      	bne.n	e000cce <data_flash_rx_mode_switch+0x3e>
 e000d1c:	4b10      	ldr	r3, [pc, #64]	; (e000d60 <data_flash_rx_mode_switch+0xd0>)
 e000d1e:	2245      	movs	r2, #69	; 0x45
 e000d20:	4910      	ldr	r1, [pc, #64]	; (e000d64 <data_flash_rx_mode_switch+0xd4>)
 e000d22:	2002      	movs	r0, #2
 e000d24:	f001 fb8a 	bl	e00243c <rtk_log_write>
 e000d28:	4620      	mov	r0, r4
 e000d2a:	b009      	add	sp, #36	; 0x24
 e000d2c:	e8bd 83f0 	ldmia.w	sp!, {r4, r5, r6, r7, r8, r9, pc}
 e000d30:	ab08      	add	r3, sp, #32
 e000d32:	2249      	movs	r2, #73	; 0x49
 e000d34:	490b      	ldr	r1, [pc, #44]	; (e000d64 <data_flash_rx_mode_switch+0xd4>)
 e000d36:	2004      	movs	r0, #4
 e000d38:	eb03 0484 	add.w	r4, r3, r4, lsl #2
 e000d3c:	4b0a      	ldr	r3, [pc, #40]	; (e000d68 <data_flash_rx_mode_switch+0xd8>)
 e000d3e:	f854 4c14 	ldr.w	r4, [r4, #-20]
 e000d42:	9400      	str	r4, [sp, #0]
 e000d44:	f001 fb7a 	bl	e00243c <rtk_log_write>
 e000d48:	2001      	movs	r0, #1
 e000d4a:	b009      	add	sp, #36	; 0x24
 e000d4c:	e8bd 83f0 	ldmia.w	sp!, {r4, r5, r6, r7, r8, r9, pc}
 e000d50:	2000b188 	.word	0x2000b188
 e000d54:	0e001241 	.word	0x0e001241
 e000d58:	0e001155 	.word	0x0e001155
 e000d5c:	0e000b61 	.word	0x0e000b61
 e000d60:	0e007c5c 	.word	0x0e007c5c
 e000d64:	0e007c24 	.word	0x0e007c24
 e000d68:	0e007c80 	.word	0x0e007c80
 e000d6c:	0e007d0c 	.word	0x0e007d0c
 e000d70:	0e001051 	.word	0x0e001051

0e000d74 <data_flash_highspeed_setup>:
 e000d74:	e92d 43f0 	stmdb	sp!, {r4, r5, r6, r7, r8, r9, lr}
 e000d78:	4d7f      	ldr	r5, [pc, #508]	; (e000f78 <data_flash_highspeed_setup+0x204>)
 e000d7a:	b087      	sub	sp, #28
 e000d7c:	4b7f      	ldr	r3, [pc, #508]	; (e000f7c <data_flash_highspeed_setup+0x208>)
 e000d7e:	4798      	blx	r3
 e000d80:	4f7f      	ldr	r7, [pc, #508]	; (e000f80 <data_flash_highspeed_setup+0x20c>)
 e000d82:	4604      	mov	r4, r0
 e000d84:	4628      	mov	r0, r5
 e000d86:	47b8      	blx	r7
 e000d88:	4a7e      	ldr	r2, [pc, #504]	; (e000f84 <data_flash_highspeed_setup+0x210>)
 e000d8a:	2301      	movs	r3, #1
 e000d8c:	8810      	ldrh	r0, [r2, #0]
 e000d8e:	716b      	strb	r3, [r5, #5]
 e000d90:	71ab      	strb	r3, [r5, #6]
 e000d92:	f000 fb8f 	bl	e0014b4 <flash_get_readmode>
 e000d96:	4b7c      	ldr	r3, [pc, #496]	; (e000f88 <data_flash_highspeed_setup+0x214>)
 e000d98:	4606      	mov	r6, r0
 e000d9a:	4a7c      	ldr	r2, [pc, #496]	; (e000f8c <data_flash_highspeed_setup+0x218>)
 e000d9c:	4423      	add	r3, r4
 e000d9e:	fba2 2303 	umull	r2, r3, r2, r3
 e000da2:	4a7b      	ldr	r2, [pc, #492]	; (e000f90 <data_flash_highspeed_setup+0x21c>)
 e000da4:	8814      	ldrh	r4, [r2, #0]
 e000da6:	0edb      	lsrs	r3, r3, #27
 e000da8:	3c01      	subs	r4, #1
 e000daa:	3b01      	subs	r3, #1
 e000dac:	b2e4      	uxtb	r4, r4
 e000dae:	429c      	cmp	r4, r3
 e000db0:	bf38      	it	cc
 e000db2:	461c      	movcc	r4, r3
 e000db4:	b672      	cpsid	i
 e000db6:	b2e4      	uxtb	r4, r4
 e000db8:	429c      	cmp	r4, r3
 e000dba:	d108      	bne.n	e000dce <data_flash_highspeed_setup+0x5a>
 e000dbc:	4a75      	ldr	r2, [pc, #468]	; (e000f94 <data_flash_highspeed_setup+0x220>)
 e000dbe:	f8d2 3140 	ldr.w	r3, [r2, #320]	; 0x140
 e000dc2:	f023 030f 	bic.w	r3, r3, #15
 e000dc6:	f043 0302 	orr.w	r3, r3, #2
 e000dca:	f8c2 3140 	str.w	r3, [r2, #320]	; 0x140
 e000dce:	2103      	movs	r1, #3
 e000dd0:	f895 0041 	ldrb.w	r0, [r5, #65]	; 0x41
 e000dd4:	aa05      	add	r2, sp, #20
 e000dd6:	f8df 81ec 	ldr.w	r8, [pc, #492]	; e000fc4 <data_flash_highspeed_setup+0x250>
 e000dda:	47c0      	blx	r8
 e000ddc:	f89d 3016 	ldrb.w	r3, [sp, #22]
 e000de0:	2249      	movs	r2, #73	; 0x49
 e000de2:	496d      	ldr	r1, [pc, #436]	; (e000f98 <data_flash_highspeed_setup+0x224>)
 e000de4:	9302      	str	r3, [sp, #8]
 e000de6:	2004      	movs	r0, #4
 e000de8:	f89d 3015 	ldrb.w	r3, [sp, #21]
 e000dec:	f8df 91d8 	ldr.w	r9, [pc, #472]	; e000fc8 <data_flash_highspeed_setup+0x254>
 e000df0:	9301      	str	r3, [sp, #4]
 e000df2:	f89d 3014 	ldrb.w	r3, [sp, #20]
 e000df6:	9300      	str	r3, [sp, #0]
 e000df8:	4b68      	ldr	r3, [pc, #416]	; (e000f9c <data_flash_highspeed_setup+0x228>)
 e000dfa:	f001 fb1f 	bl	e00243c <rtk_log_write>
 e000dfe:	f89d 3015 	ldrb.w	r3, [sp, #21]
 e000e02:	f89d 0016 	ldrb.w	r0, [sp, #22]
 e000e06:	021b      	lsls	r3, r3, #8
 e000e08:	ea43 4300 	orr.w	r3, r3, r0, lsl #16
 e000e0c:	f89d 0014 	ldrb.w	r0, [sp, #20]
 e000e10:	4318      	orrs	r0, r3
 e000e12:	f000 fb6d 	bl	e0014f0 <flash_get_chip_info>
 e000e16:	f8c9 0000 	str.w	r0, [r9]
 e000e1a:	2800      	cmp	r0, #0
 e000e1c:	f000 8090 	beq.w	e000f40 <data_flash_highspeed_setup+0x1cc>
 e000e20:	7a03      	ldrb	r3, [r0, #8]
 e000e22:	2b05      	cmp	r3, #5
 e000e24:	d809      	bhi.n	e000e3a <data_flash_highspeed_setup+0xc6>
 e000e26:	3b01      	subs	r3, #1
 e000e28:	4853      	ldr	r0, [pc, #332]	; (e000f78 <data_flash_highspeed_setup+0x204>)
 e000e2a:	2b04      	cmp	r3, #4
 e000e2c:	f200 809f 	bhi.w	e000f6e <data_flash_highspeed_setup+0x1fa>
 e000e30:	e8df f003 	tbb	[pc, r3]
 e000e34:	5a7c7669 	.word	0x5a7c7669
 e000e38:	60          	.byte	0x60
 e000e39:	00          	.byte	0x00
 e000e3a:	2bfe      	cmp	r3, #254	; 0xfe
 e000e3c:	d106      	bne.n	e000e4c <data_flash_highspeed_setup+0xd8>
 e000e3e:	6903      	ldr	r3, [r0, #16]
 e000e40:	2b00      	cmp	r3, #0
 e000e42:	f000 808b 	beq.w	e000f5c <data_flash_highspeed_setup+0x1e8>
 e000e46:	4798      	blx	r3
 e000e48:	f8d9 0000 	ldr.w	r0, [r9]
 e000e4c:	68eb      	ldr	r3, [r5, #12]
 e000e4e:	f8d0 900c 	ldr.w	r9, [r0, #12]
 e000e52:	9304      	str	r3, [sp, #16]
 e000e54:	aa05      	add	r2, sp, #20
 e000e56:	2101      	movs	r1, #1
 e000e58:	f895 0042 	ldrb.w	r0, [r5, #66]	; 0x42
 e000e5c:	47c0      	blx	r8
 e000e5e:	69ab      	ldr	r3, [r5, #24]
 e000e60:	bb2b      	cbnz	r3, e000eae <data_flash_highspeed_setup+0x13a>
 e000e62:	4b4f      	ldr	r3, [pc, #316]	; (e000fa0 <data_flash_highspeed_setup+0x22c>)
 e000e64:	781b      	ldrb	r3, [r3, #0]
 e000e66:	2b00      	cmp	r3, #0
 e000e68:	d133      	bne.n	e000ed2 <data_flash_highspeed_setup+0x15e>
 e000e6a:	2701      	movs	r7, #1
 e000e6c:	9b05      	ldr	r3, [sp, #20]
 e000e6e:	a805      	add	r0, sp, #20
 e000e70:	463a      	mov	r2, r7
 e000e72:	a904      	add	r1, sp, #16
 e000e74:	ea03 0309 	and.w	r3, r3, r9
 e000e78:	9305      	str	r3, [sp, #20]
 e000e7a:	4b4a      	ldr	r3, [pc, #296]	; (e000fa4 <data_flash_highspeed_setup+0x230>)
 e000e7c:	4798      	blx	r3
 e000e7e:	b140      	cbz	r0, e000e92 <data_flash_highspeed_setup+0x11e>
 e000e80:	f895 3045 	ldrb.w	r3, [r5, #69]	; 0x45
 e000e84:	aa04      	add	r2, sp, #16
 e000e86:	f895 0044 	ldrb.w	r0, [r5, #68]	; 0x44
 e000e8a:	b9c3      	cbnz	r3, e000ebe <data_flash_highspeed_setup+0x14a>
 e000e8c:	4639      	mov	r1, r7
 e000e8e:	4b46      	ldr	r3, [pc, #280]	; (e000fa8 <data_flash_highspeed_setup+0x234>)
 e000e90:	4798      	blx	r3
 e000e92:	b2f0      	uxtb	r0, r6
 e000e94:	f7ff fefc 	bl	e000c90 <data_flash_rx_mode_switch>
 e000e98:	4b44      	ldr	r3, [pc, #272]	; (e000fac <data_flash_highspeed_setup+0x238>)
 e000e9a:	4798      	blx	r3
 e000e9c:	2801      	cmp	r0, #1
 e000e9e:	d002      	beq.n	e000ea6 <data_flash_highspeed_setup+0x132>
 e000ea0:	4620      	mov	r0, r4
 e000ea2:	f7ff fe97 	bl	e000bd4 <data_flash_handshake_highspeed>
 e000ea6:	b662      	cpsie	i
 e000ea8:	b007      	add	sp, #28
 e000eaa:	e8bd 83f0 	ldmia.w	sp!, {r4, r5, r6, r7, r8, r9, pc}
 e000eae:	f10d 0215 	add.w	r2, sp, #21
 e000eb2:	2101      	movs	r1, #1
 e000eb4:	f895 0043 	ldrb.w	r0, [r5, #67]	; 0x43
 e000eb8:	2702      	movs	r7, #2
 e000eba:	47c0      	blx	r8
 e000ebc:	e7d6      	b.n	e000e6c <data_flash_highspeed_setup+0xf8>
 e000ebe:	2101      	movs	r1, #1
 e000ec0:	4f39      	ldr	r7, [pc, #228]	; (e000fa8 <data_flash_highspeed_setup+0x234>)
 e000ec2:	47b8      	blx	r7
 e000ec4:	f10d 0211 	add.w	r2, sp, #17
 e000ec8:	f895 0045 	ldrb.w	r0, [r5, #69]	; 0x45
 e000ecc:	2101      	movs	r1, #1
 e000ece:	47b8      	blx	r7
 e000ed0:	e7df      	b.n	e000e92 <data_flash_highspeed_setup+0x11e>
 e000ed2:	f10d 0215 	add.w	r2, sp, #21
 e000ed6:	2102      	movs	r1, #2
 e000ed8:	2015      	movs	r0, #21
 e000eda:	2703      	movs	r7, #3
 e000edc:	47c0      	blx	r8
 e000ede:	9b04      	ldr	r3, [sp, #16]
 e000ee0:	f443 3300 	orr.w	r3, r3, #131072	; 0x20000
 e000ee4:	9304      	str	r3, [sp, #16]
 e000ee6:	e7c1      	b.n	e000e6c <data_flash_highspeed_setup+0xf8>
 e000ee8:	4b31      	ldr	r3, [pc, #196]	; (e000fb0 <data_flash_highspeed_setup+0x23c>)
 e000eea:	4798      	blx	r3
 e000eec:	f8d9 0000 	ldr.w	r0, [r9]
 e000ef0:	68eb      	ldr	r3, [r5, #12]
 e000ef2:	e7ac      	b.n	e000e4e <data_flash_highspeed_setup+0xda>
 e000ef4:	4b2f      	ldr	r3, [pc, #188]	; (e000fb4 <data_flash_highspeed_setup+0x240>)
 e000ef6:	4798      	blx	r3
 e000ef8:	4b29      	ldr	r3, [pc, #164]	; (e000fa0 <data_flash_highspeed_setup+0x22c>)
 e000efa:	2201      	movs	r2, #1
 e000efc:	f8d9 0000 	ldr.w	r0, [r9]
 e000f00:	701a      	strb	r2, [r3, #0]
 e000f02:	68eb      	ldr	r3, [r5, #12]
 e000f04:	e7a3      	b.n	e000e4e <data_flash_highspeed_setup+0xda>
 e000f06:	4b2c      	ldr	r3, [pc, #176]	; (e000fb8 <data_flash_highspeed_setup+0x244>)
 e000f08:	4798      	blx	r3
 e000f0a:	f89d 3016 	ldrb.w	r3, [sp, #22]
 e000f0e:	f8d9 0000 	ldr.w	r0, [r9]
 e000f12:	2b15      	cmp	r3, #21
 e000f14:	d99a      	bls.n	e000e4c <data_flash_highspeed_setup+0xd8>
 e000f16:	2331      	movs	r3, #49	; 0x31
 e000f18:	f885 3045 	strb.w	r3, [r5, #69]	; 0x45
 e000f1c:	68eb      	ldr	r3, [r5, #12]
 e000f1e:	e796      	b.n	e000e4e <data_flash_highspeed_setup+0xda>
 e000f20:	4b24      	ldr	r3, [pc, #144]	; (e000fb4 <data_flash_highspeed_setup+0x240>)
 e000f22:	4798      	blx	r3
 e000f24:	f8d9 0000 	ldr.w	r0, [r9]
 e000f28:	68eb      	ldr	r3, [r5, #12]
 e000f2a:	e790      	b.n	e000e4e <data_flash_highspeed_setup+0xda>
 e000f2c:	4b21      	ldr	r3, [pc, #132]	; (e000fb4 <data_flash_highspeed_setup+0x240>)
 e000f2e:	4798      	blx	r3
 e000f30:	2300      	movs	r3, #0
 e000f32:	f8d9 2000 	ldr.w	r2, [r9]
 e000f36:	60eb      	str	r3, [r5, #12]
 e000f38:	9304      	str	r3, [sp, #16]
 e000f3a:	f8d2 900c 	ldr.w	r9, [r2, #12]
 e000f3e:	e789      	b.n	e000e54 <data_flash_highspeed_setup+0xe0>
 e000f40:	4b1e      	ldr	r3, [pc, #120]	; (e000fbc <data_flash_highspeed_setup+0x248>)
 e000f42:	2257      	movs	r2, #87	; 0x57
 e000f44:	4914      	ldr	r1, [pc, #80]	; (e000f98 <data_flash_highspeed_setup+0x224>)
 e000f46:	2003      	movs	r0, #3
 e000f48:	f001 fa78 	bl	e00243c <rtk_log_write>
 e000f4c:	481c      	ldr	r0, [pc, #112]	; (e000fc0 <data_flash_highspeed_setup+0x24c>)
 e000f4e:	f240 11fb 	movw	r1, #507	; 0x1fb
 e000f52:	f006 fa0d 	bl	e007370 <io_assert_failed>
 e000f56:	f8d9 0000 	ldr.w	r0, [r9]
 e000f5a:	e761      	b.n	e000e20 <data_flash_highspeed_setup+0xac>
 e000f5c:	f44f 7106 	mov.w	r1, #536	; 0x218
 e000f60:	4817      	ldr	r0, [pc, #92]	; (e000fc0 <data_flash_highspeed_setup+0x24c>)
 e000f62:	f006 fa05 	bl	e007370 <io_assert_failed>
 e000f66:	f8d9 3000 	ldr.w	r3, [r9]
 e000f6a:	691b      	ldr	r3, [r3, #16]
 e000f6c:	e76b      	b.n	e000e46 <data_flash_highspeed_setup+0xd2>
 e000f6e:	47b8      	blx	r7
 e000f70:	f8d9 0000 	ldr.w	r0, [r9]
 e000f74:	68eb      	ldr	r3, [r5, #12]
 e000f76:	e76a      	b.n	e000e4e <data_flash_highspeed_setup+0xda>
 e000f78:	2000b188 	.word	0x2000b188
 e000f7c:	00009271 	.word	0x00009271
 e000f80:	0e001239 	.word	0x0e001239
 e000f84:	0e007df0 	.word	0x0e007df0
 e000f88:	0c65d3ff 	.word	0x0c65d3ff
 e000f8c:	a530e8a5 	.word	0xa530e8a5
 e000f90:	0e007df2 	.word	0x0e007df2
 e000f94:	40127000 	.word	0x40127000
 e000f98:	0e007c24 	.word	0x0e007c24
 e000f9c:	0e007c94 	.word	0x0e007c94
 e000fa0:	2000b181 	.word	0x2000b181
 e000fa4:	00011bbd 	.word	0x00011bbd
 e000fa8:	0e001155 	.word	0x0e001155
 e000fac:	0000c219 	.word	0x0000c219
 e000fb0:	0e001221 	.word	0x0e001221
 e000fb4:	0e001229 	.word	0x0e001229
 e000fb8:	0e001231 	.word	0x0e001231
 e000fbc:	0e007ca8 	.word	0x0e007ca8
 e000fc0:	0e007ccc 	.word	0x0e007ccc
 e000fc4:	0e001051 	.word	0x0e001051
 e000fc8:	2000b184 	.word	0x2000b184

0e000fcc <DATA_FLASH_RxCmd_InUserMode>:
 e000fcc:	e92d 41f0 	stmdb	sp!, {r4, r5, r6, r7, r8, lr}
 e000fd0:	4c1b      	ldr	r4, [pc, #108]	; (e001040 <DATA_FLASH_RxCmd_InUserMode+0x74>)
 e000fd2:	4688      	mov	r8, r1
 e000fd4:	4617      	mov	r7, r2
 e000fd6:	4606      	mov	r6, r0
 e000fd8:	2200      	movs	r2, #0
 e000fda:	491a      	ldr	r1, [pc, #104]	; (e001044 <DATA_FLASH_RxCmd_InUserMode+0x78>)
 e000fdc:	4620      	mov	r0, r4
 e000fde:	4d1a      	ldr	r5, [pc, #104]	; (e001048 <DATA_FLASH_RxCmd_InUserMode+0x7c>)
 e000fe0:	47a8      	blx	r5
 e000fe2:	f8d4 3118 	ldr.w	r3, [r4, #280]	; 0x118
 e000fe6:	1e7a      	subs	r2, r7, #1
 e000fe8:	f423 2370 	bic.w	r3, r3, #983040	; 0xf0000
 e000fec:	eb02 0108 	add.w	r1, r2, r8
 e000ff0:	f8c4 3118 	str.w	r3, [r4, #280]	; 0x118
 e000ff4:	f028 437f 	bic.w	r3, r8, #4278190080	; 0xff000000
 e000ff8:	6063      	str	r3, [r4, #4]
 e000ffa:	2300      	movs	r3, #0
 e000ffc:	f8c4 3130 	str.w	r3, [r4, #304]	; 0x130
 e001000:	4b12      	ldr	r3, [pc, #72]	; (e00104c <DATA_FLASH_RxCmd_InUserMode+0x80>)
 e001002:	6820      	ldr	r0, [r4, #0]
 e001004:	4003      	ands	r3, r0
 e001006:	f443 7340 	orr.w	r3, r3, #768	; 0x300
 e00100a:	6023      	str	r3, [r4, #0]
 e00100c:	2301      	movs	r3, #1
 e00100e:	f884 6060 	strb.w	r6, [r4, #96]	; 0x60
 e001012:	60a3      	str	r3, [r4, #8]
 e001014:	e002      	b.n	e00101c <DATA_FLASH_RxCmd_InUserMode+0x50>
 e001016:	6aa3      	ldr	r3, [r4, #40]	; 0x28
 e001018:	0718      	lsls	r0, r3, #28
 e00101a:	d40c      	bmi.n	e001036 <DATA_FLASH_RxCmd_InUserMode+0x6a>
 e00101c:	428a      	cmp	r2, r1
 e00101e:	d1fa      	bne.n	e001016 <DATA_FLASH_RxCmd_InUserMode+0x4a>
 e001020:	4a07      	ldr	r2, [pc, #28]	; (e001040 <DATA_FLASH_RxCmd_InUserMode+0x74>)
 e001022:	6893      	ldr	r3, [r2, #8]
 e001024:	07db      	lsls	r3, r3, #31
 e001026:	d4fc      	bmi.n	e001022 <DATA_FLASH_RxCmd_InUserMode+0x56>
 e001028:	4906      	ldr	r1, [pc, #24]	; (e001044 <DATA_FLASH_RxCmd_InUserMode+0x78>)
 e00102a:	462b      	mov	r3, r5
 e00102c:	4804      	ldr	r0, [pc, #16]	; (e001040 <DATA_FLASH_RxCmd_InUserMode+0x74>)
 e00102e:	790a      	ldrb	r2, [r1, #4]
 e001030:	e8bd 41f0 	ldmia.w	sp!, {r4, r5, r6, r7, r8, lr}
 e001034:	4718      	bx	r3
 e001036:	f894 3060 	ldrb.w	r3, [r4, #96]	; 0x60
 e00103a:	f802 3f01 	strb.w	r3, [r2, #1]!
 e00103e:	e7ed      	b.n	e00101c <DATA_FLASH_RxCmd_InUserMode+0x50>
 e001040:	40127000 	.word	0x40127000
 e001044:	2000b188 	.word	0x2000b188
 e001048:	00009aa1 	.word	0x00009aa1
 e00104c:	fff0fcff 	.word	0xfff0fcff

0e001050 <DATA_FLASH_RxCmd>:
 e001050:	b510      	push	{r4, lr}
 e001052:	4c07      	ldr	r4, [pc, #28]	; (e001070 <DATA_FLASH_RxCmd+0x20>)
 e001054:	6823      	ldr	r3, [r4, #0]
 e001056:	f043 4300 	orr.w	r3, r3, #2147483648	; 0x80000000
 e00105a:	6023      	str	r3, [r4, #0]
 e00105c:	6823      	ldr	r3, [r4, #0]
 e00105e:	2b00      	cmp	r3, #0
 e001060:	dafc      	bge.n	e00105c <DATA_FLASH_RxCmd+0xc>
 e001062:	f7ff ffb3 	bl	e000fcc <DATA_FLASH_RxCmd_InUserMode>
 e001066:	6823      	ldr	r3, [r4, #0]
 e001068:	f023 4300 	bic.w	r3, r3, #2147483648	; 0x80000000
 e00106c:	6023      	str	r3, [r4, #0]
 e00106e:	bd10      	pop	{r4, pc}
 e001070:	40127000 	.word	0x40127000

0e001074 <DATA_FLASH_WaitBusy_InUserMode>:
 e001074:	2200      	movs	r2, #0
 e001076:	b570      	push	{r4, r5, r6, lr}
 e001078:	4613      	mov	r3, r2
 e00107a:	b082      	sub	sp, #8
 e00107c:	4e1d      	ldr	r6, [pc, #116]	; (e0010f4 <DATA_FLASH_WaitBusy_InUserMode+0x80>)
 e00107e:	4604      	mov	r4, r0
 e001080:	4d1d      	ldr	r5, [pc, #116]	; (e0010f8 <DATA_FLASH_WaitBusy_InUserMode+0x84>)
 e001082:	f88d 2007 	strb.w	r2, [sp, #7]
 e001086:	b934      	cbnz	r4, e001096 <DATA_FLASH_WaitBusy_InUserMode+0x22>
 e001088:	6aab      	ldr	r3, [r5, #40]	; 0x28
 e00108a:	f003 0301 	and.w	r3, r3, #1
 e00108e:	2b00      	cmp	r3, #0
 e001090:	d1f9      	bne.n	e001086 <DATA_FLASH_WaitBusy_InUserMode+0x12>
 e001092:	b002      	add	sp, #8
 e001094:	bd70      	pop	{r4, r5, r6, pc}
 e001096:	2c04      	cmp	r4, #4
 e001098:	d017      	beq.n	e0010ca <DATA_FLASH_WaitBusy_InUserMode+0x56>
 e00109a:	2c01      	cmp	r4, #1
 e00109c:	d01b      	beq.n	e0010d6 <DATA_FLASH_WaitBusy_InUserMode+0x62>
 e00109e:	2c03      	cmp	r4, #3
 e0010a0:	d1f5      	bne.n	e00108e <DATA_FLASH_WaitBusy_InUserMode+0x1a>
 e0010a2:	f10d 0207 	add.w	r2, sp, #7
 e0010a6:	2101      	movs	r1, #1
 e0010a8:	f896 0042 	ldrb.w	r0, [r6, #66]	; 0x42
 e0010ac:	f7ff ff8e 	bl	e000fcc <DATA_FLASH_RxCmd_InUserMode>
 e0010b0:	f89d 3007 	ldrb.w	r3, [sp, #7]
 e0010b4:	6972      	ldr	r2, [r6, #20]
 e0010b6:	4213      	tst	r3, r2
 e0010b8:	d0f3      	beq.n	e0010a2 <DATA_FLASH_WaitBusy_InUserMode+0x2e>
 e0010ba:	6932      	ldr	r2, [r6, #16]
 e0010bc:	4213      	tst	r3, r2
 e0010be:	bf14      	ite	ne
 e0010c0:	2301      	movne	r3, #1
 e0010c2:	2300      	moveq	r3, #0
 e0010c4:	2b00      	cmp	r3, #0
 e0010c6:	d1de      	bne.n	e001086 <DATA_FLASH_WaitBusy_InUserMode+0x12>
 e0010c8:	e7e3      	b.n	e001092 <DATA_FLASH_WaitBusy_InUserMode+0x1e>
 e0010ca:	68ab      	ldr	r3, [r5, #8]
 e0010cc:	f003 0301 	and.w	r3, r3, #1
 e0010d0:	2b00      	cmp	r3, #0
 e0010d2:	d1d8      	bne.n	e001086 <DATA_FLASH_WaitBusy_InUserMode+0x12>
 e0010d4:	e7dd      	b.n	e001092 <DATA_FLASH_WaitBusy_InUserMode+0x1e>
 e0010d6:	f10d 0207 	add.w	r2, sp, #7
 e0010da:	4621      	mov	r1, r4
 e0010dc:	f896 0042 	ldrb.w	r0, [r6, #66]	; 0x42
 e0010e0:	f7ff ff74 	bl	e000fcc <DATA_FLASH_RxCmd_InUserMode>
 e0010e4:	f89d 3007 	ldrb.w	r3, [sp, #7]
 e0010e8:	6932      	ldr	r2, [r6, #16]
 e0010ea:	4013      	ands	r3, r2
 e0010ec:	2b00      	cmp	r3, #0
 e0010ee:	d1ca      	bne.n	e001086 <DATA_FLASH_WaitBusy_InUserMode+0x12>
 e0010f0:	e7cf      	b.n	e001092 <DATA_FLASH_WaitBusy_InUserMode+0x1e>
 e0010f2:	bf00      	nop
 e0010f4:	2000b188 	.word	0x2000b188
 e0010f8:	40127000 	.word	0x40127000

0e0010fc <DATA_FLASH_TxCmd_InUserMode>:
 e0010fc:	4b13      	ldr	r3, [pc, #76]	; (e00114c <DATA_FLASH_TxCmd_InUserMode+0x50>)
 e0010fe:	b4f0      	push	{r4, r5, r6, r7}
 e001100:	4c13      	ldr	r4, [pc, #76]	; (e001150 <DATA_FLASH_TxCmd_InUserMode+0x54>)
 e001102:	f8d3 5118 	ldr.w	r5, [r3, #280]	; 0x118
 e001106:	681e      	ldr	r6, [r3, #0]
 e001108:	681f      	ldr	r7, [r3, #0]
 e00110a:	403c      	ands	r4, r7
 e00110c:	601c      	str	r4, [r3, #0]
 e00110e:	f8d3 4118 	ldr.w	r4, [r3, #280]	; 0x118
 e001112:	f424 2470 	bic.w	r4, r4, #983040	; 0xf0000
 e001116:	f8c3 4118 	str.w	r4, [r3, #280]	; 0x118
 e00111a:	2400      	movs	r4, #0
 e00111c:	605c      	str	r4, [r3, #4]
 e00111e:	f8c3 1130 	str.w	r1, [r3, #304]	; 0x130
 e001122:	f883 0060 	strb.w	r0, [r3, #96]	; 0x60
 e001126:	b131      	cbz	r1, e001136 <DATA_FLASH_TxCmd_InUserMode+0x3a>
 e001128:	1850      	adds	r0, r2, r1
 e00112a:	f812 1b01 	ldrb.w	r1, [r2], #1
 e00112e:	4282      	cmp	r2, r0
 e001130:	f883 1060 	strb.w	r1, [r3, #96]	; 0x60
 e001134:	d1f9      	bne.n	e00112a <DATA_FLASH_TxCmd_InUserMode+0x2e>
 e001136:	4a05      	ldr	r2, [pc, #20]	; (e00114c <DATA_FLASH_TxCmd_InUserMode+0x50>)
 e001138:	2301      	movs	r3, #1
 e00113a:	6093      	str	r3, [r2, #8]
 e00113c:	6893      	ldr	r3, [r2, #8]
 e00113e:	07db      	lsls	r3, r3, #31
 e001140:	d4fc      	bmi.n	e00113c <DATA_FLASH_TxCmd_InUserMode+0x40>
 e001142:	f8c2 5118 	str.w	r5, [r2, #280]	; 0x118
 e001146:	6016      	str	r6, [r2, #0]
 e001148:	bcf0      	pop	{r4, r5, r6, r7}
 e00114a:	4770      	bx	lr
 e00114c:	40127000 	.word	0x40127000
 e001150:	ffc0fcff 	.word	0xffc0fcff

0e001154 <DATA_FLASH_SetStatus>:
 e001154:	e92d 43f0 	stmdb	sp!, {r4, r5, r6, r7, r8, r9, lr}
 e001158:	4c2c      	ldr	r4, [pc, #176]	; (e00120c <DATA_FLASH_SetStatus+0xb8>)
 e00115a:	b083      	sub	sp, #12
 e00115c:	4606      	mov	r6, r0
 e00115e:	460f      	mov	r7, r1
 e001160:	6823      	ldr	r3, [r4, #0]
 e001162:	4690      	mov	r8, r2
 e001164:	f043 4300 	orr.w	r3, r3, #2147483648	; 0x80000000
 e001168:	6023      	str	r3, [r4, #0]
 e00116a:	6823      	ldr	r3, [r4, #0]
 e00116c:	2b00      	cmp	r3, #0
 e00116e:	dafc      	bge.n	e00116a <DATA_FLASH_SetStatus+0x16>
 e001170:	2300      	movs	r3, #0
 e001172:	4c27      	ldr	r4, [pc, #156]	; (e001210 <DATA_FLASH_SetStatus+0xbc>)
 e001174:	f88d 3007 	strb.w	r3, [sp, #7]
 e001178:	f10d 0207 	add.w	r2, sp, #7
 e00117c:	2101      	movs	r1, #1
 e00117e:	f894 0042 	ldrb.w	r0, [r4, #66]	; 0x42
 e001182:	f7ff ff23 	bl	e000fcc <DATA_FLASH_RxCmd_InUserMode>
 e001186:	f89d 3007 	ldrb.w	r3, [sp, #7]
 e00118a:	6922      	ldr	r2, [r4, #16]
 e00118c:	4013      	ands	r3, r2
 e00118e:	d1f3      	bne.n	e001178 <DATA_FLASH_SetStatus+0x24>
 e001190:	4a1e      	ldr	r2, [pc, #120]	; (e00120c <DATA_FLASH_SetStatus+0xb8>)
 e001192:	2501      	movs	r5, #1
 e001194:	491f      	ldr	r1, [pc, #124]	; (e001214 <DATA_FLASH_SetStatus+0xc0>)
 e001196:	f8d2 c118 	ldr.w	ip, [r2, #280]	; 0x118
 e00119a:	6810      	ldr	r0, [r2, #0]
 e00119c:	f8d2 9000 	ldr.w	r9, [r2]
 e0011a0:	f894 e040 	ldrb.w	lr, [r4, #64]	; 0x40
 e0011a4:	ea09 0101 	and.w	r1, r9, r1
 e0011a8:	6011      	str	r1, [r2, #0]
 e0011aa:	f8d2 1118 	ldr.w	r1, [r2, #280]	; 0x118
 e0011ae:	f421 2170 	bic.w	r1, r1, #983040	; 0xf0000
 e0011b2:	f8c2 1118 	str.w	r1, [r2, #280]	; 0x118
 e0011b6:	6053      	str	r3, [r2, #4]
 e0011b8:	f8c2 3130 	str.w	r3, [r2, #304]	; 0x130
 e0011bc:	f882 e060 	strb.w	lr, [r2, #96]	; 0x60
 e0011c0:	6095      	str	r5, [r2, #8]
 e0011c2:	6895      	ldr	r5, [r2, #8]
 e0011c4:	f015 0501 	ands.w	r5, r5, #1
 e0011c8:	d1fb      	bne.n	e0011c2 <DATA_FLASH_SetStatus+0x6e>
 e0011ca:	f8c2 c118 	str.w	ip, [r2, #280]	; 0x118
 e0011ce:	4b12      	ldr	r3, [pc, #72]	; (e001218 <DATA_FLASH_SetStatus+0xc4>)
 e0011d0:	6010      	str	r0, [r2, #0]
 e0011d2:	2003      	movs	r0, #3
 e0011d4:	4798      	blx	r3
 e0011d6:	4642      	mov	r2, r8
 e0011d8:	b2f9      	uxtb	r1, r7
 e0011da:	4630      	mov	r0, r6
 e0011dc:	4b0f      	ldr	r3, [pc, #60]	; (e00121c <DATA_FLASH_SetStatus+0xc8>)
 e0011de:	4798      	blx	r3
 e0011e0:	f88d 5007 	strb.w	r5, [sp, #7]
 e0011e4:	f10d 0207 	add.w	r2, sp, #7
 e0011e8:	2101      	movs	r1, #1
 e0011ea:	f894 0042 	ldrb.w	r0, [r4, #66]	; 0x42
 e0011ee:	f7ff feed 	bl	e000fcc <DATA_FLASH_RxCmd_InUserMode>
 e0011f2:	f89d 2007 	ldrb.w	r2, [sp, #7]
 e0011f6:	6923      	ldr	r3, [r4, #16]
 e0011f8:	421a      	tst	r2, r3
 e0011fa:	d1f3      	bne.n	e0011e4 <DATA_FLASH_SetStatus+0x90>
 e0011fc:	4a03      	ldr	r2, [pc, #12]	; (e00120c <DATA_FLASH_SetStatus+0xb8>)
 e0011fe:	6813      	ldr	r3, [r2, #0]
 e001200:	f023 4300 	bic.w	r3, r3, #2147483648	; 0x80000000
 e001204:	6013      	str	r3, [r2, #0]
 e001206:	b003      	add	sp, #12
 e001208:	e8bd 83f0 	ldmia.w	sp!, {r4, r5, r6, r7, r8, r9, pc}
 e00120c:	40127000 	.word	0x40127000
 e001210:	2000b188 	.word	0x2000b188
 e001214:	ffc0fcff 	.word	0xffc0fcff
 e001218:	0e001075 	.word	0x0e001075
 e00121c:	0e0010fd 	.word	0x0e0010fd

0e001220 <DATA_FLASH_StructInit_Micron>:
 e001220:	4b00      	ldr	r3, [pc, #0]	; (e001224 <DATA_FLASH_StructInit_Micron+0x4>)
 e001222:	4718      	bx	r3
 e001224:	0000a201 	.word	0x0000a201

0e001228 <DATA_FLASH_StructInit_MXIC>:
 e001228:	4b00      	ldr	r3, [pc, #0]	; (e00122c <DATA_FLASH_StructInit_MXIC+0x4>)
 e00122a:	4718      	bx	r3
 e00122c:	0000a26d 	.word	0x0000a26d

0e001230 <DATA_FLASH_StructInit_GD>:
 e001230:	4b00      	ldr	r3, [pc, #0]	; (e001234 <DATA_FLASH_StructInit_GD+0x4>)
 e001232:	4718      	bx	r3
 e001234:	0000a2d9 	.word	0x0000a2d9

0e001238 <DATA_FLASH_StructInit>:
 e001238:	4b00      	ldr	r3, [pc, #0]	; (e00123c <DATA_FLASH_StructInit+0x4>)
 e00123a:	4718      	bx	r3
 e00123c:	0000a34d 	.word	0x0000a34d

0e001240 <DATA_FLASH_Init>:
 e001240:	b510      	push	{r4, lr}
 e001242:	4906      	ldr	r1, [pc, #24]	; (e00125c <DATA_FLASH_Init+0x1c>)
 e001244:	4604      	mov	r4, r0
 e001246:	4b06      	ldr	r3, [pc, #24]	; (e001260 <DATA_FLASH_Init+0x20>)
 e001248:	4806      	ldr	r0, [pc, #24]	; (e001264 <DATA_FLASH_Init+0x24>)
 e00124a:	4798      	blx	r3
 e00124c:	4903      	ldr	r1, [pc, #12]	; (e00125c <DATA_FLASH_Init+0x1c>)
 e00124e:	4805      	ldr	r0, [pc, #20]	; (e001264 <DATA_FLASH_Init+0x24>)
 e001250:	4622      	mov	r2, r4
 e001252:	4b05      	ldr	r3, [pc, #20]	; (e001268 <DATA_FLASH_Init+0x28>)
 e001254:	710c      	strb	r4, [r1, #4]
 e001256:	4798      	blx	r3
 e001258:	2001      	movs	r0, #1
 e00125a:	bd10      	pop	{r4, pc}
 e00125c:	2000b188 	.word	0x2000b188
 e001260:	00009a0d 	.word	0x00009a0d
 e001264:	40127000 	.word	0x40127000
 e001268:	00009aa1 	.word	0x00009aa1

0e00126c <HANDLER_MemFault>:
 e00126c:	f3ef 8008 	mrs	r0, MSP
 e001270:	f3ef 8109 	mrs	r1, PSP
 e001274:	4672      	mov	r2, lr
 e001276:	f04f 0303 	mov.w	r3, #3
 e00127a:	e92d 0ff0 	stmdb	sp!, {r4, r5, r6, r7, r8, r9, sl, fp}
 e00127e:	f000 b825 	b.w	e0012cc <Fault_Handler>
 e001282:	4770      	bx	lr

0e001284 <HANDLER_BusFault>:
 e001284:	f3ef 8008 	mrs	r0, MSP
 e001288:	f3ef 8109 	mrs	r1, PSP
 e00128c:	4672      	mov	r2, lr
 e00128e:	f04f 0302 	mov.w	r3, #2
 e001292:	e92d 0ff0 	stmdb	sp!, {r4, r5, r6, r7, r8, r9, sl, fp}
 e001296:	f000 b819 	b.w	e0012cc <Fault_Handler>
 e00129a:	4770      	bx	lr

0e00129c <HANDLER_UsageFault>:
 e00129c:	f3ef 8008 	mrs	r0, MSP
 e0012a0:	f3ef 8109 	mrs	r1, PSP
 e0012a4:	4672      	mov	r2, lr
 e0012a6:	f04f 0301 	mov.w	r3, #1
 e0012aa:	e92d 0ff0 	stmdb	sp!, {r4, r5, r6, r7, r8, r9, sl, fp}
 e0012ae:	f000 b80d 	b.w	e0012cc <Fault_Handler>
 e0012b2:	4770      	bx	lr

0e0012b4 <HANDLER_HardFault>:
 e0012b4:	f3ef 8008 	mrs	r0, MSP
 e0012b8:	f3ef 8109 	mrs	r1, PSP
 e0012bc:	4672      	mov	r2, lr
 e0012be:	f04f 0300 	mov.w	r3, #0
 e0012c2:	e92d 0ff0 	stmdb	sp!, {r4, r5, r6, r7, r8, r9, sl, fp}
 e0012c6:	f000 b801 	b.w	e0012cc <Fault_Handler>
 e0012ca:	4770      	bx	lr

0e0012cc <Fault_Handler>:
 e0012cc:	e92d 43f0 	stmdb	sp!, {r4, r5, r6, r7, r8, r9, lr}
 e0012d0:	b095      	sub	sp, #84	; 0x54
 e0012d2:	4614      	mov	r4, r2
 e0012d4:	4605      	mov	r5, r0
 e0012d6:	2244      	movs	r2, #68	; 0x44
 e0012d8:	460e      	mov	r6, r1
 e0012da:	a803      	add	r0, sp, #12
 e0012dc:	2100      	movs	r1, #0
 e0012de:	461f      	mov	r7, r3
 e0012e0:	f006 fb92 	bl	e007a08 <____wrap_memset_veneer>
 e0012e4:	07e2      	lsls	r2, r4, #31
 e0012e6:	f004 0340 	and.w	r3, r4, #64	; 0x40
 e0012ea:	d554      	bpl.n	e001396 <Fault_Handler+0xca>
 e0012ec:	2b00      	cmp	r3, #0
 e0012ee:	d05b      	beq.n	e0013a8 <Fault_Handler+0xdc>
 e0012f0:	f004 000c 	and.w	r0, r4, #12
 e0012f4:	f04f 0800 	mov.w	r8, #0
 e0012f8:	f1a0 000c 	sub.w	r0, r0, #12
 e0012fc:	fab0 f080 	clz	r0, r0
 e001300:	0940      	lsrs	r0, r0, #5
 e001302:	f1a5 0c24 	sub.w	ip, r5, #36	; 0x24
 e001306:	ab04      	add	r3, sp, #16
 e001308:	1f29      	subs	r1, r5, #4
 e00130a:	9403      	str	r4, [sp, #12]
 e00130c:	f85c 2f04 	ldr.w	r2, [ip, #4]!
 e001310:	458c      	cmp	ip, r1
 e001312:	f843 2b04 	str.w	r2, [r3], #4
 e001316:	d1f9      	bne.n	e00130c <Fault_Handler+0x40>
 e001318:	2800      	cmp	r0, #0
 e00131a:	bf14      	ite	ne
 e00131c:	4631      	movne	r1, r6
 e00131e:	4629      	moveq	r1, r5
 e001320:	f10d 0e30 	add.w	lr, sp, #48	; 0x30
 e001324:	f1a1 0c04 	sub.w	ip, r1, #4
 e001328:	f101 021c 	add.w	r2, r1, #28
 e00132c:	f85c 3f04 	ldr.w	r3, [ip, #4]!
 e001330:	4594      	cmp	ip, r2
 e001332:	f84e 3b04 	str.w	r3, [lr], #4
 e001336:	d1f9      	bne.n	e00132c <Fault_Handler+0x60>
 e001338:	aa03      	add	r2, sp, #12
 e00133a:	6bc8      	ldr	r0, [r1, #60]	; 0x3c
 e00133c:	f004 f8ee 	bl	e00551c <crash_dump>
 e001340:	2f04      	cmp	r7, #4
 e001342:	d042      	beq.n	e0013ca <Fault_Handler+0xfe>
 e001344:	f1b8 0f00 	cmp.w	r8, #0
 e001348:	d136      	bne.n	e0013b8 <Fault_Handler+0xec>
 e00134a:	f8df 80c8 	ldr.w	r8, [pc, #200]	; e001414 <Fault_Handler+0x148>
 e00134e:	2241      	movs	r2, #65	; 0x41
 e001350:	4b28      	ldr	r3, [pc, #160]	; (e0013f4 <Fault_Handler+0x128>)
 e001352:	f8d8 0024 	ldr.w	r0, [r8, #36]	; 0x24
 e001356:	4928      	ldr	r1, [pc, #160]	; (e0013f8 <Fault_Handler+0x12c>)
 e001358:	9000      	str	r0, [sp, #0]
 e00135a:	2001      	movs	r0, #1
 e00135c:	f001 f86e 	bl	e00243c <rtk_log_write>
 e001360:	f8d8 300c 	ldr.w	r3, [r8, #12]
 e001364:	2241      	movs	r2, #65	; 0x41
 e001366:	4924      	ldr	r1, [pc, #144]	; (e0013f8 <Fault_Handler+0x12c>)
 e001368:	9300      	str	r3, [sp, #0]
 e00136a:	2001      	movs	r0, #1
 e00136c:	4b23      	ldr	r3, [pc, #140]	; (e0013fc <Fault_Handler+0x130>)
 e00136e:	f001 f865 	bl	e00243c <rtk_log_write>
 e001372:	f3ef 8314 	mrs	r3, CONTROL
 e001376:	2241      	movs	r2, #65	; 0x41
 e001378:	9300      	str	r3, [sp, #0]
 e00137a:	491f      	ldr	r1, [pc, #124]	; (e0013f8 <Fault_Handler+0x12c>)
 e00137c:	2001      	movs	r0, #1
 e00137e:	4b20      	ldr	r3, [pc, #128]	; (e001400 <Fault_Handler+0x134>)
 e001380:	f001 f85c 	bl	e00243c <rtk_log_write>
 e001384:	463b      	mov	r3, r7
 e001386:	4622      	mov	r2, r4
 e001388:	4631      	mov	r1, r6
 e00138a:	4628      	mov	r0, r5
 e00138c:	f006 fb38 	bl	e007a00 <__INT_HardFault_C_veneer>
 e001390:	b015      	add	sp, #84	; 0x54
 e001392:	e8bd 83f0 	ldmia.w	sp!, {r4, r5, r6, r7, r8, r9, pc}
 e001396:	2b00      	cmp	r3, #0
 e001398:	d0aa      	beq.n	e0012f0 <Fault_Handler+0x24>
 e00139a:	4b1a      	ldr	r3, [pc, #104]	; (e001404 <Fault_Handler+0x138>)
 e00139c:	2241      	movs	r2, #65	; 0x41
 e00139e:	4916      	ldr	r1, [pc, #88]	; (e0013f8 <Fault_Handler+0x12c>)
 e0013a0:	2001      	movs	r0, #1
 e0013a2:	f001 f84b 	bl	e00243c <rtk_log_write>
 e0013a6:	e7fe      	b.n	e0013a6 <Fault_Handler+0xda>
 e0013a8:	f3ef 8894 	mrs	r8, CONTROL_NS
 e0013ac:	f014 0008 	ands.w	r0, r4, #8
 e0013b0:	d0a7      	beq.n	e001302 <Fault_Handler+0x36>
 e0013b2:	f3c8 0040 	ubfx	r0, r8, #1, #1
 e0013b6:	e7a4      	b.n	e001302 <Fault_Handler+0x36>
 e0013b8:	4b13      	ldr	r3, [pc, #76]	; (e001408 <Fault_Handler+0x13c>)
 e0013ba:	2241      	movs	r2, #65	; 0x41
 e0013bc:	490e      	ldr	r1, [pc, #56]	; (e0013f8 <Fault_Handler+0x12c>)
 e0013be:	2001      	movs	r0, #1
 e0013c0:	f8cd 8000 	str.w	r8, [sp]
 e0013c4:	f001 f83a 	bl	e00243c <rtk_log_write>
 e0013c8:	e7bf      	b.n	e00134a <Fault_Handler+0x7e>
 e0013ca:	f8df 9048 	ldr.w	r9, [pc, #72]	; e001414 <Fault_Handler+0x148>
 e0013ce:	2241      	movs	r2, #65	; 0x41
 e0013d0:	4b0e      	ldr	r3, [pc, #56]	; (e00140c <Fault_Handler+0x140>)
 e0013d2:	f8d9 00e4 	ldr.w	r0, [r9, #228]	; 0xe4
 e0013d6:	4908      	ldr	r1, [pc, #32]	; (e0013f8 <Fault_Handler+0x12c>)
 e0013d8:	9000      	str	r0, [sp, #0]
 e0013da:	2001      	movs	r0, #1
 e0013dc:	f001 f82e 	bl	e00243c <rtk_log_write>
 e0013e0:	f8d9 30e8 	ldr.w	r3, [r9, #232]	; 0xe8
 e0013e4:	2241      	movs	r2, #65	; 0x41
 e0013e6:	4904      	ldr	r1, [pc, #16]	; (e0013f8 <Fault_Handler+0x12c>)
 e0013e8:	9300      	str	r3, [sp, #0]
 e0013ea:	2001      	movs	r0, #1
 e0013ec:	4b08      	ldr	r3, [pc, #32]	; (e001410 <Fault_Handler+0x144>)
 e0013ee:	f001 f825 	bl	e00243c <rtk_log_write>
 e0013f2:	e7a7      	b.n	e001344 <Fault_Handler+0x78>
 e0013f4:	0e007db4 	.word	0x0e007db4
 e0013f8:	0e007d6c 	.word	0x0e007d6c
 e0013fc:	0e007dc8 	.word	0x0e007dc8
 e001400:	0e007ddc 	.word	0x0e007ddc
 e001404:	0e007d20 	.word	0x0e007d20
 e001408:	0e007d9c 	.word	0x0e007d9c
 e00140c:	0e007d74 	.word	0x0e007d74
 e001410:	0e007d88 	.word	0x0e007d88
 e001414:	e000ed00 	.word	0xe000ed00

0e001418 <Fault_Hanlder_Redirect>:
 e001418:	4b07      	ldr	r3, [pc, #28]	; (e001438 <Fault_Hanlder_Redirect+0x20>)
 e00141a:	4908      	ldr	r1, [pc, #32]	; (e00143c <Fault_Hanlder_Redirect+0x24>)
 e00141c:	4a08      	ldr	r2, [pc, #32]	; (e001440 <Fault_Hanlder_Redirect+0x28>)
 e00141e:	b410      	push	{r4}
 e001420:	e9c3 1203 	strd	r1, r2, [r3, #12]
 e001424:	4c07      	ldr	r4, [pc, #28]	; (e001444 <Fault_Hanlder_Redirect+0x2c>)
 e001426:	4908      	ldr	r1, [pc, #32]	; (e001448 <Fault_Hanlder_Redirect+0x30>)
 e001428:	4a08      	ldr	r2, [pc, #32]	; (e00144c <Fault_Hanlder_Redirect+0x34>)
 e00142a:	e9c3 4105 	strd	r4, r1, [r3, #20]
 e00142e:	6010      	str	r0, [r2, #0]
 e001430:	f85d 4b04 	ldr.w	r4, [sp], #4
 e001434:	4770      	bx	lr
 e001436:	bf00      	nop
 e001438:	30007000 	.word	0x30007000
 e00143c:	0e0012b5 	.word	0x0e0012b5
 e001440:	0e00126d 	.word	0x0e00126d
 e001444:	0e001285 	.word	0x0e001285
 e001448:	0e00129d 	.word	0x0e00129d
 e00144c:	2000bd90 	.word	0x2000bd90

0e001450 <flash_init_userdef>:
 e001450:	4b15      	ldr	r3, [pc, #84]	; (e0014a8 <flash_init_userdef+0x58>)
 e001452:	2201      	movs	r2, #1
 e001454:	2140      	movs	r1, #64	; 0x40
 e001456:	f44f 6000 	mov.w	r0, #2048	; 0x800
 e00145a:	b430      	push	{r4, r5}
 e00145c:	e9c3 1203 	strd	r1, r2, [r3, #12]
 e001460:	2502      	movs	r5, #2
 e001462:	2400      	movs	r4, #0
 e001464:	f640 0104 	movw	r1, #2052	; 0x804
 e001468:	601a      	str	r2, [r3, #0]
 e00146a:	22bb      	movs	r2, #187	; 0xbb
 e00146c:	f8a3 004e 	strh.w	r0, [r3, #78]	; 0x4e
 e001470:	f8a3 1050 	strh.w	r1, [r3, #80]	; 0x50
 e001474:	203b      	movs	r0, #59	; 0x3b
 e001476:	21eb      	movs	r1, #235	; 0xeb
 e001478:	621a      	str	r2, [r3, #32]
 e00147a:	4a0c      	ldr	r2, [pc, #48]	; (e0014ac <flash_init_userdef+0x5c>)
 e00147c:	61d8      	str	r0, [r3, #28]
 e00147e:	6299      	str	r1, [r3, #40]	; 0x28
 e001480:	f64a 3120 	movw	r1, #43808	; 0xab20
 e001484:	641a      	str	r2, [r3, #64]	; 0x40
 e001486:	22b9      	movs	r2, #185	; 0xb9
 e001488:	4809      	ldr	r0, [pc, #36]	; (e0014b0 <flash_init_userdef+0x60>)
 e00148a:	f8a3 1048 	strh.w	r1, [r3, #72]	; 0x48
 e00148e:	6458      	str	r0, [r3, #68]	; 0x44
 e001490:	f883 204a 	strb.w	r2, [r3, #74]	; 0x4a
 e001494:	e9c3 5405 	strd	r5, r4, [r3, #20]
 e001498:	2406      	movs	r4, #6
 e00149a:	f883 4052 	strb.w	r4, [r3, #82]	; 0x52
 e00149e:	246b      	movs	r4, #107	; 0x6b
 e0014a0:	625c      	str	r4, [r3, #36]	; 0x24
 e0014a2:	bc30      	pop	{r4, r5}
 e0014a4:	4770      	bx	lr
 e0014a6:	bf00      	nop
 e0014a8:	20004014 	.word	0x20004014
 e0014ac:	00059f06 	.word	0x00059f06
 e0014b0:	d8600001 	.word	0xd8600001

0e0014b4 <flash_get_readmode>:
 e0014b4:	f647 73ff 	movw	r3, #32767	; 0x7fff
 e0014b8:	4298      	cmp	r0, r3
 e0014ba:	d016      	beq.n	e0014ea <flash_get_readmode+0x36>
 e0014bc:	f5b0 4f00 	cmp.w	r0, #32768	; 0x8000
 e0014c0:	d20a      	bcs.n	e0014d8 <flash_get_readmode+0x24>
 e0014c2:	f641 73ff 	movw	r3, #8191	; 0x1fff
 e0014c6:	4298      	cmp	r0, r3
 e0014c8:	d00d      	beq.n	e0014e6 <flash_get_readmode+0x32>
 e0014ca:	f643 73ff 	movw	r3, #16383	; 0x3fff
 e0014ce:	4298      	cmp	r0, r3
 e0014d0:	bf0c      	ite	eq
 e0014d2:	2002      	moveq	r0, #2
 e0014d4:	2000      	movne	r0, #0
 e0014d6:	4770      	bx	lr
 e0014d8:	f64f 73ff 	movw	r3, #65535	; 0xffff
 e0014dc:	4298      	cmp	r0, r3
 e0014de:	bf0c      	ite	eq
 e0014e0:	2004      	moveq	r0, #4
 e0014e2:	2000      	movne	r0, #0
 e0014e4:	4770      	bx	lr
 e0014e6:	2001      	movs	r0, #1
 e0014e8:	4770      	bx	lr
 e0014ea:	2003      	movs	r0, #3
 e0014ec:	4770      	bx	lr
 e0014ee:	bf00      	nop

0e0014f0 <flash_get_chip_info>:
 e0014f0:	4b09      	ldr	r3, [pc, #36]	; (e001518 <flash_get_chip_info+0x28>)
 e0014f2:	21ef      	movs	r1, #239	; 0xef
 e0014f4:	22ff      	movs	r2, #255	; 0xff
 e0014f6:	e005      	b.n	e001504 <flash_get_chip_info+0x14>
 e0014f8:	7f1a      	ldrb	r2, [r3, #28]
 e0014fa:	2aff      	cmp	r2, #255	; 0xff
 e0014fc:	d008      	beq.n	e001510 <flash_get_chip_info+0x20>
 e0014fe:	699a      	ldr	r2, [r3, #24]
 e001500:	f853 1f14 	ldr.w	r1, [r3, #20]!
 e001504:	4002      	ands	r2, r0
 e001506:	469c      	mov	ip, r3
 e001508:	428a      	cmp	r2, r1
 e00150a:	d1f5      	bne.n	e0014f8 <flash_get_chip_info+0x8>
 e00150c:	4660      	mov	r0, ip
 e00150e:	4770      	bx	lr
 e001510:	f04f 0c00 	mov.w	ip, #0
 e001514:	4660      	mov	r0, ip
 e001516:	4770      	bx	lr
 e001518:	0e007df4 	.word	0x0e007df4

0e00151c <flash_get_layout_info>:
 e00151c:	b510      	push	{r4, lr}
 e00151e:	f04f 0c00 	mov.w	ip, #0
 e001522:	4c0e      	ldr	r4, [pc, #56]	; (e00155c <flash_get_layout_info+0x40>)
 e001524:	4663      	mov	r3, ip
 e001526:	46a6      	mov	lr, r4
 e001528:	e005      	b.n	e001536 <flash_get_layout_info+0x1a>
 e00152a:	f85e 3f0c 	ldr.w	r3, [lr, #12]!
 e00152e:	f10c 0c01 	add.w	ip, ip, #1
 e001532:	2bff      	cmp	r3, #255	; 0xff
 e001534:	d010      	beq.n	e001558 <flash_get_layout_info+0x3c>
 e001536:	4298      	cmp	r0, r3
 e001538:	d1f7      	bne.n	e00152a <flash_get_layout_info+0xe>
 e00153a:	b129      	cbz	r1, e001548 <flash_get_layout_info+0x2c>
 e00153c:	eb0c 034c 	add.w	r3, ip, ip, lsl #1
 e001540:	eb04 0383 	add.w	r3, r4, r3, lsl #2
 e001544:	685b      	ldr	r3, [r3, #4]
 e001546:	600b      	str	r3, [r1, #0]
 e001548:	b132      	cbz	r2, e001558 <flash_get_layout_info+0x3c>
 e00154a:	eb0c 0c4c 	add.w	ip, ip, ip, lsl #1
 e00154e:	eb04 0c8c 	add.w	ip, r4, ip, lsl #2
 e001552:	f8dc 3008 	ldr.w	r3, [ip, #8]
 e001556:	6013      	str	r3, [r2, #0]
 e001558:	bd10      	pop	{r4, pc}
 e00155a:	bf00      	nop
 e00155c:	0e007f20 	.word	0x0e007f20

0e001560 <Flash_Write_Lock_IPC>:
 e001560:	b510      	push	{r4, lr}
 e001562:	4b15      	ldr	r3, [pc, #84]	; (e0015b8 <Flash_Write_Lock_IPC+0x58>)
 e001564:	b084      	sub	sp, #16
 e001566:	4c15      	ldr	r4, [pc, #84]	; (e0015bc <Flash_Write_Lock_IPC+0x5c>)
 e001568:	7020      	strb	r0, [r4, #0]
 e00156a:	695a      	ldr	r2, [r3, #20]
 e00156c:	03d2      	lsls	r2, r2, #15
 e00156e:	d507      	bpl.n	e001580 <Flash_Write_Lock_IPC+0x20>
 e001570:	f3bf 8f4f 	dsb	sy
 e001574:	f8c3 4268 	str.w	r4, [r3, #616]	; 0x268
 e001578:	f3bf 8f4f 	dsb	sy
 e00157c:	f3bf 8f6f 	isb	sy
 e001580:	2300      	movs	r3, #0
 e001582:	2001      	movs	r0, #1
 e001584:	466a      	mov	r2, sp
 e001586:	2104      	movs	r1, #4
 e001588:	e9cd 3400 	strd	r3, r4, [sp]
 e00158c:	e9cd 0302 	strd	r0, r3, [sp, #8]
 e001590:	f000 fa10 	bl	e0019b4 <ipc_send_message>
 e001594:	4a08      	ldr	r2, [pc, #32]	; (e0015b8 <Flash_Write_Lock_IPC+0x58>)
 e001596:	6953      	ldr	r3, [r2, #20]
 e001598:	03db      	lsls	r3, r3, #15
 e00159a:	d507      	bpl.n	e0015ac <Flash_Write_Lock_IPC+0x4c>
 e00159c:	f3bf 8f4f 	dsb	sy
 e0015a0:	f8c2 425c 	str.w	r4, [r2, #604]	; 0x25c
 e0015a4:	f3bf 8f4f 	dsb	sy
 e0015a8:	f3bf 8f6f 	isb	sy
 e0015ac:	7823      	ldrb	r3, [r4, #0]
 e0015ae:	2b00      	cmp	r3, #0
 e0015b0:	d1f1      	bne.n	e001596 <Flash_Write_Lock_IPC+0x36>
 e0015b2:	b004      	add	sp, #16
 e0015b4:	bd10      	pop	{r4, pc}
 e0015b6:	bf00      	nop
 e0015b8:	e000ed00 	.word	0xe000ed00
 e0015bc:	2000b1e0 	.word	0x2000b1e0

0e0015c0 <FLASH_Write_Lock>:
 e0015c0:	b538      	push	{r3, r4, r5, lr}
 e0015c2:	4d0d      	ldr	r5, [pc, #52]	; (e0015f8 <FLASH_Write_Lock+0x38>)
 e0015c4:	4c0d      	ldr	r4, [pc, #52]	; (e0015fc <FLASH_Write_Lock+0x3c>)
 e0015c6:	f001 fc29 	bl	e002e1c <rtos_sched_suspend>
 e0015ca:	e002      	b.n	e0015d2 <FLASH_Write_Lock+0x12>
 e0015cc:	2002      	movs	r0, #2
 e0015ce:	f000 ff35 	bl	e00243c <rtk_log_write>
 e0015d2:	f44f 717a 	mov.w	r1, #1000	; 0x3e8
 e0015d6:	2002      	movs	r0, #2
 e0015d8:	f005 fed4 	bl	e007384 <IPC_SEMTake>
 e0015dc:	2801      	cmp	r0, #1
 e0015de:	462b      	mov	r3, r5
 e0015e0:	f04f 0245 	mov.w	r2, #69	; 0x45
 e0015e4:	4621      	mov	r1, r4
 e0015e6:	d1f1      	bne.n	e0015cc <FLASH_Write_Lock+0xc>
 e0015e8:	f7ff ffba 	bl	e001560 <Flash_Write_Lock_IPC>
 e0015ec:	f7ff f896 	bl	e00071c <irq_disable_save>
 e0015f0:	4b03      	ldr	r3, [pc, #12]	; (e001600 <FLASH_Write_Lock+0x40>)
 e0015f2:	6018      	str	r0, [r3, #0]
 e0015f4:	bd38      	pop	{r3, r4, r5, pc}
 e0015f6:	bf00      	nop
 e0015f8:	0e007f80 	.word	0x0e007f80
 e0015fc:	0e007fa4 	.word	0x0e007fa4
 e001600:	2000b200 	.word	0x2000b200

0e001604 <FLASH_EraseXIP>:
 e001604:	b538      	push	{r3, r4, r5, lr}
 e001606:	4605      	mov	r5, r0
 e001608:	460c      	mov	r4, r1
 e00160a:	f7ff ffd9 	bl	e0015c0 <FLASH_Write_Lock>
 e00160e:	4b2f      	ldr	r3, [pc, #188]	; (e0016cc <FLASH_EraseXIP+0xc8>)
 e001610:	4621      	mov	r1, r4
 e001612:	4628      	mov	r0, r5
 e001614:	4798      	blx	r3
 e001616:	2d02      	cmp	r5, #2
 e001618:	d039      	beq.n	e00168e <FLASH_EraseXIP+0x8a>
 e00161a:	2d01      	cmp	r5, #1
 e00161c:	d01f      	beq.n	e00165e <FLASH_EraseXIP+0x5a>
 e00161e:	4a2c      	ldr	r2, [pc, #176]	; (e0016d0 <FLASH_EraseXIP+0xcc>)
 e001620:	6953      	ldr	r3, [r2, #20]
 e001622:	03db      	lsls	r3, r3, #15
 e001624:	d50d      	bpl.n	e001642 <FLASH_EraseXIP+0x3e>
 e001626:	f3bf 8f4f 	dsb	sy
 e00162a:	f04f 6300 	mov.w	r3, #134217728	; 0x8000000
 e00162e:	f8c2 325c 	str.w	r3, [r2, #604]	; 0x25c
 e001632:	3320      	adds	r3, #32
 e001634:	f1b3 5f80 	cmp.w	r3, #268435456	; 0x10000000
 e001638:	d1f9      	bne.n	e00162e <FLASH_EraseXIP+0x2a>
 e00163a:	f3bf 8f4f 	dsb	sy
 e00163e:	f3bf 8f6f 	isb	sy
 e001642:	2002      	movs	r0, #2
 e001644:	f7ff ff8c 	bl	e001560 <Flash_Write_Lock_IPC>
 e001648:	4b22      	ldr	r3, [pc, #136]	; (e0016d4 <FLASH_EraseXIP+0xd0>)
 e00164a:	6818      	ldr	r0, [r3, #0]
 e00164c:	f7ff f86a 	bl	e000724 <irq_enable_restore>
 e001650:	2002      	movs	r0, #2
 e001652:	f006 f9dd 	bl	e007a10 <__IPC_SEMFree_veneer>
 e001656:	e8bd 4038 	ldmia.w	sp!, {r3, r4, r5, lr}
 e00165a:	f001 bbe5 	b.w	e002e28 <rtos_sched_resume>
 e00165e:	4b1c      	ldr	r3, [pc, #112]	; (e0016d0 <FLASH_EraseXIP+0xcc>)
 e001660:	695b      	ldr	r3, [r3, #20]
 e001662:	03da      	lsls	r2, r3, #15
 e001664:	d5ed      	bpl.n	e001642 <FLASH_EraseXIP+0x3e>
 e001666:	f104 6300 	add.w	r3, r4, #134217728	; 0x8000000
 e00166a:	f014 041f 	ands.w	r4, r4, #31
 e00166e:	d029      	beq.n	e0016c4 <FLASH_EraseXIP+0xc0>
 e001670:	f023 031f 	bic.w	r3, r3, #31
 e001674:	f504 3280 	add.w	r2, r4, #65536	; 0x10000
 e001678:	f3bf 8f4f 	dsb	sy
 e00167c:	4814      	ldr	r0, [pc, #80]	; (e0016d0 <FLASH_EraseXIP+0xcc>)
 e00167e:	441a      	add	r2, r3
 e001680:	f8c0 325c 	str.w	r3, [r0, #604]	; 0x25c
 e001684:	3320      	adds	r3, #32
 e001686:	1ad1      	subs	r1, r2, r3
 e001688:	2900      	cmp	r1, #0
 e00168a:	dcf9      	bgt.n	e001680 <FLASH_EraseXIP+0x7c>
 e00168c:	e7d5      	b.n	e00163a <FLASH_EraseXIP+0x36>
 e00168e:	4b10      	ldr	r3, [pc, #64]	; (e0016d0 <FLASH_EraseXIP+0xcc>)
 e001690:	695b      	ldr	r3, [r3, #20]
 e001692:	03d9      	lsls	r1, r3, #15
 e001694:	d5d5      	bpl.n	e001642 <FLASH_EraseXIP+0x3e>
 e001696:	f104 6300 	add.w	r3, r4, #134217728	; 0x8000000
 e00169a:	f014 041f 	ands.w	r4, r4, #31
 e00169e:	d10c      	bne.n	e0016ba <FLASH_EraseXIP+0xb6>
 e0016a0:	f44f 5480 	mov.w	r4, #4096	; 0x1000
 e0016a4:	f3bf 8f4f 	dsb	sy
 e0016a8:	4909      	ldr	r1, [pc, #36]	; (e0016d0 <FLASH_EraseXIP+0xcc>)
 e0016aa:	441c      	add	r4, r3
 e0016ac:	f8c1 325c 	str.w	r3, [r1, #604]	; 0x25c
 e0016b0:	3320      	adds	r3, #32
 e0016b2:	1ae2      	subs	r2, r4, r3
 e0016b4:	2a00      	cmp	r2, #0
 e0016b6:	dcf9      	bgt.n	e0016ac <FLASH_EraseXIP+0xa8>
 e0016b8:	e7bf      	b.n	e00163a <FLASH_EraseXIP+0x36>
 e0016ba:	f023 031f 	bic.w	r3, r3, #31
 e0016be:	f504 5480 	add.w	r4, r4, #4096	; 0x1000
 e0016c2:	e7ef      	b.n	e0016a4 <FLASH_EraseXIP+0xa0>
 e0016c4:	f44f 3280 	mov.w	r2, #65536	; 0x10000
 e0016c8:	e7d6      	b.n	e001678 <FLASH_EraseXIP+0x74>
 e0016ca:	bf00      	nop
 e0016cc:	00009fe5 	.word	0x00009fe5
 e0016d0:	e000ed00 	.word	0xe000ed00
 e0016d4:	2000b200 	.word	0x2000b200

0e0016d8 <FLASH_ReadStream>:
 e0016d8:	b530      	push	{r4, r5, lr}
 e0016da:	4614      	mov	r4, r2
 e0016dc:	b083      	sub	sp, #12
 e0016de:	4605      	mov	r5, r0
 e0016e0:	460a      	mov	r2, r1
 e0016e2:	b13c      	cbz	r4, e0016f4 <FLASH_ReadStream+0x1c>
 e0016e4:	f105 6100 	add.w	r1, r5, #134217728	; 0x8000000
 e0016e8:	4620      	mov	r0, r4
 e0016ea:	4b06      	ldr	r3, [pc, #24]	; (e001704 <FLASH_ReadStream+0x2c>)
 e0016ec:	4798      	blx	r3
 e0016ee:	2001      	movs	r0, #1
 e0016f0:	b003      	add	sp, #12
 e0016f2:	bd30      	pop	{r4, r5, pc}
 e0016f4:	9101      	str	r1, [sp, #4]
 e0016f6:	f240 1119 	movw	r1, #281	; 0x119
 e0016fa:	4803      	ldr	r0, [pc, #12]	; (e001708 <FLASH_ReadStream+0x30>)
 e0016fc:	f005 fe38 	bl	e007370 <io_assert_failed>
 e001700:	9a01      	ldr	r2, [sp, #4]
 e001702:	e7ef      	b.n	e0016e4 <FLASH_ReadStream+0xc>
 e001704:	00011c1d 	.word	0x00011c1d
 e001708:	0e007fac 	.word	0x0e007fac

0e00170c <FLASH_WriteStream>:
 e00170c:	e92d 4ff8 	stmdb	sp!, {r3, r4, r5, r6, r7, r8, r9, sl, fp, lr}
 e001710:	eb00 0b01 	add.w	fp, r0, r1
 e001714:	f020 05ff 	bic.w	r5, r0, #255	; 0xff
 e001718:	4680      	mov	r8, r0
 e00171a:	4689      	mov	r9, r1
 e00171c:	f10b 33ff 	add.w	r3, fp, #4294967295	; 0xffffffff
 e001720:	4616      	mov	r6, r2
 e001722:	f023 03ff 	bic.w	r3, r3, #255	; 0xff
 e001726:	1b5b      	subs	r3, r3, r5
 e001728:	0a1b      	lsrs	r3, r3, #8
 e00172a:	1c5c      	adds	r4, r3, #1
 e00172c:	2b00      	cmp	r3, #0
 e00172e:	d071      	beq.n	e001814 <FLASH_WriteStream+0x108>
 e001730:	f505 7580 	add.w	r5, r5, #256	; 0x100
 e001734:	1a2f      	subs	r7, r5, r0
 e001736:	f7ff ff43 	bl	e0015c0 <FLASH_Write_Lock>
 e00173a:	f8df a0e8 	ldr.w	sl, [pc, #232]	; e001824 <FLASH_WriteStream+0x118>
 e00173e:	4640      	mov	r0, r8
 e001740:	e002      	b.n	e001748 <FLASH_WriteStream+0x3c>
 e001742:	b184      	cbz	r4, e001766 <FLASH_WriteStream+0x5a>
 e001744:	4628      	mov	r0, r5
 e001746:	461d      	mov	r5, r3
 e001748:	3c01      	subs	r4, #1
 e00174a:	4639      	mov	r1, r7
 e00174c:	4632      	mov	r2, r6
 e00174e:	443e      	add	r6, r7
 e001750:	47d0      	blx	sl
 e001752:	f44f 7780 	mov.w	r7, #256	; 0x100
 e001756:	2c01      	cmp	r4, #1
 e001758:	eb05 0307 	add.w	r3, r5, r7
 e00175c:	d1f1      	bne.n	e001742 <FLASH_WriteStream+0x36>
 e00175e:	ebab 0705 	sub.w	r7, fp, r5
 e001762:	465b      	mov	r3, fp
 e001764:	e7ee      	b.n	e001744 <FLASH_WriteStream+0x38>
 e001766:	4d2d      	ldr	r5, [pc, #180]	; (e00181c <FLASH_WriteStream+0x110>)
 e001768:	696b      	ldr	r3, [r5, #20]
 e00176a:	03d9      	lsls	r1, r3, #15
 e00176c:	d523      	bpl.n	e0017b6 <FLASH_WriteStream+0xaa>
 e00176e:	f108 6000 	add.w	r0, r8, #134217728	; 0x8000000
 e001772:	ea00 0309 	and.w	r3, r0, r9
 e001776:	3301      	adds	r3, #1
 e001778:	d02c      	beq.n	e0017d4 <FLASH_WriteStream+0xc8>
 e00177a:	f010 031f 	ands.w	r3, r0, #31
 e00177e:	d002      	beq.n	e001786 <FLASH_WriteStream+0x7a>
 e001780:	f020 001f 	bic.w	r0, r0, #31
 e001784:	4499      	add	r9, r3
 e001786:	f3bf 8f4f 	dsb	sy
 e00178a:	f1b9 0f00 	cmp.w	r9, #0
 e00178e:	dd0e      	ble.n	e0017ae <FLASH_WriteStream+0xa2>
 e001790:	f109 32ff 	add.w	r2, r9, #4294967295	; 0xffffffff
 e001794:	f100 0320 	add.w	r3, r0, #32
 e001798:	4920      	ldr	r1, [pc, #128]	; (e00181c <FLASH_WriteStream+0x110>)
 e00179a:	f022 021f 	bic.w	r2, r2, #31
 e00179e:	441a      	add	r2, r3
 e0017a0:	4293      	cmp	r3, r2
 e0017a2:	f8c1 025c 	str.w	r0, [r1, #604]	; 0x25c
 e0017a6:	4618      	mov	r0, r3
 e0017a8:	f103 0320 	add.w	r3, r3, #32
 e0017ac:	d1f8      	bne.n	e0017a0 <FLASH_WriteStream+0x94>
 e0017ae:	f3bf 8f4f 	dsb	sy
 e0017b2:	f3bf 8f6f 	isb	sy
 e0017b6:	2002      	movs	r0, #2
 e0017b8:	f7ff fed2 	bl	e001560 <Flash_Write_Lock_IPC>
 e0017bc:	4b18      	ldr	r3, [pc, #96]	; (e001820 <FLASH_WriteStream+0x114>)
 e0017be:	6818      	ldr	r0, [r3, #0]
 e0017c0:	f7fe ffb0 	bl	e000724 <irq_enable_restore>
 e0017c4:	2002      	movs	r0, #2
 e0017c6:	f006 f923 	bl	e007a10 <__IPC_SEMFree_veneer>
 e0017ca:	f001 fb2d 	bl	e002e28 <rtos_sched_resume>
 e0017ce:	2001      	movs	r0, #1
 e0017d0:	e8bd 8ff8 	ldmia.w	sp!, {r3, r4, r5, r6, r7, r8, r9, sl, fp, pc}
 e0017d4:	f8c5 4084 	str.w	r4, [r5, #132]	; 0x84
 e0017d8:	f3bf 8f4f 	dsb	sy
 e0017dc:	f8d5 4080 	ldr.w	r4, [r5, #128]	; 0x80
 e0017e0:	f643 76e0 	movw	r6, #16352	; 0x3fe0
 e0017e4:	f3c4 304e 	ubfx	r0, r4, #13, #15
 e0017e8:	f3c4 04c9 	ubfx	r4, r4, #3, #10
 e0017ec:	0140      	lsls	r0, r0, #5
 e0017ee:	ea00 0106 	and.w	r1, r0, r6
 e0017f2:	4623      	mov	r3, r4
 e0017f4:	ea41 7283 	orr.w	r2, r1, r3, lsl #30
 e0017f8:	3b01      	subs	r3, #1
 e0017fa:	f8c5 2260 	str.w	r2, [r5, #608]	; 0x260
 e0017fe:	1c5a      	adds	r2, r3, #1
 e001800:	d1f8      	bne.n	e0017f4 <FLASH_WriteStream+0xe8>
 e001802:	3820      	subs	r0, #32
 e001804:	f110 0f20 	cmn.w	r0, #32
 e001808:	d1f1      	bne.n	e0017ee <FLASH_WriteStream+0xe2>
 e00180a:	f3bf 8f4f 	dsb	sy
 e00180e:	f3bf 8f6f 	isb	sy
 e001812:	e7d0      	b.n	e0017b6 <FLASH_WriteStream+0xaa>
 e001814:	460f      	mov	r7, r1
 e001816:	465d      	mov	r5, fp
 e001818:	e78d      	b.n	e001736 <FLASH_WriteStream+0x2a>
 e00181a:	bf00      	nop
 e00181c:	e000ed00 	.word	0xe000ed00
 e001820:	2000b200 	.word	0x2000b200
 e001824:	00009e6d 	.word	0x00009e6d

0e001828 <ipc_table_init>:
 e001828:	e92d 4ff0 	stmdb	sp!, {r4, r5, r6, r7, r8, r9, sl, fp, lr}
 e00182c:	4b27      	ldr	r3, [pc, #156]	; (e0018cc <ipc_table_init+0xa4>)
 e00182e:	b083      	sub	sp, #12
 e001830:	4c27      	ldr	r4, [pc, #156]	; (e0018d0 <ipc_table_init+0xa8>)
 e001832:	4a28      	ldr	r2, [pc, #160]	; (e0018d4 <ipc_table_init+0xac>)
 e001834:	1b1b      	subs	r3, r3, r4
 e001836:	ea4f 0893 	mov.w	r8, r3, lsr #2
 e00183a:	2b1b      	cmp	r3, #27
 e00183c:	fba2 2808 	umull	r2, r8, r2, r8
 e001840:	d934      	bls.n	e0018ac <ipc_table_init+0x84>
 e001842:	4606      	mov	r6, r0
 e001844:	2700      	movs	r7, #0
 e001846:	f8df b094 	ldr.w	fp, [pc, #148]	; e0018dc <ipc_table_init+0xb4>
 e00184a:	f8df a094 	ldr.w	sl, [pc, #148]	; e0018e0 <ipc_table_init+0xb8>
 e00184e:	f8df 9094 	ldr.w	r9, [pc, #148]	; e0018e4 <ipc_table_init+0xbc>
 e001852:	e013      	b.n	e00187c <ipc_table_init+0x54>
 e001854:	454e      	cmp	r6, r9
 e001856:	d017      	beq.n	e001888 <ipc_table_init+0x60>
 e001858:	4630      	mov	r0, r6
 e00185a:	3510      	adds	r5, #16
 e00185c:	f000 f93e 	bl	e001adc <IPC_IERGet>
 e001860:	2301      	movs	r3, #1
 e001862:	40ab      	lsls	r3, r5
 e001864:	4203      	tst	r3, r0
 e001866:	d124      	bne.n	e0018b2 <ipc_table_init+0x8a>
 e001868:	b2e9      	uxtb	r1, r5
 e00186a:	4630      	mov	r0, r6
 e00186c:	e9d4 2303 	ldrd	r2, r3, [r4, #12]
 e001870:	f000 f960 	bl	e001b34 <IPC_INTUserHandler>
 e001874:	3701      	adds	r7, #1
 e001876:	341c      	adds	r4, #28
 e001878:	45b8      	cmp	r8, r7
 e00187a:	d917      	bls.n	e0018ac <ipc_table_init+0x84>
 e00187c:	e9d4 3505 	ldrd	r3, r5, [r4, #20]
 e001880:	2b01      	cmp	r3, #1
 e001882:	d1e7      	bne.n	e001854 <ipc_table_init+0x2c>
 e001884:	454e      	cmp	r6, r9
 e001886:	d0e7      	beq.n	e001858 <ipc_table_init+0x30>
 e001888:	4630      	mov	r0, r6
 e00188a:	f000 f927 	bl	e001adc <IPC_IERGet>
 e00188e:	2301      	movs	r3, #1
 e001890:	40ab      	lsls	r3, r5
 e001892:	4203      	tst	r3, r0
 e001894:	d10d      	bne.n	e0018b2 <ipc_table_init+0x8a>
 e001896:	3701      	adds	r7, #1
 e001898:	b2e9      	uxtb	r1, r5
 e00189a:	4630      	mov	r0, r6
 e00189c:	e9d4 2301 	ldrd	r2, r3, [r4, #4]
 e0018a0:	f000 f948 	bl	e001b34 <IPC_INTUserHandler>
 e0018a4:	45b8      	cmp	r8, r7
 e0018a6:	f104 041c 	add.w	r4, r4, #28
 e0018aa:	d8e7      	bhi.n	e00187c <ipc_table_init+0x54>
 e0018ac:	b003      	add	sp, #12
 e0018ae:	e8bd 8ff0 	ldmia.w	sp!, {r4, r5, r6, r7, r8, r9, sl, fp, pc}
 e0018b2:	f8db 3228 	ldr.w	r3, [fp, #552]	; 0x228
 e0018b6:	2249      	movs	r2, #73	; 0x49
 e0018b8:	4907      	ldr	r1, [pc, #28]	; (e0018d8 <ipc_table_init+0xb0>)
 e0018ba:	2004      	movs	r0, #4
 e0018bc:	f3c3 1381 	ubfx	r3, r3, #6, #2
 e0018c0:	9501      	str	r5, [sp, #4]
 e0018c2:	9300      	str	r3, [sp, #0]
 e0018c4:	4653      	mov	r3, sl
 e0018c6:	f000 fdb9 	bl	e00243c <rtk_log_write>
 e0018ca:	e7d3      	b.n	e001874 <ipc_table_init+0x4c>
 e0018cc:	0e009a00 	.word	0x0e009a00
 e0018d0:	0e009990 	.word	0x0e009990
 e0018d4:	24924925 	.word	0x24924925
 e0018d8:	0e008034 	.word	0x0e008034
 e0018dc:	41008000 	.word	0x41008000
 e0018e0:	0e007fec 	.word	0x0e007fec
 e0018e4:	41014080 	.word	0x41014080

0e0018e8 <IPC_TXHandler>:
 e0018e8:	4b0b      	ldr	r3, [pc, #44]	; (e001918 <IPC_TXHandler+0x30>)
 e0018ea:	b510      	push	{r4, lr}
 e0018ec:	f8d3 0228 	ldr.w	r0, [r3, #552]	; 0x228
 e0018f0:	4614      	mov	r4, r2
 e0018f2:	f3c0 1081 	ubfx	r0, r0, #6, #2
 e0018f6:	f000 f951 	bl	e001b9c <IPC_GetDevById>
 e0018fa:	2200      	movs	r2, #0
 e0018fc:	b2e1      	uxtb	r1, r4
 e0018fe:	3c10      	subs	r4, #16
 e001900:	f000 f8e0 	bl	e001ac4 <IPC_INTConfig>
 e001904:	4b05      	ldr	r3, [pc, #20]	; (e00191c <IPC_TXHandler+0x34>)
 e001906:	f853 0024 	ldr.w	r0, [r3, r4, lsl #2]
 e00190a:	b118      	cbz	r0, e001914 <IPC_TXHandler+0x2c>
 e00190c:	e8bd 4010 	ldmia.w	sp!, {r4, lr}
 e001910:	f001 b974 	b.w	e002bfc <rtos_sema_give>
 e001914:	bd10      	pop	{r4, pc}
 e001916:	bf00      	nop
 e001918:	41008000 	.word	0x41008000
 e00191c:	2000b204 	.word	0x2000b204

0e001920 <IPC_wait_idle>:
 e001920:	b5f8      	push	{r3, r4, r5, r6, r7, lr}
 e001922:	460d      	mov	r5, r1
 e001924:	4604      	mov	r4, r0
 e001926:	f7fe fef3 	bl	e000710 <CPU_InInterrupt>
 e00192a:	f105 0610 	add.w	r6, r5, #16
 e00192e:	b9b0      	cbnz	r0, e00195e <IPC_wait_idle+0x3e>
 e001930:	4b1b      	ldr	r3, [pc, #108]	; (e0019a0 <IPC_wait_idle+0x80>)
 e001932:	f853 3026 	ldr.w	r3, [r3, r6, lsl #2]
 e001936:	b193      	cbz	r3, e00195e <IPC_wait_idle+0x3e>
 e001938:	4f1a      	ldr	r7, [pc, #104]	; (e0019a4 <IPC_wait_idle+0x84>)
 e00193a:	f857 3025 	ldr.w	r3, [r7, r5, lsl #2]
 e00193e:	b1fb      	cbz	r3, e001980 <IPC_wait_idle+0x60>
 e001940:	b2f6      	uxtb	r6, r6
 e001942:	4620      	mov	r0, r4
 e001944:	2201      	movs	r2, #1
 e001946:	4631      	mov	r1, r6
 e001948:	f000 f8bc 	bl	e001ac4 <IPC_INTConfig>
 e00194c:	f04f 31ff 	mov.w	r1, #4294967295	; 0xffffffff
 e001950:	f857 0025 	ldr.w	r0, [r7, r5, lsl #2]
 e001954:	f001 f92a 	bl	e002bac <rtos_sema_take>
 e001958:	b9b8      	cbnz	r0, e00198a <IPC_wait_idle+0x6a>
 e00195a:	2000      	movs	r0, #0
 e00195c:	bdf8      	pop	{r3, r4, r5, r6, r7, pc}
 e00195e:	2101      	movs	r1, #1
 e001960:	4b11      	ldr	r3, [pc, #68]	; (e0019a8 <IPC_wait_idle+0x88>)
 e001962:	40b1      	lsls	r1, r6
 e001964:	e001      	b.n	e00196a <IPC_wait_idle+0x4a>
 e001966:	3b01      	subs	r3, #1
 e001968:	d004      	beq.n	e001974 <IPC_wait_idle+0x54>
 e00196a:	6822      	ldr	r2, [r4, #0]
 e00196c:	420a      	tst	r2, r1
 e00196e:	d1fa      	bne.n	e001966 <IPC_wait_idle+0x46>
 e001970:	2000      	movs	r0, #0
 e001972:	e7f3      	b.n	e00195c <IPC_wait_idle+0x3c>
 e001974:	480d      	ldr	r0, [pc, #52]	; (e0019ac <IPC_wait_idle+0x8c>)
 e001976:	f005 fb55 	bl	e007024 <DiagPrintf_minimal>
 e00197a:	f04f 30ff 	mov.w	r0, #4294967295	; 0xffffffff
 e00197e:	bdf8      	pop	{r3, r4, r5, r6, r7, pc}
 e001980:	eb07 0085 	add.w	r0, r7, r5, lsl #2
 e001984:	f001 f900 	bl	e002b88 <rtos_sema_create_binary>
 e001988:	e7da      	b.n	e001940 <IPC_wait_idle+0x20>
 e00198a:	4809      	ldr	r0, [pc, #36]	; (e0019b0 <IPC_wait_idle+0x90>)
 e00198c:	f005 fb4a 	bl	e007024 <DiagPrintf_minimal>
 e001990:	4620      	mov	r0, r4
 e001992:	2200      	movs	r2, #0
 e001994:	4631      	mov	r1, r6
 e001996:	f000 f895 	bl	e001ac4 <IPC_INTConfig>
 e00199a:	f06f 0001 	mvn.w	r0, #1
 e00199e:	bdf8      	pop	{r3, r4, r5, r6, r7, pc}
 e0019a0:	2000b2c4 	.word	0x2000b2c4
 e0019a4:	2000b204 	.word	0x2000b204
 e0019a8:	00989680 	.word	0x00989680
 e0019ac:	0e008038 	.word	0x0e008038
 e0019b0:	0e008050 	.word	0x0e008050

0e0019b4 <ipc_send_message>:
 e0019b4:	2801      	cmp	r0, #1
 e0019b6:	e92d 43f8 	stmdb	sp!, {r3, r4, r5, r6, r7, r8, r9, lr}
 e0019ba:	4605      	mov	r5, r0
 e0019bc:	460c      	mov	r4, r1
 e0019be:	4690      	mov	r8, r2
 e0019c0:	d903      	bls.n	e0019ca <ipc_send_message+0x16>
 e0019c2:	2191      	movs	r1, #145	; 0x91
 e0019c4:	4826      	ldr	r0, [pc, #152]	; (e001a60 <ipc_send_message+0xac>)
 e0019c6:	f005 fcd3 	bl	e007370 <io_assert_failed>
 e0019ca:	2c0f      	cmp	r4, #15
 e0019cc:	d83f      	bhi.n	e001a4e <ipc_send_message+0x9a>
 e0019ce:	f104 0710 	add.w	r7, r4, #16
 e0019d2:	f04f 0901 	mov.w	r9, #1
 e0019d6:	2100      	movs	r1, #0
 e0019d8:	4628      	mov	r0, r5
 e0019da:	f000 f8c3 	bl	e001b64 <IPC_GetDev>
 e0019de:	fa09 f707 	lsl.w	r7, r9, r7
 e0019e2:	6803      	ldr	r3, [r0, #0]
 e0019e4:	4606      	mov	r6, r0
 e0019e6:	423b      	tst	r3, r7
 e0019e8:	d129      	bne.n	e001a3e <ipc_send_message+0x8a>
 e0019ea:	f1b8 0f00 	cmp.w	r8, #0
 e0019ee:	d022      	beq.n	e001a36 <ipc_send_message+0x82>
 e0019f0:	f005 050f 	and.w	r5, r5, #15
 e0019f4:	4b1b      	ldr	r3, [pc, #108]	; (e001a64 <ipc_send_message+0xb0>)
 e0019f6:	4641      	mov	r1, r8
 e0019f8:	2210      	movs	r2, #16
 e0019fa:	eb04 1405 	add.w	r4, r4, r5, lsl #4
 e0019fe:	eb03 1404 	add.w	r4, r3, r4, lsl #4
 e001a02:	4620      	mov	r0, r4
 e001a04:	f005 fff8 	bl	e0079f8 <____wrap_memcpy_veneer>
 e001a08:	4b17      	ldr	r3, [pc, #92]	; (e001a68 <ipc_send_message+0xb4>)
 e001a0a:	695b      	ldr	r3, [r3, #20]
 e001a0c:	03db      	lsls	r3, r3, #15
 e001a0e:	d512      	bpl.n	e001a36 <ipc_send_message+0x82>
 e001a10:	f014 011f 	ands.w	r1, r4, #31
 e001a14:	4623      	mov	r3, r4
 e001a16:	d11f      	bne.n	e001a58 <ipc_send_message+0xa4>
 e001a18:	2110      	movs	r1, #16
 e001a1a:	f3bf 8f4f 	dsb	sy
 e001a1e:	4812      	ldr	r0, [pc, #72]	; (e001a68 <ipc_send_message+0xb4>)
 e001a20:	4419      	add	r1, r3
 e001a22:	f8c0 3268 	str.w	r3, [r0, #616]	; 0x268
 e001a26:	3320      	adds	r3, #32
 e001a28:	1aca      	subs	r2, r1, r3
 e001a2a:	2a00      	cmp	r2, #0
 e001a2c:	dcf9      	bgt.n	e001a22 <ipc_send_message+0x6e>
 e001a2e:	f3bf 8f4f 	dsb	sy
 e001a32:	f3bf 8f6f 	isb	sy
 e001a36:	2000      	movs	r0, #0
 e001a38:	6037      	str	r7, [r6, #0]
 e001a3a:	e8bd 83f8 	ldmia.w	sp!, {r3, r4, r5, r6, r7, r8, r9, pc}
 e001a3e:	4621      	mov	r1, r4
 e001a40:	f7ff ff6e 	bl	e001920 <IPC_wait_idle>
 e001a44:	2800      	cmp	r0, #0
 e001a46:	d0d0      	beq.n	e0019ea <ipc_send_message+0x36>
 e001a48:	4648      	mov	r0, r9
 e001a4a:	e8bd 83f8 	ldmia.w	sp!, {r3, r4, r5, r6, r7, r8, r9, pc}
 e001a4e:	2192      	movs	r1, #146	; 0x92
 e001a50:	4803      	ldr	r0, [pc, #12]	; (e001a60 <ipc_send_message+0xac>)
 e001a52:	f005 fc8d 	bl	e007370 <io_assert_failed>
 e001a56:	e7ba      	b.n	e0019ce <ipc_send_message+0x1a>
 e001a58:	f024 031f 	bic.w	r3, r4, #31
 e001a5c:	3110      	adds	r1, #16
 e001a5e:	e7dc      	b.n	e001a1a <ipc_send_message+0x66>
 e001a60:	0e008070 	.word	0x0e008070
 e001a64:	20004e00 	.word	0x20004e00
 e001a68:	e000ed00 	.word	0xe000ed00

0e001a6c <ipc_get_message>:
 e001a6c:	4a13      	ldr	r2, [pc, #76]	; (e001abc <ipc_get_message+0x50>)
 e001a6e:	f000 000f 	and.w	r0, r0, #15
 e001a72:	4b13      	ldr	r3, [pc, #76]	; (e001ac0 <ipc_get_message+0x54>)
 e001a74:	6952      	ldr	r2, [r2, #20]
 e001a76:	eb01 1000 	add.w	r0, r1, r0, lsl #4
 e001a7a:	eb03 1000 	add.w	r0, r3, r0, lsl #4
 e001a7e:	03d3      	lsls	r3, r2, #15
 e001a80:	d51a      	bpl.n	e001ab8 <ipc_get_message+0x4c>
 e001a82:	f010 011f 	ands.w	r1, r0, #31
 e001a86:	4603      	mov	r3, r0
 e001a88:	b410      	push	{r4}
 e001a8a:	d111      	bne.n	e001ab0 <ipc_get_message+0x44>
 e001a8c:	2110      	movs	r1, #16
 e001a8e:	f3bf 8f4f 	dsb	sy
 e001a92:	4c0a      	ldr	r4, [pc, #40]	; (e001abc <ipc_get_message+0x50>)
 e001a94:	4419      	add	r1, r3
 e001a96:	f8c4 325c 	str.w	r3, [r4, #604]	; 0x25c
 e001a9a:	3320      	adds	r3, #32
 e001a9c:	1aca      	subs	r2, r1, r3
 e001a9e:	2a00      	cmp	r2, #0
 e001aa0:	dcf9      	bgt.n	e001a96 <ipc_get_message+0x2a>
 e001aa2:	f3bf 8f4f 	dsb	sy
 e001aa6:	f3bf 8f6f 	isb	sy
 e001aaa:	f85d 4b04 	ldr.w	r4, [sp], #4
 e001aae:	4770      	bx	lr
 e001ab0:	f020 031f 	bic.w	r3, r0, #31
 e001ab4:	3110      	adds	r1, #16
 e001ab6:	e7ea      	b.n	e001a8e <ipc_get_message+0x22>
 e001ab8:	4770      	bx	lr
 e001aba:	bf00      	nop
 e001abc:	e000ed00 	.word	0xe000ed00
 e001ac0:	20004e00 	.word	0x20004e00

0e001ac4 <IPC_INTConfig>:
 e001ac4:	2301      	movs	r3, #1
 e001ac6:	fa03 f101 	lsl.w	r1, r3, r1
 e001aca:	429a      	cmp	r2, r3
 e001acc:	6883      	ldr	r3, [r0, #8]
 e001ace:	bf0c      	ite	eq
 e001ad0:	4319      	orreq	r1, r3
 e001ad2:	ea23 0101 	bicne.w	r1, r3, r1
 e001ad6:	6081      	str	r1, [r0, #8]
 e001ad8:	4770      	bx	lr
 e001ada:	bf00      	nop

0e001adc <IPC_IERGet>:
 e001adc:	6880      	ldr	r0, [r0, #8]
 e001ade:	4770      	bx	lr

0e001ae0 <IPC_INTHandler>:
 e001ae0:	e92d 47f0 	stmdb	sp!, {r4, r5, r6, r7, r8, r9, sl, lr}
 e001ae4:	2400      	movs	r4, #0
 e001ae6:	2701      	movs	r7, #1
 e001ae8:	f8df 9040 	ldr.w	r9, [pc, #64]	; e001b2c <IPC_INTHandler+0x4c>
 e001aec:	4680      	mov	r8, r0
 e001aee:	f8df a040 	ldr.w	sl, [pc, #64]	; e001b30 <IPC_INTHandler+0x50>
 e001af2:	6846      	ldr	r6, [r0, #4]
 e001af4:	e007      	b.n	e001b06 <IPC_INTHandler+0x26>
 e001af6:	f85a 0024 	ldr.w	r0, [sl, r4, lsl #2]
 e001afa:	4798      	blx	r3
 e001afc:	f8c8 5004 	str.w	r5, [r8, #4]
 e001b00:	3401      	adds	r4, #1
 e001b02:	2c20      	cmp	r4, #32
 e001b04:	d00e      	beq.n	e001b24 <IPC_INTHandler+0x44>
 e001b06:	fa07 f504 	lsl.w	r5, r7, r4
 e001b0a:	4235      	tst	r5, r6
 e001b0c:	d0f8      	beq.n	e001b00 <IPC_INTHandler+0x20>
 e001b0e:	f859 3024 	ldr.w	r3, [r9, r4, lsl #2]
 e001b12:	4622      	mov	r2, r4
 e001b14:	4631      	mov	r1, r6
 e001b16:	2b00      	cmp	r3, #0
 e001b18:	d1ed      	bne.n	e001af6 <IPC_INTHandler+0x16>
 e001b1a:	3401      	adds	r4, #1
 e001b1c:	f8c8 5004 	str.w	r5, [r8, #4]
 e001b20:	2c20      	cmp	r4, #32
 e001b22:	d1f0      	bne.n	e001b06 <IPC_INTHandler+0x26>
 e001b24:	2000      	movs	r0, #0
 e001b26:	e8bd 87f0 	ldmia.w	sp!, {r4, r5, r6, r7, r8, r9, sl, pc}
 e001b2a:	bf00      	nop
 e001b2c:	2000b2c4 	.word	0x2000b2c4
 e001b30:	2000b244 	.word	0x2000b244

0e001b34 <IPC_INTUserHandler>:
 e001b34:	b18a      	cbz	r2, e001b5a <IPC_INTUserHandler+0x26>
 e001b36:	290f      	cmp	r1, #15
 e001b38:	b410      	push	{r4}
 e001b3a:	4c08      	ldr	r4, [pc, #32]	; (e001b5c <IPC_INTUserHandler+0x28>)
 e001b3c:	f844 2021 	str.w	r2, [r4, r1, lsl #2]
 e001b40:	4a07      	ldr	r2, [pc, #28]	; (e001b60 <IPC_INTUserHandler+0x2c>)
 e001b42:	f842 3021 	str.w	r3, [r2, r1, lsl #2]
 e001b46:	d805      	bhi.n	e001b54 <IPC_INTUserHandler+0x20>
 e001b48:	2301      	movs	r3, #1
 e001b4a:	6882      	ldr	r2, [r0, #8]
 e001b4c:	fa03 f101 	lsl.w	r1, r3, r1
 e001b50:	4311      	orrs	r1, r2
 e001b52:	6081      	str	r1, [r0, #8]
 e001b54:	f85d 4b04 	ldr.w	r4, [sp], #4
 e001b58:	4770      	bx	lr
 e001b5a:	4770      	bx	lr
 e001b5c:	2000b2c4 	.word	0x2000b2c4
 e001b60:	2000b244 	.word	0x2000b244

0e001b64 <IPC_GetDev>:
 e001b64:	2801      	cmp	r0, #1
 e001b66:	b510      	push	{r4, lr}
 e001b68:	460c      	mov	r4, r1
 e001b6a:	d808      	bhi.n	e001b7e <IPC_GetDev+0x1a>
 e001b6c:	b119      	cbz	r1, e001b76 <IPC_GetDev+0x12>
 e001b6e:	2801      	cmp	r0, #1
 e001b70:	d103      	bne.n	e001b7a <IPC_GetDev+0x16>
 e001b72:	4807      	ldr	r0, [pc, #28]	; (e001b90 <IPC_GetDev+0x2c>)
 e001b74:	bd10      	pop	{r4, pc}
 e001b76:	2801      	cmp	r0, #1
 e001b78:	d1fb      	bne.n	e001b72 <IPC_GetDev+0xe>
 e001b7a:	4806      	ldr	r0, [pc, #24]	; (e001b94 <IPC_GetDev+0x30>)
 e001b7c:	bd10      	pop	{r4, pc}
 e001b7e:	21a6      	movs	r1, #166	; 0xa6
 e001b80:	4805      	ldr	r0, [pc, #20]	; (e001b98 <IPC_GetDev+0x34>)
 e001b82:	f005 fbf5 	bl	e007370 <io_assert_failed>
 e001b86:	2c00      	cmp	r4, #0
 e001b88:	d0f3      	beq.n	e001b72 <IPC_GetDev+0xe>
 e001b8a:	4802      	ldr	r0, [pc, #8]	; (e001b94 <IPC_GetDev+0x30>)
 e001b8c:	e7f6      	b.n	e001b7c <IPC_GetDev+0x18>
 e001b8e:	bf00      	nop
 e001b90:	41014000 	.word	0x41014000
 e001b94:	41014080 	.word	0x41014080
 e001b98:	0e0080ac 	.word	0x0e0080ac

0e001b9c <IPC_GetDevById>:
 e001b9c:	4a03      	ldr	r2, [pc, #12]	; (e001bac <IPC_GetDevById+0x10>)
 e001b9e:	4b04      	ldr	r3, [pc, #16]	; (e001bb0 <IPC_GetDevById+0x14>)
 e001ba0:	2800      	cmp	r0, #0
 e001ba2:	bf14      	ite	ne
 e001ba4:	4610      	movne	r0, r2
 e001ba6:	4618      	moveq	r0, r3
 e001ba8:	4770      	bx	lr
 e001baa:	bf00      	nop
 e001bac:	41014080 	.word	0x41014080
 e001bb0:	41014000 	.word	0x41014000

0e001bb4 <mpu_init>:
 e001bb4:	f3bf 8f5f 	dmb	sy
 e001bb8:	4b0f      	ldr	r3, [pc, #60]	; (e001bf8 <mpu_init+0x44>)
 e001bba:	2100      	movs	r1, #0
 e001bbc:	480f      	ldr	r0, [pc, #60]	; (e001bfc <mpu_init+0x48>)
 e001bbe:	f8d3 2094 	ldr.w	r2, [r3, #148]	; 0x94
 e001bc2:	f022 0201 	bic.w	r2, r2, #1
 e001bc6:	f8c3 2094 	str.w	r2, [r3, #148]	; 0x94
 e001bca:	f8c3 1094 	str.w	r1, [r3, #148]	; 0x94
 e001bce:	f8c3 00c0 	str.w	r0, [r3, #192]	; 0xc0
 e001bd2:	f8c3 10c4 	str.w	r1, [r3, #196]	; 0xc4
 e001bd6:	f8d3 2094 	ldr.w	r2, [r3, #148]	; 0x94
 e001bda:	f042 0204 	orr.w	r2, r2, #4
 e001bde:	f8c3 2094 	str.w	r2, [r3, #148]	; 0x94
 e001be2:	f8d3 2094 	ldr.w	r2, [r3, #148]	; 0x94
 e001be6:	f042 0201 	orr.w	r2, r2, #1
 e001bea:	f8c3 2094 	str.w	r2, [r3, #148]	; 0x94
 e001bee:	f3bf 8f4f 	dsb	sy
 e001bf2:	f3bf 8f6f 	isb	sy
 e001bf6:	4770      	bx	lr
 e001bf8:	e000ed00 	.word	0xe000ed00
 e001bfc:	00772244 	.word	0x00772244

0e001c00 <mpu_region_cfg>:
 e001c00:	2807      	cmp	r0, #7
 e001c02:	b530      	push	{r4, r5, lr}
 e001c04:	4605      	mov	r5, r0
 e001c06:	b083      	sub	sp, #12
 e001c08:	460c      	mov	r4, r1
 e001c0a:	d83c      	bhi.n	e001c86 <mpu_region_cfg+0x86>
 e001c0c:	6822      	ldr	r2, [r4, #0]
 e001c0e:	06d1      	lsls	r1, r2, #27
 e001c10:	d140      	bne.n	e001c94 <mpu_region_cfg+0x94>
 e001c12:	6861      	ldr	r1, [r4, #4]
 e001c14:	06cb      	lsls	r3, r1, #27
 e001c16:	d14b      	bne.n	e001cb0 <mpu_region_cfg+0xb0>
 e001c18:	6822      	ldr	r2, [r4, #0]
 e001c1a:	3a01      	subs	r2, #1
 e001c1c:	440a      	add	r2, r1
 e001c1e:	f3bf 8f5f 	dmb	sy
 e001c22:	4b2a      	ldr	r3, [pc, #168]	; (e001ccc <mpu_region_cfg+0xcc>)
 e001c24:	f022 0c1f 	bic.w	ip, r2, #31
 e001c28:	f8d3 2094 	ldr.w	r2, [r3, #148]	; 0x94
 e001c2c:	f022 0201 	bic.w	r2, r2, #1
 e001c30:	f8c3 2094 	str.w	r2, [r3, #148]	; 0x94
 e001c34:	f8c3 5098 	str.w	r5, [r3, #152]	; 0x98
 e001c38:	6821      	ldr	r1, [r4, #0]
 e001c3a:	7aa2      	ldrb	r2, [r4, #10]
 e001c3c:	f021 011f 	bic.w	r1, r1, #31
 e001c40:	4311      	orrs	r1, r2
 e001c42:	7a62      	ldrb	r2, [r4, #9]
 e001c44:	4311      	orrs	r1, r2
 e001c46:	7a22      	ldrb	r2, [r4, #8]
 e001c48:	4311      	orrs	r1, r2
 e001c4a:	f8c3 109c 	str.w	r1, [r3, #156]	; 0x9c
 e001c4e:	7ae2      	ldrb	r2, [r4, #11]
 e001c50:	0052      	lsls	r2, r2, #1
 e001c52:	f002 020e 	and.w	r2, r2, #14
 e001c56:	ea42 020c 	orr.w	r2, r2, ip
 e001c5a:	f042 0201 	orr.w	r2, r2, #1
 e001c5e:	f8c3 20a0 	str.w	r2, [r3, #160]	; 0xa0
 e001c62:	f8d3 2094 	ldr.w	r2, [r3, #148]	; 0x94
 e001c66:	f042 0201 	orr.w	r2, r2, #1
 e001c6a:	f8c3 2094 	str.w	r2, [r3, #148]	; 0x94
 e001c6e:	f8d3 2094 	ldr.w	r2, [r3, #148]	; 0x94
 e001c72:	f042 0201 	orr.w	r2, r2, #1
 e001c76:	f8c3 2094 	str.w	r2, [r3, #148]	; 0x94
 e001c7a:	f3bf 8f4f 	dsb	sy
 e001c7e:	f3bf 8f6f 	isb	sy
 e001c82:	b003      	add	sp, #12
 e001c84:	bd30      	pop	{r4, r5, pc}
 e001c86:	216a      	movs	r1, #106	; 0x6a
 e001c88:	4811      	ldr	r0, [pc, #68]	; (e001cd0 <mpu_region_cfg+0xd0>)
 e001c8a:	f005 fb71 	bl	e007370 <io_assert_failed>
 e001c8e:	6822      	ldr	r2, [r4, #0]
 e001c90:	06d1      	lsls	r1, r2, #27
 e001c92:	d0be      	beq.n	e001c12 <mpu_region_cfg+0x12>
 e001c94:	4b0f      	ldr	r3, [pc, #60]	; (e001cd4 <mpu_region_cfg+0xd4>)
 e001c96:	2003      	movs	r0, #3
 e001c98:	490f      	ldr	r1, [pc, #60]	; (e001cd8 <mpu_region_cfg+0xd8>)
 e001c9a:	9200      	str	r2, [sp, #0]
 e001c9c:	2257      	movs	r2, #87	; 0x57
 e001c9e:	f000 fbcd 	bl	e00243c <rtk_log_write>
 e001ca2:	216f      	movs	r1, #111	; 0x6f
 e001ca4:	480a      	ldr	r0, [pc, #40]	; (e001cd0 <mpu_region_cfg+0xd0>)
 e001ca6:	f005 fb63 	bl	e007370 <io_assert_failed>
 e001caa:	6861      	ldr	r1, [r4, #4]
 e001cac:	06cb      	lsls	r3, r1, #27
 e001cae:	d0b3      	beq.n	e001c18 <mpu_region_cfg+0x18>
 e001cb0:	4b0a      	ldr	r3, [pc, #40]	; (e001cdc <mpu_region_cfg+0xdc>)
 e001cb2:	2257      	movs	r2, #87	; 0x57
 e001cb4:	2003      	movs	r0, #3
 e001cb6:	9100      	str	r1, [sp, #0]
 e001cb8:	4907      	ldr	r1, [pc, #28]	; (e001cd8 <mpu_region_cfg+0xd8>)
 e001cba:	f000 fbbf 	bl	e00243c <rtk_log_write>
 e001cbe:	2174      	movs	r1, #116	; 0x74
 e001cc0:	4803      	ldr	r0, [pc, #12]	; (e001cd0 <mpu_region_cfg+0xd0>)
 e001cc2:	f005 fb55 	bl	e007370 <io_assert_failed>
 e001cc6:	6861      	ldr	r1, [r4, #4]
 e001cc8:	e7a6      	b.n	e001c18 <mpu_region_cfg+0x18>
 e001cca:	bf00      	nop
 e001ccc:	e000ed00 	.word	0xe000ed00
 e001cd0:	0e0080e8 	.word	0x0e0080e8
 e001cd4:	0e008124 	.word	0x0e008124
 e001cd8:	0e008158 	.word	0x0e008158
 e001cdc:	0e00815c 	.word	0x0e00815c

0e001ce0 <mpu_entry_alloc>:
 e001ce0:	4a07      	ldr	r2, [pc, #28]	; (e001d00 <mpu_entry_alloc+0x20>)
 e001ce2:	2300      	movs	r3, #0
 e001ce4:	f812 1f01 	ldrb.w	r1, [r2, #1]!
 e001ce8:	b121      	cbz	r1, e001cf4 <mpu_entry_alloc+0x14>
 e001cea:	3301      	adds	r3, #1
 e001cec:	2b08      	cmp	r3, #8
 e001cee:	d1f9      	bne.n	e001ce4 <mpu_entry_alloc+0x4>
 e001cf0:	20ff      	movs	r0, #255	; 0xff
 e001cf2:	4770      	bx	lr
 e001cf4:	4a03      	ldr	r2, [pc, #12]	; (e001d04 <mpu_entry_alloc+0x24>)
 e001cf6:	2101      	movs	r1, #1
 e001cf8:	b2d8      	uxtb	r0, r3
 e001cfa:	54d1      	strb	r1, [r2, r3]
 e001cfc:	4770      	bx	lr
 e001cfe:	bf00      	nop
 e001d00:	2000b343 	.word	0x2000b343
 e001d04:	2000b344 	.word	0x2000b344

0e001d08 <ota_get_cur_index>:
 e001d08:	eb00 0140 	add.w	r1, r0, r0, lsl #1
 e001d0c:	b5f8      	push	{r3, r4, r5, r6, r7, lr}
 e001d0e:	0089      	lsls	r1, r1, #2
 e001d10:	4b1b      	ldr	r3, [pc, #108]	; (e001d80 <ota_get_cur_index+0x78>)
 e001d12:	4e1c      	ldr	r6, [pc, #112]	; (e001d84 <ota_get_cur_index+0x7c>)
 e001d14:	4604      	mov	r4, r0
 e001d16:	440b      	add	r3, r1
 e001d18:	f856 7030 	ldr.w	r7, [r6, r0, lsl #3]
 e001d1c:	f8d3 5108 	ldr.w	r5, [r3, #264]	; 0x108
 e001d20:	b17f      	cbz	r7, e001d42 <ota_get_cur_index+0x3a>
 e001d22:	f015 0001 	ands.w	r0, r5, #1
 e001d26:	d00b      	beq.n	e001d40 <ota_get_cur_index+0x38>
 e001d28:	0a6d      	lsrs	r5, r5, #9
 e001d2a:	2c01      	cmp	r4, #1
 e001d2c:	ea4f 1545 	mov.w	r5, r5, lsl #5
 e001d30:	d01e      	beq.n	e001d70 <ota_get_cur_index+0x68>
 e001d32:	f5a5 5580 	sub.w	r5, r5, #4096	; 0x1000
 e001d36:	f856 0034 	ldr.w	r0, [r6, r4, lsl #3]
 e001d3a:	1b40      	subs	r0, r0, r5
 e001d3c:	bf18      	it	ne
 e001d3e:	2001      	movne	r0, #1
 e001d40:	bdf8      	pop	{r3, r4, r5, r6, r7, pc}
 e001d42:	463a      	mov	r2, r7
 e001d44:	4631      	mov	r1, r6
 e001d46:	4638      	mov	r0, r7
 e001d48:	f7ff fbe8 	bl	e00151c <flash_get_layout_info>
 e001d4c:	463a      	mov	r2, r7
 e001d4e:	1d31      	adds	r1, r6, #4
 e001d50:	2001      	movs	r0, #1
 e001d52:	f7ff fbe3 	bl	e00151c <flash_get_layout_info>
 e001d56:	463a      	mov	r2, r7
 e001d58:	f106 0108 	add.w	r1, r6, #8
 e001d5c:	2002      	movs	r0, #2
 e001d5e:	f7ff fbdd 	bl	e00151c <flash_get_layout_info>
 e001d62:	463a      	mov	r2, r7
 e001d64:	f106 010c 	add.w	r1, r6, #12
 e001d68:	2003      	movs	r0, #3
 e001d6a:	f7ff fbd7 	bl	e00151c <flash_get_layout_info>
 e001d6e:	e7d8      	b.n	e001d22 <ota_get_cur_index+0x1a>
 e001d70:	f5a5 5500 	sub.w	r5, r5, #8192	; 0x2000
 e001d74:	68b0      	ldr	r0, [r6, #8]
 e001d76:	1b40      	subs	r0, r0, r5
 e001d78:	bf18      	it	ne
 e001d7a:	2001      	movne	r0, #1
 e001d7c:	bdf8      	pop	{r3, r4, r5, r6, r7, pc}
 e001d7e:	bf00      	nop
 e001d80:	41104000 	.word	0x41104000
 e001d84:	2000b34c 	.word	0x2000b34c

0e001d88 <pmc_wakeuptimer_int_hdl>:
 e001d88:	4a03      	ldr	r2, [pc, #12]	; (e001d98 <pmc_wakeuptimer_int_hdl+0x10>)
 e001d8a:	2001      	movs	r0, #1
 e001d8c:	6893      	ldr	r3, [r2, #8]
 e001d8e:	f043 0304 	orr.w	r3, r3, #4
 e001d92:	6093      	str	r3, [r2, #8]
 e001d94:	4770      	bx	lr
 e001d96:	bf00      	nop
 e001d98:	41016000 	.word	0x41016000

0e001d9c <pmu_register_sleep_callback>:
 e001d9c:	2805      	cmp	r0, #5
 e001d9e:	e92d 41f0 	stmdb	sp!, {r4, r5, r6, r7, r8, lr}
 e001da2:	4605      	mov	r5, r0
 e001da4:	460f      	mov	r7, r1
 e001da6:	4690      	mov	r8, r2
 e001da8:	461e      	mov	r6, r3
 e001daa:	d810      	bhi.n	e001dce <pmu_register_sleep_callback+0x32>
 e001dac:	ea57 0306 	orrs.w	r3, r7, r6
 e001db0:	d014      	beq.n	e001ddc <pmu_register_sleep_callback+0x40>
 e001db2:	4c0d      	ldr	r4, [pc, #52]	; (e001de8 <pmu_register_sleep_callback+0x4c>)
 e001db4:	eb05 0085 	add.w	r0, r5, r5, lsl #2
 e001db8:	9b06      	ldr	r3, [sp, #24]
 e001dba:	f844 5020 	str.w	r5, [r4, r0, lsl #2]
 e001dbe:	eb04 0080 	add.w	r0, r4, r0, lsl #2
 e001dc2:	e9c0 7801 	strd	r7, r8, [r0, #4]
 e001dc6:	60c6      	str	r6, [r0, #12]
 e001dc8:	6103      	str	r3, [r0, #16]
 e001dca:	e8bd 81f0 	ldmia.w	sp!, {r4, r5, r6, r7, r8, pc}
 e001dce:	2158      	movs	r1, #88	; 0x58
 e001dd0:	4806      	ldr	r0, [pc, #24]	; (e001dec <pmu_register_sleep_callback+0x50>)
 e001dd2:	f005 facd 	bl	e007370 <io_assert_failed>
 e001dd6:	ea57 0306 	orrs.w	r3, r7, r6
 e001dda:	d1ea      	bne.n	e001db2 <pmu_register_sleep_callback+0x16>
 e001ddc:	2159      	movs	r1, #89	; 0x59
 e001dde:	4803      	ldr	r0, [pc, #12]	; (e001dec <pmu_register_sleep_callback+0x50>)
 e001de0:	f005 fac6 	bl	e007370 <io_assert_failed>
 e001de4:	e7e5      	b.n	e001db2 <pmu_register_sleep_callback+0x16>
 e001de6:	bf00      	nop
 e001de8:	2000b35c 	.word	0x2000b35c
 e001dec:	0e008190 	.word	0x0e008190

0e001df0 <pmu_yield_os_check>:
 e001df0:	4b01      	ldr	r3, [pc, #4]	; (e001df8 <pmu_yield_os_check+0x8>)
 e001df2:	6818      	ldr	r0, [r3, #0]
 e001df4:	4770      	bx	lr
 e001df6:	bf00      	nop
 e001df8:	2000b024 	.word	0x2000b024

0e001dfc <pmu_ready_to_sleep>:
 e001dfc:	4b06      	ldr	r3, [pc, #24]	; (e001e18 <pmu_ready_to_sleep+0x1c>)
 e001dfe:	6818      	ldr	r0, [r3, #0]
 e001e00:	f410 7080 	ands.w	r0, r0, #256	; 0x100
 e001e04:	d006      	beq.n	e001e14 <pmu_ready_to_sleep+0x18>
 e001e06:	4905      	ldr	r1, [pc, #20]	; (e001e1c <pmu_ready_to_sleep+0x20>)
 e001e08:	68da      	ldr	r2, [r3, #12]
 e001e0a:	680b      	ldr	r3, [r1, #0]
 e001e0c:	4313      	orrs	r3, r2
 e001e0e:	bf0c      	ite	eq
 e001e10:	2001      	moveq	r0, #1
 e001e12:	2000      	movne	r0, #0
 e001e14:	4770      	bx	lr
 e001e16:	bf00      	nop
 e001e18:	41016000 	.word	0x41016000
 e001e1c:	2000b028 	.word	0x2000b028

0e001e20 <pmu_set_sleep_type>:
 e001e20:	4602      	mov	r2, r0
 e001e22:	4b02      	ldr	r3, [pc, #8]	; (e001e2c <pmu_set_sleep_type+0xc>)
 e001e24:	2000      	movs	r0, #0
 e001e26:	601a      	str	r2, [r3, #0]
 e001e28:	4770      	bx	lr
 e001e2a:	bf00      	nop
 e001e2c:	2000b3d4 	.word	0x2000b3d4

0e001e30 <pmu_init_wakeup_timer>:
 e001e30:	2200      	movs	r2, #0
 e001e32:	2306      	movs	r3, #6
 e001e34:	2116      	movs	r1, #22
 e001e36:	4806      	ldr	r0, [pc, #24]	; (e001e50 <pmu_init_wakeup_timer+0x20>)
 e001e38:	b510      	push	{r4, lr}
 e001e3a:	4c06      	ldr	r4, [pc, #24]	; (e001e54 <pmu_init_wakeup_timer+0x24>)
 e001e3c:	47a0      	blx	r4
 e001e3e:	4b06      	ldr	r3, [pc, #24]	; (e001e58 <pmu_init_wakeup_timer+0x28>)
 e001e40:	2016      	movs	r0, #22
 e001e42:	4798      	blx	r3
 e001e44:	4a05      	ldr	r2, [pc, #20]	; (e001e5c <pmu_init_wakeup_timer+0x2c>)
 e001e46:	6853      	ldr	r3, [r2, #4]
 e001e48:	f043 0304 	orr.w	r3, r3, #4
 e001e4c:	6053      	str	r3, [r2, #4]
 e001e4e:	bd10      	pop	{r4, pc}
 e001e50:	0e001d89 	.word	0x0e001d89
 e001e54:	0000d769 	.word	0x0000d769
 e001e58:	0000d641 	.word	0x0000d641
 e001e5c:	41016000 	.word	0x41016000

0e001e60 <BOOT_Reason>:
 e001e60:	4b01      	ldr	r3, [pc, #4]	; (e001e68 <BOOT_Reason+0x8>)
 e001e62:	f8d3 0268 	ldr.w	r0, [r3, #616]	; 0x268
 e001e66:	4770      	bx	lr
 e001e68:	41008000 	.word	0x41008000

0e001e6c <System_Reset>:
 e001e6c:	4b0c      	ldr	r3, [pc, #48]	; (e001ea0 <System_Reset+0x34>)
 e001e6e:	f8d3 3228 	ldr.w	r3, [r3, #552]	; 0x228
 e001e72:	f3c3 1381 	ubfx	r3, r3, #6, #2
 e001e76:	2b01      	cmp	r3, #1
 e001e78:	d00e      	beq.n	e001e98 <System_Reset+0x2c>
 e001e7a:	b963      	cbnz	r3, e001e96 <System_Reset+0x2a>
 e001e7c:	f04f 4180 	mov.w	r1, #1073741824	; 0x40000000
 e001e80:	4b07      	ldr	r3, [pc, #28]	; (e001ea0 <System_Reset+0x34>)
 e001e82:	f04f 3096 	mov.w	r0, #2526451350	; 0x96969696
 e001e86:	f04f 3269 	mov.w	r2, #1768515945	; 0x69696969
 e001e8a:	f8c3 0264 	str.w	r0, [r3, #612]	; 0x264
 e001e8e:	f8c3 1260 	str.w	r1, [r3, #608]	; 0x260
 e001e92:	f8c3 2264 	str.w	r2, [r3, #612]	; 0x264
 e001e96:	4770      	bx	lr
 e001e98:	f04f 4100 	mov.w	r1, #2147483648	; 0x80000000
 e001e9c:	e7f0      	b.n	e001e80 <System_Reset+0x14>
 e001e9e:	bf00      	nop
 e001ea0:	41008000 	.word	0x41008000

0e001ea4 <RTCIO_IsEnabled>:
 e001ea4:	4b02      	ldr	r3, [pc, #8]	; (e001eb0 <RTCIO_IsEnabled+0xc>)
 e001ea6:	6c98      	ldr	r0, [r3, #72]	; 0x48
 e001ea8:	f3c0 1000 	ubfx	r0, r0, #4, #1
 e001eac:	4770      	bx	lr
 e001eae:	bf00      	nop
 e001eb0:	41008000 	.word	0x41008000

0e001eb4 <wifi_set_user_config>:
 e001eb4:	b538      	push	{r3, r4, r5, lr}
 e001eb6:	4c17      	ldr	r4, [pc, #92]	; (e001f14 <wifi_set_user_config+0x60>)
 e001eb8:	223c      	movs	r2, #60	; 0x3c
 e001eba:	2100      	movs	r1, #0
 e001ebc:	4d16      	ldr	r5, [pc, #88]	; (e001f18 <wifi_set_user_config+0x64>)
 e001ebe:	4620      	mov	r0, r4
 e001ec0:	f005 fda2 	bl	e007a08 <____wrap_memset_veneer>
 e001ec4:	f240 1301 	movw	r3, #257	; 0x101
 e001ec8:	2101      	movs	r1, #1
 e001eca:	2202      	movs	r2, #2
 e001ecc:	8263      	strh	r3, [r4, #18]
 e001ece:	2000      	movs	r0, #0
 e001ed0:	8563      	strh	r3, [r4, #42]	; 0x2a
 e001ed2:	230a      	movs	r3, #10
 e001ed4:	81a1      	strh	r1, [r4, #12]
 e001ed6:	7461      	strb	r1, [r4, #17]
 e001ed8:	210b      	movs	r1, #11
 e001eda:	73a2      	strb	r2, [r4, #14]
 e001edc:	61a2      	str	r2, [r4, #24]
 e001ede:	f44f 52a0 	mov.w	r2, #5120	; 0x1400
 e001ee2:	6223      	str	r3, [r4, #32]
 e001ee4:	2304      	movs	r3, #4
 e001ee6:	6025      	str	r5, [r4, #0]
 e001ee8:	f04f 65a1 	mov.w	r5, #84410368	; 0x5080000
 e001eec:	7120      	strb	r0, [r4, #4]
 e001eee:	f884 0029 	strb.w	r0, [r4, #41]	; 0x29
 e001ef2:	6161      	str	r1, [r4, #20]
 e001ef4:	f241 3188 	movw	r1, #5000	; 0x1388
 e001ef8:	4808      	ldr	r0, [pc, #32]	; (e001f1c <wifi_set_user_config+0x68>)
 e001efa:	8722      	strh	r2, [r4, #56]	; 0x38
 e001efc:	f240 720f 	movw	r2, #1807	; 0x70f
 e001f00:	6263      	str	r3, [r4, #36]	; 0x24
 e001f02:	f884 3030 	strb.w	r3, [r4, #48]	; 0x30
 e001f06:	4b06      	ldr	r3, [pc, #24]	; (e001f20 <wifi_set_user_config+0x6c>)
 e001f08:	61e5      	str	r5, [r4, #28]
 e001f0a:	62e0      	str	r0, [r4, #44]	; 0x2c
 e001f0c:	6361      	str	r1, [r4, #52]	; 0x34
 e001f0e:	80e2      	strh	r2, [r4, #6]
 e001f10:	60a3      	str	r3, [r4, #8]
 e001f12:	bd38      	pop	{r3, r4, r5, pc}
 e001f14:	2000b400 	.word	0x2000b400
 e001f18:	00020200 	.word	0x00020200
 e001f1c:	00040101 	.word	0x00040101
 e001f20:	01000001 	.word	0x01000001

0e001f24 <fATSC>:
 e001f24:	b508      	push	{r3, lr}
 e001f26:	4b0a      	ldr	r3, [pc, #40]	; (e001f50 <fATSC+0x2c>)
 e001f28:	681b      	ldr	r3, [r3, #0]
 e001f2a:	06db      	lsls	r3, r3, #27
 e001f2c:	d502      	bpl.n	e001f34 <fATSC+0x10>
 e001f2e:	4b09      	ldr	r3, [pc, #36]	; (e001f54 <fATSC+0x30>)
 e001f30:	781b      	ldrb	r3, [r3, #0]
 e001f32:	b91b      	cbnz	r3, e001f3c <fATSC+0x18>
 e001f34:	e8bd 4008 	ldmia.w	sp!, {r3, lr}
 e001f38:	f001 bf6c 	b.w	e003e14 <sys_clear_ota_signature>
 e001f3c:	4806      	ldr	r0, [pc, #24]	; (e001f58 <fATSC+0x34>)
 e001f3e:	f005 f863 	bl	e007008 <DiagPrintf>
 e001f42:	4806      	ldr	r0, [pc, #24]	; (e001f5c <fATSC+0x38>)
 e001f44:	f005 f860 	bl	e007008 <DiagPrintf>
 e001f48:	e8bd 4008 	ldmia.w	sp!, {r3, lr}
 e001f4c:	f001 bf62 	b.w	e003e14 <sys_clear_ota_signature>
 e001f50:	2000b050 	.word	0x2000b050
 e001f54:	2000b054 	.word	0x2000b054
 e001f58:	0e0081bc 	.word	0x0e0081bc
 e001f5c:	0e0082dc 	.word	0x0e0082dc

0e001f60 <fATSR>:
 e001f60:	b508      	push	{r3, lr}
 e001f62:	4b0a      	ldr	r3, [pc, #40]	; (e001f8c <fATSR+0x2c>)
 e001f64:	681b      	ldr	r3, [r3, #0]
 e001f66:	06db      	lsls	r3, r3, #27
 e001f68:	d502      	bpl.n	e001f70 <fATSR+0x10>
 e001f6a:	4b09      	ldr	r3, [pc, #36]	; (e001f90 <fATSR+0x30>)
 e001f6c:	781b      	ldrb	r3, [r3, #0]
 e001f6e:	b91b      	cbnz	r3, e001f78 <fATSR+0x18>
 e001f70:	e8bd 4008 	ldmia.w	sp!, {r3, lr}
 e001f74:	f001 bfd0 	b.w	e003f18 <sys_recover_ota_signature>
 e001f78:	4806      	ldr	r0, [pc, #24]	; (e001f94 <fATSR+0x34>)
 e001f7a:	f005 f845 	bl	e007008 <DiagPrintf>
 e001f7e:	4806      	ldr	r0, [pc, #24]	; (e001f98 <fATSR+0x38>)
 e001f80:	f005 f842 	bl	e007008 <DiagPrintf>
 e001f84:	e8bd 4008 	ldmia.w	sp!, {r3, lr}
 e001f88:	f001 bfc6 	b.w	e003f18 <sys_recover_ota_signature>
 e001f8c:	2000b050 	.word	0x2000b050
 e001f90:	2000b054 	.word	0x2000b054
 e001f94:	0e0081e4 	.word	0x0e0081e4
 e001f98:	0e0082dc 	.word	0x0e0082dc

0e001f9c <at_sys_init>:
 e001f9c:	2102      	movs	r1, #2
 e001f9e:	4801      	ldr	r0, [pc, #4]	; (e001fa4 <at_sys_init+0x8>)
 e001fa0:	f000 bab0 	b.w	e002504 <log_service_add_table>
 e001fa4:	2000b02c 	.word	0x2000b02c

0e001fa8 <flash_read_word>:
 e001fa8:	b508      	push	{r3, lr}
 e001faa:	4608      	mov	r0, r1
 e001fac:	4b02      	ldr	r3, [pc, #8]	; (e001fb8 <flash_read_word+0x10>)
 e001fae:	2104      	movs	r1, #4
 e001fb0:	4798      	blx	r3
 e001fb2:	2001      	movs	r0, #1
 e001fb4:	bd08      	pop	{r3, pc}
 e001fb6:	bf00      	nop
 e001fb8:	0e0016d9 	.word	0x0e0016d9

0e001fbc <os_heap_init>:
 e001fbc:	b580      	push	{r7, lr}
 e001fbe:	af00      	add	r7, sp, #0
 e001fc0:	4b0c      	ldr	r3, [pc, #48]	; (e001ff4 <os_heap_init+0x38>)
 e001fc2:	4619      	mov	r1, r3
 e001fc4:	480c      	ldr	r0, [pc, #48]	; (e001ff8 <os_heap_init+0x3c>)
 e001fc6:	f000 f84d 	bl	e002064 <os_heap_add>
 e001fca:	4b0c      	ldr	r3, [pc, #48]	; (e001ffc <os_heap_init+0x40>)
 e001fcc:	4619      	mov	r1, r3
 e001fce:	480c      	ldr	r0, [pc, #48]	; (e002000 <os_heap_init+0x44>)
 e001fd0:	f000 f848 	bl	e002064 <os_heap_add>
 e001fd4:	4b0b      	ldr	r3, [pc, #44]	; (e002004 <os_heap_init+0x48>)
 e001fd6:	4619      	mov	r1, r3
 e001fd8:	480b      	ldr	r0, [pc, #44]	; (e002008 <os_heap_init+0x4c>)
 e001fda:	f000 f843 	bl	e002064 <os_heap_add>
 e001fde:	4b0b      	ldr	r3, [pc, #44]	; (e00200c <os_heap_init+0x50>)
 e001fe0:	781b      	ldrb	r3, [r3, #0]
 e001fe2:	2b00      	cmp	r3, #0
 e001fe4:	d001      	beq.n	e001fea <os_heap_init+0x2e>
 e001fe6:	f000 f815 	bl	e002014 <os_heap_sort>
 e001fea:	4809      	ldr	r0, [pc, #36]	; (e002010 <os_heap_init+0x54>)
 e001fec:	f000 f92a 	bl	e002244 <vPortDefineHeapRegions>
 e001ff0:	bf00      	nop
 e001ff2:	bd80      	pop	{r7, pc}
 e001ff4:	0005bf00 	.word	0x0005bf00
 e001ff8:	2000c100 	.word	0x2000c100
 e001ffc:	00000000 	.word	0x00000000
 e002000:	c8800000 	.word	0xc8800000
 e002004:	00000000 	.word	0x00000000
 e002008:	c8800000 	.word	0xc8800000
 e00200c:	2000b46c 	.word	0x2000b46c
 e002010:	2000b43c 	.word	0x2000b43c

0e002014 <os_heap_sort>:
 e002014:	4b11      	ldr	r3, [pc, #68]	; (e00205c <os_heap_sort+0x48>)
 e002016:	b570      	push	{r4, r5, r6, lr}
 e002018:	f893 e000 	ldrb.w	lr, [r3]
 e00201c:	f10e 3eff 	add.w	lr, lr, #4294967295	; 0xffffffff
 e002020:	f1be 0f00 	cmp.w	lr, #0
 e002024:	dd18      	ble.n	e002058 <os_heap_sort+0x44>
 e002026:	4e0e      	ldr	r6, [pc, #56]	; (e002060 <os_heap_sort+0x4c>)
 e002028:	eb06 0cce 	add.w	ip, r6, lr, lsl #3
 e00202c:	4633      	mov	r3, r6
 e00202e:	681c      	ldr	r4, [r3, #0]
 e002030:	f103 0208 	add.w	r2, r3, #8
 e002034:	6899      	ldr	r1, [r3, #8]
 e002036:	428c      	cmp	r4, r1
 e002038:	d906      	bls.n	e002048 <os_heap_sort+0x34>
 e00203a:	685d      	ldr	r5, [r3, #4]
 e00203c:	e892 0003 	ldmia.w	r2, {r0, r1}
 e002040:	609c      	str	r4, [r3, #8]
 e002042:	60dd      	str	r5, [r3, #12]
 e002044:	e883 0003 	stmia.w	r3, {r0, r1}
 e002048:	4562      	cmp	r2, ip
 e00204a:	4613      	mov	r3, r2
 e00204c:	d1ef      	bne.n	e00202e <os_heap_sort+0x1a>
 e00204e:	f1be 0e01 	subs.w	lr, lr, #1
 e002052:	f1ac 0c08 	sub.w	ip, ip, #8
 e002056:	d1e9      	bne.n	e00202c <os_heap_sort+0x18>
 e002058:	bd70      	pop	{r4, r5, r6, pc}
 e00205a:	bf00      	nop
 e00205c:	2000b46c 	.word	0x2000b46c
 e002060:	2000b43c 	.word	0x2000b43c

0e002064 <os_heap_add>:
 e002064:	b570      	push	{r4, r5, r6, lr}
 e002066:	4e0c      	ldr	r6, [pc, #48]	; (e002098 <os_heap_add+0x34>)
 e002068:	4605      	mov	r5, r0
 e00206a:	460c      	mov	r4, r1
 e00206c:	7833      	ldrb	r3, [r6, #0]
 e00206e:	2b05      	cmp	r3, #5
 e002070:	d80c      	bhi.n	e00208c <os_heap_add+0x28>
 e002072:	4a0a      	ldr	r2, [pc, #40]	; (e00209c <os_heap_add+0x38>)
 e002074:	eb02 01c3 	add.w	r1, r2, r3, lsl #3
 e002078:	f842 5033 	str.w	r5, [r2, r3, lsl #3]
 e00207c:	604c      	str	r4, [r1, #4]
 e00207e:	b90c      	cbnz	r4, e002084 <os_heap_add+0x20>
 e002080:	4620      	mov	r0, r4
 e002082:	bd70      	pop	{r4, r5, r6, pc}
 e002084:	3301      	adds	r3, #1
 e002086:	2001      	movs	r0, #1
 e002088:	7033      	strb	r3, [r6, #0]
 e00208a:	bd70      	pop	{r4, r5, r6, pc}
 e00208c:	2125      	movs	r1, #37	; 0x25
 e00208e:	4804      	ldr	r0, [pc, #16]	; (e0020a0 <os_heap_add+0x3c>)
 e002090:	f005 f96e 	bl	e007370 <io_assert_failed>
 e002094:	7833      	ldrb	r3, [r6, #0]
 e002096:	e7ec      	b.n	e002072 <os_heap_add+0xe>
 e002098:	2000b46c 	.word	0x2000b46c
 e00209c:	2000b43c 	.word	0x2000b43c
 e0020a0:	0e008220 	.word	0x0e008220

0e0020a4 <__wrap_malloc>:
 e0020a4:	f000 bd20 	b.w	e002ae8 <rtos_mem_malloc>

0e0020a8 <__wrap_free>:
 e0020a8:	f000 bd2c 	b.w	e002b04 <rtos_mem_free>

0e0020ac <__wrap__free_r>:
 e0020ac:	4608      	mov	r0, r1
 e0020ae:	f000 bd29 	b.w	e002b04 <rtos_mem_free>
 e0020b2:	bf00      	nop

0e0020b4 <prvInsertBlockIntoFreeList>:
 e0020b4:	4b15      	ldr	r3, [pc, #84]	; (e00210c <prvInsertBlockIntoFreeList+0x58>)
 e0020b6:	b410      	push	{r4}
 e0020b8:	461a      	mov	r2, r3
 e0020ba:	681b      	ldr	r3, [r3, #0]
 e0020bc:	4283      	cmp	r3, r0
 e0020be:	d3fb      	bcc.n	e0020b8 <prvInsertBlockIntoFreeList+0x4>
 e0020c0:	6854      	ldr	r4, [r2, #4]
 e0020c2:	6841      	ldr	r1, [r0, #4]
 e0020c4:	eb02 0c04 	add.w	ip, r2, r4
 e0020c8:	4560      	cmp	r0, ip
 e0020ca:	d009      	beq.n	e0020e0 <prvInsertBlockIntoFreeList+0x2c>
 e0020cc:	1844      	adds	r4, r0, r1
 e0020ce:	42a3      	cmp	r3, r4
 e0020d0:	d00c      	beq.n	e0020ec <prvInsertBlockIntoFreeList+0x38>
 e0020d2:	4290      	cmp	r0, r2
 e0020d4:	6003      	str	r3, [r0, #0]
 e0020d6:	bf18      	it	ne
 e0020d8:	6010      	strne	r0, [r2, #0]
 e0020da:	f85d 4b04 	ldr.w	r4, [sp], #4
 e0020de:	4770      	bx	lr
 e0020e0:	4421      	add	r1, r4
 e0020e2:	4610      	mov	r0, r2
 e0020e4:	1844      	adds	r4, r0, r1
 e0020e6:	6051      	str	r1, [r2, #4]
 e0020e8:	42a3      	cmp	r3, r4
 e0020ea:	d1f2      	bne.n	e0020d2 <prvInsertBlockIntoFreeList+0x1e>
 e0020ec:	4c08      	ldr	r4, [pc, #32]	; (e002110 <prvInsertBlockIntoFreeList+0x5c>)
 e0020ee:	6824      	ldr	r4, [r4, #0]
 e0020f0:	42a3      	cmp	r3, r4
 e0020f2:	d0ee      	beq.n	e0020d2 <prvInsertBlockIntoFreeList+0x1e>
 e0020f4:	685b      	ldr	r3, [r3, #4]
 e0020f6:	4290      	cmp	r0, r2
 e0020f8:	4419      	add	r1, r3
 e0020fa:	6041      	str	r1, [r0, #4]
 e0020fc:	6813      	ldr	r3, [r2, #0]
 e0020fe:	681b      	ldr	r3, [r3, #0]
 e002100:	6003      	str	r3, [r0, #0]
 e002102:	bf18      	it	ne
 e002104:	6010      	strne	r0, [r2, #0]
 e002106:	f85d 4b04 	ldr.w	r4, [sp], #4
 e00210a:	4770      	bx	lr
 e00210c:	2000b488 	.word	0x2000b488
 e002110:	2000b470 	.word	0x2000b470

0e002114 <pvPortMalloc>:
 e002114:	e92d 41f0 	stmdb	sp!, {r4, r5, r6, r7, r8, lr}
 e002118:	4604      	mov	r4, r0
 e00211a:	f002 faf7 	bl	e00470c <vTaskSuspendAll>
 e00211e:	4b29      	ldr	r3, [pc, #164]	; (e0021c4 <pvPortMalloc+0xb0>)
 e002120:	681e      	ldr	r6, [r3, #0]
 e002122:	4226      	tst	r6, r4
 e002124:	d13c      	bne.n	e0021a0 <pvPortMalloc+0x8c>
 e002126:	1e63      	subs	r3, r4, #1
 e002128:	3322      	adds	r3, #34	; 0x22
 e00212a:	d839      	bhi.n	e0021a0 <pvPortMalloc+0x8c>
 e00212c:	06e3      	lsls	r3, r4, #27
 e00212e:	f104 0220 	add.w	r2, r4, #32
 e002132:	d130      	bne.n	e002196 <pvPortMalloc+0x82>
 e002134:	f8df 80a0 	ldr.w	r8, [pc, #160]	; e0021d8 <pvPortMalloc+0xc4>
 e002138:	f8d8 7000 	ldr.w	r7, [r8]
 e00213c:	4297      	cmp	r7, r2
 e00213e:	d32f      	bcc.n	e0021a0 <pvPortMalloc+0x8c>
 e002140:	4921      	ldr	r1, [pc, #132]	; (e0021c8 <pvPortMalloc+0xb4>)
 e002142:	680c      	ldr	r4, [r1, #0]
 e002144:	e003      	b.n	e00214e <pvPortMalloc+0x3a>
 e002146:	6823      	ldr	r3, [r4, #0]
 e002148:	b123      	cbz	r3, e002154 <pvPortMalloc+0x40>
 e00214a:	4621      	mov	r1, r4
 e00214c:	461c      	mov	r4, r3
 e00214e:	6863      	ldr	r3, [r4, #4]
 e002150:	4293      	cmp	r3, r2
 e002152:	d3f8      	bcc.n	e002146 <pvPortMalloc+0x32>
 e002154:	4b1d      	ldr	r3, [pc, #116]	; (e0021cc <pvPortMalloc+0xb8>)
 e002156:	681b      	ldr	r3, [r3, #0]
 e002158:	42a3      	cmp	r3, r4
 e00215a:	d021      	beq.n	e0021a0 <pvPortMalloc+0x8c>
 e00215c:	6823      	ldr	r3, [r4, #0]
 e00215e:	680d      	ldr	r5, [r1, #0]
 e002160:	600b      	str	r3, [r1, #0]
 e002162:	6863      	ldr	r3, [r4, #4]
 e002164:	3520      	adds	r5, #32
 e002166:	1a99      	subs	r1, r3, r2
 e002168:	2940      	cmp	r1, #64	; 0x40
 e00216a:	d823      	bhi.n	e0021b4 <pvPortMalloc+0xa0>
 e00216c:	4a18      	ldr	r2, [pc, #96]	; (e0021d0 <pvPortMalloc+0xbc>)
 e00216e:	1aff      	subs	r7, r7, r3
 e002170:	4333      	orrs	r3, r6
 e002172:	6811      	ldr	r1, [r2, #0]
 e002174:	f8c8 7000 	str.w	r7, [r8]
 e002178:	428f      	cmp	r7, r1
 e00217a:	f04f 0100 	mov.w	r1, #0
 e00217e:	bf38      	it	cc
 e002180:	6017      	strcc	r7, [r2, #0]
 e002182:	4a14      	ldr	r2, [pc, #80]	; (e0021d4 <pvPortMalloc+0xc0>)
 e002184:	e9c4 1300 	strd	r1, r3, [r4]
 e002188:	6813      	ldr	r3, [r2, #0]
 e00218a:	3301      	adds	r3, #1
 e00218c:	6013      	str	r3, [r2, #0]
 e00218e:	f002 fac5 	bl	e00471c <xTaskResumeAll>
 e002192:	b955      	cbnz	r5, e0021aa <pvPortMalloc+0x96>
 e002194:	e006      	b.n	e0021a4 <pvPortMalloc+0x90>
 e002196:	f022 031f 	bic.w	r3, r2, #31
 e00219a:	3320      	adds	r3, #32
 e00219c:	4293      	cmp	r3, r2
 e00219e:	d807      	bhi.n	e0021b0 <pvPortMalloc+0x9c>
 e0021a0:	f002 fabc 	bl	e00471c <xTaskResumeAll>
 e0021a4:	2500      	movs	r5, #0
 e0021a6:	f001 f827 	bl	e0031f8 <vApplicationMallocFailedHook>
 e0021aa:	4628      	mov	r0, r5
 e0021ac:	e8bd 81f0 	ldmia.w	sp!, {r4, r5, r6, r7, r8, pc}
 e0021b0:	461a      	mov	r2, r3
 e0021b2:	e7bf      	b.n	e002134 <pvPortMalloc+0x20>
 e0021b4:	18a0      	adds	r0, r4, r2
 e0021b6:	6041      	str	r1, [r0, #4]
 e0021b8:	6062      	str	r2, [r4, #4]
 e0021ba:	f7ff ff7b 	bl	e0020b4 <prvInsertBlockIntoFreeList>
 e0021be:	6863      	ldr	r3, [r4, #4]
 e0021c0:	e7d4      	b.n	e00216c <pvPortMalloc+0x58>
 e0021c2:	bf00      	nop
 e0021c4:	2000b474 	.word	0x2000b474
 e0021c8:	2000b488 	.word	0x2000b488
 e0021cc:	2000b470 	.word	0x2000b470
 e0021d0:	2000b47c 	.word	0x2000b47c
 e0021d4:	2000b480 	.word	0x2000b480
 e0021d8:	2000b478 	.word	0x2000b478

0e0021dc <vPortFree>:
 e0021dc:	b140      	cbz	r0, e0021f0 <vPortFree+0x14>
 e0021de:	4a13      	ldr	r2, [pc, #76]	; (e00222c <vPortFree+0x50>)
 e0021e0:	f850 3c1c 	ldr.w	r3, [r0, #-28]
 e0021e4:	6812      	ldr	r2, [r2, #0]
 e0021e6:	4213      	tst	r3, r2
 e0021e8:	d002      	beq.n	e0021f0 <vPortFree+0x14>
 e0021ea:	f850 1c20 	ldr.w	r1, [r0, #-32]
 e0021ee:	b101      	cbz	r1, e0021f2 <vPortFree+0x16>
 e0021f0:	4770      	bx	lr
 e0021f2:	ea23 0302 	bic.w	r3, r3, r2
 e0021f6:	b500      	push	{lr}
 e0021f8:	b083      	sub	sp, #12
 e0021fa:	f840 3c1c 	str.w	r3, [r0, #-28]
 e0021fe:	9001      	str	r0, [sp, #4]
 e002200:	f002 fa84 	bl	e00470c <vTaskSuspendAll>
 e002204:	4a0a      	ldr	r2, [pc, #40]	; (e002230 <vPortFree+0x54>)
 e002206:	9801      	ldr	r0, [sp, #4]
 e002208:	6811      	ldr	r1, [r2, #0]
 e00220a:	f850 3c1c 	ldr.w	r3, [r0, #-28]
 e00220e:	3820      	subs	r0, #32
 e002210:	440b      	add	r3, r1
 e002212:	6013      	str	r3, [r2, #0]
 e002214:	f7ff ff4e 	bl	e0020b4 <prvInsertBlockIntoFreeList>
 e002218:	4a06      	ldr	r2, [pc, #24]	; (e002234 <vPortFree+0x58>)
 e00221a:	6813      	ldr	r3, [r2, #0]
 e00221c:	3301      	adds	r3, #1
 e00221e:	6013      	str	r3, [r2, #0]
 e002220:	b003      	add	sp, #12
 e002222:	f85d eb04 	ldr.w	lr, [sp], #4
 e002226:	f002 ba79 	b.w	e00471c <xTaskResumeAll>
 e00222a:	bf00      	nop
 e00222c:	2000b474 	.word	0x2000b474
 e002230:	2000b478 	.word	0x2000b478
 e002234:	2000b484 	.word	0x2000b484

0e002238 <xPortGetFreeHeapSize>:
 e002238:	4b01      	ldr	r3, [pc, #4]	; (e002240 <xPortGetFreeHeapSize+0x8>)
 e00223a:	6818      	ldr	r0, [r3, #0]
 e00223c:	4770      	bx	lr
 e00223e:	bf00      	nop
 e002240:	2000b478 	.word	0x2000b478

0e002244 <vPortDefineHeapRegions>:
 e002244:	e92d 47f0 	stmdb	sp!, {r4, r5, r6, r7, r8, r9, sl, lr}
 e002248:	6844      	ldr	r4, [r0, #4]
 e00224a:	2c00      	cmp	r4, #0
 e00224c:	d03e      	beq.n	e0022cc <vPortDefineHeapRegions+0x88>
 e00224e:	2100      	movs	r1, #0
 e002250:	f8df 9088 	ldr.w	r9, [pc, #136]	; e0022dc <vPortDefineHeapRegions+0x98>
 e002254:	f100 0804 	add.w	r8, r0, #4
 e002258:	f8df e084 	ldr.w	lr, [pc, #132]	; e0022e0 <vPortDefineHeapRegions+0x9c>
 e00225c:	f8d9 5000 	ldr.w	r5, [r9]
 e002260:	460e      	mov	r6, r1
 e002262:	460f      	mov	r7, r1
 e002264:	f850 3031 	ldr.w	r3, [r0, r1, lsl #3]
 e002268:	f103 021f 	add.w	r2, r3, #31
 e00226c:	f013 0f1f 	tst.w	r3, #31
 e002270:	eb03 0a04 	add.w	sl, r3, r4
 e002274:	469c      	mov	ip, r3
 e002276:	f022 021f 	bic.w	r2, r2, #31
 e00227a:	d003      	beq.n	e002284 <vPortDefineHeapRegions+0x40>
 e00227c:	4613      	mov	r3, r2
 e00227e:	ebaa 0402 	sub.w	r4, sl, r2
 e002282:	4694      	mov	ip, r2
 e002284:	b909      	cbnz	r1, e00228a <vPortDefineHeapRegions+0x46>
 e002286:	e9ce 3100 	strd	r3, r1, [lr]
 e00228a:	eb04 020c 	add.w	r2, r4, ip
 e00228e:	3101      	adds	r1, #1
 e002290:	3a20      	subs	r2, #32
 e002292:	f022 021f 	bic.w	r2, r2, #31
 e002296:	eba2 040c 	sub.w	r4, r2, ip
 e00229a:	e9c2 7700 	strd	r7, r7, [r2]
 e00229e:	e9c3 2400 	strd	r2, r4, [r3]
 e0022a2:	b105      	cbz	r5, e0022a6 <vPortDefineHeapRegions+0x62>
 e0022a4:	602b      	str	r3, [r5, #0]
 e0022a6:	685b      	ldr	r3, [r3, #4]
 e0022a8:	4615      	mov	r5, r2
 e0022aa:	f858 4031 	ldr.w	r4, [r8, r1, lsl #3]
 e0022ae:	441e      	add	r6, r3
 e0022b0:	2c00      	cmp	r4, #0
 e0022b2:	d1d7      	bne.n	e002264 <vPortDefineHeapRegions+0x20>
 e0022b4:	f8c9 2000 	str.w	r2, [r9]
 e0022b8:	4805      	ldr	r0, [pc, #20]	; (e0022d0 <vPortDefineHeapRegions+0x8c>)
 e0022ba:	f04f 4200 	mov.w	r2, #2147483648	; 0x80000000
 e0022be:	4905      	ldr	r1, [pc, #20]	; (e0022d4 <vPortDefineHeapRegions+0x90>)
 e0022c0:	4b05      	ldr	r3, [pc, #20]	; (e0022d8 <vPortDefineHeapRegions+0x94>)
 e0022c2:	6006      	str	r6, [r0, #0]
 e0022c4:	600e      	str	r6, [r1, #0]
 e0022c6:	601a      	str	r2, [r3, #0]
 e0022c8:	e8bd 87f0 	ldmia.w	sp!, {r4, r5, r6, r7, r8, r9, sl, pc}
 e0022cc:	4626      	mov	r6, r4
 e0022ce:	e7f3      	b.n	e0022b8 <vPortDefineHeapRegions+0x74>
 e0022d0:	2000b47c 	.word	0x2000b47c
 e0022d4:	2000b478 	.word	0x2000b478
 e0022d8:	2000b474 	.word	0x2000b474
 e0022dc:	2000b470 	.word	0x2000b470
 e0022e0:	2000b488 	.word	0x2000b488

0e0022e4 <vListInitialise>:
 e0022e4:	f100 0308 	add.w	r3, r0, #8
 e0022e8:	f04f 31ff 	mov.w	r1, #4294967295	; 0xffffffff
 e0022ec:	2200      	movs	r2, #0
 e0022ee:	6081      	str	r1, [r0, #8]
 e0022f0:	6002      	str	r2, [r0, #0]
 e0022f2:	6043      	str	r3, [r0, #4]
 e0022f4:	e9c0 3303 	strd	r3, r3, [r0, #12]
 e0022f8:	4770      	bx	lr
 e0022fa:	bf00      	nop

0e0022fc <vListInitialiseItem>:
 e0022fc:	2300      	movs	r3, #0
 e0022fe:	6103      	str	r3, [r0, #16]
 e002300:	4770      	bx	lr
 e002302:	bf00      	nop

0e002304 <vListInsertEnd>:
 e002304:	6843      	ldr	r3, [r0, #4]
 e002306:	604b      	str	r3, [r1, #4]
 e002308:	689a      	ldr	r2, [r3, #8]
 e00230a:	608a      	str	r2, [r1, #8]
 e00230c:	6051      	str	r1, [r2, #4]
 e00230e:	6099      	str	r1, [r3, #8]
 e002310:	6108      	str	r0, [r1, #16]
 e002312:	6803      	ldr	r3, [r0, #0]
 e002314:	3301      	adds	r3, #1
 e002316:	6003      	str	r3, [r0, #0]
 e002318:	4770      	bx	lr
 e00231a:	bf00      	nop

0e00231c <vListInsert>:
 e00231c:	b430      	push	{r4, r5}
 e00231e:	680d      	ldr	r5, [r1, #0]
 e002320:	1c6b      	adds	r3, r5, #1
 e002322:	d010      	beq.n	e002346 <vListInsert+0x2a>
 e002324:	f100 0308 	add.w	r3, r0, #8
 e002328:	461c      	mov	r4, r3
 e00232a:	685b      	ldr	r3, [r3, #4]
 e00232c:	681a      	ldr	r2, [r3, #0]
 e00232e:	42aa      	cmp	r2, r5
 e002330:	d9fa      	bls.n	e002328 <vListInsert+0xc>
 e002332:	604b      	str	r3, [r1, #4]
 e002334:	6099      	str	r1, [r3, #8]
 e002336:	608c      	str	r4, [r1, #8]
 e002338:	6061      	str	r1, [r4, #4]
 e00233a:	6108      	str	r0, [r1, #16]
 e00233c:	6803      	ldr	r3, [r0, #0]
 e00233e:	3301      	adds	r3, #1
 e002340:	bc30      	pop	{r4, r5}
 e002342:	6003      	str	r3, [r0, #0]
 e002344:	4770      	bx	lr
 e002346:	6904      	ldr	r4, [r0, #16]
 e002348:	6863      	ldr	r3, [r4, #4]
 e00234a:	e7f2      	b.n	e002332 <vListInsert+0x16>

0e00234c <uxListRemove>:
 e00234c:	e9d0 1201 	ldrd	r1, r2, [r0, #4]
 e002350:	6903      	ldr	r3, [r0, #16]
 e002352:	608a      	str	r2, [r1, #8]
 e002354:	6841      	ldr	r1, [r0, #4]
 e002356:	6051      	str	r1, [r2, #4]
 e002358:	685a      	ldr	r2, [r3, #4]
 e00235a:	4282      	cmp	r2, r0
 e00235c:	d006      	beq.n	e00236c <uxListRemove+0x20>
 e00235e:	2200      	movs	r2, #0
 e002360:	6102      	str	r2, [r0, #16]
 e002362:	681a      	ldr	r2, [r3, #0]
 e002364:	3a01      	subs	r2, #1
 e002366:	601a      	str	r2, [r3, #0]
 e002368:	6818      	ldr	r0, [r3, #0]
 e00236a:	4770      	bx	lr
 e00236c:	6882      	ldr	r2, [r0, #8]
 e00236e:	605a      	str	r2, [r3, #4]
 e002370:	e7f5      	b.n	e00235e <uxListRemove+0x12>
 e002372:	bf00      	nop

0e002374 <rtk_log_memory_dump_word>:
 e002374:	b321      	cbz	r1, e0023c0 <rtk_log_memory_dump_word+0x4c>
 e002376:	e92d 47f0 	stmdb	sp!, {r4, r5, r6, r7, r8, r9, sl, lr}
 e00237a:	4680      	mov	r8, r0
 e00237c:	460e      	mov	r6, r1
 e00237e:	4605      	mov	r5, r0
 e002380:	2400      	movs	r4, #0
 e002382:	f8df 904c 	ldr.w	r9, [pc, #76]	; e0023d0 <rtk_log_memory_dump_word+0x5c>
 e002386:	f8df a04c 	ldr.w	sl, [pc, #76]	; e0023d4 <rtk_log_memory_dump_word+0x60>
 e00238a:	4f0f      	ldr	r7, [pc, #60]	; (e0023c8 <rtk_log_memory_dump_word+0x54>)
 e00238c:	b19c      	cbz	r4, e0023b6 <rtk_log_memory_dump_word+0x42>
 e00238e:	0763      	lsls	r3, r4, #29
 e002390:	d00c      	beq.n	e0023ac <rtk_log_memory_dump_word+0x38>
 e002392:	3401      	adds	r4, #1
 e002394:	f855 1b04 	ldr.w	r1, [r5], #4
 e002398:	4638      	mov	r0, r7
 e00239a:	f004 fe43 	bl	e007024 <DiagPrintf_minimal>
 e00239e:	42a6      	cmp	r6, r4
 e0023a0:	d1f4      	bne.n	e00238c <rtk_log_memory_dump_word+0x18>
 e0023a2:	480a      	ldr	r0, [pc, #40]	; (e0023cc <rtk_log_memory_dump_word+0x58>)
 e0023a4:	e8bd 47f0 	ldmia.w	sp!, {r4, r5, r6, r7, r8, r9, sl, lr}
 e0023a8:	f004 be3c 	b.w	e007024 <DiagPrintf_minimal>
 e0023ac:	4629      	mov	r1, r5
 e0023ae:	4648      	mov	r0, r9
 e0023b0:	f004 fe38 	bl	e007024 <DiagPrintf_minimal>
 e0023b4:	e7ed      	b.n	e002392 <rtk_log_memory_dump_word+0x1e>
 e0023b6:	4641      	mov	r1, r8
 e0023b8:	4650      	mov	r0, sl
 e0023ba:	f004 fe33 	bl	e007024 <DiagPrintf_minimal>
 e0023be:	e7e8      	b.n	e002392 <rtk_log_memory_dump_word+0x1e>
 e0023c0:	4802      	ldr	r0, [pc, #8]	; (e0023cc <rtk_log_memory_dump_word+0x58>)
 e0023c2:	f004 be2f 	b.w	e007024 <DiagPrintf_minimal>
 e0023c6:	bf00      	nop
 e0023c8:	0e008264 	.word	0x0e008264
 e0023cc:	0e0088e0 	.word	0x0e0088e0
 e0023d0:	0e008258 	.word	0x0e008258
 e0023d4:	0e008250 	.word	0x0e008250

0e0023d8 <rtk_log_memory_dump_byte>:
 e0023d8:	b321      	cbz	r1, e002424 <rtk_log_memory_dump_byte+0x4c>
 e0023da:	e92d 47f0 	stmdb	sp!, {r4, r5, r6, r7, r8, r9, sl, lr}
 e0023de:	4680      	mov	r8, r0
 e0023e0:	460e      	mov	r6, r1
 e0023e2:	4605      	mov	r5, r0
 e0023e4:	2400      	movs	r4, #0
 e0023e6:	f8df 904c 	ldr.w	r9, [pc, #76]	; e002434 <rtk_log_memory_dump_byte+0x5c>
 e0023ea:	f8df a04c 	ldr.w	sl, [pc, #76]	; e002438 <rtk_log_memory_dump_byte+0x60>
 e0023ee:	4f0f      	ldr	r7, [pc, #60]	; (e00242c <rtk_log_memory_dump_byte+0x54>)
 e0023f0:	b19c      	cbz	r4, e00241a <rtk_log_memory_dump_byte+0x42>
 e0023f2:	0763      	lsls	r3, r4, #29
 e0023f4:	d00c      	beq.n	e002410 <rtk_log_memory_dump_byte+0x38>
 e0023f6:	3401      	adds	r4, #1
 e0023f8:	f815 1b01 	ldrb.w	r1, [r5], #1
 e0023fc:	4638      	mov	r0, r7
 e0023fe:	f004 fe11 	bl	e007024 <DiagPrintf_minimal>
 e002402:	42a6      	cmp	r6, r4
 e002404:	d1f4      	bne.n	e0023f0 <rtk_log_memory_dump_byte+0x18>
 e002406:	480a      	ldr	r0, [pc, #40]	; (e002430 <rtk_log_memory_dump_byte+0x58>)
 e002408:	e8bd 47f0 	ldmia.w	sp!, {r4, r5, r6, r7, r8, r9, sl, lr}
 e00240c:	f004 be0a 	b.w	e007024 <DiagPrintf_minimal>
 e002410:	4629      	mov	r1, r5
 e002412:	4648      	mov	r0, r9
 e002414:	f004 fe06 	bl	e007024 <DiagPrintf_minimal>
 e002418:	e7ed      	b.n	e0023f6 <rtk_log_memory_dump_byte+0x1e>
 e00241a:	4641      	mov	r1, r8
 e00241c:	4650      	mov	r0, sl
 e00241e:	f004 fe01 	bl	e007024 <DiagPrintf_minimal>
 e002422:	e7e8      	b.n	e0023f6 <rtk_log_memory_dump_byte+0x1e>
 e002424:	4802      	ldr	r0, [pc, #8]	; (e002430 <rtk_log_memory_dump_byte+0x58>)
 e002426:	f004 bdfd 	b.w	e007024 <DiagPrintf_minimal>
 e00242a:	bf00      	nop
 e00242c:	0e00826c 	.word	0x0e00826c
 e002430:	0e0088e0 	.word	0x0e0088e0
 e002434:	0e008258 	.word	0x0e008258
 e002438:	0e008250 	.word	0x0e008250

0e00243c <rtk_log_write>:
 e00243c:	b408      	push	{r3}
 e00243e:	4b1d      	ldr	r3, [pc, #116]	; (e0024b4 <rtk_log_write+0x78>)
 e002440:	e92d 47f0 	stmdb	sp!, {r4, r5, r6, r7, r8, r9, sl, lr}
 e002444:	681c      	ldr	r4, [r3, #0]
 e002446:	b083      	sub	sp, #12
 e002448:	4680      	mov	r8, r0
 e00244a:	460e      	mov	r6, r1
 e00244c:	2c03      	cmp	r4, #3
 e00244e:	4691      	mov	r9, r2
 e002450:	d827      	bhi.n	e0024a2 <rtk_log_write+0x66>
 e002452:	681f      	ldr	r7, [r3, #0]
 e002454:	b1a7      	cbz	r7, e002480 <rtk_log_write+0x44>
 e002456:	4d18      	ldr	r5, [pc, #96]	; (e0024b8 <rtk_log_write+0x7c>)
 e002458:	2400      	movs	r4, #0
 e00245a:	f8df a06c 	ldr.w	sl, [pc, #108]	; e0024c8 <rtk_log_write+0x8c>
 e00245e:	e002      	b.n	e002466 <rtk_log_write+0x2a>
 e002460:	3401      	adds	r4, #1
 e002462:	42a7      	cmp	r7, r4
 e002464:	d90c      	bls.n	e002480 <rtk_log_write+0x44>
 e002466:	4628      	mov	r0, r5
 e002468:	4631      	mov	r1, r6
 e00246a:	350b      	adds	r5, #11
 e00246c:	47d0      	blx	sl
 e00246e:	2800      	cmp	r0, #0
 e002470:	d1f6      	bne.n	e002460 <rtk_log_write+0x24>
 e002472:	eb04 0284 	add.w	r2, r4, r4, lsl #2
 e002476:	4b11      	ldr	r3, [pc, #68]	; (e0024bc <rtk_log_write+0x80>)
 e002478:	eb04 0442 	add.w	r4, r4, r2, lsl #1
 e00247c:	5d1b      	ldrb	r3, [r3, r4]
 e00247e:	e001      	b.n	e002484 <rtk_log_write+0x48>
 e002480:	4b0f      	ldr	r3, [pc, #60]	; (e0024c0 <rtk_log_write+0x84>)
 e002482:	781b      	ldrb	r3, [r3, #0]
 e002484:	4598      	cmp	r8, r3
 e002486:	d807      	bhi.n	e002498 <rtk_log_write+0x5c>
 e002488:	7833      	ldrb	r3, [r6, #0]
 e00248a:	2b23      	cmp	r3, #35	; 0x23
 e00248c:	d10b      	bne.n	e0024a6 <rtk_log_write+0x6a>
 e00248e:	a90c      	add	r1, sp, #48	; 0x30
 e002490:	980b      	ldr	r0, [sp, #44]	; 0x2c
 e002492:	9101      	str	r1, [sp, #4]
 e002494:	f004 faf8 	bl	e006a88 <DiagVprintf>
 e002498:	b003      	add	sp, #12
 e00249a:	e8bd 47f0 	ldmia.w	sp!, {r4, r5, r6, r7, r8, r9, sl, lr}
 e00249e:	b001      	add	sp, #4
 e0024a0:	4770      	bx	lr
 e0024a2:	2704      	movs	r7, #4
 e0024a4:	e7d7      	b.n	e002456 <rtk_log_write+0x1a>
 e0024a6:	464a      	mov	r2, r9
 e0024a8:	4631      	mov	r1, r6
 e0024aa:	4806      	ldr	r0, [pc, #24]	; (e0024c4 <rtk_log_write+0x88>)
 e0024ac:	f004 fdac 	bl	e007008 <DiagPrintf>
 e0024b0:	e7ed      	b.n	e00248e <rtk_log_write+0x52>
 e0024b2:	bf00      	nop
 e0024b4:	2000b490 	.word	0x2000b490
 e0024b8:	2000b495 	.word	0x2000b495
 e0024bc:	2000b494 	.word	0x2000b494
 e0024c0:	2000b04c 	.word	0x2000b04c
 e0024c4:	0e008274 	.word	0x0e008274
 e0024c8:	00011e89 	.word	0x00011e89

0e0024cc <log_service_init>:
 e0024cc:	4909      	ldr	r1, [pc, #36]	; (e0024f4 <log_service_init+0x28>)
 e0024ce:	4a0a      	ldr	r2, [pc, #40]	; (e0024f8 <log_service_init+0x2c>)
 e0024d0:	4b0a      	ldr	r3, [pc, #40]	; (e0024fc <log_service_init+0x30>)
 e0024d2:	1d08      	adds	r0, r1, #4
 e0024d4:	b410      	push	{r4}
 e0024d6:	4c0a      	ldr	r4, [pc, #40]	; (e002500 <log_service_init+0x34>)
 e0024d8:	6010      	str	r0, [r2, #0]
 e0024da:	f503 7280 	add.w	r2, r3, #256	; 0x100
 e0024de:	6021      	str	r1, [r4, #0]
 e0024e0:	e9c3 3300 	strd	r3, r3, [r3]
 e0024e4:	3308      	adds	r3, #8
 e0024e6:	429a      	cmp	r2, r3
 e0024e8:	d1fa      	bne.n	e0024e0 <log_service_init+0x14>
 e0024ea:	680b      	ldr	r3, [r1, #0]
 e0024ec:	f85d 4b04 	ldr.w	r4, [sp], #4
 e0024f0:	4718      	bx	r3
 e0024f2:	bf00      	nop
 e0024f4:	2000b058 	.word	0x2000b058
 e0024f8:	2000b4c4 	.word	0x2000b4c4
 e0024fc:	2000b4c8 	.word	0x2000b4c8
 e002500:	2000b4c0 	.word	0x2000b4c0

0e002504 <log_service_add_table>:
 e002504:	2900      	cmp	r1, #0
 e002506:	dd26      	ble.n	e002556 <log_service_add_table+0x52>
 e002508:	b430      	push	{r4, r5}
 e00250a:	f100 0408 	add.w	r4, r0, #8
 e00250e:	4d12      	ldr	r5, [pc, #72]	; (e002558 <log_service_add_table+0x54>)
 e002510:	eb04 1c01 	add.w	ip, r4, r1, lsl #4
 e002514:	f854 1c08 	ldr.w	r1, [r4, #-8]
 e002518:	780a      	ldrb	r2, [r1, #0]
 e00251a:	b1ca      	cbz	r2, e002550 <log_service_add_table+0x4c>
 e00251c:	2300      	movs	r3, #0
 e00251e:	eb03 1083 	add.w	r0, r3, r3, lsl #6
 e002522:	eb03 0340 	add.w	r3, r3, r0, lsl #1
 e002526:	4413      	add	r3, r2
 e002528:	f811 2f01 	ldrb.w	r2, [r1, #1]!
 e00252c:	2a00      	cmp	r2, #0
 e00252e:	d1f6      	bne.n	e00251e <log_service_add_table+0x1a>
 e002530:	f003 031f 	and.w	r3, r3, #31
 e002534:	eb05 01c3 	add.w	r1, r5, r3, lsl #3
 e002538:	f855 2033 	ldr.w	r2, [r5, r3, lsl #3]
 e00253c:	6054      	str	r4, [r2, #4]
 e00253e:	e9c4 2100 	strd	r2, r1, [r4]
 e002542:	f845 4033 	str.w	r4, [r5, r3, lsl #3]
 e002546:	3410      	adds	r4, #16
 e002548:	45a4      	cmp	ip, r4
 e00254a:	d1e3      	bne.n	e002514 <log_service_add_table+0x10>
 e00254c:	bc30      	pop	{r4, r5}
 e00254e:	4770      	bx	lr
 e002550:	4629      	mov	r1, r5
 e002552:	4613      	mov	r3, r2
 e002554:	e7f0      	b.n	e002538 <log_service_add_table+0x34>
 e002556:	4770      	bx	lr
 e002558:	2000b4c8 	.word	0x2000b4c8

0e00255c <log_action>:
 e00255c:	b570      	push	{r4, r5, r6, lr}
 e00255e:	7802      	ldrb	r2, [r0, #0]
 e002560:	4605      	mov	r5, r0
 e002562:	b31a      	cbz	r2, e0025ac <log_action+0x50>
 e002564:	4604      	mov	r4, r0
 e002566:	2300      	movs	r3, #0
 e002568:	eb03 1c83 	add.w	ip, r3, r3, lsl #6
 e00256c:	eb03 034c 	add.w	r3, r3, ip, lsl #1
 e002570:	4413      	add	r3, r2
 e002572:	f814 2f01 	ldrb.w	r2, [r4, #1]!
 e002576:	2a00      	cmp	r2, #0
 e002578:	d1f6      	bne.n	e002568 <log_action+0xc>
 e00257a:	f003 031f 	and.w	r3, r3, #31
 e00257e:	490d      	ldr	r1, [pc, #52]	; (e0025b4 <log_action+0x58>)
 e002580:	eb01 06c3 	add.w	r6, r1, r3, lsl #3
 e002584:	f851 4033 	ldr.w	r4, [r1, r3, lsl #3]
 e002588:	42b4      	cmp	r4, r6
 e00258a:	d103      	bne.n	e002594 <log_action+0x38>
 e00258c:	e00c      	b.n	e0025a8 <log_action+0x4c>
 e00258e:	6824      	ldr	r4, [r4, #0]
 e002590:	42b4      	cmp	r4, r6
 e002592:	d009      	beq.n	e0025a8 <log_action+0x4c>
 e002594:	f854 0c08 	ldr.w	r0, [r4, #-8]
 e002598:	4629      	mov	r1, r5
 e00259a:	f005 fa3d 	bl	e007a18 <____wrap_strcmp_veneer>
 e00259e:	2800      	cmp	r0, #0
 e0025a0:	d1f5      	bne.n	e00258e <log_action+0x32>
 e0025a2:	f854 0c04 	ldr.w	r0, [r4, #-4]
 e0025a6:	bd70      	pop	{r4, r5, r6, pc}
 e0025a8:	2000      	movs	r0, #0
 e0025aa:	bd70      	pop	{r4, r5, r6, pc}
 e0025ac:	4901      	ldr	r1, [pc, #4]	; (e0025b4 <log_action+0x58>)
 e0025ae:	4613      	mov	r3, r2
 e0025b0:	460e      	mov	r6, r1
 e0025b2:	e7e7      	b.n	e002584 <log_action+0x28>
 e0025b4:	2000b4c8 	.word	0x2000b4c8

0e0025b8 <log_handler>:
 e0025b8:	b530      	push	{r4, r5, lr}
 e0025ba:	b0a5      	sub	sp, #148	; 0x94
 e0025bc:	4605      	mov	r5, r0
 e0025be:	2264      	movs	r2, #100	; 0x64
 e0025c0:	2100      	movs	r1, #0
 e0025c2:	ac0b      	add	r4, sp, #44	; 0x2c
 e0025c4:	4620      	mov	r0, r4
 e0025c6:	f005 fa1f 	bl	e007a08 <____wrap_memset_veneer>
 e0025ca:	2100      	movs	r1, #0
 e0025cc:	221d      	movs	r2, #29
 e0025ce:	a803      	add	r0, sp, #12
 e0025d0:	e9cd 4101 	strd	r4, r1, [sp, #4]
 e0025d4:	f005 fa18 	bl	e007a08 <____wrap_memset_veneer>
 e0025d8:	2263      	movs	r2, #99	; 0x63
 e0025da:	4629      	mov	r1, r5
 e0025dc:	4620      	mov	r0, r4
 e0025de:	f005 f9b1 	bl	e007944 <strncpy>
 e0025e2:	4910      	ldr	r1, [pc, #64]	; (e002624 <log_handler+0x6c>)
 e0025e4:	a801      	add	r0, sp, #4
 e0025e6:	f005 f9d7 	bl	e007998 <strsep>
 e0025ea:	4604      	mov	r4, r0
 e0025ec:	490e      	ldr	r1, [pc, #56]	; (e002628 <log_handler+0x70>)
 e0025ee:	a801      	add	r0, sp, #4
 e0025f0:	f005 f9d2 	bl	e007998 <strsep>
 e0025f4:	b17c      	cbz	r4, e002616 <log_handler+0x5e>
 e0025f6:	7823      	ldrb	r3, [r4, #0]
 e0025f8:	b183      	cbz	r3, e00261c <log_handler+0x64>
 e0025fa:	2220      	movs	r2, #32
 e0025fc:	4621      	mov	r1, r4
 e0025fe:	4605      	mov	r5, r0
 e002600:	a802      	add	r0, sp, #8
 e002602:	f005 f99f 	bl	e007944 <strncpy>
 e002606:	a802      	add	r0, sp, #8
 e002608:	f7ff ffa8 	bl	e00255c <log_action>
 e00260c:	4603      	mov	r3, r0
 e00260e:	b128      	cbz	r0, e00261c <log_handler+0x64>
 e002610:	4628      	mov	r0, r5
 e002612:	461c      	mov	r4, r3
 e002614:	4798      	blx	r3
 e002616:	4620      	mov	r0, r4
 e002618:	b025      	add	sp, #148	; 0x94
 e00261a:	bd30      	pop	{r4, r5, pc}
 e00261c:	461c      	mov	r4, r3
 e00261e:	4620      	mov	r0, r4
 e002620:	b025      	add	sp, #148	; 0x94
 e002622:	bd30      	pop	{r4, r5, pc}
 e002624:	0e008280 	.word	0x0e008280
 e002628:	0e0082e0 	.word	0x0e0082e0

0e00262c <mp_commnad_handler>:
 e00262c:	b530      	push	{r4, r5, lr}
 e00262e:	b0a3      	sub	sp, #140	; 0x8c
 e002630:	4605      	mov	r5, r0
 e002632:	2280      	movs	r2, #128	; 0x80
 e002634:	2100      	movs	r1, #0
 e002636:	ac02      	add	r4, sp, #8
 e002638:	4620      	mov	r0, r4
 e00263a:	9401      	str	r4, [sp, #4]
 e00263c:	f005 f9e4 	bl	e007a08 <____wrap_memset_veneer>
 e002640:	4629      	mov	r1, r5
 e002642:	227f      	movs	r2, #127	; 0x7f
 e002644:	4620      	mov	r0, r4
 e002646:	f005 f97d 	bl	e007944 <strncpy>
 e00264a:	4910      	ldr	r1, [pc, #64]	; (e00268c <mp_commnad_handler+0x60>)
 e00264c:	a801      	add	r0, sp, #4
 e00264e:	f005 f9a3 	bl	e007998 <strsep>
 e002652:	b118      	cbz	r0, e00265c <mp_commnad_handler+0x30>
 e002654:	4b0e      	ldr	r3, [pc, #56]	; (e002690 <mp_commnad_handler+0x64>)
 e002656:	9a02      	ldr	r2, [sp, #8]
 e002658:	429a      	cmp	r2, r3
 e00265a:	d004      	beq.n	e002666 <mp_commnad_handler+0x3a>
 e00265c:	f04f 34ff 	mov.w	r4, #4294967295	; 0xffffffff
 e002660:	4620      	mov	r0, r4
 e002662:	b023      	add	sp, #140	; 0x8c
 e002664:	bd30      	pop	{r4, r5, pc}
 e002666:	f8bd 200c 	ldrh.w	r2, [sp, #12]
 e00266a:	f247 6369 	movw	r3, #30313	; 0x7669
 e00266e:	429a      	cmp	r2, r3
 e002670:	d1f4      	bne.n	e00265c <mp_commnad_handler+0x30>
 e002672:	f89d 400e 	ldrb.w	r4, [sp, #14]
 e002676:	2c00      	cmp	r4, #0
 e002678:	d1f0      	bne.n	e00265c <mp_commnad_handler+0x30>
 e00267a:	4906      	ldr	r1, [pc, #24]	; (e002694 <mp_commnad_handler+0x68>)
 e00267c:	a801      	add	r0, sp, #4
 e00267e:	f005 f98b 	bl	e007998 <strsep>
 e002682:	2201      	movs	r2, #1
 e002684:	2180      	movs	r1, #128	; 0x80
 e002686:	f003 fd7b 	bl	e006180 <inic_mp_command>
 e00268a:	e7e9      	b.n	e002660 <mp_commnad_handler+0x34>
 e00268c:	0e008260 	.word	0x0e008260
 e002690:	72707769 	.word	0x72707769
 e002694:	0e008bf4 	.word	0x0e008bf4

0e002698 <log_service>:
 e002698:	b510      	push	{r4, lr}
 e00269a:	4604      	mov	r4, r0
 e00269c:	f7ff ff8c 	bl	e0025b8 <log_handler>
 e0026a0:	b150      	cbz	r0, e0026b8 <log_service+0x20>
 e0026a2:	f000 fa33 	bl	e002b0c <rtos_mem_get_free_heap_size>
 e0026a6:	4601      	mov	r1, r0
 e0026a8:	480b      	ldr	r0, [pc, #44]	; (e0026d8 <log_service+0x40>)
 e0026aa:	f004 fcbb 	bl	e007024 <DiagPrintf_minimal>
 e0026ae:	480b      	ldr	r0, [pc, #44]	; (e0026dc <log_service+0x44>)
 e0026b0:	e8bd 4010 	ldmia.w	sp!, {r4, lr}
 e0026b4:	f004 bcb6 	b.w	e007024 <DiagPrintf_minimal>
 e0026b8:	4620      	mov	r0, r4
 e0026ba:	f7ff ffb7 	bl	e00262c <mp_commnad_handler>
 e0026be:	2800      	cmp	r0, #0
 e0026c0:	daef      	bge.n	e0026a2 <log_service+0xa>
 e0026c2:	4907      	ldr	r1, [pc, #28]	; (e0026e0 <log_service+0x48>)
 e0026c4:	4620      	mov	r0, r4
 e0026c6:	f005 f9a7 	bl	e007a18 <____wrap_strcmp_veneer>
 e0026ca:	2800      	cmp	r0, #0
 e0026cc:	d0e9      	beq.n	e0026a2 <log_service+0xa>
 e0026ce:	4621      	mov	r1, r4
 e0026d0:	4804      	ldr	r0, [pc, #16]	; (e0026e4 <log_service+0x4c>)
 e0026d2:	f004 fca7 	bl	e007024 <DiagPrintf_minimal>
 e0026d6:	e7e4      	b.n	e0026a2 <log_service+0xa>
 e0026d8:	0e0082ac 	.word	0x0e0082ac
 e0026dc:	0e0082d8 	.word	0x0e0082d8
 e0026e0:	0e00828c 	.word	0x0e00828c
 e0026e4:	0e008294 	.word	0x0e008294

0e0026e8 <app_mbedtls_free_func>:
 e0026e8:	f000 ba0c 	b.w	e002b04 <rtos_mem_free>

0e0026ec <app_mbedtls_calloc_func>:
 e0026ec:	b538      	push	{r3, r4, r5, lr}
 e0026ee:	fb01 f500 	mul.w	r5, r1, r0
 e0026f2:	4628      	mov	r0, r5
 e0026f4:	f000 f9f8 	bl	e002ae8 <rtos_mem_malloc>
 e0026f8:	4604      	mov	r4, r0
 e0026fa:	b118      	cbz	r0, e002704 <app_mbedtls_calloc_func+0x18>
 e0026fc:	462a      	mov	r2, r5
 e0026fe:	2100      	movs	r1, #0
 e002700:	f005 f982 	bl	e007a08 <____wrap_memset_veneer>
 e002704:	4620      	mov	r0, r4
 e002706:	bd38      	pop	{r3, r4, r5, pc}

0e002708 <app_pmu_init>:
 e002708:	4a06      	ldr	r2, [pc, #24]	; (e002724 <app_pmu_init+0x1c>)
 e00270a:	2000      	movs	r0, #0
 e00270c:	b508      	push	{r3, lr}
 e00270e:	6893      	ldr	r3, [r2, #8]
 e002710:	f043 5300 	orr.w	r3, r3, #536870912	; 0x20000000
 e002714:	6093      	str	r3, [r2, #8]
 e002716:	f7ff fb83 	bl	e001e20 <pmu_set_sleep_type>
 e00271a:	e8bd 4008 	ldmia.w	sp!, {r3, lr}
 e00271e:	f7ff bb87 	b.w	e001e30 <pmu_init_wakeup_timer>
 e002722:	bf00      	nop
 e002724:	20004004 	.word	0x20004004

0e002728 <app_pre_example>:
 e002728:	4770      	bx	lr
 e00272a:	bf00      	nop

0e00272c <app_example>:
 e00272c:	4770      	bx	lr
 e00272e:	bf00      	nop

0e002730 <main>:
 e002730:	b5f8      	push	{r3, r4, r5, r6, r7, lr}
 e002732:	4d1e      	ldr	r5, [pc, #120]	; (e0027ac <main+0x7c>)
 e002734:	2249      	movs	r2, #73	; 0x49
 e002736:	4b1e      	ldr	r3, [pc, #120]	; (e0027b0 <main+0x80>)
 e002738:	2004      	movs	r0, #4
 e00273a:	4629      	mov	r1, r5
 e00273c:	2400      	movs	r4, #0
 e00273e:	f7ff fe7d 	bl	e00243c <rtk_log_write>
 e002742:	4b1c      	ldr	r3, [pc, #112]	; (e0027b4 <main+0x84>)
 e002744:	f04f 32ff 	mov.w	r2, #4294967295	; 0xffffffff
 e002748:	4e1b      	ldr	r6, [pc, #108]	; (e0027b8 <main+0x88>)
 e00274a:	4621      	mov	r1, r4
 e00274c:	4620      	mov	r0, r4
 e00274e:	601a      	str	r2, [r3, #0]
 e002750:	60dc      	str	r4, [r3, #12]
 e002752:	4f1a      	ldr	r7, [pc, #104]	; (e0027bc <main+0x8c>)
 e002754:	e9c3 4401 	strd	r4, r4, [r3, #4]
 e002758:	4b19      	ldr	r3, [pc, #100]	; (e0027c0 <main+0x90>)
 e00275a:	4798      	blx	r3
 e00275c:	f001 fb1c 	bl	e003d98 <shell_init_ram>
 e002760:	4632      	mov	r2, r6
 e002762:	2108      	movs	r1, #8
 e002764:	2305      	movs	r3, #5
 e002766:	4817      	ldr	r0, [pc, #92]	; (e0027c4 <main+0x94>)
 e002768:	47b8      	blx	r7
 e00276a:	4b17      	ldr	r3, [pc, #92]	; (e0027c8 <main+0x98>)
 e00276c:	2008      	movs	r0, #8
 e00276e:	4798      	blx	r3
 e002770:	4630      	mov	r0, r6
 e002772:	f7ff f859 	bl	e001828 <ipc_table_init>
 e002776:	4915      	ldr	r1, [pc, #84]	; (e0027cc <main+0x9c>)
 e002778:	4815      	ldr	r0, [pc, #84]	; (e0027d0 <main+0xa0>)
 e00277a:	f000 fba7 	bl	e002ecc <mbedtls_platform_set_calloc_free>
 e00277e:	4b15      	ldr	r3, [pc, #84]	; (e0027d4 <main+0xa4>)
 e002780:	601c      	str	r4, [r3, #0]
 e002782:	f7ff ffd1 	bl	e002728 <app_pre_example>
 e002786:	f002 fda9 	bl	e0052dc <wlan_initialize>
 e00278a:	f7ff ffbd 	bl	e002708 <app_pmu_init>
 e00278e:	f7ff ffcd 	bl	e00272c <app_example>
 e002792:	4811      	ldr	r0, [pc, #68]	; (e0027d8 <main+0xa8>)
 e002794:	f004 f942 	bl	e006a1c <IPC_SEMDelay>
 e002798:	4b10      	ldr	r3, [pc, #64]	; (e0027dc <main+0xac>)
 e00279a:	2249      	movs	r2, #73	; 0x49
 e00279c:	4629      	mov	r1, r5
 e00279e:	2004      	movs	r0, #4
 e0027a0:	f7ff fe4c 	bl	e00243c <rtk_log_write>
 e0027a4:	f000 fb34 	bl	e002e10 <rtos_sched_start>
 e0027a8:	4620      	mov	r0, r4
 e0027aa:	bdf8      	pop	{r3, r4, r5, r6, r7, pc}
 e0027ac:	0e008304 	.word	0x0e008304
 e0027b0:	0e008324 	.word	0x0e008324
 e0027b4:	20004004 	.word	0x20004004
 e0027b8:	41014080 	.word	0x41014080
 e0027bc:	0000d769 	.word	0x0000d769
 e0027c0:	0000e505 	.word	0x0000e505
 e0027c4:	0e001ae1 	.word	0x0e001ae1
 e0027c8:	0000d641 	.word	0x0000d641
 e0027cc:	0e0026e9 	.word	0x0e0026e9
 e0027d0:	0e0026ed 	.word	0x0e0026ed
 e0027d4:	2000b5c8 	.word	0x2000b5c8
 e0027d8:	0e002e91 	.word	0x0e002e91
 e0027dc:	0e008330 	.word	0x0e008330

0e0027e0 <CmdRamHelp>:
 e0027e0:	b5f8      	push	{r3, r4, r5, r6, r7, lr}
 e0027e2:	4f0d      	ldr	r7, [pc, #52]	; (e002818 <CmdRamHelp+0x38>)
 e0027e4:	4c0d      	ldr	r4, [pc, #52]	; (e00281c <CmdRamHelp+0x3c>)
 e0027e6:	480e      	ldr	r0, [pc, #56]	; (e002820 <CmdRamHelp+0x40>)
 e0027e8:	1b3f      	subs	r7, r7, r4
 e0027ea:	093f      	lsrs	r7, r7, #4
 e0027ec:	4639      	mov	r1, r7
 e0027ee:	f004 fc19 	bl	e007024 <DiagPrintf_minimal>
 e0027f2:	b157      	cbz	r7, e00280a <CmdRamHelp+0x2a>
 e0027f4:	4e0b      	ldr	r6, [pc, #44]	; (e002824 <CmdRamHelp+0x44>)
 e0027f6:	eb04 1507 	add.w	r5, r4, r7, lsl #4
 e0027fa:	68e1      	ldr	r1, [r4, #12]
 e0027fc:	4630      	mov	r0, r6
 e0027fe:	3410      	adds	r4, #16
 e002800:	b109      	cbz	r1, e002806 <CmdRamHelp+0x26>
 e002802:	f004 fc0f 	bl	e007024 <DiagPrintf_minimal>
 e002806:	42ac      	cmp	r4, r5
 e002808:	d1f7      	bne.n	e0027fa <CmdRamHelp+0x1a>
 e00280a:	4639      	mov	r1, r7
 e00280c:	4806      	ldr	r0, [pc, #24]	; (e002828 <CmdRamHelp+0x48>)
 e00280e:	f004 fc09 	bl	e007024 <DiagPrintf_minimal>
 e002812:	2001      	movs	r0, #1
 e002814:	bdf8      	pop	{r3, r4, r5, r6, r7, pc}
 e002816:	bf00      	nop
 e002818:	0e009990 	.word	0x0e009990
 e00281c:	0e009950 	.word	0x0e009950
 e002820:	0e008348 	.word	0x0e008348
 e002824:	0e008ed8 	.word	0x0e008ed8
 e002828:	0e008388 	.word	0x0e008388

0e00282c <cmd_reboot>:
 e00282c:	b538      	push	{r3, r4, r5, lr}
 e00282e:	4604      	mov	r4, r0
 e002830:	480b      	ldr	r0, [pc, #44]	; (e002860 <cmd_reboot+0x34>)
 e002832:	460d      	mov	r5, r1
 e002834:	f004 fbf6 	bl	e007024 <DiagPrintf_minimal>
 e002838:	b91c      	cbnz	r4, e002842 <cmd_reboot+0x16>
 e00283a:	f7ff fb17 	bl	e001e6c <System_Reset>
 e00283e:	2001      	movs	r0, #1
 e002840:	bd38      	pop	{r3, r4, r5, pc}
 e002842:	4908      	ldr	r1, [pc, #32]	; (e002864 <cmd_reboot+0x38>)
 e002844:	6828      	ldr	r0, [r5, #0]
 e002846:	4b08      	ldr	r3, [pc, #32]	; (e002868 <cmd_reboot+0x3c>)
 e002848:	4798      	blx	r3
 e00284a:	2800      	cmp	r0, #0
 e00284c:	d1f5      	bne.n	e00283a <cmd_reboot+0xe>
 e00284e:	f44f 7100 	mov.w	r1, #512	; 0x200
 e002852:	4b06      	ldr	r3, [pc, #24]	; (e00286c <cmd_reboot+0x40>)
 e002854:	4798      	blx	r3
 e002856:	f7ff fb09 	bl	e001e6c <System_Reset>
 e00285a:	2001      	movs	r0, #1
 e00285c:	bd38      	pop	{r3, r4, r5, pc}
 e00285e:	bf00      	nop
 e002860:	0e0083c8 	.word	0x0e0083c8
 e002864:	0e0083d8 	.word	0x0e0083d8
 e002868:	00011e89 	.word	0x00011e89
 e00286c:	000090a1 	.word	0x000090a1

0e002870 <cmd_write_word>:
 e002870:	b570      	push	{r4, r5, r6, lr}
 e002872:	460c      	mov	r4, r1
 e002874:	4e13      	ldr	r6, [pc, #76]	; (e0028c4 <cmd_write_word+0x54>)
 e002876:	2210      	movs	r2, #16
 e002878:	2100      	movs	r1, #0
 e00287a:	6820      	ldr	r0, [r4, #0]
 e00287c:	47b0      	blx	r6
 e00287e:	4605      	mov	r5, r0
 e002880:	2210      	movs	r2, #16
 e002882:	2100      	movs	r1, #0
 e002884:	6860      	ldr	r0, [r4, #4]
 e002886:	47b0      	blx	r6
 e002888:	f025 0603 	bic.w	r6, r5, #3
 e00288c:	4604      	mov	r4, r0
 e00288e:	480e      	ldr	r0, [pc, #56]	; (e0028c8 <cmd_write_word+0x58>)
 e002890:	4631      	mov	r1, r6
 e002892:	4622      	mov	r2, r4
 e002894:	f004 fbc6 	bl	e007024 <DiagPrintf_minimal>
 e002898:	4b0c      	ldr	r3, [pc, #48]	; (e0028cc <cmd_write_word+0x5c>)
 e00289a:	6034      	str	r4, [r6, #0]
 e00289c:	695b      	ldr	r3, [r3, #20]
 e00289e:	03db      	lsls	r3, r3, #15
 e0028a0:	d50d      	bpl.n	e0028be <cmd_write_word+0x4e>
 e0028a2:	f015 0f1c 	tst.w	r5, #28
 e0028a6:	bf18      	it	ne
 e0028a8:	f025 061f 	bicne.w	r6, r5, #31
 e0028ac:	f3bf 8f4f 	dsb	sy
 e0028b0:	4b06      	ldr	r3, [pc, #24]	; (e0028cc <cmd_write_word+0x5c>)
 e0028b2:	f8c3 6268 	str.w	r6, [r3, #616]	; 0x268
 e0028b6:	f3bf 8f4f 	dsb	sy
 e0028ba:	f3bf 8f6f 	isb	sy
 e0028be:	2000      	movs	r0, #0
 e0028c0:	bd70      	pop	{r4, r5, r6, pc}
 e0028c2:	bf00      	nop
 e0028c4:	00011fc5 	.word	0x00011fc5
 e0028c8:	0e0083e4 	.word	0x0e0083e4
 e0028cc:	e000ed00 	.word	0xe000ed00

0e0028d0 <cmd_dump_word>:
 e0028d0:	e92d 41f0 	stmdb	sp!, {r4, r5, r6, r7, r8, lr}
 e0028d4:	4604      	mov	r4, r0
 e0028d6:	4b61      	ldr	r3, [pc, #388]	; (e002a5c <cmd_dump_word+0x18c>)
 e0028d8:	460f      	mov	r7, r1
 e0028da:	4798      	blx	r3
 e0028dc:	1e63      	subs	r3, r4, #1
 e0028de:	2b02      	cmp	r3, #2
 e0028e0:	f200 808a 	bhi.w	e0029f8 <cmd_dump_word+0x128>
 e0028e4:	2c03      	cmp	r4, #3
 e0028e6:	4606      	mov	r6, r0
 e0028e8:	d03c      	beq.n	e002964 <cmd_dump_word+0x94>
 e0028ea:	2c01      	cmp	r4, #1
 e0028ec:	f040 8091 	bne.w	e002a12 <cmd_dump_word+0x142>
 e0028f0:	2210      	movs	r2, #16
 e0028f2:	4b5b      	ldr	r3, [pc, #364]	; (e002a60 <cmd_dump_word+0x190>)
 e0028f4:	2100      	movs	r1, #0
 e0028f6:	6838      	ldr	r0, [r7, #0]
 e0028f8:	4798      	blx	r3
 e0028fa:	f020 0c03 	bic.w	ip, r0, #3
 e0028fe:	4602      	mov	r2, r0
 e002900:	f10c 4378 	add.w	r3, ip, #4160749568	; 0xf8000000
 e002904:	f1b3 6f00 	cmp.w	r3, #134217728	; 0x8000000
 e002908:	d201      	bcs.n	e00290e <cmd_dump_word+0x3e>
 e00290a:	2e00      	cmp	r6, #0
 e00290c:	d17c      	bne.n	e002a08 <cmd_dump_word+0x138>
 e00290e:	2501      	movs	r5, #1
 e002910:	4b54      	ldr	r3, [pc, #336]	; (e002a64 <cmd_dump_word+0x194>)
 e002912:	695b      	ldr	r3, [r3, #20]
 e002914:	03db      	lsls	r3, r3, #15
 e002916:	d51e      	bpl.n	e002956 <cmd_dump_word+0x86>
 e002918:	f012 031c 	ands.w	r3, r2, #28
 e00291c:	ea4f 0185 	mov.w	r1, r5, lsl #2
 e002920:	f000 809a 	beq.w	e002a58 <cmd_dump_word+0x188>
 e002924:	f022 021f 	bic.w	r2, r2, #31
 e002928:	4419      	add	r1, r3
 e00292a:	f3bf 8f4f 	dsb	sy
 e00292e:	2900      	cmp	r1, #0
 e002930:	dd0d      	ble.n	e00294e <cmd_dump_word+0x7e>
 e002932:	3901      	subs	r1, #1
 e002934:	f102 0320 	add.w	r3, r2, #32
 e002938:	484a      	ldr	r0, [pc, #296]	; (e002a64 <cmd_dump_word+0x194>)
 e00293a:	f021 011f 	bic.w	r1, r1, #31
 e00293e:	4419      	add	r1, r3
 e002940:	428b      	cmp	r3, r1
 e002942:	f8c0 2270 	str.w	r2, [r0, #624]	; 0x270
 e002946:	461a      	mov	r2, r3
 e002948:	f103 0320 	add.w	r3, r3, #32
 e00294c:	d1f8      	bne.n	e002940 <cmd_dump_word+0x70>
 e00294e:	f3bf 8f4f 	dsb	sy
 e002952:	f3bf 8f6f 	isb	sy
 e002956:	4660      	mov	r0, ip
 e002958:	4629      	mov	r1, r5
 e00295a:	f7ff fd0b 	bl	e002374 <rtk_log_memory_dump_word>
 e00295e:	2001      	movs	r0, #1
 e002960:	e8bd 81f0 	ldmia.w	sp!, {r4, r5, r6, r7, r8, pc}
 e002964:	68bb      	ldr	r3, [r7, #8]
 e002966:	220a      	movs	r2, #10
 e002968:	2100      	movs	r1, #0
 e00296a:	4c3d      	ldr	r4, [pc, #244]	; (e002a60 <cmd_dump_word+0x190>)
 e00296c:	781b      	ldrb	r3, [r3, #0]
 e00296e:	6878      	ldr	r0, [r7, #4]
 e002970:	f003 03df 	and.w	r3, r3, #223	; 0xdf
 e002974:	f1a3 0842 	sub.w	r8, r3, #66	; 0x42
 e002978:	47a0      	blx	r4
 e00297a:	2210      	movs	r2, #16
 e00297c:	2100      	movs	r1, #0
 e00297e:	4605      	mov	r5, r0
 e002980:	6838      	ldr	r0, [r7, #0]
 e002982:	47a0      	blx	r4
 e002984:	f020 0c03 	bic.w	ip, r0, #3
 e002988:	fab8 f888 	clz	r8, r8
 e00298c:	4602      	mov	r2, r0
 e00298e:	f10c 4178 	add.w	r1, ip, #4160749568	; 0xf8000000
 e002992:	ea4f 1858 	mov.w	r8, r8, lsr #5
 e002996:	f1b1 6f00 	cmp.w	r1, #134217728	; 0x8000000
 e00299a:	d333      	bcc.n	e002a04 <cmd_dump_word+0x134>
 e00299c:	1e2b      	subs	r3, r5, #0
 e00299e:	bf18      	it	ne
 e0029a0:	2301      	movne	r3, #1
 e0029a2:	2d00      	cmp	r5, #0
 e0029a4:	d04f      	beq.n	e002a46 <cmd_dump_word+0x176>
 e0029a6:	f1b8 0f00 	cmp.w	r8, #0
 e0029aa:	d049      	beq.n	e002a40 <cmd_dump_word+0x170>
 e0029ac:	4b2d      	ldr	r3, [pc, #180]	; (e002a64 <cmd_dump_word+0x194>)
 e0029ae:	695b      	ldr	r3, [r3, #20]
 e0029b0:	03d9      	lsls	r1, r3, #15
 e0029b2:	d51a      	bpl.n	e0029ea <cmd_dump_word+0x11a>
 e0029b4:	f012 041c 	ands.w	r4, r2, #28
 e0029b8:	d14a      	bne.n	e002a50 <cmd_dump_word+0x180>
 e0029ba:	462c      	mov	r4, r5
 e0029bc:	4662      	mov	r2, ip
 e0029be:	f3bf 8f4f 	dsb	sy
 e0029c2:	2c00      	cmp	r4, #0
 e0029c4:	dd0d      	ble.n	e0029e2 <cmd_dump_word+0x112>
 e0029c6:	3c01      	subs	r4, #1
 e0029c8:	f102 0320 	add.w	r3, r2, #32
 e0029cc:	4925      	ldr	r1, [pc, #148]	; (e002a64 <cmd_dump_word+0x194>)
 e0029ce:	f024 041f 	bic.w	r4, r4, #31
 e0029d2:	441c      	add	r4, r3
 e0029d4:	42a3      	cmp	r3, r4
 e0029d6:	f8c1 2270 	str.w	r2, [r1, #624]	; 0x270
 e0029da:	461a      	mov	r2, r3
 e0029dc:	f103 0320 	add.w	r3, r3, #32
 e0029e0:	d1f8      	bne.n	e0029d4 <cmd_dump_word+0x104>
 e0029e2:	f3bf 8f4f 	dsb	sy
 e0029e6:	f3bf 8f6f 	isb	sy
 e0029ea:	4660      	mov	r0, ip
 e0029ec:	4629      	mov	r1, r5
 e0029ee:	f7ff fcf3 	bl	e0023d8 <rtk_log_memory_dump_byte>
 e0029f2:	2001      	movs	r0, #1
 e0029f4:	e8bd 81f0 	ldmia.w	sp!, {r4, r5, r6, r7, r8, pc}
 e0029f8:	481b      	ldr	r0, [pc, #108]	; (e002a68 <cmd_dump_word+0x198>)
 e0029fa:	f004 fb13 	bl	e007024 <DiagPrintf_minimal>
 e0029fe:	2000      	movs	r0, #0
 e002a00:	e8bd 81f0 	ldmia.w	sp!, {r4, r5, r6, r7, r8, pc}
 e002a04:	2e00      	cmp	r6, #0
 e002a06:	d0c9      	beq.n	e00299c <cmd_dump_word+0xcc>
 e002a08:	4818      	ldr	r0, [pc, #96]	; (e002a6c <cmd_dump_word+0x19c>)
 e002a0a:	f004 fb0b 	bl	e007024 <DiagPrintf_minimal>
 e002a0e:	2001      	movs	r0, #1
 e002a10:	e7a6      	b.n	e002960 <cmd_dump_word+0x90>
 e002a12:	220a      	movs	r2, #10
 e002a14:	2100      	movs	r1, #0
 e002a16:	4c12      	ldr	r4, [pc, #72]	; (e002a60 <cmd_dump_word+0x190>)
 e002a18:	6878      	ldr	r0, [r7, #4]
 e002a1a:	47a0      	blx	r4
 e002a1c:	2210      	movs	r2, #16
 e002a1e:	4605      	mov	r5, r0
 e002a20:	2100      	movs	r1, #0
 e002a22:	6838      	ldr	r0, [r7, #0]
 e002a24:	47a0      	blx	r4
 e002a26:	f020 0c03 	bic.w	ip, r0, #3
 e002a2a:	4602      	mov	r2, r0
 e002a2c:	f10c 4378 	add.w	r3, ip, #4160749568	; 0xf8000000
 e002a30:	f1b3 6f00 	cmp.w	r3, #134217728	; 0x8000000
 e002a34:	d201      	bcs.n	e002a3a <cmd_dump_word+0x16a>
 e002a36:	2e00      	cmp	r6, #0
 e002a38:	d1e6      	bne.n	e002a08 <cmd_dump_word+0x138>
 e002a3a:	1e2b      	subs	r3, r5, #0
 e002a3c:	bf18      	it	ne
 e002a3e:	2301      	movne	r3, #1
 e002a40:	2b00      	cmp	r3, #0
 e002a42:	f47f af65 	bne.w	e002910 <cmd_dump_word+0x40>
 e002a46:	480a      	ldr	r0, [pc, #40]	; (e002a70 <cmd_dump_word+0x1a0>)
 e002a48:	f004 faec 	bl	e007024 <DiagPrintf_minimal>
 e002a4c:	2000      	movs	r0, #0
 e002a4e:	e787      	b.n	e002960 <cmd_dump_word+0x90>
 e002a50:	f022 021f 	bic.w	r2, r2, #31
 e002a54:	442c      	add	r4, r5
 e002a56:	e7b2      	b.n	e0029be <cmd_dump_word+0xee>
 e002a58:	4662      	mov	r2, ip
 e002a5a:	e766      	b.n	e00292a <cmd_dump_word+0x5a>
 e002a5c:	0000c249 	.word	0x0000c249
 e002a60:	00011fc5 	.word	0x00011fc5
 e002a64:	e000ed00 	.word	0xe000ed00
 e002a68:	0e0083f4 	.word	0x0e0083f4
 e002a6c:	0e008410 	.word	0x0e008410
 e002a70:	0e008434 	.word	0x0e008434

0e002a74 <rtos_critical_is_in_interrupt>:
 e002a74:	f3ef 8003 	mrs	r0, PSR
 e002a78:	f3c0 0008 	ubfx	r0, r0, #0, #9
 e002a7c:	3800      	subs	r0, #0
 e002a7e:	bf18      	it	ne
 e002a80:	2001      	movne	r0, #1
 e002a82:	4770      	bx	lr

0e002a84 <rtos_critical_enter>:
 e002a84:	f3ef 8303 	mrs	r3, PSR
 e002a88:	f3c3 0308 	ubfx	r3, r3, #0, #9
 e002a8c:	b173      	cbz	r3, e002aac <rtos_critical_enter+0x28>
 e002a8e:	b510      	push	{r4, lr}
 e002a90:	4c07      	ldr	r4, [pc, #28]	; (e002ab0 <rtos_critical_enter+0x2c>)
 e002a92:	8823      	ldrh	r3, [r4, #0]
 e002a94:	b113      	cbz	r3, e002a9c <rtos_critical_enter+0x18>
 e002a96:	3301      	adds	r3, #1
 e002a98:	8023      	strh	r3, [r4, #0]
 e002a9a:	bd10      	pop	{r4, pc}
 e002a9c:	f000 fa8a 	bl	e002fb4 <ulSetInterruptMaskFromISR>
 e002aa0:	8823      	ldrh	r3, [r4, #0]
 e002aa2:	4a04      	ldr	r2, [pc, #16]	; (e002ab4 <rtos_critical_enter+0x30>)
 e002aa4:	3301      	adds	r3, #1
 e002aa6:	6010      	str	r0, [r2, #0]
 e002aa8:	8023      	strh	r3, [r4, #0]
 e002aaa:	bd10      	pop	{r4, pc}
 e002aac:	f000 bac8 	b.w	e003040 <vPortEnterCritical>
 e002ab0:	2000b5cc 	.word	0x2000b5cc
 e002ab4:	2000b5d0 	.word	0x2000b5d0

0e002ab8 <rtos_critical_exit>:
 e002ab8:	f3ef 8303 	mrs	r3, PSR
 e002abc:	f3c3 0308 	ubfx	r3, r3, #0, #9
 e002ac0:	b153      	cbz	r3, e002ad8 <rtos_critical_exit+0x20>
 e002ac2:	4a06      	ldr	r2, [pc, #24]	; (e002adc <rtos_critical_exit+0x24>)
 e002ac4:	8813      	ldrh	r3, [r2, #0]
 e002ac6:	3b01      	subs	r3, #1
 e002ac8:	b29b      	uxth	r3, r3
 e002aca:	8013      	strh	r3, [r2, #0]
 e002acc:	b103      	cbz	r3, e002ad0 <rtos_critical_exit+0x18>
 e002ace:	4770      	bx	lr
 e002ad0:	4b03      	ldr	r3, [pc, #12]	; (e002ae0 <rtos_critical_exit+0x28>)
 e002ad2:	6818      	ldr	r0, [r3, #0]
 e002ad4:	f000 ba74 	b.w	e002fc0 <vClearInterruptMaskFromISR>
 e002ad8:	f000 bad0 	b.w	e00307c <vPortExitCritical>
 e002adc:	2000b5cc 	.word	0x2000b5cc
 e002ae0:	2000b5d0 	.word	0x2000b5d0

0e002ae4 <rtos_mem_init>:
 e002ae4:	f7ff ba6a 	b.w	e001fbc <os_heap_init>

0e002ae8 <rtos_mem_malloc>:
 e002ae8:	f7ff bb14 	b.w	e002114 <pvPortMalloc>

0e002aec <rtos_mem_zmalloc>:
 e002aec:	b538      	push	{r3, r4, r5, lr}
 e002aee:	4605      	mov	r5, r0
 e002af0:	f7ff fb10 	bl	e002114 <pvPortMalloc>
 e002af4:	4604      	mov	r4, r0
 e002af6:	b118      	cbz	r0, e002b00 <rtos_mem_zmalloc+0x14>
 e002af8:	462a      	mov	r2, r5
 e002afa:	2100      	movs	r1, #0
 e002afc:	f004 ff84 	bl	e007a08 <____wrap_memset_veneer>
 e002b00:	4620      	mov	r0, r4
 e002b02:	bd38      	pop	{r3, r4, r5, pc}

0e002b04 <rtos_mem_free>:
 e002b04:	b108      	cbz	r0, e002b0a <rtos_mem_free+0x6>
 e002b06:	f7ff bb69 	b.w	e0021dc <vPortFree>
 e002b0a:	4770      	bx	lr

0e002b0c <rtos_mem_get_free_heap_size>:
 e002b0c:	f7ff bb94 	b.w	e002238 <xPortGetFreeHeapSize>

0e002b10 <rtos_mutex_create_static>:
 e002b10:	b510      	push	{r4, lr}
 e002b12:	4604      	mov	r4, r0
 e002b14:	f000 f94c 	bl	e002db0 <__reserved_get_mutex_from_poll>
 e002b18:	b148      	cbz	r0, e002b2e <rtos_mutex_create_static+0x1e>
 e002b1a:	4601      	mov	r1, r0
 e002b1c:	2001      	movs	r0, #1
 e002b1e:	f000 fded 	bl	e0036fc <xQueueCreateMutexStatic>
 e002b22:	fab0 f380 	clz	r3, r0
 e002b26:	6020      	str	r0, [r4, #0]
 e002b28:	095b      	lsrs	r3, r3, #5
 e002b2a:	4258      	negs	r0, r3
 e002b2c:	bd10      	pop	{r4, pc}
 e002b2e:	b144      	cbz	r4, e002b42 <rtos_mutex_create_static+0x32>
 e002b30:	2001      	movs	r0, #1
 e002b32:	f000 fe19 	bl	e003768 <xQueueCreateMutex>
 e002b36:	fab0 f380 	clz	r3, r0
 e002b3a:	6020      	str	r0, [r4, #0]
 e002b3c:	095b      	lsrs	r3, r3, #5
 e002b3e:	4258      	negs	r0, r3
 e002b40:	bd10      	pop	{r4, pc}
 e002b42:	f04f 30ff 	mov.w	r0, #4294967295	; 0xffffffff
 e002b46:	bd10      	pop	{r4, pc}

0e002b48 <rtos_sema_create_static>:
 e002b48:	b570      	push	{r4, r5, r6, lr}
 e002b4a:	4604      	mov	r4, r0
 e002b4c:	460e      	mov	r6, r1
 e002b4e:	4615      	mov	r5, r2
 e002b50:	f000 f946 	bl	e002de0 <__reserved_get_sema_from_poll>
 e002b54:	b150      	cbz	r0, e002b6c <rtos_sema_create_static+0x24>
 e002b56:	4602      	mov	r2, r0
 e002b58:	4631      	mov	r1, r6
 e002b5a:	4628      	mov	r0, r5
 e002b5c:	f000 fce4 	bl	e003528 <xQueueCreateCountingSemaphoreStatic>
 e002b60:	fab0 f380 	clz	r3, r0
 e002b64:	6020      	str	r0, [r4, #0]
 e002b66:	095b      	lsrs	r3, r3, #5
 e002b68:	4258      	negs	r0, r3
 e002b6a:	bd70      	pop	{r4, r5, r6, pc}
 e002b6c:	b14c      	cbz	r4, e002b82 <rtos_sema_create_static+0x3a>
 e002b6e:	4631      	mov	r1, r6
 e002b70:	4628      	mov	r0, r5
 e002b72:	f000 fd09 	bl	e003588 <xQueueCreateCountingSemaphore>
 e002b76:	fab0 f380 	clz	r3, r0
 e002b7a:	6020      	str	r0, [r4, #0]
 e002b7c:	095b      	lsrs	r3, r3, #5
 e002b7e:	4258      	negs	r0, r3
 e002b80:	bd70      	pop	{r4, r5, r6, pc}
 e002b82:	f04f 30ff 	mov.w	r0, #4294967295	; 0xffffffff
 e002b86:	bd70      	pop	{r4, r5, r6, pc}

0e002b88 <rtos_sema_create_binary>:
 e002b88:	b160      	cbz	r0, e002ba4 <rtos_sema_create_binary+0x1c>
 e002b8a:	2203      	movs	r2, #3
 e002b8c:	2100      	movs	r1, #0
 e002b8e:	b510      	push	{r4, lr}
 e002b90:	4604      	mov	r4, r0
 e002b92:	2001      	movs	r0, #1
 e002b94:	f000 fc8e 	bl	e0034b4 <xQueueGenericCreate>
 e002b98:	fab0 f380 	clz	r3, r0
 e002b9c:	6020      	str	r0, [r4, #0]
 e002b9e:	095b      	lsrs	r3, r3, #5
 e002ba0:	4258      	negs	r0, r3
 e002ba2:	bd10      	pop	{r4, pc}
 e002ba4:	f04f 30ff 	mov.w	r0, #4294967295	; 0xffffffff
 e002ba8:	4770      	bx	lr
 e002baa:	bf00      	nop

0e002bac <rtos_sema_take>:
 e002bac:	b570      	push	{r4, r5, r6, lr}
 e002bae:	2600      	movs	r6, #0
 e002bb0:	b082      	sub	sp, #8
 e002bb2:	4604      	mov	r4, r0
 e002bb4:	460d      	mov	r5, r1
 e002bb6:	9601      	str	r6, [sp, #4]
 e002bb8:	f7ff ff5c 	bl	e002a74 <rtos_critical_is_in_interrupt>
 e002bbc:	b188      	cbz	r0, e002be2 <rtos_sema_take+0x36>
 e002bbe:	aa01      	add	r2, sp, #4
 e002bc0:	4631      	mov	r1, r6
 e002bc2:	4620      	mov	r0, r4
 e002bc4:	f000 ffc2 	bl	e003b4c <xQueueReceiveFromISR>
 e002bc8:	2801      	cmp	r0, #1
 e002bca:	d114      	bne.n	e002bf6 <rtos_sema_take+0x4a>
 e002bcc:	9801      	ldr	r0, [sp, #4]
 e002bce:	b180      	cbz	r0, e002bf2 <rtos_sema_take+0x46>
 e002bd0:	f04f 23e0 	mov.w	r3, #3758153728	; 0xe000e000
 e002bd4:	f04f 5280 	mov.w	r2, #268435456	; 0x10000000
 e002bd8:	4630      	mov	r0, r6
 e002bda:	f8c3 2d04 	str.w	r2, [r3, #3332]	; 0xd04
 e002bde:	b002      	add	sp, #8
 e002be0:	bd70      	pop	{r4, r5, r6, pc}
 e002be2:	4629      	mov	r1, r5
 e002be4:	4620      	mov	r0, r4
 e002be6:	f000 ff0f 	bl	e003a08 <xQueueSemaphoreTake>
 e002bea:	3801      	subs	r0, #1
 e002bec:	bf18      	it	ne
 e002bee:	f04f 30ff 	movne.w	r0, #4294967295	; 0xffffffff
 e002bf2:	b002      	add	sp, #8
 e002bf4:	bd70      	pop	{r4, r5, r6, pc}
 e002bf6:	f04f 30ff 	mov.w	r0, #4294967295	; 0xffffffff
 e002bfa:	e7fa      	b.n	e002bf2 <rtos_sema_take+0x46>

0e002bfc <rtos_sema_give>:
 e002bfc:	b510      	push	{r4, lr}
 e002bfe:	2300      	movs	r3, #0
 e002c00:	b082      	sub	sp, #8
 e002c02:	4604      	mov	r4, r0
 e002c04:	9301      	str	r3, [sp, #4]
 e002c06:	f7ff ff35 	bl	e002a74 <rtos_critical_is_in_interrupt>
 e002c0a:	b188      	cbz	r0, e002c30 <rtos_sema_give+0x34>
 e002c0c:	a901      	add	r1, sp, #4
 e002c0e:	4620      	mov	r0, r4
 e002c10:	f000 fe3a 	bl	e003888 <xQueueGiveFromISR>
 e002c14:	9b01      	ldr	r3, [sp, #4]
 e002c16:	b12b      	cbz	r3, e002c24 <rtos_sema_give+0x28>
 e002c18:	f04f 23e0 	mov.w	r3, #3758153728	; 0xe000e000
 e002c1c:	f04f 5280 	mov.w	r2, #268435456	; 0x10000000
 e002c20:	f8c3 2d04 	str.w	r2, [r3, #3332]	; 0xd04
 e002c24:	3801      	subs	r0, #1
 e002c26:	bf18      	it	ne
 e002c28:	f04f 30ff 	movne.w	r0, #4294967295	; 0xffffffff
 e002c2c:	b002      	add	sp, #8
 e002c2e:	bd10      	pop	{r4, pc}
 e002c30:	4603      	mov	r3, r0
 e002c32:	4602      	mov	r2, r0
 e002c34:	4601      	mov	r1, r0
 e002c36:	4620      	mov	r0, r4
 e002c38:	f000 fcd8 	bl	e0035ec <xQueueGenericSend>
 e002c3c:	3801      	subs	r0, #1
 e002c3e:	bf18      	it	ne
 e002c40:	f04f 30ff 	movne.w	r0, #4294967295	; 0xffffffff
 e002c44:	b002      	add	sp, #8
 e002c46:	bd10      	pop	{r4, pc}

0e002c48 <__reserved_get_from_poll>:
 e002c48:	e92d 4ff8 	stmdb	sp!, {r3, r4, r5, r6, r7, r8, r9, sl, fp, lr}
 e002c4c:	6814      	ldr	r4, [r2, #0]
 e002c4e:	4617      	mov	r7, r2
 e002c50:	4606      	mov	r6, r0
 e002c52:	460d      	mov	r5, r1
 e002c54:	4698      	mov	r8, r3
 e002c56:	f8dd a028 	ldr.w	sl, [sp, #40]	; 0x28
 e002c5a:	f8dd 902c 	ldr.w	r9, [sp, #44]	; 0x2c
 e002c5e:	b9d4      	cbnz	r4, e002c96 <__reserved_get_from_poll+0x4e>
 e002c60:	2801      	cmp	r0, #1
 e002c62:	d051      	beq.n	e002d08 <__reserved_get_from_poll+0xc0>
 e002c64:	2802      	cmp	r0, #2
 e002c66:	d066      	beq.n	e002d36 <__reserved_get_from_poll+0xee>
 e002c68:	f8df b138 	ldr.w	fp, [pc, #312]	; e002da4 <__reserved_get_from_poll+0x15c>
 e002c6c:	f8db 3000 	ldr.w	r3, [fp]
 e002c70:	2b01      	cmp	r3, #1
 e002c72:	d010      	beq.n	e002c96 <__reserved_get_from_poll+0x4e>
 e002c74:	4622      	mov	r2, r4
 e002c76:	4621      	mov	r1, r4
 e002c78:	483b      	ldr	r0, [pc, #236]	; (e002d68 <__reserved_get_from_poll+0x120>)
 e002c7a:	f004 fec5 	bl	e007a08 <____wrap_memset_veneer>
 e002c7e:	4b3b      	ldr	r3, [pc, #236]	; (e002d6c <__reserved_get_from_poll+0x124>)
 e002c80:	e9c3 3300 	strd	r3, r3, [r3]
 e002c84:	4b3a      	ldr	r3, [pc, #232]	; (e002d70 <__reserved_get_from_poll+0x128>)
 e002c86:	601c      	str	r4, [r3, #0]
 e002c88:	4b3a      	ldr	r3, [pc, #232]	; (e002d74 <__reserved_get_from_poll+0x12c>)
 e002c8a:	601c      	str	r4, [r3, #0]
 e002c8c:	4b3a      	ldr	r3, [pc, #232]	; (e002d78 <__reserved_get_from_poll+0x130>)
 e002c8e:	601c      	str	r4, [r3, #0]
 e002c90:	2301      	movs	r3, #1
 e002c92:	f8cb 3000 	str.w	r3, [fp]
 e002c96:	f7ff fef5 	bl	e002a84 <rtos_critical_enter>
 e002c9a:	682c      	ldr	r4, [r5, #0]
 e002c9c:	42a5      	cmp	r5, r4
 e002c9e:	d027      	beq.n	e002cf0 <__reserved_get_from_poll+0xa8>
 e002ca0:	f104 0508 	add.w	r5, r4, #8
 e002ca4:	e9d4 2300 	ldrd	r2, r3, [r4]
 e002ca8:	6053      	str	r3, [r2, #4]
 e002caa:	601a      	str	r2, [r3, #0]
 e002cac:	e9c4 4400 	strd	r4, r4, [r4]
 e002cb0:	f8da 3000 	ldr.w	r3, [sl]
 e002cb4:	3301      	adds	r3, #1
 e002cb6:	f8ca 3000 	str.w	r3, [sl]
 e002cba:	f7ff fefd 	bl	e002ab8 <rtos_critical_exit>
 e002cbe:	3408      	adds	r4, #8
 e002cc0:	d019      	beq.n	e002cf6 <__reserved_get_from_poll+0xae>
 e002cc2:	2e03      	cmp	r6, #3
 e002cc4:	f04f 0100 	mov.w	r1, #0
 e002cc8:	4628      	mov	r0, r5
 e002cca:	bf14      	ite	ne
 e002ccc:	2254      	movne	r2, #84	; 0x54
 e002cce:	222c      	moveq	r2, #44	; 0x2c
 e002cd0:	f004 fe9a 	bl	e007a08 <____wrap_memset_veneer>
 e002cd4:	f8d8 2000 	ldr.w	r2, [r8]
 e002cd8:	f8da 3000 	ldr.w	r3, [sl]
 e002cdc:	4628      	mov	r0, r5
 e002cde:	f8d9 1000 	ldr.w	r1, [r9]
 e002ce2:	4413      	add	r3, r2
 e002ce4:	428b      	cmp	r3, r1
 e002ce6:	bf88      	it	hi
 e002ce8:	f8c9 3000 	strhi.w	r3, [r9]
 e002cec:	e8bd 8ff8 	ldmia.w	sp!, {r3, r4, r5, r6, r7, r8, r9, sl, fp, pc}
 e002cf0:	2500      	movs	r5, #0
 e002cf2:	f7ff fee1 	bl	e002ab8 <rtos_critical_exit>
 e002cf6:	683b      	ldr	r3, [r7, #0]
 e002cf8:	f8d8 2000 	ldr.w	r2, [r8]
 e002cfc:	2b00      	cmp	r3, #0
 e002cfe:	d0eb      	beq.n	e002cd8 <__reserved_get_from_poll+0x90>
 e002d00:	3201      	adds	r2, #1
 e002d02:	f8c8 2000 	str.w	r2, [r8]
 e002d06:	e7e7      	b.n	e002cd8 <__reserved_get_from_poll+0x90>
 e002d08:	f8df b09c 	ldr.w	fp, [pc, #156]	; e002da8 <__reserved_get_from_poll+0x160>
 e002d0c:	f8db 3000 	ldr.w	r3, [fp]
 e002d10:	2b01      	cmp	r3, #1
 e002d12:	d0c0      	beq.n	e002c96 <__reserved_get_from_poll+0x4e>
 e002d14:	4622      	mov	r2, r4
 e002d16:	4621      	mov	r1, r4
 e002d18:	4818      	ldr	r0, [pc, #96]	; (e002d7c <__reserved_get_from_poll+0x134>)
 e002d1a:	f004 fe75 	bl	e007a08 <____wrap_memset_veneer>
 e002d1e:	4b18      	ldr	r3, [pc, #96]	; (e002d80 <__reserved_get_from_poll+0x138>)
 e002d20:	f8cb 6000 	str.w	r6, [fp]
 e002d24:	e9c3 3300 	strd	r3, r3, [r3]
 e002d28:	4b16      	ldr	r3, [pc, #88]	; (e002d84 <__reserved_get_from_poll+0x13c>)
 e002d2a:	601c      	str	r4, [r3, #0]
 e002d2c:	4b16      	ldr	r3, [pc, #88]	; (e002d88 <__reserved_get_from_poll+0x140>)
 e002d2e:	601c      	str	r4, [r3, #0]
 e002d30:	4b16      	ldr	r3, [pc, #88]	; (e002d8c <__reserved_get_from_poll+0x144>)
 e002d32:	601c      	str	r4, [r3, #0]
 e002d34:	e7af      	b.n	e002c96 <__reserved_get_from_poll+0x4e>
 e002d36:	f8df b074 	ldr.w	fp, [pc, #116]	; e002dac <__reserved_get_from_poll+0x164>
 e002d3a:	f8db 3000 	ldr.w	r3, [fp]
 e002d3e:	2b01      	cmp	r3, #1
 e002d40:	d0a9      	beq.n	e002c96 <__reserved_get_from_poll+0x4e>
 e002d42:	4622      	mov	r2, r4
 e002d44:	4621      	mov	r1, r4
 e002d46:	4812      	ldr	r0, [pc, #72]	; (e002d90 <__reserved_get_from_poll+0x148>)
 e002d48:	f004 fe5e 	bl	e007a08 <____wrap_memset_veneer>
 e002d4c:	4b11      	ldr	r3, [pc, #68]	; (e002d94 <__reserved_get_from_poll+0x14c>)
 e002d4e:	e9c3 3300 	strd	r3, r3, [r3]
 e002d52:	4b11      	ldr	r3, [pc, #68]	; (e002d98 <__reserved_get_from_poll+0x150>)
 e002d54:	601c      	str	r4, [r3, #0]
 e002d56:	4b11      	ldr	r3, [pc, #68]	; (e002d9c <__reserved_get_from_poll+0x154>)
 e002d58:	601c      	str	r4, [r3, #0]
 e002d5a:	4b11      	ldr	r3, [pc, #68]	; (e002da0 <__reserved_get_from_poll+0x158>)
 e002d5c:	601c      	str	r4, [r3, #0]
 e002d5e:	2301      	movs	r3, #1
 e002d60:	f8cb 3000 	str.w	r3, [fp]
 e002d64:	e797      	b.n	e002c96 <__reserved_get_from_poll+0x4e>
 e002d66:	bf00      	nop
 e002d68:	2000b600 	.word	0x2000b600
 e002d6c:	2000b614 	.word	0x2000b614
 e002d70:	2000b5f4 	.word	0x2000b5f4
 e002d74:	2000b5fc 	.word	0x2000b5fc
 e002d78:	2000b5f8 	.word	0x2000b5f8
 e002d7c:	2000b5e0 	.word	0x2000b5e0
 e002d80:	2000b604 	.word	0x2000b604
 e002d84:	2000b5d4 	.word	0x2000b5d4
 e002d88:	2000b5dc 	.word	0x2000b5dc
 e002d8c:	2000b5d8 	.word	0x2000b5d8
 e002d90:	2000b5f0 	.word	0x2000b5f0
 e002d94:	2000b60c 	.word	0x2000b60c
 e002d98:	2000b5e4 	.word	0x2000b5e4
 e002d9c:	2000b5ec 	.word	0x2000b5ec
 e002da0:	2000b5e8 	.word	0x2000b5e8
 e002da4:	2000b600 	.word	0x2000b600
 e002da8:	2000b5e0 	.word	0x2000b5e0
 e002dac:	2000b5f0 	.word	0x2000b5f0

0e002db0 <__reserved_get_mutex_from_poll>:
 e002db0:	b510      	push	{r4, lr}
 e002db2:	4806      	ldr	r0, [pc, #24]	; (e002dcc <__reserved_get_mutex_from_poll+0x1c>)
 e002db4:	b082      	sub	sp, #8
 e002db6:	4c06      	ldr	r4, [pc, #24]	; (e002dd0 <__reserved_get_mutex_from_poll+0x20>)
 e002db8:	4b06      	ldr	r3, [pc, #24]	; (e002dd4 <__reserved_get_mutex_from_poll+0x24>)
 e002dba:	4a07      	ldr	r2, [pc, #28]	; (e002dd8 <__reserved_get_mutex_from_poll+0x28>)
 e002dbc:	4907      	ldr	r1, [pc, #28]	; (e002ddc <__reserved_get_mutex_from_poll+0x2c>)
 e002dbe:	e9cd 0400 	strd	r0, r4, [sp]
 e002dc2:	2001      	movs	r0, #1
 e002dc4:	f7ff ff40 	bl	e002c48 <__reserved_get_from_poll>
 e002dc8:	b002      	add	sp, #8
 e002dca:	bd10      	pop	{r4, pc}
 e002dcc:	2000b5d4 	.word	0x2000b5d4
 e002dd0:	2000b5dc 	.word	0x2000b5dc
 e002dd4:	2000b5d8 	.word	0x2000b5d8
 e002dd8:	2000b5e0 	.word	0x2000b5e0
 e002ddc:	2000b604 	.word	0x2000b604

0e002de0 <__reserved_get_sema_from_poll>:
 e002de0:	b510      	push	{r4, lr}
 e002de2:	4806      	ldr	r0, [pc, #24]	; (e002dfc <__reserved_get_sema_from_poll+0x1c>)
 e002de4:	b082      	sub	sp, #8
 e002de6:	4c06      	ldr	r4, [pc, #24]	; (e002e00 <__reserved_get_sema_from_poll+0x20>)
 e002de8:	4b06      	ldr	r3, [pc, #24]	; (e002e04 <__reserved_get_sema_from_poll+0x24>)
 e002dea:	4a07      	ldr	r2, [pc, #28]	; (e002e08 <__reserved_get_sema_from_poll+0x28>)
 e002dec:	4907      	ldr	r1, [pc, #28]	; (e002e0c <__reserved_get_sema_from_poll+0x2c>)
 e002dee:	e9cd 0400 	strd	r0, r4, [sp]
 e002df2:	2002      	movs	r0, #2
 e002df4:	f7ff ff28 	bl	e002c48 <__reserved_get_from_poll>
 e002df8:	b002      	add	sp, #8
 e002dfa:	bd10      	pop	{r4, pc}
 e002dfc:	2000b5e4 	.word	0x2000b5e4
 e002e00:	2000b5ec 	.word	0x2000b5ec
 e002e04:	2000b5e8 	.word	0x2000b5e8
 e002e08:	2000b5f0 	.word	0x2000b5f0
 e002e0c:	2000b60c 	.word	0x2000b60c

0e002e10 <rtos_sched_start>:
 e002e10:	b508      	push	{r3, lr}
 e002e12:	f001 fc2b 	bl	e00466c <vTaskStartScheduler>
 e002e16:	2000      	movs	r0, #0
 e002e18:	bd08      	pop	{r3, pc}
 e002e1a:	bf00      	nop

0e002e1c <rtos_sched_suspend>:
 e002e1c:	b508      	push	{r3, lr}
 e002e1e:	f001 fc75 	bl	e00470c <vTaskSuspendAll>
 e002e22:	2000      	movs	r0, #0
 e002e24:	bd08      	pop	{r3, pc}
 e002e26:	bf00      	nop

0e002e28 <rtos_sched_resume>:
 e002e28:	b508      	push	{r3, lr}
 e002e2a:	f001 fc77 	bl	e00471c <xTaskResumeAll>
 e002e2e:	2000      	movs	r0, #0
 e002e30:	bd08      	pop	{r3, pc}
 e002e32:	bf00      	nop

0e002e34 <rtos_sched_get_state>:
 e002e34:	b508      	push	{r3, lr}
 e002e36:	f001 fef7 	bl	e004c28 <xTaskGetSchedulerState>
 e002e3a:	2801      	cmp	r0, #1
 e002e3c:	d100      	bne.n	e002e40 <rtos_sched_get_state+0xc>
 e002e3e:	bd08      	pop	{r3, pc}
 e002e40:	f001 fef2 	bl	e004c28 <xTaskGetSchedulerState>
 e002e44:	2800      	cmp	r0, #0
 e002e46:	d0fa      	beq.n	e002e3e <rtos_sched_get_state+0xa>
 e002e48:	f001 feee 	bl	e004c28 <xTaskGetSchedulerState>
 e002e4c:	2802      	cmp	r0, #2
 e002e4e:	bf18      	it	ne
 e002e50:	f04f 30ff 	movne.w	r0, #4294967295	; 0xffffffff
 e002e54:	bd08      	pop	{r3, pc}
 e002e56:	bf00      	nop

0e002e58 <rtos_task_create>:
 e002e58:	b510      	push	{r4, lr}
 e002e5a:	b082      	sub	sp, #8
 e002e5c:	f8bd c010 	ldrh.w	ip, [sp, #16]
 e002e60:	f8bd 4014 	ldrh.w	r4, [sp, #20]
 e002e64:	9001      	str	r0, [sp, #4]
 e002e66:	4610      	mov	r0, r2
 e002e68:	9400      	str	r4, [sp, #0]
 e002e6a:	ea4f 029c 	mov.w	r2, ip, lsr #2
 e002e6e:	f001 fb29 	bl	e0044c4 <xTaskCreate>
 e002e72:	3801      	subs	r0, #1
 e002e74:	bf18      	it	ne
 e002e76:	f04f 30ff 	movne.w	r0, #4294967295	; 0xffffffff
 e002e7a:	b002      	add	sp, #8
 e002e7c:	bd10      	pop	{r4, pc}
 e002e7e:	bf00      	nop

0e002e80 <rtos_task_delete>:
 e002e80:	b508      	push	{r3, lr}
 e002e82:	f001 fb53 	bl	e00452c <vTaskDelete>
 e002e86:	2000      	movs	r0, #0
 e002e88:	bd08      	pop	{r3, pc}
 e002e8a:	bf00      	nop

0e002e8c <rtos_create_secure_context>:
 e002e8c:	4770      	bx	lr
 e002e8e:	bf00      	nop

0e002e90 <rtos_time_delay_ms>:
 e002e90:	b510      	push	{r4, lr}
 e002e92:	4604      	mov	r4, r0
 e002e94:	f7fe ffac 	bl	e001df0 <pmu_yield_os_check>
 e002e98:	b118      	cbz	r0, e002ea2 <rtos_time_delay_ms+0x12>
 e002e9a:	f001 fec5 	bl	e004c28 <xTaskGetSchedulerState>
 e002e9e:	2802      	cmp	r0, #2
 e002ea0:	d004      	beq.n	e002eac <rtos_time_delay_ms+0x1c>
 e002ea2:	4620      	mov	r0, r4
 e002ea4:	4b06      	ldr	r3, [pc, #24]	; (e002ec0 <rtos_time_delay_ms+0x30>)
 e002ea6:	e8bd 4010 	ldmia.w	sp!, {r4, lr}
 e002eaa:	4718      	bx	r3
 e002eac:	f7ff fde2 	bl	e002a74 <rtos_critical_is_in_interrupt>
 e002eb0:	2800      	cmp	r0, #0
 e002eb2:	d1f6      	bne.n	e002ea2 <rtos_time_delay_ms+0x12>
 e002eb4:	4620      	mov	r0, r4
 e002eb6:	e8bd 4010 	ldmia.w	sp!, {r4, lr}
 e002eba:	f001 bcbb 	b.w	e004834 <vTaskDelay>
 e002ebe:	bf00      	nop
 e002ec0:	0000951d 	.word	0x0000951d

0e002ec4 <platform_calloc_uninit>:
 e002ec4:	2000      	movs	r0, #0
 e002ec6:	4770      	bx	lr

0e002ec8 <platform_free_uninit>:
 e002ec8:	4770      	bx	lr
 e002eca:	bf00      	nop

0e002ecc <mbedtls_platform_set_calloc_free>:
 e002ecc:	4a06      	ldr	r2, [pc, #24]	; (e002ee8 <mbedtls_platform_set_calloc_free+0x1c>)
 e002ece:	4b07      	ldr	r3, [pc, #28]	; (e002eec <mbedtls_platform_set_calloc_free+0x20>)
 e002ed0:	b410      	push	{r4}
 e002ed2:	6011      	str	r1, [r2, #0]
 e002ed4:	4a06      	ldr	r2, [pc, #24]	; (e002ef0 <mbedtls_platform_set_calloc_free+0x24>)
 e002ed6:	4c07      	ldr	r4, [pc, #28]	; (e002ef4 <mbedtls_platform_set_calloc_free+0x28>)
 e002ed8:	6018      	str	r0, [r3, #0]
 e002eda:	6059      	str	r1, [r3, #4]
 e002edc:	6013      	str	r3, [r2, #0]
 e002ede:	6020      	str	r0, [r4, #0]
 e002ee0:	2000      	movs	r0, #0
 e002ee2:	f85d 4b04 	ldr.w	r4, [sp], #4
 e002ee6:	4770      	bx	lr
 e002ee8:	2000b060 	.word	0x2000b060
 e002eec:	3000799c 	.word	0x3000799c
 e002ef0:	30007998 	.word	0x30007998
 e002ef4:	2000b05c 	.word	0x2000b05c
	...

0e002f00 <vRestoreContextOfFirstTask>:
 e002f00:	4a07      	ldr	r2, [pc, #28]	; (e002f20 <pxCurrentTCBConst2>)
 e002f02:	6811      	ldr	r1, [r2, #0]
 e002f04:	6808      	ldr	r0, [r1, #0]
 e002f06:	c806      	ldmia	r0!, {r1, r2}
 e002f08:	f381 880b 	msr	PSPLIM, r1
 e002f0c:	2102      	movs	r1, #2
 e002f0e:	f381 8814 	msr	CONTROL, r1
 e002f12:	3020      	adds	r0, #32
 e002f14:	f380 8809 	msr	PSP, r0
 e002f18:	f3bf 8f6f 	isb	sy
 e002f1c:	4710      	bx	r2
 e002f1e:	bf00      	nop

0e002f20 <pxCurrentTCBConst2>:
 e002f20:	2000b970 	.word	0x2000b970
	...

0e002f30 <PendSV_Handler>:
 e002f30:	f3ef 8009 	mrs	r0, PSP
 e002f34:	f01e 0f10 	tst.w	lr, #16
 e002f38:	bf08      	it	eq
 e002f3a:	ed20 8a10 	vstmdbeq	r0!, {s16-s31}
 e002f3e:	f3ef 820b 	mrs	r2, PSPLIM
 e002f42:	4673      	mov	r3, lr
 e002f44:	e920 0ffc 	stmdb	r0!, {r2, r3, r4, r5, r6, r7, r8, r9, sl, fp}
 e002f48:	4a0d      	ldr	r2, [pc, #52]	; (e002f80 <pxCurrentTCBConst>)
 e002f4a:	6811      	ldr	r1, [r2, #0]
 e002f4c:	6008      	str	r0, [r1, #0]
 e002f4e:	b672      	cpsid	i
 e002f50:	f001 fd2e 	bl	e0049b0 <vTaskSwitchContext>
 e002f54:	b662      	cpsie	i
 e002f56:	4a0a      	ldr	r2, [pc, #40]	; (e002f80 <pxCurrentTCBConst>)
 e002f58:	6811      	ldr	r1, [r2, #0]
 e002f5a:	6808      	ldr	r0, [r1, #0]
 e002f5c:	e8b0 0ffc 	ldmia.w	r0!, {r2, r3, r4, r5, r6, r7, r8, r9, sl, fp}
 e002f60:	f013 0f10 	tst.w	r3, #16
 e002f64:	bf08      	it	eq
 e002f66:	ecb0 8a10 	vldmiaeq	r0!, {s16-s31}
 e002f6a:	f382 880b 	msr	PSPLIM, r2
 e002f6e:	f380 8809 	msr	PSP, r0
 e002f72:	4718      	bx	r3
 e002f74:	f3af 8000 	nop.w
 e002f78:	f3af 8000 	nop.w
 e002f7c:	f3af 8000 	nop.w

0e002f80 <pxCurrentTCBConst>:
 e002f80:	2000b970 	.word	0x2000b970

0e002f84 <xMAIR0Const>:
 e002f84:	e000edc0 	.word	0xe000edc0

0e002f88 <xRNRConst>:
 e002f88:	e000ed98 	.word	0xe000ed98

0e002f8c <xRBARConst>:
 e002f8c:	e000ed9c 	.word	0xe000ed9c

0e002f90 <vStartFirstTask>:
 e002f90:	4807      	ldr	r0, [pc, #28]	; (e002fb0 <xVTORConst>)
 e002f92:	6800      	ldr	r0, [r0, #0]
 e002f94:	6800      	ldr	r0, [r0, #0]
 e002f96:	f380 8808 	msr	MSP, r0
 e002f9a:	b662      	cpsie	i
 e002f9c:	b661      	cpsie	f
 e002f9e:	f3bf 8f4f 	dsb	sy
 e002fa2:	f3bf 8f6f 	isb	sy
 e002fa6:	df02      	svc	2
 e002fa8:	bf00      	nop
 e002faa:	bf00      	nop
 e002fac:	f3af 8000 	nop.w

0e002fb0 <xVTORConst>:
 e002fb0:	e000ed08 	.word	0xe000ed08

0e002fb4 <ulSetInterruptMaskFromISR>:
 e002fb4:	f3ef 8010 	mrs	r0, PRIMASK
 e002fb8:	b672      	cpsid	i
 e002fba:	4770      	bx	lr
 e002fbc:	2000      	movs	r0, #0
 e002fbe:	bf00      	nop

0e002fc0 <vClearInterruptMaskFromISR>:
 e002fc0:	f380 8810 	msr	PRIMASK, r0
 e002fc4:	4770      	bx	lr
 e002fc6:	bf00      	nop
	...

0e002fd0 <SVC_Handler>:
 e002fd0:	f01e 0f04 	tst.w	lr, #4
 e002fd4:	bf0c      	ite	eq
 e002fd6:	f3ef 8008 	mrseq	r0, MSP
 e002fda:	f3ef 8009 	mrsne	r0, PSP
 e002fde:	4904      	ldr	r1, [pc, #16]	; (e002ff0 <svchandler_address_const>)
 e002fe0:	4708      	bx	r1
 e002fe2:	bf00      	nop
 e002fe4:	f3af 8000 	nop.w
 e002fe8:	f3af 8000 	nop.w
 e002fec:	f3af 8000 	nop.w

0e002ff0 <svchandler_address_const>:
 e002ff0:	0e003095 	.word	0x0e003095

0e002ff4 <SysTick_Handler>:
 e002ff4:	b510      	push	{r4, lr}
 e002ff6:	f7ff ffdd 	bl	e002fb4 <ulSetInterruptMaskFromISR>
 e002ffa:	4604      	mov	r4, r0
 e002ffc:	f001 fcc8 	bl	e004990 <xTaskIncrementTick>
 e003000:	b128      	cbz	r0, e00300e <SysTick_Handler+0x1a>
 e003002:	f04f 23e0 	mov.w	r3, #3758153728	; 0xe000e000
 e003006:	f04f 5280 	mov.w	r2, #268435456	; 0x10000000
 e00300a:	f8c3 2d04 	str.w	r2, [r3, #3332]	; 0xd04
 e00300e:	4620      	mov	r0, r4
 e003010:	e8bd 4010 	ldmia.w	sp!, {r4, lr}
 e003014:	f7ff bfd4 	b.w	e002fc0 <vClearInterruptMaskFromISR>

0e003018 <vPortYield>:
 e003018:	f04f 23e0 	mov.w	r3, #3758153728	; 0xe000e000
 e00301c:	f04f 5280 	mov.w	r2, #268435456	; 0x10000000
 e003020:	f8c3 2d04 	str.w	r2, [r3, #3332]	; 0xd04
 e003024:	f3bf 8f4f 	dsb	sy
 e003028:	f3bf 8f6f 	isb	sy
 e00302c:	4770      	bx	lr
 e00302e:	bf00      	nop

0e003030 <ulPortSetInterruptMask>:
 e003030:	f3ef 8011 	mrs	r0, BASEPRI
 e003034:	f04f 0140 	mov.w	r1, #64	; 0x40
 e003038:	f381 8811 	msr	BASEPRI, r1
 e00303c:	4770      	bx	lr
 e00303e:	2000      	movs	r0, #0

0e003040 <vPortEnterCritical>:
 e003040:	b508      	push	{r3, lr}
 e003042:	f7ff fff5 	bl	e003030 <ulPortSetInterruptMask>
 e003046:	4a04      	ldr	r2, [pc, #16]	; (e003058 <vPortEnterCritical+0x18>)
 e003048:	6813      	ldr	r3, [r2, #0]
 e00304a:	3301      	adds	r3, #1
 e00304c:	6013      	str	r3, [r2, #0]
 e00304e:	f3bf 8f4f 	dsb	sy
 e003052:	f3bf 8f6f 	isb	sy
 e003056:	bd08      	pop	{r3, pc}
 e003058:	2000b61c 	.word	0x2000b61c

0e00305c <prvTaskExitError>:
 e00305c:	b500      	push	{lr}
 e00305e:	2300      	movs	r3, #0
 e003060:	b083      	sub	sp, #12
 e003062:	9301      	str	r3, [sp, #4]
 e003064:	f7ff ffe4 	bl	e003030 <ulPortSetInterruptMask>
 e003068:	9b01      	ldr	r3, [sp, #4]
 e00306a:	2b00      	cmp	r3, #0
 e00306c:	d0fc      	beq.n	e003068 <prvTaskExitError+0xc>
 e00306e:	b003      	add	sp, #12
 e003070:	f85d fb04 	ldr.w	pc, [sp], #4

0e003074 <vPortClearInterruptMask>:
 e003074:	f380 8811 	msr	BASEPRI, r0
 e003078:	4770      	bx	lr
 e00307a:	bf00      	nop

0e00307c <vPortExitCritical>:
 e00307c:	4b04      	ldr	r3, [pc, #16]	; (e003090 <vPortExitCritical+0x14>)
 e00307e:	681a      	ldr	r2, [r3, #0]
 e003080:	3a01      	subs	r2, #1
 e003082:	601a      	str	r2, [r3, #0]
 e003084:	6818      	ldr	r0, [r3, #0]
 e003086:	b100      	cbz	r0, e00308a <vPortExitCritical+0xe>
 e003088:	4770      	bx	lr
 e00308a:	f7ff bff3 	b.w	e003074 <vPortClearInterruptMask>
 e00308e:	bf00      	nop
 e003090:	2000b61c 	.word	0x2000b61c

0e003094 <vPortSVCHandler_C>:
 e003094:	6983      	ldr	r3, [r0, #24]
 e003096:	f813 3c02 	ldrb.w	r3, [r3, #-2]
 e00309a:	2b02      	cmp	r3, #2
 e00309c:	d000      	beq.n	e0030a0 <vPortSVCHandler_C+0xc>
 e00309e:	4770      	bx	lr
 e0030a0:	f04f 23e0 	mov.w	r3, #3758153728	; 0xe000e000
 e0030a4:	f8d3 2d88 	ldr.w	r2, [r3, #3464]	; 0xd88
 e0030a8:	f442 0270 	orr.w	r2, r2, #15728640	; 0xf00000
 e0030ac:	f8c3 2d88 	str.w	r2, [r3, #3464]	; 0xd88
 e0030b0:	f8d3 2f34 	ldr.w	r2, [r3, #3892]	; 0xf34
 e0030b4:	f042 4240 	orr.w	r2, r2, #3221225472	; 0xc0000000
 e0030b8:	f8c3 2f34 	str.w	r2, [r3, #3892]	; 0xf34
 e0030bc:	f7ff bf20 	b.w	e002f00 <vRestoreContextOfFirstTask>

0e0030c0 <pxPortInitialiseStack>:
 e0030c0:	b430      	push	{r4, r5}
 e0030c2:	f840 2c08 	str.w	r2, [r0, #-8]
 e0030c6:	f04f 3211 	mov.w	r2, #286331153	; 0x11111111
 e0030ca:	4c1e      	ldr	r4, [pc, #120]	; (e003144 <pxPortInitialiseStack+0x84>)
 e0030cc:	f04f 7580 	mov.w	r5, #16777216	; 0x1000000
 e0030d0:	f840 2c24 	str.w	r2, [r0, #-36]
 e0030d4:	f04f 3210 	mov.w	r2, #269488144	; 0x10101010
 e0030d8:	f840 4c0c 	str.w	r4, [r0, #-12]
 e0030dc:	f04f 3412 	mov.w	r4, #303174162	; 0x12121212
 e0030e0:	f840 2c28 	str.w	r2, [r0, #-40]
 e0030e4:	f04f 3209 	mov.w	r2, #151587081	; 0x9090909
 e0030e8:	f840 4c10 	str.w	r4, [r0, #-16]
 e0030ec:	f04f 3403 	mov.w	r4, #50529027	; 0x3030303
 e0030f0:	f840 2c2c 	str.w	r2, [r0, #-44]
 e0030f4:	f04f 3208 	mov.w	r2, #134744072	; 0x8080808
 e0030f8:	f840 4c14 	str.w	r4, [r0, #-20]
 e0030fc:	f04f 3402 	mov.w	r4, #33686018	; 0x2020202
 e003100:	f840 2c30 	str.w	r2, [r0, #-48]
 e003104:	f04f 3207 	mov.w	r2, #117901063	; 0x7070707
 e003108:	f840 4c18 	str.w	r4, [r0, #-24]
 e00310c:	f04f 3401 	mov.w	r4, #16843009	; 0x1010101
 e003110:	f840 2c34 	str.w	r2, [r0, #-52]
 e003114:	f04f 3205 	mov.w	r2, #84215045	; 0x5050505
 e003118:	f840 4c1c 	str.w	r4, [r0, #-28]
 e00311c:	f04f 3406 	mov.w	r4, #101058054	; 0x6060606
 e003120:	f840 3c20 	str.w	r3, [r0, #-32]
 e003124:	4603      	mov	r3, r0
 e003126:	f840 5c04 	str.w	r5, [r0, #-4]
 e00312a:	e940 240f 	strd	r2, r4, [r0, #-60]	; 0x3c
 e00312e:	f04f 3404 	mov.w	r4, #67372036	; 0x4040404
 e003132:	f06f 0202 	mvn.w	r2, #2
 e003136:	e940 2411 	strd	r2, r4, [r0, #-68]	; 0x44
 e00313a:	f843 1d48 	str.w	r1, [r3, #-72]!
 e00313e:	4618      	mov	r0, r3
 e003140:	bc30      	pop	{r4, r5}
 e003142:	4770      	bx	lr
 e003144:	0e00305d 	.word	0x0e00305d

0e003148 <xPortStartScheduler>:
 e003148:	f04f 23e0 	mov.w	r3, #3758153728	; 0xe000e000
 e00314c:	4a1c      	ldr	r2, [pc, #112]	; (e0031c0 <xPortStartScheduler+0x78>)
 e00314e:	481d      	ldr	r0, [pc, #116]	; (e0031c4 <xPortStartScheduler+0x7c>)
 e003150:	b510      	push	{r4, lr}
 e003152:	f8d3 1d20 	ldr.w	r1, [r3, #3360]	; 0xd20
 e003156:	b082      	sub	sp, #8
 e003158:	f441 017f 	orr.w	r1, r1, #16711680	; 0xff0000
 e00315c:	f8c3 1d20 	str.w	r1, [r3, #3360]	; 0xd20
 e003160:	f8d3 1d20 	ldr.w	r1, [r3, #3360]	; 0xd20
 e003164:	f041 417f 	orr.w	r1, r1, #4278190080	; 0xff000000
 e003168:	f8c3 1d20 	str.w	r1, [r3, #3360]	; 0xd20
 e00316c:	6891      	ldr	r1, [r2, #8]
 e00316e:	62c8      	str	r0, [r1, #44]	; 0x2c
 e003170:	f3bf 8f4f 	dsb	sy
 e003174:	4814      	ldr	r0, [pc, #80]	; (e0031c8 <xPortStartScheduler+0x80>)
 e003176:	6891      	ldr	r1, [r2, #8]
 e003178:	6388      	str	r0, [r1, #56]	; 0x38
 e00317a:	f3bf 8f4f 	dsb	sy
 e00317e:	4913      	ldr	r1, [pc, #76]	; (e0031cc <xPortStartScheduler+0x84>)
 e003180:	6892      	ldr	r2, [r2, #8]
 e003182:	63d1      	str	r1, [r2, #60]	; 0x3c
 e003184:	f3bf 8f4f 	dsb	sy
 e003188:	2400      	movs	r4, #0
 e00318a:	4a11      	ldr	r2, [pc, #68]	; (e0031d0 <xPortStartScheduler+0x88>)
 e00318c:	4811      	ldr	r0, [pc, #68]	; (e0031d4 <xPortStartScheduler+0x8c>)
 e00318e:	2107      	movs	r1, #7
 e003190:	611c      	str	r4, [r3, #16]
 e003192:	619c      	str	r4, [r3, #24]
 e003194:	6812      	ldr	r2, [r2, #0]
 e003196:	fba0 0202 	umull	r0, r2, r0, r2
 e00319a:	0992      	lsrs	r2, r2, #6
 e00319c:	3a01      	subs	r2, #1
 e00319e:	615a      	str	r2, [r3, #20]
 e0031a0:	4a0d      	ldr	r2, [pc, #52]	; (e0031d8 <xPortStartScheduler+0x90>)
 e0031a2:	6119      	str	r1, [r3, #16]
 e0031a4:	6014      	str	r4, [r2, #0]
 e0031a6:	f7ff fef3 	bl	e002f90 <vStartFirstTask>
 e0031aa:	f001 fc01 	bl	e0049b0 <vTaskSwitchContext>
 e0031ae:	9401      	str	r4, [sp, #4]
 e0031b0:	f7ff ff3e 	bl	e003030 <ulPortSetInterruptMask>
 e0031b4:	9b01      	ldr	r3, [sp, #4]
 e0031b6:	2b00      	cmp	r3, #0
 e0031b8:	d0fc      	beq.n	e0031b4 <xPortStartScheduler+0x6c>
 e0031ba:	2000      	movs	r0, #0
 e0031bc:	b002      	add	sp, #8
 e0031be:	bd10      	pop	{r4, pc}
 e0031c0:	e000ed00 	.word	0xe000ed00
 e0031c4:	0e002fd1 	.word	0x0e002fd1
 e0031c8:	0e002f31 	.word	0x0e002f31
 e0031cc:	0e002ff5 	.word	0x0e002ff5
 e0031d0:	2000b020 	.word	0x2000b020
 e0031d4:	10624dd3 	.word	0x10624dd3
 e0031d8:	2000b61c 	.word	0x2000b61c

0e0031dc <vApplicationIdleHook>:
 e0031dc:	4770      	bx	lr
 e0031de:	bf00      	nop

0e0031e0 <vApplicationStackOverflowHook>:
 e0031e0:	460a      	mov	r2, r1
 e0031e2:	4803      	ldr	r0, [pc, #12]	; (e0031f0 <vApplicationStackOverflowHook+0x10>)
 e0031e4:	4903      	ldr	r1, [pc, #12]	; (e0031f4 <vApplicationStackOverflowHook+0x14>)
 e0031e6:	b508      	push	{r3, lr}
 e0031e8:	f003 ff1c 	bl	e007024 <DiagPrintf_minimal>
 e0031ec:	e7fe      	b.n	e0031ec <vApplicationStackOverflowHook+0xc>
 e0031ee:	bf00      	nop
 e0031f0:	0e008654 	.word	0x0e008654
 e0031f4:	0e0086c4 	.word	0x0e0086c4

0e0031f8 <vApplicationMallocFailedHook>:
 e0031f8:	b500      	push	{lr}
 e0031fa:	b083      	sub	sp, #12
 e0031fc:	f001 fd14 	bl	e004c28 <xTaskGetSchedulerState>
 e003200:	2801      	cmp	r0, #1
 e003202:	d10c      	bne.n	e00321e <vApplicationMallocFailedHook+0x26>
 e003204:	4a08      	ldr	r2, [pc, #32]	; (e003228 <vApplicationMallocFailedHook+0x30>)
 e003206:	9201      	str	r2, [sp, #4]
 e003208:	f7ff f816 	bl	e002238 <xPortGetFreeHeapSize>
 e00320c:	9a01      	ldr	r2, [sp, #4]
 e00320e:	4603      	mov	r3, r0
 e003210:	4906      	ldr	r1, [pc, #24]	; (e00322c <vApplicationMallocFailedHook+0x34>)
 e003212:	4807      	ldr	r0, [pc, #28]	; (e003230 <vApplicationMallocFailedHook+0x38>)
 e003214:	f003 ff06 	bl	e007024 <DiagPrintf_minimal>
 e003218:	f7ff ff0a 	bl	e003030 <ulPortSetInterruptMask>
 e00321c:	e7fe      	b.n	e00321c <vApplicationMallocFailedHook+0x24>
 e00321e:	2000      	movs	r0, #0
 e003220:	f001 fbac 	bl	e00497c <pcTaskGetName>
 e003224:	4602      	mov	r2, r0
 e003226:	e7ee      	b.n	e003206 <vApplicationMallocFailedHook+0xe>
 e003228:	0e00867c 	.word	0x0e00867c
 e00322c:	0e008684 	.word	0x0e008684
 e003230:	0e008688 	.word	0x0e008688

0e003234 <vApplicationGetIdleTaskMemory>:
 e003234:	4b05      	ldr	r3, [pc, #20]	; (e00324c <vApplicationGetIdleTaskMemory+0x18>)
 e003236:	b410      	push	{r4}
 e003238:	6003      	str	r3, [r0, #0]
 e00323a:	f44f 7300 	mov.w	r3, #512	; 0x200
 e00323e:	4c04      	ldr	r4, [pc, #16]	; (e003250 <vApplicationGetIdleTaskMemory+0x1c>)
 e003240:	600c      	str	r4, [r1, #0]
 e003242:	f85d 4b04 	ldr.w	r4, [sp], #4
 e003246:	6013      	str	r3, [r2, #0]
 e003248:	4770      	bx	lr
 e00324a:	bf00      	nop
 e00324c:	2000b620 	.word	0x2000b620
 e003250:	20006000 	.word	0x20006000

0e003254 <vApplicationGetTimerTaskMemory>:
 e003254:	4b05      	ldr	r3, [pc, #20]	; (e00326c <vApplicationGetTimerTaskMemory+0x18>)
 e003256:	b410      	push	{r4}
 e003258:	6003      	str	r3, [r0, #0]
 e00325a:	f44f 7300 	mov.w	r3, #512	; 0x200
 e00325e:	4c04      	ldr	r4, [pc, #16]	; (e003270 <vApplicationGetTimerTaskMemory+0x1c>)
 e003260:	600c      	str	r4, [r1, #0]
 e003262:	f85d 4b04 	ldr.w	r4, [sp], #4
 e003266:	6013      	str	r3, [r2, #0]
 e003268:	4770      	bx	lr
 e00326a:	bf00      	nop
 e00326c:	2000b784 	.word	0x2000b784
 e003270:	20006800 	.word	0x20006800

0e003274 <vPortSuppressTicksAndSleep>:
 e003274:	b510      	push	{r4, lr}
 e003276:	b672      	cpsid	i
 e003278:	2000      	movs	r0, #0
 e00327a:	4c0e      	ldr	r4, [pc, #56]	; (e0032b4 <vPortSuppressTicksAndSleep+0x40>)
 e00327c:	f7fd fa38 	bl	e0006f0 <Systick_Cmd>
 e003280:	2300      	movs	r3, #0
 e003282:	6023      	str	r3, [r4, #0]
 e003284:	f001 fc5e 	bl	e004b44 <eTaskConfirmSleepModeStatus>
 e003288:	b928      	cbnz	r0, e003296 <vPortSuppressTicksAndSleep+0x22>
 e00328a:	2001      	movs	r0, #1
 e00328c:	6020      	str	r0, [r4, #0]
 e00328e:	f7fd fa2f 	bl	e0006f0 <Systick_Cmd>
 e003292:	b662      	cpsie	i
 e003294:	bd10      	pop	{r4, pc}
 e003296:	f7fe fdb1 	bl	e001dfc <pmu_ready_to_sleep>
 e00329a:	2800      	cmp	r0, #0
 e00329c:	d1f5      	bne.n	e00328a <vPortSuppressTicksAndSleep+0x16>
 e00329e:	2001      	movs	r0, #1
 e0032a0:	f7fd fa26 	bl	e0006f0 <Systick_Cmd>
 e0032a4:	f3bf 8f4f 	dsb	sy
 e0032a8:	bf30      	wfi
 e0032aa:	bf00      	nop
 e0032ac:	f3bf 8f6f 	isb	sy
 e0032b0:	e7eb      	b.n	e00328a <vPortSuppressTicksAndSleep+0x16>
 e0032b2:	bf00      	nop
 e0032b4:	2000b024 	.word	0x2000b024

0e0032b8 <prvCopyDataToQueue>:
 e0032b8:	b570      	push	{r4, r5, r6, lr}
 e0032ba:	4616      	mov	r6, r2
 e0032bc:	6c02      	ldr	r2, [r0, #64]	; 0x40
 e0032be:	4604      	mov	r4, r0
 e0032c0:	6b85      	ldr	r5, [r0, #56]	; 0x38
 e0032c2:	b92a      	cbnz	r2, e0032d0 <prvCopyDataToQueue+0x18>
 e0032c4:	6806      	ldr	r6, [r0, #0]
 e0032c6:	3501      	adds	r5, #1
 e0032c8:	b356      	cbz	r6, e003320 <prvCopyDataToQueue+0x68>
 e0032ca:	2000      	movs	r0, #0
 e0032cc:	63a5      	str	r5, [r4, #56]	; 0x38
 e0032ce:	bd70      	pop	{r4, r5, r6, pc}
 e0032d0:	b97e      	cbnz	r6, e0032f2 <prvCopyDataToQueue+0x3a>
 e0032d2:	6840      	ldr	r0, [r0, #4]
 e0032d4:	3501      	adds	r5, #1
 e0032d6:	f004 fb8f 	bl	e0079f8 <____wrap_memcpy_veneer>
 e0032da:	6863      	ldr	r3, [r4, #4]
 e0032dc:	6c22      	ldr	r2, [r4, #64]	; 0x40
 e0032de:	4413      	add	r3, r2
 e0032e0:	68a2      	ldr	r2, [r4, #8]
 e0032e2:	4293      	cmp	r3, r2
 e0032e4:	6063      	str	r3, [r4, #4]
 e0032e6:	d318      	bcc.n	e00331a <prvCopyDataToQueue+0x62>
 e0032e8:	6823      	ldr	r3, [r4, #0]
 e0032ea:	4630      	mov	r0, r6
 e0032ec:	63a5      	str	r5, [r4, #56]	; 0x38
 e0032ee:	6063      	str	r3, [r4, #4]
 e0032f0:	bd70      	pop	{r4, r5, r6, pc}
 e0032f2:	68c0      	ldr	r0, [r0, #12]
 e0032f4:	f004 fb80 	bl	e0079f8 <____wrap_memcpy_veneer>
 e0032f8:	6c22      	ldr	r2, [r4, #64]	; 0x40
 e0032fa:	68e3      	ldr	r3, [r4, #12]
 e0032fc:	4251      	negs	r1, r2
 e0032fe:	1a9b      	subs	r3, r3, r2
 e003300:	6822      	ldr	r2, [r4, #0]
 e003302:	4293      	cmp	r3, r2
 e003304:	60e3      	str	r3, [r4, #12]
 e003306:	d202      	bcs.n	e00330e <prvCopyDataToQueue+0x56>
 e003308:	68a3      	ldr	r3, [r4, #8]
 e00330a:	440b      	add	r3, r1
 e00330c:	60e3      	str	r3, [r4, #12]
 e00330e:	2e02      	cmp	r6, #2
 e003310:	d00b      	beq.n	e00332a <prvCopyDataToQueue+0x72>
 e003312:	3501      	adds	r5, #1
 e003314:	2000      	movs	r0, #0
 e003316:	63a5      	str	r5, [r4, #56]	; 0x38
 e003318:	bd70      	pop	{r4, r5, r6, pc}
 e00331a:	4630      	mov	r0, r6
 e00331c:	63a5      	str	r5, [r4, #56]	; 0x38
 e00331e:	bd70      	pop	{r4, r5, r6, pc}
 e003320:	6880      	ldr	r0, [r0, #8]
 e003322:	f001 fcd7 	bl	e004cd4 <xTaskPriorityDisinherit>
 e003326:	60a6      	str	r6, [r4, #8]
 e003328:	e7d0      	b.n	e0032cc <prvCopyDataToQueue+0x14>
 e00332a:	2d01      	cmp	r5, #1
 e00332c:	bf38      	it	cc
 e00332e:	2501      	movcc	r5, #1
 e003330:	e7cb      	b.n	e0032ca <prvCopyDataToQueue+0x12>
 e003332:	bf00      	nop

0e003334 <prvNotifyQueueSetContainer>:
 e003334:	b5f0      	push	{r4, r5, r6, r7, lr}
 e003336:	6c84      	ldr	r4, [r0, #72]	; 0x48
 e003338:	b083      	sub	sp, #12
 e00333a:	6ba2      	ldr	r2, [r4, #56]	; 0x38
 e00333c:	6be3      	ldr	r3, [r4, #60]	; 0x3c
 e00333e:	9001      	str	r0, [sp, #4]
 e003340:	429a      	cmp	r2, r3
 e003342:	d303      	bcc.n	e00334c <prvNotifyQueueSetContainer+0x18>
 e003344:	2600      	movs	r6, #0
 e003346:	4630      	mov	r0, r6
 e003348:	b003      	add	sp, #12
 e00334a:	bdf0      	pop	{r4, r5, r6, r7, pc}
 e00334c:	f894 5045 	ldrb.w	r5, [r4, #69]	; 0x45
 e003350:	6c22      	ldr	r2, [r4, #64]	; 0x40
 e003352:	6ba7      	ldr	r7, [r4, #56]	; 0x38
 e003354:	b26d      	sxtb	r5, r5
 e003356:	b1c2      	cbz	r2, e00338a <prvNotifyQueueSetContainer+0x56>
 e003358:	a901      	add	r1, sp, #4
 e00335a:	6860      	ldr	r0, [r4, #4]
 e00335c:	f004 fb4c 	bl	e0079f8 <____wrap_memcpy_veneer>
 e003360:	6862      	ldr	r2, [r4, #4]
 e003362:	6c23      	ldr	r3, [r4, #64]	; 0x40
 e003364:	441a      	add	r2, r3
 e003366:	68a3      	ldr	r3, [r4, #8]
 e003368:	429a      	cmp	r2, r3
 e00336a:	6062      	str	r2, [r4, #4]
 e00336c:	d30f      	bcc.n	e00338e <prvNotifyQueueSetContainer+0x5a>
 e00336e:	6823      	ldr	r3, [r4, #0]
 e003370:	2600      	movs	r6, #0
 e003372:	6063      	str	r3, [r4, #4]
 e003374:	3701      	adds	r7, #1
 e003376:	1c6b      	adds	r3, r5, #1
 e003378:	63a7      	str	r7, [r4, #56]	; 0x38
 e00337a:	d00e      	beq.n	e00339a <prvNotifyQueueSetContainer+0x66>
 e00337c:	3501      	adds	r5, #1
 e00337e:	4630      	mov	r0, r6
 e003380:	b26d      	sxtb	r5, r5
 e003382:	f884 5045 	strb.w	r5, [r4, #69]	; 0x45
 e003386:	b003      	add	sp, #12
 e003388:	bdf0      	pop	{r4, r5, r6, r7, pc}
 e00338a:	6826      	ldr	r6, [r4, #0]
 e00338c:	b186      	cbz	r6, e0033b0 <prvNotifyQueueSetContainer+0x7c>
 e00338e:	3701      	adds	r7, #1
 e003390:	1c6b      	adds	r3, r5, #1
 e003392:	f04f 0600 	mov.w	r6, #0
 e003396:	63a7      	str	r7, [r4, #56]	; 0x38
 e003398:	d1f0      	bne.n	e00337c <prvNotifyQueueSetContainer+0x48>
 e00339a:	6a63      	ldr	r3, [r4, #36]	; 0x24
 e00339c:	2b00      	cmp	r3, #0
 e00339e:	d0d2      	beq.n	e003346 <prvNotifyQueueSetContainer+0x12>
 e0033a0:	f104 0024 	add.w	r0, r4, #36	; 0x24
 e0033a4:	f001 fb38 	bl	e004a18 <xTaskRemoveFromEventList>
 e0033a8:	2800      	cmp	r0, #0
 e0033aa:	bf18      	it	ne
 e0033ac:	2601      	movne	r6, #1
 e0033ae:	e7ca      	b.n	e003346 <prvNotifyQueueSetContainer+0x12>
 e0033b0:	68a0      	ldr	r0, [r4, #8]
 e0033b2:	f001 fc8f 	bl	e004cd4 <xTaskPriorityDisinherit>
 e0033b6:	60a6      	str	r6, [r4, #8]
 e0033b8:	4606      	mov	r6, r0
 e0033ba:	e7db      	b.n	e003374 <prvNotifyQueueSetContainer+0x40>

0e0033bc <prvUnlockQueue>:
 e0033bc:	b570      	push	{r4, r5, r6, lr}
 e0033be:	4605      	mov	r5, r0
 e0033c0:	f7ff fe3e 	bl	e003040 <vPortEnterCritical>
 e0033c4:	f895 4045 	ldrb.w	r4, [r5, #69]	; 0x45
 e0033c8:	b264      	sxtb	r4, r4
 e0033ca:	2c00      	cmp	r4, #0
 e0033cc:	dd19      	ble.n	e003402 <prvUnlockQueue+0x46>
 e0033ce:	f105 0624 	add.w	r6, r5, #36	; 0x24
 e0033d2:	e005      	b.n	e0033e0 <prvUnlockQueue+0x24>
 e0033d4:	f7ff ffae 	bl	e003334 <prvNotifyQueueSetContainer>
 e0033d8:	b968      	cbnz	r0, e0033f6 <prvUnlockQueue+0x3a>
 e0033da:	3c01      	subs	r4, #1
 e0033dc:	b264      	sxtb	r4, r4
 e0033de:	b184      	cbz	r4, e003402 <prvUnlockQueue+0x46>
 e0033e0:	6cab      	ldr	r3, [r5, #72]	; 0x48
 e0033e2:	4628      	mov	r0, r5
 e0033e4:	2b00      	cmp	r3, #0
 e0033e6:	d1f5      	bne.n	e0033d4 <prvUnlockQueue+0x18>
 e0033e8:	6a6b      	ldr	r3, [r5, #36]	; 0x24
 e0033ea:	4630      	mov	r0, r6
 e0033ec:	b14b      	cbz	r3, e003402 <prvUnlockQueue+0x46>
 e0033ee:	f001 fb13 	bl	e004a18 <xTaskRemoveFromEventList>
 e0033f2:	2800      	cmp	r0, #0
 e0033f4:	d0f1      	beq.n	e0033da <prvUnlockQueue+0x1e>
 e0033f6:	3c01      	subs	r4, #1
 e0033f8:	f001 fb9e 	bl	e004b38 <vTaskMissedYield>
 e0033fc:	b264      	sxtb	r4, r4
 e0033fe:	2c00      	cmp	r4, #0
 e003400:	d1ee      	bne.n	e0033e0 <prvUnlockQueue+0x24>
 e003402:	23ff      	movs	r3, #255	; 0xff
 e003404:	f885 3045 	strb.w	r3, [r5, #69]	; 0x45
 e003408:	f7ff fe38 	bl	e00307c <vPortExitCritical>
 e00340c:	f7ff fe18 	bl	e003040 <vPortEnterCritical>
 e003410:	f895 4044 	ldrb.w	r4, [r5, #68]	; 0x44
 e003414:	b264      	sxtb	r4, r4
 e003416:	2c00      	cmp	r4, #0
 e003418:	dd12      	ble.n	e003440 <prvUnlockQueue+0x84>
 e00341a:	f105 0610 	add.w	r6, r5, #16
 e00341e:	e002      	b.n	e003426 <prvUnlockQueue+0x6a>
 e003420:	3c01      	subs	r4, #1
 e003422:	b264      	sxtb	r4, r4
 e003424:	b164      	cbz	r4, e003440 <prvUnlockQueue+0x84>
 e003426:	692b      	ldr	r3, [r5, #16]
 e003428:	4630      	mov	r0, r6
 e00342a:	b14b      	cbz	r3, e003440 <prvUnlockQueue+0x84>
 e00342c:	f001 faf4 	bl	e004a18 <xTaskRemoveFromEventList>
 e003430:	2800      	cmp	r0, #0
 e003432:	d0f5      	beq.n	e003420 <prvUnlockQueue+0x64>
 e003434:	3c01      	subs	r4, #1
 e003436:	f001 fb7f 	bl	e004b38 <vTaskMissedYield>
 e00343a:	b264      	sxtb	r4, r4
 e00343c:	2c00      	cmp	r4, #0
 e00343e:	d1f2      	bne.n	e003426 <prvUnlockQueue+0x6a>
 e003440:	23ff      	movs	r3, #255	; 0xff
 e003442:	f885 3044 	strb.w	r3, [r5, #68]	; 0x44
 e003446:	e8bd 4070 	ldmia.w	sp!, {r4, r5, r6, lr}
 e00344a:	f7ff be17 	b.w	e00307c <vPortExitCritical>
 e00344e:	bf00      	nop

0e003450 <xQueueGenericCreateStatic>:
 e003450:	b570      	push	{r4, r5, r6, lr}
 e003452:	461c      	mov	r4, r3
 e003454:	f89d 5010 	ldrb.w	r5, [sp, #16]
 e003458:	b34b      	cbz	r3, e0034ae <xQueueGenericCreateStatic+0x5e>
 e00345a:	2900      	cmp	r1, #0
 e00345c:	bf08      	it	eq
 e00345e:	461a      	moveq	r2, r3
 e003460:	63d8      	str	r0, [r3, #60]	; 0x3c
 e003462:	6419      	str	r1, [r3, #64]	; 0x40
 e003464:	2600      	movs	r6, #0
 e003466:	601a      	str	r2, [r3, #0]
 e003468:	2301      	movs	r3, #1
 e00346a:	f884 3046 	strb.w	r3, [r4, #70]	; 0x46
 e00346e:	f7ff fde7 	bl	e003040 <vPortEnterCritical>
 e003472:	6822      	ldr	r2, [r4, #0]
 e003474:	63a6      	str	r6, [r4, #56]	; 0x38
 e003476:	f104 0010 	add.w	r0, r4, #16
 e00347a:	6062      	str	r2, [r4, #4]
 e00347c:	e9d4 310f 	ldrd	r3, r1, [r4, #60]	; 0x3c
 e003480:	fb01 f303 	mul.w	r3, r1, r3
 e003484:	1a59      	subs	r1, r3, r1
 e003486:	4413      	add	r3, r2
 e003488:	440a      	add	r2, r1
 e00348a:	60a3      	str	r3, [r4, #8]
 e00348c:	23ff      	movs	r3, #255	; 0xff
 e00348e:	60e2      	str	r2, [r4, #12]
 e003490:	f884 3044 	strb.w	r3, [r4, #68]	; 0x44
 e003494:	f884 3045 	strb.w	r3, [r4, #69]	; 0x45
 e003498:	f7fe ff24 	bl	e0022e4 <vListInitialise>
 e00349c:	f104 0024 	add.w	r0, r4, #36	; 0x24
 e0034a0:	f7fe ff20 	bl	e0022e4 <vListInitialise>
 e0034a4:	f7ff fdea 	bl	e00307c <vPortExitCritical>
 e0034a8:	f884 5050 	strb.w	r5, [r4, #80]	; 0x50
 e0034ac:	64a6      	str	r6, [r4, #72]	; 0x48
 e0034ae:	4620      	mov	r0, r4
 e0034b0:	bd70      	pop	{r4, r5, r6, pc}
 e0034b2:	bf00      	nop

0e0034b4 <xQueueGenericCreate>:
 e0034b4:	b5f8      	push	{r3, r4, r5, r6, r7, lr}
 e0034b6:	4606      	mov	r6, r0
 e0034b8:	fb01 f000 	mul.w	r0, r1, r0
 e0034bc:	460d      	mov	r5, r1
 e0034be:	4617      	mov	r7, r2
 e0034c0:	3054      	adds	r0, #84	; 0x54
 e0034c2:	f7fe fe27 	bl	e002114 <pvPortMalloc>
 e0034c6:	4604      	mov	r4, r0
 e0034c8:	b348      	cbz	r0, e00351e <xQueueGenericCreate+0x6a>
 e0034ca:	2300      	movs	r3, #0
 e0034cc:	f880 3046 	strb.w	r3, [r0, #70]	; 0x46
 e0034d0:	b33d      	cbz	r5, e003522 <xQueueGenericCreate+0x6e>
 e0034d2:	f100 0354 	add.w	r3, r0, #84	; 0x54
 e0034d6:	6023      	str	r3, [r4, #0]
 e0034d8:	e9c4 650f 	strd	r6, r5, [r4, #60]	; 0x3c
 e0034dc:	f7ff fdb0 	bl	e003040 <vPortEnterCritical>
 e0034e0:	6821      	ldr	r1, [r4, #0]
 e0034e2:	2500      	movs	r5, #0
 e0034e4:	f104 0010 	add.w	r0, r4, #16
 e0034e8:	6061      	str	r1, [r4, #4]
 e0034ea:	63a5      	str	r5, [r4, #56]	; 0x38
 e0034ec:	e9d4 320f 	ldrd	r3, r2, [r4, #60]	; 0x3c
 e0034f0:	fb02 f303 	mul.w	r3, r2, r3
 e0034f4:	1a9a      	subs	r2, r3, r2
 e0034f6:	440b      	add	r3, r1
 e0034f8:	4411      	add	r1, r2
 e0034fa:	60a3      	str	r3, [r4, #8]
 e0034fc:	23ff      	movs	r3, #255	; 0xff
 e0034fe:	60e1      	str	r1, [r4, #12]
 e003500:	f884 3044 	strb.w	r3, [r4, #68]	; 0x44
 e003504:	f884 3045 	strb.w	r3, [r4, #69]	; 0x45
 e003508:	f7fe feec 	bl	e0022e4 <vListInitialise>
 e00350c:	f104 0024 	add.w	r0, r4, #36	; 0x24
 e003510:	f7fe fee8 	bl	e0022e4 <vListInitialise>
 e003514:	f7ff fdb2 	bl	e00307c <vPortExitCritical>
 e003518:	f884 7050 	strb.w	r7, [r4, #80]	; 0x50
 e00351c:	64a5      	str	r5, [r4, #72]	; 0x48
 e00351e:	4620      	mov	r0, r4
 e003520:	bdf8      	pop	{r3, r4, r5, r6, r7, pc}
 e003522:	4603      	mov	r3, r0
 e003524:	e7d7      	b.n	e0034d6 <xQueueGenericCreate+0x22>
 e003526:	bf00      	nop

0e003528 <xQueueCreateCountingSemaphoreStatic>:
 e003528:	b570      	push	{r4, r5, r6, lr}
 e00352a:	4614      	mov	r4, r2
 e00352c:	b34a      	cbz	r2, e003582 <xQueueCreateCountingSemaphoreStatic+0x5a>
 e00352e:	2600      	movs	r6, #0
 e003530:	2301      	movs	r3, #1
 e003532:	6022      	str	r2, [r4, #0]
 e003534:	460d      	mov	r5, r1
 e003536:	63d0      	str	r0, [r2, #60]	; 0x3c
 e003538:	f882 3046 	strb.w	r3, [r2, #70]	; 0x46
 e00353c:	6416      	str	r6, [r2, #64]	; 0x40
 e00353e:	f7ff fd7f 	bl	e003040 <vPortEnterCritical>
 e003542:	6822      	ldr	r2, [r4, #0]
 e003544:	63a6      	str	r6, [r4, #56]	; 0x38
 e003546:	f104 0010 	add.w	r0, r4, #16
 e00354a:	6062      	str	r2, [r4, #4]
 e00354c:	e9d4 310f 	ldrd	r3, r1, [r4, #60]	; 0x3c
 e003550:	fb01 f303 	mul.w	r3, r1, r3
 e003554:	1a59      	subs	r1, r3, r1
 e003556:	4413      	add	r3, r2
 e003558:	440a      	add	r2, r1
 e00355a:	e9c4 3202 	strd	r3, r2, [r4, #8]
 e00355e:	23ff      	movs	r3, #255	; 0xff
 e003560:	f884 3044 	strb.w	r3, [r4, #68]	; 0x44
 e003564:	f884 3045 	strb.w	r3, [r4, #69]	; 0x45
 e003568:	f7fe febc 	bl	e0022e4 <vListInitialise>
 e00356c:	f104 0024 	add.w	r0, r4, #36	; 0x24
 e003570:	f7fe feb8 	bl	e0022e4 <vListInitialise>
 e003574:	f7ff fd82 	bl	e00307c <vPortExitCritical>
 e003578:	2302      	movs	r3, #2
 e00357a:	64a6      	str	r6, [r4, #72]	; 0x48
 e00357c:	63a5      	str	r5, [r4, #56]	; 0x38
 e00357e:	f884 3050 	strb.w	r3, [r4, #80]	; 0x50
 e003582:	4620      	mov	r0, r4
 e003584:	bd70      	pop	{r4, r5, r6, pc}
 e003586:	bf00      	nop

0e003588 <xQueueCreateCountingSemaphore>:
 e003588:	b5f8      	push	{r3, r4, r5, r6, r7, lr}
 e00358a:	4606      	mov	r6, r0
 e00358c:	2054      	movs	r0, #84	; 0x54
 e00358e:	460d      	mov	r5, r1
 e003590:	f7fe fdc0 	bl	e002114 <pvPortMalloc>
 e003594:	4604      	mov	r4, r0
 e003596:	b338      	cbz	r0, e0035e8 <xQueueCreateCountingSemaphore+0x60>
 e003598:	2700      	movs	r7, #0
 e00359a:	6020      	str	r0, [r4, #0]
 e00359c:	63c6      	str	r6, [r0, #60]	; 0x3c
 e00359e:	f880 7046 	strb.w	r7, [r0, #70]	; 0x46
 e0035a2:	6407      	str	r7, [r0, #64]	; 0x40
 e0035a4:	f7ff fd4c 	bl	e003040 <vPortEnterCritical>
 e0035a8:	6822      	ldr	r2, [r4, #0]
 e0035aa:	63a7      	str	r7, [r4, #56]	; 0x38
 e0035ac:	f104 0010 	add.w	r0, r4, #16
 e0035b0:	6062      	str	r2, [r4, #4]
 e0035b2:	e9d4 310f 	ldrd	r3, r1, [r4, #60]	; 0x3c
 e0035b6:	fb01 f303 	mul.w	r3, r1, r3
 e0035ba:	1a59      	subs	r1, r3, r1
 e0035bc:	4413      	add	r3, r2
 e0035be:	440a      	add	r2, r1
 e0035c0:	e9c4 3202 	strd	r3, r2, [r4, #8]
 e0035c4:	23ff      	movs	r3, #255	; 0xff
 e0035c6:	f884 3044 	strb.w	r3, [r4, #68]	; 0x44
 e0035ca:	f884 3045 	strb.w	r3, [r4, #69]	; 0x45
 e0035ce:	f7fe fe89 	bl	e0022e4 <vListInitialise>
 e0035d2:	f104 0024 	add.w	r0, r4, #36	; 0x24
 e0035d6:	f7fe fe85 	bl	e0022e4 <vListInitialise>
 e0035da:	f7ff fd4f 	bl	e00307c <vPortExitCritical>
 e0035de:	2302      	movs	r3, #2
 e0035e0:	64a7      	str	r7, [r4, #72]	; 0x48
 e0035e2:	63a5      	str	r5, [r4, #56]	; 0x38
 e0035e4:	f884 3050 	strb.w	r3, [r4, #80]	; 0x50
 e0035e8:	4620      	mov	r0, r4
 e0035ea:	bdf8      	pop	{r3, r4, r5, r6, r7, pc}

0e0035ec <xQueueGenericSend>:
 e0035ec:	e92d 43f0 	stmdb	sp!, {r4, r5, r6, r7, r8, r9, lr}
 e0035f0:	f1a3 0602 	sub.w	r6, r3, #2
 e0035f4:	b085      	sub	sp, #20
 e0035f6:	2500      	movs	r5, #0
 e0035f8:	4698      	mov	r8, r3
 e0035fa:	fab6 f686 	clz	r6, r6
 e0035fe:	4604      	mov	r4, r0
 e003600:	4689      	mov	r9, r1
 e003602:	462f      	mov	r7, r5
 e003604:	0976      	lsrs	r6, r6, #5
 e003606:	9201      	str	r2, [sp, #4]
 e003608:	e007      	b.n	e00361a <xQueueGenericSend+0x2e>
 e00360a:	f7ff fd37 	bl	e00307c <vPortExitCritical>
 e00360e:	4620      	mov	r0, r4
 e003610:	f7ff fed4 	bl	e0033bc <prvUnlockQueue>
 e003614:	f001 f882 	bl	e00471c <xTaskResumeAll>
 e003618:	2501      	movs	r5, #1
 e00361a:	f7ff fd11 	bl	e003040 <vPortEnterCritical>
 e00361e:	6ba2      	ldr	r2, [r4, #56]	; 0x38
 e003620:	6be3      	ldr	r3, [r4, #60]	; 0x3c
 e003622:	429a      	cmp	r2, r3
 e003624:	d339      	bcc.n	e00369a <xQueueGenericSend+0xae>
 e003626:	2e00      	cmp	r6, #0
 e003628:	d137      	bne.n	e00369a <xQueueGenericSend+0xae>
 e00362a:	9b01      	ldr	r3, [sp, #4]
 e00362c:	2b00      	cmp	r3, #0
 e00362e:	d044      	beq.n	e0036ba <xQueueGenericSend+0xce>
 e003630:	b37d      	cbz	r5, e003692 <xQueueGenericSend+0xa6>
 e003632:	f7ff fd23 	bl	e00307c <vPortExitCritical>
 e003636:	f001 f869 	bl	e00470c <vTaskSuspendAll>
 e00363a:	f7ff fd01 	bl	e003040 <vPortEnterCritical>
 e00363e:	f894 3044 	ldrb.w	r3, [r4, #68]	; 0x44
 e003642:	2bff      	cmp	r3, #255	; 0xff
 e003644:	bf08      	it	eq
 e003646:	f884 7044 	strbeq.w	r7, [r4, #68]	; 0x44
 e00364a:	f894 3045 	ldrb.w	r3, [r4, #69]	; 0x45
 e00364e:	2bff      	cmp	r3, #255	; 0xff
 e003650:	bf08      	it	eq
 e003652:	f884 7045 	strbeq.w	r7, [r4, #69]	; 0x45
 e003656:	f7ff fd11 	bl	e00307c <vPortExitCritical>
 e00365a:	a901      	add	r1, sp, #4
 e00365c:	a802      	add	r0, sp, #8
 e00365e:	f001 fa39 	bl	e004ad4 <xTaskCheckForTimeOut>
 e003662:	bb80      	cbnz	r0, e0036c6 <xQueueGenericSend+0xda>
 e003664:	f7ff fcec 	bl	e003040 <vPortEnterCritical>
 e003668:	6ba2      	ldr	r2, [r4, #56]	; 0x38
 e00366a:	6be3      	ldr	r3, [r4, #60]	; 0x3c
 e00366c:	429a      	cmp	r2, r3
 e00366e:	d1cc      	bne.n	e00360a <xQueueGenericSend+0x1e>
 e003670:	f7ff fd04 	bl	e00307c <vPortExitCritical>
 e003674:	9901      	ldr	r1, [sp, #4]
 e003676:	f104 0010 	add.w	r0, r4, #16
 e00367a:	f001 f9a7 	bl	e0049cc <vTaskPlaceOnEventList>
 e00367e:	4620      	mov	r0, r4
 e003680:	f7ff fe9c 	bl	e0033bc <prvUnlockQueue>
 e003684:	f001 f84a 	bl	e00471c <xTaskResumeAll>
 e003688:	2800      	cmp	r0, #0
 e00368a:	d1c5      	bne.n	e003618 <xQueueGenericSend+0x2c>
 e00368c:	f7ff fcc4 	bl	e003018 <vPortYield>
 e003690:	e7c2      	b.n	e003618 <xQueueGenericSend+0x2c>
 e003692:	a802      	add	r0, sp, #8
 e003694:	f001 fa12 	bl	e004abc <vTaskInternalSetTimeOutState>
 e003698:	e7cb      	b.n	e003632 <xQueueGenericSend+0x46>
 e00369a:	4642      	mov	r2, r8
 e00369c:	4649      	mov	r1, r9
 e00369e:	4620      	mov	r0, r4
 e0036a0:	6ba5      	ldr	r5, [r4, #56]	; 0x38
 e0036a2:	f7ff fe09 	bl	e0032b8 <prvCopyDataToQueue>
 e0036a6:	6ca3      	ldr	r3, [r4, #72]	; 0x48
 e0036a8:	b1b3      	cbz	r3, e0036d8 <xQueueGenericSend+0xec>
 e0036aa:	b31d      	cbz	r5, e0036f4 <xQueueGenericSend+0x108>
 e0036ac:	b316      	cbz	r6, e0036f4 <xQueueGenericSend+0x108>
 e0036ae:	f7ff fce5 	bl	e00307c <vPortExitCritical>
 e0036b2:	2001      	movs	r0, #1
 e0036b4:	b005      	add	sp, #20
 e0036b6:	e8bd 83f0 	ldmia.w	sp!, {r4, r5, r6, r7, r8, r9, pc}
 e0036ba:	f7ff fcdf 	bl	e00307c <vPortExitCritical>
 e0036be:	4630      	mov	r0, r6
 e0036c0:	b005      	add	sp, #20
 e0036c2:	e8bd 83f0 	ldmia.w	sp!, {r4, r5, r6, r7, r8, r9, pc}
 e0036c6:	4620      	mov	r0, r4
 e0036c8:	f7ff fe78 	bl	e0033bc <prvUnlockQueue>
 e0036cc:	f001 f826 	bl	e00471c <xTaskResumeAll>
 e0036d0:	2000      	movs	r0, #0
 e0036d2:	b005      	add	sp, #20
 e0036d4:	e8bd 83f0 	ldmia.w	sp!, {r4, r5, r6, r7, r8, r9, pc}
 e0036d8:	6a63      	ldr	r3, [r4, #36]	; 0x24
 e0036da:	b923      	cbnz	r3, e0036e6 <xQueueGenericSend+0xfa>
 e0036dc:	2800      	cmp	r0, #0
 e0036de:	d0e6      	beq.n	e0036ae <xQueueGenericSend+0xc2>
 e0036e0:	f7ff fc9a 	bl	e003018 <vPortYield>
 e0036e4:	e7e3      	b.n	e0036ae <xQueueGenericSend+0xc2>
 e0036e6:	f104 0024 	add.w	r0, r4, #36	; 0x24
 e0036ea:	f001 f995 	bl	e004a18 <xTaskRemoveFromEventList>
 e0036ee:	2800      	cmp	r0, #0
 e0036f0:	d0dd      	beq.n	e0036ae <xQueueGenericSend+0xc2>
 e0036f2:	e7f5      	b.n	e0036e0 <xQueueGenericSend+0xf4>
 e0036f4:	4620      	mov	r0, r4
 e0036f6:	f7ff fe1d 	bl	e003334 <prvNotifyQueueSetContainer>
 e0036fa:	e7ef      	b.n	e0036dc <xQueueGenericSend+0xf0>

0e0036fc <xQueueCreateMutexStatic>:
 e0036fc:	b570      	push	{r4, r5, r6, lr}
 e0036fe:	460c      	mov	r4, r1
 e003700:	b381      	cbz	r1, e003764 <xQueueCreateMutexStatic+0x68>
 e003702:	2600      	movs	r6, #0
 e003704:	2301      	movs	r3, #1
 e003706:	6021      	str	r1, [r4, #0]
 e003708:	4605      	mov	r5, r0
 e00370a:	f881 3046 	strb.w	r3, [r1, #70]	; 0x46
 e00370e:	e9c1 360f 	strd	r3, r6, [r1, #60]	; 0x3c
 e003712:	f7ff fc95 	bl	e003040 <vPortEnterCritical>
 e003716:	6821      	ldr	r1, [r4, #0]
 e003718:	23ff      	movs	r3, #255	; 0xff
 e00371a:	63a6      	str	r6, [r4, #56]	; 0x38
 e00371c:	6061      	str	r1, [r4, #4]
 e00371e:	f884 3044 	strb.w	r3, [r4, #68]	; 0x44
 e003722:	f884 3045 	strb.w	r3, [r4, #69]	; 0x45
 e003726:	e9d4 200f 	ldrd	r2, r0, [r4, #60]	; 0x3c
 e00372a:	fb00 f202 	mul.w	r2, r0, r2
 e00372e:	1a10      	subs	r0, r2, r0
 e003730:	440a      	add	r2, r1
 e003732:	4401      	add	r1, r0
 e003734:	f104 0010 	add.w	r0, r4, #16
 e003738:	e9c4 2102 	strd	r2, r1, [r4, #8]
 e00373c:	f7fe fdd2 	bl	e0022e4 <vListInitialise>
 e003740:	f104 0024 	add.w	r0, r4, #36	; 0x24
 e003744:	f7fe fdce 	bl	e0022e4 <vListInitialise>
 e003748:	f7ff fc98 	bl	e00307c <vPortExitCritical>
 e00374c:	4633      	mov	r3, r6
 e00374e:	4632      	mov	r2, r6
 e003750:	4631      	mov	r1, r6
 e003752:	4620      	mov	r0, r4
 e003754:	f884 5050 	strb.w	r5, [r4, #80]	; 0x50
 e003758:	64a6      	str	r6, [r4, #72]	; 0x48
 e00375a:	60a6      	str	r6, [r4, #8]
 e00375c:	6026      	str	r6, [r4, #0]
 e00375e:	60e6      	str	r6, [r4, #12]
 e003760:	f7ff ff44 	bl	e0035ec <xQueueGenericSend>
 e003764:	4620      	mov	r0, r4
 e003766:	bd70      	pop	{r4, r5, r6, pc}

0e003768 <xQueueCreateMutex>:
 e003768:	b570      	push	{r4, r5, r6, lr}
 e00376a:	4605      	mov	r5, r0
 e00376c:	2054      	movs	r0, #84	; 0x54
 e00376e:	f7fe fcd1 	bl	e002114 <pvPortMalloc>
 e003772:	4604      	mov	r4, r0
 e003774:	b378      	cbz	r0, e0037d6 <xQueueCreateMutex+0x6e>
 e003776:	2600      	movs	r6, #0
 e003778:	2301      	movs	r3, #1
 e00377a:	6020      	str	r0, [r4, #0]
 e00377c:	f880 6046 	strb.w	r6, [r0, #70]	; 0x46
 e003780:	e9c0 360f 	strd	r3, r6, [r0, #60]	; 0x3c
 e003784:	f7ff fc5c 	bl	e003040 <vPortEnterCritical>
 e003788:	6821      	ldr	r1, [r4, #0]
 e00378a:	63a6      	str	r6, [r4, #56]	; 0x38
 e00378c:	f104 0010 	add.w	r0, r4, #16
 e003790:	6061      	str	r1, [r4, #4]
 e003792:	e9d4 230f 	ldrd	r2, r3, [r4, #60]	; 0x3c
 e003796:	fb03 f202 	mul.w	r2, r3, r2
 e00379a:	1ad3      	subs	r3, r2, r3
 e00379c:	440a      	add	r2, r1
 e00379e:	4419      	add	r1, r3
 e0037a0:	23ff      	movs	r3, #255	; 0xff
 e0037a2:	e9c4 2102 	strd	r2, r1, [r4, #8]
 e0037a6:	f884 3044 	strb.w	r3, [r4, #68]	; 0x44
 e0037aa:	f884 3045 	strb.w	r3, [r4, #69]	; 0x45
 e0037ae:	f7fe fd99 	bl	e0022e4 <vListInitialise>
 e0037b2:	f104 0024 	add.w	r0, r4, #36	; 0x24
 e0037b6:	f7fe fd95 	bl	e0022e4 <vListInitialise>
 e0037ba:	f7ff fc5f 	bl	e00307c <vPortExitCritical>
 e0037be:	4633      	mov	r3, r6
 e0037c0:	4632      	mov	r2, r6
 e0037c2:	4631      	mov	r1, r6
 e0037c4:	4620      	mov	r0, r4
 e0037c6:	f884 5050 	strb.w	r5, [r4, #80]	; 0x50
 e0037ca:	64a6      	str	r6, [r4, #72]	; 0x48
 e0037cc:	60a6      	str	r6, [r4, #8]
 e0037ce:	6026      	str	r6, [r4, #0]
 e0037d0:	60e6      	str	r6, [r4, #12]
 e0037d2:	f7ff ff0b 	bl	e0035ec <xQueueGenericSend>
 e0037d6:	4620      	mov	r0, r4
 e0037d8:	bd70      	pop	{r4, r5, r6, pc}
 e0037da:	bf00      	nop

0e0037dc <xQueueGenericSendFromISR>:
 e0037dc:	e92d 43f8 	stmdb	sp!, {r3, r4, r5, r6, r7, r8, r9, lr}
 e0037e0:	4604      	mov	r4, r0
 e0037e2:	461d      	mov	r5, r3
 e0037e4:	4690      	mov	r8, r2
 e0037e6:	4689      	mov	r9, r1
 e0037e8:	f1a5 0602 	sub.w	r6, r5, #2
 e0037ec:	f7ff fbe2 	bl	e002fb4 <ulSetInterruptMaskFromISR>
 e0037f0:	6ba2      	ldr	r2, [r4, #56]	; 0x38
 e0037f2:	4607      	mov	r7, r0
 e0037f4:	6be3      	ldr	r3, [r4, #60]	; 0x3c
 e0037f6:	fab6 f686 	clz	r6, r6
 e0037fa:	429a      	cmp	r2, r3
 e0037fc:	ea4f 1656 	mov.w	r6, r6, lsr #5
 e003800:	d306      	bcc.n	e003810 <xQueueGenericSendFromISR+0x34>
 e003802:	b92e      	cbnz	r6, e003810 <xQueueGenericSendFromISR+0x34>
 e003804:	4638      	mov	r0, r7
 e003806:	f7ff fbdb 	bl	e002fc0 <vClearInterruptMaskFromISR>
 e00380a:	4630      	mov	r0, r6
 e00380c:	e8bd 83f8 	ldmia.w	sp!, {r3, r4, r5, r6, r7, r8, r9, pc}
 e003810:	462a      	mov	r2, r5
 e003812:	f894 5045 	ldrb.w	r5, [r4, #69]	; 0x45
 e003816:	4649      	mov	r1, r9
 e003818:	4620      	mov	r0, r4
 e00381a:	b26d      	sxtb	r5, r5
 e00381c:	f8d4 9038 	ldr.w	r9, [r4, #56]	; 0x38
 e003820:	f7ff fd4a 	bl	e0032b8 <prvCopyDataToQueue>
 e003824:	1c6b      	adds	r3, r5, #1
 e003826:	d00a      	beq.n	e00383e <xQueueGenericSendFromISR+0x62>
 e003828:	3501      	adds	r5, #1
 e00382a:	2601      	movs	r6, #1
 e00382c:	4638      	mov	r0, r7
 e00382e:	b26d      	sxtb	r5, r5
 e003830:	f884 5045 	strb.w	r5, [r4, #69]	; 0x45
 e003834:	f7ff fbc4 	bl	e002fc0 <vClearInterruptMaskFromISR>
 e003838:	4630      	mov	r0, r6
 e00383a:	e8bd 83f8 	ldmia.w	sp!, {r3, r4, r5, r6, r7, r8, r9, pc}
 e00383e:	6ca3      	ldr	r3, [r4, #72]	; 0x48
 e003840:	b153      	cbz	r3, e003858 <xQueueGenericSendFromISR+0x7c>
 e003842:	f1b9 0f00 	cmp.w	r9, #0
 e003846:	d018      	beq.n	e00387a <xQueueGenericSendFromISR+0x9e>
 e003848:	b1be      	cbz	r6, e00387a <xQueueGenericSendFromISR+0x9e>
 e00384a:	2601      	movs	r6, #1
 e00384c:	4638      	mov	r0, r7
 e00384e:	f7ff fbb7 	bl	e002fc0 <vClearInterruptMaskFromISR>
 e003852:	4630      	mov	r0, r6
 e003854:	e8bd 83f8 	ldmia.w	sp!, {r3, r4, r5, r6, r7, r8, r9, pc}
 e003858:	6a63      	ldr	r3, [r4, #36]	; 0x24
 e00385a:	2b00      	cmp	r3, #0
 e00385c:	d0f5      	beq.n	e00384a <xQueueGenericSendFromISR+0x6e>
 e00385e:	f104 0024 	add.w	r0, r4, #36	; 0x24
 e003862:	f001 f8d9 	bl	e004a18 <xTaskRemoveFromEventList>
 e003866:	f1b8 0f00 	cmp.w	r8, #0
 e00386a:	d0ee      	beq.n	e00384a <xQueueGenericSendFromISR+0x6e>
 e00386c:	2800      	cmp	r0, #0
 e00386e:	d0ec      	beq.n	e00384a <xQueueGenericSendFromISR+0x6e>
 e003870:	2301      	movs	r3, #1
 e003872:	461e      	mov	r6, r3
 e003874:	f8c8 3000 	str.w	r3, [r8]
 e003878:	e7c4      	b.n	e003804 <xQueueGenericSendFromISR+0x28>
 e00387a:	4620      	mov	r0, r4
 e00387c:	f7ff fd5a 	bl	e003334 <prvNotifyQueueSetContainer>
 e003880:	f1b8 0f00 	cmp.w	r8, #0
 e003884:	d1f2      	bne.n	e00386c <xQueueGenericSendFromISR+0x90>
 e003886:	e7e0      	b.n	e00384a <xQueueGenericSendFromISR+0x6e>

0e003888 <xQueueGiveFromISR>:
 e003888:	b5f8      	push	{r3, r4, r5, r6, r7, lr}
 e00388a:	4604      	mov	r4, r0
 e00388c:	460e      	mov	r6, r1
 e00388e:	f7ff fb91 	bl	e002fb4 <ulSetInterruptMaskFromISR>
 e003892:	4605      	mov	r5, r0
 e003894:	6ba3      	ldr	r3, [r4, #56]	; 0x38
 e003896:	6be2      	ldr	r2, [r4, #60]	; 0x3c
 e003898:	429a      	cmp	r2, r3
 e00389a:	d910      	bls.n	e0038be <xQueueGiveFromISR+0x36>
 e00389c:	f894 2045 	ldrb.w	r2, [r4, #69]	; 0x45
 e0038a0:	3301      	adds	r3, #1
 e0038a2:	2aff      	cmp	r2, #255	; 0xff
 e0038a4:	63a3      	str	r3, [r4, #56]	; 0x38
 e0038a6:	b253      	sxtb	r3, r2
 e0038a8:	d00f      	beq.n	e0038ca <xQueueGiveFromISR+0x42>
 e0038aa:	3301      	adds	r3, #1
 e0038ac:	2701      	movs	r7, #1
 e0038ae:	4628      	mov	r0, r5
 e0038b0:	b25b      	sxtb	r3, r3
 e0038b2:	f884 3045 	strb.w	r3, [r4, #69]	; 0x45
 e0038b6:	f7ff fb83 	bl	e002fc0 <vClearInterruptMaskFromISR>
 e0038ba:	4638      	mov	r0, r7
 e0038bc:	bdf8      	pop	{r3, r4, r5, r6, r7, pc}
 e0038be:	2700      	movs	r7, #0
 e0038c0:	4628      	mov	r0, r5
 e0038c2:	f7ff fb7d 	bl	e002fc0 <vClearInterruptMaskFromISR>
 e0038c6:	4638      	mov	r0, r7
 e0038c8:	bdf8      	pop	{r3, r4, r5, r6, r7, pc}
 e0038ca:	6ca3      	ldr	r3, [r4, #72]	; 0x48
 e0038cc:	b143      	cbz	r3, e0038e0 <xQueueGiveFromISR+0x58>
 e0038ce:	4620      	mov	r0, r4
 e0038d0:	f7ff fd30 	bl	e003334 <prvNotifyQueueSetContainer>
 e0038d4:	b136      	cbz	r6, e0038e4 <xQueueGiveFromISR+0x5c>
 e0038d6:	b128      	cbz	r0, e0038e4 <xQueueGiveFromISR+0x5c>
 e0038d8:	2301      	movs	r3, #1
 e0038da:	461f      	mov	r7, r3
 e0038dc:	6033      	str	r3, [r6, #0]
 e0038de:	e7ef      	b.n	e0038c0 <xQueueGiveFromISR+0x38>
 e0038e0:	6a63      	ldr	r3, [r4, #36]	; 0x24
 e0038e2:	b92b      	cbnz	r3, e0038f0 <xQueueGiveFromISR+0x68>
 e0038e4:	2701      	movs	r7, #1
 e0038e6:	4628      	mov	r0, r5
 e0038e8:	f7ff fb6a 	bl	e002fc0 <vClearInterruptMaskFromISR>
 e0038ec:	4638      	mov	r0, r7
 e0038ee:	bdf8      	pop	{r3, r4, r5, r6, r7, pc}
 e0038f0:	f104 0024 	add.w	r0, r4, #36	; 0x24
 e0038f4:	f001 f890 	bl	e004a18 <xTaskRemoveFromEventList>
 e0038f8:	2e00      	cmp	r6, #0
 e0038fa:	d0f3      	beq.n	e0038e4 <xQueueGiveFromISR+0x5c>
 e0038fc:	2800      	cmp	r0, #0
 e0038fe:	d1eb      	bne.n	e0038d8 <xQueueGiveFromISR+0x50>
 e003900:	e7f0      	b.n	e0038e4 <xQueueGiveFromISR+0x5c>
 e003902:	bf00      	nop

0e003904 <xQueueReceive>:
 e003904:	e92d 41f0 	stmdb	sp!, {r4, r5, r6, r7, r8, lr}
 e003908:	4604      	mov	r4, r0
 e00390a:	b084      	sub	sp, #16
 e00390c:	460f      	mov	r7, r1
 e00390e:	9201      	str	r2, [sp, #4]
 e003910:	f7ff fb96 	bl	e003040 <vPortEnterCritical>
 e003914:	6ba5      	ldr	r5, [r4, #56]	; 0x38
 e003916:	2d00      	cmp	r5, #0
 e003918:	d155      	bne.n	e0039c6 <xQueueReceive+0xc2>
 e00391a:	9b01      	ldr	r3, [sp, #4]
 e00391c:	b3ab      	cbz	r3, e00398a <xQueueReceive+0x86>
 e00391e:	a802      	add	r0, sp, #8
 e003920:	462e      	mov	r6, r5
 e003922:	f104 0824 	add.w	r8, r4, #36	; 0x24
 e003926:	f001 f8c9 	bl	e004abc <vTaskInternalSetTimeOutState>
 e00392a:	f7ff fba7 	bl	e00307c <vPortExitCritical>
 e00392e:	f000 feed 	bl	e00470c <vTaskSuspendAll>
 e003932:	f7ff fb85 	bl	e003040 <vPortEnterCritical>
 e003936:	f894 3044 	ldrb.w	r3, [r4, #68]	; 0x44
 e00393a:	2bff      	cmp	r3, #255	; 0xff
 e00393c:	bf08      	it	eq
 e00393e:	f884 6044 	strbeq.w	r6, [r4, #68]	; 0x44
 e003942:	f894 3045 	ldrb.w	r3, [r4, #69]	; 0x45
 e003946:	2bff      	cmp	r3, #255	; 0xff
 e003948:	bf08      	it	eq
 e00394a:	f884 6045 	strbeq.w	r6, [r4, #69]	; 0x45
 e00394e:	f7ff fb95 	bl	e00307c <vPortExitCritical>
 e003952:	a901      	add	r1, sp, #4
 e003954:	a802      	add	r0, sp, #8
 e003956:	f001 f8bd 	bl	e004ad4 <xTaskCheckForTimeOut>
 e00395a:	b9e0      	cbnz	r0, e003996 <xQueueReceive+0x92>
 e00395c:	f7ff fb70 	bl	e003040 <vPortEnterCritical>
 e003960:	6ba3      	ldr	r3, [r4, #56]	; 0x38
 e003962:	bb2b      	cbnz	r3, e0039b0 <xQueueReceive+0xac>
 e003964:	f7ff fb8a 	bl	e00307c <vPortExitCritical>
 e003968:	9901      	ldr	r1, [sp, #4]
 e00396a:	4640      	mov	r0, r8
 e00396c:	f001 f82e 	bl	e0049cc <vTaskPlaceOnEventList>
 e003970:	4620      	mov	r0, r4
 e003972:	f7ff fd23 	bl	e0033bc <prvUnlockQueue>
 e003976:	f000 fed1 	bl	e00471c <xTaskResumeAll>
 e00397a:	b308      	cbz	r0, e0039c0 <xQueueReceive+0xbc>
 e00397c:	f7ff fb60 	bl	e003040 <vPortEnterCritical>
 e003980:	6ba5      	ldr	r5, [r4, #56]	; 0x38
 e003982:	bb05      	cbnz	r5, e0039c6 <xQueueReceive+0xc2>
 e003984:	9b01      	ldr	r3, [sp, #4]
 e003986:	2b00      	cmp	r3, #0
 e003988:	d1cf      	bne.n	e00392a <xQueueReceive+0x26>
 e00398a:	f7ff fb77 	bl	e00307c <vPortExitCritical>
 e00398e:	2000      	movs	r0, #0
 e003990:	b004      	add	sp, #16
 e003992:	e8bd 81f0 	ldmia.w	sp!, {r4, r5, r6, r7, r8, pc}
 e003996:	4620      	mov	r0, r4
 e003998:	f7ff fd10 	bl	e0033bc <prvUnlockQueue>
 e00399c:	f000 febe 	bl	e00471c <xTaskResumeAll>
 e0039a0:	f7ff fb4e 	bl	e003040 <vPortEnterCritical>
 e0039a4:	6ba3      	ldr	r3, [r4, #56]	; 0x38
 e0039a6:	2b00      	cmp	r3, #0
 e0039a8:	d0ef      	beq.n	e00398a <xQueueReceive+0x86>
 e0039aa:	f7ff fb67 	bl	e00307c <vPortExitCritical>
 e0039ae:	e7e5      	b.n	e00397c <xQueueReceive+0x78>
 e0039b0:	f7ff fb64 	bl	e00307c <vPortExitCritical>
 e0039b4:	4620      	mov	r0, r4
 e0039b6:	f7ff fd01 	bl	e0033bc <prvUnlockQueue>
 e0039ba:	f000 feaf 	bl	e00471c <xTaskResumeAll>
 e0039be:	e7dd      	b.n	e00397c <xQueueReceive+0x78>
 e0039c0:	f7ff fb2a 	bl	e003018 <vPortYield>
 e0039c4:	e7da      	b.n	e00397c <xQueueReceive+0x78>
 e0039c6:	6c22      	ldr	r2, [r4, #64]	; 0x40
 e0039c8:	b142      	cbz	r2, e0039dc <xQueueReceive+0xd8>
 e0039ca:	68e1      	ldr	r1, [r4, #12]
 e0039cc:	68a3      	ldr	r3, [r4, #8]
 e0039ce:	4411      	add	r1, r2
 e0039d0:	4299      	cmp	r1, r3
 e0039d2:	60e1      	str	r1, [r4, #12]
 e0039d4:	d20c      	bcs.n	e0039f0 <xQueueReceive+0xec>
 e0039d6:	4638      	mov	r0, r7
 e0039d8:	f004 f80e 	bl	e0079f8 <____wrap_memcpy_veneer>
 e0039dc:	3d01      	subs	r5, #1
 e0039de:	63a5      	str	r5, [r4, #56]	; 0x38
 e0039e0:	6923      	ldr	r3, [r4, #16]
 e0039e2:	b943      	cbnz	r3, e0039f6 <xQueueReceive+0xf2>
 e0039e4:	f7ff fb4a 	bl	e00307c <vPortExitCritical>
 e0039e8:	2001      	movs	r0, #1
 e0039ea:	b004      	add	sp, #16
 e0039ec:	e8bd 81f0 	ldmia.w	sp!, {r4, r5, r6, r7, r8, pc}
 e0039f0:	6821      	ldr	r1, [r4, #0]
 e0039f2:	60e1      	str	r1, [r4, #12]
 e0039f4:	e7ef      	b.n	e0039d6 <xQueueReceive+0xd2>
 e0039f6:	f104 0010 	add.w	r0, r4, #16
 e0039fa:	f001 f80d 	bl	e004a18 <xTaskRemoveFromEventList>
 e0039fe:	2800      	cmp	r0, #0
 e003a00:	d0f0      	beq.n	e0039e4 <xQueueReceive+0xe0>
 e003a02:	f7ff fb09 	bl	e003018 <vPortYield>
 e003a06:	e7ed      	b.n	e0039e4 <xQueueReceive+0xe0>

0e003a08 <xQueueSemaphoreTake>:
 e003a08:	b5f0      	push	{r4, r5, r6, r7, lr}
 e003a0a:	4604      	mov	r4, r0
 e003a0c:	b085      	sub	sp, #20
 e003a0e:	2600      	movs	r6, #0
 e003a10:	9101      	str	r1, [sp, #4]
 e003a12:	f7ff fb15 	bl	e003040 <vPortEnterCritical>
 e003a16:	6ba3      	ldr	r3, [r4, #56]	; 0x38
 e003a18:	4635      	mov	r5, r6
 e003a1a:	4637      	mov	r7, r6
 e003a1c:	2b00      	cmp	r3, #0
 e003a1e:	d139      	bne.n	e003a94 <xQueueSemaphoreTake+0x8c>
 e003a20:	9b01      	ldr	r3, [sp, #4]
 e003a22:	2b00      	cmp	r3, #0
 e003a24:	d07f      	beq.n	e003b26 <xQueueSemaphoreTake+0x11e>
 e003a26:	2d00      	cmp	r5, #0
 e003a28:	d04e      	beq.n	e003ac8 <xQueueSemaphoreTake+0xc0>
 e003a2a:	f7ff fb27 	bl	e00307c <vPortExitCritical>
 e003a2e:	f000 fe6d 	bl	e00470c <vTaskSuspendAll>
 e003a32:	f7ff fb05 	bl	e003040 <vPortEnterCritical>
 e003a36:	f894 3044 	ldrb.w	r3, [r4, #68]	; 0x44
 e003a3a:	2bff      	cmp	r3, #255	; 0xff
 e003a3c:	bf08      	it	eq
 e003a3e:	f884 7044 	strbeq.w	r7, [r4, #68]	; 0x44
 e003a42:	f894 3045 	ldrb.w	r3, [r4, #69]	; 0x45
 e003a46:	2bff      	cmp	r3, #255	; 0xff
 e003a48:	bf08      	it	eq
 e003a4a:	f884 7045 	strbeq.w	r7, [r4, #69]	; 0x45
 e003a4e:	f7ff fb15 	bl	e00307c <vPortExitCritical>
 e003a52:	a901      	add	r1, sp, #4
 e003a54:	a802      	add	r0, sp, #8
 e003a56:	f001 f83d 	bl	e004ad4 <xTaskCheckForTimeOut>
 e003a5a:	bb48      	cbnz	r0, e003ab0 <xQueueSemaphoreTake+0xa8>
 e003a5c:	f7ff faf0 	bl	e003040 <vPortEnterCritical>
 e003a60:	6ba3      	ldr	r3, [r4, #56]	; 0x38
 e003a62:	2b00      	cmp	r3, #0
 e003a64:	d134      	bne.n	e003ad0 <xQueueSemaphoreTake+0xc8>
 e003a66:	f7ff fb09 	bl	e00307c <vPortExitCritical>
 e003a6a:	6823      	ldr	r3, [r4, #0]
 e003a6c:	2b00      	cmp	r3, #0
 e003a6e:	d051      	beq.n	e003b14 <xQueueSemaphoreTake+0x10c>
 e003a70:	9901      	ldr	r1, [sp, #4]
 e003a72:	f104 0024 	add.w	r0, r4, #36	; 0x24
 e003a76:	f000 ffa9 	bl	e0049cc <vTaskPlaceOnEventList>
 e003a7a:	4620      	mov	r0, r4
 e003a7c:	f7ff fc9e 	bl	e0033bc <prvUnlockQueue>
 e003a80:	f000 fe4c 	bl	e00471c <xTaskResumeAll>
 e003a84:	2800      	cmp	r0, #0
 e003a86:	d042      	beq.n	e003b0e <xQueueSemaphoreTake+0x106>
 e003a88:	f7ff fada 	bl	e003040 <vPortEnterCritical>
 e003a8c:	6ba3      	ldr	r3, [r4, #56]	; 0x38
 e003a8e:	2501      	movs	r5, #1
 e003a90:	2b00      	cmp	r3, #0
 e003a92:	d0c5      	beq.n	e003a20 <xQueueSemaphoreTake+0x18>
 e003a94:	3b01      	subs	r3, #1
 e003a96:	6822      	ldr	r2, [r4, #0]
 e003a98:	63a3      	str	r3, [r4, #56]	; 0x38
 e003a9a:	2a00      	cmp	r2, #0
 e003a9c:	d052      	beq.n	e003b44 <xQueueSemaphoreTake+0x13c>
 e003a9e:	6923      	ldr	r3, [r4, #16]
 e003aa0:	2b00      	cmp	r3, #0
 e003aa2:	d146      	bne.n	e003b32 <xQueueSemaphoreTake+0x12a>
 e003aa4:	2601      	movs	r6, #1
