
/home/auto_jenkins_wlan5/IOT_ATS/repos/release-master/source/amebadplus_gcc_project/project_km0/asdk/image_mp/target_img2.axf:     file format elf32-littlearm


Disassembly of section .xip_image2.text:

0c000020 <app_mpu_nocache_init>:
 c000020:	b510      	push	{r4, lr}
 c000022:	b084      	sub	sp, #16
 c000024:	f000 fc66 	bl	c0008f4 <mpu_entry_alloc>
 c000028:	2300      	movs	r3, #0
 c00002a:	9301      	str	r3, [sp, #4]
 c00002c:	2380      	movs	r3, #128	; 0x80
 c00002e:	f240 2400 	movw	r4, #512	; 0x200
 c000032:	029b      	lsls	r3, r3, #10
 c000034:	a901      	add	r1, sp, #4
 c000036:	9302      	str	r3, [sp, #8]
 c000038:	9403      	str	r4, [sp, #12]
 c00003a:	f000 fbeb 	bl	c000814 <mpu_region_cfg>
 c00003e:	f000 fc59 	bl	c0008f4 <mpu_entry_alloc>
 c000042:	f64a 2260 	movw	r2, #43616	; 0xaa60
 c000046:	f64a 6300 	movw	r3, #44544	; 0xae00
 c00004a:	f2c2 0206 	movt	r2, #8198	; 0x2006
 c00004e:	f2c2 0306 	movt	r3, #8198	; 0x2006
 c000052:	1a9b      	subs	r3, r3, r2
 c000054:	a901      	add	r1, sp, #4
 c000056:	9201      	str	r2, [sp, #4]
 c000058:	9302      	str	r3, [sp, #8]
 c00005a:	9403      	str	r4, [sp, #12]
 c00005c:	f000 fbda 	bl	c000814 <mpu_region_cfg>
 c000060:	2000      	movs	r0, #0
 c000062:	b004      	add	sp, #16
 c000064:	bd10      	pop	{r4, pc}
 c000066:	bf00      	nop

0c000068 <app_start>:
 c000068:	f245 2001 	movw	r0, #20993	; 0x5201
 c00006c:	b510      	push	{r4, lr}
 c00006e:	f6c0 4000 	movt	r0, #3072	; 0xc00
 c000072:	f000 f923 	bl	c0002bc <Fault_Hanlder_Redirect>
 c000076:	f001 fec5 	bl	c001e04 <rtos_mem_init>
 c00007a:	f000 f815 	bl	c0000a8 <SystemCoreClockUpdate>
 c00007e:	f243 1345 	movw	r3, #12613	; 0x3145
 c000082:	f2c0 0300 	movt	r3, #0
 c000086:	4798      	blx	r3
 c000088:	f000 fc44 	bl	c000914 <pinmap_init>
 c00008c:	f000 fba4 	bl	c0007d8 <mpu_init>
 c000090:	f7ff ffc6 	bl	c000020 <app_mpu_nocache_init>
 c000094:	4903      	ldr	r1, [pc, #12]	; (c0000a4 <app_start+0x3c>)
 c000096:	4668      	mov	r0, sp
 c000098:	4008      	ands	r0, r1
 c00009a:	4685      	mov	sp, r0
 c00009c:	f001 fcc0 	bl	c001a20 <main>
 c0000a0:	bd10      	pop	{r4, pc}
 c0000a2:	0000      	.short	0x0000
 c0000a4:	ffffff80 	.word	0xffffff80

0c0000a8 <SystemCoreClockUpdate>:
 c0000a8:	f240 4381 	movw	r3, #1153	; 0x481
 c0000ac:	b510      	push	{r4, lr}
 c0000ae:	f2c0 0300 	movt	r3, #0
 c0000b2:	4798      	blx	r3
 c0000b4:	f248 1300 	movw	r3, #33024	; 0x8100
 c0000b8:	f2c2 0306 	movt	r3, #8198	; 0x2006
 c0000bc:	6018      	str	r0, [r3, #0]
 c0000be:	bd10      	pop	{r4, pc}

0c0000c0 <Systick_Cmd>:
 c0000c0:	f24e 0310 	movw	r3, #57360	; 0xe010
 c0000c4:	f2ce 0300 	movt	r3, #57344	; 0xe000
 c0000c8:	2101      	movs	r1, #1
 c0000ca:	681a      	ldr	r2, [r3, #0]
 c0000cc:	b120      	cbz	r0, c0000d8 <Systick_Cmd+0x18>
 c0000ce:	430a      	orrs	r2, r1
 c0000d0:	601a      	str	r2, [r3, #0]
 c0000d2:	f3bf 8f4f 	dsb	sy
 c0000d6:	4770      	bx	lr
 c0000d8:	438a      	bics	r2, r1
 c0000da:	601a      	str	r2, [r3, #0]
 c0000dc:	e7f9      	b.n	c0000d2 <Systick_Cmd+0x12>
 c0000de:	bf00      	nop

0c0000e0 <CPU_InInterrupt>:
 c0000e0:	f3ef 8005 	mrs	r0, IPSR
 c0000e4:	1e43      	subs	r3, r0, #1
 c0000e6:	4198      	sbcs	r0, r3
 c0000e8:	4770      	bx	lr
 c0000ea:	bf00      	nop

0c0000ec <irq_disable_save>:
 c0000ec:	f3ef 8010 	mrs	r0, PRIMASK
 c0000f0:	b672      	cpsid	i
 c0000f2:	4770      	bx	lr

0c0000f4 <irq_enable_restore>:
 c0000f4:	f380 8810 	msr	PRIMASK, r0
 c0000f8:	4770      	bx	lr
 c0000fa:	bf00      	nop

0c0000fc <HANDLER_HardFault>:
 c0000fc:	f3ef 8008 	mrs	r0, MSP
 c000100:	f3ef 8109 	mrs	r1, PSP
 c000104:	4672      	mov	r2, lr
 c000106:	2300      	movs	r3, #0
 c000108:	b4f0      	push	{r4, r5, r6, r7}
 c00010a:	e001      	b.n	c000110 <Fault_Handler>
 c00010c:	4770      	bx	lr
 c00010e:	bf00      	nop

0c000110 <Fault_Handler>:
 c000110:	b5f0      	push	{r4, r5, r6, r7, lr}
 c000112:	001c      	movs	r4, r3
 c000114:	000f      	movs	r7, r1
 c000116:	f640 0330 	movw	r3, #2096	; 0x830
 c00011a:	f640 014c 	movw	r1, #2124	; 0x84c
 c00011e:	0006      	movs	r6, r0
 c000120:	0015      	movs	r5, r2
 c000122:	b097      	sub	sp, #92	; 0x5c
 c000124:	2241      	movs	r2, #65	; 0x41
 c000126:	2001      	movs	r0, #1
 c000128:	f6c0 4302 	movt	r3, #3074	; 0xc02
 c00012c:	f6c0 4102 	movt	r1, #3074	; 0xc02
 c000130:	f001 fb8e 	bl	c001850 <rtk_log_write>
 c000134:	2c00      	cmp	r4, #0
 c000136:	d000      	beq.n	c00013a <Fault_Handler+0x2a>
 c000138:	e09f      	b.n	c00027a <Fault_Handler+0x16a>
 c00013a:	f640 0354 	movw	r3, #2132	; 0x854
 c00013e:	f640 014c 	movw	r1, #2124	; 0x84c
 c000142:	f6c0 4302 	movt	r3, #3074	; 0xc02
 c000146:	2241      	movs	r2, #65	; 0x41
 c000148:	2001      	movs	r0, #1
 c00014a:	f6c0 4102 	movt	r1, #3074	; 0xc02
 c00014e:	f001 fb7f 	bl	c001850 <rtk_log_write>
 c000152:	2240      	movs	r2, #64	; 0x40
 c000154:	2100      	movs	r1, #0
 c000156:	a806      	add	r0, sp, #24
 c000158:	f020 fb02 	bl	c020760 <____wrap_memset_veneer>
 c00015c:	230c      	movs	r3, #12
 c00015e:	402b      	ands	r3, r5
 c000160:	2b0c      	cmp	r3, #12
 c000162:	d100      	bne.n	c000166 <Fault_Handler+0x56>
 c000164:	e096      	b.n	c000294 <Fault_Handler+0x184>
 c000166:	0033      	movs	r3, r6
 c000168:	3b10      	subs	r3, #16
 c00016a:	681b      	ldr	r3, [r3, #0]
 c00016c:	9505      	str	r5, [sp, #20]
 c00016e:	9306      	str	r3, [sp, #24]
 c000170:	0033      	movs	r3, r6
 c000172:	3b0c      	subs	r3, #12
 c000174:	681b      	ldr	r3, [r3, #0]
 c000176:	0035      	movs	r5, r6
 c000178:	9307      	str	r3, [sp, #28]
 c00017a:	0033      	movs	r3, r6
 c00017c:	3b08      	subs	r3, #8
 c00017e:	681b      	ldr	r3, [r3, #0]
 c000180:	9308      	str	r3, [sp, #32]
 c000182:	1f33      	subs	r3, r6, #4
 c000184:	681b      	ldr	r3, [r3, #0]
 c000186:	9303      	str	r3, [sp, #12]
 c000188:	9309      	str	r3, [sp, #36]	; 0x24
 c00018a:	592a      	ldr	r2, [r5, r4]
 c00018c:	ab05      	add	r3, sp, #20
 c00018e:	191b      	adds	r3, r3, r4
 c000190:	3404      	adds	r4, #4
 c000192:	625a      	str	r2, [r3, #36]	; 0x24
 c000194:	2c20      	cmp	r4, #32
 c000196:	d1f8      	bne.n	c00018a <Fault_Handler+0x7a>
 c000198:	0029      	movs	r1, r5
 c00019a:	aa05      	add	r2, sp, #20
 c00019c:	6be8      	ldr	r0, [r5, #60]	; 0x3c
 c00019e:	f006 f9a1 	bl	c0064e4 <crash_dump>
 c0001a2:	f640 037c 	movw	r3, #2172	; 0x87c
 c0001a6:	f640 014c 	movw	r1, #2124	; 0x84c
 c0001aa:	2241      	movs	r2, #65	; 0x41
 c0001ac:	2001      	movs	r0, #1
 c0001ae:	9600      	str	r6, [sp, #0]
 c0001b0:	f6c0 4302 	movt	r3, #3074	; 0xc02
 c0001b4:	f6c0 4102 	movt	r1, #3074	; 0xc02
 c0001b8:	f001 fb4a 	bl	c001850 <rtk_log_write>
 c0001bc:	f640 038c 	movw	r3, #2188	; 0x88c
 c0001c0:	f640 014c 	movw	r1, #2124	; 0x84c
 c0001c4:	2241      	movs	r2, #65	; 0x41
 c0001c6:	2001      	movs	r0, #1
 c0001c8:	9700      	str	r7, [sp, #0]
 c0001ca:	f6c0 4302 	movt	r3, #3074	; 0xc02
 c0001ce:	f6c0 4102 	movt	r1, #3074	; 0xc02
 c0001d2:	f001 fb3d 	bl	c001850 <rtk_log_write>
 c0001d6:	f3ef 8314 	mrs	r3, CONTROL
 c0001da:	f640 014c 	movw	r1, #2124	; 0x84c
 c0001de:	9300      	str	r3, [sp, #0]
 c0001e0:	f64e 5400 	movw	r4, #60672	; 0xed00
 c0001e4:	f640 039c 	movw	r3, #2204	; 0x89c
 c0001e8:	f2ce 0400 	movt	r4, #57344	; 0xe000
 c0001ec:	2241      	movs	r2, #65	; 0x41
 c0001ee:	2001      	movs	r0, #1
 c0001f0:	f6c0 4302 	movt	r3, #3074	; 0xc02
 c0001f4:	f6c0 4102 	movt	r1, #3074	; 0xc02
 c0001f8:	f001 fb2a 	bl	c001850 <rtk_log_write>
 c0001fc:	69e3      	ldr	r3, [r4, #28]
 c0001fe:	f640 014c 	movw	r1, #2124	; 0x84c
 c000202:	0f9b      	lsrs	r3, r3, #30
 c000204:	9300      	str	r3, [sp, #0]
 c000206:	f640 03b0 	movw	r3, #2224	; 0x8b0
 c00020a:	2241      	movs	r2, #65	; 0x41
 c00020c:	2001      	movs	r0, #1
 c00020e:	f6c0 4302 	movt	r3, #3074	; 0xc02
 c000212:	f6c0 4102 	movt	r1, #3074	; 0xc02
 c000216:	f001 fb1b 	bl	c001850 <rtk_log_write>
 c00021a:	6a23      	ldr	r3, [r4, #32]
 c00021c:	f640 014c 	movw	r1, #2124	; 0x84c
 c000220:	021b      	lsls	r3, r3, #8
 c000222:	0f9b      	lsrs	r3, r3, #30
 c000224:	9300      	str	r3, [sp, #0]
 c000226:	f640 03c8 	movw	r3, #2248	; 0x8c8
 c00022a:	2241      	movs	r2, #65	; 0x41
 c00022c:	2001      	movs	r0, #1
 c00022e:	f6c0 4302 	movt	r3, #3074	; 0xc02
 c000232:	f6c0 4102 	movt	r1, #3074	; 0xc02
 c000236:	f001 fb0b 	bl	c001850 <rtk_log_write>
 c00023a:	6a23      	ldr	r3, [r4, #32]
 c00023c:	f640 014c 	movw	r1, #2124	; 0x84c
 c000240:	0f9b      	lsrs	r3, r3, #30
 c000242:	9300      	str	r3, [sp, #0]
 c000244:	f640 03e4 	movw	r3, #2276	; 0x8e4
 c000248:	2241      	movs	r2, #65	; 0x41
 c00024a:	2001      	movs	r0, #1
 c00024c:	f6c0 4302 	movt	r3, #3074	; 0xc02
 c000250:	f6c0 4102 	movt	r1, #3074	; 0xc02
 c000254:	f001 fafc 	bl	c001850 <rtk_log_write>
 c000258:	f640 0360 	movw	r3, #2144	; 0x860
 c00025c:	f640 014c 	movw	r1, #2124	; 0x84c
 c000260:	2241      	movs	r2, #65	; 0x41
 c000262:	f6c0 4302 	movt	r3, #3074	; 0xc02
 c000266:	f6c0 4102 	movt	r1, #3074	; 0xc02
 c00026a:	2001      	movs	r0, #1
 c00026c:	f001 faf0 	bl	c001850 <rtk_log_write>
 c000270:	0028      	movs	r0, r5
 c000272:	f020 fa3d 	bl	c0206f0 <__INT_HardFault_C_veneer>
 c000276:	b017      	add	sp, #92	; 0x5c
 c000278:	bdf0      	pop	{r4, r5, r6, r7, pc}
 c00027a:	f640 0364 	movw	r3, #2148	; 0x864
 c00027e:	f640 014c 	movw	r1, #2124	; 0x84c
 c000282:	2241      	movs	r2, #65	; 0x41
 c000284:	2001      	movs	r0, #1
 c000286:	f6c0 4302 	movt	r3, #3074	; 0xc02
 c00028a:	f6c0 4102 	movt	r1, #3074	; 0xc02
 c00028e:	f001 fadf 	bl	c001850 <rtk_log_write>
 c000292:	e7fe      	b.n	c000292 <Fault_Handler+0x182>
 c000294:	0033      	movs	r3, r6
 c000296:	3b10      	subs	r3, #16
 c000298:	681b      	ldr	r3, [r3, #0]
 c00029a:	9505      	str	r5, [sp, #20]
 c00029c:	9306      	str	r3, [sp, #24]
 c00029e:	0033      	movs	r3, r6
 c0002a0:	3b0c      	subs	r3, #12
 c0002a2:	681b      	ldr	r3, [r3, #0]
 c0002a4:	003d      	movs	r5, r7
 c0002a6:	9307      	str	r3, [sp, #28]
 c0002a8:	0033      	movs	r3, r6
 c0002aa:	3b08      	subs	r3, #8
 c0002ac:	681b      	ldr	r3, [r3, #0]
 c0002ae:	9308      	str	r3, [sp, #32]
 c0002b0:	1f33      	subs	r3, r6, #4
 c0002b2:	681b      	ldr	r3, [r3, #0]
 c0002b4:	9303      	str	r3, [sp, #12]
 c0002b6:	9309      	str	r3, [sp, #36]	; 0x24
 c0002b8:	e767      	b.n	c00018a <Fault_Handler+0x7a>
 c0002ba:	bf00      	nop

0c0002bc <Fault_Hanlder_Redirect>:
 c0002bc:	f240 0300 	movw	r3, #0
 c0002c0:	f240 02fd 	movw	r2, #253	; 0xfd
 c0002c4:	f2c2 0300 	movt	r3, #8192	; 0x2000
 c0002c8:	f6c0 4200 	movt	r2, #3072	; 0xc00
 c0002cc:	60da      	str	r2, [r3, #12]
 c0002ce:	f648 7350 	movw	r3, #36688	; 0x8f50
 c0002d2:	f2c2 0306 	movt	r3, #8198	; 0x2006
 c0002d6:	6018      	str	r0, [r3, #0]
 c0002d8:	4770      	bx	lr
 c0002da:	bf00      	nop

0c0002dc <FLASH_Write_IPC_Int>:
 c0002dc:	b570      	push	{r4, r5, r6, lr}
 c0002de:	b672      	cpsid	i
 c0002e0:	2104      	movs	r1, #4
 c0002e2:	2001      	movs	r0, #1
 c0002e4:	f000 f9c2 	bl	c00066c <ipc_get_message>
 c0002e8:	f64e 5300 	movw	r3, #60672	; 0xed00
 c0002ec:	f2ce 0300 	movt	r3, #57344	; 0xe000
 c0002f0:	695b      	ldr	r3, [r3, #20]
 c0002f2:	6844      	ldr	r4, [r0, #4]
 c0002f4:	03db      	lsls	r3, r3, #15
 c0002f6:	d518      	bpl.n	c00032a <FLASH_Write_IPC_Int+0x4e>
 c0002f8:	231f      	movs	r3, #31
 c0002fa:	0019      	movs	r1, r3
 c0002fc:	4021      	ands	r1, r4
 c0002fe:	4223      	tst	r3, r4
 c000300:	d13d      	bne.n	c00037e <FLASH_Write_IPC_Int+0xa2>
 c000302:	0023      	movs	r3, r4
 c000304:	2104      	movs	r1, #4
 c000306:	f3bf 8f4f 	dsb	sy
 c00030a:	f64e 5000 	movw	r0, #60672	; 0xed00
 c00030e:	f240 255c 	movw	r5, #604	; 0x25c
 c000312:	18c9      	adds	r1, r1, r3
 c000314:	f2ce 0000 	movt	r0, #57344	; 0xe000
 c000318:	5143      	str	r3, [r0, r5]
 c00031a:	3320      	adds	r3, #32
 c00031c:	1aca      	subs	r2, r1, r3
 c00031e:	2a00      	cmp	r2, #0
 c000320:	dcfa      	bgt.n	c000318 <FLASH_Write_IPC_Int+0x3c>
 c000322:	f3bf 8f4f 	dsb	sy
 c000326:	f3bf 8f6f 	isb	sy
 c00032a:	7823      	ldrb	r3, [r4, #0]
 c00032c:	2b01      	cmp	r3, #1
 c00032e:	d02b      	beq.n	c000388 <FLASH_Write_IPC_Int+0xac>
 c000330:	2b02      	cmp	r3, #2
 c000332:	d03d      	beq.n	c0003b0 <FLASH_Write_IPC_Int+0xd4>
 c000334:	f64e 5300 	movw	r3, #60672	; 0xed00
 c000338:	f2ce 0300 	movt	r3, #57344	; 0xe000
 c00033c:	695b      	ldr	r3, [r3, #20]
 c00033e:	03db      	lsls	r3, r3, #15
 c000340:	d518      	bpl.n	c000374 <FLASH_Write_IPC_Int+0x98>
 c000342:	231f      	movs	r3, #31
 c000344:	001a      	movs	r2, r3
 c000346:	2104      	movs	r1, #4
 c000348:	4022      	ands	r2, r4
 c00034a:	4223      	tst	r3, r4
 c00034c:	d114      	bne.n	c000378 <FLASH_Write_IPC_Int+0x9c>
 c00034e:	f3bf 8f4f 	dsb	sy
 c000352:	f64e 5000 	movw	r0, #60672	; 0xed00
 c000356:	0023      	movs	r3, r4
 c000358:	1909      	adds	r1, r1, r4
 c00035a:	f240 2468 	movw	r4, #616	; 0x268
 c00035e:	f2ce 0000 	movt	r0, #57344	; 0xe000
 c000362:	5103      	str	r3, [r0, r4]
 c000364:	3320      	adds	r3, #32
 c000366:	1aca      	subs	r2, r1, r3
 c000368:	2a00      	cmp	r2, #0
 c00036a:	dcfa      	bgt.n	c000362 <FLASH_Write_IPC_Int+0x86>
 c00036c:	f3bf 8f4f 	dsb	sy
 c000370:	f3bf 8f6f 	isb	sy
 c000374:	b662      	cpsie	i
 c000376:	bd70      	pop	{r4, r5, r6, pc}
 c000378:	439c      	bics	r4, r3
 c00037a:	1d11      	adds	r1, r2, #4
 c00037c:	e7e7      	b.n	c00034e <FLASH_Write_IPC_Int+0x72>
 c00037e:	0022      	movs	r2, r4
 c000380:	439a      	bics	r2, r3
 c000382:	0013      	movs	r3, r2
 c000384:	3104      	adds	r1, #4
 c000386:	e7be      	b.n	c000306 <FLASH_Write_IPC_Int+0x2a>
 c000388:	f243 1391 	movw	r3, #12689	; 0x3191
 c00038c:	f2c0 0300 	movt	r3, #0
 c000390:	4798      	blx	r3
 c000392:	f248 2344 	movw	r3, #33348	; 0x8244
 c000396:	f2c2 0306 	movt	r3, #8198	; 0x2006
 c00039a:	6018      	str	r0, [r3, #0]
 c00039c:	f004 f8dc 	bl	c004558 <xTaskGetTickCountFromISR>
 c0003a0:	f248 2340 	movw	r3, #33344	; 0x8240
 c0003a4:	f2c2 0306 	movt	r3, #8198	; 0x2006
 c0003a8:	6018      	str	r0, [r3, #0]
 c0003aa:	2300      	movs	r3, #0
 c0003ac:	7023      	strb	r3, [r4, #0]
 c0003ae:	e7c1      	b.n	c000334 <FLASH_Write_IPC_Int+0x58>
 c0003b0:	f248 2344 	movw	r3, #33348	; 0x8244
 c0003b4:	f2c2 0306 	movt	r3, #8198	; 0x2006
 c0003b8:	6818      	ldr	r0, [r3, #0]
 c0003ba:	f243 13c5 	movw	r3, #12741	; 0x31c5
 c0003be:	f2c0 0300 	movt	r3, #0
 c0003c2:	4798      	blx	r3
 c0003c4:	0005      	movs	r5, r0
 c0003c6:	f004 f8c7 	bl	c004558 <xTaskGetTickCountFromISR>
 c0003ca:	f248 2340 	movw	r3, #33344	; 0x8240
 c0003ce:	f2c2 0306 	movt	r3, #8198	; 0x2006
 c0003d2:	681b      	ldr	r3, [r3, #0]
 c0003d4:	4283      	cmp	r3, r0
 c0003d6:	d80f      	bhi.n	c0003f8 <FLASH_Write_IPC_Int+0x11c>
 c0003d8:	1ac3      	subs	r3, r0, r3
 c0003da:	1c5a      	adds	r2, r3, #1
 c0003dc:	42aa      	cmp	r2, r5
 c0003de:	d208      	bcs.n	c0003f2 <FLASH_Write_IPC_Int+0x116>
 c0003e0:	1e68      	subs	r0, r5, #1
 c0003e2:	1ac5      	subs	r5, r0, r3
 c0003e4:	4298      	cmp	r0, r3
 c0003e6:	d004      	beq.n	c0003f2 <FLASH_Write_IPC_Int+0x116>
 c0003e8:	3d01      	subs	r5, #1
 c0003ea:	f004 f8c5 	bl	c004578 <xTaskIncrementTick>
 c0003ee:	2d00      	cmp	r5, #0
 c0003f0:	d1fa      	bne.n	c0003e8 <FLASH_Write_IPC_Int+0x10c>
 c0003f2:	2300      	movs	r3, #0
 c0003f4:	7023      	strb	r3, [r4, #0]
 c0003f6:	e79d      	b.n	c000334 <FLASH_Write_IPC_Int+0x58>
 c0003f8:	1a1b      	subs	r3, r3, r0
 c0003fa:	43db      	mvns	r3, r3
 c0003fc:	e7ed      	b.n	c0003da <FLASH_Write_IPC_Int+0xfe>
 c0003fe:	bf00      	nop

0c000400 <ipc_table_init>:
 c000400:	b5f0      	push	{r4, r5, r6, r7, lr}
 c000402:	4647      	mov	r7, r8
 c000404:	46ce      	mov	lr, r9
 c000406:	f24a 4374 	movw	r3, #42100	; 0xa474
 c00040a:	f24a 34e8 	movw	r4, #41960	; 0xa3e8
 c00040e:	f240 081c 	movw	r8, #28
 c000412:	b580      	push	{r7, lr}
 c000414:	f6c0 4302 	movt	r3, #3074	; 0xc02
 c000418:	f6c0 4402 	movt	r4, #3074	; 0xc02
 c00041c:	1b1b      	subs	r3, r3, r4
 c00041e:	0006      	movs	r6, r0
 c000420:	fbb3 f8f8 	udiv	r8, r3, r8
 c000424:	b083      	sub	sp, #12
 c000426:	2b1b      	cmp	r3, #27
 c000428:	d936      	bls.n	c000498 <ipc_table_init+0x98>
 c00042a:	2700      	movs	r7, #0
 c00042c:	f240 0901 	movw	r9, #1
 c000430:	e017      	b.n	c000462 <ipc_table_init+0x62>
 c000432:	f244 0380 	movw	r3, #16512	; 0x4080
 c000436:	f2c4 1301 	movt	r3, #16641	; 0x4101
 c00043a:	429e      	cmp	r6, r3
 c00043c:	d01b      	beq.n	c000476 <ipc_table_init+0x76>
 c00043e:	0030      	movs	r0, r6
 c000440:	f000 f952 	bl	c0006e8 <IPC_IERGet>
 c000444:	464b      	mov	r3, r9
 c000446:	3510      	adds	r5, #16
 c000448:	40ab      	lsls	r3, r5
 c00044a:	4218      	tst	r0, r3
 c00044c:	d129      	bne.n	c0004a2 <ipc_table_init+0xa2>
 c00044e:	0030      	movs	r0, r6
 c000450:	6923      	ldr	r3, [r4, #16]
 c000452:	68e2      	ldr	r2, [r4, #12]
 c000454:	b2e9      	uxtb	r1, r5
 c000456:	f000 f97d 	bl	c000754 <IPC_INTUserHandler>
 c00045a:	3701      	adds	r7, #1
 c00045c:	341c      	adds	r4, #28
 c00045e:	45b8      	cmp	r8, r7
 c000460:	d91a      	bls.n	c000498 <ipc_table_init+0x98>
 c000462:	6963      	ldr	r3, [r4, #20]
 c000464:	69a5      	ldr	r5, [r4, #24]
 c000466:	2b01      	cmp	r3, #1
 c000468:	d1e3      	bne.n	c000432 <ipc_table_init+0x32>
 c00046a:	f244 0380 	movw	r3, #16512	; 0x4080
 c00046e:	f2c4 1301 	movt	r3, #16641	; 0x4101
 c000472:	429e      	cmp	r6, r3
 c000474:	d0e3      	beq.n	c00043e <ipc_table_init+0x3e>
 c000476:	0030      	movs	r0, r6
 c000478:	f000 f936 	bl	c0006e8 <IPC_IERGet>
 c00047c:	464b      	mov	r3, r9
 c00047e:	40ab      	lsls	r3, r5
 c000480:	4218      	tst	r0, r3
 c000482:	d10e      	bne.n	c0004a2 <ipc_table_init+0xa2>
 c000484:	68a3      	ldr	r3, [r4, #8]
 c000486:	6862      	ldr	r2, [r4, #4]
 c000488:	0030      	movs	r0, r6
 c00048a:	b2e9      	uxtb	r1, r5
 c00048c:	3701      	adds	r7, #1
 c00048e:	f000 f961 	bl	c000754 <IPC_INTUserHandler>
 c000492:	341c      	adds	r4, #28
 c000494:	45b8      	cmp	r8, r7
 c000496:	d8e4      	bhi.n	c000462 <ipc_table_init+0x62>
 c000498:	b003      	add	sp, #12
 c00049a:	bcc0      	pop	{r6, r7}
 c00049c:	46b9      	mov	r9, r7
 c00049e:	46b0      	mov	r8, r6
 c0004a0:	bdf0      	pop	{r4, r5, r6, r7, pc}
 c0004a2:	f248 2328 	movw	r3, #33320	; 0x8228
 c0004a6:	f2c4 1300 	movt	r3, #16640	; 0x4100
 c0004aa:	681b      	ldr	r3, [r3, #0]
 c0004ac:	f640 1148 	movw	r1, #2376	; 0x948
 c0004b0:	061b      	lsls	r3, r3, #24
 c0004b2:	0f9b      	lsrs	r3, r3, #30
 c0004b4:	9300      	str	r3, [sp, #0]
 c0004b6:	f640 1300 	movw	r3, #2304	; 0x900
 c0004ba:	2249      	movs	r2, #73	; 0x49
 c0004bc:	2004      	movs	r0, #4
 c0004be:	9501      	str	r5, [sp, #4]
 c0004c0:	f6c0 4302 	movt	r3, #3074	; 0xc02
 c0004c4:	f6c0 4102 	movt	r1, #3074	; 0xc02
 c0004c8:	f001 f9c2 	bl	c001850 <rtk_log_write>
 c0004cc:	e7c5      	b.n	c00045a <ipc_table_init+0x5a>
 c0004ce:	bf00      	nop

0c0004d0 <IPC_TXHandler>:
 c0004d0:	f248 2328 	movw	r3, #33320	; 0x8228
 c0004d4:	b510      	push	{r4, lr}
 c0004d6:	0014      	movs	r4, r2
 c0004d8:	f2c4 1300 	movt	r3, #16640	; 0x4100
 c0004dc:	6818      	ldr	r0, [r3, #0]
 c0004de:	0600      	lsls	r0, r0, #24
 c0004e0:	0f80      	lsrs	r0, r0, #30
 c0004e2:	f000 f96f 	bl	c0007c4 <IPC_GetDevById>
 c0004e6:	b2e1      	uxtb	r1, r4
 c0004e8:	2200      	movs	r2, #0
 c0004ea:	f000 f8f1 	bl	c0006d0 <IPC_INTConfig>
 c0004ee:	f248 2348 	movw	r3, #33352	; 0x8248
 c0004f2:	3c10      	subs	r4, #16
 c0004f4:	f2c2 0306 	movt	r3, #8198	; 0x2006
 c0004f8:	00a4      	lsls	r4, r4, #2
 c0004fa:	58e0      	ldr	r0, [r4, r3]
 c0004fc:	b108      	cbz	r0, c000502 <IPC_TXHandler+0x32>
 c0004fe:	f001 fd9b 	bl	c002038 <rtos_sema_give>
 c000502:	bd10      	pop	{r4, pc}

0c000504 <IPC_wait_idle>:
 c000504:	b5f8      	push	{r3, r4, r5, r6, r7, lr}
 c000506:	000d      	movs	r5, r1
 c000508:	0004      	movs	r4, r0
 c00050a:	002e      	movs	r6, r5
 c00050c:	f7ff fde8 	bl	c0000e0 <CPU_InInterrupt>
 c000510:	3610      	adds	r6, #16
 c000512:	b9d8      	cbnz	r0, c00054c <IPC_wait_idle+0x48>
 c000514:	f248 3308 	movw	r3, #33544	; 0x8308
 c000518:	00b2      	lsls	r2, r6, #2
 c00051a:	f2c2 0306 	movt	r3, #8198	; 0x2006
 c00051e:	58d3      	ldr	r3, [r2, r3]
 c000520:	b1a3      	cbz	r3, c00054c <IPC_wait_idle+0x48>
 c000522:	f248 2748 	movw	r7, #33352	; 0x8248
 c000526:	00ad      	lsls	r5, r5, #2
 c000528:	f2c2 0706 	movt	r7, #8198	; 0x2006
 c00052c:	597b      	ldr	r3, [r7, r5]
 c00052e:	b31b      	cbz	r3, c000578 <IPC_wait_idle+0x74>
 c000530:	b2f6      	uxtb	r6, r6
 c000532:	0031      	movs	r1, r6
 c000534:	0020      	movs	r0, r4
 c000536:	2201      	movs	r2, #1
 c000538:	f000 f8ca 	bl	c0006d0 <IPC_INTConfig>
 c00053c:	2101      	movs	r1, #1
 c00053e:	5978      	ldr	r0, [r7, r5]
 c000540:	4249      	negs	r1, r1
 c000542:	f001 fd51 	bl	c001fe8 <rtos_sema_take>
 c000546:	b9d8      	cbnz	r0, c000580 <IPC_wait_idle+0x7c>
 c000548:	2000      	movs	r0, #0
 c00054a:	bdf8      	pop	{r3, r4, r5, r6, r7, pc}
 c00054c:	2101      	movs	r1, #1
 c00054e:	f249 6380 	movw	r3, #38528	; 0x9680
 c000552:	40b1      	lsls	r1, r6
 c000554:	f2c0 0398 	movt	r3, #152	; 0x98
 c000558:	e001      	b.n	c00055e <IPC_wait_idle+0x5a>
 c00055a:	3b01      	subs	r3, #1
 c00055c:	b11b      	cbz	r3, c000566 <IPC_wait_idle+0x62>
 c00055e:	6822      	ldr	r2, [r4, #0]
 c000560:	4211      	tst	r1, r2
 c000562:	d1fa      	bne.n	c00055a <IPC_wait_idle+0x56>
 c000564:	e7f0      	b.n	c000548 <IPC_wait_idle+0x44>
 c000566:	f640 104c 	movw	r0, #2380	; 0x94c
 c00056a:	f6c0 4002 	movt	r0, #3074	; 0xc02
 c00056e:	f005 fdad 	bl	c0060cc <DiagPrintf_minimal>
 c000572:	2001      	movs	r0, #1
 c000574:	4240      	negs	r0, r0
 c000576:	e7e8      	b.n	c00054a <IPC_wait_idle+0x46>
 c000578:	19e8      	adds	r0, r5, r7
 c00057a:	f001 fd25 	bl	c001fc8 <rtos_sema_create_binary>
 c00057e:	e7d7      	b.n	c000530 <IPC_wait_idle+0x2c>
 c000580:	f640 1064 	movw	r0, #2404	; 0x964
 c000584:	f6c0 4002 	movt	r0, #3074	; 0xc02
 c000588:	f005 fda0 	bl	c0060cc <DiagPrintf_minimal>
 c00058c:	0020      	movs	r0, r4
 c00058e:	2200      	movs	r2, #0
 c000590:	0031      	movs	r1, r6
 c000592:	f000 f89d 	bl	c0006d0 <IPC_INTConfig>
 c000596:	2002      	movs	r0, #2
 c000598:	4240      	negs	r0, r0
 c00059a:	e7d6      	b.n	c00054a <IPC_wait_idle+0x46>

0c00059c <ipc_send_message>:
 c00059c:	b5f0      	push	{r4, r5, r6, r7, lr}
 c00059e:	46c6      	mov	lr, r8
 c0005a0:	000c      	movs	r4, r1
 c0005a2:	4680      	mov	r8, r0
 c0005a4:	0017      	movs	r7, r2
 c0005a6:	b500      	push	{lr}
 c0005a8:	2801      	cmp	r0, #1
 c0005aa:	d906      	bls.n	c0005ba <ipc_send_message+0x1e>
 c0005ac:	f640 1084 	movw	r0, #2436	; 0x984
 c0005b0:	2191      	movs	r1, #145	; 0x91
 c0005b2:	f6c0 4002 	movt	r0, #3074	; 0xc02
 c0005b6:	f005 ff31 	bl	c00641c <io_assert_failed>
 c0005ba:	2c0f      	cmp	r4, #15
 c0005bc:	d849      	bhi.n	c000652 <ipc_send_message+0xb6>
 c0005be:	2100      	movs	r1, #0
 c0005c0:	4640      	mov	r0, r8
 c0005c2:	f000 f8dd 	bl	c000780 <IPC_GetDev>
 c0005c6:	0022      	movs	r2, r4
 c0005c8:	2601      	movs	r6, #1
 c0005ca:	3210      	adds	r2, #16
 c0005cc:	4096      	lsls	r6, r2
 c0005ce:	6803      	ldr	r3, [r0, #0]
 c0005d0:	0005      	movs	r5, r0
 c0005d2:	421e      	tst	r6, r3
 c0005d4:	d136      	bne.n	c000644 <ipc_send_message+0xa8>
 c0005d6:	b387      	cbz	r7, c00063a <ipc_send_message+0x9e>
 c0005d8:	4642      	mov	r2, r8
 c0005da:	230f      	movs	r3, #15
 c0005dc:	4013      	ands	r3, r2
 c0005de:	011b      	lsls	r3, r3, #4
 c0005e0:	191c      	adds	r4, r3, r4
 c0005e2:	f644 6300 	movw	r3, #19968	; 0x4e00
 c0005e6:	f2c2 0300 	movt	r3, #8192	; 0x2000
 c0005ea:	469c      	mov	ip, r3
 c0005ec:	0124      	lsls	r4, r4, #4
 c0005ee:	4464      	add	r4, ip
 c0005f0:	2210      	movs	r2, #16
 c0005f2:	0039      	movs	r1, r7
 c0005f4:	0020      	movs	r0, r4
 c0005f6:	f020 f8c3 	bl	c020780 <____wrap_memcpy_veneer>
 c0005fa:	f64e 5300 	movw	r3, #60672	; 0xed00
 c0005fe:	f2ce 0300 	movt	r3, #57344	; 0xe000
 c000602:	695b      	ldr	r3, [r3, #20]
 c000604:	03db      	lsls	r3, r3, #15
 c000606:	d518      	bpl.n	c00063a <ipc_send_message+0x9e>
 c000608:	221f      	movs	r2, #31
 c00060a:	0020      	movs	r0, r4
 c00060c:	0023      	movs	r3, r4
 c00060e:	2110      	movs	r1, #16
 c000610:	4010      	ands	r0, r2
 c000612:	4214      	tst	r4, r2
 c000614:	d125      	bne.n	c000662 <ipc_send_message+0xc6>
 c000616:	f3bf 8f4f 	dsb	sy
 c00061a:	f64e 5000 	movw	r0, #60672	; 0xed00
 c00061e:	f240 2468 	movw	r4, #616	; 0x268
 c000622:	18c9      	adds	r1, r1, r3
 c000624:	f2ce 0000 	movt	r0, #57344	; 0xe000
 c000628:	5103      	str	r3, [r0, r4]
 c00062a:	3320      	adds	r3, #32
 c00062c:	1aca      	subs	r2, r1, r3
 c00062e:	2a00      	cmp	r2, #0
 c000630:	dcfa      	bgt.n	c000628 <ipc_send_message+0x8c>
 c000632:	f3bf 8f4f 	dsb	sy
 c000636:	f3bf 8f6f 	isb	sy
 c00063a:	2000      	movs	r0, #0
 c00063c:	602e      	str	r6, [r5, #0]
 c00063e:	bc80      	pop	{r7}
 c000640:	46b8      	mov	r8, r7
 c000642:	bdf0      	pop	{r4, r5, r6, r7, pc}
 c000644:	0021      	movs	r1, r4
 c000646:	f7ff ff5d 	bl	c000504 <IPC_wait_idle>
 c00064a:	2800      	cmp	r0, #0
 c00064c:	d0c3      	beq.n	c0005d6 <ipc_send_message+0x3a>
 c00064e:	2001      	movs	r0, #1
 c000650:	e7f5      	b.n	c00063e <ipc_send_message+0xa2>
 c000652:	f640 1084 	movw	r0, #2436	; 0x984
 c000656:	2192      	movs	r1, #146	; 0x92
 c000658:	f6c0 4002 	movt	r0, #3074	; 0xc02
 c00065c:	f005 fede 	bl	c00641c <io_assert_failed>
 c000660:	e7ad      	b.n	c0005be <ipc_send_message+0x22>
 c000662:	0001      	movs	r1, r0
 c000664:	4393      	bics	r3, r2
 c000666:	3110      	adds	r1, #16
 c000668:	e7d5      	b.n	c000616 <ipc_send_message+0x7a>
 c00066a:	bf00      	nop

0c00066c <ipc_get_message>:
 c00066c:	230f      	movs	r3, #15
 c00066e:	4018      	ands	r0, r3
 c000670:	f644 6300 	movw	r3, #19968	; 0x4e00
 c000674:	f2c2 0300 	movt	r3, #8192	; 0x2000
 c000678:	469c      	mov	ip, r3
 c00067a:	f64e 5300 	movw	r3, #60672	; 0xed00
 c00067e:	b530      	push	{r4, r5, lr}
 c000680:	0100      	lsls	r0, r0, #4
 c000682:	f2ce 0300 	movt	r3, #57344	; 0xe000
 c000686:	1840      	adds	r0, r0, r1
 c000688:	695b      	ldr	r3, [r3, #20]
 c00068a:	0100      	lsls	r0, r0, #4
 c00068c:	4460      	add	r0, ip
 c00068e:	03db      	lsls	r3, r3, #15
 c000690:	d518      	bpl.n	c0006c4 <ipc_get_message+0x58>
 c000692:	221f      	movs	r2, #31
 c000694:	0014      	movs	r4, r2
 c000696:	0003      	movs	r3, r0
 c000698:	2110      	movs	r1, #16
 c00069a:	4004      	ands	r4, r0
 c00069c:	4210      	tst	r0, r2
 c00069e:	d112      	bne.n	c0006c6 <ipc_get_message+0x5a>
 c0006a0:	f3bf 8f4f 	dsb	sy
 c0006a4:	f64e 5400 	movw	r4, #60672	; 0xed00
 c0006a8:	f240 255c 	movw	r5, #604	; 0x25c
 c0006ac:	18c9      	adds	r1, r1, r3
 c0006ae:	f2ce 0400 	movt	r4, #57344	; 0xe000
 c0006b2:	5163      	str	r3, [r4, r5]
 c0006b4:	3320      	adds	r3, #32
 c0006b6:	1aca      	subs	r2, r1, r3
 c0006b8:	2a00      	cmp	r2, #0
 c0006ba:	dcfa      	bgt.n	c0006b2 <ipc_get_message+0x46>
 c0006bc:	f3bf 8f4f 	dsb	sy
 c0006c0:	f3bf 8f6f 	isb	sy
 c0006c4:	bd30      	pop	{r4, r5, pc}
 c0006c6:	0021      	movs	r1, r4
 c0006c8:	4393      	bics	r3, r2
 c0006ca:	3110      	adds	r1, #16
 c0006cc:	e7e8      	b.n	c0006a0 <ipc_get_message+0x34>
 c0006ce:	bf00      	nop

0c0006d0 <IPC_INTConfig>:
 c0006d0:	2301      	movs	r3, #1
 c0006d2:	408b      	lsls	r3, r1
 c0006d4:	2a01      	cmp	r2, #1
 c0006d6:	d003      	beq.n	c0006e0 <IPC_INTConfig+0x10>
 c0006d8:	6882      	ldr	r2, [r0, #8]
 c0006da:	439a      	bics	r2, r3
 c0006dc:	6082      	str	r2, [r0, #8]
 c0006de:	4770      	bx	lr
 c0006e0:	6882      	ldr	r2, [r0, #8]
 c0006e2:	4313      	orrs	r3, r2
 c0006e4:	6083      	str	r3, [r0, #8]
 c0006e6:	e7fa      	b.n	c0006de <IPC_INTConfig+0xe>

0c0006e8 <IPC_IERGet>:
 c0006e8:	6880      	ldr	r0, [r0, #8]
 c0006ea:	4770      	bx	lr

0c0006ec <IPC_INTHandler>:
 c0006ec:	b5f0      	push	{r4, r5, r6, r7, lr}
 c0006ee:	464f      	mov	r7, r9
 c0006f0:	46d6      	mov	lr, sl
 c0006f2:	4646      	mov	r6, r8
 c0006f4:	f248 3508 	movw	r5, #33544	; 0x8308
 c0006f8:	b5c0      	push	{r6, r7, lr}
 c0006fa:	f248 2788 	movw	r7, #33416	; 0x8288
 c0006fe:	6843      	ldr	r3, [r0, #4]
 c000700:	4682      	mov	sl, r0
 c000702:	4698      	mov	r8, r3
 c000704:	2400      	movs	r4, #0
 c000706:	f240 0901 	movw	r9, #1
 c00070a:	f2c2 0706 	movt	r7, #8198	; 0x2006
 c00070e:	f2c2 0506 	movt	r5, #8198	; 0x2006
 c000712:	e00a      	b.n	c00072a <IPC_INTHandler+0x3e>
 c000714:	0022      	movs	r2, r4
 c000716:	4641      	mov	r1, r8
 c000718:	6838      	ldr	r0, [r7, #0]
 c00071a:	4798      	blx	r3
 c00071c:	4653      	mov	r3, sl
 c00071e:	605e      	str	r6, [r3, #4]
 c000720:	3401      	adds	r4, #1
 c000722:	3704      	adds	r7, #4
 c000724:	3504      	adds	r5, #4
 c000726:	2c20      	cmp	r4, #32
 c000728:	d00e      	beq.n	c000748 <IPC_INTHandler+0x5c>
 c00072a:	464e      	mov	r6, r9
 c00072c:	4643      	mov	r3, r8
 c00072e:	40a6      	lsls	r6, r4
 c000730:	4233      	tst	r3, r6
 c000732:	d0f5      	beq.n	c000720 <IPC_INTHandler+0x34>
 c000734:	682b      	ldr	r3, [r5, #0]
 c000736:	2b00      	cmp	r3, #0
 c000738:	d1ec      	bne.n	c000714 <IPC_INTHandler+0x28>
 c00073a:	4653      	mov	r3, sl
 c00073c:	3401      	adds	r4, #1
 c00073e:	605e      	str	r6, [r3, #4]
 c000740:	3704      	adds	r7, #4
 c000742:	3504      	adds	r5, #4
 c000744:	2c20      	cmp	r4, #32
 c000746:	d1f0      	bne.n	c00072a <IPC_INTHandler+0x3e>
 c000748:	2000      	movs	r0, #0
 c00074a:	bce0      	pop	{r5, r6, r7}
 c00074c:	46ba      	mov	sl, r7
 c00074e:	46b1      	mov	r9, r6
 c000750:	46a8      	mov	r8, r5
 c000752:	bdf0      	pop	{r4, r5, r6, r7, pc}

0c000754 <IPC_INTUserHandler>:
 c000754:	b530      	push	{r4, r5, lr}
 c000756:	b18a      	cbz	r2, c00077c <IPC_INTUserHandler+0x28>
 c000758:	f248 3408 	movw	r4, #33544	; 0x8308
 c00075c:	008d      	lsls	r5, r1, #2
 c00075e:	f2c2 0406 	movt	r4, #8198	; 0x2006
 c000762:	512a      	str	r2, [r5, r4]
 c000764:	f248 2288 	movw	r2, #33416	; 0x8288
 c000768:	f2c2 0206 	movt	r2, #8198	; 0x2006
 c00076c:	50ab      	str	r3, [r5, r2]
 c00076e:	290f      	cmp	r1, #15
 c000770:	d804      	bhi.n	c00077c <IPC_INTUserHandler+0x28>
 c000772:	2301      	movs	r3, #1
 c000774:	408b      	lsls	r3, r1
 c000776:	6882      	ldr	r2, [r0, #8]
 c000778:	4313      	orrs	r3, r2
 c00077a:	6083      	str	r3, [r0, #8]
 c00077c:	bd30      	pop	{r4, r5, pc}
 c00077e:	bf00      	nop

0c000780 <IPC_GetDev>:
 c000780:	b510      	push	{r4, lr}
 c000782:	000c      	movs	r4, r1
 c000784:	2801      	cmp	r0, #1
 c000786:	d80e      	bhi.n	c0007a6 <IPC_GetDev+0x26>
 c000788:	b131      	cbz	r1, c000798 <IPC_GetDev+0x18>
 c00078a:	2801      	cmp	r0, #1
 c00078c:	d106      	bne.n	c00079c <IPC_GetDev+0x1c>
 c00078e:	f244 0000 	movw	r0, #16384	; 0x4000
 c000792:	f2c4 1001 	movt	r0, #16641	; 0x4101
 c000796:	bd10      	pop	{r4, pc}
 c000798:	2801      	cmp	r0, #1
 c00079a:	d1f8      	bne.n	c00078e <IPC_GetDev+0xe>
 c00079c:	f244 0080 	movw	r0, #16512	; 0x4080
 c0007a0:	f2c4 1001 	movt	r0, #16641	; 0x4101
 c0007a4:	e7f7      	b.n	c000796 <IPC_GetDev+0x16>
 c0007a6:	f640 202c 	movw	r0, #2604	; 0xa2c
 c0007aa:	21a6      	movs	r1, #166	; 0xa6
 c0007ac:	f6c0 4002 	movt	r0, #3074	; 0xc02
 c0007b0:	f005 fe34 	bl	c00641c <io_assert_failed>
 c0007b4:	2c00      	cmp	r4, #0
 c0007b6:	d0ea      	beq.n	c00078e <IPC_GetDev+0xe>
 c0007b8:	f244 0080 	movw	r0, #16512	; 0x4080
 c0007bc:	f2c4 1001 	movt	r0, #16641	; 0x4101
 c0007c0:	e7e9      	b.n	c000796 <IPC_GetDev+0x16>
 c0007c2:	bf00      	nop

0c0007c4 <IPC_GetDevById>:
 c0007c4:	1e43      	subs	r3, r0, #1
 c0007c6:	4198      	sbcs	r0, r3
 c0007c8:	f244 0300 	movw	r3, #16384	; 0x4000
 c0007cc:	f2c4 1301 	movt	r3, #16641	; 0x4101
 c0007d0:	469c      	mov	ip, r3
 c0007d2:	01c0      	lsls	r0, r0, #7
 c0007d4:	4460      	add	r0, ip
 c0007d6:	4770      	bx	lr

0c0007d8 <mpu_init>:
 c0007d8:	f3bf 8f5f 	dmb	sy
 c0007dc:	f64e 5390 	movw	r3, #60816	; 0xed90
 c0007e0:	2001      	movs	r0, #1
 c0007e2:	f2ce 0300 	movt	r3, #57344	; 0xe000
 c0007e6:	6859      	ldr	r1, [r3, #4]
 c0007e8:	2200      	movs	r2, #0
 c0007ea:	4381      	bics	r1, r0
 c0007ec:	6059      	str	r1, [r3, #4]
 c0007ee:	f242 2144 	movw	r1, #8772	; 0x2244
 c0007f2:	f2c0 0177 	movt	r1, #119	; 0x77
 c0007f6:	605a      	str	r2, [r3, #4]
 c0007f8:	6319      	str	r1, [r3, #48]	; 0x30
 c0007fa:	635a      	str	r2, [r3, #52]	; 0x34
 c0007fc:	6859      	ldr	r1, [r3, #4]
 c0007fe:	3204      	adds	r2, #4
 c000800:	4311      	orrs	r1, r2
 c000802:	6059      	str	r1, [r3, #4]
 c000804:	685a      	ldr	r2, [r3, #4]
 c000806:	4302      	orrs	r2, r0
 c000808:	605a      	str	r2, [r3, #4]
 c00080a:	f3bf 8f4f 	dsb	sy
 c00080e:	f3bf 8f6f 	isb	sy
 c000812:	4770      	bx	lr

0c000814 <mpu_region_cfg>:
 c000814:	b570      	push	{r4, r5, r6, lr}
 c000816:	0005      	movs	r5, r0
 c000818:	000c      	movs	r4, r1
 c00081a:	b082      	sub	sp, #8
 c00081c:	2803      	cmp	r0, #3
 c00081e:	d831      	bhi.n	c000884 <mpu_region_cfg+0x70>
 c000820:	6823      	ldr	r3, [r4, #0]
 c000822:	06da      	lsls	r2, r3, #27
 c000824:	d138      	bne.n	c000898 <mpu_region_cfg+0x84>
 c000826:	6862      	ldr	r2, [r4, #4]
 c000828:	06d3      	lsls	r3, r2, #27
 c00082a:	d14c      	bne.n	c0008c6 <mpu_region_cfg+0xb2>
 c00082c:	6823      	ldr	r3, [r4, #0]
 c00082e:	1e58      	subs	r0, r3, #1
 c000830:	1880      	adds	r0, r0, r2
 c000832:	f3bf 8f5f 	dmb	sy
 c000836:	f64e 5390 	movw	r3, #60816	; 0xed90
 c00083a:	2101      	movs	r1, #1
 c00083c:	f2ce 0300 	movt	r3, #57344	; 0xe000
 c000840:	685a      	ldr	r2, [r3, #4]
 c000842:	438a      	bics	r2, r1
 c000844:	605a      	str	r2, [r3, #4]
 c000846:	609d      	str	r5, [r3, #8]
 c000848:	251f      	movs	r5, #31
 c00084a:	6822      	ldr	r2, [r4, #0]
 c00084c:	7aa6      	ldrb	r6, [r4, #10]
 c00084e:	43aa      	bics	r2, r5
 c000850:	4332      	orrs	r2, r6
 c000852:	7a66      	ldrb	r6, [r4, #9]
 c000854:	43a8      	bics	r0, r5
 c000856:	4332      	orrs	r2, r6
 c000858:	7a26      	ldrb	r6, [r4, #8]
 c00085a:	4332      	orrs	r2, r6
 c00085c:	60da      	str	r2, [r3, #12]
 c00085e:	220e      	movs	r2, #14
 c000860:	7ae4      	ldrb	r4, [r4, #11]
 c000862:	0064      	lsls	r4, r4, #1
 c000864:	4022      	ands	r2, r4
 c000866:	4302      	orrs	r2, r0
 c000868:	430a      	orrs	r2, r1
 c00086a:	611a      	str	r2, [r3, #16]
 c00086c:	685a      	ldr	r2, [r3, #4]
 c00086e:	430a      	orrs	r2, r1
 c000870:	605a      	str	r2, [r3, #4]
 c000872:	685a      	ldr	r2, [r3, #4]
 c000874:	4311      	orrs	r1, r2
 c000876:	6059      	str	r1, [r3, #4]
 c000878:	f3bf 8f4f 	dsb	sy
 c00087c:	f3bf 8f6f 	isb	sy
 c000880:	b002      	add	sp, #8
 c000882:	bd70      	pop	{r4, r5, r6, pc}
 c000884:	f640 20d4 	movw	r0, #2772	; 0xad4
 c000888:	216a      	movs	r1, #106	; 0x6a
 c00088a:	f6c0 4002 	movt	r0, #3074	; 0xc02
 c00088e:	f005 fdc5 	bl	c00641c <io_assert_failed>
 c000892:	6823      	ldr	r3, [r4, #0]
 c000894:	06da      	lsls	r2, r3, #27
 c000896:	d0c6      	beq.n	c000826 <mpu_region_cfg+0x12>
 c000898:	9300      	str	r3, [sp, #0]
 c00089a:	f640 31b0 	movw	r1, #2992	; 0xbb0
 c00089e:	f640 337c 	movw	r3, #2940	; 0xb7c
 c0008a2:	2257      	movs	r2, #87	; 0x57
 c0008a4:	2003      	movs	r0, #3
 c0008a6:	f6c0 4302 	movt	r3, #3074	; 0xc02
 c0008aa:	f6c0 4102 	movt	r1, #3074	; 0xc02
 c0008ae:	f000 ffcf 	bl	c001850 <rtk_log_write>
 c0008b2:	f640 20d4 	movw	r0, #2772	; 0xad4
 c0008b6:	216f      	movs	r1, #111	; 0x6f
 c0008b8:	f6c0 4002 	movt	r0, #3074	; 0xc02
 c0008bc:	f005 fdae 	bl	c00641c <io_assert_failed>
 c0008c0:	6862      	ldr	r2, [r4, #4]
 c0008c2:	06d3      	lsls	r3, r2, #27
 c0008c4:	d0b2      	beq.n	c00082c <mpu_region_cfg+0x18>
 c0008c6:	f640 33b4 	movw	r3, #2996	; 0xbb4
 c0008ca:	f640 31b0 	movw	r1, #2992	; 0xbb0
 c0008ce:	2003      	movs	r0, #3
 c0008d0:	9200      	str	r2, [sp, #0]
 c0008d2:	f6c0 4302 	movt	r3, #3074	; 0xc02
 c0008d6:	2257      	movs	r2, #87	; 0x57
 c0008d8:	f6c0 4102 	movt	r1, #3074	; 0xc02
 c0008dc:	f000 ffb8 	bl	c001850 <rtk_log_write>
 c0008e0:	f640 20d4 	movw	r0, #2772	; 0xad4
 c0008e4:	2174      	movs	r1, #116	; 0x74
 c0008e6:	f6c0 4002 	movt	r0, #3074	; 0xc02
 c0008ea:	f005 fd97 	bl	c00641c <io_assert_failed>
 c0008ee:	6862      	ldr	r2, [r4, #4]
 c0008f0:	e79c      	b.n	c00082c <mpu_region_cfg+0x18>
 c0008f2:	bf00      	nop

0c0008f4 <mpu_entry_alloc>:
 c0008f4:	f248 3288 	movw	r2, #33672	; 0x8388
 c0008f8:	2000      	movs	r0, #0
 c0008fa:	f2c2 0206 	movt	r2, #8198	; 0x2006
 c0008fe:	5c13      	ldrb	r3, [r2, r0]
 c000900:	b123      	cbz	r3, c00090c <mpu_entry_alloc+0x18>
 c000902:	3001      	adds	r0, #1
 c000904:	2804      	cmp	r0, #4
 c000906:	d1fa      	bne.n	c0008fe <mpu_entry_alloc+0xa>
 c000908:	30fb      	adds	r0, #251	; 0xfb
 c00090a:	4770      	bx	lr
 c00090c:	3301      	adds	r3, #1
 c00090e:	5413      	strb	r3, [r2, r0]
 c000910:	b2c0      	uxtb	r0, r0
 c000912:	e7fa      	b.n	c00090a <mpu_entry_alloc+0x16>

0c000914 <pinmap_init>:
 c000914:	b5f0      	push	{r4, r5, r6, r7, lr}
 c000916:	4657      	mov	r7, sl
 c000918:	464e      	mov	r6, r9
 c00091a:	4645      	mov	r5, r8
 c00091c:	46de      	mov	lr, fp
 c00091e:	f648 1300 	movw	r3, #35072	; 0x8900
 c000922:	b5e0      	push	{r5, r6, r7, lr}
 c000924:	f2c4 1300 	movt	r3, #16640	; 0x4100
 c000928:	6819      	ldr	r1, [r3, #0]
 c00092a:	f648 1308 	movw	r3, #35080	; 0x8908
 c00092e:	b08b      	sub	sp, #44	; 0x2c
 c000930:	9102      	str	r1, [sp, #8]
 c000932:	f2c4 1300 	movt	r3, #16640	; 0x4100
 c000936:	681b      	ldr	r3, [r3, #0]
 c000938:	af04      	add	r7, sp, #16
 c00093a:	9304      	str	r3, [sp, #16]
 c00093c:	f648 1304 	movw	r3, #35076	; 0x8904
 c000940:	f2c4 1300 	movt	r3, #16640	; 0x4100
 c000944:	681b      	ldr	r3, [r3, #0]
 c000946:	ae06      	add	r6, sp, #24
 c000948:	9303      	str	r3, [sp, #12]
 c00094a:	f648 130c 	movw	r3, #35084	; 0x890c
 c00094e:	f2c4 1300 	movt	r3, #16640	; 0x4100
 c000952:	681b      	ldr	r3, [r3, #0]
 c000954:	f640 32e8 	movw	r2, #3048	; 0xbe8
 c000958:	607b      	str	r3, [r7, #4]
 c00095a:	f648 1310 	movw	r3, #35088	; 0x8910
 c00095e:	f2c4 1300 	movt	r3, #16640	; 0x4100
 c000962:	681b      	ldr	r3, [r3, #0]
 c000964:	f64f 70ff 	movw	r0, #65535	; 0xffff
 c000968:	9306      	str	r3, [sp, #24]
 c00096a:	f648 1318 	movw	r3, #35096	; 0x8918
 c00096e:	f2c4 1300 	movt	r3, #16640	; 0x4100
 c000972:	681b      	ldr	r3, [r3, #0]
 c000974:	ad08      	add	r5, sp, #32
 c000976:	9308      	str	r3, [sp, #32]
 c000978:	f648 1314 	movw	r3, #35092	; 0x8914
 c00097c:	f2c4 1300 	movt	r3, #16640	; 0x4100
 c000980:	681b      	ldr	r3, [r3, #0]
 c000982:	f6c0 4202 	movt	r2, #3074	; 0xc02
 c000986:	6073      	str	r3, [r6, #4]
 c000988:	f648 131c 	movw	r3, #35100	; 0x891c
 c00098c:	f2c4 1300 	movt	r3, #16640	; 0x4100
 c000990:	681b      	ldr	r3, [r3, #0]
 c000992:	606b      	str	r3, [r5, #4]
 c000994:	8813      	ldrh	r3, [r2, #0]
 c000996:	4283      	cmp	r3, r0
 c000998:	d071      	beq.n	c000a7e <pinmap_init+0x16a>
 c00099a:	3202      	adds	r2, #2
 c00099c:	4691      	mov	r9, r2
 c00099e:	f240 0b03 	movw	fp, #3
 c0009a2:	f240 0a1f 	movw	sl, #31
 c0009a6:	e016      	b.n	c0009d6 <pinmap_init+0xc2>
 c0009a8:	2b02      	cmp	r3, #2
 c0009aa:	d055      	beq.n	c000a58 <pinmap_init+0x144>
 c0009ac:	b94b      	cbnz	r3, c0009c2 <pinmap_init+0xae>
 c0009ae:	4643      	mov	r3, r8
 c0009b0:	2201      	movs	r2, #1
 c0009b2:	409a      	lsls	r2, r3
 c0009b4:	00a4      	lsls	r4, r4, #2
 c0009b6:	5933      	ldr	r3, [r6, r4]
 c0009b8:	4393      	bics	r3, r2
 c0009ba:	5133      	str	r3, [r6, r4]
 c0009bc:	592b      	ldr	r3, [r5, r4]
 c0009be:	4393      	bics	r3, r2
 c0009c0:	512b      	str	r3, [r5, r4]
 c0009c2:	f240 0c04 	movw	ip, #4
 c0009c6:	44e1      	add	r9, ip
 c0009c8:	464b      	mov	r3, r9
 c0009ca:	f64f 72ff 	movw	r2, #65535	; 0xffff
 c0009ce:	3b02      	subs	r3, #2
 c0009d0:	881b      	ldrh	r3, [r3, #0]
 c0009d2:	4293      	cmp	r3, r2
 c0009d4:	d052      	beq.n	c000a7c <pinmap_init+0x168>
 c0009d6:	4659      	mov	r1, fp
 c0009d8:	464a      	mov	r2, r9
 c0009da:	095c      	lsrs	r4, r3, #5
 c0009dc:	400c      	ands	r4, r1
 c0009de:	4651      	mov	r1, sl
 c0009e0:	7812      	ldrb	r2, [r2, #0]
 c0009e2:	4019      	ands	r1, r3
 c0009e4:	4688      	mov	r8, r1
 c0009e6:	b2d8      	uxtb	r0, r3
 c0009e8:	2a03      	cmp	r2, #3
 c0009ea:	d040      	beq.n	c000a6e <pinmap_init+0x15a>
 c0009ec:	2a01      	cmp	r2, #1
 c0009ee:	d01c      	beq.n	c000a2a <pinmap_init+0x116>
 c0009f0:	2a02      	cmp	r2, #2
 c0009f2:	d126      	bne.n	c000a42 <pinmap_init+0x12e>
 c0009f4:	00a3      	lsls	r3, r4, #2
 c0009f6:	aa02      	add	r2, sp, #8
 c0009f8:	58d2      	ldr	r2, [r2, r3]
 c0009fa:	9201      	str	r2, [sp, #4]
 c0009fc:	2201      	movs	r2, #1
 c0009fe:	408a      	lsls	r2, r1
 c000a00:	9901      	ldr	r1, [sp, #4]
 c000a02:	4311      	orrs	r1, r2
 c000a04:	a802      	add	r0, sp, #8
 c000a06:	50c1      	str	r1, [r0, r3]
 c000a08:	58f9      	ldr	r1, [r7, r3]
 c000a0a:	4391      	bics	r1, r2
 c000a0c:	50f9      	str	r1, [r7, r3]
 c000a0e:	464b      	mov	r3, r9
 c000a10:	785b      	ldrb	r3, [r3, #1]
 c000a12:	2b01      	cmp	r3, #1
 c000a14:	d1c8      	bne.n	c0009a8 <pinmap_init+0x94>
 c000a16:	4642      	mov	r2, r8
 c000a18:	4093      	lsls	r3, r2
 c000a1a:	00a4      	lsls	r4, r4, #2
 c000a1c:	5932      	ldr	r2, [r6, r4]
 c000a1e:	439a      	bics	r2, r3
 c000a20:	5132      	str	r2, [r6, r4]
 c000a22:	592a      	ldr	r2, [r5, r4]
 c000a24:	4313      	orrs	r3, r2
 c000a26:	512b      	str	r3, [r5, r4]
 c000a28:	e7cb      	b.n	c0009c2 <pinmap_init+0xae>
 c000a2a:	408a      	lsls	r2, r1
 c000a2c:	00a3      	lsls	r3, r4, #2
 c000a2e:	a902      	add	r1, sp, #8
 c000a30:	58c9      	ldr	r1, [r1, r3]
 c000a32:	a802      	add	r0, sp, #8
 c000a34:	9101      	str	r1, [sp, #4]
 c000a36:	4391      	bics	r1, r2
 c000a38:	50c1      	str	r1, [r0, r3]
 c000a3a:	58f9      	ldr	r1, [r7, r3]
 c000a3c:	430a      	orrs	r2, r1
 c000a3e:	50fa      	str	r2, [r7, r3]
 c000a40:	e7e5      	b.n	c000a0e <pinmap_init+0xfa>
 c000a42:	2a00      	cmp	r2, #0
 c000a44:	d1e3      	bne.n	c000a0e <pinmap_init+0xfa>
 c000a46:	00a3      	lsls	r3, r4, #2
 c000a48:	aa02      	add	r2, sp, #8
 c000a4a:	58d2      	ldr	r2, [r2, r3]
 c000a4c:	9201      	str	r2, [sp, #4]
 c000a4e:	2201      	movs	r2, #1
 c000a50:	408a      	lsls	r2, r1
 c000a52:	9901      	ldr	r1, [sp, #4]
 c000a54:	4391      	bics	r1, r2
 c000a56:	e7d5      	b.n	c000a04 <pinmap_init+0xf0>
 c000a58:	4643      	mov	r3, r8
 c000a5a:	2201      	movs	r2, #1
 c000a5c:	409a      	lsls	r2, r3
 c000a5e:	00a4      	lsls	r4, r4, #2
 c000a60:	5933      	ldr	r3, [r6, r4]
 c000a62:	4313      	orrs	r3, r2
 c000a64:	5133      	str	r3, [r6, r4]
 c000a66:	592b      	ldr	r3, [r5, r4]
 c000a68:	4393      	bics	r3, r2
 c000a6a:	512b      	str	r3, [r5, r4]
 c000a6c:	e7a9      	b.n	c0009c2 <pinmap_init+0xae>
 c000a6e:	f642 23a1 	movw	r3, #10913	; 0x2aa1
 c000a72:	2100      	movs	r1, #0
 c000a74:	f2c0 0300 	movt	r3, #0
 c000a78:	4798      	blx	r3
 c000a7a:	e7c8      	b.n	c000a0e <pinmap_init+0xfa>
 c000a7c:	9902      	ldr	r1, [sp, #8]
 c000a7e:	f648 1300 	movw	r3, #35072	; 0x8900
 c000a82:	f2c4 1300 	movt	r3, #16640	; 0x4100
 c000a86:	6019      	str	r1, [r3, #0]
 c000a88:	f648 1308 	movw	r3, #35080	; 0x8908
 c000a8c:	9a04      	ldr	r2, [sp, #16]
 c000a8e:	f2c4 1300 	movt	r3, #16640	; 0x4100
 c000a92:	601a      	str	r2, [r3, #0]
 c000a94:	f648 1310 	movw	r3, #35088	; 0x8910
 c000a98:	9a06      	ldr	r2, [sp, #24]
 c000a9a:	f2c4 1300 	movt	r3, #16640	; 0x4100
 c000a9e:	601a      	str	r2, [r3, #0]
 c000aa0:	f648 1318 	movw	r3, #35096	; 0x8918
 c000aa4:	9a08      	ldr	r2, [sp, #32]
 c000aa6:	f2c4 1300 	movt	r3, #16640	; 0x4100
 c000aaa:	601a      	str	r2, [r3, #0]
 c000aac:	f648 1304 	movw	r3, #35076	; 0x8904
 c000ab0:	9a03      	ldr	r2, [sp, #12]
 c000ab2:	f2c4 1300 	movt	r3, #16640	; 0x4100
 c000ab6:	601a      	str	r2, [r3, #0]
 c000ab8:	f648 130c 	movw	r3, #35084	; 0x890c
 c000abc:	687a      	ldr	r2, [r7, #4]
 c000abe:	f2c4 1300 	movt	r3, #16640	; 0x4100
 c000ac2:	601a      	str	r2, [r3, #0]
 c000ac4:	f648 1314 	movw	r3, #35092	; 0x8914
 c000ac8:	6872      	ldr	r2, [r6, #4]
 c000aca:	f2c4 1300 	movt	r3, #16640	; 0x4100
 c000ace:	601a      	str	r2, [r3, #0]
 c000ad0:	f648 131c 	movw	r3, #35100	; 0x891c
 c000ad4:	686a      	ldr	r2, [r5, #4]
 c000ad6:	f2c4 1300 	movt	r3, #16640	; 0x4100
 c000ada:	601a      	str	r2, [r3, #0]
 c000adc:	b00b      	add	sp, #44	; 0x2c
 c000ade:	bcf0      	pop	{r4, r5, r6, r7}
 c000ae0:	46bb      	mov	fp, r7
 c000ae2:	46b2      	mov	sl, r6
 c000ae4:	46a9      	mov	r9, r5
 c000ae6:	46a0      	mov	r8, r4
 c000ae8:	bdf0      	pop	{r4, r5, r6, r7, pc}
 c000aea:	bf00      	nop

0c000aec <pmc_wakeuptimer_int_hdl>:
 c000aec:	f246 2300 	movw	r3, #25088	; 0x6200
 c000af0:	2104      	movs	r1, #4
 c000af2:	f2c4 1301 	movt	r3, #16641	; 0x4101
 c000af6:	689a      	ldr	r2, [r3, #8]
 c000af8:	2001      	movs	r0, #1
 c000afa:	430a      	orrs	r2, r1
 c000afc:	609a      	str	r2, [r3, #8]
 c000afe:	4770      	bx	lr

0c000b00 <pmu_set_sysactive_time>:
 c000b00:	2300      	movs	r3, #0
 c000b02:	b510      	push	{r4, lr}
 c000b04:	0c41      	lsrs	r1, r0, #17
 c000b06:	f240 32e8 	movw	r2, #1000	; 0x3e8
 c000b0a:	03c0      	lsls	r0, r0, #15
 c000b0c:	f01b f8be 	bl	c01bc8c <__aeabi_uldivmod>
 c000b10:	f246 2300 	movw	r3, #25088	; 0x6200
 c000b14:	f2c4 1301 	movt	r3, #16641	; 0x4101
 c000b18:	61d8      	str	r0, [r3, #28]
 c000b1a:	2000      	movs	r0, #0
 c000b1c:	bd10      	pop	{r4, pc}
 c000b1e:	bf00      	nop

0c000b20 <pmu_unregister_sleep_callback>:
 c000b20:	b510      	push	{r4, lr}
 c000b22:	0004      	movs	r4, r0
 c000b24:	2805      	cmp	r0, #5
 c000b26:	d810      	bhi.n	c000b4a <pmu_unregister_sleep_callback+0x2a>
 c000b28:	f248 338c 	movw	r3, #33676	; 0x838c
 c000b2c:	f2c2 0306 	movt	r3, #8198	; 0x2006
 c000b30:	469c      	mov	ip, r3
 c000b32:	f245 5339 	movw	r3, #21817	; 0x5539
 c000b36:	00a0      	lsls	r0, r4, #2
 c000b38:	1900      	adds	r0, r0, r4
 c000b3a:	0080      	lsls	r0, r0, #2
 c000b3c:	2214      	movs	r2, #20
 c000b3e:	2100      	movs	r1, #0
 c000b40:	4460      	add	r0, ip
 c000b42:	f2c0 0300 	movt	r3, #0
 c000b46:	4798      	blx	r3
 c000b48:	bd10      	pop	{r4, pc}
 c000b4a:	f640 40ec 	movw	r0, #3308	; 0xcec
 c000b4e:	2167      	movs	r1, #103	; 0x67
 c000b50:	f6c0 4002 	movt	r0, #3074	; 0xc02
 c000b54:	f005 fc62 	bl	c00641c <io_assert_failed>
 c000b58:	e7e6      	b.n	c000b28 <pmu_unregister_sleep_callback+0x8>
 c000b5a:	bf00      	nop

0c000b5c <pmu_yield_os_check>:
 c000b5c:	f248 1304 	movw	r3, #33028	; 0x8104
 c000b60:	f2c2 0306 	movt	r3, #8198	; 0x2006
 c000b64:	6818      	ldr	r0, [r3, #0]
 c000b66:	4770      	bx	lr

0c000b68 <pmu_ready_to_sleep>:
 c000b68:	f246 2300 	movw	r3, #25088	; 0x6200
 c000b6c:	f2c4 1301 	movt	r3, #16641	; 0x4101
 c000b70:	681a      	ldr	r2, [r3, #0]
 c000b72:	2000      	movs	r0, #0
 c000b74:	05d2      	lsls	r2, r2, #23
 c000b76:	d508      	bpl.n	c000b8a <pmu_ready_to_sleep+0x22>
 c000b78:	68d8      	ldr	r0, [r3, #12]
 c000b7a:	f248 1308 	movw	r3, #33032	; 0x8108
 c000b7e:	f2c2 0306 	movt	r3, #8198	; 0x2006
 c000b82:	681b      	ldr	r3, [r3, #0]
 c000b84:	4318      	orrs	r0, r3
 c000b86:	4243      	negs	r3, r0
 c000b88:	4158      	adcs	r0, r3
 c000b8a:	4770      	bx	lr

0c000b8c <pmu_acquire_wakelock>:
 c000b8c:	b510      	push	{r4, lr}
 c000b8e:	0004      	movs	r4, r0
 c000b90:	f7ff faac 	bl	c0000ec <irq_disable_save>
 c000b94:	2301      	movs	r3, #1
 c000b96:	f248 1208 	movw	r2, #33032	; 0x8108
 c000b9a:	40a3      	lsls	r3, r4
 c000b9c:	f2c2 0206 	movt	r2, #8198	; 0x2006
 c000ba0:	6811      	ldr	r1, [r2, #0]
 c000ba2:	430b      	orrs	r3, r1
 c000ba4:	6013      	str	r3, [r2, #0]
 c000ba6:	f7ff faa5 	bl	c0000f4 <irq_enable_restore>
 c000baa:	bd10      	pop	{r4, pc}

0c000bac <pmu_release_wakelock>:
 c000bac:	b510      	push	{r4, lr}
 c000bae:	0004      	movs	r4, r0
 c000bb0:	f7ff fa9c 	bl	c0000ec <irq_disable_save>
 c000bb4:	2201      	movs	r2, #1
 c000bb6:	f248 1308 	movw	r3, #33032	; 0x8108
 c000bba:	40a2      	lsls	r2, r4
 c000bbc:	f2c2 0306 	movt	r3, #8198	; 0x2006
 c000bc0:	6819      	ldr	r1, [r3, #0]
 c000bc2:	4391      	bics	r1, r2
 c000bc4:	6019      	str	r1, [r3, #0]
 c000bc6:	f7ff fa95 	bl	c0000f4 <irq_enable_restore>
 c000bca:	bd10      	pop	{r4, pc}

0c000bcc <pmu_init_wakeup_timer>:
 c000bcc:	b510      	push	{r4, lr}
 c000bce:	f640 20ed 	movw	r0, #2797	; 0xaed
 c000bd2:	f244 241d 	movw	r4, #16925	; 0x421d
 c000bd6:	2200      	movs	r2, #0
 c000bd8:	2117      	movs	r1, #23
 c000bda:	2303      	movs	r3, #3
 c000bdc:	f2c0 0400 	movt	r4, #0
 c000be0:	f6c0 4000 	movt	r0, #3072	; 0xc00
 c000be4:	47a0      	blx	r4
 c000be6:	f244 03c1 	movw	r3, #16577	; 0x40c1
 c000bea:	2017      	movs	r0, #23
 c000bec:	f2c0 0300 	movt	r3, #0
 c000bf0:	4798      	blx	r3
 c000bf2:	f246 2300 	movw	r3, #25088	; 0x6200
 c000bf6:	2104      	movs	r1, #4
 c000bf8:	f2c4 1301 	movt	r3, #16641	; 0x4101
 c000bfc:	685a      	ldr	r2, [r3, #4]
 c000bfe:	430a      	orrs	r2, r1
 c000c00:	605a      	str	r2, [r3, #4]
 c000c02:	bd10      	pop	{r4, pc}

0c000c04 <System_Reset>:
 c000c04:	f248 2328 	movw	r3, #33320	; 0x8228
 c000c08:	f2c4 1300 	movt	r3, #16640	; 0x4100
 c000c0c:	681b      	ldr	r3, [r3, #0]
 c000c0e:	061b      	lsls	r3, r3, #24
 c000c10:	0f9b      	lsrs	r3, r3, #30
 c000c12:	2b01      	cmp	r3, #1
 c000c14:	d016      	beq.n	c000c44 <System_Reset+0x40>
 c000c16:	b9a3      	cbnz	r3, c000c42 <System_Reset+0x3e>
 c000c18:	2180      	movs	r1, #128	; 0x80
 c000c1a:	05c9      	lsls	r1, r1, #23
 c000c1c:	f248 2364 	movw	r3, #33380	; 0x8264
 c000c20:	f249 6296 	movw	r2, #38550	; 0x9696
 c000c24:	f2c4 1300 	movt	r3, #16640	; 0x4100
 c000c28:	f2c9 6296 	movt	r2, #38550	; 0x9696
 c000c2c:	601a      	str	r2, [r3, #0]
 c000c2e:	f248 2260 	movw	r2, #33376	; 0x8260
 c000c32:	f2c4 1200 	movt	r2, #16640	; 0x4100
 c000c36:	6011      	str	r1, [r2, #0]
 c000c38:	f646 1269 	movw	r2, #26985	; 0x6969
 c000c3c:	f6c6 1269 	movt	r2, #26985	; 0x6969
 c000c40:	601a      	str	r2, [r3, #0]
 c000c42:	4770      	bx	lr
 c000c44:	2180      	movs	r1, #128	; 0x80
 c000c46:	0609      	lsls	r1, r1, #24
 c000c48:	e7e8      	b.n	c000c1c <System_Reset+0x18>
 c000c4a:	bf00      	nop

0c000c4c <wifi_get_country_code_info>:
 c000c4c:	b5f0      	push	{r4, r5, r6, r7, lr}
 c000c4e:	4646      	mov	r6, r8
 c000c50:	46d6      	mov	lr, sl
 c000c52:	464f      	mov	r7, r9
 c000c54:	b5c0      	push	{r6, r7, lr}
 c000c56:	4694      	mov	ip, r2
 c000c58:	2400      	movs	r4, #0
 c000c5a:	2541      	movs	r5, #65	; 0x41
 c000c5c:	7806      	ldrb	r6, [r0, #0]
 c000c5e:	4b2c      	ldr	r3, [pc, #176]	; (c000d10 <wifi_get_country_code_info+0xc4>)
 c000c60:	e004      	b.n	c000c6c <wifi_get_country_code_info+0x20>
 c000c62:	3401      	adds	r4, #1
 c000c64:	2c2e      	cmp	r4, #46	; 0x2e
 c000c66:	d019      	beq.n	c000c9c <wifi_get_country_code_info+0x50>
 c000c68:	78dd      	ldrb	r5, [r3, #3]
 c000c6a:	3304      	adds	r3, #4
 c000c6c:	42ae      	cmp	r6, r5
 c000c6e:	d1f8      	bne.n	c000c62 <wifi_get_country_code_info+0x16>
 c000c70:	781f      	ldrb	r7, [r3, #0]
 c000c72:	7845      	ldrb	r5, [r0, #1]
 c000c74:	42af      	cmp	r7, r5
 c000c76:	d1f4      	bne.n	c000c62 <wifi_get_country_code_info+0x16>
 c000c78:	f640 7308 	movw	r3, #3848	; 0xf08
 c000c7c:	f6c0 4302 	movt	r3, #3074	; 0xc02
 c000c80:	4698      	mov	r8, r3
 c000c82:	4662      	mov	r2, ip
 c000c84:	2001      	movs	r0, #1
 c000c86:	00a4      	lsls	r4, r4, #2
 c000c88:	4444      	add	r4, r8
 c000c8a:	78a3      	ldrb	r3, [r4, #2]
 c000c8c:	700b      	strb	r3, [r1, #0]
 c000c8e:	78e3      	ldrb	r3, [r4, #3]
 c000c90:	7013      	strb	r3, [r2, #0]
 c000c92:	bce0      	pop	{r5, r6, r7}
 c000c94:	46ba      	mov	sl, r7
 c000c96:	46b1      	mov	r9, r6
 c000c98:	46a8      	mov	r8, r5
 c000c9a:	bdf0      	pop	{r4, r5, r6, r7, pc}
 c000c9c:	f640 78c0 	movw	r8, #4032	; 0xfc0
 c000ca0:	f240 0900 	movw	r9, #0
 c000ca4:	222a      	movs	r2, #42	; 0x2a
 c000ca6:	f6c0 4802 	movt	r8, #3074	; 0xc02
 c000caa:	2a00      	cmp	r2, #0
 c000cac:	dd21      	ble.n	c000cf2 <wifi_get_country_code_info+0xa6>
 c000cae:	4643      	mov	r3, r8
 c000cb0:	681d      	ldr	r5, [r3, #0]
 c000cb2:	2300      	movs	r3, #0
 c000cb4:	e003      	b.n	c000cbe <wifi_get_country_code_info+0x72>
 c000cb6:	3301      	adds	r3, #1
 c000cb8:	b2db      	uxtb	r3, r3
 c000cba:	4293      	cmp	r3, r2
 c000cbc:	da19      	bge.n	c000cf2 <wifi_get_country_code_info+0xa6>
 c000cbe:	005c      	lsls	r4, r3, #1
 c000cc0:	192f      	adds	r7, r5, r4
 c000cc2:	5d2c      	ldrb	r4, [r5, r4]
 c000cc4:	42b4      	cmp	r4, r6
 c000cc6:	d1f6      	bne.n	c000cb6 <wifi_get_country_code_info+0x6a>
 c000cc8:	787f      	ldrb	r7, [r7, #1]
 c000cca:	7844      	ldrb	r4, [r0, #1]
 c000ccc:	42a7      	cmp	r7, r4
 c000cce:	d1f2      	bne.n	c000cb6 <wifi_get_country_code_info+0x6a>
 c000cd0:	f640 72c0 	movw	r2, #4032	; 0xfc0
 c000cd4:	464b      	mov	r3, r9
 c000cd6:	f6c0 4202 	movt	r2, #3074	; 0xc02
 c000cda:	4690      	mov	r8, r2
 c000cdc:	4662      	mov	r2, ip
 c000cde:	005b      	lsls	r3, r3, #1
 c000ce0:	444b      	add	r3, r9
 c000ce2:	009b      	lsls	r3, r3, #2
 c000ce4:	4443      	add	r3, r8
 c000ce6:	7918      	ldrb	r0, [r3, #4]
 c000ce8:	795b      	ldrb	r3, [r3, #5]
 c000cea:	7008      	strb	r0, [r1, #0]
 c000cec:	2001      	movs	r0, #1
 c000cee:	7013      	strb	r3, [r2, #0]
 c000cf0:	e7cf      	b.n	c000c92 <wifi_get_country_code_info+0x46>
 c000cf2:	f240 0a01 	movw	sl, #1
 c000cf6:	44d1      	add	r9, sl
 c000cf8:	464b      	mov	r3, r9
 c000cfa:	f240 0a0c 	movw	sl, #12
 c000cfe:	44d0      	add	r8, sl
 c000d00:	2b03      	cmp	r3, #3
 c000d02:	d002      	beq.n	c000d0a <wifi_get_country_code_info+0xbe>
 c000d04:	4643      	mov	r3, r8
 c000d06:	689a      	ldr	r2, [r3, #8]
 c000d08:	e7cf      	b.n	c000caa <wifi_get_country_code_info+0x5e>
 c000d0a:	2000      	movs	r0, #0
 c000d0c:	e7c1      	b.n	c000c92 <wifi_get_country_code_info+0x46>
 c000d0e:	bf00      	nop
 c000d10:	0c020f09 	.word	0x0c020f09

0c000d14 <wifi_hal_phy_get_power_limit_value_1v8_1v25>:
 c000d14:	466a      	mov	r2, sp
 c000d16:	0003      	movs	r3, r0
 c000d18:	7812      	ldrb	r2, [r2, #0]
 c000d1a:	2808      	cmp	r0, #8
 c000d1c:	d006      	beq.n	c000d2c <wifi_hal_phy_get_power_limit_value_1v8_1v25+0x18>
 c000d1e:	2000      	movs	r0, #0
 c000d20:	2b08      	cmp	r3, #8
 c000d22:	d902      	bls.n	c000d2a <wifi_hal_phy_get_power_limit_value_1v8_1v25+0x16>
 c000d24:	3b0a      	subs	r3, #10
 c000d26:	2b05      	cmp	r3, #5
 c000d28:	d804      	bhi.n	c000d34 <wifi_hal_phy_get_power_limit_value_1v8_1v25+0x20>
 c000d2a:	4770      	bx	lr
 c000d2c:	1e53      	subs	r3, r2, #1
 c000d2e:	419a      	sbcs	r2, r3
 c000d30:	4250      	negs	r0, r2
 c000d32:	e7fa      	b.n	c000d2a <wifi_hal_phy_get_power_limit_value_1v8_1v25+0x16>
 c000d34:	1e53      	subs	r3, r2, #1
 c000d36:	419a      	sbcs	r2, r3
 c000d38:	207f      	movs	r0, #127	; 0x7f
 c000d3a:	4252      	negs	r2, r2
 c000d3c:	4310      	orrs	r0, r2
 c000d3e:	e7f4      	b.n	c000d2a <wifi_hal_phy_get_power_limit_value_1v8_1v25+0x16>

0c000d40 <wifi_hal_phy_get_power_limit_value_1v8>:
 c000d40:	b530      	push	{r4, r5, lr}
 c000d42:	0004      	movs	r4, r0
 c000d44:	a803      	add	r0, sp, #12
 c000d46:	7805      	ldrb	r5, [r0, #0]
 c000d48:	2c07      	cmp	r4, #7
 c000d4a:	d818      	bhi.n	c000d7e <wifi_hal_phy_get_power_limit_value_1v8+0x3e>
 c000d4c:	2c04      	cmp	r4, #4
 c000d4e:	d81c      	bhi.n	c000d8a <wifi_hal_phy_get_power_limit_value_1v8+0x4a>
 c000d50:	2c02      	cmp	r4, #2
 c000d52:	d05c      	beq.n	c000e0e <wifi_hal_phy_get_power_limit_value_1v8+0xce>
 c000d54:	d926      	bls.n	c000da4 <wifi_hal_phy_get_power_limit_value_1v8+0x64>
 c000d56:	2c03      	cmp	r4, #3
 c000d58:	d100      	bne.n	c000d5c <wifi_hal_phy_get_power_limit_value_1v8+0x1c>
 c000d5a:	e067      	b.n	c000e2c <wifi_hal_phy_get_power_limit_value_1v8+0xec>
 c000d5c:	2d00      	cmp	r5, #0
 c000d5e:	d000      	beq.n	c000d62 <wifi_hal_phy_get_power_limit_value_1v8+0x22>
 c000d60:	e0a5      	b.n	c000eae <wifi_hal_phy_get_power_limit_value_1v8+0x16e>
 c000d62:	2900      	cmp	r1, #0
 c000d64:	d000      	beq.n	c000d68 <wifi_hal_phy_get_power_limit_value_1v8+0x28>
 c000d66:	e0ee      	b.n	c000f46 <wifi_hal_phy_get_power_limit_value_1v8+0x206>
 c000d68:	00d1      	lsls	r1, r2, #3
 c000d6a:	1a8a      	subs	r2, r1, r2
 c000d6c:	f241 1110 	movw	r1, #4368	; 0x1110
 c000d70:	f6c0 4102 	movt	r1, #3074	; 0xc02
 c000d74:	468c      	mov	ip, r1
 c000d76:	0052      	lsls	r2, r2, #1
 c000d78:	4462      	add	r2, ip
 c000d7a:	56d0      	ldrsb	r0, [r2, r3]
 c000d7c:	e006      	b.n	c000d8c <wifi_hal_phy_get_power_limit_value_1v8+0x4c>
 c000d7e:	2c0b      	cmp	r4, #11
 c000d80:	d063      	beq.n	c000e4a <wifi_hal_phy_get_power_limit_value_1v8+0x10a>
 c000d82:	d904      	bls.n	c000d8e <wifi_hal_phy_get_power_limit_value_1v8+0x4e>
 c000d84:	3c0c      	subs	r4, #12
 c000d86:	2c03      	cmp	r4, #3
 c000d88:	d806      	bhi.n	c000d98 <wifi_hal_phy_get_power_limit_value_1v8+0x58>
 c000d8a:	2000      	movs	r0, #0
 c000d8c:	bd30      	pop	{r4, r5, pc}
 c000d8e:	2c08      	cmp	r4, #8
 c000d90:	d01c      	beq.n	c000dcc <wifi_hal_phy_get_power_limit_value_1v8+0x8c>
 c000d92:	2000      	movs	r0, #0
 c000d94:	2c0a      	cmp	r4, #10
 c000d96:	d0f9      	beq.n	c000d8c <wifi_hal_phy_get_power_limit_value_1v8+0x4c>
 c000d98:	1e6b      	subs	r3, r5, #1
 c000d9a:	419d      	sbcs	r5, r3
 c000d9c:	207f      	movs	r0, #127	; 0x7f
 c000d9e:	426d      	negs	r5, r5
 c000da0:	4328      	orrs	r0, r5
 c000da2:	e7f3      	b.n	c000d8c <wifi_hal_phy_get_power_limit_value_1v8+0x4c>
 c000da4:	b31c      	cbz	r4, c000dee <wifi_hal_phy_get_power_limit_value_1v8+0xae>
 c000da6:	2c01      	cmp	r4, #1
 c000da8:	d1f6      	bne.n	c000d98 <wifi_hal_phy_get_power_limit_value_1v8+0x58>
 c000daa:	2d00      	cmp	r5, #0
 c000dac:	d000      	beq.n	c000db0 <wifi_hal_phy_get_power_limit_value_1v8+0x70>
 c000dae:	e087      	b.n	c000ec0 <wifi_hal_phy_get_power_limit_value_1v8+0x180>
 c000db0:	2900      	cmp	r1, #0
 c000db2:	d000      	beq.n	c000db6 <wifi_hal_phy_get_power_limit_value_1v8+0x76>
 c000db4:	e0d2      	b.n	c000f5c <wifi_hal_phy_get_power_limit_value_1v8+0x21c>
 c000db6:	00d1      	lsls	r1, r2, #3
 c000db8:	1a8a      	subs	r2, r1, r2
 c000dba:	f241 1148 	movw	r1, #4424	; 0x1148
 c000dbe:	f6c0 4102 	movt	r1, #3074	; 0xc02
 c000dc2:	468c      	mov	ip, r1
 c000dc4:	0052      	lsls	r2, r2, #1
 c000dc6:	4462      	add	r2, ip
 c000dc8:	56d0      	ldrsb	r0, [r2, r3]
 c000dca:	e7df      	b.n	c000d8c <wifi_hal_phy_get_power_limit_value_1v8+0x4c>
 c000dcc:	2d00      	cmp	r5, #0
 c000dce:	d000      	beq.n	c000dd2 <wifi_hal_phy_get_power_limit_value_1v8+0x92>
 c000dd0:	e07f      	b.n	c000ed2 <wifi_hal_phy_get_power_limit_value_1v8+0x192>
 c000dd2:	2900      	cmp	r1, #0
 c000dd4:	d000      	beq.n	c000dd8 <wifi_hal_phy_get_power_limit_value_1v8+0x98>
 c000dd6:	e07f      	b.n	c000ed8 <wifi_hal_phy_get_power_limit_value_1v8+0x198>
 c000dd8:	00d1      	lsls	r1, r2, #3
 c000dda:	1a8a      	subs	r2, r1, r2
 c000ddc:	f241 1180 	movw	r1, #4480	; 0x1180
 c000de0:	f6c0 4102 	movt	r1, #3074	; 0xc02
 c000de4:	468c      	mov	ip, r1
 c000de6:	0052      	lsls	r2, r2, #1
 c000de8:	4462      	add	r2, ip
 c000dea:	56d0      	ldrsb	r0, [r2, r3]
 c000dec:	e7ce      	b.n	c000d8c <wifi_hal_phy_get_power_limit_value_1v8+0x4c>
 c000dee:	2d00      	cmp	r5, #0
 c000df0:	d154      	bne.n	c000e9c <wifi_hal_phy_get_power_limit_value_1v8+0x15c>
 c000df2:	2900      	cmp	r1, #0
 c000df4:	d000      	beq.n	c000df8 <wifi_hal_phy_get_power_limit_value_1v8+0xb8>
 c000df6:	e085      	b.n	c000f04 <wifi_hal_phy_get_power_limit_value_1v8+0x1c4>
 c000df8:	00d1      	lsls	r1, r2, #3
 c000dfa:	1a8a      	subs	r2, r1, r2
 c000dfc:	f241 01a0 	movw	r1, #4256	; 0x10a0
 c000e00:	f6c0 4102 	movt	r1, #3074	; 0xc02
 c000e04:	468c      	mov	ip, r1
 c000e06:	0052      	lsls	r2, r2, #1
 c000e08:	4462      	add	r2, ip
 c000e0a:	56d0      	ldrsb	r0, [r2, r3]
 c000e0c:	e7be      	b.n	c000d8c <wifi_hal_phy_get_power_limit_value_1v8+0x4c>
 c000e0e:	2d00      	cmp	r5, #0
 c000e10:	d13b      	bne.n	c000e8a <wifi_hal_phy_get_power_limit_value_1v8+0x14a>
 c000e12:	2900      	cmp	r1, #0
 c000e14:	d16b      	bne.n	c000eee <wifi_hal_phy_get_power_limit_value_1v8+0x1ae>
 c000e16:	00d1      	lsls	r1, r2, #3
 c000e18:	1a8a      	subs	r2, r1, r2
 c000e1a:	f241 0168 	movw	r1, #4200	; 0x1068
 c000e1e:	f6c0 4102 	movt	r1, #3074	; 0xc02
 c000e22:	468c      	mov	ip, r1
 c000e24:	0052      	lsls	r2, r2, #1
 c000e26:	4462      	add	r2, ip
 c000e28:	56d0      	ldrsb	r0, [r2, r3]
 c000e2a:	e7af      	b.n	c000d8c <wifi_hal_phy_get_power_limit_value_1v8+0x4c>
 c000e2c:	bb25      	cbnz	r5, c000e78 <wifi_hal_phy_get_power_limit_value_1v8+0x138>
 c000e2e:	2900      	cmp	r1, #0
 c000e30:	d000      	beq.n	c000e34 <wifi_hal_phy_get_power_limit_value_1v8+0xf4>
 c000e32:	e07d      	b.n	c000f30 <wifi_hal_phy_get_power_limit_value_1v8+0x1f0>
 c000e34:	00d1      	lsls	r1, r2, #3
 c000e36:	1a8a      	subs	r2, r1, r2
 c000e38:	f241 01d8 	movw	r1, #4312	; 0x10d8
 c000e3c:	f6c0 4102 	movt	r1, #3074	; 0xc02
 c000e40:	468c      	mov	ip, r1
 c000e42:	0052      	lsls	r2, r2, #1
 c000e44:	4462      	add	r2, ip
 c000e46:	56d0      	ldrsb	r0, [r2, r3]
 c000e48:	e7a0      	b.n	c000d8c <wifi_hal_phy_get_power_limit_value_1v8+0x4c>
 c000e4a:	b965      	cbnz	r5, c000e66 <wifi_hal_phy_get_power_limit_value_1v8+0x126>
 c000e4c:	2900      	cmp	r1, #0
 c000e4e:	d164      	bne.n	c000f1a <wifi_hal_phy_get_power_limit_value_1v8+0x1da>
 c000e50:	00d1      	lsls	r1, r2, #3
 c000e52:	1a8a      	subs	r2, r1, r2
 c000e54:	f241 0130 	movw	r1, #4144	; 0x1030
 c000e58:	f6c0 4102 	movt	r1, #3074	; 0xc02
 c000e5c:	468c      	mov	ip, r1
 c000e5e:	0052      	lsls	r2, r2, #1
 c000e60:	4462      	add	r2, ip
 c000e62:	56d0      	ldrsb	r0, [r2, r3]
 c000e64:	e792      	b.n	c000d8c <wifi_hal_phy_get_power_limit_value_1v8+0x4c>
 c000e66:	f241 4304 	movw	r3, #5124	; 0x1404
 c000e6a:	f6c0 4302 	movt	r3, #3074	; 0xc02
 c000e6e:	469c      	mov	ip, r3
 c000e70:	0089      	lsls	r1, r1, #2
 c000e72:	4461      	add	r1, ip
 c000e74:	5688      	ldrsb	r0, [r1, r2]
 c000e76:	e789      	b.n	c000d8c <wifi_hal_phy_get_power_limit_value_1v8+0x4c>
 c000e78:	f241 431c 	movw	r3, #5148	; 0x141c
 c000e7c:	f6c0 4302 	movt	r3, #3074	; 0xc02
 c000e80:	469c      	mov	ip, r3
 c000e82:	0089      	lsls	r1, r1, #2
 c000e84:	4461      	add	r1, ip
 c000e86:	5688      	ldrsb	r0, [r1, r2]
 c000e88:	e780      	b.n	c000d8c <wifi_hal_phy_get_power_limit_value_1v8+0x4c>
 c000e8a:	f241 430c 	movw	r3, #5132	; 0x140c
 c000e8e:	f6c0 4302 	movt	r3, #3074	; 0xc02
 c000e92:	469c      	mov	ip, r3
 c000e94:	0089      	lsls	r1, r1, #2
 c000e96:	4461      	add	r1, ip
 c000e98:	5688      	ldrsb	r0, [r1, r2]
 c000e9a:	e777      	b.n	c000d8c <wifi_hal_phy_get_power_limit_value_1v8+0x4c>
 c000e9c:	f241 4314 	movw	r3, #5140	; 0x1414
 c000ea0:	f6c0 4302 	movt	r3, #3074	; 0xc02
 c000ea4:	469c      	mov	ip, r3
 c000ea6:	0089      	lsls	r1, r1, #2
 c000ea8:	4461      	add	r1, ip
 c000eaa:	5688      	ldrsb	r0, [r1, r2]
 c000eac:	e76e      	b.n	c000d8c <wifi_hal_phy_get_power_limit_value_1v8+0x4c>
 c000eae:	f241 4324 	movw	r3, #5156	; 0x1424
 c000eb2:	f6c0 4302 	movt	r3, #3074	; 0xc02
 c000eb6:	469c      	mov	ip, r3
 c000eb8:	0089      	lsls	r1, r1, #2
 c000eba:	4461      	add	r1, ip
 c000ebc:	5688      	ldrsb	r0, [r1, r2]
 c000ebe:	e765      	b.n	c000d8c <wifi_hal_phy_get_power_limit_value_1v8+0x4c>
 c000ec0:	f241 432c 	movw	r3, #5164	; 0x142c
 c000ec4:	f6c0 4302 	movt	r3, #3074	; 0xc02
 c000ec8:	469c      	mov	ip, r3
 c000eca:	0089      	lsls	r1, r1, #2
 c000ecc:	4461      	add	r1, ip
 c000ece:	5688      	ldrsb	r0, [r1, r2]
 c000ed0:	e75c      	b.n	c000d8c <wifi_hal_phy_get_power_limit_value_1v8+0x4c>
 c000ed2:	2001      	movs	r0, #1
 c000ed4:	4240      	negs	r0, r0
 c000ed6:	e759      	b.n	c000d8c <wifi_hal_phy_get_power_limit_value_1v8+0x4c>
 c000ed8:	00d1      	lsls	r1, r2, #3
 c000eda:	1a8a      	subs	r2, r1, r2
 c000edc:	f241 31b0 	movw	r1, #5040	; 0x13b0
 c000ee0:	f6c0 4102 	movt	r1, #3074	; 0xc02
 c000ee4:	468c      	mov	ip, r1
 c000ee6:	0092      	lsls	r2, r2, #2
 c000ee8:	4462      	add	r2, ip
 c000eea:	56d0      	ldrsb	r0, [r2, r3]
 c000eec:	e74e      	b.n	c000d8c <wifi_hal_phy_get_power_limit_value_1v8+0x4c>
 c000eee:	00d1      	lsls	r1, r2, #3
 c000ef0:	1a8a      	subs	r2, r1, r2
 c000ef2:	f241 210c 	movw	r1, #4620	; 0x120c
 c000ef6:	f6c0 4102 	movt	r1, #3074	; 0xc02
 c000efa:	468c      	mov	ip, r1
 c000efc:	0092      	lsls	r2, r2, #2
 c000efe:	4462      	add	r2, ip
 c000f00:	56d0      	ldrsb	r0, [r2, r3]
 c000f02:	e743      	b.n	c000d8c <wifi_hal_phy_get_power_limit_value_1v8+0x4c>
 c000f04:	00d1      	lsls	r1, r2, #3
 c000f06:	1a8a      	subs	r2, r1, r2
 c000f08:	f241 2160 	movw	r1, #4704	; 0x1260
 c000f0c:	f6c0 4102 	movt	r1, #3074	; 0xc02
 c000f10:	468c      	mov	ip, r1
 c000f12:	0092      	lsls	r2, r2, #2
 c000f14:	4462      	add	r2, ip
 c000f16:	56d0      	ldrsb	r0, [r2, r3]
 c000f18:	e738      	b.n	c000d8c <wifi_hal_phy_get_power_limit_value_1v8+0x4c>
 c000f1a:	00d1      	lsls	r1, r2, #3
 c000f1c:	1a8a      	subs	r2, r1, r2
 c000f1e:	f241 11b8 	movw	r1, #4536	; 0x11b8
 c000f22:	f6c0 4102 	movt	r1, #3074	; 0xc02
 c000f26:	468c      	mov	ip, r1
 c000f28:	0092      	lsls	r2, r2, #2
 c000f2a:	4462      	add	r2, ip
 c000f2c:	56d0      	ldrsb	r0, [r2, r3]
 c000f2e:	e72d      	b.n	c000d8c <wifi_hal_phy_get_power_limit_value_1v8+0x4c>
 c000f30:	00d1      	lsls	r1, r2, #3
 c000f32:	1a8a      	subs	r2, r1, r2
 c000f34:	f241 21b4 	movw	r1, #4788	; 0x12b4
 c000f38:	f6c0 4102 	movt	r1, #3074	; 0xc02
 c000f3c:	468c      	mov	ip, r1
 c000f3e:	0092      	lsls	r2, r2, #2
 c000f40:	4462      	add	r2, ip
 c000f42:	56d0      	ldrsb	r0, [r2, r3]
 c000f44:	e722      	b.n	c000d8c <wifi_hal_phy_get_power_limit_value_1v8+0x4c>
 c000f46:	00d1      	lsls	r1, r2, #3
 c000f48:	1a8a      	subs	r2, r1, r2
 c000f4a:	f241 3108 	movw	r1, #4872	; 0x1308
 c000f4e:	f6c0 4102 	movt	r1, #3074	; 0xc02
 c000f52:	468c      	mov	ip, r1
 c000f54:	0092      	lsls	r2, r2, #2
 c000f56:	4462      	add	r2, ip
 c000f58:	56d0      	ldrsb	r0, [r2, r3]
 c000f5a:	e717      	b.n	c000d8c <wifi_hal_phy_get_power_limit_value_1v8+0x4c>
 c000f5c:	00d1      	lsls	r1, r2, #3
 c000f5e:	1a8a      	subs	r2, r1, r2
 c000f60:	f241 315c 	movw	r1, #4956	; 0x135c
 c000f64:	f6c0 4102 	movt	r1, #3074	; 0xc02
 c000f68:	468c      	mov	ip, r1
 c000f6a:	0092      	lsls	r2, r2, #2
 c000f6c:	4462      	add	r2, ip
 c000f6e:	56d0      	ldrsb	r0, [r2, r3]
 c000f70:	e70c      	b.n	c000d8c <wifi_hal_phy_get_power_limit_value_1v8+0x4c>
 c000f72:	bf00      	nop

0c000f74 <wifi_hal_phy_get_power_limit_value_3v3_1v25>:
 c000f74:	466a      	mov	r2, sp
 c000f76:	0003      	movs	r3, r0
 c000f78:	7812      	ldrb	r2, [r2, #0]
 c000f7a:	2808      	cmp	r0, #8
 c000f7c:	d006      	beq.n	c000f8c <wifi_hal_phy_get_power_limit_value_3v3_1v25+0x18>
 c000f7e:	2000      	movs	r0, #0
 c000f80:	2b08      	cmp	r3, #8
 c000f82:	d902      	bls.n	c000f8a <wifi_hal_phy_get_power_limit_value_3v3_1v25+0x16>
 c000f84:	3b0a      	subs	r3, #10
 c000f86:	2b05      	cmp	r3, #5
 c000f88:	d804      	bhi.n	c000f94 <wifi_hal_phy_get_power_limit_value_3v3_1v25+0x20>
 c000f8a:	4770      	bx	lr
 c000f8c:	1e53      	subs	r3, r2, #1
 c000f8e:	419a      	sbcs	r2, r3
 c000f90:	4250      	negs	r0, r2
 c000f92:	e7fa      	b.n	c000f8a <wifi_hal_phy_get_power_limit_value_3v3_1v25+0x16>
 c000f94:	1e53      	subs	r3, r2, #1
 c000f96:	419a      	sbcs	r2, r3
 c000f98:	207f      	movs	r0, #127	; 0x7f
 c000f9a:	4252      	negs	r2, r2
 c000f9c:	4310      	orrs	r0, r2
 c000f9e:	e7f4      	b.n	c000f8a <wifi_hal_phy_get_power_limit_value_3v3_1v25+0x16>

0c000fa0 <wifi_hal_phy_get_power_limit_value>:
 c000fa0:	b530      	push	{r4, r5, lr}
 c000fa2:	0004      	movs	r4, r0
 c000fa4:	a803      	add	r0, sp, #12
 c000fa6:	7805      	ldrb	r5, [r0, #0]
 c000fa8:	2c07      	cmp	r4, #7
 c000faa:	d818      	bhi.n	c000fde <wifi_hal_phy_get_power_limit_value+0x3e>
 c000fac:	2c04      	cmp	r4, #4
 c000fae:	d81c      	bhi.n	c000fea <wifi_hal_phy_get_power_limit_value+0x4a>
 c000fb0:	2c02      	cmp	r4, #2
 c000fb2:	d05c      	beq.n	c00106e <wifi_hal_phy_get_power_limit_value+0xce>
 c000fb4:	d926      	bls.n	c001004 <wifi_hal_phy_get_power_limit_value+0x64>
 c000fb6:	2c03      	cmp	r4, #3
 c000fb8:	d100      	bne.n	c000fbc <wifi_hal_phy_get_power_limit_value+0x1c>
 c000fba:	e067      	b.n	c00108c <wifi_hal_phy_get_power_limit_value+0xec>
 c000fbc:	2d00      	cmp	r5, #0
 c000fbe:	d000      	beq.n	c000fc2 <wifi_hal_phy_get_power_limit_value+0x22>
 c000fc0:	e0a5      	b.n	c00110e <wifi_hal_phy_get_power_limit_value+0x16e>
 c000fc2:	2900      	cmp	r1, #0
 c000fc4:	d000      	beq.n	c000fc8 <wifi_hal_phy_get_power_limit_value+0x28>
 c000fc6:	e0ee      	b.n	c0011a6 <wifi_hal_phy_get_power_limit_value+0x206>
 c000fc8:	00d1      	lsls	r1, r2, #3
 c000fca:	1a8a      	subs	r2, r1, r2
 c000fcc:	f241 5160 	movw	r1, #5472	; 0x1560
 c000fd0:	f6c0 4102 	movt	r1, #3074	; 0xc02
 c000fd4:	468c      	mov	ip, r1
 c000fd6:	0052      	lsls	r2, r2, #1
 c000fd8:	4462      	add	r2, ip
 c000fda:	56d0      	ldrsb	r0, [r2, r3]
 c000fdc:	e006      	b.n	c000fec <wifi_hal_phy_get_power_limit_value+0x4c>
 c000fde:	2c0b      	cmp	r4, #11
 c000fe0:	d063      	beq.n	c0010aa <wifi_hal_phy_get_power_limit_value+0x10a>
 c000fe2:	d904      	bls.n	c000fee <wifi_hal_phy_get_power_limit_value+0x4e>
 c000fe4:	3c0c      	subs	r4, #12
 c000fe6:	2c03      	cmp	r4, #3
 c000fe8:	d806      	bhi.n	c000ff8 <wifi_hal_phy_get_power_limit_value+0x58>
 c000fea:	2000      	movs	r0, #0
 c000fec:	bd30      	pop	{r4, r5, pc}
 c000fee:	2c08      	cmp	r4, #8
 c000ff0:	d01c      	beq.n	c00102c <wifi_hal_phy_get_power_limit_value+0x8c>
 c000ff2:	2000      	movs	r0, #0
 c000ff4:	2c0a      	cmp	r4, #10
 c000ff6:	d0f9      	beq.n	c000fec <wifi_hal_phy_get_power_limit_value+0x4c>
 c000ff8:	1e6b      	subs	r3, r5, #1
 c000ffa:	419d      	sbcs	r5, r3
 c000ffc:	207f      	movs	r0, #127	; 0x7f
 c000ffe:	426d      	negs	r5, r5
 c001000:	4328      	orrs	r0, r5
 c001002:	e7f3      	b.n	c000fec <wifi_hal_phy_get_power_limit_value+0x4c>
 c001004:	b31c      	cbz	r4, c00104e <wifi_hal_phy_get_power_limit_value+0xae>
 c001006:	2c01      	cmp	r4, #1
 c001008:	d1f6      	bne.n	c000ff8 <wifi_hal_phy_get_power_limit_value+0x58>
 c00100a:	2d00      	cmp	r5, #0
 c00100c:	d000      	beq.n	c001010 <wifi_hal_phy_get_power_limit_value+0x70>
 c00100e:	e087      	b.n	c001120 <wifi_hal_phy_get_power_limit_value+0x180>
 c001010:	2900      	cmp	r1, #0
 c001012:	d000      	beq.n	c001016 <wifi_hal_phy_get_power_limit_value+0x76>
 c001014:	e0d2      	b.n	c0011bc <wifi_hal_phy_get_power_limit_value+0x21c>
 c001016:	00d1      	lsls	r1, r2, #3
 c001018:	1a8a      	subs	r2, r1, r2
 c00101a:	f241 5198 	movw	r1, #5528	; 0x1598
 c00101e:	f6c0 4102 	movt	r1, #3074	; 0xc02
 c001022:	468c      	mov	ip, r1
 c001024:	0052      	lsls	r2, r2, #1
 c001026:	4462      	add	r2, ip
 c001028:	56d0      	ldrsb	r0, [r2, r3]
 c00102a:	e7df      	b.n	c000fec <wifi_hal_phy_get_power_limit_value+0x4c>
 c00102c:	2d00      	cmp	r5, #0
 c00102e:	d000      	beq.n	c001032 <wifi_hal_phy_get_power_limit_value+0x92>
 c001030:	e07f      	b.n	c001132 <wifi_hal_phy_get_power_limit_value+0x192>
 c001032:	2900      	cmp	r1, #0
 c001034:	d000      	beq.n	c001038 <wifi_hal_phy_get_power_limit_value+0x98>
 c001036:	e07f      	b.n	c001138 <wifi_hal_phy_get_power_limit_value+0x198>
 c001038:	00d1      	lsls	r1, r2, #3
 c00103a:	1a8a      	subs	r2, r1, r2
 c00103c:	f241 51d0 	movw	r1, #5584	; 0x15d0
 c001040:	f6c0 4102 	movt	r1, #3074	; 0xc02
 c001044:	468c      	mov	ip, r1
 c001046:	0052      	lsls	r2, r2, #1
 c001048:	4462      	add	r2, ip
 c00104a:	56d0      	ldrsb	r0, [r2, r3]
 c00104c:	e7ce      	b.n	c000fec <wifi_hal_phy_get_power_limit_value+0x4c>
 c00104e:	2d00      	cmp	r5, #0
 c001050:	d154      	bne.n	c0010fc <wifi_hal_phy_get_power_limit_value+0x15c>
 c001052:	2900      	cmp	r1, #0
 c001054:	d000      	beq.n	c001058 <wifi_hal_phy_get_power_limit_value+0xb8>
 c001056:	e085      	b.n	c001164 <wifi_hal_phy_get_power_limit_value+0x1c4>
 c001058:	00d1      	lsls	r1, r2, #3
 c00105a:	1a8a      	subs	r2, r1, r2
 c00105c:	f241 41f0 	movw	r1, #5360	; 0x14f0
 c001060:	f6c0 4102 	movt	r1, #3074	; 0xc02
 c001064:	468c      	mov	ip, r1
 c001066:	0052      	lsls	r2, r2, #1
 c001068:	4462      	add	r2, ip
 c00106a:	56d0      	ldrsb	r0, [r2, r3]
 c00106c:	e7be      	b.n	c000fec <wifi_hal_phy_get_power_limit_value+0x4c>
 c00106e:	2d00      	cmp	r5, #0
 c001070:	d13b      	bne.n	c0010ea <wifi_hal_phy_get_power_limit_value+0x14a>
 c001072:	2900      	cmp	r1, #0
 c001074:	d16b      	bne.n	c00114e <wifi_hal_phy_get_power_limit_value+0x1ae>
 c001076:	00d1      	lsls	r1, r2, #3
 c001078:	1a8a      	subs	r2, r1, r2
 c00107a:	f241 41b8 	movw	r1, #5304	; 0x14b8
 c00107e:	f6c0 4102 	movt	r1, #3074	; 0xc02
 c001082:	468c      	mov	ip, r1
 c001084:	0052      	lsls	r2, r2, #1
 c001086:	4462      	add	r2, ip
 c001088:	56d0      	ldrsb	r0, [r2, r3]
 c00108a:	e7af      	b.n	c000fec <wifi_hal_phy_get_power_limit_value+0x4c>
 c00108c:	bb25      	cbnz	r5, c0010d8 <wifi_hal_phy_get_power_limit_value+0x138>
 c00108e:	2900      	cmp	r1, #0
 c001090:	d000      	beq.n	c001094 <wifi_hal_phy_get_power_limit_value+0xf4>
 c001092:	e07d      	b.n	c001190 <wifi_hal_phy_get_power_limit_value+0x1f0>
 c001094:	00d1      	lsls	r1, r2, #3
 c001096:	1a8a      	subs	r2, r1, r2
 c001098:	f241 5128 	movw	r1, #5416	; 0x1528
 c00109c:	f6c0 4102 	movt	r1, #3074	; 0xc02
 c0010a0:	468c      	mov	ip, r1
 c0010a2:	0052      	lsls	r2, r2, #1
 c0010a4:	4462      	add	r2, ip
 c0010a6:	56d0      	ldrsb	r0, [r2, r3]
 c0010a8:	e7a0      	b.n	c000fec <wifi_hal_phy_get_power_limit_value+0x4c>
 c0010aa:	b965      	cbnz	r5, c0010c6 <wifi_hal_phy_get_power_limit_value+0x126>
 c0010ac:	2900      	cmp	r1, #0
 c0010ae:	d164      	bne.n	c00117a <wifi_hal_phy_get_power_limit_value+0x1da>
 c0010b0:	00d1      	lsls	r1, r2, #3
 c0010b2:	1a8a      	subs	r2, r1, r2
 c0010b4:	f241 4180 	movw	r1, #5248	; 0x1480
 c0010b8:	f6c0 4102 	movt	r1, #3074	; 0xc02
 c0010bc:	468c      	mov	ip, r1
 c0010be:	0052      	lsls	r2, r2, #1
 c0010c0:	4462      	add	r2, ip
 c0010c2:	56d0      	ldrsb	r0, [r2, r3]
 c0010c4:	e792      	b.n	c000fec <wifi_hal_phy_get_power_limit_value+0x4c>
 c0010c6:	f641 0354 	movw	r3, #6228	; 0x1854
 c0010ca:	f6c0 4302 	movt	r3, #3074	; 0xc02
 c0010ce:	469c      	mov	ip, r3
 c0010d0:	0089      	lsls	r1, r1, #2
 c0010d2:	4461      	add	r1, ip
 c0010d4:	5688      	ldrsb	r0, [r1, r2]
 c0010d6:	e789      	b.n	c000fec <wifi_hal_phy_get_power_limit_value+0x4c>
 c0010d8:	f641 036c 	movw	r3, #6252	; 0x186c
 c0010dc:	f6c0 4302 	movt	r3, #3074	; 0xc02
 c0010e0:	469c      	mov	ip, r3
 c0010e2:	0089      	lsls	r1, r1, #2
 c0010e4:	4461      	add	r1, ip
 c0010e6:	5688      	ldrsb	r0, [r1, r2]
 c0010e8:	e780      	b.n	c000fec <wifi_hal_phy_get_power_limit_value+0x4c>
 c0010ea:	f641 035c 	movw	r3, #6236	; 0x185c
 c0010ee:	f6c0 4302 	movt	r3, #3074	; 0xc02
 c0010f2:	469c      	mov	ip, r3
 c0010f4:	0089      	lsls	r1, r1, #2
 c0010f6:	4461      	add	r1, ip
 c0010f8:	5688      	ldrsb	r0, [r1, r2]
 c0010fa:	e777      	b.n	c000fec <wifi_hal_phy_get_power_limit_value+0x4c>
 c0010fc:	f641 0364 	movw	r3, #6244	; 0x1864
 c001100:	f6c0 4302 	movt	r3, #3074	; 0xc02
 c001104:	469c      	mov	ip, r3
 c001106:	0089      	lsls	r1, r1, #2
 c001108:	4461      	add	r1, ip
 c00110a:	5688      	ldrsb	r0, [r1, r2]
 c00110c:	e76e      	b.n	c000fec <wifi_hal_phy_get_power_limit_value+0x4c>
 c00110e:	f641 0374 	movw	r3, #6260	; 0x1874
 c001112:	f6c0 4302 	movt	r3, #3074	; 0xc02
 c001116:	469c      	mov	ip, r3
 c001118:	0089      	lsls	r1, r1, #2
 c00111a:	4461      	add	r1, ip
 c00111c:	5688      	ldrsb	r0, [r1, r2]
 c00111e:	e765      	b.n	c000fec <wifi_hal_phy_get_power_limit_value+0x4c>
 c001120:	f641 037c 	movw	r3, #6268	; 0x187c
 c001124:	f6c0 4302 	movt	r3, #3074	; 0xc02
 c001128:	469c      	mov	ip, r3
 c00112a:	0089      	lsls	r1, r1, #2
 c00112c:	4461      	add	r1, ip
 c00112e:	5688      	ldrsb	r0, [r1, r2]
 c001130:	e75c      	b.n	c000fec <wifi_hal_phy_get_power_limit_value+0x4c>
 c001132:	2001      	movs	r0, #1
 c001134:	4240      	negs	r0, r0
 c001136:	e759      	b.n	c000fec <wifi_hal_phy_get_power_limit_value+0x4c>
 c001138:	00d1      	lsls	r1, r2, #3
 c00113a:	1a8a      	subs	r2, r1, r2
 c00113c:	f641 0100 	movw	r1, #6144	; 0x1800
 c001140:	f6c0 4102 	movt	r1, #3074	; 0xc02
 c001144:	468c      	mov	ip, r1
 c001146:	0092      	lsls	r2, r2, #2
 c001148:	4462      	add	r2, ip
 c00114a:	56d0      	ldrsb	r0, [r2, r3]
 c00114c:	e74e      	b.n	c000fec <wifi_hal_phy_get_power_limit_value+0x4c>
 c00114e:	00d1      	lsls	r1, r2, #3
 c001150:	1a8a      	subs	r2, r1, r2
 c001152:	f241 615c 	movw	r1, #5724	; 0x165c
 c001156:	f6c0 4102 	movt	r1, #3074	; 0xc02
 c00115a:	468c      	mov	ip, r1
 c00115c:	0092      	lsls	r2, r2, #2
 c00115e:	4462      	add	r2, ip
 c001160:	56d0      	ldrsb	r0, [r2, r3]
 c001162:	e743      	b.n	c000fec <wifi_hal_phy_get_power_limit_value+0x4c>
 c001164:	00d1      	lsls	r1, r2, #3
 c001166:	1a8a      	subs	r2, r1, r2
 c001168:	f241 61b0 	movw	r1, #5808	; 0x16b0
 c00116c:	f6c0 4102 	movt	r1, #3074	; 0xc02
 c001170:	468c      	mov	ip, r1
 c001172:	0092      	lsls	r2, r2, #2
 c001174:	4462      	add	r2, ip
 c001176:	56d0      	ldrsb	r0, [r2, r3]
 c001178:	e738      	b.n	c000fec <wifi_hal_phy_get_power_limit_value+0x4c>
 c00117a:	00d1      	lsls	r1, r2, #3
 c00117c:	1a8a      	subs	r2, r1, r2
 c00117e:	f241 6108 	movw	r1, #5640	; 0x1608
 c001182:	f6c0 4102 	movt	r1, #3074	; 0xc02
 c001186:	468c      	mov	ip, r1
 c001188:	0092      	lsls	r2, r2, #2
 c00118a:	4462      	add	r2, ip
 c00118c:	56d0      	ldrsb	r0, [r2, r3]
 c00118e:	e72d      	b.n	c000fec <wifi_hal_phy_get_power_limit_value+0x4c>
 c001190:	00d1      	lsls	r1, r2, #3
 c001192:	1a8a      	subs	r2, r1, r2
 c001194:	f241 7104 	movw	r1, #5892	; 0x1704
 c001198:	f6c0 4102 	movt	r1, #3074	; 0xc02
 c00119c:	468c      	mov	ip, r1
 c00119e:	0092      	lsls	r2, r2, #2
 c0011a0:	4462      	add	r2, ip
 c0011a2:	56d0      	ldrsb	r0, [r2, r3]
 c0011a4:	e722      	b.n	c000fec <wifi_hal_phy_get_power_limit_value+0x4c>
 c0011a6:	00d1      	lsls	r1, r2, #3
 c0011a8:	1a8a      	subs	r2, r1, r2
 c0011aa:	f241 7158 	movw	r1, #5976	; 0x1758
 c0011ae:	f6c0 4102 	movt	r1, #3074	; 0xc02
 c0011b2:	468c      	mov	ip, r1
 c0011b4:	0092      	lsls	r2, r2, #2
 c0011b6:	4462      	add	r2, ip
 c0011b8:	56d0      	ldrsb	r0, [r2, r3]
 c0011ba:	e717      	b.n	c000fec <wifi_hal_phy_get_power_limit_value+0x4c>
 c0011bc:	00d1      	lsls	r1, r2, #3
 c0011be:	1a8a      	subs	r2, r1, r2
 c0011c0:	f241 71ac 	movw	r1, #6060	; 0x17ac
 c0011c4:	f6c0 4102 	movt	r1, #3074	; 0xc02
 c0011c8:	468c      	mov	ip, r1
 c0011ca:	0092      	lsls	r2, r2, #2
 c0011cc:	4462      	add	r2, ip
 c0011ce:	56d0      	ldrsb	r0, [r2, r3]
 c0011d0:	e70c      	b.n	c000fec <wifi_hal_phy_get_power_limit_value+0x4c>
 c0011d2:	bf00      	nop

0c0011d4 <BOOT_Image1>:
 c0011d4:	b5f8      	push	{r3, r4, r5, r6, r7, lr}
 c0011d6:	f3bf 8f4f 	dsb	sy
 c0011da:	f3bf 8f6f 	isb	sy
 c0011de:	f64e 5100 	movw	r1, #60672	; 0xed00
 c0011e2:	f240 2350 	movw	r3, #592	; 0x250
 c0011e6:	2200      	movs	r2, #0
 c0011e8:	f2ce 0100 	movt	r1, #57344	; 0xe000
 c0011ec:	50ca      	str	r2, [r1, r3]
 c0011ee:	f3bf 8f4f 	dsb	sy
 c0011f2:	f3bf 8f6f 	isb	sy
 c0011f6:	2380      	movs	r3, #128	; 0x80
 c0011f8:	694a      	ldr	r2, [r1, #20]
 c0011fa:	029b      	lsls	r3, r3, #10
 c0011fc:	4313      	orrs	r3, r2
 c0011fe:	614b      	str	r3, [r1, #20]
 c001200:	f3bf 8f4f 	dsb	sy
 c001204:	f3bf 8f6f 	isb	sy
 c001208:	694a      	ldr	r2, [r1, #20]
 c00120a:	2380      	movs	r3, #128	; 0x80
 c00120c:	0010      	movs	r0, r2
 c00120e:	025b      	lsls	r3, r3, #9
 c001210:	4018      	ands	r0, r3
 c001212:	421a      	tst	r2, r3
 c001214:	d125      	bne.n	c001262 <BOOT_Image1+0x8e>
 c001216:	2384      	movs	r3, #132	; 0x84
 c001218:	50c8      	str	r0, [r1, r3]
 c00121a:	f3bf 8f4f 	dsb	sy
 c00121e:	f643 77e0 	movw	r7, #16352	; 0x3fe0
 c001222:	f240 2460 	movw	r4, #608	; 0x260
 c001226:	3b04      	subs	r3, #4
 c001228:	58cd      	ldr	r5, [r1, r3]
 c00122a:	04ee      	lsls	r6, r5, #19
 c00122c:	012d      	lsls	r5, r5, #4
 c00122e:	0c6d      	lsrs	r5, r5, #17
 c001230:	0db6      	lsrs	r6, r6, #22
 c001232:	016d      	lsls	r5, r5, #5
 c001234:	0038      	movs	r0, r7
 c001236:	0033      	movs	r3, r6
 c001238:	4028      	ands	r0, r5
 c00123a:	079a      	lsls	r2, r3, #30
 c00123c:	4302      	orrs	r2, r0
 c00123e:	510a      	str	r2, [r1, r4]
 c001240:	3b01      	subs	r3, #1
 c001242:	d2fa      	bcs.n	c00123a <BOOT_Image1+0x66>
 c001244:	3d20      	subs	r5, #32
 c001246:	002b      	movs	r3, r5
 c001248:	3320      	adds	r3, #32
 c00124a:	d1f3      	bne.n	c001234 <BOOT_Image1+0x60>
 c00124c:	f3bf 8f4f 	dsb	sy
 c001250:	2380      	movs	r3, #128	; 0x80
 c001252:	694a      	ldr	r2, [r1, #20]
 c001254:	025b      	lsls	r3, r3, #9
 c001256:	4313      	orrs	r3, r2
 c001258:	614b      	str	r3, [r1, #20]
 c00125a:	f3bf 8f4f 	dsb	sy
 c00125e:	f3bf 8f6f 	isb	sy
 c001262:	f640 12d0 	movw	r2, #2512	; 0x9d0
 c001266:	f240 0000 	movw	r0, #0
 c00126a:	f245 5439 	movw	r4, #21817	; 0x5539
 c00126e:	f2c2 0000 	movt	r0, #8192	; 0x2000
 c001272:	f2c2 0200 	movt	r2, #8192	; 0x2000
 c001276:	f2c0 0400 	movt	r4, #0
 c00127a:	2100      	movs	r1, #0
 c00127c:	1a12      	subs	r2, r2, r0
 c00127e:	47a0      	blx	r4
 c001280:	f64a 2254 	movw	r2, #43604	; 0xaa54
 c001284:	f248 2040 	movw	r0, #33344	; 0x8240
 c001288:	f2c2 0206 	movt	r2, #8198	; 0x2006
 c00128c:	f2c2 0006 	movt	r0, #8198	; 0x2006
 c001290:	2100      	movs	r1, #0
 c001292:	1a12      	subs	r2, r2, r0
 c001294:	47a0      	blx	r4
 c001296:	f240 4381 	movw	r3, #1153	; 0x481
 c00129a:	f2c0 0300 	movt	r3, #0
 c00129e:	4798      	blx	r3
 c0012a0:	f240 53cd 	movw	r3, #1485	; 0x5cd
 c0012a4:	f2c0 0300 	movt	r3, #0
 c0012a8:	4798      	blx	r3
 c0012aa:	f641 70fc 	movw	r0, #8188	; 0x1ffc
 c0012ae:	f643 6305 	movw	r3, #15877	; 0x3e05
 c0012b2:	f2c2 0000 	movt	r0, #8192	; 0x2000
 c0012b6:	f2c0 0300 	movt	r3, #0
 c0012ba:	4798      	blx	r3
 c0012bc:	f01f f980 	bl	c0205c0 <__BOOT_ROM_InitDebugFlg_veneer>
 c0012c0:	f644 5340 	movw	r3, #19776	; 0x4d40
 c0012c4:	f2c2 0300 	movt	r3, #8192	; 0x2000
 c0012c8:	7858      	ldrb	r0, [r3, #1]
 c0012ca:	7819      	ldrb	r1, [r3, #0]
 c0012cc:	789a      	ldrb	r2, [r3, #2]
 c0012ce:	0200      	lsls	r0, r0, #8
 c0012d0:	78db      	ldrb	r3, [r3, #3]
 c0012d2:	4301      	orrs	r1, r0
 c0012d4:	0412      	lsls	r2, r2, #16
 c0012d6:	430a      	orrs	r2, r1
 c0012d8:	061b      	lsls	r3, r3, #24
 c0012da:	4313      	orrs	r3, r2
 c0012dc:	4798      	blx	r3
 c0012de:	bdf8      	pop	{r3, r4, r5, r6, r7, pc}

0c0012e0 <os_heap_init>:
 c0012e0:	b580      	push	{r7, lr}
 c0012e2:	af00      	add	r7, sp, #0
 c0012e4:	f245 2200 	movw	r2, #20992	; 0x5200
 c0012e8:	f2c0 0201 	movt	r2, #1
 c0012ec:	f64a 6300 	movw	r3, #44544	; 0xae00
 c0012f0:	f2c2 0306 	movt	r3, #8198	; 0x2006
 c0012f4:	0011      	movs	r1, r2
 c0012f6:	0018      	movs	r0, r3
 c0012f8:	f000 f85e 	bl	c0013b8 <os_heap_add>
 c0012fc:	f240 0200 	movw	r2, #0
 c001300:	f2c0 0200 	movt	r2, #0
 c001304:	f640 63df 	movw	r3, #3807	; 0xedf
 c001308:	f6cc 2300 	movt	r3, #51712	; 0xca00
 c00130c:	0011      	movs	r1, r2
 c00130e:	0018      	movs	r0, r3
 c001310:	f000 f852 	bl	c0013b8 <os_heap_add>
 c001314:	f240 0200 	movw	r2, #0
 c001318:	f2c0 0200 	movt	r2, #0
 c00131c:	f640 63df 	movw	r3, #3807	; 0xedf
 c001320:	f6cc 2300 	movt	r3, #51712	; 0xca00
 c001324:	0011      	movs	r1, r2
 c001326:	0018      	movs	r0, r3
 c001328:	f000 f846 	bl	c0013b8 <os_heap_add>
 c00132c:	f248 43b4 	movw	r3, #33972	; 0x84b4
 c001330:	f2c2 0306 	movt	r3, #8198	; 0x2006
 c001334:	781b      	ldrb	r3, [r3, #0]
 c001336:	b10b      	cbz	r3, c00133c <os_heap_init+0x5c>
 c001338:	f000 f80a 	bl	c001350 <os_heap_sort>
 c00133c:	f248 4384 	movw	r3, #33924	; 0x8484
 c001340:	f2c2 0306 	movt	r3, #8198	; 0x2006
 c001344:	0018      	movs	r0, r3
 c001346:	f000 f947 	bl	c0015d8 <vPortDefineHeapRegions>
 c00134a:	bf00      	nop
 c00134c:	46bd      	mov	sp, r7
 c00134e:	bd80      	pop	{r7, pc}

0c001350 <os_heap_sort>:
 c001350:	b570      	push	{r4, r5, r6, lr}
 c001352:	46c6      	mov	lr, r8
 c001354:	f248 43b4 	movw	r3, #33972	; 0x84b4
 c001358:	b500      	push	{lr}
 c00135a:	f2c2 0306 	movt	r3, #8198	; 0x2006
 c00135e:	781d      	ldrb	r5, [r3, #0]
 c001360:	3d01      	subs	r5, #1
 c001362:	2d00      	cmp	r5, #0
 c001364:	dd25      	ble.n	c0013b2 <os_heap_sort+0x62>
 c001366:	f248 4384 	movw	r3, #33924	; 0x8484
 c00136a:	f2c2 0306 	movt	r3, #8198	; 0x2006
 c00136e:	469c      	mov	ip, r3
 c001370:	46a8      	mov	r8, r5
 c001372:	00e8      	lsls	r0, r5, #3
 c001374:	4460      	add	r0, ip
 c001376:	f248 4384 	movw	r3, #33924	; 0x8484
 c00137a:	f2c2 0306 	movt	r3, #8198	; 0x2006
 c00137e:	001a      	movs	r2, r3
 c001380:	6819      	ldr	r1, [r3, #0]
 c001382:	689c      	ldr	r4, [r3, #8]
 c001384:	3208      	adds	r2, #8
 c001386:	42a1      	cmp	r1, r4
 c001388:	d908      	bls.n	c00139c <os_heap_sort+0x4c>
 c00138a:	685c      	ldr	r4, [r3, #4]
 c00138c:	001e      	movs	r6, r3
 c00138e:	46a4      	mov	ip, r4
 c001390:	ca30      	ldmia	r2!, {r4, r5}
 c001392:	c630      	stmia	r6!, {r4, r5}
 c001394:	6099      	str	r1, [r3, #8]
 c001396:	4661      	mov	r1, ip
 c001398:	0032      	movs	r2, r6
 c00139a:	60d9      	str	r1, [r3, #12]
 c00139c:	0013      	movs	r3, r2
 c00139e:	4282      	cmp	r2, r0
 c0013a0:	d1ed      	bne.n	c00137e <os_heap_sort+0x2e>
 c0013a2:	2301      	movs	r3, #1
 c0013a4:	425b      	negs	r3, r3
 c0013a6:	469c      	mov	ip, r3
 c0013a8:	44e0      	add	r8, ip
 c0013aa:	4643      	mov	r3, r8
 c0013ac:	3808      	subs	r0, #8
 c0013ae:	2b00      	cmp	r3, #0
 c0013b0:	d1e1      	bne.n	c001376 <os_heap_sort+0x26>
 c0013b2:	bc40      	pop	{r6}
 c0013b4:	46b0      	mov	r8, r6
 c0013b6:	bd70      	pop	{r4, r5, r6, pc}

0c0013b8 <os_heap_add>:
 c0013b8:	b570      	push	{r4, r5, r6, lr}
 c0013ba:	f248 45b4 	movw	r5, #33972	; 0x84b4
 c0013be:	f2c2 0506 	movt	r5, #8198	; 0x2006
 c0013c2:	782a      	ldrb	r2, [r5, #0]
 c0013c4:	0006      	movs	r6, r0
 c0013c6:	000c      	movs	r4, r1
 c0013c8:	2a05      	cmp	r2, #5
 c0013ca:	d80e      	bhi.n	c0013ea <os_heap_add+0x32>
 c0013cc:	f248 4184 	movw	r1, #33924	; 0x8484
 c0013d0:	f2c2 0106 	movt	r1, #8198	; 0x2006
 c0013d4:	468c      	mov	ip, r1
 c0013d6:	00d3      	lsls	r3, r2, #3
 c0013d8:	505e      	str	r6, [r3, r1]
 c0013da:	4463      	add	r3, ip
 c0013dc:	2000      	movs	r0, #0
 c0013de:	605c      	str	r4, [r3, #4]
 c0013e0:	b114      	cbz	r4, c0013e8 <os_heap_add+0x30>
 c0013e2:	3201      	adds	r2, #1
 c0013e4:	702a      	strb	r2, [r5, #0]
 c0013e6:	3001      	adds	r0, #1
 c0013e8:	bd70      	pop	{r4, r5, r6, pc}
 c0013ea:	f641 0084 	movw	r0, #6276	; 0x1884
 c0013ee:	2125      	movs	r1, #37	; 0x25
 c0013f0:	f6c0 4002 	movt	r0, #3074	; 0xc02
 c0013f4:	f005 f812 	bl	c00641c <io_assert_failed>
 c0013f8:	782a      	ldrb	r2, [r5, #0]
 c0013fa:	e7e7      	b.n	c0013cc <os_heap_add+0x14>

0c0013fc <__wrap__malloc_r>:
 c0013fc:	b510      	push	{r4, lr}
 c0013fe:	0008      	movs	r0, r1
 c001400:	f000 fd04 	bl	c001e0c <rtos_mem_malloc>
 c001404:	bd10      	pop	{r4, pc}
 c001406:	bf00      	nop

0c001408 <__wrap__realloc_r>:
 c001408:	b510      	push	{r4, lr}
 c00140a:	0008      	movs	r0, r1
 c00140c:	0011      	movs	r1, r2
 c00140e:	f000 fd0d 	bl	c001e2c <rtos_mem_realloc>
 c001412:	bd10      	pop	{r4, pc}

0c001414 <__wrap__free_r>:
 c001414:	b510      	push	{r4, lr}
 c001416:	0008      	movs	r0, r1
 c001418:	f000 fd0c 	bl	c001e34 <rtos_mem_free>
 c00141c:	bd10      	pop	{r4, pc}
 c00141e:	bf00      	nop

0c001420 <__wrap_printf>:
 c001420:	b40f      	push	{r0, r1, r2, r3}
 c001422:	b510      	push	{r4, lr}
 c001424:	b082      	sub	sp, #8
 c001426:	ab04      	add	r3, sp, #16
 c001428:	cb10      	ldmia	r3!, {r4}
 c00142a:	9301      	str	r3, [sp, #4]
 c00142c:	f7fe fe58 	bl	c0000e0 <CPU_InInterrupt>
 c001430:	9901      	ldr	r1, [sp, #4]
 c001432:	b138      	cbz	r0, c001444 <__wrap_printf+0x24>
 c001434:	0020      	movs	r0, r4
 c001436:	f004 fb71 	bl	c005b1c <DiagVprintf>
 c00143a:	b002      	add	sp, #8
 c00143c:	bc10      	pop	{r4}
 c00143e:	bc08      	pop	{r3}
 c001440:	b004      	add	sp, #16
 c001442:	4718      	bx	r3
 c001444:	0020      	movs	r0, r4
 c001446:	f01d fb1f 	bl	c01ea88 <viprintf>
 c00144a:	e7f6      	b.n	c00143a <__wrap_printf+0x1a>

0c00144c <prvInsertBlockIntoFreeList>:
 c00144c:	f248 43d0 	movw	r3, #34000	; 0x84d0
 c001450:	b530      	push	{r4, r5, lr}
 c001452:	f2c2 0306 	movt	r3, #8198	; 0x2006
 c001456:	001a      	movs	r2, r3
 c001458:	681b      	ldr	r3, [r3, #0]
 c00145a:	4283      	cmp	r3, r0
 c00145c:	d3fb      	bcc.n	c001456 <prvInsertBlockIntoFreeList+0xa>
 c00145e:	6854      	ldr	r4, [r2, #4]
 c001460:	6841      	ldr	r1, [r0, #4]
 c001462:	1915      	adds	r5, r2, r4
 c001464:	42a8      	cmp	r0, r5
 c001466:	d015      	beq.n	c001494 <prvInsertBlockIntoFreeList+0x48>
 c001468:	1844      	adds	r4, r0, r1
 c00146a:	42a3      	cmp	r3, r4
 c00146c:	d004      	beq.n	c001478 <prvInsertBlockIntoFreeList+0x2c>
 c00146e:	6003      	str	r3, [r0, #0]
 c001470:	4290      	cmp	r0, r2
 c001472:	d000      	beq.n	c001476 <prvInsertBlockIntoFreeList+0x2a>
 c001474:	6010      	str	r0, [r2, #0]
 c001476:	bd30      	pop	{r4, r5, pc}
 c001478:	f248 44b8 	movw	r4, #33976	; 0x84b8
 c00147c:	f2c2 0406 	movt	r4, #8198	; 0x2006
 c001480:	6824      	ldr	r4, [r4, #0]
 c001482:	42a3      	cmp	r3, r4
 c001484:	d0f3      	beq.n	c00146e <prvInsertBlockIntoFreeList+0x22>
 c001486:	685b      	ldr	r3, [r3, #4]
 c001488:	1859      	adds	r1, r3, r1
 c00148a:	6041      	str	r1, [r0, #4]
 c00148c:	6813      	ldr	r3, [r2, #0]
 c00148e:	681b      	ldr	r3, [r3, #0]
 c001490:	6003      	str	r3, [r0, #0]
 c001492:	e7ed      	b.n	c001470 <prvInsertBlockIntoFreeList+0x24>
 c001494:	1909      	adds	r1, r1, r4
 c001496:	0010      	movs	r0, r2
 c001498:	6051      	str	r1, [r2, #4]
 c00149a:	e7e5      	b.n	c001468 <prvInsertBlockIntoFreeList+0x1c>

0c00149c <pvPortMalloc>:
 c00149c:	b5f8      	push	{r3, r4, r5, r6, r7, lr}
 c00149e:	46ce      	mov	lr, r9
 c0014a0:	4647      	mov	r7, r8
 c0014a2:	b580      	push	{r7, lr}
 c0014a4:	0004      	movs	r4, r0
 c0014a6:	f002 ff01 	bl	c0042ac <vTaskSuspendAll>
 c0014aa:	f248 43bc 	movw	r3, #33980	; 0x84bc
 c0014ae:	f2c2 0306 	movt	r3, #8198	; 0x2006
 c0014b2:	681f      	ldr	r7, [r3, #0]
 c0014b4:	423c      	tst	r4, r7
 c0014b6:	d14c      	bne.n	c001552 <pvPortMalloc+0xb6>
 c0014b8:	1e63      	subs	r3, r4, #1
 c0014ba:	3322      	adds	r3, #34	; 0x22
 c0014bc:	d849      	bhi.n	c001552 <pvPortMalloc+0xb6>
 c0014be:	231f      	movs	r3, #31
 c0014c0:	3420      	adds	r4, #32
 c0014c2:	4223      	tst	r3, r4
 c0014c4:	d13f      	bne.n	c001546 <pvPortMalloc+0xaa>
 c0014c6:	f248 48c0 	movw	r8, #33984	; 0x84c0
 c0014ca:	f2c2 0806 	movt	r8, #8198	; 0x2006
 c0014ce:	4643      	mov	r3, r8
 c0014d0:	681b      	ldr	r3, [r3, #0]
 c0014d2:	4699      	mov	r9, r3
 c0014d4:	42a3      	cmp	r3, r4
 c0014d6:	d33c      	bcc.n	c001552 <pvPortMalloc+0xb6>
 c0014d8:	f248 42d0 	movw	r2, #34000	; 0x84d0
 c0014dc:	f2c2 0206 	movt	r2, #8198	; 0x2006
 c0014e0:	6815      	ldr	r5, [r2, #0]
 c0014e2:	e003      	b.n	c0014ec <pvPortMalloc+0x50>
 c0014e4:	682b      	ldr	r3, [r5, #0]
 c0014e6:	b123      	cbz	r3, c0014f2 <pvPortMalloc+0x56>
 c0014e8:	002a      	movs	r2, r5
 c0014ea:	001d      	movs	r5, r3
 c0014ec:	686b      	ldr	r3, [r5, #4]
 c0014ee:	42a3      	cmp	r3, r4
 c0014f0:	d3f8      	bcc.n	c0014e4 <pvPortMalloc+0x48>
 c0014f2:	f248 43b8 	movw	r3, #33976	; 0x84b8
 c0014f6:	f2c2 0306 	movt	r3, #8198	; 0x2006
 c0014fa:	681b      	ldr	r3, [r3, #0]
 c0014fc:	42ab      	cmp	r3, r5
 c0014fe:	d028      	beq.n	c001552 <pvPortMalloc+0xb6>
 c001500:	682b      	ldr	r3, [r5, #0]
 c001502:	6816      	ldr	r6, [r2, #0]
 c001504:	6013      	str	r3, [r2, #0]
 c001506:	686b      	ldr	r3, [r5, #4]
 c001508:	3620      	adds	r6, #32
 c00150a:	1b1a      	subs	r2, r3, r4
 c00150c:	2a40      	cmp	r2, #64	; 0x40
 c00150e:	d82c      	bhi.n	c00156a <pvPortMalloc+0xce>
 c001510:	464a      	mov	r2, r9
 c001512:	1ad1      	subs	r1, r2, r3
 c001514:	4642      	mov	r2, r8
 c001516:	6011      	str	r1, [r2, #0]
 c001518:	f248 42c4 	movw	r2, #33988	; 0x84c4
 c00151c:	f2c2 0206 	movt	r2, #8198	; 0x2006
 c001520:	6810      	ldr	r0, [r2, #0]
 c001522:	4281      	cmp	r1, r0
 c001524:	d200      	bcs.n	c001528 <pvPortMalloc+0x8c>
 c001526:	6011      	str	r1, [r2, #0]
 c001528:	433b      	orrs	r3, r7
 c00152a:	606b      	str	r3, [r5, #4]
 c00152c:	2300      	movs	r3, #0
 c00152e:	602b      	str	r3, [r5, #0]
 c001530:	f248 43c8 	movw	r3, #33992	; 0x84c8
 c001534:	f2c2 0306 	movt	r3, #8198	; 0x2006
 c001538:	681a      	ldr	r2, [r3, #0]
 c00153a:	3201      	adds	r2, #1
 c00153c:	601a      	str	r2, [r3, #0]
 c00153e:	f002 febd 	bl	c0042bc <xTaskResumeAll>
 c001542:	b95e      	cbnz	r6, c00155c <pvPortMalloc+0xc0>
 c001544:	e007      	b.n	c001556 <pvPortMalloc+0xba>
 c001546:	0022      	movs	r2, r4
 c001548:	439a      	bics	r2, r3
 c00154a:	0013      	movs	r3, r2
 c00154c:	3320      	adds	r3, #32
 c00154e:	42a3      	cmp	r3, r4
 c001550:	d809      	bhi.n	c001566 <pvPortMalloc+0xca>
 c001552:	f002 feb3 	bl	c0042bc <xTaskResumeAll>
 c001556:	f001 f983 	bl	c002860 <vApplicationMallocFailedHook>
 c00155a:	2600      	movs	r6, #0
 c00155c:	0030      	movs	r0, r6
 c00155e:	bcc0      	pop	{r6, r7}
 c001560:	46b9      	mov	r9, r7
 c001562:	46b0      	mov	r8, r6
 c001564:	bdf8      	pop	{r3, r4, r5, r6, r7, pc}
 c001566:	001c      	movs	r4, r3
 c001568:	e7ad      	b.n	c0014c6 <pvPortMalloc+0x2a>
 c00156a:	1928      	adds	r0, r5, r4
 c00156c:	6042      	str	r2, [r0, #4]
 c00156e:	606c      	str	r4, [r5, #4]
 c001570:	f7ff ff6c 	bl	c00144c <prvInsertBlockIntoFreeList>
 c001574:	686b      	ldr	r3, [r5, #4]
 c001576:	e7cb      	b.n	c001510 <pvPortMalloc+0x74>

0c001578 <vPortFree>:
 c001578:	b510      	push	{r4, lr}
 c00157a:	b158      	cbz	r0, c001594 <vPortFree+0x1c>
 c00157c:	f248 43bc 	movw	r3, #33980	; 0x84bc
 c001580:	3820      	subs	r0, #32
 c001582:	f2c2 0306 	movt	r3, #8198	; 0x2006
 c001586:	6842      	ldr	r2, [r0, #4]
 c001588:	681b      	ldr	r3, [r3, #0]
 c00158a:	0004      	movs	r4, r0
 c00158c:	4213      	tst	r3, r2
 c00158e:	d001      	beq.n	c001594 <vPortFree+0x1c>
 c001590:	6801      	ldr	r1, [r0, #0]
 c001592:	b101      	cbz	r1, c001596 <vPortFree+0x1e>
 c001594:	bd10      	pop	{r4, pc}
 c001596:	439a      	bics	r2, r3
 c001598:	6042      	str	r2, [r0, #4]
 c00159a:	f002 fe87 	bl	c0042ac <vTaskSuspendAll>
 c00159e:	f248 43c0 	movw	r3, #33984	; 0x84c0
 c0015a2:	f2c2 0306 	movt	r3, #8198	; 0x2006
 c0015a6:	6819      	ldr	r1, [r3, #0]
 c0015a8:	6862      	ldr	r2, [r4, #4]
 c0015aa:	468c      	mov	ip, r1
 c0015ac:	0020      	movs	r0, r4
 c0015ae:	4462      	add	r2, ip
 c0015b0:	601a      	str	r2, [r3, #0]
 c0015b2:	f7ff ff4b 	bl	c00144c <prvInsertBlockIntoFreeList>
 c0015b6:	f248 43cc 	movw	r3, #33996	; 0x84cc
 c0015ba:	f2c2 0306 	movt	r3, #8198	; 0x2006
 c0015be:	681a      	ldr	r2, [r3, #0]
 c0015c0:	3201      	adds	r2, #1
 c0015c2:	601a      	str	r2, [r3, #0]
 c0015c4:	f002 fe7a 	bl	c0042bc <xTaskResumeAll>
 c0015c8:	e7e4      	b.n	c001594 <vPortFree+0x1c>
 c0015ca:	bf00      	nop

0c0015cc <xPortGetFreeHeapSize>:
 c0015cc:	f248 43c0 	movw	r3, #33984	; 0x84c0
 c0015d0:	f2c2 0306 	movt	r3, #8198	; 0x2006
 c0015d4:	6818      	ldr	r0, [r3, #0]
 c0015d6:	4770      	bx	lr

0c0015d8 <vPortDefineHeapRegions>:
 c0015d8:	b5f0      	push	{r4, r5, r6, r7, lr}
 c0015da:	4657      	mov	r7, sl
 c0015dc:	46de      	mov	lr, fp
 c0015de:	464e      	mov	r6, r9
 c0015e0:	4645      	mov	r5, r8
 c0015e2:	6843      	ldr	r3, [r0, #4]
 c0015e4:	b5e0      	push	{r5, r6, r7, lr}
 c0015e6:	469a      	mov	sl, r3
 c0015e8:	2b00      	cmp	r3, #0
 c0015ea:	d04b      	beq.n	c001684 <vPortDefineHeapRegions+0xac>
 c0015ec:	f248 49b8 	movw	r9, #33976	; 0x84b8
 c0015f0:	f2c2 0906 	movt	r9, #8198	; 0x2006
 c0015f4:	464b      	mov	r3, r9
 c0015f6:	f248 48d0 	movw	r8, #34000	; 0x84d0
 c0015fa:	2400      	movs	r4, #0
 c0015fc:	f240 0b00 	movw	fp, #0
 c001600:	261f      	movs	r6, #31
 c001602:	f240 0c00 	movw	ip, #0
 c001606:	681d      	ldr	r5, [r3, #0]
 c001608:	f2c2 0806 	movt	r8, #8198	; 0x2006
 c00160c:	6801      	ldr	r1, [r0, #0]
 c00160e:	000a      	movs	r2, r1
 c001610:	4231      	tst	r1, r6
 c001612:	d005      	beq.n	c001620 <vPortDefineHeapRegions+0x48>
 c001614:	321f      	adds	r2, #31
 c001616:	4451      	add	r1, sl
 c001618:	43b2      	bics	r2, r6
 c00161a:	1a8b      	subs	r3, r1, r2
 c00161c:	469a      	mov	sl, r3
 c00161e:	0011      	movs	r1, r2
 c001620:	b90c      	cbnz	r4, c001626 <vPortDefineHeapRegions+0x4e>
 c001622:	4643      	mov	r3, r8
 c001624:	c312      	stmia	r3!, {r1, r4}
 c001626:	4653      	mov	r3, sl
 c001628:	4667      	mov	r7, ip
 c00162a:	189b      	adds	r3, r3, r2
 c00162c:	3b20      	subs	r3, #32
 c00162e:	43b3      	bics	r3, r6
 c001630:	1a9a      	subs	r2, r3, r2
 c001632:	605f      	str	r7, [r3, #4]
 c001634:	601f      	str	r7, [r3, #0]
 c001636:	604a      	str	r2, [r1, #4]
 c001638:	600b      	str	r3, [r1, #0]
 c00163a:	b105      	cbz	r5, c00163e <vPortDefineHeapRegions+0x66>
 c00163c:	6029      	str	r1, [r5, #0]
 c00163e:	684a      	ldr	r2, [r1, #4]
 c001640:	3008      	adds	r0, #8
 c001642:	4493      	add	fp, r2
 c001644:	6842      	ldr	r2, [r0, #4]
 c001646:	3401      	adds	r4, #1
 c001648:	4692      	mov	sl, r2
 c00164a:	b10a      	cbz	r2, c001650 <vPortDefineHeapRegions+0x78>
 c00164c:	001d      	movs	r5, r3
 c00164e:	e7dd      	b.n	c00160c <vPortDefineHeapRegions+0x34>
 c001650:	464a      	mov	r2, r9
 c001652:	6013      	str	r3, [r2, #0]
 c001654:	f248 43c4 	movw	r3, #33988	; 0x84c4
 c001658:	465a      	mov	r2, fp
 c00165a:	f2c2 0306 	movt	r3, #8198	; 0x2006
 c00165e:	601a      	str	r2, [r3, #0]
 c001660:	f248 43c0 	movw	r3, #33984	; 0x84c0
 c001664:	f2c2 0306 	movt	r3, #8198	; 0x2006
 c001668:	601a      	str	r2, [r3, #0]
 c00166a:	f248 43bc 	movw	r3, #33980	; 0x84bc
 c00166e:	2280      	movs	r2, #128	; 0x80
 c001670:	f2c2 0306 	movt	r3, #8198	; 0x2006
 c001674:	0612      	lsls	r2, r2, #24
 c001676:	601a      	str	r2, [r3, #0]
 c001678:	bcf0      	pop	{r4, r5, r6, r7}
 c00167a:	46bb      	mov	fp, r7
 c00167c:	46b2      	mov	sl, r6
 c00167e:	46a9      	mov	r9, r5
 c001680:	46a0      	mov	r8, r4
 c001682:	bdf0      	pop	{r4, r5, r6, r7, pc}
 c001684:	f240 0b00 	movw	fp, #0
 c001688:	e7e4      	b.n	c001654 <vPortDefineHeapRegions+0x7c>
 c00168a:	bf00      	nop

0c00168c <pvPortReAlloc>:
 c00168c:	b5f0      	push	{r4, r5, r6, r7, lr}
 c00168e:	46c6      	mov	lr, r8
 c001690:	0005      	movs	r5, r0
 c001692:	000c      	movs	r4, r1
 c001694:	b500      	push	{lr}
 c001696:	2800      	cmp	r0, #0
 c001698:	d02f      	beq.n	c0016fa <pvPortReAlloc+0x6e>
 c00169a:	2900      	cmp	r1, #0
 c00169c:	d037      	beq.n	c00170e <pvPortReAlloc+0x82>
 c00169e:	0008      	movs	r0, r1
 c0016a0:	f7ff fefc 	bl	c00149c <pvPortMalloc>
 c0016a4:	0006      	movs	r6, r0
 c0016a6:	b320      	cbz	r0, c0016f2 <pvPortReAlloc+0x66>
 c0016a8:	f248 48bc 	movw	r8, #33980	; 0x84bc
 c0016ac:	002f      	movs	r7, r5
 c0016ae:	f2c2 0806 	movt	r8, #8198	; 0x2006
 c0016b2:	4643      	mov	r3, r8
 c0016b4:	3f20      	subs	r7, #32
 c0016b6:	687a      	ldr	r2, [r7, #4]
 c0016b8:	681b      	ldr	r3, [r3, #0]
 c0016ba:	439a      	bics	r2, r3
 c0016bc:	3a20      	subs	r2, #32
 c0016be:	42a2      	cmp	r2, r4
 c0016c0:	d823      	bhi.n	c00170a <pvPortReAlloc+0x7e>
 c0016c2:	0029      	movs	r1, r5
 c0016c4:	0030      	movs	r0, r6
 c0016c6:	f01f f85b 	bl	c020780 <____wrap_memcpy_veneer>
 c0016ca:	f002 fdef 	bl	c0042ac <vTaskSuspendAll>
 c0016ce:	4643      	mov	r3, r8
 c0016d0:	687a      	ldr	r2, [r7, #4]
 c0016d2:	681b      	ldr	r3, [r3, #0]
 c0016d4:	0038      	movs	r0, r7
 c0016d6:	439a      	bics	r2, r3
 c0016d8:	f248 43c0 	movw	r3, #33984	; 0x84c0
 c0016dc:	f2c2 0306 	movt	r3, #8198	; 0x2006
 c0016e0:	6819      	ldr	r1, [r3, #0]
 c0016e2:	607a      	str	r2, [r7, #4]
 c0016e4:	468c      	mov	ip, r1
 c0016e6:	4462      	add	r2, ip
 c0016e8:	601a      	str	r2, [r3, #0]
 c0016ea:	f7ff feaf 	bl	c00144c <prvInsertBlockIntoFreeList>
 c0016ee:	f002 fde5 	bl	c0042bc <xTaskResumeAll>
 c0016f2:	0030      	movs	r0, r6
 c0016f4:	bc80      	pop	{r7}
 c0016f6:	46b8      	mov	r8, r7
 c0016f8:	bdf0      	pop	{r4, r5, r6, r7, pc}
 c0016fa:	2600      	movs	r6, #0
 c0016fc:	2900      	cmp	r1, #0
 c0016fe:	d0f8      	beq.n	c0016f2 <pvPortReAlloc+0x66>
 c001700:	0008      	movs	r0, r1
 c001702:	f7ff fecb 	bl	c00149c <pvPortMalloc>
 c001706:	0006      	movs	r6, r0
 c001708:	e7f3      	b.n	c0016f2 <pvPortReAlloc+0x66>
 c00170a:	0022      	movs	r2, r4
 c00170c:	e7d9      	b.n	c0016c2 <pvPortReAlloc+0x36>
 c00170e:	f7ff ff33 	bl	c001578 <vPortFree>
 c001712:	2600      	movs	r6, #0
 c001714:	e7ed      	b.n	c0016f2 <pvPortReAlloc+0x66>
 c001716:	bf00      	nop

0c001718 <vListInitialise>:
 c001718:	0003      	movs	r3, r0
 c00171a:	3308      	adds	r3, #8
 c00171c:	2201      	movs	r2, #1
 c00171e:	6043      	str	r3, [r0, #4]
 c001720:	60c3      	str	r3, [r0, #12]
 c001722:	6103      	str	r3, [r0, #16]
 c001724:	2300      	movs	r3, #0
 c001726:	4252      	negs	r2, r2
 c001728:	6082      	str	r2, [r0, #8]
 c00172a:	6003      	str	r3, [r0, #0]
 c00172c:	4770      	bx	lr
 c00172e:	bf00      	nop

0c001730 <vListInitialiseItem>:
 c001730:	2300      	movs	r3, #0
 c001732:	6103      	str	r3, [r0, #16]
 c001734:	4770      	bx	lr
 c001736:	bf00      	nop

0c001738 <vListInsertEnd>:
 c001738:	6843      	ldr	r3, [r0, #4]
 c00173a:	604b      	str	r3, [r1, #4]
 c00173c:	689a      	ldr	r2, [r3, #8]
 c00173e:	608a      	str	r2, [r1, #8]
 c001740:	6051      	str	r1, [r2, #4]
 c001742:	6099      	str	r1, [r3, #8]
 c001744:	6108      	str	r0, [r1, #16]
 c001746:	6803      	ldr	r3, [r0, #0]
 c001748:	3301      	adds	r3, #1
 c00174a:	6003      	str	r3, [r0, #0]
 c00174c:	4770      	bx	lr
 c00174e:	bf00      	nop

0c001750 <vListInsert>:
 c001750:	0003      	movs	r3, r0
 c001752:	b530      	push	{r4, r5, lr}
 c001754:	680c      	ldr	r4, [r1, #0]
 c001756:	3308      	adds	r3, #8
 c001758:	1c62      	adds	r2, r4, #1
 c00175a:	d00d      	beq.n	c001778 <vListInsert+0x28>
 c00175c:	001a      	movs	r2, r3
 c00175e:	685b      	ldr	r3, [r3, #4]
 c001760:	681d      	ldr	r5, [r3, #0]
 c001762:	42a5      	cmp	r5, r4
 c001764:	d9fa      	bls.n	c00175c <vListInsert+0xc>
 c001766:	604b      	str	r3, [r1, #4]
 c001768:	6099      	str	r1, [r3, #8]
 c00176a:	608a      	str	r2, [r1, #8]
 c00176c:	6051      	str	r1, [r2, #4]
 c00176e:	6108      	str	r0, [r1, #16]
 c001770:	6803      	ldr	r3, [r0, #0]
 c001772:	3301      	adds	r3, #1
 c001774:	6003      	str	r3, [r0, #0]
 c001776:	bd30      	pop	{r4, r5, pc}
 c001778:	6902      	ldr	r2, [r0, #16]
 c00177a:	6853      	ldr	r3, [r2, #4]
 c00177c:	e7f3      	b.n	c001766 <vListInsert+0x16>
 c00177e:	bf00      	nop

0c001780 <uxListRemove>:
 c001780:	6841      	ldr	r1, [r0, #4]
 c001782:	6882      	ldr	r2, [r0, #8]
 c001784:	6903      	ldr	r3, [r0, #16]
 c001786:	608a      	str	r2, [r1, #8]
 c001788:	6841      	ldr	r1, [r0, #4]
 c00178a:	6051      	str	r1, [r2, #4]
 c00178c:	685a      	ldr	r2, [r3, #4]
 c00178e:	4282      	cmp	r2, r0
 c001790:	d006      	beq.n	c0017a0 <uxListRemove+0x20>
 c001792:	2200      	movs	r2, #0
 c001794:	6102      	str	r2, [r0, #16]
 c001796:	681a      	ldr	r2, [r3, #0]
 c001798:	3a01      	subs	r2, #1
 c00179a:	601a      	str	r2, [r3, #0]
 c00179c:	6818      	ldr	r0, [r3, #0]
 c00179e:	4770      	bx	lr
 c0017a0:	6882      	ldr	r2, [r0, #8]
 c0017a2:	605a      	str	r2, [r3, #4]
 c0017a4:	e7f5      	b.n	c001792 <uxListRemove+0x12>
 c0017a6:	bf00      	nop

0c0017a8 <rtk_log_memory_dump_word>:
 c0017a8:	b5f8      	push	{r3, r4, r5, r6, r7, lr}
 c0017aa:	0007      	movs	r7, r0
 c0017ac:	000e      	movs	r6, r1
 c0017ae:	0005      	movs	r5, r0
 c0017b0:	2400      	movs	r4, #0
 c0017b2:	b161      	cbz	r1, c0017ce <rtk_log_memory_dump_word+0x26>
 c0017b4:	b1d4      	cbz	r4, c0017ec <rtk_log_memory_dump_word+0x44>
 c0017b6:	0763      	lsls	r3, r4, #29
 c0017b8:	d010      	beq.n	c0017dc <rtk_log_memory_dump_word+0x34>
 c0017ba:	f641 1034 	movw	r0, #6452	; 0x1934
 c0017be:	cd02      	ldmia	r5!, {r1}
 c0017c0:	f6c0 4002 	movt	r0, #3074	; 0xc02
 c0017c4:	3401      	adds	r4, #1
 c0017c6:	f004 fc81 	bl	c0060cc <DiagPrintf_minimal>
 c0017ca:	42a6      	cmp	r6, r4
 c0017cc:	d1f2      	bne.n	c0017b4 <rtk_log_memory_dump_word+0xc>
 c0017ce:	f242 0048 	movw	r0, #8264	; 0x2048
 c0017d2:	f6c0 4002 	movt	r0, #3074	; 0xc02
 c0017d6:	f004 fc79 	bl	c0060cc <DiagPrintf_minimal>
 c0017da:	bdf8      	pop	{r3, r4, r5, r6, r7, pc}
 c0017dc:	f641 1028 	movw	r0, #6440	; 0x1928
 c0017e0:	0029      	movs	r1, r5
 c0017e2:	f6c0 4002 	movt	r0, #3074	; 0xc02
 c0017e6:	f004 fc71 	bl	c0060cc <DiagPrintf_minimal>
 c0017ea:	e7e6      	b.n	c0017ba <rtk_log_memory_dump_word+0x12>
 c0017ec:	f641 1020 	movw	r0, #6432	; 0x1920
 c0017f0:	0039      	movs	r1, r7
 c0017f2:	f6c0 4002 	movt	r0, #3074	; 0xc02
 c0017f6:	f004 fc69 	bl	c0060cc <DiagPrintf_minimal>
 c0017fa:	e7de      	b.n	c0017ba <rtk_log_memory_dump_word+0x12>

0c0017fc <rtk_log_memory_dump_byte>:
 c0017fc:	b570      	push	{r4, r5, r6, lr}
 c0017fe:	0005      	movs	r5, r0
 c001800:	000e      	movs	r6, r1
 c001802:	2400      	movs	r4, #0
 c001804:	b161      	cbz	r1, c001820 <rtk_log_memory_dump_byte+0x24>
 c001806:	b1d4      	cbz	r4, c00183e <rtk_log_memory_dump_byte+0x42>
 c001808:	0763      	lsls	r3, r4, #29
 c00180a:	d010      	beq.n	c00182e <rtk_log_memory_dump_byte+0x32>
 c00180c:	f641 103c 	movw	r0, #6460	; 0x193c
 c001810:	5d29      	ldrb	r1, [r5, r4]
 c001812:	f6c0 4002 	movt	r0, #3074	; 0xc02
 c001816:	3401      	adds	r4, #1
 c001818:	f004 fc58 	bl	c0060cc <DiagPrintf_minimal>
 c00181c:	42a6      	cmp	r6, r4
 c00181e:	d1f2      	bne.n	c001806 <rtk_log_memory_dump_byte+0xa>
 c001820:	f242 0048 	movw	r0, #8264	; 0x2048
 c001824:	f6c0 4002 	movt	r0, #3074	; 0xc02
 c001828:	f004 fc50 	bl	c0060cc <DiagPrintf_minimal>
 c00182c:	bd70      	pop	{r4, r5, r6, pc}
 c00182e:	f641 1028 	movw	r0, #6440	; 0x1928
 c001832:	1929      	adds	r1, r5, r4
 c001834:	f6c0 4002 	movt	r0, #3074	; 0xc02
 c001838:	f004 fc48 	bl	c0060cc <DiagPrintf_minimal>
 c00183c:	e7e6      	b.n	c00180c <rtk_log_memory_dump_byte+0x10>
 c00183e:	f641 1020 	movw	r0, #6432	; 0x1920
 c001842:	0029      	movs	r1, r5
 c001844:	f6c0 4002 	movt	r0, #3074	; 0xc02
 c001848:	f004 fc40 	bl	c0060cc <DiagPrintf_minimal>
 c00184c:	e7de      	b.n	c00180c <rtk_log_memory_dump_byte+0x10>
 c00184e:	bf00      	nop

0c001850 <rtk_log_write>:
 c001850:	b408      	push	{r3}
 c001852:	b5f0      	push	{r4, r5, r6, r7, lr}
 c001854:	46de      	mov	lr, fp
 c001856:	4657      	mov	r7, sl
 c001858:	464e      	mov	r6, r9
 c00185a:	4645      	mov	r5, r8
 c00185c:	f248 43d8 	movw	r3, #34008	; 0x84d8
 c001860:	b5e0      	push	{r5, r6, r7, lr}
 c001862:	f2c2 0306 	movt	r3, #8198	; 0x2006
 c001866:	4693      	mov	fp, r2
 c001868:	681a      	ldr	r2, [r3, #0]
 c00186a:	4682      	mov	sl, r0
 c00186c:	000e      	movs	r6, r1
 c00186e:	b082      	sub	sp, #8
 c001870:	2a03      	cmp	r2, #3
 c001872:	d837      	bhi.n	c0018e4 <rtk_log_write+0x94>
 c001874:	681b      	ldr	r3, [r3, #0]
 c001876:	4698      	mov	r8, r3
 c001878:	b1db      	cbz	r3, c0018b2 <rtk_log_write+0x62>
 c00187a:	f248 49dc 	movw	r9, #34012	; 0x84dc
 c00187e:	f2c2 0906 	movt	r9, #8198	; 0x2006
 c001882:	464b      	mov	r3, r9
 c001884:	f245 57d9 	movw	r7, #21977	; 0x55d9
 c001888:	2400      	movs	r4, #0
 c00188a:	1c5d      	adds	r5, r3, #1
 c00188c:	f2c0 0700 	movt	r7, #0
 c001890:	e003      	b.n	c00189a <rtk_log_write+0x4a>
 c001892:	3401      	adds	r4, #1
 c001894:	350b      	adds	r5, #11
 c001896:	45a0      	cmp	r8, r4
 c001898:	d90b      	bls.n	c0018b2 <rtk_log_write+0x62>
 c00189a:	0031      	movs	r1, r6
 c00189c:	0028      	movs	r0, r5
 c00189e:	47b8      	blx	r7
 c0018a0:	2800      	cmp	r0, #0
 c0018a2:	d1f6      	bne.n	c001892 <rtk_log_write+0x42>
 c0018a4:	00a3      	lsls	r3, r4, #2
 c0018a6:	191b      	adds	r3, r3, r4
 c0018a8:	005b      	lsls	r3, r3, #1
 c0018aa:	191c      	adds	r4, r3, r4
 c0018ac:	464b      	mov	r3, r9
 c0018ae:	5d1b      	ldrb	r3, [r3, r4]
 c0018b0:	e004      	b.n	c0018bc <rtk_log_write+0x6c>
 c0018b2:	f248 130e 	movw	r3, #33038	; 0x810e
 c0018b6:	f2c2 0306 	movt	r3, #8198	; 0x2006
 c0018ba:	781b      	ldrb	r3, [r3, #0]
 c0018bc:	459a      	cmp	sl, r3
 c0018be:	d807      	bhi.n	c0018d0 <rtk_log_write+0x80>
 c0018c0:	7833      	ldrb	r3, [r6, #0]
 c0018c2:	2b23      	cmp	r3, #35	; 0x23
 c0018c4:	d111      	bne.n	c0018ea <rtk_log_write+0x9a>
 c0018c6:	a90c      	add	r1, sp, #48	; 0x30
 c0018c8:	980b      	ldr	r0, [sp, #44]	; 0x2c
 c0018ca:	9101      	str	r1, [sp, #4]
 c0018cc:	f004 f926 	bl	c005b1c <DiagVprintf>
 c0018d0:	b002      	add	sp, #8
 c0018d2:	bcf0      	pop	{r4, r5, r6, r7}
 c0018d4:	46bb      	mov	fp, r7
 c0018d6:	46b2      	mov	sl, r6
 c0018d8:	46a9      	mov	r9, r5
 c0018da:	46a0      	mov	r8, r4
 c0018dc:	bcf0      	pop	{r4, r5, r6, r7}
 c0018de:	bc08      	pop	{r3}
 c0018e0:	b001      	add	sp, #4
 c0018e2:	4718      	bx	r3
 c0018e4:	f240 0804 	movw	r8, #4
 c0018e8:	e7c7      	b.n	c00187a <rtk_log_write+0x2a>
 c0018ea:	f641 1044 	movw	r0, #6468	; 0x1944
 c0018ee:	465a      	mov	r2, fp
 c0018f0:	0031      	movs	r1, r6
 c0018f2:	f6c0 4002 	movt	r0, #3074	; 0xc02
 c0018f6:	f004 fbdd 	bl	c0060b4 <DiagPrintf>
 c0018fa:	e7e4      	b.n	c0018c6 <rtk_log_write+0x76>

0c0018fc <_write>:
 c0018fc:	3801      	subs	r0, #1
 c0018fe:	b5f8      	push	{r3, r4, r5, r6, r7, lr}
 c001900:	0017      	movs	r7, r2
 c001902:	2801      	cmp	r0, #1
 c001904:	d810      	bhi.n	c001928 <_write+0x2c>
 c001906:	2a00      	cmp	r2, #0
 c001908:	dd0c      	ble.n	c001924 <_write+0x28>
 c00190a:	f641 15d5 	movw	r5, #6613	; 0x19d5
 c00190e:	000c      	movs	r4, r1
 c001910:	188e      	adds	r6, r1, r2
 c001912:	f2c0 0500 	movt	r5, #0
 c001916:	7820      	ldrb	r0, [r4, #0]
 c001918:	3401      	adds	r4, #1
 c00191a:	47a8      	blx	r5
 c00191c:	42a6      	cmp	r6, r4
 c00191e:	d1fa      	bne.n	c001916 <_write+0x1a>
 c001920:	0038      	movs	r0, r7
 c001922:	bdf8      	pop	{r3, r4, r5, r6, r7, pc}
 c001924:	2700      	movs	r7, #0
 c001926:	e7fb      	b.n	c001920 <_write+0x24>
 c001928:	2701      	movs	r7, #1
 c00192a:	427f      	negs	r7, r7
 c00192c:	e7f8      	b.n	c001920 <_write+0x24>
 c00192e:	bf00      	nop

0c001930 <_read>:
 c001930:	b5f0      	push	{r4, r5, r6, r7, lr}
 c001932:	46c6      	mov	lr, r8
 c001934:	0004      	movs	r4, r0
 c001936:	000d      	movs	r5, r1
 c001938:	0016      	movs	r6, r2
 c00193a:	b500      	push	{lr}
 c00193c:	b9d8      	cbnz	r0, c001976 <_read+0x46>
 c00193e:	2a00      	cmp	r2, #0
 c001940:	dd17      	ble.n	c001972 <_read+0x42>
 c001942:	f641 271d 	movw	r7, #6685	; 0x1a1d
 c001946:	f2c0 0700 	movt	r7, #0
 c00194a:	e003      	b.n	c001954 <_read+0x24>
 c00194c:	5528      	strb	r0, [r5, r4]
 c00194e:	3401      	adds	r4, #1
 c001950:	42a6      	cmp	r6, r4
 c001952:	d00c      	beq.n	c00196e <_read+0x3e>
 c001954:	192b      	adds	r3, r5, r4
 c001956:	2001      	movs	r0, #1
 c001958:	4698      	mov	r8, r3
 c00195a:	47b8      	blx	r7
 c00195c:	280d      	cmp	r0, #13
 c00195e:	d1f5      	bne.n	c00194c <_read+0x1c>
 c001960:	2300      	movs	r3, #0
 c001962:	4642      	mov	r2, r8
 c001964:	0020      	movs	r0, r4
 c001966:	7013      	strb	r3, [r2, #0]
 c001968:	bc80      	pop	{r7}
 c00196a:	46b8      	mov	r8, r7
 c00196c:	bdf0      	pop	{r4, r5, r6, r7, pc}
 c00196e:	0030      	movs	r0, r6
 c001970:	e7fa      	b.n	c001968 <_read+0x38>
 c001972:	2000      	movs	r0, #0
 c001974:	e7f8      	b.n	c001968 <_read+0x38>
 c001976:	2001      	movs	r0, #1
 c001978:	4240      	negs	r0, r0
 c00197a:	e7f5      	b.n	c001968 <_read+0x38>

0c00197c <app_pmu_init>:
 c00197c:	f240 6360 	movw	r3, #1632	; 0x660
 c001980:	2280      	movs	r2, #128	; 0x80
 c001982:	b510      	push	{r4, lr}
 c001984:	f2c2 0300 	movt	r3, #8192	; 0x2000
 c001988:	6899      	ldr	r1, [r3, #8]
 c00198a:	0592      	lsls	r2, r2, #22
 c00198c:	430a      	orrs	r2, r1
 c00198e:	609a      	str	r2, [r3, #8]
 c001990:	2000      	movs	r0, #0
 c001992:	f7ff f8fb 	bl	c000b8c <pmu_acquire_wakelock>
 c001996:	2002      	movs	r0, #2
 c001998:	f7ff f8f8 	bl	c000b8c <pmu_acquire_wakelock>
 c00199c:	f7ff f916 	bl	c000bcc <pmu_init_wakeup_timer>
 c0019a0:	bd10      	pop	{r4, pc}
 c0019a2:	bf00      	nop

0c0019a4 <app_IWDG_refresh>:
 c0019a4:	b570      	push	{r4, r5, r6, lr}
 c0019a6:	f248 5408 	movw	r4, #34056	; 0x8508
 c0019aa:	f000 fd95 	bl	c0024d8 <rtos_time_get_current_system_time_ms>
 c0019ae:	f240 12f3 	movw	r2, #499	; 0x1f3
 c0019b2:	f2c2 0406 	movt	r4, #8198	; 0x2006
 c0019b6:	6823      	ldr	r3, [r4, #0]
 c0019b8:	0005      	movs	r5, r0
 c0019ba:	1ac1      	subs	r1, r0, r3
 c0019bc:	4291      	cmp	r1, r2
 c0019be:	d914      	bls.n	c0019ea <app_IWDG_refresh+0x46>
 c0019c0:	f248 0208 	movw	r2, #32776	; 0x8008
 c0019c4:	f2c4 1200 	movt	r2, #16640	; 0x4100
 c0019c8:	6811      	ldr	r1, [r2, #0]
 c0019ca:	2202      	movs	r2, #2
 c0019cc:	f2cc 0200 	movt	r2, #49152	; 0xc000
 c0019d0:	4211      	tst	r1, r2
 c0019d2:	d00a      	beq.n	c0019ea <app_IWDG_refresh+0x46>
 c0019d4:	b153      	cbz	r3, c0019ec <app_IWDG_refresh+0x48>
 c0019d6:	f648 4000 	movw	r0, #35840	; 0x8c00
 c0019da:	f244 339d 	movw	r3, #17309	; 0x439d
 c0019de:	f2c4 1000 	movt	r0, #16640	; 0x4100
 c0019e2:	f2c0 0300 	movt	r3, #0
 c0019e6:	6025      	str	r5, [r4, #0]
 c0019e8:	4798      	blx	r3
 c0019ea:	bd70      	pop	{r4, r5, r6, pc}
 c0019ec:	f648 4000 	movw	r0, #35840	; 0x8c00
 c0019f0:	f244 43c5 	movw	r3, #17605	; 0x44c5
 c0019f4:	2100      	movs	r1, #0
 c0019f6:	f2c4 1000 	movt	r0, #16640	; 0x4100
 c0019fa:	f2c0 0300 	movt	r3, #0
 c0019fe:	4798      	blx	r3
 c001a00:	f641 1350 	movw	r3, #6480	; 0x1950
 c001a04:	f641 1164 	movw	r1, #6500	; 0x1964
 c001a08:	2249      	movs	r2, #73	; 0x49
 c001a0a:	2004      	movs	r0, #4
 c001a0c:	f6c0 4302 	movt	r3, #3074	; 0xc02
 c001a10:	f6c0 4102 	movt	r1, #3074	; 0xc02
 c001a14:	f7ff ff1c 	bl	c001850 <rtk_log_write>
 c001a18:	e7dd      	b.n	c0019d6 <app_IWDG_refresh+0x32>
 c001a1a:	bf00      	nop

0c001a1c <app_example>:
 c001a1c:	4770      	bx	lr
 c001a1e:	bf00      	nop

0c001a20 <main>:
 c001a20:	f240 6360 	movw	r3, #1632	; 0x660
 c001a24:	2201      	movs	r2, #1
 c001a26:	f2c2 0300 	movt	r3, #8192	; 0x2000
 c001a2a:	4252      	negs	r2, r2
 c001a2c:	b570      	push	{r4, r5, r6, lr}
 c001a2e:	601a      	str	r2, [r3, #0]
 c001a30:	2200      	movs	r2, #0
 c001a32:	605a      	str	r2, [r3, #4]
 c001a34:	609a      	str	r2, [r3, #8]
 c001a36:	60da      	str	r2, [r3, #12]
 c001a38:	f245 03e1 	movw	r3, #20705	; 0x50e1
 c001a3c:	2100      	movs	r1, #0
 c001a3e:	2000      	movs	r0, #0
 c001a40:	f2c0 0300 	movt	r3, #0
 c001a44:	4798      	blx	r3
 c001a46:	f244 251d 	movw	r5, #16925	; 0x421d
 c001a4a:	f001 fdc9 	bl	c0035e0 <shell_init_ram>
 c001a4e:	f245 0029 	movw	r0, #20521	; 0x5029
 c001a52:	f244 04c1 	movw	r4, #16577	; 0x40c1
 c001a56:	f2c0 0500 	movt	r5, #0
 c001a5a:	2303      	movs	r3, #3
 c001a5c:	2200      	movs	r2, #0
 c001a5e:	211b      	movs	r1, #27
 c001a60:	f2c0 0000 	movt	r0, #0
 c001a64:	47a8      	blx	r5
 c001a66:	f2c0 0400 	movt	r4, #0
 c001a6a:	201b      	movs	r0, #27
 c001a6c:	47a0      	blx	r4
 c001a6e:	f24f 0000 	movw	r0, #61440	; 0xf000
 c001a72:	f641 0363 	movw	r3, #6243	; 0x1863
 c001a76:	2201      	movs	r2, #1
 c001a78:	2101      	movs	r1, #1
 c001a7a:	f2c4 1000 	movt	r0, #16640	; 0x4100
 c001a7e:	f2c0 0300 	movt	r3, #0
 c001a82:	f244 0600 	movw	r6, #16384	; 0x4000
 c001a86:	4798      	blx	r3
 c001a88:	f240 60ed 	movw	r0, #1773	; 0x6ed
 c001a8c:	f2c4 1601 	movt	r6, #16641	; 0x4101
 c001a90:	0032      	movs	r2, r6
 c001a92:	2302      	movs	r3, #2
 c001a94:	2108      	movs	r1, #8
 c001a96:	f6c0 4000 	movt	r0, #3072	; 0xc00
 c001a9a:	47a8      	blx	r5
 c001a9c:	2008      	movs	r0, #8
 c001a9e:	47a0      	blx	r4
 c001aa0:	0030      	movs	r0, r6
 c001aa2:	f7fe fcad 	bl	c000400 <ipc_table_init>
 c001aa6:	f7ff ff69 	bl	c00197c <app_pmu_init>
 c001aaa:	f003 fa3f 	bl	c004f2c <wlan_initialize>
 c001aae:	f7ff ffb5 	bl	c001a1c <app_example>
 c001ab2:	f242 4099 	movw	r0, #9369	; 0x2499
 c001ab6:	f6c0 4000 	movt	r0, #3072	; 0xc00
 c001aba:	f003 fc5b 	bl	c005374 <IPC_SEMDelay>
 c001abe:	f641 136c 	movw	r3, #6508	; 0x196c
 c001ac2:	f641 1164 	movw	r1, #6500	; 0x1964
 c001ac6:	2249      	movs	r2, #73	; 0x49
 c001ac8:	f6c0 4302 	movt	r3, #3074	; 0xc02
 c001acc:	f6c0 4102 	movt	r1, #3074	; 0xc02
 c001ad0:	2004      	movs	r0, #4
 c001ad2:	f7ff febd 	bl	c001850 <rtk_log_write>
 c001ad6:	f000 fcab 	bl	c002430 <rtos_sched_start>
 c001ada:	2000      	movs	r0, #0
 c001adc:	bd70      	pop	{r4, r5, r6, pc}
 c001ade:	bf00      	nop

0c001ae0 <CmdRamHelp>:
 c001ae0:	b570      	push	{r4, r5, r6, lr}
 c001ae2:	f24a 35e8 	movw	r5, #41960	; 0xa3e8
 c001ae6:	f24a 34a8 	movw	r4, #41896	; 0xa3a8
 c001aea:	f641 107c 	movw	r0, #6524	; 0x197c
 c001aee:	f6c0 4502 	movt	r5, #3074	; 0xc02
 c001af2:	f6c0 4402 	movt	r4, #3074	; 0xc02
 c001af6:	1b2d      	subs	r5, r5, r4
 c001af8:	092d      	lsrs	r5, r5, #4
 c001afa:	0029      	movs	r1, r5
 c001afc:	f6c0 4002 	movt	r0, #3074	; 0xc02
 c001b00:	f004 fae4 	bl	c0060cc <DiagPrintf_minimal>
 c001b04:	b16d      	cbz	r5, c001b22 <CmdRamHelp+0x42>
 c001b06:	46a4      	mov	ip, r4
 c001b08:	012e      	lsls	r6, r5, #4
 c001b0a:	4466      	add	r6, ip
 c001b0c:	68e1      	ldr	r1, [r4, #12]
 c001b0e:	b129      	cbz	r1, c001b1c <CmdRamHelp+0x3c>
 c001b10:	f242 50a0 	movw	r0, #9632	; 0x25a0
 c001b14:	f6c0 4002 	movt	r0, #3074	; 0xc02
 c001b18:	f004 fad8 	bl	c0060cc <DiagPrintf_minimal>
 c001b1c:	3410      	adds	r4, #16
 c001b1e:	42b4      	cmp	r4, r6
 c001b20:	d1f4      	bne.n	c001b0c <CmdRamHelp+0x2c>
 c001b22:	f641 10bc 	movw	r0, #6588	; 0x19bc
 c001b26:	0029      	movs	r1, r5
 c001b28:	f6c0 4002 	movt	r0, #3074	; 0xc02
 c001b2c:	f004 face 	bl	c0060cc <DiagPrintf_minimal>
 c001b30:	2001      	movs	r0, #1
 c001b32:	bd70      	pop	{r4, r5, r6, pc}

0c001b34 <cmd_reboot>:
 c001b34:	b570      	push	{r4, r5, r6, lr}
 c001b36:	0004      	movs	r4, r0
 c001b38:	f641 10fc 	movw	r0, #6652	; 0x19fc
 c001b3c:	f6c0 4002 	movt	r0, #3074	; 0xc02
 c001b40:	000d      	movs	r5, r1
 c001b42:	f004 fac3 	bl	c0060cc <DiagPrintf_minimal>
 c001b46:	b91c      	cbnz	r4, c001b50 <cmd_reboot+0x1c>
 c001b48:	f7ff f85c 	bl	c000c04 <System_Reset>
 c001b4c:	2001      	movs	r0, #1
 c001b4e:	bd70      	pop	{r4, r5, r6, pc}
 c001b50:	f641 2110 	movw	r1, #6672	; 0x1a10
 c001b54:	f245 53d9 	movw	r3, #21977	; 0x55d9
 c001b58:	6828      	ldr	r0, [r5, #0]
 c001b5a:	f6c0 4102 	movt	r1, #3074	; 0xc02
 c001b5e:	f2c0 0300 	movt	r3, #0
 c001b62:	4798      	blx	r3
 c001b64:	2800      	cmp	r0, #0
 c001b66:	d1ef      	bne.n	c001b48 <cmd_reboot+0x14>
 c001b68:	f240 137d 	movw	r3, #381	; 0x17d
 c001b6c:	f240 2100 	movw	r1, #512	; 0x200
 c001b70:	f2c0 0300 	movt	r3, #0
 c001b74:	4798      	blx	r3
 c001b76:	e7e7      	b.n	c001b48 <cmd_reboot+0x14>

0c001b78 <cmd_write_word>:
 c001b78:	b5f8      	push	{r3, r4, r5, r6, r7, lr}
 c001b7a:	000d      	movs	r5, r1
 c001b7c:	f245 64c1 	movw	r4, #22209	; 0x56c1
 c001b80:	2210      	movs	r2, #16
 c001b82:	f2c0 0400 	movt	r4, #0
 c001b86:	2100      	movs	r1, #0
 c001b88:	6828      	ldr	r0, [r5, #0]
 c001b8a:	47a0      	blx	r4
 c001b8c:	2303      	movs	r3, #3
 c001b8e:	0007      	movs	r7, r0
 c001b90:	2210      	movs	r2, #16
 c001b92:	2100      	movs	r1, #0
 c001b94:	0006      	movs	r6, r0
 c001b96:	6868      	ldr	r0, [r5, #4]
 c001b98:	439f      	bics	r7, r3
 c001b9a:	47a0      	blx	r4
 c001b9c:	0004      	movs	r4, r0
 c001b9e:	0002      	movs	r2, r0
 c001ba0:	f641 201c 	movw	r0, #6684	; 0x1a1c
 c001ba4:	0039      	movs	r1, r7
 c001ba6:	f6c0 4002 	movt	r0, #3074	; 0xc02
 c001baa:	f004 fa8f 	bl	c0060cc <DiagPrintf_minimal>
 c001bae:	f64e 5300 	movw	r3, #60672	; 0xed00
 c001bb2:	603c      	str	r4, [r7, #0]
 c001bb4:	f2ce 0300 	movt	r3, #57344	; 0xe000
 c001bb8:	695b      	ldr	r3, [r3, #20]
 c001bba:	03db      	lsls	r3, r3, #15
 c001bbc:	d50f      	bpl.n	c001bde <cmd_write_word+0x66>
 c001bbe:	231c      	movs	r3, #28
 c001bc0:	4233      	tst	r3, r6
 c001bc2:	d10e      	bne.n	c001be2 <cmd_write_word+0x6a>
 c001bc4:	f3bf 8f4f 	dsb	sy
 c001bc8:	f64e 5300 	movw	r3, #60672	; 0xed00
 c001bcc:	f240 2268 	movw	r2, #616	; 0x268
 c001bd0:	f2ce 0300 	movt	r3, #57344	; 0xe000
 c001bd4:	509f      	str	r7, [r3, r2]
 c001bd6:	f3bf 8f4f 	dsb	sy
 c001bda:	f3bf 8f6f 	isb	sy
 c001bde:	2000      	movs	r0, #0
 c001be0:	bdf8      	pop	{r3, r4, r5, r6, r7, pc}
 c001be2:	3303      	adds	r3, #3
 c001be4:	439e      	bics	r6, r3
 c001be6:	0037      	movs	r7, r6
 c001be8:	e7ec      	b.n	c001bc4 <cmd_write_word+0x4c>
 c001bea:	bf00      	nop

0c001bec <cmd_dump_word>:
 c001bec:	b5f0      	push	{r4, r5, r6, r7, lr}
 c001bee:	f642 7371 	movw	r3, #12145	; 0x2f71
 c001bf2:	46c6      	mov	lr, r8
 c001bf4:	0004      	movs	r4, r0
 c001bf6:	f2c0 0300 	movt	r3, #0
 c001bfa:	b500      	push	{lr}
 c001bfc:	000e      	movs	r6, r1
 c001bfe:	4798      	blx	r3
 c001c00:	1e63      	subs	r3, r4, #1
 c001c02:	0007      	movs	r7, r0
 c001c04:	2b02      	cmp	r3, #2
 c001c06:	d900      	bls.n	c001c0a <cmd_dump_word+0x1e>
 c001c08:	e09d      	b.n	c001d46 <cmd_dump_word+0x15a>
 c001c0a:	2c03      	cmp	r4, #3
 c001c0c:	d049      	beq.n	c001ca2 <cmd_dump_word+0xb6>
 c001c0e:	2c01      	cmp	r4, #1
 c001c10:	d000      	beq.n	c001c14 <cmd_dump_word+0x28>
 c001c12:	e0ba      	b.n	c001d8a <cmd_dump_word+0x19e>
 c001c14:	f245 63c1 	movw	r3, #22209	; 0x56c1
 c001c18:	2210      	movs	r2, #16
 c001c1a:	2100      	movs	r1, #0
 c001c1c:	f2c0 0300 	movt	r3, #0
 c001c20:	6830      	ldr	r0, [r6, #0]
 c001c22:	4798      	blx	r3
 c001c24:	2203      	movs	r2, #3
 c001c26:	0003      	movs	r3, r0
 c001c28:	4390      	bics	r0, r2
 c001c2a:	22f8      	movs	r2, #248	; 0xf8
 c001c2c:	0612      	lsls	r2, r2, #24
 c001c2e:	1881      	adds	r1, r0, r2
 c001c30:	2280      	movs	r2, #128	; 0x80
 c001c32:	0512      	lsls	r2, r2, #20
 c001c34:	4291      	cmp	r1, r2
 c001c36:	d202      	bcs.n	c001c3e <cmd_dump_word+0x52>
 c001c38:	2f00      	cmp	r7, #0
 c001c3a:	d000      	beq.n	c001c3e <cmd_dump_word+0x52>
 c001c3c:	e08d      	b.n	c001d5a <cmd_dump_word+0x16e>
 c001c3e:	2501      	movs	r5, #1
 c001c40:	f64e 5200 	movw	r2, #60672	; 0xed00
 c001c44:	f2ce 0200 	movt	r2, #57344	; 0xe000
 c001c48:	6952      	ldr	r2, [r2, #20]
 c001c4a:	03d2      	lsls	r2, r2, #15
 c001c4c:	d521      	bpl.n	c001c92 <cmd_dump_word+0xa6>
 c001c4e:	211c      	movs	r1, #28
 c001c50:	000e      	movs	r6, r1
 c001c52:	0002      	movs	r2, r0
 c001c54:	00ac      	lsls	r4, r5, #2
 c001c56:	401e      	ands	r6, r3
 c001c58:	4219      	tst	r1, r3
 c001c5a:	d000      	beq.n	c001c5e <cmd_dump_word+0x72>
 c001c5c:	e090      	b.n	c001d80 <cmd_dump_word+0x194>
 c001c5e:	f3bf 8f4f 	dsb	sy
 c001c62:	2c00      	cmp	r4, #0
 c001c64:	dd11      	ble.n	c001c8a <cmd_dump_word+0x9e>
 c001c66:	0013      	movs	r3, r2
 c001c68:	f64e 5100 	movw	r1, #60672	; 0xed00
 c001c6c:	3c01      	subs	r4, #1
 c001c6e:	0964      	lsrs	r4, r4, #5
 c001c70:	0164      	lsls	r4, r4, #5
 c001c72:	3320      	adds	r3, #32
 c001c74:	f240 2670 	movw	r6, #624	; 0x270
 c001c78:	18e4      	adds	r4, r4, r3
 c001c7a:	f2ce 0100 	movt	r1, #57344	; 0xe000
 c001c7e:	e000      	b.n	c001c82 <cmd_dump_word+0x96>
 c001c80:	3320      	adds	r3, #32
 c001c82:	518a      	str	r2, [r1, r6]
 c001c84:	001a      	movs	r2, r3
 c001c86:	42a3      	cmp	r3, r4
 c001c88:	d1fa      	bne.n	c001c80 <cmd_dump_word+0x94>
 c001c8a:	f3bf 8f4f 	dsb	sy
 c001c8e:	f3bf 8f6f 	isb	sy
 c001c92:	0029      	movs	r1, r5
 c001c94:	f7ff fd88 	bl	c0017a8 <rtk_log_memory_dump_word>
 c001c98:	2401      	movs	r4, #1
 c001c9a:	0020      	movs	r0, r4
 c001c9c:	bc80      	pop	{r7}
 c001c9e:	46b8      	mov	r8, r7
 c001ca0:	bdf0      	pop	{r4, r5, r6, r7, pc}
 c001ca2:	68b3      	ldr	r3, [r6, #8]
 c001ca4:	781c      	ldrb	r4, [r3, #0]
 c001ca6:	2320      	movs	r3, #32
 c001ca8:	439c      	bics	r4, r3
 c001caa:	3c42      	subs	r4, #66	; 0x42
 c001cac:	4263      	negs	r3, r4
 c001cae:	415c      	adcs	r4, r3
 c001cb0:	f245 68c1 	movw	r8, #22209	; 0x56c1
 c001cb4:	220a      	movs	r2, #10
 c001cb6:	2100      	movs	r1, #0
 c001cb8:	f2c0 0800 	movt	r8, #0
 c001cbc:	6870      	ldr	r0, [r6, #4]
 c001cbe:	47c0      	blx	r8
 c001cc0:	2210      	movs	r2, #16
 c001cc2:	2100      	movs	r1, #0
 c001cc4:	0005      	movs	r5, r0
 c001cc6:	6830      	ldr	r0, [r6, #0]
 c001cc8:	47c0      	blx	r8
 c001cca:	2203      	movs	r2, #3
 c001ccc:	0003      	movs	r3, r0
 c001cce:	4390      	bics	r0, r2
 c001cd0:	22f8      	movs	r2, #248	; 0xf8
 c001cd2:	0612      	lsls	r2, r2, #24
 c001cd4:	1881      	adds	r1, r0, r2
 c001cd6:	2280      	movs	r2, #128	; 0x80
 c001cd8:	0512      	lsls	r2, r2, #20
 c001cda:	4291      	cmp	r1, r2
 c001cdc:	d33b      	bcc.n	c001d56 <cmd_dump_word+0x16a>
 c001cde:	2c00      	cmp	r4, #0
 c001ce0:	d043      	beq.n	c001d6a <cmd_dump_word+0x17e>
 c001ce2:	2d00      	cmp	r5, #0
 c001ce4:	d044      	beq.n	c001d70 <cmd_dump_word+0x184>
 c001ce6:	f64e 5200 	movw	r2, #60672	; 0xed00
 c001cea:	f2ce 0200 	movt	r2, #57344	; 0xe000
 c001cee:	6952      	ldr	r2, [r2, #20]
 c001cf0:	03d2      	lsls	r2, r2, #15
 c001cf2:	d524      	bpl.n	c001d3e <cmd_dump_word+0x152>
 c001cf4:	261c      	movs	r6, #28
 c001cf6:	0037      	movs	r7, r6
 c001cf8:	0029      	movs	r1, r5
 c001cfa:	0002      	movs	r2, r0
 c001cfc:	401f      	ands	r7, r3
 c001cfe:	421e      	tst	r6, r3
 c001d00:	d003      	beq.n	c001d0a <cmd_dump_word+0x11e>
 c001d02:	221f      	movs	r2, #31
 c001d04:	4393      	bics	r3, r2
 c001d06:	001a      	movs	r2, r3
 c001d08:	19e9      	adds	r1, r5, r7
 c001d0a:	f3bf 8f4f 	dsb	sy
 c001d0e:	2900      	cmp	r1, #0
 c001d10:	dd11      	ble.n	c001d36 <cmd_dump_word+0x14a>
 c001d12:	0013      	movs	r3, r2
 c001d14:	f64e 5600 	movw	r6, #60672	; 0xed00
 c001d18:	3901      	subs	r1, #1
 c001d1a:	0949      	lsrs	r1, r1, #5
 c001d1c:	0149      	lsls	r1, r1, #5
 c001d1e:	3320      	adds	r3, #32
 c001d20:	f240 2770 	movw	r7, #624	; 0x270
 c001d24:	18c9      	adds	r1, r1, r3
 c001d26:	f2ce 0600 	movt	r6, #57344	; 0xe000
 c001d2a:	e000      	b.n	c001d2e <cmd_dump_word+0x142>
 c001d2c:	3320      	adds	r3, #32
 c001d2e:	51f2      	str	r2, [r6, r7]
 c001d30:	001a      	movs	r2, r3
 c001d32:	428b      	cmp	r3, r1
 c001d34:	d1fa      	bne.n	c001d2c <cmd_dump_word+0x140>
 c001d36:	f3bf 8f4f 	dsb	sy
 c001d3a:	f3bf 8f6f 	isb	sy
 c001d3e:	0029      	movs	r1, r5
 c001d40:	f7ff fd5c 	bl	c0017fc <rtk_log_memory_dump_byte>
 c001d44:	e7a9      	b.n	c001c9a <cmd_dump_word+0xae>
 c001d46:	f641 202c 	movw	r0, #6700	; 0x1a2c
 c001d4a:	f6c0 4002 	movt	r0, #3074	; 0xc02
 c001d4e:	f004 f9bd 	bl	c0060cc <DiagPrintf_minimal>
 c001d52:	2400      	movs	r4, #0
 c001d54:	e7a1      	b.n	c001c9a <cmd_dump_word+0xae>
 c001d56:	2f00      	cmp	r7, #0
 c001d58:	d0c1      	beq.n	c001cde <cmd_dump_word+0xf2>
 c001d5a:	f641 2048 	movw	r0, #6728	; 0x1a48
 c001d5e:	f6c0 4002 	movt	r0, #3074	; 0xc02
 c001d62:	f004 f9b3 	bl	c0060cc <DiagPrintf_minimal>
 c001d66:	2401      	movs	r4, #1
 c001d68:	e797      	b.n	c001c9a <cmd_dump_word+0xae>
 c001d6a:	2d00      	cmp	r5, #0
 c001d6c:	d000      	beq.n	c001d70 <cmd_dump_word+0x184>
 c001d6e:	e767      	b.n	c001c40 <cmd_dump_word+0x54>
 c001d70:	f641 206c 	movw	r0, #6764	; 0x1a6c
 c001d74:	f6c0 4002 	movt	r0, #3074	; 0xc02
 c001d78:	f004 f9a8 	bl	c0060cc <DiagPrintf_minimal>
 c001d7c:	2400      	movs	r4, #0
 c001d7e:	e78c      	b.n	c001c9a <cmd_dump_word+0xae>
 c001d80:	221f      	movs	r2, #31
 c001d82:	4393      	bics	r3, r2
 c001d84:	001a      	movs	r2, r3
 c001d86:	19a4      	adds	r4, r4, r6
 c001d88:	e769      	b.n	c001c5e <cmd_dump_word+0x72>
 c001d8a:	2400      	movs	r4, #0
 c001d8c:	e790      	b.n	c001cb0 <cmd_dump_word+0xc4>
 c001d8e:	bf00      	nop

0c001d90 <rtos_critical_is_in_interrupt>:
 c001d90:	f3ef 8005 	mrs	r0, IPSR
 c001d94:	1e43      	subs	r3, r0, #1
 c001d96:	4198      	sbcs	r0, r3
 c001d98:	4770      	bx	lr
 c001d9a:	bf00      	nop

0c001d9c <rtos_critical_enter>:
 c001d9c:	b510      	push	{r4, lr}
 c001d9e:	f3ef 8305 	mrs	r3, IPSR
 c001da2:	b18b      	cbz	r3, c001dc8 <rtos_critical_enter+0x2c>
 c001da4:	f248 540c 	movw	r4, #34060	; 0x850c
 c001da8:	f2c2 0406 	movt	r4, #8198	; 0x2006
 c001dac:	8823      	ldrh	r3, [r4, #0]
 c001dae:	b113      	cbz	r3, c001db6 <rtos_critical_enter+0x1a>
 c001db0:	3301      	adds	r3, #1
 c001db2:	8023      	strh	r3, [r4, #0]
 c001db4:	bd10      	pop	{r4, pc}
 c001db6:	f000 fd23 	bl	c002800 <ulSetInterruptMaskFromISR>
 c001dba:	f248 5310 	movw	r3, #34064	; 0x8510
 c001dbe:	f2c2 0306 	movt	r3, #8198	; 0x2006
 c001dc2:	6018      	str	r0, [r3, #0]
 c001dc4:	8823      	ldrh	r3, [r4, #0]
 c001dc6:	e7f3      	b.n	c001db0 <rtos_critical_enter+0x14>
 c001dc8:	f000 fd02 	bl	c0027d0 <vPortEnterCritical>
 c001dcc:	e7f2      	b.n	c001db4 <rtos_critical_enter+0x18>
 c001dce:	bf00      	nop

0c001dd0 <rtos_critical_exit>:
 c001dd0:	b510      	push	{r4, lr}
 c001dd2:	f3ef 8305 	mrs	r3, IPSR
 c001dd6:	b18b      	cbz	r3, c001dfc <rtos_critical_exit+0x2c>
 c001dd8:	f248 520c 	movw	r2, #34060	; 0x850c
 c001ddc:	f2c2 0206 	movt	r2, #8198	; 0x2006
 c001de0:	8813      	ldrh	r3, [r2, #0]
 c001de2:	3b01      	subs	r3, #1
 c001de4:	b29b      	uxth	r3, r3
 c001de6:	8013      	strh	r3, [r2, #0]
 c001de8:	b103      	cbz	r3, c001dec <rtos_critical_exit+0x1c>
 c001dea:	bd10      	pop	{r4, pc}
 c001dec:	f248 5310 	movw	r3, #34064	; 0x8510
 c001df0:	f2c2 0306 	movt	r3, #8198	; 0x2006
 c001df4:	6818      	ldr	r0, [r3, #0]
 c001df6:	f000 fd09 	bl	c00280c <vClearInterruptMaskFromISR>
 c001dfa:	e7f6      	b.n	c001dea <rtos_critical_exit+0x1a>
 c001dfc:	f000 fcf6 	bl	c0027ec <vPortExitCritical>
 c001e00:	e7f3      	b.n	c001dea <rtos_critical_exit+0x1a>
 c001e02:	bf00      	nop

0c001e04 <rtos_mem_init>:
 c001e04:	b510      	push	{r4, lr}
 c001e06:	f7ff fa6b 	bl	c0012e0 <os_heap_init>
 c001e0a:	bd10      	pop	{r4, pc}

0c001e0c <rtos_mem_malloc>:
 c001e0c:	b510      	push	{r4, lr}
 c001e0e:	f7ff fb45 	bl	c00149c <pvPortMalloc>
 c001e12:	bd10      	pop	{r4, pc}

0c001e14 <rtos_mem_zmalloc>:
 c001e14:	b570      	push	{r4, r5, r6, lr}
 c001e16:	0005      	movs	r5, r0
 c001e18:	f7ff fb40 	bl	c00149c <pvPortMalloc>
 c001e1c:	0004      	movs	r4, r0
 c001e1e:	b118      	cbz	r0, c001e28 <rtos_mem_zmalloc+0x14>
 c001e20:	002a      	movs	r2, r5
 c001e22:	2100      	movs	r1, #0
 c001e24:	f01e fc9c 	bl	c020760 <____wrap_memset_veneer>
 c001e28:	0020      	movs	r0, r4
 c001e2a:	bd70      	pop	{r4, r5, r6, pc}

0c001e2c <rtos_mem_realloc>:
 c001e2c:	b510      	push	{r4, lr}
 c001e2e:	f7ff fc2d 	bl	c00168c <pvPortReAlloc>
 c001e32:	bd10      	pop	{r4, pc}

0c001e34 <rtos_mem_free>:
 c001e34:	b510      	push	{r4, lr}
 c001e36:	b108      	cbz	r0, c001e3c <rtos_mem_free+0x8>
 c001e38:	f7ff fb9e 	bl	c001578 <vPortFree>
 c001e3c:	bd10      	pop	{r4, pc}
 c001e3e:	bf00      	nop

0c001e40 <rtos_mem_get_free_heap_size>:
 c001e40:	b510      	push	{r4, lr}
 c001e42:	f7ff fbc3 	bl	c0015cc <xPortGetFreeHeapSize>
 c001e46:	bd10      	pop	{r4, pc}

0c001e48 <rtos_mutex_create_static>:
 c001e48:	b510      	push	{r4, lr}
 c001e4a:	0004      	movs	r4, r0
 c001e4c:	f000 fa0e 	bl	c00226c <__reserved_get_mutex_from_poll>
 c001e50:	0001      	movs	r1, r0
 c001e52:	2001      	movs	r0, #1
 c001e54:	b131      	cbz	r1, c001e64 <rtos_mutex_create_static+0x1c>
 c001e56:	f000 ffa7 	bl	c002da8 <xQueueCreateMutexStatic>
 c001e5a:	6020      	str	r0, [r4, #0]
 c001e5c:	4243      	negs	r3, r0
 c001e5e:	4158      	adcs	r0, r3
 c001e60:	4240      	negs	r0, r0
 c001e62:	bd10      	pop	{r4, pc}
 c001e64:	b13c      	cbz	r4, c001e76 <rtos_mutex_create_static+0x2e>
 c001e66:	f000 ffd5 	bl	c002e14 <xQueueCreateMutex>
 c001e6a:	0003      	movs	r3, r0
 c001e6c:	425a      	negs	r2, r3
 c001e6e:	4153      	adcs	r3, r2
 c001e70:	6020      	str	r0, [r4, #0]
 c001e72:	4258      	negs	r0, r3
 c001e74:	e7f5      	b.n	c001e62 <rtos_mutex_create_static+0x1a>
 c001e76:	4240      	negs	r0, r0
 c001e78:	e7f3      	b.n	c001e62 <rtos_mutex_create_static+0x1a>
 c001e7a:	bf00      	nop

0c001e7c <rtos_mutex_delete>:
 c001e7c:	b510      	push	{r4, lr}
 c001e7e:	0004      	movs	r4, r0
 c001e80:	b1d8      	cbz	r0, c001eba <rtos_mutex_delete+0x3e>
 c001e82:	f000 fe93 	bl	c002bac <xQueueGetMutexHolder>
 c001e86:	b920      	cbnz	r0, c001e92 <rtos_mutex_delete+0x16>
 c001e88:	0020      	movs	r0, r4
 c001e8a:	f001 f9e3 	bl	c003254 <vQueueDelete>
 c001e8e:	2000      	movs	r0, #0
 c001e90:	bd10      	pop	{r4, pc}
 c001e92:	0020      	movs	r0, r4
 c001e94:	f001 f9de 	bl	c003254 <vQueueDelete>
 c001e98:	2000      	movs	r0, #0
 c001e9a:	f002 fb63 	bl	c004564 <pcTaskGetName>
 c001e9e:	f641 42e0 	movw	r2, #7392	; 0x1ce0
 c001ea2:	0001      	movs	r1, r0
 c001ea4:	f641 408c 	movw	r0, #7308	; 0x1c8c
 c001ea8:	f6c0 4202 	movt	r2, #3074	; 0xc02
 c001eac:	f6c0 4002 	movt	r0, #3074	; 0xc02
 c001eb0:	f004 f90c 	bl	c0060cc <DiagPrintf_minimal>
 c001eb4:	2001      	movs	r0, #1
 c001eb6:	4240      	negs	r0, r0
 c001eb8:	e7ea      	b.n	c001e90 <rtos_mutex_delete+0x14>
 c001eba:	2001      	movs	r0, #1
 c001ebc:	4240      	negs	r0, r0
 c001ebe:	e7e7      	b.n	c001e90 <rtos_mutex_delete+0x14>

0c001ec0 <rtos_mutex_delete_static>:
 c001ec0:	b570      	push	{r4, r5, r6, lr}
 c001ec2:	0004      	movs	r4, r0
 c001ec4:	f7ff ffda 	bl	c001e7c <rtos_mutex_delete>
 c001ec8:	0005      	movs	r5, r0
 c001eca:	0020      	movs	r0, r4
 c001ecc:	f000 f9ec 	bl	c0022a8 <__reserved_release_mutex_to_poll>
 c001ed0:	0028      	movs	r0, r5
 c001ed2:	bd70      	pop	{r4, r5, r6, pc}

0c001ed4 <rtos_mutex_take>:
 c001ed4:	2300      	movs	r3, #0
 c001ed6:	b530      	push	{r4, r5, lr}
 c001ed8:	b083      	sub	sp, #12
 c001eda:	0004      	movs	r4, r0
 c001edc:	000d      	movs	r5, r1
 c001ede:	9301      	str	r3, [sp, #4]
 c001ee0:	f7ff ff56 	bl	c001d90 <rtos_critical_is_in_interrupt>
 c001ee4:	b188      	cbz	r0, c001f0a <rtos_mutex_take+0x36>
 c001ee6:	2100      	movs	r1, #0
 c001ee8:	0020      	movs	r0, r4
 c001eea:	aa01      	add	r2, sp, #4
 c001eec:	f001 f972 	bl	c0031d4 <xQueueReceiveFromISR>
 c001ef0:	2801      	cmp	r0, #1
 c001ef2:	d114      	bne.n	c001f1e <rtos_mutex_take+0x4a>
 c001ef4:	9801      	ldr	r0, [sp, #4]
 c001ef6:	b180      	cbz	r0, c001f1a <rtos_mutex_take+0x46>
 c001ef8:	f64e 5304 	movw	r3, #60676	; 0xed04
 c001efc:	2280      	movs	r2, #128	; 0x80
 c001efe:	f2ce 0300 	movt	r3, #57344	; 0xe000
 c001f02:	0552      	lsls	r2, r2, #21
 c001f04:	2000      	movs	r0, #0
 c001f06:	601a      	str	r2, [r3, #0]
 c001f08:	e007      	b.n	c001f1a <rtos_mutex_take+0x46>
 c001f0a:	0029      	movs	r1, r5
 c001f0c:	0020      	movs	r0, r4
 c001f0e:	f001 f8c3 	bl	c003098 <xQueueSemaphoreTake>
 c001f12:	3801      	subs	r0, #1
 c001f14:	1e43      	subs	r3, r0, #1
 c001f16:	4198      	sbcs	r0, r3
 c001f18:	4240      	negs	r0, r0
 c001f1a:	b003      	add	sp, #12
 c001f1c:	bd30      	pop	{r4, r5, pc}
 c001f1e:	2001      	movs	r0, #1
 c001f20:	4240      	negs	r0, r0
 c001f22:	e7fa      	b.n	c001f1a <rtos_mutex_take+0x46>

0c001f24 <rtos_mutex_give>:
 c001f24:	2300      	movs	r3, #0
 c001f26:	b510      	push	{r4, lr}
 c001f28:	b082      	sub	sp, #8
 c001f2a:	0004      	movs	r4, r0
 c001f2c:	9301      	str	r3, [sp, #4]
 c001f2e:	f7ff ff2f 	bl	c001d90 <rtos_critical_is_in_interrupt>
 c001f32:	b180      	cbz	r0, c001f56 <rtos_mutex_give+0x32>
 c001f34:	0020      	movs	r0, r4
 c001f36:	a901      	add	r1, sp, #4
 c001f38:	f000 fff4 	bl	c002f24 <xQueueGiveFromISR>
 c001f3c:	2801      	cmp	r0, #1
 c001f3e:	d116      	bne.n	c001f6e <rtos_mutex_give+0x4a>
 c001f40:	9801      	ldr	r0, [sp, #4]
 c001f42:	b190      	cbz	r0, c001f6a <rtos_mutex_give+0x46>
 c001f44:	f64e 5304 	movw	r3, #60676	; 0xed04
 c001f48:	2280      	movs	r2, #128	; 0x80
 c001f4a:	f2ce 0300 	movt	r3, #57344	; 0xe000
 c001f4e:	0552      	lsls	r2, r2, #21
 c001f50:	2000      	movs	r0, #0
 c001f52:	601a      	str	r2, [r3, #0]
 c001f54:	e009      	b.n	c001f6a <rtos_mutex_give+0x46>
 c001f56:	2300      	movs	r3, #0
 c001f58:	2200      	movs	r2, #0
 c001f5a:	2100      	movs	r1, #0
 c001f5c:	0020      	movs	r0, r4
 c001f5e:	f000 fe91 	bl	c002c84 <xQueueGenericSend>
 c001f62:	3801      	subs	r0, #1
 c001f64:	1e43      	subs	r3, r0, #1
 c001f66:	4198      	sbcs	r0, r3
 c001f68:	4240      	negs	r0, r0
 c001f6a:	b002      	add	sp, #8
 c001f6c:	bd10      	pop	{r4, pc}
 c001f6e:	2001      	movs	r0, #1
 c001f70:	4240      	negs	r0, r0
 c001f72:	e7fa      	b.n	c001f6a <rtos_mutex_give+0x46>

0c001f74 <rtos_sema_create_static>:
 c001f74:	b570      	push	{r4, r5, r6, lr}
 c001f76:	0015      	movs	r5, r2
 c001f78:	0004      	movs	r4, r0
 c001f7a:	000e      	movs	r6, r1
 c001f7c:	f000 f9c0 	bl	c002300 <__reserved_get_sema_from_poll>
 c001f80:	0002      	movs	r2, r0
 c001f82:	b140      	cbz	r0, c001f96 <rtos_sema_create_static+0x22>
 c001f84:	0031      	movs	r1, r6
 c001f86:	0028      	movs	r0, r5
 c001f88:	f000 fe1c 	bl	c002bc4 <xQueueCreateCountingSemaphoreStatic>
 c001f8c:	6020      	str	r0, [r4, #0]
 c001f8e:	4243      	negs	r3, r0
 c001f90:	4158      	adcs	r0, r3
 c001f92:	4240      	negs	r0, r0
 c001f94:	bd70      	pop	{r4, r5, r6, pc}
 c001f96:	b14c      	cbz	r4, c001fac <rtos_sema_create_static+0x38>
 c001f98:	0031      	movs	r1, r6
 c001f9a:	0028      	movs	r0, r5
 c001f9c:	f000 fe40 	bl	c002c20 <xQueueCreateCountingSemaphore>
 c001fa0:	0003      	movs	r3, r0
 c001fa2:	425a      	negs	r2, r3
 c001fa4:	4153      	adcs	r3, r2
 c001fa6:	6020      	str	r0, [r4, #0]
 c001fa8:	4258      	negs	r0, r3
 c001faa:	e7f3      	b.n	c001f94 <rtos_sema_create_static+0x20>
 c001fac:	2001      	movs	r0, #1
 c001fae:	4240      	negs	r0, r0
 c001fb0:	e7f0      	b.n	c001f94 <rtos_sema_create_static+0x20>
 c001fb2:	bf00      	nop

0c001fb4 <rtos_sema_delete_static>:
 c001fb4:	b510      	push	{r4, lr}
 c001fb6:	0004      	movs	r4, r0
 c001fb8:	b108      	cbz	r0, c001fbe <rtos_sema_delete_static+0xa>
 c001fba:	f001 f94b 	bl	c003254 <vQueueDelete>
 c001fbe:	0020      	movs	r0, r4
 c001fc0:	f000 f9bc 	bl	c00233c <__reserved_release_sema_to_poll>
 c001fc4:	2000      	movs	r0, #0
 c001fc6:	bd10      	pop	{r4, pc}

0c001fc8 <rtos_sema_create_binary>:
 c001fc8:	b510      	push	{r4, lr}
 c001fca:	0004      	movs	r4, r0
 c001fcc:	b148      	cbz	r0, c001fe2 <rtos_sema_create_binary+0x1a>
 c001fce:	2203      	movs	r2, #3
 c001fd0:	2100      	movs	r1, #0
 c001fd2:	2001      	movs	r0, #1
 c001fd4:	f000 fdb2 	bl	c002b3c <xQueueGenericCreate>
 c001fd8:	6020      	str	r0, [r4, #0]
 c001fda:	4243      	negs	r3, r0
 c001fdc:	4158      	adcs	r0, r3
 c001fde:	4240      	negs	r0, r0
 c001fe0:	bd10      	pop	{r4, pc}
 c001fe2:	2001      	movs	r0, #1
 c001fe4:	4240      	negs	r0, r0
 c001fe6:	e7fb      	b.n	c001fe0 <rtos_sema_create_binary+0x18>

0c001fe8 <rtos_sema_take>:
 c001fe8:	2300      	movs	r3, #0
 c001fea:	b530      	push	{r4, r5, lr}
 c001fec:	b083      	sub	sp, #12
 c001fee:	0004      	movs	r4, r0
 c001ff0:	000d      	movs	r5, r1
 c001ff2:	9301      	str	r3, [sp, #4]
 c001ff4:	f7ff fecc 	bl	c001d90 <rtos_critical_is_in_interrupt>
 c001ff8:	b188      	cbz	r0, c00201e <rtos_sema_take+0x36>
 c001ffa:	2100      	movs	r1, #0
 c001ffc:	0020      	movs	r0, r4
 c001ffe:	aa01      	add	r2, sp, #4
 c002000:	f001 f8e8 	bl	c0031d4 <xQueueReceiveFromISR>
 c002004:	2801      	cmp	r0, #1
 c002006:	d114      	bne.n	c002032 <rtos_sema_take+0x4a>
 c002008:	9801      	ldr	r0, [sp, #4]
 c00200a:	b180      	cbz	r0, c00202e <rtos_sema_take+0x46>
 c00200c:	f64e 5304 	movw	r3, #60676	; 0xed04
 c002010:	2280      	movs	r2, #128	; 0x80
 c002012:	f2ce 0300 	movt	r3, #57344	; 0xe000
 c002016:	0552      	lsls	r2, r2, #21
 c002018:	2000      	movs	r0, #0
 c00201a:	601a      	str	r2, [r3, #0]
 c00201c:	e007      	b.n	c00202e <rtos_sema_take+0x46>
 c00201e:	0029      	movs	r1, r5
 c002020:	0020      	movs	r0, r4
 c002022:	f001 f839 	bl	c003098 <xQueueSemaphoreTake>
 c002026:	3801      	subs	r0, #1
 c002028:	1e43      	subs	r3, r0, #1
 c00202a:	4198      	sbcs	r0, r3
 c00202c:	4240      	negs	r0, r0
 c00202e:	b003      	add	sp, #12
 c002030:	bd30      	pop	{r4, r5, pc}
 c002032:	2001      	movs	r0, #1
 c002034:	4240      	negs	r0, r0
 c002036:	e7fa      	b.n	c00202e <rtos_sema_take+0x46>

0c002038 <rtos_sema_give>:
 c002038:	2300      	movs	r3, #0
 c00203a:	b510      	push	{r4, lr}
 c00203c:	b082      	sub	sp, #8
 c00203e:	0004      	movs	r4, r0
 c002040:	9301      	str	r3, [sp, #4]
 c002042:	f7ff fea5 	bl	c001d90 <rtos_critical_is_in_interrupt>
 c002046:	b190      	cbz	r0, c00206e <rtos_sema_give+0x36>
 c002048:	0020      	movs	r0, r4
 c00204a:	a901      	add	r1, sp, #4
 c00204c:	f000 ff6a 	bl	c002f24 <xQueueGiveFromISR>
 c002050:	9b01      	ldr	r3, [sp, #4]
 c002052:	b133      	cbz	r3, c002062 <rtos_sema_give+0x2a>
 c002054:	f64e 5304 	movw	r3, #60676	; 0xed04
 c002058:	2280      	movs	r2, #128	; 0x80
 c00205a:	f2ce 0300 	movt	r3, #57344	; 0xe000
 c00205e:	0552      	lsls	r2, r2, #21
 c002060:	601a      	str	r2, [r3, #0]
 c002062:	3801      	subs	r0, #1
 c002064:	1e43      	subs	r3, r0, #1
 c002066:	4198      	sbcs	r0, r3
 c002068:	4240      	negs	r0, r0
 c00206a:	b002      	add	sp, #8
 c00206c:	bd10      	pop	{r4, pc}
 c00206e:	2300      	movs	r3, #0
 c002070:	2200      	movs	r2, #0
 c002072:	2100      	movs	r1, #0
 c002074:	0020      	movs	r0, r4
 c002076:	f000 fe05 	bl	c002c84 <xQueueGenericSend>
 c00207a:	e7f2      	b.n	c002062 <rtos_sema_give+0x2a>

0c00207c <__reserved_get_from_poll>:
 c00207c:	b5f8      	push	{r3, r4, r5, r6, r7, lr}
 c00207e:	4657      	mov	r7, sl
 c002080:	464e      	mov	r6, r9
 c002082:	4645      	mov	r5, r8
 c002084:	46de      	mov	lr, fp
 c002086:	b5e0      	push	{r5, r6, r7, lr}
 c002088:	4698      	mov	r8, r3
 c00208a:	9b0a      	ldr	r3, [sp, #40]	; 0x28
 c00208c:	0006      	movs	r6, r0
 c00208e:	4699      	mov	r9, r3
 c002090:	9b0b      	ldr	r3, [sp, #44]	; 0x2c
 c002092:	000d      	movs	r5, r1
 c002094:	469a      	mov	sl, r3
 c002096:	6813      	ldr	r3, [r2, #0]
 c002098:	0017      	movs	r7, r2
 c00209a:	bbe3      	cbnz	r3, c002116 <__reserved_get_from_poll+0x9a>
 c00209c:	2801      	cmp	r0, #1
 c00209e:	d100      	bne.n	c0020a2 <__reserved_get_from_poll+0x26>
 c0020a0:	e075      	b.n	c00218e <__reserved_get_from_poll+0x112>
 c0020a2:	2802      	cmp	r0, #2
 c0020a4:	d100      	bne.n	c0020a8 <__reserved_get_from_poll+0x2c>
 c0020a6:	e0a9      	b.n	c0021fc <__reserved_get_from_poll+0x180>
 c0020a8:	f248 5b40 	movw	fp, #34112	; 0x8540
 c0020ac:	f2c2 0b06 	movt	fp, #8198	; 0x2006
 c0020b0:	465b      	mov	r3, fp
 c0020b2:	681b      	ldr	r3, [r3, #0]
 c0020b4:	2b01      	cmp	r3, #1
 c0020b6:	d02e      	beq.n	c002116 <__reserved_get_from_poll+0x9a>
 c0020b8:	f645 3408 	movw	r4, #23304	; 0x5b08
 c0020bc:	f2c2 0400 	movt	r4, #8192	; 0x2000
 c0020c0:	f240 22d8 	movw	r2, #728	; 0x2d8
 c0020c4:	2100      	movs	r1, #0
 c0020c6:	0020      	movs	r0, r4
 c0020c8:	f01e fb4a 	bl	c020760 <____wrap_memset_veneer>
 c0020cc:	f248 5354 	movw	r3, #34132	; 0x8554
 c0020d0:	f240 22d8 	movw	r2, #728	; 0x2d8
 c0020d4:	f2c2 0306 	movt	r3, #8198	; 0x2006
 c0020d8:	18a1      	adds	r1, r4, r2
 c0020da:	601b      	str	r3, [r3, #0]
 c0020dc:	001a      	movs	r2, r3
 c0020de:	e000      	b.n	c0020e2 <__reserved_get_from_poll+0x66>
 c0020e0:	685a      	ldr	r2, [r3, #4]
 c0020e2:	605c      	str	r4, [r3, #4]
 c0020e4:	6023      	str	r3, [r4, #0]
 c0020e6:	6062      	str	r2, [r4, #4]
 c0020e8:	6014      	str	r4, [r2, #0]
 c0020ea:	3434      	adds	r4, #52	; 0x34
 c0020ec:	428c      	cmp	r4, r1
 c0020ee:	d1f7      	bne.n	c0020e0 <__reserved_get_from_poll+0x64>
 c0020f0:	f248 5334 	movw	r3, #34100	; 0x8534
 c0020f4:	2200      	movs	r2, #0
 c0020f6:	f2c2 0306 	movt	r3, #8198	; 0x2006
 c0020fa:	601a      	str	r2, [r3, #0]
 c0020fc:	f248 533c 	movw	r3, #34108	; 0x853c
 c002100:	f2c2 0306 	movt	r3, #8198	; 0x2006
 c002104:	601a      	str	r2, [r3, #0]
 c002106:	f248 5338 	movw	r3, #34104	; 0x8538
 c00210a:	f2c2 0306 	movt	r3, #8198	; 0x2006
 c00210e:	601a      	str	r2, [r3, #0]
 c002110:	2301      	movs	r3, #1
 c002112:	465a      	mov	r2, fp
 c002114:	6013      	str	r3, [r2, #0]
 c002116:	f7ff fe41 	bl	c001d9c <rtos_critical_enter>
 c00211a:	682c      	ldr	r4, [r5, #0]
 c00211c:	42a5      	cmp	r5, r4
 c00211e:	d02a      	beq.n	c002176 <__reserved_get_from_poll+0xfa>
 c002120:	6863      	ldr	r3, [r4, #4]
 c002122:	6822      	ldr	r2, [r4, #0]
 c002124:	0025      	movs	r5, r4
 c002126:	6053      	str	r3, [r2, #4]
 c002128:	601a      	str	r2, [r3, #0]
 c00212a:	464b      	mov	r3, r9
 c00212c:	464a      	mov	r2, r9
 c00212e:	6024      	str	r4, [r4, #0]
 c002130:	6064      	str	r4, [r4, #4]
 c002132:	681b      	ldr	r3, [r3, #0]
 c002134:	3508      	adds	r5, #8
 c002136:	3301      	adds	r3, #1
 c002138:	6013      	str	r3, [r2, #0]
 c00213a:	f7ff fe49 	bl	c001dd0 <rtos_critical_exit>
 c00213e:	3408      	adds	r4, #8
 c002140:	d01c      	beq.n	c00217c <__reserved_get_from_poll+0x100>
 c002142:	2254      	movs	r2, #84	; 0x54
 c002144:	2e03      	cmp	r6, #3
 c002146:	d100      	bne.n	c00214a <__reserved_get_from_poll+0xce>
 c002148:	222c      	movs	r2, #44	; 0x2c
 c00214a:	2100      	movs	r1, #0
 c00214c:	0028      	movs	r0, r5
 c00214e:	f01e fb07 	bl	c020760 <____wrap_memset_veneer>
 c002152:	4643      	mov	r3, r8
 c002154:	681b      	ldr	r3, [r3, #0]
 c002156:	464a      	mov	r2, r9
 c002158:	6812      	ldr	r2, [r2, #0]
 c00215a:	189b      	adds	r3, r3, r2
 c00215c:	4652      	mov	r2, sl
 c00215e:	6812      	ldr	r2, [r2, #0]
 c002160:	4293      	cmp	r3, r2
 c002162:	d901      	bls.n	c002168 <__reserved_get_from_poll+0xec>
 c002164:	4652      	mov	r2, sl
 c002166:	6013      	str	r3, [r2, #0]
 c002168:	0028      	movs	r0, r5
 c00216a:	bcf0      	pop	{r4, r5, r6, r7}
 c00216c:	46bb      	mov	fp, r7
 c00216e:	46b2      	mov	sl, r6
 c002170:	46a9      	mov	r9, r5
 c002172:	46a0      	mov	r8, r4
 c002174:	bdf8      	pop	{r3, r4, r5, r6, r7, pc}
 c002176:	f7ff fe2b 	bl	c001dd0 <rtos_critical_exit>
 c00217a:	2500      	movs	r5, #0
 c00217c:	4643      	mov	r3, r8
 c00217e:	683a      	ldr	r2, [r7, #0]
 c002180:	681b      	ldr	r3, [r3, #0]
 c002182:	2a00      	cmp	r2, #0
 c002184:	d0e7      	beq.n	c002156 <__reserved_get_from_poll+0xda>
 c002186:	4642      	mov	r2, r8
 c002188:	3301      	adds	r3, #1
 c00218a:	6013      	str	r3, [r2, #0]
 c00218c:	e7e3      	b.n	c002156 <__reserved_get_from_poll+0xda>
 c00218e:	f248 5420 	movw	r4, #34080	; 0x8520
 c002192:	f2c2 0406 	movt	r4, #8198	; 0x2006
 c002196:	6823      	ldr	r3, [r4, #0]
 c002198:	2b01      	cmp	r3, #1
 c00219a:	d0bc      	beq.n	c002116 <__reserved_get_from_poll+0x9a>
 c00219c:	f248 0b00 	movw	fp, #32768	; 0x8000
 c0021a0:	f2c2 0b00 	movt	fp, #8192	; 0x2000
 c0021a4:	f640 2210 	movw	r2, #2576	; 0xa10
 c0021a8:	2100      	movs	r1, #0
 c0021aa:	4658      	mov	r0, fp
 c0021ac:	f01e fad8 	bl	c020760 <____wrap_memset_veneer>
 c0021b0:	f248 5344 	movw	r3, #34116	; 0x8544
 c0021b4:	f640 2210 	movw	r2, #2576	; 0xa10
 c0021b8:	4658      	mov	r0, fp
 c0021ba:	f2c2 0306 	movt	r3, #8198	; 0x2006
 c0021be:	1881      	adds	r1, r0, r2
 c0021c0:	601b      	str	r3, [r3, #0]
 c0021c2:	001a      	movs	r2, r3
 c0021c4:	e000      	b.n	c0021c8 <__reserved_get_from_poll+0x14c>
 c0021c6:	685a      	ldr	r2, [r3, #4]
 c0021c8:	6058      	str	r0, [r3, #4]
 c0021ca:	6003      	str	r3, [r0, #0]
 c0021cc:	6042      	str	r2, [r0, #4]
 c0021ce:	6010      	str	r0, [r2, #0]
 c0021d0:	305c      	adds	r0, #92	; 0x5c
 c0021d2:	4281      	cmp	r1, r0
 c0021d4:	d1f7      	bne.n	c0021c6 <__reserved_get_from_poll+0x14a>
 c0021d6:	f248 5314 	movw	r3, #34068	; 0x8514
 c0021da:	2200      	movs	r2, #0
 c0021dc:	f2c2 0306 	movt	r3, #8198	; 0x2006
 c0021e0:	601a      	str	r2, [r3, #0]
 c0021e2:	f248 531c 	movw	r3, #34076	; 0x851c
 c0021e6:	f2c2 0306 	movt	r3, #8198	; 0x2006
 c0021ea:	601a      	str	r2, [r3, #0]
 c0021ec:	f248 5318 	movw	r3, #34072	; 0x8518
 c0021f0:	f2c2 0306 	movt	r3, #8198	; 0x2006
 c0021f4:	601a      	str	r2, [r3, #0]
 c0021f6:	2301      	movs	r3, #1
 c0021f8:	6023      	str	r3, [r4, #0]
 c0021fa:	e78c      	b.n	c002116 <__reserved_get_from_poll+0x9a>
 c0021fc:	f248 5430 	movw	r4, #34096	; 0x8530
 c002200:	f2c2 0406 	movt	r4, #8198	; 0x2006
 c002204:	6823      	ldr	r3, [r4, #0]
 c002206:	2b01      	cmp	r3, #1
 c002208:	d100      	bne.n	c00220c <__reserved_get_from_poll+0x190>
 c00220a:	e784      	b.n	c002116 <__reserved_get_from_poll+0x9a>
 c00220c:	f245 6b00 	movw	fp, #22016	; 0x5600
 c002210:	f2c2 0b00 	movt	fp, #8192	; 0x2000
 c002214:	f240 5208 	movw	r2, #1288	; 0x508
 c002218:	2100      	movs	r1, #0
 c00221a:	4658      	mov	r0, fp
 c00221c:	f01e faa0 	bl	c020760 <____wrap_memset_veneer>
 c002220:	f248 534c 	movw	r3, #34124	; 0x854c
 c002224:	f240 5208 	movw	r2, #1288	; 0x508
 c002228:	4658      	mov	r0, fp
 c00222a:	f2c2 0306 	movt	r3, #8198	; 0x2006
 c00222e:	1881      	adds	r1, r0, r2
 c002230:	601b      	str	r3, [r3, #0]
 c002232:	001a      	movs	r2, r3
 c002234:	e000      	b.n	c002238 <__reserved_get_from_poll+0x1bc>
 c002236:	685a      	ldr	r2, [r3, #4]
 c002238:	6058      	str	r0, [r3, #4]
 c00223a:	6003      	str	r3, [r0, #0]
 c00223c:	6042      	str	r2, [r0, #4]
 c00223e:	6010      	str	r0, [r2, #0]
 c002240:	305c      	adds	r0, #92	; 0x5c
 c002242:	4288      	cmp	r0, r1
 c002244:	d1f7      	bne.n	c002236 <__reserved_get_from_poll+0x1ba>
 c002246:	f248 5324 	movw	r3, #34084	; 0x8524
 c00224a:	2200      	movs	r2, #0
 c00224c:	f2c2 0306 	movt	r3, #8198	; 0x2006
 c002250:	601a      	str	r2, [r3, #0]
 c002252:	f248 532c 	movw	r3, #34092	; 0x852c
 c002256:	f2c2 0306 	movt	r3, #8198	; 0x2006
 c00225a:	601a      	str	r2, [r3, #0]
 c00225c:	f248 5328 	movw	r3, #34088	; 0x8528
 c002260:	f2c2 0306 	movt	r3, #8198	; 0x2006
 c002264:	601a      	str	r2, [r3, #0]
 c002266:	2301      	movs	r3, #1
 c002268:	6023      	str	r3, [r4, #0]
 c00226a:	e754      	b.n	c002116 <__reserved_get_from_poll+0x9a>

0c00226c <__reserved_get_mutex_from_poll>:
 c00226c:	f248 501c 	movw	r0, #34076	; 0x851c
 c002270:	b500      	push	{lr}
 c002272:	f2c2 0006 	movt	r0, #8198	; 0x2006
 c002276:	b083      	sub	sp, #12
 c002278:	9001      	str	r0, [sp, #4]
 c00227a:	f248 5014 	movw	r0, #34068	; 0x8514
 c00227e:	f248 5318 	movw	r3, #34072	; 0x8518
 c002282:	f248 5220 	movw	r2, #34080	; 0x8520
 c002286:	f248 5144 	movw	r1, #34116	; 0x8544
 c00228a:	f2c2 0006 	movt	r0, #8198	; 0x2006
 c00228e:	9000      	str	r0, [sp, #0]
 c002290:	f2c2 0306 	movt	r3, #8198	; 0x2006
 c002294:	f2c2 0206 	movt	r2, #8198	; 0x2006
 c002298:	f2c2 0106 	movt	r1, #8198	; 0x2006
 c00229c:	2001      	movs	r0, #1
 c00229e:	f7ff feed 	bl	c00207c <__reserved_get_from_poll>
 c0022a2:	b003      	add	sp, #12
 c0022a4:	bd00      	pop	{pc}
 c0022a6:	bf00      	nop

0c0022a8 <__reserved_release_mutex_to_poll>:
 c0022a8:	b570      	push	{r4, r5, r6, lr}
 c0022aa:	f248 0500 	movw	r5, #32768	; 0x8000
 c0022ae:	f2c2 0500 	movt	r5, #8192	; 0x2000
 c0022b2:	0004      	movs	r4, r0
 c0022b4:	f7ff fd72 	bl	c001d9c <rtos_critical_enter>
 c0022b8:	42ac      	cmp	r4, r5
 c0022ba:	d304      	bcc.n	c0022c6 <__reserved_release_mutex_to_poll+0x1e>
 c0022bc:	f640 2c10 	movw	ip, #2576	; 0xa10
 c0022c0:	4465      	add	r5, ip
 c0022c2:	42ac      	cmp	r4, r5
 c0022c4:	d309      	bcc.n	c0022da <__reserved_release_mutex_to_poll+0x32>
 c0022c6:	f248 5318 	movw	r3, #34072	; 0x8518
 c0022ca:	f2c2 0306 	movt	r3, #8198	; 0x2006
 c0022ce:	681a      	ldr	r2, [r3, #0]
 c0022d0:	3a01      	subs	r2, #1
 c0022d2:	601a      	str	r2, [r3, #0]
 c0022d4:	f7ff fd7c 	bl	c001dd0 <rtos_critical_exit>
 c0022d8:	bd70      	pop	{r4, r5, r6, pc}
 c0022da:	f248 5344 	movw	r3, #34116	; 0x8544
 c0022de:	3c08      	subs	r4, #8
 c0022e0:	f2c2 0306 	movt	r3, #8198	; 0x2006
 c0022e4:	685a      	ldr	r2, [r3, #4]
 c0022e6:	605c      	str	r4, [r3, #4]
 c0022e8:	6023      	str	r3, [r4, #0]
 c0022ea:	f248 5314 	movw	r3, #34068	; 0x8514
 c0022ee:	6062      	str	r2, [r4, #4]
 c0022f0:	f2c2 0306 	movt	r3, #8198	; 0x2006
 c0022f4:	6014      	str	r4, [r2, #0]
 c0022f6:	681a      	ldr	r2, [r3, #0]
 c0022f8:	3a01      	subs	r2, #1
 c0022fa:	601a      	str	r2, [r3, #0]
 c0022fc:	e7ea      	b.n	c0022d4 <__reserved_release_mutex_to_poll+0x2c>
 c0022fe:	bf00      	nop

0c002300 <__reserved_get_sema_from_poll>:
 c002300:	f248 502c 	movw	r0, #34092	; 0x852c
 c002304:	b500      	push	{lr}
 c002306:	f2c2 0006 	movt	r0, #8198	; 0x2006
 c00230a:	b083      	sub	sp, #12
 c00230c:	9001      	str	r0, [sp, #4]
 c00230e:	f248 5024 	movw	r0, #34084	; 0x8524
 c002312:	f248 5328 	movw	r3, #34088	; 0x8528
 c002316:	f248 5230 	movw	r2, #34096	; 0x8530
 c00231a:	f248 514c 	movw	r1, #34124	; 0x854c
 c00231e:	f2c2 0006 	movt	r0, #8198	; 0x2006
 c002322:	9000      	str	r0, [sp, #0]
 c002324:	f2c2 0306 	movt	r3, #8198	; 0x2006
 c002328:	f2c2 0206 	movt	r2, #8198	; 0x2006
 c00232c:	f2c2 0106 	movt	r1, #8198	; 0x2006
 c002330:	2002      	movs	r0, #2
 c002332:	f7ff fea3 	bl	c00207c <__reserved_get_from_poll>
 c002336:	b003      	add	sp, #12
 c002338:	bd00      	pop	{pc}
 c00233a:	bf00      	nop

0c00233c <__reserved_release_sema_to_poll>:
 c00233c:	b570      	push	{r4, r5, r6, lr}
 c00233e:	f245 6500 	movw	r5, #22016	; 0x5600
 c002342:	f2c2 0500 	movt	r5, #8192	; 0x2000
 c002346:	0004      	movs	r4, r0
 c002348:	f7ff fd28 	bl	c001d9c <rtos_critical_enter>
 c00234c:	42ac      	cmp	r4, r5
 c00234e:	d304      	bcc.n	c00235a <__reserved_release_sema_to_poll+0x1e>
 c002350:	f240 5c08 	movw	ip, #1288	; 0x508
 c002354:	4465      	add	r5, ip
 c002356:	42ac      	cmp	r4, r5
 c002358:	d309      	bcc.n	c00236e <__reserved_release_sema_to_poll+0x32>
 c00235a:	f248 5328 	movw	r3, #34088	; 0x8528
 c00235e:	f2c2 0306 	movt	r3, #8198	; 0x2006
 c002362:	681a      	ldr	r2, [r3, #0]
 c002364:	3a01      	subs	r2, #1
 c002366:	601a      	str	r2, [r3, #0]
 c002368:	f7ff fd32 	bl	c001dd0 <rtos_critical_exit>
 c00236c:	bd70      	pop	{r4, r5, r6, pc}
 c00236e:	f248 534c 	movw	r3, #34124	; 0x854c
 c002372:	3c08      	subs	r4, #8
 c002374:	f2c2 0306 	movt	r3, #8198	; 0x2006
 c002378:	685a      	ldr	r2, [r3, #4]
 c00237a:	605c      	str	r4, [r3, #4]
 c00237c:	6023      	str	r3, [r4, #0]
 c00237e:	f248 5324 	movw	r3, #34084	; 0x8524
 c002382:	6062      	str	r2, [r4, #4]
 c002384:	f2c2 0306 	movt	r3, #8198	; 0x2006
 c002388:	6014      	str	r4, [r2, #0]
 c00238a:	681a      	ldr	r2, [r3, #0]
 c00238c:	3a01      	subs	r2, #1
 c00238e:	601a      	str	r2, [r3, #0]
 c002390:	e7ea      	b.n	c002368 <__reserved_release_sema_to_poll+0x2c>
 c002392:	bf00      	nop

0c002394 <__reserved_get_timer_from_poll>:
 c002394:	f248 503c 	movw	r0, #34108	; 0x853c
 c002398:	b500      	push	{lr}
 c00239a:	f2c2 0006 	movt	r0, #8198	; 0x2006
 c00239e:	b083      	sub	sp, #12
 c0023a0:	9001      	str	r0, [sp, #4]
 c0023a2:	f248 5034 	movw	r0, #34100	; 0x8534
 c0023a6:	f248 5338 	movw	r3, #34104	; 0x8538
 c0023aa:	f248 5240 	movw	r2, #34112	; 0x8540
 c0023ae:	f248 5154 	movw	r1, #34132	; 0x8554
 c0023b2:	f2c2 0006 	movt	r0, #8198	; 0x2006
 c0023b6:	9000      	str	r0, [sp, #0]
 c0023b8:	f2c2 0306 	movt	r3, #8198	; 0x2006
 c0023bc:	f2c2 0206 	movt	r2, #8198	; 0x2006
 c0023c0:	f2c2 0106 	movt	r1, #8198	; 0x2006
 c0023c4:	2003      	movs	r0, #3
 c0023c6:	f7ff fe59 	bl	c00207c <__reserved_get_from_poll>
 c0023ca:	b003      	add	sp, #12
 c0023cc:	bd00      	pop	{pc}
 c0023ce:	bf00      	nop

0c0023d0 <__reserved_release_timer_to_poll>:
 c0023d0:	b570      	push	{r4, r5, r6, lr}
 c0023d2:	f645 3508 	movw	r5, #23304	; 0x5b08
 c0023d6:	f2c2 0500 	movt	r5, #8192	; 0x2000
 c0023da:	0004      	movs	r4, r0
 c0023dc:	f7ff fcde 	bl	c001d9c <rtos_critical_enter>
 c0023e0:	42ac      	cmp	r4, r5
 c0023e2:	d304      	bcc.n	c0023ee <__reserved_release_timer_to_poll+0x1e>
 c0023e4:	f240 2cd8 	movw	ip, #728	; 0x2d8
 c0023e8:	4465      	add	r5, ip
 c0023ea:	42ac      	cmp	r4, r5
 c0023ec:	d309      	bcc.n	c002402 <__reserved_release_timer_to_poll+0x32>
 c0023ee:	f248 5338 	movw	r3, #34104	; 0x8538
 c0023f2:	f2c2 0306 	movt	r3, #8198	; 0x2006
 c0023f6:	681a      	ldr	r2, [r3, #0]
 c0023f8:	3a01      	subs	r2, #1
 c0023fa:	601a      	str	r2, [r3, #0]
 c0023fc:	f7ff fce8 	bl	c001dd0 <rtos_critical_exit>
 c002400:	bd70      	pop	{r4, r5, r6, pc}
 c002402:	0020      	movs	r0, r4
 c002404:	f000 f918 	bl	c002638 <rtos_timer_is_timer_active>
 c002408:	2801      	cmp	r0, #1
 c00240a:	d0fa      	beq.n	c002402 <__reserved_release_timer_to_poll+0x32>
 c00240c:	f248 5354 	movw	r3, #34132	; 0x8554
 c002410:	3c08      	subs	r4, #8
 c002412:	f2c2 0306 	movt	r3, #8198	; 0x2006
 c002416:	685a      	ldr	r2, [r3, #4]
 c002418:	605c      	str	r4, [r3, #4]
 c00241a:	6023      	str	r3, [r4, #0]
 c00241c:	f248 5334 	movw	r3, #34100	; 0x8534
 c002420:	6062      	str	r2, [r4, #4]
 c002422:	f2c2 0306 	movt	r3, #8198	; 0x2006
 c002426:	6014      	str	r4, [r2, #0]
 c002428:	681a      	ldr	r2, [r3, #0]
 c00242a:	3a01      	subs	r2, #1
 c00242c:	601a      	str	r2, [r3, #0]
 c00242e:	e7e5      	b.n	c0023fc <__reserved_release_timer_to_poll+0x2c>

0c002430 <rtos_sched_start>:
 c002430:	b510      	push	{r4, lr}
 c002432:	f001 fee9 	bl	c004208 <vTaskStartScheduler>
 c002436:	2000      	movs	r0, #0
 c002438:	bd10      	pop	{r4, pc}
 c00243a:	bf00      	nop

0c00243c <rtos_sched_get_state>:
 c00243c:	b510      	push	{r4, lr}
 c00243e:	f002 f9fd 	bl	c00483c <xTaskGetSchedulerState>
 c002442:	2801      	cmp	r0, #1
 c002444:	d100      	bne.n	c002448 <rtos_sched_get_state+0xc>
 c002446:	bd10      	pop	{r4, pc}
 c002448:	f002 f9f8 	bl	c00483c <xTaskGetSchedulerState>
 c00244c:	2800      	cmp	r0, #0
 c00244e:	d0fa      	beq.n	c002446 <rtos_sched_get_state+0xa>
 c002450:	f002 f9f4 	bl	c00483c <xTaskGetSchedulerState>
 c002454:	2802      	cmp	r0, #2
 c002456:	d0f6      	beq.n	c002446 <rtos_sched_get_state+0xa>
 c002458:	2001      	movs	r0, #1
 c00245a:	4240      	negs	r0, r0
 c00245c:	e7f3      	b.n	c002446 <rtos_sched_get_state+0xa>
 c00245e:	bf00      	nop

0c002460 <rtos_task_create>:
 c002460:	b530      	push	{r4, r5, lr}
 c002462:	0005      	movs	r5, r0
 c002464:	b083      	sub	sp, #12
 c002466:	0010      	movs	r0, r2
 c002468:	ac07      	add	r4, sp, #28
 c00246a:	aa06      	add	r2, sp, #24
 c00246c:	8812      	ldrh	r2, [r2, #0]
 c00246e:	8824      	ldrh	r4, [r4, #0]
 c002470:	0892      	lsrs	r2, r2, #2
 c002472:	9501      	str	r5, [sp, #4]
 c002474:	9400      	str	r4, [sp, #0]
 c002476:	f001 fdd9 	bl	c00402c <xTaskCreate>
 c00247a:	3801      	subs	r0, #1
 c00247c:	1e43      	subs	r3, r0, #1
 c00247e:	4198      	sbcs	r0, r3
 c002480:	4240      	negs	r0, r0
 c002482:	b003      	add	sp, #12
 c002484:	bd30      	pop	{r4, r5, pc}
 c002486:	bf00      	nop

0c002488 <rtos_task_delete>:
 c002488:	b510      	push	{r4, lr}
 c00248a:	f001 fe05 	bl	c004098 <vTaskDelete>
 c00248e:	2000      	movs	r0, #0
 c002490:	bd10      	pop	{r4, pc}
 c002492:	bf00      	nop

0c002494 <rtos_create_secure_context>:
 c002494:	4770      	bx	lr
 c002496:	bf00      	nop

0c002498 <rtos_time_delay_ms>:
 c002498:	b510      	push	{r4, lr}
 c00249a:	0004      	movs	r4, r0
 c00249c:	f7fe fb5e 	bl	c000b5c <pmu_yield_os_check>
 c0024a0:	b118      	cbz	r0, c0024aa <rtos_time_delay_ms+0x12>
 c0024a2:	f002 f9cb 	bl	c00483c <xTaskGetSchedulerState>
 c0024a6:	2802      	cmp	r0, #2
 c0024a8:	d006      	beq.n	c0024b8 <rtos_time_delay_ms+0x20>
 c0024aa:	f240 53b9 	movw	r3, #1465	; 0x5b9
 c0024ae:	0020      	movs	r0, r4
 c0024b0:	f2c0 0300 	movt	r3, #0
 c0024b4:	4798      	blx	r3
 c0024b6:	bd10      	pop	{r4, pc}
 c0024b8:	f7ff fc6a 	bl	c001d90 <rtos_critical_is_in_interrupt>
 c0024bc:	2800      	cmp	r0, #0
 c0024be:	d1f4      	bne.n	c0024aa <rtos_time_delay_ms+0x12>
 c0024c0:	0020      	movs	r0, r4
 c0024c2:	f001 ff99 	bl	c0043f8 <vTaskDelay>
 c0024c6:	e7f6      	b.n	c0024b6 <rtos_time_delay_ms+0x1e>

0c0024c8 <rtos_time_delay_us>:
 c0024c8:	f240 536b 	movw	r3, #1387	; 0x56b
 c0024cc:	b510      	push	{r4, lr}
 c0024ce:	f2c0 0300 	movt	r3, #0
 c0024d2:	4798      	blx	r3
 c0024d4:	bd10      	pop	{r4, pc}
 c0024d6:	bf00      	nop

0c0024d8 <rtos_time_get_current_system_time_ms>:
 c0024d8:	b510      	push	{r4, lr}
 c0024da:	f7ff fc59 	bl	c001d90 <rtos_critical_is_in_interrupt>
 c0024de:	b110      	cbz	r0, c0024e6 <rtos_time_get_current_system_time_ms+0xe>
 c0024e0:	f002 f83a 	bl	c004558 <xTaskGetTickCountFromISR>
 c0024e4:	bd10      	pop	{r4, pc}
 c0024e6:	f002 f831 	bl	c00454c <xTaskGetTickCount>
 c0024ea:	e7fb      	b.n	c0024e4 <rtos_time_get_current_system_time_ms+0xc>

0c0024ec <rtos_timer_create_static>:
 c0024ec:	b5f0      	push	{r4, r5, r6, r7, lr}
 c0024ee:	46c6      	mov	lr, r8
 c0024f0:	b500      	push	{lr}
 c0024f2:	b082      	sub	sp, #8
 c0024f4:	000d      	movs	r5, r1
 c0024f6:	a908      	add	r1, sp, #32
 c0024f8:	001e      	movs	r6, r3
 c0024fa:	780b      	ldrb	r3, [r1, #0]
 c0024fc:	0004      	movs	r4, r0
 c0024fe:	0017      	movs	r7, r2
 c002500:	4698      	mov	r8, r3
 c002502:	f7ff ff47 	bl	c002394 <__reserved_get_timer_from_poll>
 c002506:	b180      	cbz	r0, c00252a <rtos_timer_create_static+0x3e>
 c002508:	9b09      	ldr	r3, [sp, #36]	; 0x24
 c00250a:	9001      	str	r0, [sp, #4]
 c00250c:	9300      	str	r3, [sp, #0]
 c00250e:	4642      	mov	r2, r8
 c002510:	003b      	movs	r3, r7
 c002512:	0031      	movs	r1, r6
 c002514:	0028      	movs	r0, r5
 c002516:	f002 faf3 	bl	c004b00 <xTimerCreateStatic>
 c00251a:	6020      	str	r0, [r4, #0]
 c00251c:	4243      	negs	r3, r0
 c00251e:	4158      	adcs	r0, r3
 c002520:	4240      	negs	r0, r0
 c002522:	b002      	add	sp, #8
 c002524:	bc80      	pop	{r7}
 c002526:	46b8      	mov	r8, r7
 c002528:	bdf0      	pop	{r4, r5, r6, r7, pc}
 c00252a:	b174      	cbz	r4, c00254a <rtos_timer_create_static+0x5e>
 c00252c:	9b09      	ldr	r3, [sp, #36]	; 0x24
 c00252e:	b163      	cbz	r3, c00254a <rtos_timer_create_static+0x5e>
 c002530:	4642      	mov	r2, r8
 c002532:	9300      	str	r3, [sp, #0]
 c002534:	0031      	movs	r1, r6
 c002536:	003b      	movs	r3, r7
 c002538:	0028      	movs	r0, r5
 c00253a:	f002 fab7 	bl	c004aac <xTimerCreate>
 c00253e:	0003      	movs	r3, r0
 c002540:	425a      	negs	r2, r3
 c002542:	4153      	adcs	r3, r2
 c002544:	6020      	str	r0, [r4, #0]
 c002546:	4258      	negs	r0, r3
 c002548:	e7eb      	b.n	c002522 <rtos_timer_create_static+0x36>
 c00254a:	2001      	movs	r0, #1
 c00254c:	4240      	negs	r0, r0
 c00254e:	e7e8      	b.n	c002522 <rtos_timer_create_static+0x36>

0c002550 <rtos_timer_delete_static>:
 c002550:	b530      	push	{r4, r5, lr}
 c002552:	0004      	movs	r4, r0
 c002554:	000d      	movs	r5, r1
 c002556:	b083      	sub	sp, #12
 c002558:	b174      	cbz	r4, c002578 <rtos_timer_delete_static+0x28>
 c00255a:	2300      	movs	r3, #0
 c00255c:	2200      	movs	r2, #0
 c00255e:	2105      	movs	r1, #5
 c002560:	0020      	movs	r0, r4
 c002562:	9500      	str	r5, [sp, #0]
 c002564:	f002 faf2 	bl	c004b4c <xTimerGenericCommand>
 c002568:	2801      	cmp	r0, #1
 c00256a:	d1f5      	bne.n	c002558 <rtos_timer_delete_static+0x8>
 c00256c:	0020      	movs	r0, r4
 c00256e:	f7ff ff2f 	bl	c0023d0 <__reserved_release_timer_to_poll>
 c002572:	2000      	movs	r0, #0
 c002574:	b003      	add	sp, #12
 c002576:	bd30      	pop	{r4, r5, pc}
 c002578:	e7fe      	b.n	c002578 <rtos_timer_delete_static+0x28>
 c00257a:	bf00      	nop

0c00257c <rtos_timer_stop>:
 c00257c:	b530      	push	{r4, r5, lr}
 c00257e:	0004      	movs	r4, r0
 c002580:	000d      	movs	r5, r1
 c002582:	b085      	sub	sp, #20
 c002584:	b328      	cbz	r0, c0025d2 <rtos_timer_stop+0x56>
 c002586:	f7ff fc03 	bl	c001d90 <rtos_critical_is_in_interrupt>
 c00258a:	b1a8      	cbz	r0, c0025b8 <rtos_timer_stop+0x3c>
 c00258c:	2300      	movs	r3, #0
 c00258e:	2200      	movs	r2, #0
 c002590:	9303      	str	r3, [sp, #12]
 c002592:	9300      	str	r3, [sp, #0]
 c002594:	2108      	movs	r1, #8
 c002596:	0020      	movs	r0, r4
 c002598:	ab03      	add	r3, sp, #12
 c00259a:	f002 fad7 	bl	c004b4c <xTimerGenericCommand>
 c00259e:	2801      	cmp	r0, #1
 c0025a0:	d117      	bne.n	c0025d2 <rtos_timer_stop+0x56>
 c0025a2:	9803      	ldr	r0, [sp, #12]
 c0025a4:	b198      	cbz	r0, c0025ce <rtos_timer_stop+0x52>
 c0025a6:	f64e 5304 	movw	r3, #60676	; 0xed04
 c0025aa:	2280      	movs	r2, #128	; 0x80
 c0025ac:	f2ce 0300 	movt	r3, #57344	; 0xe000
 c0025b0:	0552      	lsls	r2, r2, #21
 c0025b2:	2000      	movs	r0, #0
 c0025b4:	601a      	str	r2, [r3, #0]
 c0025b6:	e00a      	b.n	c0025ce <rtos_timer_stop+0x52>
 c0025b8:	2300      	movs	r3, #0
 c0025ba:	2200      	movs	r2, #0
 c0025bc:	2103      	movs	r1, #3
 c0025be:	0020      	movs	r0, r4
 c0025c0:	9500      	str	r5, [sp, #0]
 c0025c2:	f002 fac3 	bl	c004b4c <xTimerGenericCommand>
 c0025c6:	3801      	subs	r0, #1
 c0025c8:	1e43      	subs	r3, r0, #1
 c0025ca:	4198      	sbcs	r0, r3
 c0025cc:	4240      	negs	r0, r0
 c0025ce:	b005      	add	sp, #20
 c0025d0:	bd30      	pop	{r4, r5, pc}
 c0025d2:	2001      	movs	r0, #1
 c0025d4:	4240      	negs	r0, r0
 c0025d6:	e7fa      	b.n	c0025ce <rtos_timer_stop+0x52>

0c0025d8 <rtos_timer_change_period>:
 c0025d8:	b570      	push	{r4, r5, r6, lr}
 c0025da:	0004      	movs	r4, r0
 c0025dc:	000d      	movs	r5, r1
 c0025de:	0016      	movs	r6, r2
 c0025e0:	b084      	sub	sp, #16
 c0025e2:	b328      	cbz	r0, c002630 <rtos_timer_change_period+0x58>
 c0025e4:	f7ff fbd4 	bl	c001d90 <rtos_critical_is_in_interrupt>
 c0025e8:	b1a8      	cbz	r0, c002616 <rtos_timer_change_period+0x3e>
 c0025ea:	2300      	movs	r3, #0
 c0025ec:	002a      	movs	r2, r5
 c0025ee:	9303      	str	r3, [sp, #12]
 c0025f0:	9300      	str	r3, [sp, #0]
 c0025f2:	2109      	movs	r1, #9
 c0025f4:	0020      	movs	r0, r4
 c0025f6:	ab03      	add	r3, sp, #12
 c0025f8:	f002 faa8 	bl	c004b4c <xTimerGenericCommand>
 c0025fc:	2801      	cmp	r0, #1
 c0025fe:	d117      	bne.n	c002630 <rtos_timer_change_period+0x58>
 c002600:	9803      	ldr	r0, [sp, #12]
 c002602:	b198      	cbz	r0, c00262c <rtos_timer_change_period+0x54>
 c002604:	f64e 5304 	movw	r3, #60676	; 0xed04
 c002608:	2280      	movs	r2, #128	; 0x80
 c00260a:	f2ce 0300 	movt	r3, #57344	; 0xe000
 c00260e:	0552      	lsls	r2, r2, #21
 c002610:	2000      	movs	r0, #0
 c002612:	601a      	str	r2, [r3, #0]
 c002614:	e00a      	b.n	c00262c <rtos_timer_change_period+0x54>
 c002616:	2300      	movs	r3, #0
 c002618:	002a      	movs	r2, r5
 c00261a:	2104      	movs	r1, #4
 c00261c:	0020      	movs	r0, r4
 c00261e:	9600      	str	r6, [sp, #0]
 c002620:	f002 fa94 	bl	c004b4c <xTimerGenericCommand>
 c002624:	3801      	subs	r0, #1
 c002626:	1e43      	subs	r3, r0, #1
 c002628:	4198      	sbcs	r0, r3
 c00262a:	4240      	negs	r0, r0
 c00262c:	b004      	add	sp, #16
 c00262e:	bd70      	pop	{r4, r5, r6, pc}
 c002630:	2001      	movs	r0, #1
 c002632:	4240      	negs	r0, r0
 c002634:	e7fa      	b.n	c00262c <rtos_timer_change_period+0x54>
 c002636:	bf00      	nop

0c002638 <rtos_timer_is_timer_active>:
 c002638:	b510      	push	{r4, lr}
 c00263a:	f002 fc67 	bl	c004f0c <xTimerIsTimerActive>
 c00263e:	bd10      	pop	{r4, pc}

0c002640 <prvTaskExitError>:
 c002640:	2300      	movs	r3, #0
 c002642:	b082      	sub	sp, #8
 c002644:	9301      	str	r3, [sp, #4]
 c002646:	b672      	cpsid	i
 c002648:	9b01      	ldr	r3, [sp, #4]
 c00264a:	2b00      	cmp	r3, #0
 c00264c:	d0fc      	beq.n	c002648 <prvTaskExitError+0x8>
 c00264e:	b002      	add	sp, #8
 c002650:	4770      	bx	lr
 c002652:	bf00      	nop
	...

0c002660 <vPortStartFirstTask>:
 c002660:	4a0b      	ldr	r2, [pc, #44]	; (c002690 <pxCurrentTCBConst2>)
 c002662:	6813      	ldr	r3, [r2, #0]
 c002664:	6818      	ldr	r0, [r3, #0]
 c002666:	3020      	adds	r0, #32
 c002668:	f380 8809 	msr	PSP, r0
 c00266c:	2002      	movs	r0, #2
 c00266e:	f380 8814 	msr	CONTROL, r0
 c002672:	f3bf 8f6f 	isb	sy
 c002676:	bc3f      	pop	{r0, r1, r2, r3, r4, r5}
 c002678:	46ae      	mov	lr, r5
 c00267a:	bc08      	pop	{r3}
 c00267c:	bc04      	pop	{r2}
 c00267e:	b662      	cpsie	i
 c002680:	4718      	bx	r3
 c002682:	bf00      	nop
 c002684:	f3af 8000 	nop.w
 c002688:	f3af 8000 	nop.w
 c00268c:	f3af 8000 	nop.w

0c002690 <pxCurrentTCBConst2>:
 c002690:	2006889c 	.word	0x2006889c
	...

0c0026a0 <PendSV_Handler>:
 c0026a0:	f3ef 8009 	mrs	r0, PSP
 c0026a4:	4b0e      	ldr	r3, [pc, #56]	; (c0026e0 <pxCurrentTCBConst>)
 c0026a6:	681a      	ldr	r2, [r3, #0]
 c0026a8:	3820      	subs	r0, #32
 c0026aa:	6010      	str	r0, [r2, #0]
 c0026ac:	c0f0      	stmia	r0!, {r4, r5, r6, r7}
 c0026ae:	4644      	mov	r4, r8
 c0026b0:	464d      	mov	r5, r9
 c0026b2:	4656      	mov	r6, sl
 c0026b4:	465f      	mov	r7, fp
 c0026b6:	c0f0      	stmia	r0!, {r4, r5, r6, r7}
 c0026b8:	b508      	push	{r3, lr}
 c0026ba:	b672      	cpsid	i
 c0026bc:	f001 ff70 	bl	c0045a0 <vTaskSwitchContext>
 c0026c0:	b662      	cpsie	i
 c0026c2:	bc0c      	pop	{r2, r3}
 c0026c4:	6811      	ldr	r1, [r2, #0]
 c0026c6:	6808      	ldr	r0, [r1, #0]
 c0026c8:	3010      	adds	r0, #16
 c0026ca:	c8f0      	ldmia	r0!, {r4, r5, r6, r7}
 c0026cc:	46a0      	mov	r8, r4
 c0026ce:	46a9      	mov	r9, r5
 c0026d0:	46b2      	mov	sl, r6
 c0026d2:	46bb      	mov	fp, r7
 c0026d4:	f380 8809 	msr	PSP, r0
 c0026d8:	3820      	subs	r0, #32
 c0026da:	c8f0      	ldmia	r0!, {r4, r5, r6, r7}
 c0026dc:	4718      	bx	r3
 c0026de:	bf00      	nop

0c0026e0 <pxCurrentTCBConst>:
 c0026e0:	2006889c 	.word	0x2006889c

0c0026e4 <SVC_Handler>:
 c0026e4:	4770      	bx	lr
 c0026e6:	bf00      	nop

0c0026e8 <pxPortInitialiseStack>:
 c0026e8:	b510      	push	{r4, lr}
 c0026ea:	2480      	movs	r4, #128	; 0x80
 c0026ec:	1f03      	subs	r3, r0, #4
 c0026ee:	0464      	lsls	r4, r4, #17
 c0026f0:	601c      	str	r4, [r3, #0]
 c0026f2:	3b04      	subs	r3, #4
 c0026f4:	6019      	str	r1, [r3, #0]
 c0026f6:	0001      	movs	r1, r0
 c0026f8:	f242 6341 	movw	r3, #9793	; 0x2641
 c0026fc:	390c      	subs	r1, #12
 c0026fe:	f6c0 4300 	movt	r3, #3072	; 0xc00
 c002702:	600b      	str	r3, [r1, #0]
 c002704:	0003      	movs	r3, r0
 c002706:	3b20      	subs	r3, #32
 c002708:	3840      	subs	r0, #64	; 0x40
 c00270a:	601a      	str	r2, [r3, #0]
 c00270c:	bd10      	pop	{r4, pc}
 c00270e:	bf00      	nop

0c002710 <xPortStartScheduler>:
 c002710:	f64e 5320 	movw	r3, #60704	; 0xed20
 c002714:	22ff      	movs	r2, #255	; 0xff
 c002716:	b510      	push	{r4, lr}
 c002718:	f2ce 0300 	movt	r3, #57344	; 0xe000
 c00271c:	6819      	ldr	r1, [r3, #0]
 c00271e:	0412      	lsls	r2, r2, #16
 c002720:	430a      	orrs	r2, r1
 c002722:	601a      	str	r2, [r3, #0]
 c002724:	22ff      	movs	r2, #255	; 0xff
 c002726:	6819      	ldr	r1, [r3, #0]
 c002728:	0612      	lsls	r2, r2, #24
 c00272a:	430a      	orrs	r2, r1
 c00272c:	601a      	str	r2, [r3, #0]
 c00272e:	f64e 5300 	movw	r3, #60672	; 0xed00
 c002732:	f242 62e5 	movw	r2, #9957	; 0x26e5
 c002736:	f2ce 0300 	movt	r3, #57344	; 0xe000
 c00273a:	6899      	ldr	r1, [r3, #8]
 c00273c:	f6c0 4200 	movt	r2, #3072	; 0xc00
 c002740:	62ca      	str	r2, [r1, #44]	; 0x2c
 c002742:	f242 62a1 	movw	r2, #9889	; 0x26a1
 c002746:	6899      	ldr	r1, [r3, #8]
 c002748:	f6c0 4200 	movt	r2, #3072	; 0xc00
 c00274c:	638a      	str	r2, [r1, #56]	; 0x38
 c00274e:	689a      	ldr	r2, [r3, #8]
 c002750:	f642 0315 	movw	r3, #10261	; 0x2815
 c002754:	f6c0 4300 	movt	r3, #3072	; 0xc00
 c002758:	63d3      	str	r3, [r2, #60]	; 0x3c
 c00275a:	f24e 0210 	movw	r2, #57360	; 0xe010
 c00275e:	f24e 0318 	movw	r3, #57368	; 0xe018
 c002762:	2400      	movs	r4, #0
 c002764:	f2ce 0200 	movt	r2, #57344	; 0xe000
 c002768:	f2ce 0300 	movt	r3, #57344	; 0xe000
 c00276c:	6014      	str	r4, [r2, #0]
 c00276e:	601c      	str	r4, [r3, #0]
 c002770:	f248 1300 	movw	r3, #33024	; 0x8100
 c002774:	f240 31e8 	movw	r1, #1000	; 0x3e8
 c002778:	f2c2 0306 	movt	r3, #8198	; 0x2006
 c00277c:	681b      	ldr	r3, [r3, #0]
 c00277e:	b082      	sub	sp, #8
 c002780:	fbb3 f3f1 	udiv	r3, r3, r1
 c002784:	f24e 0114 	movw	r1, #57364	; 0xe014
 c002788:	3b01      	subs	r3, #1
 c00278a:	f2ce 0100 	movt	r1, #57344	; 0xe000
 c00278e:	600b      	str	r3, [r1, #0]
 c002790:	2307      	movs	r3, #7
 c002792:	6013      	str	r3, [r2, #0]
 c002794:	f248 535c 	movw	r3, #34140	; 0x855c
 c002798:	f2c2 0306 	movt	r3, #8198	; 0x2006
 c00279c:	601c      	str	r4, [r3, #0]
 c00279e:	f7ff ff5f 	bl	c002660 <vPortStartFirstTask>
 c0027a2:	f001 fefd 	bl	c0045a0 <vTaskSwitchContext>
 c0027a6:	9401      	str	r4, [sp, #4]
 c0027a8:	b672      	cpsid	i
 c0027aa:	9b01      	ldr	r3, [sp, #4]
 c0027ac:	2b00      	cmp	r3, #0
 c0027ae:	d0fc      	beq.n	c0027aa <xPortStartScheduler+0x9a>
 c0027b0:	2000      	movs	r0, #0
 c0027b2:	b002      	add	sp, #8
 c0027b4:	bd10      	pop	{r4, pc}
 c0027b6:	bf00      	nop

0c0027b8 <vPortYield>:
 c0027b8:	f64e 5304 	movw	r3, #60676	; 0xed04
 c0027bc:	2280      	movs	r2, #128	; 0x80
 c0027be:	f2ce 0300 	movt	r3, #57344	; 0xe000
 c0027c2:	0552      	lsls	r2, r2, #21
 c0027c4:	601a      	str	r2, [r3, #0]
 c0027c6:	f3bf 8f4f 	dsb	sy
 c0027ca:	f3bf 8f6f 	isb	sy
 c0027ce:	4770      	bx	lr

0c0027d0 <vPortEnterCritical>:
 c0027d0:	b672      	cpsid	i
 c0027d2:	f248 535c 	movw	r3, #34140	; 0x855c
 c0027d6:	f2c2 0306 	movt	r3, #8198	; 0x2006
 c0027da:	681a      	ldr	r2, [r3, #0]
 c0027dc:	3201      	adds	r2, #1
 c0027de:	601a      	str	r2, [r3, #0]
 c0027e0:	f3bf 8f4f 	dsb	sy
 c0027e4:	f3bf 8f6f 	isb	sy
 c0027e8:	4770      	bx	lr
 c0027ea:	bf00      	nop

0c0027ec <vPortExitCritical>:
 c0027ec:	f248 525c 	movw	r2, #34140	; 0x855c
 c0027f0:	f2c2 0206 	movt	r2, #8198	; 0x2006
 c0027f4:	6813      	ldr	r3, [r2, #0]
 c0027f6:	3b01      	subs	r3, #1
 c0027f8:	6013      	str	r3, [r2, #0]
 c0027fa:	b903      	cbnz	r3, c0027fe <vPortExitCritical+0x12>
 c0027fc:	b662      	cpsie	i
 c0027fe:	4770      	bx	lr

0c002800 <ulSetInterruptMaskFromISR>:
 c002800:	f3ef 8010 	mrs	r0, PRIMASK
 c002804:	b672      	cpsid	i
 c002806:	4770      	bx	lr
 c002808:	2000      	movs	r0, #0
 c00280a:	bf00      	nop

0c00280c <vClearInterruptMaskFromISR>:
 c00280c:	f380 8810 	msr	PRIMASK, r0
 c002810:	4770      	bx	lr
 c002812:	bf00      	nop

0c002814 <SysTick_Handler>:
 c002814:	b510      	push	{r4, lr}
 c002816:	f7ff fff3 	bl	c002800 <ulSetInterruptMaskFromISR>
 c00281a:	0004      	movs	r4, r0
 c00281c:	f001 feac 	bl	c004578 <xTaskIncrementTick>
 c002820:	b130      	cbz	r0, c002830 <SysTick_Handler+0x1c>
 c002822:	f64e 5304 	movw	r3, #60676	; 0xed04
 c002826:	2280      	movs	r2, #128	; 0x80
 c002828:	f2ce 0300 	movt	r3, #57344	; 0xe000
 c00282c:	0552      	lsls	r2, r2, #21
 c00282e:	601a      	str	r2, [r3, #0]
 c002830:	0020      	movs	r0, r4
 c002832:	f7ff ffeb 	bl	c00280c <vClearInterruptMaskFromISR>
 c002836:	bd10      	pop	{r4, pc}

0c002838 <vApplicationIdleHook>:
 c002838:	b510      	push	{r4, lr}
 c00283a:	2000      	movs	r0, #0
 c00283c:	f7ff f8b2 	bl	c0019a4 <app_IWDG_refresh>
 c002840:	bd10      	pop	{r4, pc}
 c002842:	bf00      	nop

0c002844 <vApplicationStackOverflowHook>:
 c002844:	000a      	movs	r2, r1
 c002846:	f641 40f4 	movw	r0, #7412	; 0x1cf4
 c00284a:	f641 5164 	movw	r1, #7524	; 0x1d64
 c00284e:	b510      	push	{r4, lr}
 c002850:	f6c0 4102 	movt	r1, #3074	; 0xc02
 c002854:	f6c0 4002 	movt	r0, #3074	; 0xc02
 c002858:	f003 fc38 	bl	c0060cc <DiagPrintf_minimal>
 c00285c:	e7fe      	b.n	c00285c <vApplicationStackOverflowHook+0x18>
 c00285e:	bf00      	nop

0c002860 <vApplicationMallocFailedHook>:
 c002860:	b510      	push	{r4, lr}
 c002862:	f001 ffeb 	bl	c00483c <xTaskGetSchedulerState>
 c002866:	2801      	cmp	r0, #1
 c002868:	d113      	bne.n	c002892 <vApplicationMallocFailedHook+0x32>
 c00286a:	f641 541c 	movw	r4, #7452	; 0x1d1c
 c00286e:	f6c0 4402 	movt	r4, #3074	; 0xc02
 c002872:	f7fe feab 	bl	c0015cc <xPortGetFreeHeapSize>
 c002876:	f641 5124 	movw	r1, #7460	; 0x1d24
 c00287a:	0003      	movs	r3, r0
 c00287c:	f641 5028 	movw	r0, #7464	; 0x1d28
 c002880:	0022      	movs	r2, r4
 c002882:	f6c0 4102 	movt	r1, #3074	; 0xc02
 c002886:	f6c0 4002 	movt	r0, #3074	; 0xc02
 c00288a:	f003 fc1f 	bl	c0060cc <DiagPrintf_minimal>
 c00288e:	b672      	cpsid	i
 c002890:	e7fe      	b.n	c002890 <vApplicationMallocFailedHook+0x30>
 c002892:	2000      	movs	r0, #0
 c002894:	f001 fe66 	bl	c004564 <pcTaskGetName>
 c002898:	0004      	movs	r4, r0
 c00289a:	e7ea      	b.n	c002872 <vApplicationMallocFailedHook+0x12>

0c00289c <vApplicationGetIdleTaskMemory>:
 c00289c:	f248 5360 	movw	r3, #34144	; 0x8560
 c0028a0:	f2c2 0306 	movt	r3, #8198	; 0x2006
 c0028a4:	6003      	str	r3, [r0, #0]
 c0028a6:	f242 0300 	movw	r3, #8192	; 0x2000
 c0028aa:	f2c2 0300 	movt	r3, #8192	; 0x2000
 c0028ae:	600b      	str	r3, [r1, #0]
 c0028b0:	f240 2300 	movw	r3, #512	; 0x200
 c0028b4:	6013      	str	r3, [r2, #0]
 c0028b6:	4770      	bx	lr

0c0028b8 <vApplicationGetTimerTaskMemory>:
 c0028b8:	f248 63bc 	movw	r3, #34492	; 0x86bc
 c0028bc:	f2c2 0306 	movt	r3, #8198	; 0x2006
 c0028c0:	6003      	str	r3, [r0, #0]
 c0028c2:	f642 0300 	movw	r3, #10240	; 0x2800
 c0028c6:	f2c2 0300 	movt	r3, #8192	; 0x2000
 c0028ca:	600b      	str	r3, [r1, #0]
 c0028cc:	f240 2300 	movw	r3, #512	; 0x200
 c0028d0:	6013      	str	r3, [r2, #0]
 c0028d2:	4770      	bx	lr

0c0028d4 <vPortSuppressTicksAndSleep>:
 c0028d4:	b570      	push	{r4, r5, r6, lr}
 c0028d6:	2001      	movs	r0, #1
 c0028d8:	f002 fca0 	bl	c00521c <SOCPS_HWSleepFilter_KM0>
 c0028dc:	b672      	cpsid	i
 c0028de:	f248 545c 	movw	r4, #34140	; 0x855c
 c0028e2:	f2c2 0406 	movt	r4, #8198	; 0x2006
 c0028e6:	6823      	ldr	r3, [r4, #0]
 c0028e8:	3301      	adds	r3, #1
 c0028ea:	6023      	str	r3, [r4, #0]
 c0028ec:	f3bf 8f4f 	dsb	sy
 c0028f0:	f3bf 8f6f 	isb	sy
 c0028f4:	2000      	movs	r0, #0
 c0028f6:	f248 1504 	movw	r5, #33028	; 0x8104
 c0028fa:	f7fd fbe1 	bl	c0000c0 <Systick_Cmd>
 c0028fe:	2300      	movs	r3, #0
 c002900:	f2c2 0506 	movt	r5, #8198	; 0x2006
 c002904:	602b      	str	r3, [r5, #0]
 c002906:	f001 ff1f 	bl	c004748 <eTaskConfirmSleepModeStatus>
 c00290a:	b968      	cbnz	r0, c002928 <vPortSuppressTicksAndSleep+0x54>
 c00290c:	2301      	movs	r3, #1
 c00290e:	2001      	movs	r0, #1
 c002910:	602b      	str	r3, [r5, #0]
 c002912:	f7fd fbd5 	bl	c0000c0 <Systick_Cmd>
 c002916:	6823      	ldr	r3, [r4, #0]
 c002918:	3b01      	subs	r3, #1
 c00291a:	6023      	str	r3, [r4, #0]
 c00291c:	b903      	cbnz	r3, c002920 <vPortSuppressTicksAndSleep+0x4c>
 c00291e:	b662      	cpsie	i
 c002920:	2000      	movs	r0, #0
 c002922:	f002 fc7b 	bl	c00521c <SOCPS_HWSleepFilter_KM0>
 c002926:	bd70      	pop	{r4, r5, r6, pc}
 c002928:	f7fe f91e 	bl	c000b68 <pmu_ready_to_sleep>
 c00292c:	2800      	cmp	r0, #0
 c00292e:	d1ed      	bne.n	c00290c <vPortSuppressTicksAndSleep+0x38>
 c002930:	f002 fc74 	bl	c00521c <SOCPS_HWSleepFilter_KM0>
 c002934:	2001      	movs	r0, #1
 c002936:	f7fd fbc3 	bl	c0000c0 <Systick_Cmd>
 c00293a:	f3bf 8f4f 	dsb	sy
 c00293e:	bf30      	wfi
 c002940:	46c0      	nop			; (mov r8, r8)
 c002942:	f3bf 8f6f 	isb	sy
 c002946:	e7e1      	b.n	c00290c <vPortSuppressTicksAndSleep+0x38>

0c002948 <prvCopyDataToQueue>:
 c002948:	b570      	push	{r4, r5, r6, lr}
 c00294a:	0016      	movs	r6, r2
 c00294c:	6c02      	ldr	r2, [r0, #64]	; 0x40
 c00294e:	0004      	movs	r4, r0
 c002950:	6b85      	ldr	r5, [r0, #56]	; 0x38
 c002952:	b92a      	cbnz	r2, c002960 <prvCopyDataToQueue+0x18>
 c002954:	6806      	ldr	r6, [r0, #0]
 c002956:	3501      	adds	r5, #1
 c002958:	2000      	movs	r0, #0
 c00295a:	b336      	cbz	r6, c0029aa <prvCopyDataToQueue+0x62>
 c00295c:	63a5      	str	r5, [r4, #56]	; 0x38
 c00295e:	bd70      	pop	{r4, r5, r6, pc}
 c002960:	b97e      	cbnz	r6, c002982 <prvCopyDataToQueue+0x3a>
 c002962:	6840      	ldr	r0, [r0, #4]
 c002964:	f01d ff0c 	bl	c020780 <____wrap_memcpy_veneer>
 c002968:	6c22      	ldr	r2, [r4, #64]	; 0x40
 c00296a:	6863      	ldr	r3, [r4, #4]
 c00296c:	4694      	mov	ip, r2
 c00296e:	68a2      	ldr	r2, [r4, #8]
 c002970:	4463      	add	r3, ip
 c002972:	2000      	movs	r0, #0
 c002974:	6063      	str	r3, [r4, #4]
 c002976:	3501      	adds	r5, #1
 c002978:	4293      	cmp	r3, r2
 c00297a:	d3ef      	bcc.n	c00295c <prvCopyDataToQueue+0x14>
 c00297c:	6823      	ldr	r3, [r4, #0]
 c00297e:	6063      	str	r3, [r4, #4]
 c002980:	e7ec      	b.n	c00295c <prvCopyDataToQueue+0x14>
 c002982:	68c0      	ldr	r0, [r0, #12]
 c002984:	f01d fefc 	bl	c020780 <____wrap_memcpy_veneer>
 c002988:	68e1      	ldr	r1, [r4, #12]
 c00298a:	6c23      	ldr	r3, [r4, #64]	; 0x40
 c00298c:	425a      	negs	r2, r3
 c00298e:	1acb      	subs	r3, r1, r3
 c002990:	6821      	ldr	r1, [r4, #0]
 c002992:	60e3      	str	r3, [r4, #12]
 c002994:	428b      	cmp	r3, r1
 c002996:	d203      	bcs.n	c0029a0 <prvCopyDataToQueue+0x58>
 c002998:	68a3      	ldr	r3, [r4, #8]
 c00299a:	469c      	mov	ip, r3
 c00299c:	4462      	add	r2, ip
 c00299e:	60e2      	str	r2, [r4, #12]
 c0029a0:	2e02      	cmp	r6, #2
 c0029a2:	d007      	beq.n	c0029b4 <prvCopyDataToQueue+0x6c>
 c0029a4:	2000      	movs	r0, #0
 c0029a6:	3501      	adds	r5, #1
 c0029a8:	e7d8      	b.n	c00295c <prvCopyDataToQueue+0x14>
 c0029aa:	68a0      	ldr	r0, [r4, #8]
 c0029ac:	f001 ffa2 	bl	c0048f4 <xTaskPriorityDisinherit>
 c0029b0:	60a6      	str	r6, [r4, #8]
 c0029b2:	e7d3      	b.n	c00295c <prvCopyDataToQueue+0x14>
 c0029b4:	2d00      	cmp	r5, #0
 c0029b6:	d0f5      	beq.n	c0029a4 <prvCopyDataToQueue+0x5c>
 c0029b8:	2000      	movs	r0, #0
 c0029ba:	e7cf      	b.n	c00295c <prvCopyDataToQueue+0x14>

0c0029bc <prvNotifyQueueSetContainer>:
 c0029bc:	b5f0      	push	{r4, r5, r6, r7, lr}
 c0029be:	46c6      	mov	lr, r8
 c0029c0:	b500      	push	{lr}
 c0029c2:	6c84      	ldr	r4, [r0, #72]	; 0x48
 c0029c4:	b082      	sub	sp, #8
 c0029c6:	6ba3      	ldr	r3, [r4, #56]	; 0x38
 c0029c8:	6be2      	ldr	r2, [r4, #60]	; 0x3c
 c0029ca:	2600      	movs	r6, #0
 c0029cc:	9001      	str	r0, [sp, #4]
 c0029ce:	4293      	cmp	r3, r2
 c0029d0:	d304      	bcc.n	c0029dc <prvNotifyQueueSetContainer+0x20>
 c0029d2:	0030      	movs	r0, r6
 c0029d4:	b002      	add	sp, #8
 c0029d6:	bc80      	pop	{r7}
 c0029d8:	46b8      	mov	r8, r7
 c0029da:	bdf0      	pop	{r4, r5, r6, r7, pc}
 c0029dc:	2345      	movs	r3, #69	; 0x45
 c0029de:	6c22      	ldr	r2, [r4, #64]	; 0x40
 c0029e0:	5ce5      	ldrb	r5, [r4, r3]
 c0029e2:	6ba7      	ldr	r7, [r4, #56]	; 0x38
 c0029e4:	b26d      	sxtb	r5, r5
 c0029e6:	b1b2      	cbz	r2, c002a16 <prvNotifyQueueSetContainer+0x5a>
 c0029e8:	6860      	ldr	r0, [r4, #4]
 c0029ea:	a901      	add	r1, sp, #4
 c0029ec:	f01d fec8 	bl	c020780 <____wrap_memcpy_veneer>
 c0029f0:	6c22      	ldr	r2, [r4, #64]	; 0x40
 c0029f2:	6863      	ldr	r3, [r4, #4]
 c0029f4:	4694      	mov	ip, r2
 c0029f6:	68a2      	ldr	r2, [r4, #8]
 c0029f8:	4463      	add	r3, ip
 c0029fa:	6063      	str	r3, [r4, #4]
 c0029fc:	4293      	cmp	r3, r2
 c0029fe:	d30d      	bcc.n	c002a1c <prvNotifyQueueSetContainer+0x60>
 c002a00:	6823      	ldr	r3, [r4, #0]
 c002a02:	6063      	str	r3, [r4, #4]
 c002a04:	3701      	adds	r7, #1
 c002a06:	63a7      	str	r7, [r4, #56]	; 0x38
 c002a08:	1c6b      	adds	r3, r5, #1
 c002a0a:	d00c      	beq.n	c002a26 <prvNotifyQueueSetContainer+0x6a>
 c002a0c:	2345      	movs	r3, #69	; 0x45
 c002a0e:	3501      	adds	r5, #1
 c002a10:	b26d      	sxtb	r5, r5
 c002a12:	54e5      	strb	r5, [r4, r3]
 c002a14:	e7dd      	b.n	c0029d2 <prvNotifyQueueSetContainer+0x16>
 c002a16:	6823      	ldr	r3, [r4, #0]
 c002a18:	4698      	mov	r8, r3
 c002a1a:	b17b      	cbz	r3, c002a3c <prvNotifyQueueSetContainer+0x80>
 c002a1c:	3701      	adds	r7, #1
 c002a1e:	2600      	movs	r6, #0
 c002a20:	63a7      	str	r7, [r4, #56]	; 0x38
 c002a22:	1c6b      	adds	r3, r5, #1
 c002a24:	d1f2      	bne.n	c002a0c <prvNotifyQueueSetContainer+0x50>
 c002a26:	6a63      	ldr	r3, [r4, #36]	; 0x24
 c002a28:	2b00      	cmp	r3, #0
 c002a2a:	d0d2      	beq.n	c0029d2 <prvNotifyQueueSetContainer+0x16>
 c002a2c:	0020      	movs	r0, r4
 c002a2e:	3024      	adds	r0, #36	; 0x24
 c002a30:	f001 fdec 	bl	c00460c <xTaskRemoveFromEventList>
 c002a34:	2800      	cmp	r0, #0
 c002a36:	d0cc      	beq.n	c0029d2 <prvNotifyQueueSetContainer+0x16>
 c002a38:	2601      	movs	r6, #1
 c002a3a:	e7ca      	b.n	c0029d2 <prvNotifyQueueSetContainer+0x16>
 c002a3c:	68a0      	ldr	r0, [r4, #8]
 c002a3e:	f001 ff59 	bl	c0048f4 <xTaskPriorityDisinherit>
 c002a42:	4643      	mov	r3, r8
 c002a44:	0006      	movs	r6, r0
 c002a46:	60a3      	str	r3, [r4, #8]
 c002a48:	e7dc      	b.n	c002a04 <prvNotifyQueueSetContainer+0x48>
 c002a4a:	bf00      	nop

0c002a4c <prvUnlockQueue>:
 c002a4c:	b570      	push	{r4, r5, r6, lr}
 c002a4e:	0005      	movs	r5, r0
 c002a50:	f7ff febe 	bl	c0027d0 <vPortEnterCritical>
 c002a54:	2345      	movs	r3, #69	; 0x45
 c002a56:	5cec      	ldrb	r4, [r5, r3]
 c002a58:	b264      	sxtb	r4, r4
 c002a5a:	2c00      	cmp	r4, #0
 c002a5c:	dd19      	ble.n	c002a92 <prvUnlockQueue+0x46>
 c002a5e:	002e      	movs	r6, r5
 c002a60:	3624      	adds	r6, #36	; 0x24
 c002a62:	e006      	b.n	c002a72 <prvUnlockQueue+0x26>
 c002a64:	0028      	movs	r0, r5
 c002a66:	f7ff ffa9 	bl	c0029bc <prvNotifyQueueSetContainer>
 c002a6a:	b960      	cbnz	r0, c002a86 <prvUnlockQueue+0x3a>
 c002a6c:	3c01      	subs	r4, #1
 c002a6e:	b264      	sxtb	r4, r4
 c002a70:	b17c      	cbz	r4, c002a92 <prvUnlockQueue+0x46>
 c002a72:	6cab      	ldr	r3, [r5, #72]	; 0x48
 c002a74:	2b00      	cmp	r3, #0
 c002a76:	d1f5      	bne.n	c002a64 <prvUnlockQueue+0x18>
 c002a78:	6a6b      	ldr	r3, [r5, #36]	; 0x24
 c002a7a:	b153      	cbz	r3, c002a92 <prvUnlockQueue+0x46>
 c002a7c:	0030      	movs	r0, r6
 c002a7e:	f001 fdc5 	bl	c00460c <xTaskRemoveFromEventList>
 c002a82:	2800      	cmp	r0, #0
 c002a84:	d0f2      	beq.n	c002a6c <prvUnlockQueue+0x20>
 c002a86:	3c01      	subs	r4, #1
 c002a88:	b264      	sxtb	r4, r4
 c002a8a:	f001 fe55 	bl	c004738 <vTaskMissedYield>
 c002a8e:	2c00      	cmp	r4, #0
 c002a90:	d1ef      	bne.n	c002a72 <prvUnlockQueue+0x26>
 c002a92:	2345      	movs	r3, #69	; 0x45
 c002a94:	22ff      	movs	r2, #255	; 0xff
 c002a96:	54ea      	strb	r2, [r5, r3]
 c002a98:	f7ff fea8 	bl	c0027ec <vPortExitCritical>
 c002a9c:	f7ff fe98 	bl	c0027d0 <vPortEnterCritical>
 c002aa0:	2344      	movs	r3, #68	; 0x44
 c002aa2:	5cec      	ldrb	r4, [r5, r3]
 c002aa4:	b264      	sxtb	r4, r4
 c002aa6:	2c00      	cmp	r4, #0
 c002aa8:	dd12      	ble.n	c002ad0 <prvUnlockQueue+0x84>
 c002aaa:	002e      	movs	r6, r5
 c002aac:	3610      	adds	r6, #16
 c002aae:	e002      	b.n	c002ab6 <prvUnlockQueue+0x6a>
 c002ab0:	3c01      	subs	r4, #1
 c002ab2:	b264      	sxtb	r4, r4
 c002ab4:	b164      	cbz	r4, c002ad0 <prvUnlockQueue+0x84>
 c002ab6:	692b      	ldr	r3, [r5, #16]
 c002ab8:	b153      	cbz	r3, c002ad0 <prvUnlockQueue+0x84>
 c002aba:	0030      	movs	r0, r6
 c002abc:	f001 fda6 	bl	c00460c <xTaskRemoveFromEventList>
 c002ac0:	2800      	cmp	r0, #0
 c002ac2:	d0f5      	beq.n	c002ab0 <prvUnlockQueue+0x64>
 c002ac4:	3c01      	subs	r4, #1
 c002ac6:	b264      	sxtb	r4, r4
 c002ac8:	f001 fe36 	bl	c004738 <vTaskMissedYield>
 c002acc:	2c00      	cmp	r4, #0
 c002ace:	d1f2      	bne.n	c002ab6 <prvUnlockQueue+0x6a>
 c002ad0:	2344      	movs	r3, #68	; 0x44
 c002ad2:	22ff      	movs	r2, #255	; 0xff
 c002ad4:	54ea      	strb	r2, [r5, r3]
 c002ad6:	f7ff fe89 	bl	c0027ec <vPortExitCritical>
 c002ada:	bd70      	pop	{r4, r5, r6, pc}

0c002adc <xQueueGenericCreateStatic>:
 c002adc:	b570      	push	{r4, r5, r6, lr}
 c002ade:	001c      	movs	r4, r3
 c002ae0:	ab04      	add	r3, sp, #16
 c002ae2:	781d      	ldrb	r5, [r3, #0]
 c002ae4:	b334      	cbz	r4, c002b34 <xQueueGenericCreateStatic+0x58>
 c002ae6:	2346      	movs	r3, #70	; 0x46
 c002ae8:	2601      	movs	r6, #1
 c002aea:	54e6      	strb	r6, [r4, r3]
 c002aec:	b321      	cbz	r1, c002b38 <xQueueGenericCreateStatic+0x5c>
 c002aee:	6022      	str	r2, [r4, #0]
 c002af0:	63e0      	str	r0, [r4, #60]	; 0x3c
 c002af2:	6421      	str	r1, [r4, #64]	; 0x40
 c002af4:	f7ff fe6c 	bl	c0027d0 <vPortEnterCritical>
 c002af8:	6c21      	ldr	r1, [r4, #64]	; 0x40
 c002afa:	6be3      	ldr	r3, [r4, #60]	; 0x3c
 c002afc:	6822      	ldr	r2, [r4, #0]
 c002afe:	434b      	muls	r3, r1
 c002b00:	18d0      	adds	r0, r2, r3
 c002b02:	1a5b      	subs	r3, r3, r1
 c002b04:	18d3      	adds	r3, r2, r3
 c002b06:	6062      	str	r2, [r4, #4]
 c002b08:	60e3      	str	r3, [r4, #12]
 c002b0a:	2600      	movs	r6, #0
 c002b0c:	23ff      	movs	r3, #255	; 0xff
 c002b0e:	2244      	movs	r2, #68	; 0x44
 c002b10:	60a0      	str	r0, [r4, #8]
 c002b12:	0020      	movs	r0, r4
 c002b14:	63a6      	str	r6, [r4, #56]	; 0x38
 c002b16:	54a3      	strb	r3, [r4, r2]
 c002b18:	3201      	adds	r2, #1
 c002b1a:	54a3      	strb	r3, [r4, r2]
 c002b1c:	3010      	adds	r0, #16
 c002b1e:	f7fe fdfb 	bl	c001718 <vListInitialise>
 c002b22:	0020      	movs	r0, r4
 c002b24:	3024      	adds	r0, #36	; 0x24
 c002b26:	f7fe fdf7 	bl	c001718 <vListInitialise>
 c002b2a:	f7ff fe5f 	bl	c0027ec <vPortExitCritical>
 c002b2e:	2350      	movs	r3, #80	; 0x50
 c002b30:	54e5      	strb	r5, [r4, r3]
 c002b32:	64a6      	str	r6, [r4, #72]	; 0x48
 c002b34:	0020      	movs	r0, r4
 c002b36:	bd70      	pop	{r4, r5, r6, pc}
 c002b38:	0022      	movs	r2, r4
 c002b3a:	e7d8      	b.n	c002aee <xQueueGenericCreateStatic+0x12>

0c002b3c <xQueueGenericCreate>:
 c002b3c:	b5f8      	push	{r3, r4, r5, r6, r7, lr}
 c002b3e:	0006      	movs	r6, r0
 c002b40:	0008      	movs	r0, r1
 c002b42:	4370      	muls	r0, r6
 c002b44:	3054      	adds	r0, #84	; 0x54
 c002b46:	000d      	movs	r5, r1
 c002b48:	0017      	movs	r7, r2
 c002b4a:	f7fe fca7 	bl	c00149c <pvPortMalloc>
 c002b4e:	0004      	movs	r4, r0
 c002b50:	b338      	cbz	r0, c002ba2 <xQueueGenericCreate+0x66>
 c002b52:	2346      	movs	r3, #70	; 0x46
 c002b54:	2200      	movs	r2, #0
 c002b56:	54c2      	strb	r2, [r0, r3]
 c002b58:	0003      	movs	r3, r0
 c002b5a:	bb25      	cbnz	r5, c002ba6 <xQueueGenericCreate+0x6a>
 c002b5c:	6023      	str	r3, [r4, #0]
 c002b5e:	6425      	str	r5, [r4, #64]	; 0x40
 c002b60:	63e6      	str	r6, [r4, #60]	; 0x3c
 c002b62:	f7ff fe35 	bl	c0027d0 <vPortEnterCritical>
 c002b66:	6c22      	ldr	r2, [r4, #64]	; 0x40
 c002b68:	6be3      	ldr	r3, [r4, #60]	; 0x3c
 c002b6a:	6821      	ldr	r1, [r4, #0]
 c002b6c:	4353      	muls	r3, r2
 c002b6e:	18c8      	adds	r0, r1, r3
 c002b70:	1a9b      	subs	r3, r3, r2
 c002b72:	18cb      	adds	r3, r1, r3
 c002b74:	60e3      	str	r3, [r4, #12]
 c002b76:	2500      	movs	r5, #0
 c002b78:	23ff      	movs	r3, #255	; 0xff
 c002b7a:	2244      	movs	r2, #68	; 0x44
 c002b7c:	60a0      	str	r0, [r4, #8]
 c002b7e:	0020      	movs	r0, r4
 c002b80:	6061      	str	r1, [r4, #4]
 c002b82:	63a5      	str	r5, [r4, #56]	; 0x38
 c002b84:	54a3      	strb	r3, [r4, r2]
 c002b86:	3201      	adds	r2, #1
 c002b88:	54a3      	strb	r3, [r4, r2]
 c002b8a:	3010      	adds	r0, #16
 c002b8c:	f7fe fdc4 	bl	c001718 <vListInitialise>
 c002b90:	0020      	movs	r0, r4
 c002b92:	3024      	adds	r0, #36	; 0x24
 c002b94:	f7fe fdc0 	bl	c001718 <vListInitialise>
 c002b98:	f7ff fe28 	bl	c0027ec <vPortExitCritical>
 c002b9c:	2350      	movs	r3, #80	; 0x50
 c002b9e:	54e7      	strb	r7, [r4, r3]
 c002ba0:	64a5      	str	r5, [r4, #72]	; 0x48
 c002ba2:	0020      	movs	r0, r4
 c002ba4:	bdf8      	pop	{r3, r4, r5, r6, r7, pc}
 c002ba6:	3354      	adds	r3, #84	; 0x54
 c002ba8:	e7d8      	b.n	c002b5c <xQueueGenericCreate+0x20>
 c002baa:	bf00      	nop

0c002bac <xQueueGetMutexHolder>:
 c002bac:	b570      	push	{r4, r5, r6, lr}
 c002bae:	0004      	movs	r4, r0
 c002bb0:	f7ff fe0e 	bl	c0027d0 <vPortEnterCritical>
 c002bb4:	6823      	ldr	r3, [r4, #0]
 c002bb6:	2500      	movs	r5, #0
 c002bb8:	b903      	cbnz	r3, c002bbc <xQueueGetMutexHolder+0x10>
 c002bba:	68a5      	ldr	r5, [r4, #8]
 c002bbc:	f7ff fe16 	bl	c0027ec <vPortExitCritical>
 c002bc0:	0028      	movs	r0, r5
 c002bc2:	bd70      	pop	{r4, r5, r6, pc}

0c002bc4 <xQueueCreateCountingSemaphoreStatic>:
 c002bc4:	b570      	push	{r4, r5, r6, lr}
 c002bc6:	000d      	movs	r5, r1
 c002bc8:	0014      	movs	r4, r2
 c002bca:	b33a      	cbz	r2, c002c1c <xQueueCreateCountingSemaphoreStatic+0x58>
 c002bcc:	2346      	movs	r3, #70	; 0x46
 c002bce:	2201      	movs	r2, #1
 c002bd0:	2600      	movs	r6, #0
 c002bd2:	54e2      	strb	r2, [r4, r3]
 c002bd4:	63e0      	str	r0, [r4, #60]	; 0x3c
 c002bd6:	6024      	str	r4, [r4, #0]
 c002bd8:	6426      	str	r6, [r4, #64]	; 0x40
 c002bda:	f7ff fdf9 	bl	c0027d0 <vPortEnterCritical>
 c002bde:	6c21      	ldr	r1, [r4, #64]	; 0x40
 c002be0:	6be3      	ldr	r3, [r4, #60]	; 0x3c
 c002be2:	6822      	ldr	r2, [r4, #0]
 c002be4:	434b      	muls	r3, r1
 c002be6:	18d0      	adds	r0, r2, r3
 c002be8:	1a5b      	subs	r3, r3, r1
 c002bea:	18d3      	adds	r3, r2, r3
 c002bec:	6062      	str	r2, [r4, #4]
 c002bee:	60e3      	str	r3, [r4, #12]
 c002bf0:	2244      	movs	r2, #68	; 0x44
 c002bf2:	23ff      	movs	r3, #255	; 0xff
 c002bf4:	60a0      	str	r0, [r4, #8]
 c002bf6:	0020      	movs	r0, r4
 c002bf8:	63a6      	str	r6, [r4, #56]	; 0x38
 c002bfa:	54a3      	strb	r3, [r4, r2]
 c002bfc:	3201      	adds	r2, #1
 c002bfe:	54a3      	strb	r3, [r4, r2]
 c002c00:	3010      	adds	r0, #16
 c002c02:	f7fe fd89 	bl	c001718 <vListInitialise>
 c002c06:	0020      	movs	r0, r4
 c002c08:	3024      	adds	r0, #36	; 0x24
 c002c0a:	f7fe fd85 	bl	c001718 <vListInitialise>
 c002c0e:	f7ff fded 	bl	c0027ec <vPortExitCritical>
 c002c12:	2350      	movs	r3, #80	; 0x50
 c002c14:	2202      	movs	r2, #2
 c002c16:	54e2      	strb	r2, [r4, r3]
 c002c18:	64a6      	str	r6, [r4, #72]	; 0x48
 c002c1a:	63a5      	str	r5, [r4, #56]	; 0x38
 c002c1c:	0020      	movs	r0, r4
 c002c1e:	bd70      	pop	{r4, r5, r6, pc}

0c002c20 <xQueueCreateCountingSemaphore>:
 c002c20:	b5f8      	push	{r3, r4, r5, r6, r7, lr}
 c002c22:	0006      	movs	r6, r0
 c002c24:	2054      	movs	r0, #84	; 0x54
 c002c26:	000d      	movs	r5, r1
 c002c28:	f7fe fc38 	bl	c00149c <pvPortMalloc>
 c002c2c:	0004      	movs	r4, r0
 c002c2e:	b330      	cbz	r0, c002c7e <xQueueCreateCountingSemaphore+0x5e>
 c002c30:	2700      	movs	r7, #0
 c002c32:	2346      	movs	r3, #70	; 0x46
 c002c34:	54c7      	strb	r7, [r0, r3]
 c002c36:	6000      	str	r0, [r0, #0]
 c002c38:	63c6      	str	r6, [r0, #60]	; 0x3c
 c002c3a:	6407      	str	r7, [r0, #64]	; 0x40
 c002c3c:	f7ff fdc8 	bl	c0027d0 <vPortEnterCritical>
 c002c40:	6c21      	ldr	r1, [r4, #64]	; 0x40
 c002c42:	6be3      	ldr	r3, [r4, #60]	; 0x3c
 c002c44:	6822      	ldr	r2, [r4, #0]
 c002c46:	434b      	muls	r3, r1
 c002c48:	18d0      	adds	r0, r2, r3
 c002c4a:	1a5b      	subs	r3, r3, r1
 c002c4c:	18d3      	adds	r3, r2, r3
 c002c4e:	6062      	str	r2, [r4, #4]
 c002c50:	60e3      	str	r3, [r4, #12]
 c002c52:	2244      	movs	r2, #68	; 0x44
 c002c54:	23ff      	movs	r3, #255	; 0xff
 c002c56:	60a0      	str	r0, [r4, #8]
 c002c58:	0020      	movs	r0, r4
 c002c5a:	63a7      	str	r7, [r4, #56]	; 0x38
 c002c5c:	54a3      	strb	r3, [r4, r2]
 c002c5e:	3201      	adds	r2, #1
 c002c60:	54a3      	strb	r3, [r4, r2]
 c002c62:	3010      	adds	r0, #16
 c002c64:	f7fe fd58 	bl	c001718 <vListInitialise>
 c002c68:	0020      	movs	r0, r4
 c002c6a:	3024      	adds	r0, #36	; 0x24
 c002c6c:	f7fe fd54 	bl	c001718 <vListInitialise>
 c002c70:	f7ff fdbc 	bl	c0027ec <vPortExitCritical>
 c002c74:	2350      	movs	r3, #80	; 0x50
 c002c76:	2202      	movs	r2, #2
 c002c78:	54e2      	strb	r2, [r4, r3]
 c002c7a:	64a7      	str	r7, [r4, #72]	; 0x48
 c002c7c:	63a5      	str	r5, [r4, #56]	; 0x38
 c002c7e:	0020      	movs	r0, r4
 c002c80:	bdf8      	pop	{r3, r4, r5, r6, r7, pc}
 c002c82:	bf00      	nop

0c002c84 <xQueueGenericSend>:
 c002c84:	b5f0      	push	{r4, r5, r6, r7, lr}
 c002c86:	4647      	mov	r7, r8
 c002c88:	46ce      	mov	lr, r9
 c002c8a:	b580      	push	{r7, lr}
 c002c8c:	b085      	sub	sp, #20
 c002c8e:	0004      	movs	r4, r0
 c002c90:	4688      	mov	r8, r1
 c002c92:	001e      	movs	r6, r3
 c002c94:	f240 0900 	movw	r9, #0
 c002c98:	2544      	movs	r5, #68	; 0x44
 c002c9a:	2700      	movs	r7, #0
 c002c9c:	9201      	str	r2, [sp, #4]
 c002c9e:	e008      	b.n	c002cb2 <xQueueGenericSend+0x2e>
 c002ca0:	f7ff fda4 	bl	c0027ec <vPortExitCritical>
 c002ca4:	0020      	movs	r0, r4
 c002ca6:	f7ff fed1 	bl	c002a4c <prvUnlockQueue>
 c002caa:	f001 fb07 	bl	c0042bc <xTaskResumeAll>
 c002cae:	f240 0901 	movw	r9, #1
 c002cb2:	f7ff fd8d 	bl	c0027d0 <vPortEnterCritical>
 c002cb6:	6ba3      	ldr	r3, [r4, #56]	; 0x38
 c002cb8:	6be2      	ldr	r2, [r4, #60]	; 0x3c
 c002cba:	4293      	cmp	r3, r2
 c002cbc:	d33a      	bcc.n	c002d34 <xQueueGenericSend+0xb0>
 c002cbe:	2e02      	cmp	r6, #2
 c002cc0:	d04a      	beq.n	c002d58 <xQueueGenericSend+0xd4>
 c002cc2:	9b01      	ldr	r3, [sp, #4]
 c002cc4:	2b00      	cmp	r3, #0
 c002cc6:	d052      	beq.n	c002d6e <xQueueGenericSend+0xea>
 c002cc8:	464b      	mov	r3, r9
 c002cca:	b37b      	cbz	r3, c002d2c <xQueueGenericSend+0xa8>
 c002ccc:	f7ff fd8e 	bl	c0027ec <vPortExitCritical>
 c002cd0:	f001 faec 	bl	c0042ac <vTaskSuspendAll>
 c002cd4:	f7ff fd7c 	bl	c0027d0 <vPortEnterCritical>
 c002cd8:	5d62      	ldrb	r2, [r4, r5]
 c002cda:	b252      	sxtb	r2, r2
 c002cdc:	1c53      	adds	r3, r2, #1
 c002cde:	d100      	bne.n	c002ce2 <xQueueGenericSend+0x5e>
 c002ce0:	5567      	strb	r7, [r4, r5]
 c002ce2:	2345      	movs	r3, #69	; 0x45
 c002ce4:	5ce2      	ldrb	r2, [r4, r3]
 c002ce6:	b252      	sxtb	r2, r2
 c002ce8:	3201      	adds	r2, #1
 c002cea:	d100      	bne.n	c002cee <xQueueGenericSend+0x6a>
 c002cec:	54e7      	strb	r7, [r4, r3]
 c002cee:	f7ff fd7d 	bl	c0027ec <vPortExitCritical>
 c002cf2:	a901      	add	r1, sp, #4
 c002cf4:	a802      	add	r0, sp, #8
 c002cf6:	f001 fcef 	bl	c0046d8 <xTaskCheckForTimeOut>
 c002cfa:	2800      	cmp	r0, #0
 c002cfc:	d13f      	bne.n	c002d7e <xQueueGenericSend+0xfa>
 c002cfe:	f7ff fd67 	bl	c0027d0 <vPortEnterCritical>
 c002d02:	6ba3      	ldr	r3, [r4, #56]	; 0x38
 c002d04:	6be2      	ldr	r2, [r4, #60]	; 0x3c
 c002d06:	4293      	cmp	r3, r2
 c002d08:	d1ca      	bne.n	c002ca0 <xQueueGenericSend+0x1c>
 c002d0a:	f7ff fd6f 	bl	c0027ec <vPortExitCritical>
 c002d0e:	0020      	movs	r0, r4
 c002d10:	9901      	ldr	r1, [sp, #4]
 c002d12:	3010      	adds	r0, #16
 c002d14:	f001 fc56 	bl	c0045c4 <vTaskPlaceOnEventList>
 c002d18:	0020      	movs	r0, r4
 c002d1a:	f7ff fe97 	bl	c002a4c <prvUnlockQueue>
 c002d1e:	f001 facd 	bl	c0042bc <xTaskResumeAll>
 c002d22:	2800      	cmp	r0, #0
 c002d24:	d1c3      	bne.n	c002cae <xQueueGenericSend+0x2a>
 c002d26:	f7ff fd47 	bl	c0027b8 <vPortYield>
 c002d2a:	e7c0      	b.n	c002cae <xQueueGenericSend+0x2a>
 c002d2c:	a802      	add	r0, sp, #8
 c002d2e:	f001 fcc5 	bl	c0046bc <vTaskInternalSetTimeOutState>
 c002d32:	e7cb      	b.n	c002ccc <xQueueGenericSend+0x48>
 c002d34:	0032      	movs	r2, r6
 c002d36:	4641      	mov	r1, r8
 c002d38:	0020      	movs	r0, r4
 c002d3a:	6ba5      	ldr	r5, [r4, #56]	; 0x38
 c002d3c:	f7ff fe04 	bl	c002948 <prvCopyDataToQueue>
 c002d40:	6ca3      	ldr	r3, [r4, #72]	; 0x48
 c002d42:	b31b      	cbz	r3, c002d8c <xQueueGenericSend+0x108>
 c002d44:	2e02      	cmp	r6, #2
 c002d46:	d00f      	beq.n	c002d68 <xQueueGenericSend+0xe4>
 c002d48:	0020      	movs	r0, r4
 c002d4a:	f7ff fe37 	bl	c0029bc <prvNotifyQueueSetContainer>
 c002d4e:	bb08      	cbnz	r0, c002d94 <xQueueGenericSend+0x110>
 c002d50:	f7ff fd4c 	bl	c0027ec <vPortExitCritical>
 c002d54:	2001      	movs	r0, #1
 c002d56:	e00d      	b.n	c002d74 <xQueueGenericSend+0xf0>
 c002d58:	2202      	movs	r2, #2
 c002d5a:	4641      	mov	r1, r8
 c002d5c:	0020      	movs	r0, r4
 c002d5e:	6ba5      	ldr	r5, [r4, #56]	; 0x38
 c002d60:	f7ff fdf2 	bl	c002948 <prvCopyDataToQueue>
 c002d64:	6ca3      	ldr	r3, [r4, #72]	; 0x48
 c002d66:	b18b      	cbz	r3, c002d8c <xQueueGenericSend+0x108>
 c002d68:	2d00      	cmp	r5, #0
 c002d6a:	d0ed      	beq.n	c002d48 <xQueueGenericSend+0xc4>
 c002d6c:	e7f0      	b.n	c002d50 <xQueueGenericSend+0xcc>
 c002d6e:	f7ff fd3d 	bl	c0027ec <vPortExitCritical>
 c002d72:	2000      	movs	r0, #0
 c002d74:	b005      	add	sp, #20
 c002d76:	bcc0      	pop	{r6, r7}
 c002d78:	46b9      	mov	r9, r7
 c002d7a:	46b0      	mov	r8, r6
 c002d7c:	bdf0      	pop	{r4, r5, r6, r7, pc}
 c002d7e:	0020      	movs	r0, r4
 c002d80:	f7ff fe64 	bl	c002a4c <prvUnlockQueue>
 c002d84:	f001 fa9a 	bl	c0042bc <xTaskResumeAll>
 c002d88:	2000      	movs	r0, #0
 c002d8a:	e7f3      	b.n	c002d74 <xQueueGenericSend+0xf0>
 c002d8c:	6a63      	ldr	r3, [r4, #36]	; 0x24
 c002d8e:	b923      	cbnz	r3, c002d9a <xQueueGenericSend+0x116>
 c002d90:	2800      	cmp	r0, #0
 c002d92:	d0dd      	beq.n	c002d50 <xQueueGenericSend+0xcc>
 c002d94:	f7ff fd10 	bl	c0027b8 <vPortYield>
 c002d98:	e7da      	b.n	c002d50 <xQueueGenericSend+0xcc>
 c002d9a:	0020      	movs	r0, r4
 c002d9c:	3024      	adds	r0, #36	; 0x24
 c002d9e:	f001 fc35 	bl	c00460c <xTaskRemoveFromEventList>
 c002da2:	2800      	cmp	r0, #0
 c002da4:	d0d4      	beq.n	c002d50 <xQueueGenericSend+0xcc>
 c002da6:	e7f5      	b.n	c002d94 <xQueueGenericSend+0x110>

0c002da8 <xQueueCreateMutexStatic>:
 c002da8:	b570      	push	{r4, r5, r6, lr}
 c002daa:	0006      	movs	r6, r0
 c002dac:	000c      	movs	r4, r1
 c002dae:	b371      	cbz	r1, c002e0e <xQueueCreateMutexStatic+0x66>
 c002db0:	2500      	movs	r5, #0
 c002db2:	2301      	movs	r3, #1
 c002db4:	2246      	movs	r2, #70	; 0x46
 c002db6:	548b      	strb	r3, [r1, r2]
 c002db8:	63cb      	str	r3, [r1, #60]	; 0x3c
 c002dba:	6009      	str	r1, [r1, #0]
 c002dbc:	640d      	str	r5, [r1, #64]	; 0x40
 c002dbe:	f7ff fd07 	bl	c0027d0 <vPortEnterCritical>
 c002dc2:	6c21      	ldr	r1, [r4, #64]	; 0x40
 c002dc4:	6be3      	ldr	r3, [r4, #60]	; 0x3c
 c002dc6:	6822      	ldr	r2, [r4, #0]
 c002dc8:	434b      	muls	r3, r1
 c002dca:	18d0      	adds	r0, r2, r3
 c002dcc:	1a5b      	subs	r3, r3, r1
 c002dce:	18d3      	adds	r3, r2, r3
 c002dd0:	6062      	str	r2, [r4, #4]
 c002dd2:	60e3      	str	r3, [r4, #12]
 c002dd4:	2244      	movs	r2, #68	; 0x44
 c002dd6:	23ff      	movs	r3, #255	; 0xff
 c002dd8:	60a0      	str	r0, [r4, #8]
 c002dda:	0020      	movs	r0, r4
 c002ddc:	63a5      	str	r5, [r4, #56]	; 0x38
 c002dde:	54a3      	strb	r3, [r4, r2]
 c002de0:	3201      	adds	r2, #1
 c002de2:	54a3      	strb	r3, [r4, r2]
 c002de4:	3010      	adds	r0, #16
 c002de6:	f7fe fc97 	bl	c001718 <vListInitialise>
 c002dea:	0020      	movs	r0, r4
 c002dec:	3024      	adds	r0, #36	; 0x24
 c002dee:	f7fe fc93 	bl	c001718 <vListInitialise>
 c002df2:	f7ff fcfb 	bl	c0027ec <vPortExitCritical>
 c002df6:	2350      	movs	r3, #80	; 0x50
 c002df8:	2200      	movs	r2, #0
 c002dfa:	54e6      	strb	r6, [r4, r3]
 c002dfc:	2100      	movs	r1, #0
 c002dfe:	2300      	movs	r3, #0
 c002e00:	0020      	movs	r0, r4
 c002e02:	64a5      	str	r5, [r4, #72]	; 0x48
 c002e04:	60a5      	str	r5, [r4, #8]
 c002e06:	6025      	str	r5, [r4, #0]
 c002e08:	60e5      	str	r5, [r4, #12]
 c002e0a:	f7ff ff3b 	bl	c002c84 <xQueueGenericSend>
 c002e0e:	0020      	movs	r0, r4
 c002e10:	bd70      	pop	{r4, r5, r6, pc}
 c002e12:	bf00      	nop

0c002e14 <xQueueCreateMutex>:
 c002e14:	b570      	push	{r4, r5, r6, lr}
 c002e16:	0006      	movs	r6, r0
 c002e18:	2054      	movs	r0, #84	; 0x54
 c002e1a:	f7fe fb3f 	bl	c00149c <pvPortMalloc>
 c002e1e:	0004      	movs	r4, r0
 c002e20:	b370      	cbz	r0, c002e80 <xQueueCreateMutex+0x6c>
 c002e22:	2500      	movs	r5, #0
 c002e24:	2346      	movs	r3, #70	; 0x46
 c002e26:	54c5      	strb	r5, [r0, r3]
 c002e28:	3b45      	subs	r3, #69	; 0x45
 c002e2a:	63c3      	str	r3, [r0, #60]	; 0x3c
 c002e2c:	6000      	str	r0, [r0, #0]
 c002e2e:	6405      	str	r5, [r0, #64]	; 0x40
 c002e30:	f7ff fcce 	bl	c0027d0 <vPortEnterCritical>
 c002e34:	6c21      	ldr	r1, [r4, #64]	; 0x40
 c002e36:	6be3      	ldr	r3, [r4, #60]	; 0x3c
 c002e38:	6822      	ldr	r2, [r4, #0]
 c002e3a:	434b      	muls	r3, r1
 c002e3c:	18d0      	adds	r0, r2, r3
 c002e3e:	1a5b      	subs	r3, r3, r1
 c002e40:	18d3      	adds	r3, r2, r3
 c002e42:	6062      	str	r2, [r4, #4]
 c002e44:	60e3      	str	r3, [r4, #12]
 c002e46:	2244      	movs	r2, #68	; 0x44
 c002e48:	23ff      	movs	r3, #255	; 0xff
 c002e4a:	60a0      	str	r0, [r4, #8]
 c002e4c:	0020      	movs	r0, r4
 c002e4e:	63a5      	str	r5, [r4, #56]	; 0x38
 c002e50:	54a3      	strb	r3, [r4, r2]
 c002e52:	3201      	adds	r2, #1
 c002e54:	54a3      	strb	r3, [r4, r2]
 c002e56:	3010      	adds	r0, #16
 c002e58:	f7fe fc5e 	bl	c001718 <vListInitialise>
 c002e5c:	0020      	movs	r0, r4
 c002e5e:	3024      	adds	r0, #36	; 0x24
 c002e60:	f7fe fc5a 	bl	c001718 <vListInitialise>
 c002e64:	f7ff fcc2 	bl	c0027ec <vPortExitCritical>
 c002e68:	2350      	movs	r3, #80	; 0x50
 c002e6a:	2200      	movs	r2, #0
 c002e6c:	54e6      	strb	r6, [r4, r3]
 c002e6e:	2100      	movs	r1, #0
 c002e70:	2300      	movs	r3, #0
 c002e72:	0020      	movs	r0, r4
 c002e74:	64a5      	str	r5, [r4, #72]	; 0x48
 c002e76:	60a5      	str	r5, [r4, #8]
 c002e78:	6025      	str	r5, [r4, #0]
 c002e7a:	60e5      	str	r5, [r4, #12]
 c002e7c:	f7ff ff02 	bl	c002c84 <xQueueGenericSend>
 c002e80:	0020      	movs	r0, r4
 c002e82:	bd70      	pop	{r4, r5, r6, pc}

0c002e84 <xQueueGenericSendFromISR>:
 c002e84:	b5f8      	push	{r3, r4, r5, r6, r7, lr}
 c002e86:	4657      	mov	r7, sl
 c002e88:	46de      	mov	lr, fp
 c002e8a:	464e      	mov	r6, r9
 c002e8c:	4645      	mov	r5, r8
 c002e8e:	0004      	movs	r4, r0
 c002e90:	b5e0      	push	{r5, r6, r7, lr}
 c002e92:	4692      	mov	sl, r2
 c002e94:	001d      	movs	r5, r3
 c002e96:	4689      	mov	r9, r1
 c002e98:	f7ff fcb2 	bl	c002800 <ulSetInterruptMaskFromISR>
 c002e9c:	6ba3      	ldr	r3, [r4, #56]	; 0x38
 c002e9e:	6be2      	ldr	r2, [r4, #60]	; 0x3c
 c002ea0:	0007      	movs	r7, r0
 c002ea2:	4293      	cmp	r3, r2
 c002ea4:	d30c      	bcc.n	c002ec0 <xQueueGenericSendFromISR+0x3c>
 c002ea6:	2600      	movs	r6, #0
 c002ea8:	2d02      	cmp	r5, #2
 c002eaa:	d009      	beq.n	c002ec0 <xQueueGenericSendFromISR+0x3c>
 c002eac:	0038      	movs	r0, r7
 c002eae:	f7ff fcad 	bl	c00280c <vClearInterruptMaskFromISR>
 c002eb2:	0030      	movs	r0, r6
 c002eb4:	bcf0      	pop	{r4, r5, r6, r7}
 c002eb6:	46bb      	mov	fp, r7
 c002eb8:	46b2      	mov	sl, r6
 c002eba:	46a9      	mov	r9, r5
 c002ebc:	46a0      	mov	r8, r4
 c002ebe:	bdf8      	pop	{r3, r4, r5, r6, r7, pc}
 c002ec0:	f240 0845 	movw	r8, #69	; 0x45
 c002ec4:	4643      	mov	r3, r8
 c002ec6:	5ce6      	ldrb	r6, [r4, r3]
 c002ec8:	6ba3      	ldr	r3, [r4, #56]	; 0x38
 c002eca:	b276      	sxtb	r6, r6
 c002ecc:	002a      	movs	r2, r5
 c002ece:	4649      	mov	r1, r9
 c002ed0:	0020      	movs	r0, r4
 c002ed2:	469b      	mov	fp, r3
 c002ed4:	f7ff fd38 	bl	c002948 <prvCopyDataToQueue>
 c002ed8:	1c73      	adds	r3, r6, #1
 c002eda:	d005      	beq.n	c002ee8 <xQueueGenericSendFromISR+0x64>
 c002edc:	4643      	mov	r3, r8
 c002ede:	3601      	adds	r6, #1
 c002ee0:	b276      	sxtb	r6, r6
 c002ee2:	54e6      	strb	r6, [r4, r3]
 c002ee4:	2601      	movs	r6, #1
 c002ee6:	e7e1      	b.n	c002eac <xQueueGenericSendFromISR+0x28>
 c002ee8:	6ca3      	ldr	r3, [r4, #72]	; 0x48
 c002eea:	b18b      	cbz	r3, c002f10 <xQueueGenericSendFromISR+0x8c>
 c002eec:	2d02      	cmp	r5, #2
 c002eee:	d102      	bne.n	c002ef6 <xQueueGenericSendFromISR+0x72>
 c002ef0:	465b      	mov	r3, fp
 c002ef2:	2b00      	cmp	r3, #0
 c002ef4:	d1f6      	bne.n	c002ee4 <xQueueGenericSendFromISR+0x60>
 c002ef6:	0020      	movs	r0, r4
 c002ef8:	f7ff fd60 	bl	c0029bc <prvNotifyQueueSetContainer>
 c002efc:	2800      	cmp	r0, #0
 c002efe:	d0f1      	beq.n	c002ee4 <xQueueGenericSendFromISR+0x60>
 c002f00:	4653      	mov	r3, sl
 c002f02:	2b00      	cmp	r3, #0
 c002f04:	d0ee      	beq.n	c002ee4 <xQueueGenericSendFromISR+0x60>
 c002f06:	2301      	movs	r3, #1
 c002f08:	4652      	mov	r2, sl
 c002f0a:	2601      	movs	r6, #1
 c002f0c:	6013      	str	r3, [r2, #0]
 c002f0e:	e7cd      	b.n	c002eac <xQueueGenericSendFromISR+0x28>
 c002f10:	6a63      	ldr	r3, [r4, #36]	; 0x24
 c002f12:	2b00      	cmp	r3, #0
 c002f14:	d0e6      	beq.n	c002ee4 <xQueueGenericSendFromISR+0x60>
 c002f16:	0020      	movs	r0, r4
 c002f18:	3024      	adds	r0, #36	; 0x24
 c002f1a:	f001 fb77 	bl	c00460c <xTaskRemoveFromEventList>
 c002f1e:	2800      	cmp	r0, #0
 c002f20:	d1ee      	bne.n	c002f00 <xQueueGenericSendFromISR+0x7c>
 c002f22:	e7df      	b.n	c002ee4 <xQueueGenericSendFromISR+0x60>

0c002f24 <xQueueGiveFromISR>:
 c002f24:	b5f8      	push	{r3, r4, r5, r6, r7, lr}
 c002f26:	0004      	movs	r4, r0
 c002f28:	000e      	movs	r6, r1
 c002f2a:	f7ff fc69 	bl	c002800 <ulSetInterruptMaskFromISR>
 c002f2e:	6ba2      	ldr	r2, [r4, #56]	; 0x38
 c002f30:	6be3      	ldr	r3, [r4, #60]	; 0x3c
 c002f32:	0005      	movs	r5, r0
 c002f34:	2700      	movs	r7, #0
 c002f36:	4293      	cmp	r3, r2
 c002f38:	d90a      	bls.n	c002f50 <xQueueGiveFromISR+0x2c>
 c002f3a:	2145      	movs	r1, #69	; 0x45
 c002f3c:	5c63      	ldrb	r3, [r4, r1]
 c002f3e:	3201      	adds	r2, #1
 c002f40:	b25b      	sxtb	r3, r3
 c002f42:	63a2      	str	r2, [r4, #56]	; 0x38
 c002f44:	1c5a      	adds	r2, r3, #1
 c002f46:	d008      	beq.n	c002f5a <xQueueGiveFromISR+0x36>
 c002f48:	3301      	adds	r3, #1
 c002f4a:	b25b      	sxtb	r3, r3
 c002f4c:	5463      	strb	r3, [r4, r1]
 c002f4e:	2701      	movs	r7, #1
 c002f50:	0028      	movs	r0, r5
 c002f52:	f7ff fc5b 	bl	c00280c <vClearInterruptMaskFromISR>
 c002f56:	0038      	movs	r0, r7
 c002f58:	bdf8      	pop	{r3, r4, r5, r6, r7, pc}
 c002f5a:	6ca3      	ldr	r3, [r4, #72]	; 0x48
 c002f5c:	b153      	cbz	r3, c002f74 <xQueueGiveFromISR+0x50>
 c002f5e:	0020      	movs	r0, r4
 c002f60:	f7ff fd2c 	bl	c0029bc <prvNotifyQueueSetContainer>
 c002f64:	2800      	cmp	r0, #0
 c002f66:	d0f2      	beq.n	c002f4e <xQueueGiveFromISR+0x2a>
 c002f68:	2e00      	cmp	r6, #0
 c002f6a:	d0f0      	beq.n	c002f4e <xQueueGiveFromISR+0x2a>
 c002f6c:	2301      	movs	r3, #1
 c002f6e:	2701      	movs	r7, #1
 c002f70:	6033      	str	r3, [r6, #0]
 c002f72:	e7ed      	b.n	c002f50 <xQueueGiveFromISR+0x2c>
 c002f74:	6a63      	ldr	r3, [r4, #36]	; 0x24
 c002f76:	2b00      	cmp	r3, #0
 c002f78:	d0e9      	beq.n	c002f4e <xQueueGiveFromISR+0x2a>
 c002f7a:	0020      	movs	r0, r4
 c002f7c:	3024      	adds	r0, #36	; 0x24
 c002f7e:	f001 fb45 	bl	c00460c <xTaskRemoveFromEventList>
 c002f82:	2800      	cmp	r0, #0
 c002f84:	d0e3      	beq.n	c002f4e <xQueueGiveFromISR+0x2a>
 c002f86:	2e00      	cmp	r6, #0
 c002f88:	d1f0      	bne.n	c002f6c <xQueueGiveFromISR+0x48>
 c002f8a:	e7e0      	b.n	c002f4e <xQueueGiveFromISR+0x2a>

0c002f8c <xQueueReceive>:
 c002f8c:	b5f0      	push	{r4, r5, r6, r7, lr}
 c002f8e:	4647      	mov	r7, r8
 c002f90:	46ce      	mov	lr, r9
 c002f92:	0004      	movs	r4, r0
 c002f94:	b580      	push	{r7, lr}
 c002f96:	b085      	sub	sp, #20
 c002f98:	4688      	mov	r8, r1
 c002f9a:	9201      	str	r2, [sp, #4]
 c002f9c:	f7ff fc18 	bl	c0027d0 <vPortEnterCritical>
 c002fa0:	6ba7      	ldr	r7, [r4, #56]	; 0x38
 c002fa2:	2f00      	cmp	r7, #0
 c002fa4:	d159      	bne.n	c00305a <xQueueReceive+0xce>
 c002fa6:	9b01      	ldr	r3, [sp, #4]
 c002fa8:	b3bb      	cbz	r3, c00301a <xQueueReceive+0x8e>
 c002faa:	a802      	add	r0, sp, #8
 c002fac:	f001 fb86 	bl	c0046bc <vTaskInternalSetTimeOutState>
 c002fb0:	2644      	movs	r6, #68	; 0x44
 c002fb2:	f240 0900 	movw	r9, #0
 c002fb6:	2545      	movs	r5, #69	; 0x45
 c002fb8:	f7ff fc18 	bl	c0027ec <vPortExitCritical>
 c002fbc:	f001 f976 	bl	c0042ac <vTaskSuspendAll>
 c002fc0:	f7ff fc06 	bl	c0027d0 <vPortEnterCritical>
 c002fc4:	5da3      	ldrb	r3, [r4, r6]
 c002fc6:	b25b      	sxtb	r3, r3
 c002fc8:	3301      	adds	r3, #1
 c002fca:	d101      	bne.n	c002fd0 <xQueueReceive+0x44>
 c002fcc:	464b      	mov	r3, r9
 c002fce:	55a3      	strb	r3, [r4, r6]
 c002fd0:	5d63      	ldrb	r3, [r4, r5]
 c002fd2:	b25b      	sxtb	r3, r3
 c002fd4:	3301      	adds	r3, #1
 c002fd6:	d101      	bne.n	c002fdc <xQueueReceive+0x50>
 c002fd8:	464b      	mov	r3, r9
 c002fda:	5563      	strb	r3, [r4, r5]
 c002fdc:	f7ff fc06 	bl	c0027ec <vPortExitCritical>
 c002fe0:	a901      	add	r1, sp, #4
 c002fe2:	a802      	add	r0, sp, #8
 c002fe4:	f001 fb78 	bl	c0046d8 <xTaskCheckForTimeOut>
 c002fe8:	b9f8      	cbnz	r0, c00302a <xQueueReceive+0x9e>
 c002fea:	f7ff fbf1 	bl	c0027d0 <vPortEnterCritical>
 c002fee:	6ba3      	ldr	r3, [r4, #56]	; 0x38
 c002ff0:	bb43      	cbnz	r3, c003044 <xQueueReceive+0xb8>
 c002ff2:	f7ff fbfb 	bl	c0027ec <vPortExitCritical>
 c002ff6:	0020      	movs	r0, r4
 c002ff8:	9901      	ldr	r1, [sp, #4]
 c002ffa:	3024      	adds	r0, #36	; 0x24
 c002ffc:	f001 fae2 	bl	c0045c4 <vTaskPlaceOnEventList>
 c003000:	0020      	movs	r0, r4
 c003002:	f7ff fd23 	bl	c002a4c <prvUnlockQueue>
 c003006:	f001 f959 	bl	c0042bc <xTaskResumeAll>
 c00300a:	b318      	cbz	r0, c003054 <xQueueReceive+0xc8>
 c00300c:	f7ff fbe0 	bl	c0027d0 <vPortEnterCritical>
 c003010:	6ba7      	ldr	r7, [r4, #56]	; 0x38
 c003012:	bb17      	cbnz	r7, c00305a <xQueueReceive+0xce>
 c003014:	9b01      	ldr	r3, [sp, #4]
 c003016:	2b00      	cmp	r3, #0
 c003018:	d1ce      	bne.n	c002fb8 <xQueueReceive+0x2c>
 c00301a:	f7ff fbe7 	bl	c0027ec <vPortExitCritical>
 c00301e:	2000      	movs	r0, #0
 c003020:	b005      	add	sp, #20
 c003022:	bcc0      	pop	{r6, r7}
 c003024:	46b9      	mov	r9, r7
 c003026:	46b0      	mov	r8, r6
 c003028:	bdf0      	pop	{r4, r5, r6, r7, pc}
 c00302a:	0020      	movs	r0, r4
 c00302c:	f7ff fd0e 	bl	c002a4c <prvUnlockQueue>
 c003030:	f001 f944 	bl	c0042bc <xTaskResumeAll>
 c003034:	f7ff fbcc 	bl	c0027d0 <vPortEnterCritical>
 c003038:	6ba3      	ldr	r3, [r4, #56]	; 0x38
 c00303a:	2b00      	cmp	r3, #0
 c00303c:	d0ed      	beq.n	c00301a <xQueueReceive+0x8e>
 c00303e:	f7ff fbd5 	bl	c0027ec <vPortExitCritical>
 c003042:	e7e3      	b.n	c00300c <xQueueReceive+0x80>
 c003044:	f7ff fbd2 	bl	c0027ec <vPortExitCritical>
 c003048:	0020      	movs	r0, r4
 c00304a:	f7ff fcff 	bl	c002a4c <prvUnlockQueue>
 c00304e:	f001 f935 	bl	c0042bc <xTaskResumeAll>
 c003052:	e7db      	b.n	c00300c <xQueueReceive+0x80>
 c003054:	f7ff fbb0 	bl	c0027b8 <vPortYield>
 c003058:	e7d8      	b.n	c00300c <xQueueReceive+0x80>
 c00305a:	6c22      	ldr	r2, [r4, #64]	; 0x40
 c00305c:	b142      	cbz	r2, c003070 <xQueueReceive+0xe4>
 c00305e:	68e3      	ldr	r3, [r4, #12]
 c003060:	1899      	adds	r1, r3, r2
 c003062:	68a3      	ldr	r3, [r4, #8]
 c003064:	60e1      	str	r1, [r4, #12]
 c003066:	4299      	cmp	r1, r3
 c003068:	d20a      	bcs.n	c003080 <xQueueReceive+0xf4>
 c00306a:	4640      	mov	r0, r8
 c00306c:	f01d fb88 	bl	c020780 <____wrap_memcpy_veneer>
 c003070:	3f01      	subs	r7, #1
 c003072:	63a7      	str	r7, [r4, #56]	; 0x38
 c003074:	6923      	ldr	r3, [r4, #16]
 c003076:	b933      	cbnz	r3, c003086 <xQueueReceive+0xfa>
 c003078:	f7ff fbb8 	bl	c0027ec <vPortExitCritical>
 c00307c:	2001      	movs	r0, #1
 c00307e:	e7cf      	b.n	c003020 <xQueueReceive+0x94>
 c003080:	6821      	ldr	r1, [r4, #0]
 c003082:	60e1      	str	r1, [r4, #12]
 c003084:	e7f1      	b.n	c00306a <xQueueReceive+0xde>
 c003086:	0020      	movs	r0, r4
 c003088:	3010      	adds	r0, #16
 c00308a:	f001 fabf 	bl	c00460c <xTaskRemoveFromEventList>
 c00308e:	2800      	cmp	r0, #0
 c003090:	d0f2      	beq.n	c003078 <xQueueReceive+0xec>
 c003092:	f7ff fb91 	bl	c0027b8 <vPortYield>
 c003096:	e7ef      	b.n	c003078 <xQueueReceive+0xec>

0c003098 <xQueueSemaphoreTake>:
 c003098:	b5f0      	push	{r4, r5, r6, r7, lr}
 c00309a:	46c6      	mov	lr, r8
 c00309c:	0004      	movs	r4, r0
 c00309e:	b500      	push	{lr}
 c0030a0:	b084      	sub	sp, #16
 c0030a2:	9101      	str	r1, [sp, #4]
 c0030a4:	f7ff fb94 	bl	c0027d0 <vPortEnterCritical>
 c0030a8:	6ba3      	ldr	r3, [r4, #56]	; 0x38
 c0030aa:	2600      	movs	r6, #0
 c0030ac:	f240 0800 	movw	r8, #0
 c0030b0:	2544      	movs	r5, #68	; 0x44
 c0030b2:	2700      	movs	r7, #0
 c0030b4:	bbd3      	cbnz	r3, c00312c <xQueueSemaphoreTake+0x94>
 c0030b6:	9b01      	ldr	r3, [sp, #4]
 c0030b8:	2b00      	cmp	r3, #0
 c0030ba:	d100      	bne.n	c0030be <xQueueSemaphoreTake+0x26>
 c0030bc:	e06d      	b.n	c00319a <xQueueSemaphoreTake+0x102>
 c0030be:	4643      	mov	r3, r8
 c0030c0:	2b00      	cmp	r3, #0
 c0030c2:	d04b      	beq.n	c00315c <xQueueSemaphoreTake+0xc4>
 c0030c4:	f7ff fb92 	bl	c0027ec <vPortExitCritical>
 c0030c8:	f001 f8f0 	bl	c0042ac <vTaskSuspendAll>
 c0030cc:	f7ff fb80 	bl	c0027d0 <vPortEnterCritical>
 c0030d0:	5d63      	ldrb	r3, [r4, r5]
 c0030d2:	b25b      	sxtb	r3, r3
 c0030d4:	3301      	adds	r3, #1
 c0030d6:	d100      	bne.n	c0030da <xQueueSemaphoreTake+0x42>
 c0030d8:	5567      	strb	r7, [r4, r5]
 c0030da:	2245      	movs	r2, #69	; 0x45
 c0030dc:	5ca3      	ldrb	r3, [r4, r2]
 c0030de:	b25b      	sxtb	r3, r3
 c0030e0:	3301      	adds	r3, #1
 c0030e2:	d100      	bne.n	c0030e6 <xQueueSemaphoreTake+0x4e>
 c0030e4:	54a7      	strb	r7, [r4, r2]
 c0030e6:	f7ff fb81 	bl	c0027ec <vPortExitCritical>
 c0030ea:	a901      	add	r1, sp, #4
 c0030ec:	a802      	add	r0, sp, #8
 c0030ee:	f001 faf3 	bl	c0046d8 <xTaskCheckForTimeOut>
 c0030f2:	bb38      	cbnz	r0, c003144 <xQueueSemaphoreTake+0xac>
 c0030f4:	f7ff fb6c 	bl	c0027d0 <vPortEnterCritical>
 c0030f8:	6ba3      	ldr	r3, [r4, #56]	; 0x38
 c0030fa:	bb9b      	cbnz	r3, c003164 <xQueueSemaphoreTake+0xcc>
 c0030fc:	f7ff fb76 	bl	c0027ec <vPortExitCritical>
 c003100:	6823      	ldr	r3, [r4, #0]
 c003102:	2b00      	cmp	r3, #0
 c003104:	d050      	beq.n	c0031a8 <xQueueSemaphoreTake+0x110>
 c003106:	0020      	movs	r0, r4
 c003108:	9901      	ldr	r1, [sp, #4]
 c00310a:	3024      	adds	r0, #36	; 0x24
 c00310c:	f001 fa5a 	bl	c0045c4 <vTaskPlaceOnEventList>
 c003110:	0020      	movs	r0, r4
 c003112:	f7ff fc9b 	bl	c002a4c <prvUnlockQueue>
 c003116:	f001 f8d1 	bl	c0042bc <xTaskResumeAll>
 c00311a:	2800      	cmp	r0, #0
 c00311c:	d041      	beq.n	c0031a2 <xQueueSemaphoreTake+0x10a>
 c00311e:	f7ff fb57 	bl	c0027d0 <vPortEnterCritical>
 c003122:	6ba3      	ldr	r3, [r4, #56]	; 0x38
 c003124:	f240 0801 	movw	r8, #1
 c003128:	2b00      	cmp	r3, #0
 c00312a:	d0c4      	beq.n	c0030b6 <xQueueSemaphoreTake+0x1e>
 c00312c:	3b01      	subs	r3, #1
 c00312e:	63a3      	str	r3, [r4, #56]	; 0x38
 c003130:	6823      	ldr	r3, [r4, #0]
 c003132:	2b00      	cmp	r3, #0
 c003134:	d04a      	beq.n	c0031cc <xQueueSemaphoreTake+0x134>
 c003136:	6923      	ldr	r3, [r4, #16]
 c003138:	2b00      	cmp	r3, #0
 c00313a:	d13e      	bne.n	c0031ba <xQueueSemaphoreTake+0x122>
 c00313c:	f7ff fb56 	bl	c0027ec <vPortExitCritical>
 c003140:	2601      	movs	r6, #1
 c003142:	e01a      	b.n	c00317a <xQueueSemaphoreTake+0xe2>
 c003144:	0020      	movs	r0, r4
 c003146:	f7ff fc81 	bl	c002a4c <prvUnlockQueue>
 c00314a:	f001 f8b7 	bl	c0042bc <xTaskResumeAll>
 c00314e:	f7ff fb3f 	bl	c0027d0 <vPortEnterCritical>
 c003152:	6ba3      	ldr	r3, [r4, #56]	; 0x38
 c003154:	b173      	cbz	r3, c003174 <xQueueSemaphoreTake+0xdc>
 c003156:	f7ff fb49 	bl	c0027ec <vPortExitCritical>
 c00315a:	e7e0      	b.n	c00311e <xQueueSemaphoreTake+0x86>
 c00315c:	a802      	add	r0, sp, #8
 c00315e:	f001 faad 	bl	c0046bc <vTaskInternalSetTimeOutState>
 c003162:	e7af      	b.n	c0030c4 <xQueueSemaphoreTake+0x2c>
 c003164:	f7ff fb42 	bl	c0027ec <vPortExitCritical>
 c003168:	0020      	movs	r0, r4
 c00316a:	f7ff fc6f 	bl	c002a4c <prvUnlockQueue>
 c00316e:	f001 f8a5 	bl	c0042bc <xTaskResumeAll>
 c003172:	e7d4      	b.n	c00311e <xQueueSemaphoreTake+0x86>
 c003174:	f7ff fb3a 	bl	c0027ec <vPortExitCritical>
 c003178:	b926      	cbnz	r6, c003184 <xQueueSemaphoreTake+0xec>
 c00317a:	0030      	movs	r0, r6
 c00317c:	b004      	add	sp, #16
 c00317e:	bc80      	pop	{r7}
 c003180:	46b8      	mov	r8, r7
 c003182:	bdf0      	pop	{r4, r5, r6, r7, pc}
 c003184:	f7ff fb24 	bl	c0027d0 <vPortEnterCritical>
 c003188:	6a61      	ldr	r1, [r4, #36]	; 0x24
 c00318a:	b119      	cbz	r1, c003194 <xQueueSemaphoreTake+0xfc>
 c00318c:	210b      	movs	r1, #11
 c00318e:	6b23      	ldr	r3, [r4, #48]	; 0x30
 c003190:	681b      	ldr	r3, [r3, #0]
 c003192:	1ac9      	subs	r1, r1, r3
 c003194:	68a0      	ldr	r0, [r4, #8]
 c003196:	f001 fbd9 	bl	c00494c <vTaskPriorityDisinheritAfterTimeout>
 c00319a:	f7ff fb27 	bl	c0027ec <vPortExitCritical>
 c00319e:	2600      	movs	r6, #0
 c0031a0:	e7eb      	b.n	c00317a <xQueueSemaphoreTake+0xe2>
 c0031a2:	f7ff fb09 	bl	c0027b8 <vPortYield>
 c0031a6:	e7ba      	b.n	c00311e <xQueueSemaphoreTake+0x86>
 c0031a8:	f7ff fb12 	bl	c0027d0 <vPortEnterCritical>
 c0031ac:	68a0      	ldr	r0, [r4, #8]
 c0031ae:	f001 fb55 	bl	c00485c <xTaskPriorityInherit>
 c0031b2:	0006      	movs	r6, r0
 c0031b4:	f7ff fb1a 	bl	c0027ec <vPortExitCritical>
 c0031b8:	e7a5      	b.n	c003106 <xQueueSemaphoreTake+0x6e>
 c0031ba:	0020      	movs	r0, r4
 c0031bc:	3010      	adds	r0, #16
 c0031be:	f001 fa25 	bl	c00460c <xTaskRemoveFromEventList>
 c0031c2:	2800      	cmp	r0, #0
 c0031c4:	d0ba      	beq.n	c00313c <xQueueSemaphoreTake+0xa4>
 c0031c6:	f7ff faf7 	bl	c0027b8 <vPortYield>
 c0031ca:	e7b7      	b.n	c00313c <xQueueSemaphoreTake+0xa4>
 c0031cc:	f001 fbfe 	bl	c0049cc <pvTaskIncrementMutexHeldCount>
 c0031d0:	60a0      	str	r0, [r4, #8]
 c0031d2:	e7b0      	b.n	c003136 <xQueueSemaphoreTake+0x9e>

0c0031d4 <xQueueReceiveFromISR>:
 c0031d4:	b5f8      	push	{r3, r4, r5, r6, r7, lr}
 c0031d6:	46ce      	mov	lr, r9
 c0031d8:	4647      	mov	r7, r8
 c0031da:	0004      	movs	r4, r0
 c0031dc:	b580      	push	{r7, lr}
 c0031de:	4689      	mov	r9, r1
 c0031e0:	4690      	mov	r8, r2
 c0031e2:	f7ff fb0d 	bl	c002800 <ulSetInterruptMaskFromISR>
 c0031e6:	6ba6      	ldr	r6, [r4, #56]	; 0x38
 c0031e8:	0005      	movs	r5, r0
 c0031ea:	2700      	movs	r7, #0
 c0031ec:	b93e      	cbnz	r6, c0031fe <xQueueReceiveFromISR+0x2a>
 c0031ee:	0028      	movs	r0, r5
 c0031f0:	f7ff fb0c 	bl	c00280c <vClearInterruptMaskFromISR>
 c0031f4:	0038      	movs	r0, r7
 c0031f6:	bcc0      	pop	{r6, r7}
 c0031f8:	46b9      	mov	r9, r7
 c0031fa:	46b0      	mov	r8, r6
 c0031fc:	bdf8      	pop	{r3, r4, r5, r6, r7, pc}
 c0031fe:	2344      	movs	r3, #68	; 0x44
 c003200:	6c22      	ldr	r2, [r4, #64]	; 0x40
 c003202:	5ce7      	ldrb	r7, [r4, r3]
 c003204:	b27f      	sxtb	r7, r7
 c003206:	b152      	cbz	r2, c00321e <xQueueReceiveFromISR+0x4a>
 c003208:	68e3      	ldr	r3, [r4, #12]
 c00320a:	1899      	adds	r1, r3, r2
 c00320c:	68a3      	ldr	r3, [r4, #8]
 c00320e:	60e1      	str	r1, [r4, #12]
 c003210:	4299      	cmp	r1, r3
 c003212:	d301      	bcc.n	c003218 <xQueueReceiveFromISR+0x44>
 c003214:	6821      	ldr	r1, [r4, #0]
 c003216:	60e1      	str	r1, [r4, #12]
 c003218:	4648      	mov	r0, r9
 c00321a:	f01d fab1 	bl	c020780 <____wrap_memcpy_veneer>
 c00321e:	3e01      	subs	r6, #1
 c003220:	63a6      	str	r6, [r4, #56]	; 0x38
 c003222:	1c7b      	adds	r3, r7, #1
 c003224:	d005      	beq.n	c003232 <xQueueReceiveFromISR+0x5e>
 c003226:	2344      	movs	r3, #68	; 0x44
 c003228:	3701      	adds	r7, #1
 c00322a:	b27f      	sxtb	r7, r7
 c00322c:	54e7      	strb	r7, [r4, r3]
 c00322e:	2701      	movs	r7, #1
 c003230:	e7dd      	b.n	c0031ee <xQueueReceiveFromISR+0x1a>
 c003232:	6923      	ldr	r3, [r4, #16]
 c003234:	2b00      	cmp	r3, #0
 c003236:	d0fa      	beq.n	c00322e <xQueueReceiveFromISR+0x5a>
 c003238:	0020      	movs	r0, r4
 c00323a:	3010      	adds	r0, #16
 c00323c:	f001 f9e6 	bl	c00460c <xTaskRemoveFromEventList>
 c003240:	2800      	cmp	r0, #0
 c003242:	d0f4      	beq.n	c00322e <xQueueReceiveFromISR+0x5a>
 c003244:	4643      	mov	r3, r8
 c003246:	2b00      	cmp	r3, #0
 c003248:	d0f1      	beq.n	c00322e <xQueueReceiveFromISR+0x5a>
 c00324a:	2301      	movs	r3, #1
 c00324c:	4642      	mov	r2, r8
 c00324e:	2701      	movs	r7, #1
 c003250:	6013      	str	r3, [r2, #0]
 c003252:	e7cc      	b.n	c0031ee <xQueueReceiveFromISR+0x1a>

0c003254 <vQueueDelete>:
 c003254:	2346      	movs	r3, #70	; 0x46
 c003256:	5cc3      	ldrb	r3, [r0, r3]
 c003258:	b510      	push	{r4, lr}
 c00325a:	b103      	cbz	r3, c00325e <vQueueDelete+0xa>
 c00325c:	bd10      	pop	{r4, pc}
 c00325e:	f7fe f98b 	bl	c001578 <vPortFree>
 c003262:	e7fb      	b.n	c00325c <vQueueDelete+0x8>

0c003264 <vQueueWaitForMessageRestricted>:
 c003264:	b570      	push	{r4, r5, r6, lr}
 c003266:	0004      	movs	r4, r0
 c003268:	0016      	movs	r6, r2
 c00326a:	000d      	movs	r5, r1
 c00326c:	f7ff fab0 	bl	c0027d0 <vPortEnterCritical>
 c003270:	2244      	movs	r2, #68	; 0x44
 c003272:	5ca3      	ldrb	r3, [r4, r2]
 c003274:	b25b      	sxtb	r3, r3
 c003276:	3301      	adds	r3, #1
 c003278:	d101      	bne.n	c00327e <vQueueWaitForMessageRestricted+0x1a>
 c00327a:	2300      	movs	r3, #0
 c00327c:	54a3      	strb	r3, [r4, r2]
 c00327e:	2245      	movs	r2, #69	; 0x45
 c003280:	5ca3      	ldrb	r3, [r4, r2]
 c003282:	b25b      	sxtb	r3, r3
 c003284:	3301      	adds	r3, #1
 c003286:	d101      	bne.n	c00328c <vQueueWaitForMessageRestricted+0x28>
 c003288:	2300      	movs	r3, #0
 c00328a:	54a3      	strb	r3, [r4, r2]
 c00328c:	f7ff faae 	bl	c0027ec <vPortExitCritical>
 c003290:	6ba3      	ldr	r3, [r4, #56]	; 0x38
 c003292:	b11b      	cbz	r3, c00329c <vQueueWaitForMessageRestricted+0x38>
 c003294:	0020      	movs	r0, r4
 c003296:	f7ff fbd9 	bl	c002a4c <prvUnlockQueue>
 c00329a:	bd70      	pop	{r4, r5, r6, pc}
 c00329c:	0020      	movs	r0, r4
 c00329e:	0032      	movs	r2, r6
 c0032a0:	0029      	movs	r1, r5
 c0032a2:	3024      	adds	r0, #36	; 0x24
 c0032a4:	f001 f99e 	bl	c0045e4 <vTaskPlaceOnEventListRestricted>
 c0032a8:	e7f4      	b.n	c003294 <vQueueWaitForMessageRestricted+0x30>
 c0032aa:	bf00      	nop

0c0032ac <shell_loguratRx_ipc_int>:
 c0032ac:	b5f8      	push	{r3, r4, r5, r6, r7, lr}
 c0032ae:	2104      	movs	r1, #4
 c0032b0:	2000      	movs	r0, #0
 c0032b2:	f7fd f9db 	bl	c00066c <ipc_get_message>
 c0032b6:	f240 64b0 	movw	r4, #1712	; 0x6b0
 c0032ba:	f64e 5300 	movw	r3, #60672	; 0xed00
 c0032be:	f2c2 0400 	movt	r4, #8192	; 0x2000
 c0032c2:	f2ce 0300 	movt	r3, #57344	; 0xe000
 c0032c6:	6865      	ldr	r5, [r4, #4]
 c0032c8:	695b      	ldr	r3, [r3, #20]
 c0032ca:	6841      	ldr	r1, [r0, #4]
 c0032cc:	03db      	lsls	r3, r3, #15
 c0032ce:	d518      	bpl.n	c003302 <shell_loguratRx_ipc_int+0x56>
 c0032d0:	231f      	movs	r3, #31
 c0032d2:	0018      	movs	r0, r3
 c0032d4:	4008      	ands	r0, r1
 c0032d6:	420b      	tst	r3, r1
 c0032d8:	d12c      	bne.n	c003334 <shell_loguratRx_ipc_int+0x88>
 c0032da:	000b      	movs	r3, r1
 c0032dc:	2080      	movs	r0, #128	; 0x80
 c0032de:	f3bf 8f4f 	dsb	sy
 c0032e2:	f64e 5600 	movw	r6, #60672	; 0xed00
 c0032e6:	f240 275c 	movw	r7, #604	; 0x25c
 c0032ea:	18c0      	adds	r0, r0, r3
 c0032ec:	f2ce 0600 	movt	r6, #57344	; 0xe000
 c0032f0:	51f3      	str	r3, [r6, r7]
 c0032f2:	3320      	adds	r3, #32
 c0032f4:	1ac2      	subs	r2, r0, r3
 c0032f6:	2a00      	cmp	r2, #0
 c0032f8:	dcfa      	bgt.n	c0032f0 <shell_loguratRx_ipc_int+0x44>
 c0032fa:	f3bf 8f4f 	dsb	sy
 c0032fe:	f3bf 8f6f 	isb	sy
 c003302:	f245 33ed 	movw	r3, #21485	; 0x53ed
 c003306:	2280      	movs	r2, #128	; 0x80
 c003308:	f2c0 0300 	movt	r3, #0
 c00330c:	0028      	movs	r0, r5
 c00330e:	4798      	blx	r3
 c003310:	f641 5184 	movw	r1, #7556	; 0x1d84
 c003314:	f245 6335 	movw	r3, #22069	; 0x5635
 c003318:	1c68      	adds	r0, r5, #1
 c00331a:	f6c0 4102 	movt	r1, #3074	; 0xc02
 c00331e:	f2c0 0300 	movt	r3, #0
 c003322:	4798      	blx	r3
 c003324:	b158      	cbz	r0, c00333e <shell_loguratRx_ipc_int+0x92>
 c003326:	2301      	movs	r3, #1
 c003328:	7063      	strb	r3, [r4, #1]
 c00332a:	78a3      	ldrb	r3, [r4, #2]
 c00332c:	b10b      	cbz	r3, c003332 <shell_loguratRx_ipc_int+0x86>
 c00332e:	6963      	ldr	r3, [r4, #20]
 c003330:	4798      	blx	r3
 c003332:	bdf8      	pop	{r3, r4, r5, r6, r7, pc}
 c003334:	000a      	movs	r2, r1
 c003336:	439a      	bics	r2, r3
 c003338:	0013      	movs	r3, r2
 c00333a:	3080      	adds	r0, #128	; 0x80
 c00333c:	e7cf      	b.n	c0032de <shell_loguratRx_ipc_int+0x32>
 c00333e:	f245 0349 	movw	r3, #20553	; 0x5049
 c003342:	f6c0 4300 	movt	r3, #3072	; 0xc00
 c003346:	4798      	blx	r3
 c003348:	f644 63e1 	movw	r3, #20193	; 0x4ee1
 c00334c:	2200      	movs	r2, #0
 c00334e:	2180      	movs	r1, #128	; 0x80
 c003350:	0028      	movs	r0, r5
 c003352:	f2c0 0300 	movt	r3, #0
 c003356:	4798      	blx	r3
 c003358:	e7eb      	b.n	c003332 <shell_loguratRx_ipc_int+0x86>
 c00335a:	bf00      	nop

0c00335c <shell_give_sema>:
 c00335c:	f240 63b0 	movw	r3, #1712	; 0x6b0
 c003360:	b510      	push	{r4, lr}
 c003362:	f2c2 0300 	movt	r3, #8192	; 0x2000
 c003366:	789b      	ldrb	r3, [r3, #2]
 c003368:	b903      	cbnz	r3, c00336c <shell_give_sema+0x10>
 c00336a:	bd10      	pop	{r4, pc}
 c00336c:	f648 0318 	movw	r3, #34840	; 0x8818
 c003370:	f2c2 0306 	movt	r3, #8198	; 0x2006
 c003374:	6818      	ldr	r0, [r3, #0]
 c003376:	f7fe fe5f 	bl	c002038 <rtos_sema_give>
 c00337a:	e7f6      	b.n	c00336a <shell_give_sema+0xe>

0c00337c <shell_loguratRx_Ipc_Tx>:
 c00337c:	b5f0      	push	{r4, r5, r6, r7, lr}
 c00337e:	f240 63b0 	movw	r3, #1712	; 0x6b0
 c003382:	f648 051c 	movw	r5, #34844	; 0x881c
 c003386:	f2c2 0300 	movt	r3, #8192	; 0x2000
 c00338a:	f2c2 0506 	movt	r5, #8198	; 0x2006
 c00338e:	0007      	movs	r7, r0
 c003390:	000e      	movs	r6, r1
 c003392:	2280      	movs	r2, #128	; 0x80
 c003394:	6859      	ldr	r1, [r3, #4]
 c003396:	0028      	movs	r0, r5
 c003398:	b085      	sub	sp, #20
 c00339a:	f01d f9f1 	bl	c020780 <____wrap_memcpy_veneer>
 c00339e:	f64e 5300 	movw	r3, #60672	; 0xed00
 c0033a2:	f2ce 0300 	movt	r3, #57344	; 0xe000
 c0033a6:	695b      	ldr	r3, [r3, #20]
 c0033a8:	03db      	lsls	r3, r3, #15
 c0033aa:	d518      	bpl.n	c0033de <shell_loguratRx_Ipc_Tx+0x62>
 c0033ac:	231f      	movs	r3, #31
 c0033ae:	002c      	movs	r4, r5
 c0033b0:	401c      	ands	r4, r3
 c0033b2:	421d      	tst	r5, r3
 c0033b4:	d120      	bne.n	c0033f8 <shell_loguratRx_Ipc_Tx+0x7c>
 c0033b6:	002b      	movs	r3, r5
 c0033b8:	2480      	movs	r4, #128	; 0x80
 c0033ba:	f3bf 8f4f 	dsb	sy
 c0033be:	f64e 5100 	movw	r1, #60672	; 0xed00
 c0033c2:	f240 2070 	movw	r0, #624	; 0x270
 c0033c6:	18e4      	adds	r4, r4, r3
 c0033c8:	f2ce 0100 	movt	r1, #57344	; 0xe000
 c0033cc:	500b      	str	r3, [r1, r0]
 c0033ce:	3320      	adds	r3, #32
 c0033d0:	1ae2      	subs	r2, r4, r3
 c0033d2:	2a00      	cmp	r2, #0
 c0033d4:	dcfa      	bgt.n	c0033cc <shell_loguratRx_Ipc_Tx+0x50>
 c0033d6:	f3bf 8f4f 	dsb	sy
 c0033da:	f3bf 8f6f 	isb	sy
 c0033de:	2201      	movs	r2, #1
 c0033e0:	2300      	movs	r3, #0
 c0033e2:	9202      	str	r2, [sp, #8]
 c0033e4:	0038      	movs	r0, r7
 c0033e6:	466a      	mov	r2, sp
 c0033e8:	b2f1      	uxtb	r1, r6
 c0033ea:	9300      	str	r3, [sp, #0]
 c0033ec:	9501      	str	r5, [sp, #4]
 c0033ee:	9303      	str	r3, [sp, #12]
 c0033f0:	f7fd f8d4 	bl	c00059c <ipc_send_message>
 c0033f4:	b005      	add	sp, #20
 c0033f6:	bdf0      	pop	{r4, r5, r6, r7, pc}
 c0033f8:	002a      	movs	r2, r5
 c0033fa:	439a      	bics	r2, r3
 c0033fc:	0013      	movs	r3, r2
 c0033fe:	3480      	adds	r4, #128	; 0x80
 c003400:	e7db      	b.n	c0033ba <shell_loguratRx_Ipc_Tx+0x3e>
 c003402:	bf00      	nop

0c003404 <shell_loguratRx_dispatch>:
 c003404:	b5f8      	push	{r3, r4, r5, r6, r7, lr}
 c003406:	4647      	mov	r7, r8
 c003408:	46ce      	mov	lr, r9
 c00340a:	b580      	push	{r7, lr}
 c00340c:	f240 67b0 	movw	r7, #1712	; 0x6b0
 c003410:	f2c2 0700 	movt	r7, #8192	; 0x2000
 c003414:	687b      	ldr	r3, [r7, #4]
 c003416:	2400      	movs	r4, #0
 c003418:	4698      	mov	r8, r3
 c00341a:	1c5e      	adds	r6, r3, #1
 c00341c:	e002      	b.n	c003424 <shell_loguratRx_dispatch+0x20>
 c00341e:	3401      	adds	r4, #1
 c003420:	2c7f      	cmp	r4, #127	; 0x7f
 c003422:	d029      	beq.n	c003478 <shell_loguratRx_dispatch+0x74>
 c003424:	5d35      	ldrb	r5, [r6, r4]
 c003426:	2d20      	cmp	r5, #32
 c003428:	d0f9      	beq.n	c00341e <shell_loguratRx_dispatch+0x1a>
 c00342a:	b34d      	cbz	r5, c003480 <shell_loguratRx_dispatch+0x7c>
 c00342c:	1c63      	adds	r3, r4, #1
 c00342e:	4699      	mov	r9, r3
 c003430:	2d40      	cmp	r5, #64	; 0x40
 c003432:	d035      	beq.n	c0034a0 <shell_loguratRx_dispatch+0x9c>
 c003434:	001d      	movs	r5, r3
 c003436:	f641 5184 	movw	r1, #7556	; 0x1d84
 c00343a:	f245 6335 	movw	r3, #22069	; 0x5635
 c00343e:	4445      	add	r5, r8
 c003440:	0028      	movs	r0, r5
 c003442:	f6c0 4102 	movt	r1, #3074	; 0xc02
 c003446:	f2c0 0300 	movt	r3, #0
 c00344a:	4798      	blx	r3
 c00344c:	2800      	cmp	r0, #0
 c00344e:	d050      	beq.n	c0034f2 <shell_loguratRx_dispatch+0xee>
 c003450:	227f      	movs	r2, #127	; 0x7f
 c003452:	0029      	movs	r1, r5
 c003454:	0030      	movs	r0, r6
 c003456:	1b12      	subs	r2, r2, r4
 c003458:	f01d f992 	bl	c020780 <____wrap_memcpy_veneer>
 c00345c:	2104      	movs	r1, #4
 c00345e:	2000      	movs	r0, #0
 c003460:	f7ff ff8c 	bl	c00337c <shell_loguratRx_Ipc_Tx>
 c003464:	f644 63e1 	movw	r3, #20193	; 0x4ee1
 c003468:	2200      	movs	r2, #0
 c00346a:	f2c0 0300 	movt	r3, #0
 c00346e:	2180      	movs	r1, #128	; 0x80
 c003470:	4640      	mov	r0, r8
 c003472:	4798      	blx	r3
 c003474:	2300      	movs	r3, #0
 c003476:	707b      	strb	r3, [r7, #1]
 c003478:	bcc0      	pop	{r6, r7}
 c00347a:	46b9      	mov	r9, r7
 c00347c:	46b0      	mov	r8, r6
 c00347e:	bdf8      	pop	{r3, r4, r5, r6, r7, pc}
 c003480:	f641 508c 	movw	r0, #7564	; 0x1d8c
 c003484:	f6c0 4002 	movt	r0, #3074	; 0xc02
 c003488:	f002 fe20 	bl	c0060cc <DiagPrintf_minimal>
 c00348c:	f644 63e1 	movw	r3, #20193	; 0x4ee1
 c003490:	2200      	movs	r2, #0
 c003492:	2180      	movs	r1, #128	; 0x80
 c003494:	4640      	mov	r0, r8
 c003496:	f2c0 0300 	movt	r3, #0
 c00349a:	4798      	blx	r3
 c00349c:	707d      	strb	r5, [r7, #1]
 c00349e:	e7eb      	b.n	c003478 <shell_loguratRx_dispatch+0x74>
 c0034a0:	f641 5184 	movw	r1, #7556	; 0x1d84
 c0034a4:	f245 6335 	movw	r3, #22069	; 0x5635
 c0034a8:	3402      	adds	r4, #2
 c0034aa:	4444      	add	r4, r8
 c0034ac:	0020      	movs	r0, r4
 c0034ae:	f6c0 4102 	movt	r1, #3074	; 0xc02
 c0034b2:	f2c0 0300 	movt	r3, #0
 c0034b6:	0025      	movs	r5, r4
 c0034b8:	4798      	blx	r3
 c0034ba:	b9e0      	cbnz	r0, c0034f6 <shell_loguratRx_dispatch+0xf2>
 c0034bc:	464b      	mov	r3, r9
 c0034be:	227f      	movs	r2, #127	; 0x7f
 c0034c0:	0029      	movs	r1, r5
 c0034c2:	1ad2      	subs	r2, r2, r3
 c0034c4:	0030      	movs	r0, r6
 c0034c6:	f01d f95b 	bl	c020780 <____wrap_memcpy_veneer>
 c0034ca:	f644 73bd 	movw	r3, #20413	; 0x4fbd
 c0034ce:	f6c0 4300 	movt	r3, #3072	; 0xc00
 c0034d2:	4798      	blx	r3
 c0034d4:	f245 0349 	movw	r3, #20553	; 0x5049
 c0034d8:	f6c0 4300 	movt	r3, #3072	; 0xc00
 c0034dc:	4798      	blx	r3
 c0034de:	f641 43c5 	movw	r3, #7365	; 0x1cc5
 c0034e2:	f2c0 0300 	movt	r3, #0
 c0034e6:	4798      	blx	r3
 c0034e8:	2104      	movs	r1, #4
 c0034ea:	2000      	movs	r0, #0
 c0034ec:	f7ff ff46 	bl	c00337c <shell_loguratRx_Ipc_Tx>
 c0034f0:	e7b8      	b.n	c003464 <shell_loguratRx_dispatch+0x60>
 c0034f2:	46a1      	mov	r9, r4
 c0034f4:	e7e2      	b.n	c0034bc <shell_loguratRx_dispatch+0xb8>
 c0034f6:	464b      	mov	r3, r9
 c0034f8:	227f      	movs	r2, #127	; 0x7f
 c0034fa:	0021      	movs	r1, r4
 c0034fc:	0030      	movs	r0, r6
 c0034fe:	1ad2      	subs	r2, r2, r3
 c003500:	f01d f93e 	bl	c020780 <____wrap_memcpy_veneer>
 c003504:	e7b8      	b.n	c003478 <shell_loguratRx_dispatch+0x74>
 c003506:	bf00      	nop

0c003508 <shell_task_ram>:
 c003508:	b5f0      	push	{r4, r5, r6, r7, lr}
 c00350a:	464e      	mov	r6, r9
 c00350c:	f240 69b0 	movw	r9, #1712	; 0x6b0
 c003510:	46de      	mov	lr, fp
 c003512:	4645      	mov	r5, r8
 c003514:	4657      	mov	r7, sl
 c003516:	f2c2 0900 	movt	r9, #8192	; 0x2000
 c00351a:	464b      	mov	r3, r9
 c00351c:	b5e0      	push	{r5, r6, r7, lr}
 c00351e:	685b      	ldr	r3, [r3, #4]
 c003520:	b087      	sub	sp, #28
 c003522:	001c      	movs	r4, r3
 c003524:	464a      	mov	r2, r9
 c003526:	9301      	str	r3, [sp, #4]
 c003528:	2301      	movs	r3, #1
 c00352a:	f240 4000 	movw	r0, #1024	; 0x400
 c00352e:	7093      	strb	r3, [r2, #2]
 c003530:	f7fe ffb0 	bl	c002494 <rtos_create_secure_context>
 c003534:	0023      	movs	r3, r4
 c003536:	3301      	adds	r3, #1
 c003538:	9302      	str	r3, [sp, #8]
 c00353a:	f644 63ef 	movw	r3, #20207	; 0x4eef
 c00353e:	f2c0 0300 	movt	r3, #0
 c003542:	9305      	str	r3, [sp, #20]
 c003544:	f644 731b 	movw	r3, #20251	; 0x4f1b
 c003548:	f2c0 0300 	movt	r3, #0
 c00354c:	9304      	str	r3, [sp, #16]
 c00354e:	f644 63e1 	movw	r3, #20193	; 0x4ee1
 c003552:	f648 0b18 	movw	fp, #34840	; 0x8818
 c003556:	f245 6835 	movw	r8, #22069	; 0x5635
 c00355a:	f2c0 0300 	movt	r3, #0
 c00355e:	f2c2 0b06 	movt	fp, #8198	; 0x2006
 c003562:	f2c0 0800 	movt	r8, #0
 c003566:	9303      	str	r3, [sp, #12]
 c003568:	465b      	mov	r3, fp
 c00356a:	2101      	movs	r1, #1
 c00356c:	6818      	ldr	r0, [r3, #0]
 c00356e:	4249      	negs	r1, r1
 c003570:	f7fe fd3a 	bl	c001fe8 <rtos_sema_take>
 c003574:	f7ff ff46 	bl	c003404 <shell_loguratRx_dispatch>
 c003578:	464b      	mov	r3, r9
 c00357a:	785b      	ldrb	r3, [r3, #1]
 c00357c:	2b00      	cmp	r3, #0
 c00357e:	d0f3      	beq.n	c003568 <shell_task_ram+0x60>
 c003580:	9c02      	ldr	r4, [sp, #8]
 c003582:	9b05      	ldr	r3, [sp, #20]
 c003584:	0020      	movs	r0, r4
 c003586:	4798      	blx	r3
 c003588:	9b04      	ldr	r3, [sp, #16]
 c00358a:	9000      	str	r0, [sp, #0]
 c00358c:	0020      	movs	r0, r4
 c00358e:	4798      	blx	r3
 c003590:	464b      	mov	r3, r9
 c003592:	68dc      	ldr	r4, [r3, #12]
 c003594:	691e      	ldr	r6, [r3, #16]
 c003596:	4682      	mov	sl, r0
 c003598:	2500      	movs	r5, #0
 c00359a:	6807      	ldr	r7, [r0, #0]
 c00359c:	b1ae      	cbz	r6, c0035ca <shell_task_ram+0xc2>
 c00359e:	4643      	mov	r3, r8
 c0035a0:	46b0      	mov	r8, r6
 c0035a2:	001e      	movs	r6, r3
 c0035a4:	e003      	b.n	c0035ae <shell_task_ram+0xa6>
 c0035a6:	3501      	adds	r5, #1
 c0035a8:	3410      	adds	r4, #16
 c0035aa:	45a8      	cmp	r8, r5
 c0035ac:	d016      	beq.n	c0035dc <shell_task_ram+0xd4>
 c0035ae:	0038      	movs	r0, r7
 c0035b0:	6821      	ldr	r1, [r4, #0]
 c0035b2:	47b0      	blx	r6
 c0035b4:	2800      	cmp	r0, #0
 c0035b6:	d1f6      	bne.n	c0035a6 <shell_task_ram+0x9e>
 c0035b8:	68a3      	ldr	r3, [r4, #8]
 c0035ba:	46b0      	mov	r8, r6
 c0035bc:	b12b      	cbz	r3, c0035ca <shell_task_ram+0xc2>
 c0035be:	4651      	mov	r1, sl
 c0035c0:	9800      	ldr	r0, [sp, #0]
 c0035c2:	3104      	adds	r1, #4
 c0035c4:	3801      	subs	r0, #1
 c0035c6:	b280      	uxth	r0, r0
 c0035c8:	4798      	blx	r3
 c0035ca:	2200      	movs	r2, #0
 c0035cc:	9b03      	ldr	r3, [sp, #12]
 c0035ce:	2180      	movs	r1, #128	; 0x80
 c0035d0:	9801      	ldr	r0, [sp, #4]
 c0035d2:	4798      	blx	r3
 c0035d4:	2300      	movs	r3, #0
 c0035d6:	464a      	mov	r2, r9
 c0035d8:	7053      	strb	r3, [r2, #1]
 c0035da:	e7c5      	b.n	c003568 <shell_task_ram+0x60>
 c0035dc:	46b0      	mov	r8, r6
 c0035de:	e7f4      	b.n	c0035ca <shell_task_ram+0xc2>

0c0035e0 <shell_init_ram>:
 c0035e0:	f24a 31a8 	movw	r1, #41896	; 0xa3a8
 c0035e4:	f24a 32e8 	movw	r2, #41960	; 0xa3e8
 c0035e8:	f240 63b0 	movw	r3, #1712	; 0x6b0
 c0035ec:	f6c0 4102 	movt	r1, #3074	; 0xc02
 c0035f0:	f6c0 4202 	movt	r2, #3074	; 0xc02
 c0035f4:	1a52      	subs	r2, r2, r1
 c0035f6:	f2c2 0300 	movt	r3, #8192	; 0x2000
 c0035fa:	0912      	lsrs	r2, r2, #4
 c0035fc:	b500      	push	{lr}
 c0035fe:	60d9      	str	r1, [r3, #12]
 c003600:	611a      	str	r2, [r3, #16]
 c003602:	2200      	movs	r2, #0
 c003604:	705a      	strb	r2, [r3, #1]
 c003606:	3201      	adds	r2, #1
 c003608:	701a      	strb	r2, [r3, #0]
 c00360a:	f648 0018 	movw	r0, #34840	; 0x8818
 c00360e:	f243 325d 	movw	r2, #13149	; 0x335d
 c003612:	b083      	sub	sp, #12
 c003614:	f6c0 4200 	movt	r2, #3072	; 0xc00
 c003618:	f2c2 0006 	movt	r0, #8198	; 0x2006
 c00361c:	615a      	str	r2, [r3, #20]
 c00361e:	f7fe fcd3 	bl	c001fc8 <rtos_sema_create_binary>
 c003622:	2305      	movs	r3, #5
 c003624:	f243 5209 	movw	r2, #13577	; 0x3509
 c003628:	f641 5190 	movw	r1, #7568	; 0x1d90
 c00362c:	9301      	str	r3, [sp, #4]
 c00362e:	f241 0300 	movw	r3, #4096	; 0x1000
 c003632:	2000      	movs	r0, #0
 c003634:	9300      	str	r3, [sp, #0]
 c003636:	f6c0 4200 	movt	r2, #3072	; 0xc00
 c00363a:	2300      	movs	r3, #0
 c00363c:	f6c0 4102 	movt	r1, #3074	; 0xc02
 c003640:	f7fe ff0e 	bl	c002460 <rtos_task_create>
 c003644:	b908      	cbnz	r0, c00364a <shell_init_ram+0x6a>
 c003646:	b003      	add	sp, #12
 c003648:	bd00      	pop	{pc}
 c00364a:	f641 53a0 	movw	r3, #7584	; 0x1da0
 c00364e:	f641 51bc 	movw	r1, #7612	; 0x1dbc
 c003652:	2245      	movs	r2, #69	; 0x45
 c003654:	2002      	movs	r0, #2
 c003656:	f6c0 4302 	movt	r3, #3074	; 0xc02
 c00365a:	f6c0 4102 	movt	r1, #3074	; 0xc02
 c00365e:	f7fe f8f7 	bl	c001850 <rtk_log_write>
 c003662:	e7f0      	b.n	c003646 <shell_init_ram+0x66>

0c003664 <judge_digit_width>:
 c003664:	b510      	push	{r4, lr}
 c003666:	0002      	movs	r2, r0
 c003668:	7803      	ldrb	r3, [r0, #0]
 c00366a:	2910      	cmp	r1, #16
 c00366c:	d01d      	beq.n	c0036aa <judge_digit_width+0x46>
 c00366e:	b959      	cbnz	r1, c003688 <judge_digit_width+0x24>
 c003670:	2b30      	cmp	r3, #48	; 0x30
 c003672:	d03c      	beq.n	c0036ee <judge_digit_width+0x8a>
 c003674:	3b30      	subs	r3, #48	; 0x30
 c003676:	2000      	movs	r0, #0
 c003678:	2b09      	cmp	r3, #9
 c00367a:	d804      	bhi.n	c003686 <judge_digit_width+0x22>
 c00367c:	3001      	adds	r0, #1
 c00367e:	5c13      	ldrb	r3, [r2, r0]
 c003680:	3b30      	subs	r3, #48	; 0x30
 c003682:	2b09      	cmp	r3, #9
 c003684:	d9fa      	bls.n	c00367c <judge_digit_width+0x18>
 c003686:	bd10      	pop	{r4, pc}
 c003688:	2908      	cmp	r1, #8
 c00368a:	d1f3      	bne.n	c003674 <judge_digit_width+0x10>
 c00368c:	3b30      	subs	r3, #48	; 0x30
 c00368e:	2000      	movs	r0, #0
 c003690:	2b07      	cmp	r3, #7
 c003692:	d8f8      	bhi.n	c003686 <judge_digit_width+0x22>
 c003694:	3001      	adds	r0, #1
 c003696:	5c13      	ldrb	r3, [r2, r0]
 c003698:	3b30      	subs	r3, #48	; 0x30
 c00369a:	2b07      	cmp	r3, #7
 c00369c:	d8f3      	bhi.n	c003686 <judge_digit_width+0x22>
 c00369e:	3001      	adds	r0, #1
 c0036a0:	5c13      	ldrb	r3, [r2, r0]
 c0036a2:	3b30      	subs	r3, #48	; 0x30
 c0036a4:	2b07      	cmp	r3, #7
 c0036a6:	d9f5      	bls.n	c003694 <judge_digit_width+0x30>
 c0036a8:	e7ed      	b.n	c003686 <judge_digit_width+0x22>
 c0036aa:	2b30      	cmp	r3, #48	; 0x30
 c0036ac:	d00d      	beq.n	c0036ca <judge_digit_width+0x66>
 c0036ae:	2000      	movs	r0, #0
 c0036b0:	2420      	movs	r4, #32
 c0036b2:	e001      	b.n	c0036b8 <judge_digit_width+0x54>
 c0036b4:	3001      	adds	r0, #1
 c0036b6:	5c13      	ldrb	r3, [r2, r0]
 c0036b8:	0019      	movs	r1, r3
 c0036ba:	3930      	subs	r1, #48	; 0x30
 c0036bc:	2909      	cmp	r1, #9
 c0036be:	d9f9      	bls.n	c0036b4 <judge_digit_width+0x50>
 c0036c0:	43a3      	bics	r3, r4
 c0036c2:	3b41      	subs	r3, #65	; 0x41
 c0036c4:	2b05      	cmp	r3, #5
 c0036c6:	d9f5      	bls.n	c0036b4 <judge_digit_width+0x50>
 c0036c8:	e7dd      	b.n	c003686 <judge_digit_width+0x22>
 c0036ca:	7841      	ldrb	r1, [r0, #1]
 c0036cc:	2020      	movs	r0, #32
 c0036ce:	4301      	orrs	r1, r0
 c0036d0:	2978      	cmp	r1, #120	; 0x78
 c0036d2:	d1ec      	bne.n	c0036ae <judge_digit_width+0x4a>
 c0036d4:	381e      	subs	r0, #30
 c0036d6:	2420      	movs	r4, #32
 c0036d8:	5c13      	ldrb	r3, [r2, r0]
 c0036da:	0019      	movs	r1, r3
 c0036dc:	3930      	subs	r1, #48	; 0x30
 c0036de:	2909      	cmp	r1, #9
 c0036e0:	d903      	bls.n	c0036ea <judge_digit_width+0x86>
 c0036e2:	43a3      	bics	r3, r4
 c0036e4:	3b41      	subs	r3, #65	; 0x41
 c0036e6:	2b05      	cmp	r3, #5
 c0036e8:	d8cd      	bhi.n	c003686 <judge_digit_width+0x22>
 c0036ea:	3001      	adds	r0, #1
 c0036ec:	e7f4      	b.n	c0036d8 <judge_digit_width+0x74>
 c0036ee:	2120      	movs	r1, #32
 c0036f0:	7843      	ldrb	r3, [r0, #1]
 c0036f2:	2002      	movs	r0, #2
 c0036f4:	430b      	orrs	r3, r1
 c0036f6:	2b78      	cmp	r3, #120	; 0x78
 c0036f8:	d0ed      	beq.n	c0036d6 <judge_digit_width+0x72>
 c0036fa:	2000      	movs	r0, #0
 c0036fc:	e7ca      	b.n	c003694 <judge_digit_width+0x30>
 c0036fe:	bf00      	nop

0c003700 <_vsscanf_minimal>:
 c003700:	b5f0      	push	{r4, r5, r6, r7, lr}
 c003702:	46de      	mov	lr, fp
 c003704:	4657      	mov	r7, sl
 c003706:	4645      	mov	r5, r8
 c003708:	464e      	mov	r6, r9
 c00370a:	2300      	movs	r3, #0
 c00370c:	b5e0      	push	{r5, r6, r7, lr}
 c00370e:	000d      	movs	r5, r1
 c003710:	b08d      	sub	sp, #52	; 0x34
 c003712:	9003      	str	r0, [sp, #12]
 c003714:	9201      	str	r2, [sp, #4]
 c003716:	0004      	movs	r4, r0
 c003718:	2214      	movs	r2, #20
 c00371a:	2100      	movs	r1, #0
 c00371c:	a807      	add	r0, sp, #28
 c00371e:	9306      	str	r3, [sp, #24]
 c003720:	f01d f81e 	bl	c020760 <____wrap_memset_veneer>
 c003724:	2300      	movs	r3, #0
 c003726:	782f      	ldrb	r7, [r5, #0]
 c003728:	9300      	str	r3, [sp, #0]
 c00372a:	b19f      	cbz	r7, c003754 <_vsscanf_minimal+0x54>
 c00372c:	ab0c      	add	r3, sp, #48	; 0x30
 c00372e:	469b      	mov	fp, r3
 c003730:	46b8      	mov	r8, r7
 c003732:	4643      	mov	r3, r8
 c003734:	2b20      	cmp	r3, #32
 c003736:	d019      	beq.n	c00376c <_vsscanf_minimal+0x6c>
 c003738:	3b09      	subs	r3, #9
 c00373a:	2b04      	cmp	r3, #4
 c00373c:	d916      	bls.n	c00376c <_vsscanf_minimal+0x6c>
 c00373e:	4643      	mov	r3, r8
 c003740:	2b2c      	cmp	r3, #44	; 0x2c
 c003742:	d013      	beq.n	c00376c <_vsscanf_minimal+0x6c>
 c003744:	782b      	ldrb	r3, [r5, #0]
 c003746:	2b25      	cmp	r3, #37	; 0x25
 c003748:	d025      	beq.n	c003796 <_vsscanf_minimal+0x96>
 c00374a:	b11b      	cbz	r3, c003754 <_vsscanf_minimal+0x54>
 c00374c:	7822      	ldrb	r2, [r4, #0]
 c00374e:	429a      	cmp	r2, r3
 c003750:	d100      	bne.n	c003754 <_vsscanf_minimal+0x54>
 c003752:	e124      	b.n	c00399e <_vsscanf_minimal+0x29e>
 c003754:	9800      	ldr	r0, [sp, #0]
 c003756:	b00d      	add	sp, #52	; 0x34
 c003758:	bcf0      	pop	{r4, r5, r6, r7}
 c00375a:	46bb      	mov	fp, r7
 c00375c:	46b2      	mov	sl, r6
 c00375e:	46a9      	mov	r9, r5
 c003760:	46a0      	mov	r8, r4
 c003762:	bdf0      	pop	{r4, r5, r6, r7, pc}
 c003764:	4698      	mov	r8, r3
 c003766:	2a20      	cmp	r2, #32
 c003768:	d000      	beq.n	c00376c <_vsscanf_minimal+0x6c>
 c00376a:	e153      	b.n	c003a14 <_vsscanf_minimal+0x314>
 c00376c:	786b      	ldrb	r3, [r5, #1]
 c00376e:	3501      	adds	r5, #1
 c003770:	2b20      	cmp	r3, #32
 c003772:	d0fb      	beq.n	c00376c <_vsscanf_minimal+0x6c>
 c003774:	001a      	movs	r2, r3
 c003776:	3a09      	subs	r2, #9
 c003778:	2a04      	cmp	r2, #4
 c00377a:	d9f7      	bls.n	c00376c <_vsscanf_minimal+0x6c>
 c00377c:	2b2c      	cmp	r3, #44	; 0x2c
 c00377e:	d0f5      	beq.n	c00376c <_vsscanf_minimal+0x6c>
 c003780:	7822      	ldrb	r2, [r4, #0]
 c003782:	2a20      	cmp	r2, #32
 c003784:	d005      	beq.n	c003792 <_vsscanf_minimal+0x92>
 c003786:	0011      	movs	r1, r2
 c003788:	3909      	subs	r1, #9
 c00378a:	2904      	cmp	r1, #4
 c00378c:	d901      	bls.n	c003792 <_vsscanf_minimal+0x92>
 c00378e:	2a2c      	cmp	r2, #44	; 0x2c
 c003790:	d1d9      	bne.n	c003746 <_vsscanf_minimal+0x46>
 c003792:	3401      	adds	r4, #1
 c003794:	e7f4      	b.n	c003780 <_vsscanf_minimal+0x80>
 c003796:	786a      	ldrb	r2, [r5, #1]
 c003798:	1c6b      	adds	r3, r5, #1
 c00379a:	4690      	mov	r8, r2
 c00379c:	2a2a      	cmp	r2, #42	; 0x2a
 c00379e:	d100      	bne.n	c0037a2 <_vsscanf_minimal+0xa2>
 c0037a0:	e116      	b.n	c0039d0 <_vsscanf_minimal+0x2d0>
 c0037a2:	3a30      	subs	r2, #48	; 0x30
 c0037a4:	2a09      	cmp	r2, #9
 c0037a6:	d800      	bhi.n	c0037aa <_vsscanf_minimal+0xaa>
 c0037a8:	e0e5      	b.n	c003976 <_vsscanf_minimal+0x276>
 c0037aa:	2701      	movs	r7, #1
 c0037ac:	427f      	negs	r7, r7
 c0037ae:	4642      	mov	r2, r8
 c0037b0:	2a68      	cmp	r2, #104	; 0x68
 c0037b2:	d100      	bne.n	c0037b6 <_vsscanf_minimal+0xb6>
 c0037b4:	e0d3      	b.n	c00395e <_vsscanf_minimal+0x25e>
 c0037b6:	2220      	movs	r2, #32
 c0037b8:	4641      	mov	r1, r8
 c0037ba:	430a      	orrs	r2, r1
 c0037bc:	2a6c      	cmp	r2, #108	; 0x6c
 c0037be:	d100      	bne.n	c0037c2 <_vsscanf_minimal+0xc2>
 c0037c0:	e08a      	b.n	c0038d8 <_vsscanf_minimal+0x1d8>
 c0037c2:	2a7a      	cmp	r2, #122	; 0x7a
 c0037c4:	d100      	bne.n	c0037c8 <_vsscanf_minimal+0xc8>
 c0037c6:	e087      	b.n	c0038d8 <_vsscanf_minimal+0x1d8>
 c0037c8:	4642      	mov	r2, r8
 c0037ca:	f240 08ff 	movw	r8, #255	; 0xff
 c0037ce:	9302      	str	r3, [sp, #8]
 c0037d0:	2a00      	cmp	r2, #0
 c0037d2:	d0bf      	beq.n	c003754 <_vsscanf_minimal+0x54>
 c0037d4:	2a6e      	cmp	r2, #110	; 0x6e
 c0037d6:	d100      	bne.n	c0037da <_vsscanf_minimal+0xda>
 c0037d8:	e121      	b.n	c003a1e <_vsscanf_minimal+0x31e>
 c0037da:	7826      	ldrb	r6, [r4, #0]
 c0037dc:	2e00      	cmp	r6, #0
 c0037de:	d0b9      	beq.n	c003754 <_vsscanf_minimal+0x54>
 c0037e0:	9b02      	ldr	r3, [sp, #8]
 c0037e2:	1c5d      	adds	r5, r3, #1
 c0037e4:	2a69      	cmp	r2, #105	; 0x69
 c0037e6:	d100      	bne.n	c0037ea <_vsscanf_minimal+0xea>
 c0037e8:	e159      	b.n	c003a9e <_vsscanf_minimal+0x39e>
 c0037ea:	d900      	bls.n	c0037ee <_vsscanf_minimal+0xee>
 c0037ec:	e08f      	b.n	c00390e <_vsscanf_minimal+0x20e>
 c0037ee:	2a63      	cmp	r2, #99	; 0x63
 c0037f0:	d100      	bne.n	c0037f4 <_vsscanf_minimal+0xf4>
 c0037f2:	e13b      	b.n	c003a6c <_vsscanf_minimal+0x36c>
 c0037f4:	d800      	bhi.n	c0037f8 <_vsscanf_minimal+0xf8>
 c0037f6:	e095      	b.n	c003924 <_vsscanf_minimal+0x224>
 c0037f8:	2a64      	cmp	r2, #100	; 0x64
 c0037fa:	d1ab      	bne.n	c003754 <_vsscanf_minimal+0x54>
 c0037fc:	f240 090a 	movw	r9, #10
 c003800:	f240 0a01 	movw	sl, #1
 c003804:	e001      	b.n	c00380a <_vsscanf_minimal+0x10a>
 c003806:	7866      	ldrb	r6, [r4, #1]
 c003808:	3401      	adds	r4, #1
 c00380a:	2e20      	cmp	r6, #32
 c00380c:	d0fb      	beq.n	c003806 <_vsscanf_minimal+0x106>
 c00380e:	0033      	movs	r3, r6
 c003810:	3b09      	subs	r3, #9
 c003812:	2b04      	cmp	r3, #4
 c003814:	d9f7      	bls.n	c003806 <_vsscanf_minimal+0x106>
 c003816:	2e2c      	cmp	r6, #44	; 0x2c
 c003818:	d0f5      	beq.n	c003806 <_vsscanf_minimal+0x106>
 c00381a:	4653      	mov	r3, sl
 c00381c:	2b00      	cmp	r3, #0
 c00381e:	d06b      	beq.n	c0038f8 <_vsscanf_minimal+0x1f8>
 c003820:	2e2d      	cmp	r6, #45	; 0x2d
 c003822:	d169      	bne.n	c0038f8 <_vsscanf_minimal+0x1f8>
 c003824:	4649      	mov	r1, r9
 c003826:	1c60      	adds	r0, r4, #1
 c003828:	1c7b      	adds	r3, r7, #1
 c00382a:	d100      	bne.n	c00382e <_vsscanf_minimal+0x12e>
 c00382c:	e176      	b.n	c003b1c <_vsscanf_minimal+0x41c>
 c00382e:	f7ff ff19 	bl	c003664 <judge_digit_width>
 c003832:	3001      	adds	r0, #1
 c003834:	42b8      	cmp	r0, r7
 c003836:	da00      	bge.n	c00383a <_vsscanf_minimal+0x13a>
 c003838:	b207      	sxth	r7, r0
 c00383a:	7863      	ldrb	r3, [r4, #1]
 c00383c:	2b00      	cmp	r3, #0
 c00383e:	d100      	bne.n	c003842 <_vsscanf_minimal+0x142>
 c003840:	e788      	b.n	c003754 <_vsscanf_minimal+0x54>
 c003842:	464a      	mov	r2, r9
 c003844:	2a10      	cmp	r2, #16
 c003846:	d100      	bne.n	c00384a <_vsscanf_minimal+0x14a>
 c003848:	e102      	b.n	c003a50 <_vsscanf_minimal+0x350>
 c00384a:	2a0a      	cmp	r2, #10
 c00384c:	d100      	bne.n	c003850 <_vsscanf_minimal+0x150>
 c00384e:	e0b9      	b.n	c0039c4 <_vsscanf_minimal+0x2c4>
 c003850:	2a08      	cmp	r2, #8
 c003852:	d000      	beq.n	c003856 <_vsscanf_minimal+0x156>
 c003854:	e0b3      	b.n	c0039be <_vsscanf_minimal+0x2be>
 c003856:	3b30      	subs	r3, #48	; 0x30
 c003858:	b2db      	uxtb	r3, r3
 c00385a:	2b07      	cmp	r3, #7
 c00385c:	d900      	bls.n	c003860 <_vsscanf_minimal+0x160>
 c00385e:	e779      	b.n	c003754 <_vsscanf_minimal+0x54>
 c003860:	2301      	movs	r3, #1
 c003862:	2f00      	cmp	r7, #0
 c003864:	dc02      	bgt.n	c00386c <_vsscanf_minimal+0x16c>
 c003866:	e006      	b.n	c003876 <_vsscanf_minimal+0x176>
 c003868:	5ce6      	ldrb	r6, [r4, r3]
 c00386a:	3301      	adds	r3, #1
 c00386c:	aa04      	add	r2, sp, #16
 c00386e:	3207      	adds	r2, #7
 c003870:	54d6      	strb	r6, [r2, r3]
 c003872:	429f      	cmp	r7, r3
 c003874:	dcf8      	bgt.n	c003868 <_vsscanf_minimal+0x168>
 c003876:	4653      	mov	r3, sl
 c003878:	2b00      	cmp	r3, #0
 c00387a:	d100      	bne.n	c00387e <_vsscanf_minimal+0x17e>
 c00387c:	e0da      	b.n	c003a34 <_vsscanf_minimal+0x334>
 c00387e:	4643      	mov	r3, r8
 c003880:	ae06      	add	r6, sp, #24
 c003882:	464a      	mov	r2, r9
 c003884:	0030      	movs	r0, r6
 c003886:	a905      	add	r1, sp, #20
 c003888:	2b4c      	cmp	r3, #76	; 0x4c
 c00388a:	d100      	bne.n	c00388e <_vsscanf_minimal+0x18e>
 c00388c:	e143      	b.n	c003b16 <_vsscanf_minimal+0x416>
 c00388e:	f01b f829 	bl	c01e8e4 <strtol>
 c003892:	17c1      	asrs	r1, r0, #31
 c003894:	2300      	movs	r3, #0
